(lp0
VGains Over 2500% In one Trade.. Subscribe Here! https://t.co/8WvnrVmkBS .. $BTZO $SFOR $SAFC
p1
aVGains Over 2500% In one Trade.. Subscribe Here! https://t.co/8WvnrVmkBS .. $PCWT $HYII $MJNA
p2
aVGains Over 2500% In one Trade.. Subscribe Here! https://t.co/8WvnrVmkBS .. $ACYD $FNMA $WNTR
p3
aVGains Over 2500% In one Trade.. Subscribe Here! https://t.co/8WvnrVmkBS .. $TDEY $CBYI $GLER
p4
aVGains Over 2500% In one Trade.. Subscribe Here! https://t.co/8WvnrVmkBS .. $HLOSF $CLNP $HAS
p5
aVGains Over 2500% In one Trade.. Subscribe Here! https://t.co/8WvnrVmkBS .. $IWM $ANDI $GDSM
p6
aVGains Over 2500% In one Trade.. Subscribe Here! https://t.co/8WvnrVmkBS .. #StockCharts #NYSE #America
p7
aVGains Over 2500% In one Trade.. Subscribe Here! https://t.co/8WvnrVmkBS .. #Trading #Daytrading
p8
aVGains Over 2500% In one Trade.. Subscribe Here! https://t.co/8WvnrVmkBS .. #MoneyMarkets #LearnToInvest
p9
aVGains Over 2500% In one Trade.. Subscribe Here! https://t.co/8WvnrVmkBS .. $GS $ZION $ISRA
p10
aVGains Over 2500% In one Trade.. Subscribe Here! https://t.co/8WvnrVmkBS .. $LVS $JPM $MHYS
p11
aVGains Over 2500% In one Trade.. Subscribe Here! https://t.co/8WvnrVmkBS .. $PRLB $P $NXPI
p12
aVGains Over 2500% In one Trade.. Subscribe Here! https://t.co/8WvnrVmkBS .. $Q $TWTR $YY
p13
aVGains Over 2500% In one Trade.. Subscribe Here! https://t.co/8WvnrVmkBS .. $IR $NATI $HAR
p14
aVGains Over 2500% In one Trade.. Subscribe Here! https://t.co/8WvnrVmkBS .. $MPO $OSUR $XRX
p15
aVGains Over 2500% In one Trade.. Subscribe Here! https://t.co/8WvnrVmkBS .. $WES $CQH $WG
p16
aVGains Over 2500% In one Trade.. Subscribe Here! https://t.co/8WvnrVmkBS .. $CHL $ADEP $UPIP
p17
aVGains Over 2500% In one Trade.. Subscribe Here! https://t.co/8WvnrVmkBS .. $XTXI $BNFT $DDC
p18
aVGains Over 2500% In one Trade.. Subscribe Here! https://t.co/8WvnrVmkBS .. $TSL $KERX $GGAL
p19
aVGains Over 2500% In one Trade.. Subscribe Here! https://t.co/8WvnrVmkBS .. $PQ $HUSA $SZYM
p20
aVGains Over 2500% In one Trade.. Subscribe Here! https://t.co/8WvnrVmkBS .. $NEE $APC $QRE
p21
aVGains Over 2500% In one Trade.. Subscribe Here! https://t.co/8WvnrVmkBS .. $OCN $PNC $GMCR
p22
aVGains Over 2500% In one Trade.. Subscribe Here! https://t.co/8WvnrVmkBS .. $ORCL $YHOO $AMZN
p23
aVGains Over 2500% In one Trade.. Subscribe Here! https://t.co/8WvnrVmkBS .. $IBM $GOOG $AAPL
p24
aVGains Over 2500% In one Trade.. Subscribe Here! https://t.co/8WvnrVmkBS .. #MoneyMarket #Volume #Momo
p25
aVGains Over 2500% In one Trade.. Subscribe Here! https://t.co/8WvnrVmkBS .. #Bulls #Rally #Markets
p26
aVGains Over 2500% In one Trade.. Subscribe Here! https://t.co/8WvnrVmkBS .. #WallStreet #Bullmarket
p27
aVGains Over 2500% In one Trade.. Subscribe Here! https://t.co/8WvnrVmkBS .. #Love #Learn #Live #Gains
p28
aVGains Over 2500% In one Trade.. Subscribe Here! https://t.co/8WvnrVmkBS .. #Microcap #Smallcap #Fun
p29
aVGains Over 2500% In one Trade.. Subscribe Here! https://t.co/8WvnrVmkBS .. #NASDAQ #Pink #Microcaps
p30
aVGains Over 2500% In one Trade.. Subscribe Here! https://t.co/8WvnrVmkBS .. #DOW #OTC #OTCBB #Pinksheets
p31
aVGains Over 2500% In one Trade.. Subscribe Here! https://t.co/8WvnrVmkBS .. #Americuh #Coolege #NYC
p32
aVGains Over 2500% In one Trade.. Subscribe Here! https://t.co/8WvnrVmkBS .. #Family #College #America
p33
aVGains Over 2500% In one Trade.. Subscribe Here! https://t.co/8WvnrVmkBS .. #pennystocks #pennystock
p34
aVGains Over 2500% In one Trade.. Subscribe Here! https://t.co/8WvnrVmkBS .. $PHMB $FNRC $AMRN
p35
aVGains Over 2500% In one Trade.. Subscribe Here! https://t.co/8WvnrVmkBS .. $ZLC $TIF $USB
p36
aVGains Over 2500% In one Trade.. Subscribe Here! https://t.co/8WvnrVmkBS .. $ZBB $TPI $CJJD
p37
aVGains Over 2500% In one Trade.. Subscribe Here! https://t.co/8WvnrVmkBS .. $LFL $BTU $CMLS
p38
aVGains Over 2500% In one Trade.. Subscribe Here! https://t.co/8WvnrVmkBS .. $BWS $VNET $MKTO
p39
aVGains Over 2500% In one Trade.. Subscribe Here! https://t.co/8WvnrVmkBS .. $PAAS $AEL $AAN
p40
aVGains Over 2500% In one Trade.. Subscribe Here! https://t.co/8WvnrVmkBS .. $IPXL $BCR $WLP
p41
aVGains Over 2500% In one Trade.. Subscribe Here! https://t.co/8WvnrVmkBS .. $UHS $MR $DEPO
p42
aVGains Over 2500% In one Trade.. Subscribe Here! https://t.co/8WvnrVmkBS .. $NOC $SPNC $TSN
p43
aVGains Over 2500% In one Trade.. Subscribe Here! https://t.co/8WvnrVmkBS .. $EXTR $CCXI $MTG
p44
aVGains Over 2500% In one Trade.. Subscribe Here! https://t.co/8WvnrVmkBS .. $QCOR $FCEL $IDRA
p45
aVGains Over 2500% In one Trade.. Subscribe Here! https://t.co/8WvnrVmkBS .. $FLT $INSY $KS
p46
aVGains Over 2500% In one Trade.. Subscribe Here! https://t.co/8WvnrVmkBS .. $ACT $ALGN $DATA
p47
aVGains Over 2500% In one Trade.. Subscribe Here! https://t.co/8WvnrVmkBS .. $MEOH $UBNT $WDR
p48
aVGains Over 2500% In one Trade.. Subscribe Here! https://t.co/8WvnrVmkBS .. $HTGC $FPRX $SFUN
p49
aVGains Over 2500% In one Trade.. Subscribe Here! https://t.co/8WvnrVmkBS .. $UPL $PSA $PRA
p50
aVGains Over 2500% In one Trade.. Subscribe Here! https://t.co/8WvnrVmkBS .. $MFST $ABT $CANA
p51
aVGains Over 2500% In one Trade.. Subscribe Here! https://t.co/8WvnrVDW0s .. $ACT $VRX $ABBV
p52
aVGains Over 2500% In one Trade.. Subscribe Here! https://t.co/8WvnrVmkBS .. $MDIN $AFAI $AVTC
p53
aVGains Over 2500% In one Trade.. Subscribe Here! https://t.co/8WvnrVmkBS .. $VAPE $IPSEY $AFFU
p54
aVGains Over 2500% In one Trade.. Subscribe Here! https://t.co/8WvnrVmkBS .. #Breakout $INSY $MRK
p55
aVGains Over 2500% In one Trade.. Subscribe Here! https://t.co/8WvnrVmkBS .. $DO $ALL $AAPL
p56
aVGains Over 2500% In one Trade.. Subscribe Here! https://t.co/8WvnrVmkBS .. $CBL $GOOG $BLL
p57
aVGains Over 2500% In one Trade.. Subscribe Here! https://t.co/8WvnrVmkBS .. $UNH $HUM $CI
p58
aVGains Over 2500% In one Trade.. Subscribe Here! https://t.co/8WvnrVmkBS .. $TECD $ARNA $AET
p59
aVGains Over 2500% In one Trade.. Subscribe Here! https://t.co/8WvnrVmkBS .. $XLE $AMD $SSO
p60
aVGains Over 2500% In one Trade.. Subscribe Here! https://t.co/8WvnrVmkBS .. $FRCN $BRGO $GRPN
p61
aVGains Over 2500% In one Trade.. Subscribe Here! https://t.co/8WvnrVmkBS .. $HLNT $NVLX $AGCZ
p62
aVGains Over 2500% In one Trade.. Subscribe Here! https://t.co/8WvnrVmkBS .. $MZEI $BICX $MEDT
p63
aVGains Over 2500% In one Trade.. Subscribe Here! https://t.co/8WvnrVmkBS .. $CYBL $PYCT $TRDX
p64
aVGains Over 2500% In one Trade.. Subscribe Here! https://t.co/8WvnrVmkBS .. $GDXJ $RSX $FCX
p65
aVGains Over 2500% In one Trade.. Subscribe Here! https://t.co/8WvnrVmkBS .. $IEF $EMBB $PGAL
p66
aVGains Over 2500% In one Trade.. Subscribe Here! https://t.co/8WvnrVmkBS .. $ESV $PZE $TBF
p67
aVGains Over 2500% In one Trade.. Subscribe Here! https://t.co/8WvnrVmkBS .. $ULE $EUFX $URR
p68
aVGains Over 2500% In one Trade.. Subscribe Here! https://t.co/8WvnrVmkBS .. $COW $WEAT $PALL
p69
aVGains Over 2500% In one Trade.. Subscribe Here! https://t.co/8WvnrVmkBS .. $USO $EWP $CORN
p70
aVGains Over 2500% In one Trade.. Subscribe Here! https://t.co/8WvnrVmkBS .. $BNO $NBL $KIM
p71
aVGains Over 2500% In one Trade.. Subscribe Here! https://t.co/8WvnrVmkBS .. $CAFE $GSG $RJI
p72
aVGains Over 2500% In one Trade.. Subscribe Here! https://t.co/8WvnrVmkBS .. $JJG $GLD $JO
p73
aVGains Over 2500% In one Trade.. Subscribe Here! https://t.co/8WvnrVmkBS .. $EWI $BROAD $DBC
p74
aVGains Over 2500% In one Trade.. Subscribe Here! https://t.co/8WvnrVmkBS .. $RUSS $XLU $SCHB
p75
aVGains Over 2500% In one Trade.. Subscribe Here! https://t.co/8WvnrVmkBS .. $DBD $HYD $KKD
p76
aVGains Over 2500% In one Trade.. Subscribe Here! https://t.co/8WvnrVmkBS .. $UMPQ $EWBC $BRO
p77
aVGains Over 2500% In one Trade.. Subscribe Here! https://t.co/8WvnrVmkBS .. $TCB $MCK $STUDY
p78
aVGains Over 2500% In one Trade.. Subscribe Here! https://t.co/8WvnrVmkBS .. $PNRA $BXS $CFR
p79
aVGains Over 2500% In one Trade.. Subscribe Here! https://t.co/8WvnrVmkBS .. $CYN $RJF $ASBC
p80
aVGains Over 2500% In one Trade.. Subscribe Here! https://t.co/8WvnrVmkBS .. $VOYA $MLHR $CLC
p81
aVGains Over 2500% In one Trade.. Subscribe Here! https://t.co/8WvnrVmkBS .. #legalizeit #NYSE
p82
aVGains Over 2500% In one Trade.. Subscribe Here! https://t.co/8WvnrVmkBS .. #420investor #dro
p83
aVGains Over 2500% In one Trade.. Subscribe Here! https://t.co/8WvnrVmkBS .. #Weedpennystock
p84
aVGains Over 2500% In one Trade.. Subscribe Here! https://t.co/8WvnrVmkBS .. #Weedstocks #420
p85
aVGains Over 2500% In one Trade.. Subscribe Here! https://t.co/8WvnrVmkBS .. #marijuana #ganja
p86
aVGains Over 2500% In one Trade.. Subscribe Here! https://t.co/8WvnrVmkBS .. #WeedStocks #Weed
p87
aVGains Over 2500% In one Trade.. Subscribe Here! https://t.co/8WvnrVmkBS .. $KFS #finance #college
p88
aVGains Over 2500% In one Trade.. Subscribe Here! https://t.co/8WvnrVmkBS .. $STAA $WRN $IAIC
p89
aVGains Over 2500% In one Trade.. Subscribe Here! https://t.co/8WvnrVmkBS .. $VULC $BVX $SYXXF
p90
aVGains Over 2500% In one Trade.. Subscribe Here! https://t.co/8WvnrVmkBS .. $SLP $BGMD $DEQI
p91
aVGains Over 2500% In one Trade.. Subscribe Here! https://t.co/8WvnrVmkBS .. $ALKM $EMES $FWV
p92
aVGains Over 2500% In one Trade.. Subscribe Here! https://t.co/8WvnrVmkBS .. $SINO $MLM $UHAL
p93
aVGains Over 2500% In one Trade.. Subscribe Here! https://t.co/8WvnrVmkBS .. $MPET $DGICB $DGICA
p94
aVGains Over 2500% In one Trade.. Subscribe Here! https://t.co/8WvnrVmkBS .. $PCG $HBI $STUDY
p95
aVGains Over 2500% In one Trade.. Subscribe Here! https://t.co/8WvnrVmkBS .. $SPLK $LSI $YOD
p96
aVGains Over 2500% In one Trade.. Subscribe Here! https://t.co/8WvnrVmkBS .. $PCLN $DAL $YELP
p97
aVGains Over 2500% In one Trade.. Subscribe Here! https://t.co/8WvnrVmkBS .. $EV $MWW $OMC
p98
aVGains Over 2500% In one Trade.. Subscribe Here! https://t.co/8WvnrVmkBS .. $CBPX $ANN $LULU
p99
aVGains Over 2500% In one Trade.. Subscribe Here! https://t.co/8WvnrVmkBS .. $GFA $VIMC $CECO
p100
aVhttps://t.co/45PXKDjy5T
p101
aVhttps://t.co/AvYUe5CzFf
p102
aVhttps://t.co/sB4ZxfJCOW
p103
aVhttps://t.co/1YEskMKyF5
p104
aVhttps://t.co/ui7kGbsKZi
p105
aVhttps://t.co/XppXRQOf6L
p106
aVhttps://t.co/hlwbvzsurr
p107
aVhttps://t.co/mAYViwZcLQ
p108
aVhttps://t.co/FWeopqfRNI
p109
aVhttps://t.co/oid3bV5c57
p110
aVhttps://t.co/g1kUc88jrg
p111
aVhttps://t.co/XDfJ1gNYVs
p112
aVhttps://t.co/H7w1tT2dsJ
p113
aVhttps://t.co/oTc7S5ZcTg
p114
aV$NWBO Institutional ownership up 8.1% Q/Q, with 3,466,810 net purchase https://t.co/hapZhvMSWP https://t.co/0rOo5S9Lhy
p115
aVhttps://t.co/3c1Wjx1vwB
p116
aVhttps://t.co/GFcs2VwbsP
p117
aV$NYMT Institutional ownership up 2.09% Q/Q, with 682,069 net purchase https://t.co/NaVDJqiwJp https://t.co/atPRkNXkQ8
p118
aVhttps://t.co/tquGpTw95r
p119
aVhttps://t.co/0cYiHtpBLj
p120
aVhttps://t.co/IfuGqSh60S
p121
aVhttps://t.co/cFWg3EWnyZ
p122
aVhttps://t.co/lDPeCssbAQ
p123
aVhttps://t.co/vnM2FMeTV6
p124
aVhttps://t.co/EwkoQhHkkB
p125
aVhttps://t.co/vZsFmtt47H
p126
aVhttps://t.co/NIaIAFkE8u
p127
aVhttps://t.co/fqeyqbaFN9
p128
aVhttps://t.co/GproCvK3gB
p129
aVhttps://t.co/ebAiIPglKG
p130
aVhttps://t.co/KDifbX8amg
p131
aVhttps://t.co/R2ldo2tsnQ
p132
aVhttps://t.co/3sLtXAto99
p133
aVhttps://t.co/WOQXhMfBQ7
p134
aVhttps://t.co/YyovzA4J16
p135
aVhttps://t.co/uBAK0vRJF4
p136
aVhttps://t.co/9rRYHybRdm
p137
aVhttps://t.co/tXI642wL52
p138
aVhttps://t.co/gsCTGRO6Ow
p139
aVhttps://t.co/nHSbjZ3GMy
p140
aVhttps://t.co/WPOLvWHDt5
p141
aVhttps://t.co/wWRqJnT6Eq
p142
aVhttps://t.co/NAcl02RHJw
p143
aVhttps://t.co/vJ7kJ2chQe
p144
aVhttps://t.co/pa48vSYjRN
p145
aVhttps://t.co/yMiRYUrzbi
p146
aVhttps://t.co/vKTPddVeQo
p147
aVhttps://t.co/eTeFWNFGc1
p148
aVhttps://t.co/U1pK0cybM4
p149
aVhttps://t.co/GRzeChByyF
p150
aVhttps://t.co/C90M96v0ux
p151
aVhttps://t.co/ZTwpNkE4uo
p152
aVhttps://t.co/SihlRgO28X
p153
aVhttps://t.co/1kdErlKfiQ
p154
aVhttps://t.co/kV3rI2usre
p155
aVhttps://t.co/lIvboYJjYc
p156
aVhttps://t.co/0VVPnsdU7k
p157
aVhttps://t.co/M5SV3Opc0A
p158
aVhttps://t.co/G4j5Qp4Q29
p159
aVhttps://t.co/rRGxSfiYU0
p160
aVhttps://t.co/O2InZUmcR8
p161
aVhttps://t.co/iHKAfhKNxe
p162
aVhttps://t.co/hFiWGn0pQs
p163
aVhttps://t.co/Un30MskgCw
p164
aVhttps://t.co/KHpZgvhVXN
p165
aVhttps://t.co/JvrEphzRzB
p166
aVhttps://t.co/6WnMxxo2Bw
p167
aVhttps://t.co/XtAkWh9k6e
p168
aVhttps://t.co/rKthFQk18O
p169
aVhttps://t.co/jsaqdbuNGs
p170
aVhttps://t.co/wHttZh9wIJ
p171
aVhttps://t.co/mfR6nueyyV
p172
aVhttps://t.co/L0tTes2ww0
p173
aVhttps://t.co/nIyuN0A4Wy
p174
aVhttps://t.co/LxcR3Mwyvm
p175
aVhttps://t.co/gGZqHMczGg
p176
aVhttps://t.co/sy0BDpheYy
p177
aVhttps://t.co/mAfkwpJWVl
p178
aVhttps://t.co/o2IBprZIj3
p179
aVhttps://t.co/0b2dxXh5Ds
p180
aVhttps://t.co/PjoUwdNtrl
p181
aV$VBFC Institutional ownership up 21.35% Q/Q, with 19,563 net purchase https://t.co/AGHAncEBNi https://t.co/jVH8cZbamH
p182
aVhttps://t.co/DPbSmR0T2j
p183
aVhttps://t.co/HmOnm2H1WJ
p184
aV$GRBK Institutional ownership up 39.23% Q/Q, with 6,492,170 net purchase https://t.co/RrB4UY1VSg https://t.co/aS3Dr9eXGS
p185
aVhttps://t.co/DV6uDrkCx2
p186
aVhttps://t.co/agGcUrBZt8
p187
aVhttps://t.co/cGLZxvD58g
p188
aVhttps://t.co/rrjZ5iGMJL
p189
aVhttps://t.co/9AJYFeHQWd
p190
aVhttps://t.co/2kDc2IhF6V
p191
aVhttps://t.co/2iIINcbIZI
p192
aV$AMCO Institutional ownership up 15.31% Q/Q, with 25,143 net purchase https://t.co/tQ9dzBzUbC https://t.co/AAU82Ak901
p193
aVhttps://t.co/J2tweO1gsp
p194
aVhttps://t.co/qarAdF5ImF
p195
aVhttps://t.co/X5b0ty6urV
p196
aVhttps://t.co/Qpt9ODWO9H
p197
aVhttps://t.co/tz0BBsPxgf
p198
aVhttps://t.co/UwqjL0t4qU
p199
aVhttps://t.co/Wlz0mJv16o
p200
aVhttps://t.co/VS8RO1bzXJ Cisco Posts Upbeat Q1 Earnings,\u2026 https://t.co/FWiO9FOZ1M #CSCO #Earnings #News #profit #Guidance #Financial #News
p201
aV12 of the world's most incredible noodle dishes\u2014from ramen to saimin https://t.co/nRB5ygynIn https://t.co/yEpXyfr7XU https://t.co/ycYwNTFUnO
p202
aVLitecoin Price Technical Analysis for 13/11/2015 \u2013 Recovery Underw #crypto #EURUSD #Bitcoin\u2026 https://t.co/s9ZC2M6iau #crypto #EURUSD
p203
aVSyngenta rejects $42 billion bid by ChemChina: Bloomberg https://t.co/jCzuinolcd ~ via @AlertTrade
p204
aVGerman economy expands by 0.3%in Q3, lining up with market expectations -\u2026 https://t.co/fwsSPlnTdj #breakingnews https://t.co/wVIIEBXFZ5
p205
aVDogecoin Price Technical Analysis for 13/11/2015 \u2013 Can We Buy Dips? #dogecoin #UK #currency\u2026 https://t.co/wZjkYuzW40 #dogecoin #UK
p206
aVThis new service will solve the biggest problem everyone has with Airbnb https://t.co/fk09nATAym https://t.co/0Oa0Kez5un
p207
aVBritain\u2019s Parliament is falling down, falling\u2026 https://t.co/2RvFyRjBQN #Uncategorized #asbestos #BigBen #Parliament #restoration #TopNews
p208
aV#openculture 20 New Lines from The Epic of Gilgamesh Discovered in Iraq, Adding New Details to the Story\u2026 https://t.co/ADGGWzETzl
p209
aVBitcoin Price Technical Analysis for 13/11/2015 \u2013 Bulls #crypto #cryptocurrency #bitcoin\u2026 https://t.co/PU2p6TwSmo #crypto #cryptocurrency
p210
aVThese hotel bars are so hidden, you probably never even noticed they were there\u2026 https://t.co/CDRnF5pWMS https://t.co/VNHinJS7Wx
p211
aVHey guys #recipeoftheday is packed full of flavour &amp;amp; a much loved\u2026 https://t.co/zvqHat1VCO #recipeoftheday https://t.co/2PKe1cCcNR
p212
aV#openculture View from the Overlook: Free Film Looks at How Kubrick Made \u201cthe World\u2019s Scariest Movie\u201d\u2026 https://t.co/BYd9clYBmM
p213
aVEthereum Price Technical Analysis for 13/11/2015 \u2013 Quick Game #currency #btc #EURUSD\u2026 https://t.co/pVTem3CsGa #currency #btc
p214
aVCampbel's chicken noodle soup is changing\u2014and that's alright. https://t.co/pcwm62Diyd https://t.co/9EQ9CUUtcP https://t.co/1iuG8yGnAx
p215
aVHow Uganda\u2019s economy has received a boost from hosting\u2026 https://t.co/qnB5swWb37 #Uncategorized #Africa #AidAgencies #eastafrica #TopNews
p216
aVKid environmentalists have derailed a $900 million\u2026 https://t.co/QE04o4Uk0l #Uncategorized #Cancun #environment #Fonatur #TopNews
p217
aVHere's the best thing our photography producer, Carmen, cooked recently.\u2026 https://t.co/mYrqmPdxJt https://t.co/Z9FJSLaK3N
p218
aVAfrica has the world\u2019s fastest-growing labor force but needs jobs\u2026 https://t.co/Or9AeZGQ6F #Uncategorized #Africa #AfricanGDP #TopNews
p219
aVThe 10 most unbelievably beautiful temples in the world https://t.co/xrqmHLB4hQ https://t.co/cmbJEZP2Hx https://t.co/44yTDMgsEu
p220
aVVIDEO: Larry Fitzgerald tells \u2018reporter' Patrick Peterson he beats CB \u2018like a drum\u2019\u2026 https://t.co/JEW6MurMGR ~via https://t.co/bk60yIVatE
p221
aVThis new video technology reveals an object's hidden properties, with mindblowing implications: https://t.co/qa5YB2D0Jc
p222
aVAsian stocks slump on Fed rate hike fears, commodity rout; Nikkei down 0.52%,\u2026 https://t.co/9RxNabSYwE #breakingnews https://t.co/ms6pKGnTmz
p223
aVCan\u2019t get your startup funded? Maybe you suck https://t.co/OFB1rm4F9w #Uncategorized #advice #angelinvestors #assetheavy #TopNews
p224
aVFord is first to test self-driving cars at fake Michigan city via @marcodellacava https://t.co/J7KS0ZvccR https://t.co/oj5dgMw5HH
p225
aVQuartz Daily Brief\u2014Europe and Africa edition\u2014Beirut attacked, Cisco\u2026 https://t.co/GbPe8UuxPB #Uncategorized #dailybrief #TopNews
p226
aVVIDEO: Rex Ryan is fired up after Bills hang on to beat the Jets\u2026 https://t.co/2Ow9ezYyBK ~via https://t.co/bk60yIVatE
p227
aVWith this kind of presentation, no one will guess it's store bought: https://t.co/Vn9BVWdnki https://t.co/l7ntlgbPek https://t.co/FY874Tpmlr
p228
aVMarket Manipulation Confusion https://t.co/2ToH43Gxao #ArmstrongEconomics
p229
aVTwilight Zone Analysis https://t.co/feykZ0Tt4V #ArmstrongEconomics
p230
aVTalk about awe-inspiring. These are the world's most spectacular stained glass buildings\u2026 https://t.co/kjRrqkT13z https://t.co/7qqXYjND12
p231
aVLeBron James sends letter of support to teen with duchenne muscular dystrophy\u2026 https://t.co/qhsnADBVKX ~via https://t.co/bk60yIVatE
p232
aVIndia and the UK are close, but Modi thinks he\u2026 https://t.co/FYG1bn25yl #Uncategorized #10downingstreet #10Racecourse #Beefeating #TopNews
p233
aVStagnant electric demand sparks mega mergers, Bill Loveless says (@Thinkstock photo) https://t.co/w1HgKHq5gW https://t.co/x7OtNZfOIX
p234
aVNo one knows Umbria as well as designer Brunello @Cucinelli\u2014so we take his Umbrian food\u2026 https://t.co/8l4zTwJYQI https://t.co/vU0kmM1a8m
p235
aVVIDEO: Jets WR Brandon Marshall tugs on QB Ryan Fitzpatrick's Beard\u2026 https://t.co/oaPi4axMbH ~via https://t.co/bk60yIVatE
p236
aVYou've probably never heard of Mario Batali's favorite fall ingredient.\u2026 https://t.co/4shxol2rnh https://t.co/NlXFuoVqcB
p237
aV#MVP 46 points for the Chef in a win. He\u2019s unreal. #MVP https://t.co/b6LtwOFjc7 ~via https://t.co/bk60yIVatE
p238
aVhttps://t.co/ywEiG0gblI
p239
aVThis guy climbed the Eiffel Tower this week\u2014without a rope https://t.co/qqjBcFNAnH https://t.co/egLk4xLPRT https://t.co/ySJfU2lHiI
p240
aVFidelity marks down Zenefits 48%. Not the end. How do I short Fidelity's unicorn\u2026 https://t.co/fJAqJNH2uf via https://t.co/VS8RO1bzXJ
p241
aVTechnical Alert: Russell 2000 crosses below 1175 $RUT #sccalerts #stockcharts https://t.co/vjPdQnsoSN ~ via #AlertTrade
p242
aVTechnical Alert: NYSE Summation Index crosses below its 20 day SMA $NYSI #sccalerts #stockcharts https://t.co/nfUaAikqhi ~ via #AlertTrade
p243
aVTechnical Alert: Russell 2000 has a Bearish MACD crossover $RUT #sccalerts #stockcharts https://t.co/LCrgsQEFnM ~ via #AlertTrade
p244
aVLake Como might get all the glory, but this might be the loveliest Italian lake of them all\u2026 https://t.co/8EY4YTvJ99 https://t.co/oNSj9wXigt
p245
aV#openculture Albert Camus: The Madness of Sincerity \u2014 1997 Film Revisits the Philosopher\u2019s Life &amp;amp; Work\u2026 https://t.co/ZxRto71s2P
p246
aVSteph Curry is a magician. https://t.co/Ka6gIX5Vi8 ~via https://t.co/bk60yIVatE
p247
aVhttps://t.co/VS8RO1bzXJ Instructure Prices 4.4M Share\u2026 https://t.co/FTLqr7JRhc #INST #News #Offerings #IPOs #PressReleases #Financial #News
p248
aVObama slams Trump on immigration: \u201cThat\u2019s not who we are as Americans\u201d https://t.co/WuAhVJq89D #Uncategorized #DonaldTrump #Obama #TopNews
p249
aVWatch out, pumpkin. Sweet potato pie is here. (We made ours with McCormick Gourmet spices.)\u2026 https://t.co/noecmLRZ7E https://t.co/vwr2wvvOdp
p250
aVMix up your Thanksgiving wine choices this year. https://t.co/d5pAzrTOw3 https://t.co/VfVKCppP1H https://t.co/uBJPREJQ9t
p251
aVIndonesia may be the next challenger to Beijing in the South China\u2026 https://t.co/zVZPEcwtGe #Uncategorized #Asiangeopolitics #China #TopNews
p252
aV5 things you need to know about flying with pets https://t.co/YotCBJob3m https://t.co/YCMDkPJgRX https://t.co/eovzKDnaRF
p253
aVHassan Whiteside will NOT be denied. https://t.co/MGUTOoyTml ~via https://t.co/bk60yIVatE
p254
aVBeer Man: The smooth, complex Velvet Merkin is a delight https://t.co/1AlUo2MBpz https://t.co/DaocDJj0MJ
p255
aVThe world's first "car vending machine" just opened in Nashville https://t.co/prHA7Tp5FA https://t.co/VB4jpj0jU1
p256
aVJets fans burn a Rex Ryan cutout in the parking lot before game vs. Bills\u2026 https://t.co/genKZ3k6z3 ~via https://t.co/bk60yIVatE
p257
aV03:00 Spanish CPI 0.6% vs. 0.7% forecast https://t.co/wEQo5j8vy3
p258
aV02:55 French non-farm payrolls 0.1% vs. 0.1% forecast https://t.co/or4sGkmLJC
p259
aV02:00 German GDP 0.3% vs. 0.3% forecast https://t.co/0wXxsC4Ve4
p260
aV23:35 Japan\u2019s industrial production 1.1% vs. 1.0% forecast https://t.co/xT0QbquqUp
p261
aV$FSLR Nov 12, CFO Sells 88333 Shrs; Net: -4.86M; Acq'd: 0; Disp'd: 88333 55.07/s
p262
aV$SBRA Nov 12, CFO Buys 6600 Shrs; Net: 125.87k; Acq'd: 6600 19.07/s; Disp'd: 0
p263
aV$PDVW Nov 12, CFO Buys 250 Shrs; Net: 6.51k; Acq'd: 250 26.03/s; Disp'd: 0
p264
aVPopular: $JCP, $CELG, $XBI
p265
aVConference call: (19:00): $IMOS -- ChipMOS Technologies Bermuda Ltd Earnings (Q3 2015)
p266
aVPopular: $SPY, $IBB
p267
aV$BIOL Nov 9, CFO Buys 33000 Shrs; Net: 25.41k; Acq'd: 33000 0.77/s; Disp'd: 0
p268
aV$LNG Nov 11, CFO Buys 9000 Shrs; Net: 412.39k; Acq'd: 9000 45.82/s; Disp'd: 0
p269
aV$ULTI Nov 10, CFO Sells 16127 Shrs; Net: -3.29M; Acq'd: 0; Disp'd: 16127 204.27/s
p270
aV$ALKS Nov 10, CFO Sells 10000 (-1500 Net) Shrs; Net: -563.89k; Acq'd: 10000 15.95/s; Disp'd: 11500 62.90/s
p271
aVPopular: $JWN, $CSCO, $FOSL, $VXX, $XIV, $TWX, $YUM, $LPCN, $SZMK, $RPD, $ADHD, $TGT, $PRTY, $CATM, $XNPT, $TUES
p272
aV$LDRH Nov 10, CFO Sells 19373 (-394 Net) Shrs; Net: -312.40k; Acq'd: 18979 10.25/s; Disp'd: 19373 26.17/s
p273
aV$FSIC Nov 11, CFO Buys 2500 Shrs; Net: 24.06k; Acq'd: 2500 9.62/s; Disp'd: 0
p274
aV$HFC Nov 10, CFO Sells 30000 (-13161 Net) Shrs; Net: -1.51M; Acq'd: 16839 0.00/s; Disp'd: 30000 50.42/s
p275
aVConference call: (17:00): $BUFF, $BSQR, $CNXR, $COSI, $ESE, $RPD, $SZMK, $RUN, $CHMA
p276
aVConference call: (16:45): $EMAN, $JWN
p277
aV$WCN Nov 10, CFO Sells 19375 Shrs; Net: -1.07M; Acq'd: 0; Disp'd: 19375 54.98/s
p278
aVConference call: (16:30): $CATB, $HTGM, $KMPH, $MELA, $NTRA, $NVEE, $SPNE, $STDY, $AMAT, $FGEN, $FDNH
p279
aV$HUBS Nov 10, CFO Sells 7500 Shrs; Net: -385.50k; Acq'd: 0; Disp'd: 7500 51.40/s
p280
aVConference call: (16:15): $IMSC -- Implant Sciences Corp Earnings (Q1 2016)
p281
aV16:00 New 52wk Lows: $EARS
p282
aV$CBL Nov 10, CFO Buys 825 Shrs; Net: 10.97k; Acq'd: 825 13.30/s; Disp'd: 0
p283
aV15:58 New 52wk Lows: $ONCS
p284
aV15:56 New 52wk Lows: $ANGO
p285
aV15:54 New 52wk Lows: $DEST
p286
aV15:46 Drops: $SPHS -3.5%
p287
aV15:41 New 52wk Lows: $SGM
p288
aV15:37 New 52wk Lows: $JMF
p289
aV15:35 New 52wk Highs: $HTHT
p290
aV15:28 Pops: $SPHS +5.0%
p291
aV15:25 New 52wk Highs: $STT-E
p292
aV$FGBI Nov 12, CFO Buys 200 Shrs; Net: 3.70k; Acq'd: 200 18.50/s; Disp'd: 0
p293
aV15:18 New 52wk Lows: $FENX
p294
aV15:16 New 52wk Lows: $OZM
p295
aV15:16 Drops: $HART -5.9%
p296
aV15:13 New 52wk Lows: $MRNS
p297
aV$EAGL Resumed 15:12:33. Volatility Trading Pause. (Halted: 15:07:33)
p298
aV15:12 New 52wk Lows: $CEN
p299
aV$EAGL Resumed 15:07:18. Volatility Trading Pause. (Halted: 15:02:18)
p300
aV$EAGL Resumed 15:02:03. Volatility Trading Pause. (Halted: 14:57:03)
p301
aVPopular: $AGN, $XON, $LOCO, $RLYP, $SWKS, $JNK, $VA, $BEN, $TAL, $JOY, $INVN, $JKHY, $GSK, $QIHU
p302
aV$EAGL Volatility Trading Pause. Halt time: 14:57:03.
p303
aV$EAGL Resumed 14:56:48. Volatility Trading Pause. (Halted: 14:51:48)
p304
aV14:52 New 52wk Lows: $LMNR
p305
aV$EAGL Resumed 14:51:33. Volatility Trading Pause. (Halted: 14:46:33)
p306
aV14:51 New 52wk Lows: $CREE
p307
aV$EAGL Resumed 14:46:18. Volatility Trading Pause. (Halted: 14:41:18)
p308
aV14:46 New 52wk Lows: $THR
p309
aV$EAGL Resumed 14:41:03. Volatility Trading Pause. (Halted: 14:36:03)
p310
aV$EAGL Volatility Trading Pause. Halt time: 14:36:03.
p311
aV$EAGL Resumed 14:35:48. Volatility Trading Pause. (Halted: 14:30:48)
p312
aV14:34 Drops: $MNKD -4.2%
p313
aV$EAGL Resumed 14:30:33. Volatility Trading Pause. (Halted: 14:25:33)
p314
aV$EAGL Resumed 14:25:18. Volatility Trading Pause. (Halted: 14:20:18)
p315
aV$EAGL Resumed 14:20:03. Volatility Trading Pause. (Halted: 14:15:03)
p316
aV$EAGL Volatility Trading Pause. Halt time: 14:15:03.
p317
aV14:10 New 52wk Lows: $FOSL
p318
aV14:08 New 52wk Lows: $HNW
p319
aV14:00 U.S. federal budget balance -136.0B vs. -130.0B forecast https://t.co/aIcogw1ppl
p320
aV13:50 New 52wk Lows: $NGLS-A
p321
aV13:46 Pops: $SPHS +4.4%
p322
aV13:45 Drops: $HART -3.5%
p323
aV13:43 Pops: $HART +3.7%
p324
aV$YUMA Resumed 13:31:46. News and Resumption Times. (Halted: 11:29:08)
p325
aV$YUMA Halt - News Released. Halt time: 11:29:08.
p326
aV$SYRX Nov 11, CFO Buys 7000 Shrs; Net: 5.12k; Acq'd: 7000 0.73/s; Disp'd: 0
p327
aV13:07 New 52wk Lows: $JMLP
p328
aVPopular: $GPRO, $UVXY, $CSTM, $DDD, $ALKS, $RUN, $GWW, $XOP, $VJET, $X
p329
aV12:56 Drops: $SPHS -3.7%
p330
aV12:50 New 52wk Lows: $BBRG
p331
aVDaily Reversal (12:41): $ENOC Last: 4.30; pHigh: 4.27; rVol: 1.956; pClose: 3.99; LOD: 3.9200; Perf: 7.8%
p332
aVSome Earnings AMC: AMPH, PLNT, CSCO, JWN, AMAT, FOSL, CPA, PRTY, KITE, BUFF, DAR, RYI, LOCO, ESE, SGRY, RPD, TAHO, NTRA, RUN, MXPT, PRSS $$
p333
aV12:31 New 52wk Highs: $SPHS
p334
aV12:30 Pops: $EYEG +6.2%
p335
aV12:26 New 52wk Lows: $LRN
p336
aV12:23 New 52wk Lows: $CMRE-C
p337
aV12:23 Drops: $MITK -4.6%
p338
aV12:15 Drops: $AVXL -3.7%
p339
aV12:11 New 52wk Lows: $WPT
p340
aV$PRGNL Resumed 11:59:47. Volatility Trading Pause. (Halted: 11:54:47)
p341
aV11:58 Pops: $SPHS +3.7%
p342
aV11:57 New 52wk Lows: $AGI
p343
aV$PRGNL Volatility Trading Pause. Halt time: 11:54:47.
p344
aV$GSI Halt - News Pending. Halt time: 11:51:03.
p345
aV11:47 New 52wk Lows: $REXI
p346
aV11:45 Drops: $HART -3.7%
p347
aV11:40 New 52wk Lows: $PRTK
p348
aV$YUMA Halt - News Pending. Halt time: 11:29:08.
p349
aV11:37 Pops: $HART +4.8%
p350
aV11:36 New 52wk Lows: $SWNC
p351
aV11:31 Drops: $BBEP -4.0%
p352
aV11:25 New 52wk Lows: $ECPG
p353
aV11:22 New 52wk Lows: $CVA
p354
aV11:20 Pops: $PTX +4.5%
p355
aV11:15 New 52wk Lows: $ASPN $OI
p356
aV$STRZB in LUDP halt at 12:34:59 -- Volatility Trading Pause
p357
aV$STRZB in LUDP halt at 12:29:32 -- Volatility Trading Pause
p358
aV$STRZB in LUDP halt at 12:24:03 -- Volatility Trading Pause
p359
aV$PRGNL in LUDP halt at 11:54:47 -- Volatility Trading Pause
p360
aV$GSI in T1 halt at 11:51:03 -- News Pending
p361
aV$STRZB in LUDP halt at 11:41:10 -- Volatility Trading Pause
p362
aV$YUMA in T1 halt at 11:29:08 -- News Pending
p363
aV$YUMA$A in T1 halt at 11:29:19 -- News Pending
p364
aV$STRZB in LUDP halt at 11:35:35 -- Volatility Trading Pause
p365
aV$STRZB in LUDP halt at 11:30:18 -- Volatility Trading Pause
p366
aV$STRZB in LUDP halt at 11:06:06 -- Volatility Trading Pause
p367
aV$WINS in LUDP halt at 11:05:30 -- Volatility Trading Pause
p368
aV$VKTX in LUDP halt at 11:04:30 -- Volatility Trading Pause
p369
aV$WINS in LUDP halt at 11:00:15 -- Volatility Trading Pause
p370
aV$STRZB in LUDP halt at 11:00:49 -- Volatility Trading Pause
p371
aV$WYIG in LUDP halt at 10:56:57 -- Volatility Trading Pause
p372
aV$WINS in LUDP halt at 10:55:00 -- Volatility Trading Pause
p373
aV$YUMA-A in M halt at 10:43:02 -- Individual Security Volatility Trading Pause
p374
aV$WINS in LUDP halt at 10:38:24 -- Volatility Trading Pause
p375
aV$YUMA-A in M halt at 10:37:40 -- Individual Security Volatility Trading Pause
p376
aV$ADZ in M halt at 10:23:57 -- Individual Security Volatility Trading Pause
p377
aV$WINS in LUDP halt at 10:24:00 -- Volatility Trading Pause
p378
aV$BLVD in LUDP halt at 10:20:17 -- Volatility Trading Pause
p379
aV$WINS in LUDP halt at 10:18:45 -- Volatility Trading Pause
p380
aV$AETI in LUDP halt at 10:08:15 -- Volatility Trading Pause
p381
aV$PACE in LUDP halt at 09:56:37 -- Volatility Trading Pause
p382
aV$HSGX in LUDP halt at 09:46:57 -- Volatility Trading Pause
p383
aV$SPGH in M halt at 09:46:36 -- Individual Security Volatility Trading Pause
p384
aV$MLPS in M halt at 09:45:15 -- Individual Security Volatility Trading Pause
p385
aV$OGCP in M halt at 09:45:15 -- Individual Security Volatility Trading Pause
p386
aV$UBN in M halt at 09:45:15 -- Individual Security Volatility Trading Pause
p387
aV$XELB in LUDP halt at 09:45:15 -- Volatility Trading Pause
p388
aV$YUMA-A in M halt at 09:45:15 -- Individual Security Volatility Trading Pause
p389
aV$PPSI in LUDP halt at 09:45:15 -- Volatility Trading Pause
p390
aV$SPLX in M halt at 09:45:28 -- Individual Security Volatility Trading Pause
p391
aV$LRET in M halt at 09:45:30 -- Individual Security Volatility Trading Pause
p392
aV$MDVX in LUDP halt at 09:40:19 -- Volatility Trading Pause
p393
aV$HRMN in LUDP halt at 09:40:26 -- Volatility Trading Pause
p394
aV$SRCLP in LUDP halt at 09:30:29 -- Volatility Trading Pause
p395
aV$SGYPU in LUDP halt at 09:30:20 -- Volatility Trading Pause
p396
aV$XOOM in T12 halt at 08:50:12 -- Additional Information Requested by NASDAQ
p397
aV$ANAD in T1 halt at 08:27:20 -- News Pending
p398
aV$DSCI in T1 halt at 07:26:11 -- News Pending
p399
aV$ESES in LUDP halt at 13:25:24 -- Volatility Trading Pause
p400
aV$PHII in LUDP halt at 13:25:34 -- Volatility Trading Pause
p401
aV$PHII in LUDP halt at 13:16:57 -- Volatility Trading Pause
p402
aV$PHII in LUDP halt at 13:11:39 -- Volatility Trading Pause
p403
aV$HRMN in LUDP halt at 11:45:55 -- Volatility Trading Pause
p404
aV$AFCB in LUDP halt at 11:42:25 -- Volatility Trading Pause
p405
aV$STAF in LUDP halt at 11:24:00 -- Volatility Trading Pause
p406
aV$PHII in LUDP halt at 11:14:01 -- Volatility Trading Pause
p407
aV$VPCOU in LUDP halt at 11:02:54 -- Volatility Trading Pause
p408
aV$YUMA-A in M halt at 10:58:09 -- Individual Security Volatility Trading Pause
p409
aV$PHII in LUDP halt at 10:53:57 -- Volatility Trading Pause
p410
aV$GRSHU in LUDP halt at 10:51:59 -- Volatility Trading Pause
p411
aV$PHII in LUDP halt at 10:44:05 -- Volatility Trading Pause
p412
aV$PHII in LUDP halt at 10:38:29 -- Volatility Trading Pause
p413
aV$QGTA in M halt at 10:38:48 -- Individual Security Volatility Trading Pause
p414
aV$PHII in LUDP halt at 10:33:11 -- Volatility Trading Pause
p415
aV$PHII in LUDP halt at 10:27:53 -- Volatility Trading Pause
p416
aV$PHII in LUDP halt at 10:22:35 -- Volatility Trading Pause
p417
aV$PHII in LUDP halt at 10:17:17 -- Volatility Trading Pause
p418
aV$MTBCP in LUDP halt at 10:13:38 -- Volatility Trading Pause
p419
aV$PHII in LUDP halt at 10:11:59 -- Volatility Trading Pause
p420
aV$MTBCP in LUDP halt at 10:08:20 -- Volatility Trading Pause
p421
aV$CAMBU in LUDP halt at 10:08:43 -- Volatility Trading Pause
p422
aV$PHII in LUDP halt at 10:06:41 -- Volatility Trading Pause
p423
aV$MTBCP in LUDP halt at 10:03:02 -- Volatility Trading Pause
p424
aV$PHII in LUDP halt at 10:01:23 -- Volatility Trading Pause
p425
aV$ASBI in LUDP halt at 09:51:36 -- Volatility Trading Pause
p426
aV$CBYL in LUDP halt at 09:47:14 -- Volatility Trading Pause
p427
aV$SPLX in M halt at 09:45:34 -- Individual Security Volatility Trading Pause
p428
aV$VCYT in LUDP halt at 09:45:50 -- Volatility Trading Pause
p429
aV$WINS in LUDP halt at 09:46:04 -- Volatility Trading Pause
p430
aV$OGCP in M halt at 09:45:15 -- Individual Security Volatility Trading Pause
p431
aV$MLPS in M halt at 09:45:15 -- Individual Security Volatility Trading Pause
p432
aV$SPGH in M halt at 09:45:15 -- Individual Security Volatility Trading Pause
p433
aV$VXUP in LUDP halt at 09:45:15 -- Volatility Trading Pause
p434
aV$HCAC in LUDP halt at 09:45:15 -- Volatility Trading Pause
p435
aV$PHII in LUDP halt at 09:45:15 -- Volatility Trading Pause
p436
aV$UBN in M halt at 09:44:03 -- Individual Security Volatility Trading Pause
p437
aV$MDVX in LUDP halt at 09:31:27 -- Volatility Trading Pause
p438
aV$CAMBU in LUDP halt at 09:30:16 -- Volatility Trading Pause
p439
aV$SGYPU in LUDP halt at 09:30:19 -- Volatility Trading Pause
p440
aV$RNDY in T1 halt at 08:24:55 -- News Pending
p441
aV$PHII in LUDP halt at 13:28:48 -- Volatility Trading Pause
p442
aV$PHII in LUDP halt at 13:23:09 -- Volatility Trading Pause
p443
aV$PHII in LUDP halt at 13:17:52 -- Volatility Trading Pause
p444
aV$CPAH in LUDP halt at 13:15:06 -- Volatility Trading Pause
p445
aV$PHII in LUDP halt at 13:12:35 -- Volatility Trading Pause
p446
aV$PHII in LUDP halt at 13:07:19 -- Volatility Trading Pause
p447
aV$PHII in LUDP halt at 13:02:01 -- Volatility Trading Pause
p448
aV$MCD in T1 halt at 12:55:43 -- News Pending
p449
aV$PHII in LUDP halt at 12:56:44 -- Volatility Trading Pause
p450
aV$PHII in LUDP halt at 12:44:52 -- Volatility Trading Pause
p451
aV$GIVE in M halt at 12:43:31 -- Individual Security Volatility Trading Pause
p452
aV$PHII in LUDP halt at 12:39:31 -- Volatility Trading Pause
p453
aV$FFHL in LUDP halt at 12:33:22 -- Volatility Trading Pause
p454
aV$PHII in LUDP halt at 12:34:15 -- Volatility Trading Pause
p455
aV03:00 Spanish CPI 0.6% vs. 0.7% forecast https://t.co/wEQo5j8vy3
p456
aV02:55 French non-farm payrolls 0.1% vs. 0.1% forecast https://t.co/or4sGkmLJC
p457
aV02:00 German GDP 0.3% vs. 0.3% forecast https://t.co/0wXxsC4Ve4
p458
aV23:35 Japan\u2019s industrial production 1.1% vs. 1.0% forecast https://t.co/xT0QbquqUp
p459
aV$FSLR Nov 12, CFO Sells 88333 Shrs; Net: -4.86M; Acq'd: 0; Disp'd: 88333 55.07/s
p460
aV$SBRA Nov 12, CFO Buys 6600 Shrs; Net: 125.87k; Acq'd: 6600 19.07/s; Disp'd: 0
p461
aV$PDVW Nov 12, CFO Buys 250 Shrs; Net: 6.51k; Acq'd: 250 26.03/s; Disp'd: 0
p462
aVPopular: $JCP, $CELG, $XBI
p463
aVConference call: (19:00): $IMOS -- ChipMOS Technologies Bermuda Ltd Earnings (Q3 2015)
p464
aVPopular: $SPY, $IBB
p465
aV$BIOL Nov 9, CFO Buys 33000 Shrs; Net: 25.41k; Acq'd: 33000 0.77/s; Disp'd: 0
p466
aV$LNG Nov 11, CFO Buys 9000 Shrs; Net: 412.39k; Acq'd: 9000 45.82/s; Disp'd: 0
p467
aV$ULTI Nov 10, CFO Sells 16127 Shrs; Net: -3.29M; Acq'd: 0; Disp'd: 16127 204.27/s
p468
aV$ALKS Nov 10, CFO Sells 10000 (-1500 Net) Shrs; Net: -563.89k; Acq'd: 10000 15.95/s; Disp'd: 11500 62.90/s
p469
aVPopular: $JWN, $CSCO, $FOSL, $VXX, $XIV, $TWX, $YUM, $LPCN, $SZMK, $RPD, $ADHD, $TGT, $PRTY, $CATM, $XNPT, $TUES
p470
aV$LDRH Nov 10, CFO Sells 19373 (-394 Net) Shrs; Net: -312.40k; Acq'd: 18979 10.25/s; Disp'd: 19373 26.17/s
p471
aV$FSIC Nov 11, CFO Buys 2500 Shrs; Net: 24.06k; Acq'd: 2500 9.62/s; Disp'd: 0
p472
aV$HFC Nov 10, CFO Sells 30000 (-13161 Net) Shrs; Net: -1.51M; Acq'd: 16839 0.00/s; Disp'd: 30000 50.42/s
p473
aVConference call: (17:00): $BUFF, $BSQR, $CNXR, $COSI, $ESE, $RPD, $SZMK, $RUN, $CHMA
p474
aVConference call: (16:45): $EMAN, $JWN
p475
aV$WCN Nov 10, CFO Sells 19375 Shrs; Net: -1.07M; Acq'd: 0; Disp'd: 19375 54.98/s
p476
aVConference call: (16:30): $CATB, $HTGM, $KMPH, $MELA, $NTRA, $NVEE, $SPNE, $STDY, $AMAT, $FGEN, $FDNH
p477
aV$HUBS Nov 10, CFO Sells 7500 Shrs; Net: -385.50k; Acq'd: 0; Disp'd: 7500 51.40/s
p478
aVConference call: (16:15): $IMSC -- Implant Sciences Corp Earnings (Q1 2016)
p479
aV16:00 New 52wk Lows: $EARS
p480
aV$CBL Nov 10, CFO Buys 825 Shrs; Net: 10.97k; Acq'd: 825 13.30/s; Disp'd: 0
p481
aV15:58 New 52wk Lows: $ONCS
p482
aV15:56 New 52wk Lows: $ANGO
p483
aV15:54 New 52wk Lows: $DEST
p484
aV15:46 Drops: $SPHS -3.5%
p485
aV15:41 New 52wk Lows: $SGM
p486
aV15:37 New 52wk Lows: $JMF
p487
aV15:35 New 52wk Highs: $HTHT
p488
aV15:28 Pops: $SPHS +5.0%
p489
aV15:25 New 52wk Highs: $STT-E
p490
aV$FGBI Nov 12, CFO Buys 200 Shrs; Net: 3.70k; Acq'd: 200 18.50/s; Disp'd: 0
p491
aV15:18 New 52wk Lows: $FENX
p492
aV15:16 New 52wk Lows: $OZM
p493
aV15:16 Drops: $HART -5.9%
p494
aV15:13 New 52wk Lows: $MRNS
p495
aV$EAGL Resumed 15:12:33. Volatility Trading Pause. (Halted: 15:07:33)
p496
aV15:12 New 52wk Lows: $CEN
p497
aV$EAGL Resumed 15:07:18. Volatility Trading Pause. (Halted: 15:02:18)
p498
aV$EAGL Resumed 15:02:03. Volatility Trading Pause. (Halted: 14:57:03)
p499
aVPopular: $AGN, $XON, $LOCO, $RLYP, $SWKS, $JNK, $VA, $BEN, $TAL, $JOY, $INVN, $JKHY, $GSK, $QIHU
p500
aV$EAGL Volatility Trading Pause. Halt time: 14:57:03.
p501
aV$EAGL Resumed 14:56:48. Volatility Trading Pause. (Halted: 14:51:48)
p502
aV14:52 New 52wk Lows: $LMNR
p503
aV$EAGL Resumed 14:51:33. Volatility Trading Pause. (Halted: 14:46:33)
p504
aV14:51 New 52wk Lows: $CREE
p505
aV$EAGL Resumed 14:46:18. Volatility Trading Pause. (Halted: 14:41:18)
p506
aV14:46 New 52wk Lows: $THR
p507
aV$EAGL Resumed 14:41:03. Volatility Trading Pause. (Halted: 14:36:03)
p508
aV$EAGL Volatility Trading Pause. Halt time: 14:36:03.
p509
aV$EAGL Resumed 14:35:48. Volatility Trading Pause. (Halted: 14:30:48)
p510
aV14:34 Drops: $MNKD -4.2%
p511
aV$EAGL Resumed 14:30:33. Volatility Trading Pause. (Halted: 14:25:33)
p512
aV$EAGL Resumed 14:25:18. Volatility Trading Pause. (Halted: 14:20:18)
p513
aV$EAGL Resumed 14:20:03. Volatility Trading Pause. (Halted: 14:15:03)
p514
aV$EAGL Volatility Trading Pause. Halt time: 14:15:03.
p515
aV14:10 New 52wk Lows: $FOSL
p516
aV14:08 New 52wk Lows: $HNW
p517
aV14:00 U.S. federal budget balance -136.0B vs. -130.0B forecast https://t.co/aIcogw1ppl
p518
aV13:50 New 52wk Lows: $NGLS-A
p519
aV13:46 Pops: $SPHS +4.4%
p520
aV13:45 Drops: $HART -3.5%
p521
aV13:43 Pops: $HART +3.7%
p522
aV$YUMA Resumed 13:31:46. News and Resumption Times. (Halted: 11:29:08)
p523
aV$YUMA Halt - News Released. Halt time: 11:29:08.
p524
aV$SYRX Nov 11, CFO Buys 7000 Shrs; Net: 5.12k; Acq'd: 7000 0.73/s; Disp'd: 0
p525
aV13:07 New 52wk Lows: $JMLP
p526
aVPopular: $GPRO, $UVXY, $CSTM, $DDD, $ALKS, $RUN, $GWW, $XOP, $VJET, $X
p527
aV12:56 Drops: $SPHS -3.7%
p528
aV12:50 New 52wk Lows: $BBRG
p529
aVDaily Reversal (12:41): $ENOC Last: 4.30; pHigh: 4.27; rVol: 1.956; pClose: 3.99; LOD: 3.9200; Perf: 7.8%
p530
aVSome Earnings AMC: AMPH, PLNT, CSCO, JWN, AMAT, FOSL, CPA, PRTY, KITE, BUFF, DAR, RYI, LOCO, ESE, SGRY, RPD, TAHO, NTRA, RUN, MXPT, PRSS $$
p531
aV12:31 New 52wk Highs: $SPHS
p532
aV12:30 Pops: $EYEG +6.2%
p533
aV12:26 New 52wk Lows: $LRN
p534
aV12:23 New 52wk Lows: $CMRE-C
p535
aV12:23 Drops: $MITK -4.6%
p536
aV12:15 Drops: $AVXL -3.7%
p537
aV12:11 New 52wk Lows: $WPT
p538
aV$PRGNL Resumed 11:59:47. Volatility Trading Pause. (Halted: 11:54:47)
p539
aV11:58 Pops: $SPHS +3.7%
p540
aV11:57 New 52wk Lows: $AGI
p541
aV$PRGNL Volatility Trading Pause. Halt time: 11:54:47.
p542
aV$GSI Halt - News Pending. Halt time: 11:51:03.
p543
aV11:47 New 52wk Lows: $REXI
p544
aV11:45 Drops: $HART -3.7%
p545
aV11:40 New 52wk Lows: $PRTK
p546
aV$YUMA Halt - News Pending. Halt time: 11:29:08.
p547
aV11:37 Pops: $HART +4.8%
p548
aV11:36 New 52wk Lows: $SWNC
p549
aV11:31 Drops: $BBEP -4.0%
p550
aV11:25 New 52wk Lows: $ECPG
p551
aV11:22 New 52wk Lows: $CVA
p552
aV11:20 Pops: $PTX +4.5%
p553
aV11:15 New 52wk Lows: $ASPN $OI
p554
aVImp catalysts 4 MEIP &amp; CALA in d cmg week Here is DD 4 investors:https://t.co/lwSyWTxOEB $AIN $AKS $ALEX $REZ $ALB $GRA
p555
aVImp catalysts 4 MEIP &amp; CALA in d cmg week Here is DD 4 investors:https://t.co/lwSyWTxOEB $AKAM $FARO $PHI $AMX $PHIIK $PHG
p556
aVImp catalysts 4 MEIP &amp; CALA in d cmg week Here is DD 4 investors:https://t.co/lwSyWTxOEB $CCRN $FLY $BNSO $BGG $EEQ $OIBR
p557
aVImp catalysts 4 MEIP &amp; CALA in d cmg week Here is DD 4 investors:https://t.co/lwSyWTxOEB $CDRB $PTXP $GNRT $APPF $LILA $LILAK
p558
aVImp catalysts 4 MEIP &amp; CALA in d cmg week Here is DD 4 investors:https://t.co/lwSyWTxOEB $CCE $BVX $CENT $MASI $NVS $EBR
p559
aVImp catalysts 4 MEIP &amp; CALA in d cmg week Here is DD 4 investors:https://t.co/lwSyWTxOEB $CBZ $HPQ $HXL $IDTI $IEX $IBM
p560
aVImp catalysts 4 MEIP &amp; CALA in d cmg week Here is DD 4 investors:https://t.co/lwSyWTxOEB $CAVM $QUIK $SAP $TYC $KTCC $KVHI
p561
aVImp catalysts 4 MEIP &amp; CALA in d cmg week Here is DD 4 investors:https://t.co/lwSyWTxOEB $AEIS $IMMR $IEP $AE $AIR $AIRM
p562
aVImp catalysts 4 MEIP &amp; CALA in d cmg week Here is DD 4 investors:https://t.co/lwSyWTxOEB $ACAS $NYMT $EV $ESS $ETH $FAX
p563
aVImp catalysts 4 MEIP &amp; CALA in d cmg week Here is DD 4 investors:https://t.co/lwSyWTxOEB $CMPR $ICE $AMP $EVRI $IRS $EQR
p564
aVImp catalysts 4 MEIP &amp; CALA in d cmg week Here is DD 4 investors:https://t.co/lwSyWTxOEB $BKSC $KMX $WRB $BKS $NCS $NCT
p565
aVImp catalysts 4 MEIP &amp; CALA in d cmg week Here is DD 4 investors:https://t.co/lwSyWTxOEB $BLE $DRD $GFI $DRI $FCNCA $FCO
p566
aVImp catalysts 4 MEIP &amp; CALA in d cmg week Here is DD 4 investors:https://t.co/lwSyWTxOEB $BMO $BLL $CS $ADX $AEG $MTOR
p567
aVImp catalysts 4 MEIP &amp; CALA in d cmg week Here is DD 4 investors:https://t.co/lwSyWTxOEB $BMR $MFNC $STON $ACFC $CAAS $RBY
p568
aVImp catalysts 4 MEIP &amp; CALA in d cmg week Here is DD 4 investors:https://t.co/lwSyWTxOEB $BMS $NRP $MVG $BMTC $SSI $CBRL
p569
aVImp catalysts 4 MEIP &amp; CALA in d cmg week Here is DD 4 investors:https://t.co/lwSyWTxOEB $CARB $LMOS $AMID $CJES $NQ $THR
p570
aVImp catalysts 4 MEIP &amp; CALA in d cmg week Here is DD 4 investors:https://t.co/lwSyWTxOEB $CASI $ENI $SRDX $EOC $EL $DV
p571
aVImp catalysts 4 MEIP &amp; CALA in d cmg week Here is DD 4 investors:https://t.co/lwSyWTxOEB $BNK $AVAL $TVPT $W $ICL $MDLY
p572
aVImp catalysts 4 MEIP &amp; CALA in d cmg week Here is DD 4 investors:https://t.co/lwSyWTxOEB $AAPL $PKD $PKE $XPO $CLCT $EBF
p573
aVImp catalysts 4 MEIP &amp; CALA in d cmg week Here is DD 4 investors:https://t.co/lwSyWTxOEB $CAPR $ONTY $MD $PDLI $LANC $MJN
p574
aVImp catalysts 4 MEIP &amp; CALA in d cmg week Here is DD 4 investors:https://t.co/lwSyWTxOEB $BXP $IFN $DIN $LEU $MOS $IGT
p575
aVImp catalysts 4 MEIP &amp; CALA in d cmg week Here is DD 4 investors:https://t.co/lwSyWTxOEB $AEL $AHL $PNX $TS $EIA $AUY
p576
aVImp catalysts 4 MEIP &amp; CALA in d cmg week Here is DD 4 investors:https://t.co/lwSyWTxOEB $BVA $FCH.A $GAM.B $ASM $CVSL $CYRX
p577
aVImp catalysts 4 MEIP &amp; CALA in d cmg week Here is DD 4 investors:https://t.co/lwSyWTxOEB $CGIX $CNAT $ONTX $SSX20 $SFM $THST
p578
aVImp catalysts 4 MEIP &amp; CALA in d cmg week Here is DD 4 investors:https://t.co/lwSyWTxOEB $CERN $UPS $CECE $VNR $SPOK $TTGT
p579
aVImp catalysts 4 MEIP &amp; CALA in d cmg week Here is DD 4 investors:https://t.co/lwSyWTxOEB $CEA $SCOR $CAE $DLX $MTSL $WES
p580
aVImp catalysts 4 MEIP &amp; CALA in d cmg week Here is DD 4 investors:https://t.co/lwSyWTxOEB $CA $CAMP $NGS $FREE $STV $BELFA
p581
aVImp catalysts 4 MEIP &amp; CALA in d cmg week Here is DD 4 investors:https://t.co/lwSyWTxOEB $CAPN $NEOT $EYES $EYEG $BLPH $SMMT
p582
aVImp catalysts 4 MEIP &amp; CALA in d cmg week Here is DD 4 investors:https://t.co/lwSyWTxOEB $AHPI $NRCIB $SNN $INO $SUMR $ECTE
p583
aVImp catalysts 4 MEIP &amp; CALA in d cmg week Here is DD 4 investors:https://t.co/lwSyWTxOEB $CBG $KMG $AXLL $GIII $GLT $GPC
p584
aVImp catalysts 4 MEIP &amp; CALA in d cmg week Here is DD 4 investors:https://t.co/lwSyWTxOEB $ARAY $CL $CHD $CPL $ATRS $AKRX
p585
aVImp catalysts 4 MEIP &amp; CALA in d cmg week Here is DD 4 investors:https://t.co/lwSyWTxOEB $AMWD $SYT $SMRT $LTXB $WU $KED
p586
aVImp catalysts 4 MEIP &amp; CALA in d cmg week Here is DD 4 investors:https://t.co/lwSyWTxOEB $BNCL $LULU $WHG $CAKE $NMR $TC
p587
aVImp catalysts 4 MEIP &amp; CALA in d cmg week Here is DD 4 investors:https://t.co/lwSyWTxOEB $CTMX $ACRS $MYOK $DMTX $EDGE $PEN
p588
aVImp catalysts 4 MEIP &amp; CALA in d cmg week Here is DD 4 investors:https://t.co/lwSyWTxOEB $CTO $DDC $CUZ $CUBA $CFI $DECK
p589
aVImp catalysts 4 MEIP &amp; CALA in d cmg week Here is DD 4 investors:https://t.co/lwSyWTxOEB $CTRV $BEP $APHB $TARO $NAUH $VPCO
p590
aVImp catalysts 4 MEIP &amp; CALA in d cmg week Here is DD 4 investors:https://t.co/lwSyWTxOEB $CVU $CR $CBB $CSPI $CSGS $JCS
p591
aVImp catalysts 4 MEIP &amp; CALA in d cmg week Here is DD 4 investors:https://t.co/lwSyWTxOEB $CW $CWEI $MSM $MDAS $PE $RESN
p592
aVImp catalysts 4 MEIP &amp; CALA in d cmg week Here is DD 4 investors:https://t.co/lwSyWTxOEB $CY $CYD $TNK $COL $SATS $DE
p593
aVImp catalysts 4 MEIP &amp; CALA in d cmg week Here is DD 4 investors:https://t.co/lwSyWTxOEB $CSH $PX $PVH $PW $PPG $PHM
p594
aVImp catalysts 4 MEIP &amp; CALA in d cmg week Here is DD 4 investors:https://t.co/lwSyWTxOEB $CRC $VA $NEFF $CPPL $INOV $AVOL
p595
aVImp catalysts 4 MEIP &amp; CALA in d cmg week Here is DD 4 investors:https://t.co/lwSyWTxOEB $AGCO $TNP $WLL $TGC $CCUR $VIV
p596
aVImp catalysts 4 MEIP &amp; CALA in d cmg week Here is DD 4 investors:https://t.co/lwSyWTxOEB $BOSC $CDTI $NPO $EGN $BPT $ATNI
p597
aVImp catalysts 4 MEIP &amp; CALA in d cmg week Here is DD 4 investors:https://t.co/lwSyWTxOEB $BOTJ $BYLK $BAC.D $FNGN $MWO $CETC
p598
aVImp catalysts 4 MEIP &amp; CALA in d cmg week Here is DD 4 investors:https://t.co/lwSyWTxOEB $ARR $BDE $EXPR $STBZ $TGD $XELB
p599
aVImp catalysts 4 MEIP &amp; CALA in d cmg week Here is DD 4 investors:https://t.co/lwSyWTxOEB $BTX $ALN $CPIX $PAM $EDMC $CDXS
p600
aVImp catalysts 4 MEIP &amp; CALA in d cmg week Here is DD 4 investors:https://t.co/lwSyWTxOEB $CLR $AMAT $TYL $UEIC $TXN $TXT
p601
aVImp catalysts 4 MEIP &amp; CALA in d cmg week Here is DD 4 investors:https://t.co/lwSyWTxOEB $CM $TUP $SAH $TCB $TCBK $SYNL
p602
aVImp catalysts 4 MEIP &amp; CALA in d cmg week Here is DD 4 investors:https://t.co/lwSyWTxOEB $BWA $IPI $SVMLF $CB $CARV $CASH
p603
aVImp catalysts 4 MEIP &amp; CALA in d cmg week Here is DD 4 investors:https://t.co/lwSyWTxOEB $CHKR $LXFR $BCEI $SN $LPI $HEAR
p604
aVImp catalysts 4 MEIP &amp; CALA in d cmg week Here is DD 4 investors:https://t.co/lwSyWTxOEB $CHS $CH $PRU $ORIT $AFSI $SBH
p605
aVImp catalysts 4 MEIP &amp; CALA in d cmg week Here is DD 4 investors:https://t.co/lwSyWTxOEB $ASR $NE $NRT $OXY $COP $OII
p606
aVImp catalysts 4 MEIP &amp; CALA in d cmg week Here is DD 4 investors:https://t.co/lwSyWTxOEB $ATI $TWER $TCP $BEAV $VZ $TDY
p607
aVImp catalysts 4 MEIP &amp; CALA in d cmg week Here is DD 4 investors:https://t.co/lwSyWTxOEB $ATNY $MITL $VIP $LIQT $YOD $ATTU
p608
aVImp catalysts 4 MEIP &amp; CALA in d cmg week Here is DD 4 investors:https://t.co/lwSyWTxOEB $AWRE $AXE $RFIL $LMIA $HDSN $LPSN
p609
aVImp catalysts 4 MEIP &amp; CALA in d cmg week Here is DD 4 investors:https://t.co/lwSyWTxOEB $AXDX $ZTS $KBIO $POST $BLRX $CCXI
p610
aVImp catalysts 4 MEIP &amp; CALA in d cmg week Here is DD 4 investors:https://t.co/lwSyWTxOEB $ARE $AHT $WTFC $COB $CHEV $FLXS
p611
aVImp catalysts 4 MEIP &amp; CALA in d cmg week Here is DD 4 investors:https://t.co/lwSyWTxOEB $CIDM $MMV $WFD $CPT $SLGN $CIM
p612
aVImp catalysts 4 MEIP &amp; CALA in d cmg week Here is DD 4 investors:https://t.co/lwSyWTxOEB $CRZO $MTRX $MPET $NTCT $MUR $PXD
p613
aVImp catalysts 4 MEIP &amp; CALA in d cmg week Here is DD 4 investors:https://t.co/lwSyWTxOEB $BAP $TREC $BBVA $MHLD $BBBY $ERC
p614
aVImp catalysts 4 MEIP &amp; CALA in d cmg week Here is DD 4 investors:https://t.co/lwSyWTxOEB $DM $JPEP $USDP $HMLP $RYI $WLRH
p615
aVImp catalysts 4 MEIP &amp; CALA in d cmg week Here is DD 4 investors:https://t.co/lwSyWTxOEB $CYOU $CASS $CAT $DMLP $CAS $CXO
p616
aVImp catalysts 4 MEIP &amp; CALA in d cmg week Here is DD 4 investors:https://t.co/lwSyWTxOEB $DNKN $MTGE $FRAN $AMTG $HHC $TWO
p617
aVImp catalysts 4 MEIP &amp; CALA in d cmg week Here is DD 4 investors:https://t.co/lwSyWTPq3b $CAR $CUB $ENB $IR $CVC $IO
p618
aVImp catalysts 4 MEIP &amp; CALA in d cmg week Here is DD 4 investors:https://t.co/lwSyWTxOEB $BBD $MNRK $ROIC $RDN $CEV $COLB
p619
aVImp catalysts 4 MEIP &amp; CALA in d cmg week Here is DD 4 investors:https://t.co/lwSyWTxOEB $BBL $LM $LPT $LTC $LOW $CXW
p620
aVImp catalysts 4 MEIP &amp; CALA in d cmg week Here is DD 4 investors:https://t.co/lwSyWTxOEB $DLB $NAK $KINS $LONG $TXRH $CUBE
p621
aVImp catalysts 4 MEIP &amp; CALA in d cmg week Here is DD 4 investors:https://t.co/lwSyWTxOEB $BSI $TWX $BRKA $ANAT $AON $BRKB
p622
aVImp catalysts 4 MEIP &amp; CALA in d cmg week Here is DD 4 investors:https://t.co/lwSyWTxOEB $BRFS $QGEN $ERB $POZN $OBCI $OXGN
p623
aVImp catalysts 4 MEIP &amp; CALA in d cmg week Here is DD 4 investors:https://t.co/lwSyWTxOEB $GLF $AVID $AVX $RRD $DO $PESI
p624
aVImp catalysts 4 MEIP &amp; CALA in d cmg week Here is DD 4 investors:https://t.co/lwSyWTxOEB $ITUB $BSET $ONFC $GNW $PFG $DXYN
p625
aVImp catalysts 4 MEIP &amp; CALA in d cmg week Here is DD 4 investors:https://t.co/lwSyWTxOEB $DWSN $GRVY $WIN $HDYN $TGP $PAY
p626
aVImp catalysts 4 MEIP &amp; CALA in d cmg week Here is DD 4 investors:https://t.co/lwSyWTxOEB $EROS $BCRH $LGIH $FTD $MEIL $HLT
p627
aVImp catalysts 4 MEIP &amp; CALA in d cmg week Here is DD 4 investors:https://t.co/lwSyWTxOEB $GLPI $USB.H $CXP $LEAF $ZB.A $TCS
p628
aVImp catalysts 4 MEIP &amp; CALA in d cmg week Here is DD 4 investors:https://t.co/lwSyWTxOEB $FSD $VC $GM $ACW $AAT $INN
p629
aVImp catalysts 4 MEIP &amp; CALA in d cmg week Here is DD 4 investors:https://t.co/lwSyWTxOEB $EQY $CIGI $HTH $FII $FUND $FUR
p630
aVImp catalysts 4 MEIP &amp; CALA in d cmg week Here is DD 4 investors:https://t.co/lwSyWTxOEB $HRC $PM $GILD $JNJ $HSKA $KERX
p631
aVImp catalysts 4 MEIP &amp; CALA in d cmg week Here is DD 4 investors:https://t.co/lwSyWTxOEB $ERJ $IIVI $ISRL $HLX $JBHT $ITRI
p632
aVImp catalysts 4 MEIP &amp; CALA in d cmg week Here is DD 4 investors:https://t.co/lwSyWTxOEB $HOS $HMSY $HFC $CLS $MMS $HNI
p633
aVImp catalysts 4 MEIP &amp; CALA in d cmg week Here is DD 4 investors:https://t.co/lwSyWTxOEB $ELTK $OPTT $SWIR $AMD $BCOR $IDN
p634
aVImp catalysts 4 MEIP &amp; CALA in d cmg week Here is DD 4 investors:https://t.co/lwSyWTxOEB $FCCY $FR $AIZ $PMBC $WPRT $TREE
p635
aVImp catalysts 4 MEIP &amp; CALA in d cmg week Here is DD 4 investors:https://t.co/lwSyWTxOEB $EMC $MANT $ELSE $ENLK $DIOD $CVA
p636
aVImp catalysts 4 MEIP &amp; CALA in d cmg week Here is DD 4 investors:https://t.co/lwSyWTxOEB $DPS $VRX $BMY $ARRY $CASY $BG
p637
aVImp catalysts 4 MEIP &amp; CALA in d cmg week Here is DD 4 investors:https://t.co/lwSyWTxOEB $EPRS $ROKA $ARGS $NRX $MHG $AMDA
p638
aVImp catalysts 4 MEIP &amp; CALA in d cmg week Here is DD 4 investors:https://t.co/lwSyWTxOEB $JAH $KBH $KGC $JCP $JWA $HIW
p639
aVImp catalysts 4 MEIP &amp; CALA in d cmg week Here is DD 4 investors:https://t.co/lwSyWTxOEB $GPS $SYX $GNTX $GG $QTWW $ATLC
p640
aVImp catalysts 4 MEIP &amp; CALA in d cmg week Here is DD 4 investors:https://t.co/lwSyWTxOEB $FLIR $PNTR $REDF $FLEX $STMP $ESP
p641
aVImp catalysts 4 MEIP &amp; CALA in d cmg week Here is DD 4 investors:https://t.co/lwSyWTxOEB $ITW $MCZ $PRKR $WSTG $PTC $PRGX
p642
aVImp catalysts 4 MEIP &amp; CALA in d cmg week Here is DD 4 investors:https://t.co/lwSyWTPq3b $ITI $CNI $VSAT $FORR $GEL $URI
p643
aVImp catalysts 4 MEIP &amp; CALA in d cmg week Here is DD 4 investors:https://t.co/lwSyWTxOEB $JACK $GEF $GEF-B $FWV $BANR $GOLD
p644
aVImp catalysts 4 MEIP &amp; CALA in d cmg week Here is DD 4 investors:https://t.co/lwSyWTxOEB $KOSS $LDR $LNN $TSYS $EEP $MDRX
p645
aVImp catalysts 4 MEIP &amp; CALA in d cmg week Here is DD 4 investors:https://t.co/lwSyWTxOEB $JEC $KLIC $KMT $EPD $CNQ $ISSI
p646
aVImp catalysts 4 MEIP &amp; CALA in d cmg week Here is DD 4 investors:https://t.co/lwSyWTxOEB $GLNG $MSCI $CSX $DAKT $VHC $IMOS
p647
aVImp catalysts 4 MEIP &amp; CALA in d cmg week Here is DD 4 investors:https://t.co/lwSyWTxOEB $DXLG $BHP $EIV $MBRG $MTG $ARLP
p648
aVImp catalysts 4 MEIP &amp; CALA in d cmg week Here is DD 4 investors:https://t.co/lwSyWTxOEB $IOC $LPL $EGY $KNL $CSCD $ADES
p649
aVImp catalysts 4 MEIP &amp; CALA in d cmg week Here is DD 4 investors:https://t.co/lwSyWTxOEB $HTBK $AU $LCUT $L $LUB $LEG
p650
aVImp catalysts 4 MEIP &amp; CALA in d cmg week Here is DD 4 investors:https://t.co/lwSyWTxOEB $FBHS $DLPH $VAC $GZT $MFRM $MN
p651
aVImp catalysts 4 MEIP &amp; CALA in d cmg week Here is DD 4 investors:https://t.co/lwSyWTxOEB $KN $ARCX $MEP $WUBA $AVH $ALLE
p652
aVImp catalysts 4 MEIP &amp; CALA in d cmg week Here is DD 4 investors:https://t.co/lwSyWTxOEB $IQNT $PWR $EME $GWW $IFON $FFIV
p653
aVImp catalysts 4 MEIP &amp; CALA in d cmg week Here is DD 4 investors:https://t.co/lwSyWTxOEB $IRWD $CNXR $HSGX $TCON $JUNO $NDRM
p654
aVHalfords Group plc Given \u201cUnderwt/Cautious\u201d Rating at Morgan Stanley $HFD https://t.co/nCsBcP2Xei
p655
aVCairn Energy PLC\u2019s \u201cHold\u201d Rating Reaffirmed at Numis Securities Ltd $CNE https://t.co/0ufnITrDEU
p656
aVEnquest Plc\u2019s \u201cBuy\u201d Rating Reaffirmed at Numis Securities Ltd $ENQ https://t.co/u42goGELFC
p657
aVEnquest Plc Downgraded by Liberum Capital $ENQ https://t.co/ecgU25hjYx
p658
aVOxford Instruments plc Earns \u201cHold\u201d Rating from Liberum Capital $OXIG https://t.co/kW9zB68djO
p659
aVQuartix Holdings PLC Price Target Raised to GBX 280 $QTX https://t.co/IaGkH2ayzm
p660
aVFalkland Oil and Gas Limited Upgraded at Panmure Gordon $FOGL https://t.co/UuVYRfFMMn
p661
aVLand Securities Group plc Earns \u201cBuy\u201d Rating from Panmure Gordon $LAND https://t.co/nWmRlyzxlL
p662
aVBarclays Reaffirms Equal Weight Rating for Polymetal International PLC $POLY https://t.co/Mi7UVUEg9D
p663
aVGarmin Sees Significant Growth in Short Interest $GRMN https://t.co/XRYZh7a4af
p664
aVCadence Design Systems Short Interest Down 24.8% in October $CDNS https://t.co/H5JhmYQReQ
p665
aVNGL Energy Partners Bonds Rise 7.8% During Trading Analyst $NGL https://t.co/7130s5mkFW
p666
aVEndo International plc \u2013 Bonds Drop 2.6% During Trading Analyst $ENDP https://t.co/qtgMMMcMV8
p667
aVNeos Therapeutics Trading 3.7% Higher  Following Analyst Upgrade $NEOS https://t.co/ZdLz2tHALQ
p668
aVCable and Wireless Communications Plc Price Target Raised to GBX 63 at Barclays $CWC https://t.co/bWqEJ9KHog
p669
aVEsure Group PLC Given \u201cHold\u201d Rating at Deutsche Bank $ESUR https://t.co/oyRdmHS0Dx
p670
aVSophos Group PLC Given \u201cBuy\u201d Rating at Deutsche Bank $SOPH https://t.co/6SuXPO5j2B
p671
aVOphir Energy Plc Receives Hold Rating from Deutsche Bank $OPHR https://t.co/rrxgsS24fv
p672
aVCommunisis plc Given Buy Rating at FinnCap $CMS https://t.co/efOATZ3L4q
p673
aVIndependent Oil &amp; Gas PLC Given Corporate Rating at FinnCap $IOG https://t.co/tPrRpY7aUd
p674
aVSafestore Holdings Plc Price Target Raised to GBX 360 at Investec $SAFE https://t.co/SL96VQ12o7
p675
aVFenner plc Given Buy Rating at Citigroup Inc. $FENR https://t.co/ku84Qn5O8d
p676
aVDiamondcorp Plc\u2019s \u201cBuy\u201d Rating Reaffirmed at Northland Securities $DCP https://t.co/nMJbTipkdE
p677
aVEkf Diagnostics Holding PLC Given Under Review Rating at Panmure Gordon $EKF https://t.co/0Dcvsx3uSU
p678
aVCentaur Media Plc Receives Buy Rating from Numis Securities Ltd $CAU https://t.co/OpvJgo6mat
p679
aVSse Plc Earns Sell Rating from Citigroup Inc. $SSE https://t.co/4xGhVR3yst
p680
aVJPMorgan Chase &amp; Co. Reiterates \u201cNeutral\u201d Rating for Tate &amp; Lyle PLC $TATE https://t.co/AsOPgBcMDw
p681
aVTate &amp; Lyle PLC Rating Reiterated by Credit Suisse $TATE https://t.co/vXjL440mqL
p682
aVCredit Suisse Reiterates Outperform Rating for Tullow Oil plc $TLW https://t.co/OUhIqzCiHu
p683
aVTullow Oil plc Earns Buy Rating from Liberum Capital $TLW https://t.co/c81rOF5PZy
p684
aVCredit Suisse Reiterates Underperform Rating for Tesco PLC $TSCO https://t.co/7065TiT9gW
p685
aVBarclays Raises SOCO International plc Price Target to GBX 170 $SIA https://t.co/30RmtyGTyZ
p686
aVLonmin Plc Earns \u201cUnderweight\u201d Rating from Barclays $LMI https://t.co/EVjxRcNuGz
p687
aVTravis Perkins plc PT Lowered to GBX 2,400 at Berenberg Bank $TPK https://t.co/MYJvSaN5HG
p688
aVBerenberg Bank Reaffirms \u201cBuy\u201d Rating for Polypipe Group PLC $PLP https://t.co/erkZFqTUW8
p689
aVChina Automotive Systems Stock Price Down 5% on Disappointing Earnings $CAAS https://t.co/NgDPfVg1O0
p690
aVJernigan Capital Shares Gap Up  After Dividend Announcement $JCAP https://t.co/pZ66bO9xk1
p691
aVStore Capital Corp Shares Gap Up  After Earnings Beat $STOR https://t.co/VYWhqKYxEy
p692
aVEncana Sees Strong Trading Volume Following Earnings Beat $ECA https://t.co/1I8DOOv5Cv
p693
aVTetra Tech Sees Large Volume Increase After Dividend Announcement $TTEK https://t.co/Sf3qGKUoKS
p694
aVAmdocs Limited Sees Strong Trading Volume on Analyst Upgrade $DOX https://t.co/s3Kv2xq8eU
p695
aVFiat Chrysler Automobiles NV Sees Significant Increase in Short Interest $FCAU https://t.co/AXn4Ry9wgj
p696
aVShort Interest in Genesee &amp; Wyoming Declines By 43.4% $GWR https://t.co/HWyT3yMNFw
p697
aVPowerShares DB US Dollar Index Bullish Sees Large Decline in Short Interest $UUP https://t.co/8MQRk5BTiG
p698
aVInvestec Boosts UBM Plc Price Target to GBX 509 $UBM https://t.co/vzj4j2aMd1
p699
aVUBM Plc Earns Buy Rating from Canaccord Genuity $UBM https://t.co/tkmkUqTKxY
p700
aVBarclays Lowers Vedanta Resources plc to Underweight $VED https://t.co/MTgy1MGPm1
p701
aVVodafone Group plc Earns \u201cSell\u201d Rating from Societe Generale $VOD https://t.co/HaNiPzDpIl
p702
aVBrammer plc Stock Rating Reaffirmed by Peel Hunt $BRAM https://t.co/b38qtHSis5
p703
aVBorders &amp; Southern Petroleum plc PT Lowered to GBX 7 at Panmure Gordon $BOR https://t.co/UDYSual63e
p704
aVJefferies Group Trims BHP Billiton plc Target Price to GBX 1,150 $BLT https://t.co/n7mEg2iaoy
p705
aVBank of Georgia Holdings PLC\u2019s Buy Rating Reiterated at Numis Securities Ltd $BGEO https://t.co/OAgfFRqf5M
p706
aVBeazley PLC Earns \u201cBuy\u201d Rating from Haitong Securities $BEZ https://t.co/JooQHq5wqC
p707
aVBNP Paribas Reiterates \u201cUnderperform\u201d Rating for Barclays PLC $BARC https://t.co/IZgB8bnQkH
p708
aVBabcock International Group PLC\u2019s Overweight Rating Reiterated at JPMorgan Chase &amp; Co. $BAB https://t.co/f4WXG9NRhG
p709
aVAstraZeneca plc Receives Buy Rating from Deutsche Bank $AZN https://t.co/k3pZ08vqqw
p710
aVAVEVA Group plc Earns \u201cHold\u201d Rating from Liberum Capital $AVV https://t.co/YX6Mz76PfK
p711
aVAVEVA Group plc Earns Buy Rating from Investec $AVV https://t.co/2FrWN9RNhN
p712
aVAVEVA Group plc Rating Reiterated by JPMorgan Chase &amp; Co. $AVV https://t.co/7aYH6h5qze
p713
aVAuto Trader Group PLC Rating Lowered to Neutral at Goldman Sachs $AUTO https://t.co/VAs4GLMasb
p714
aVWS Atkins PLC Given Buy Rating at Liberum Capital $ATK https://t.co/vQ9h7qj7AU
p715
aVAshmore Group plc Stock Rating Reaffirmed by Barclays $ASHM https://t.co/XkBkTRHwNU
p716
aVArrow Global Group PLC\u2019s \u201cBuy\u201d Rating Reiterated at Shore Capital $ARW https://t.co/zZUqsR1kp0
p717
aVAntofagasta plc Earns \u201cOutperform\u201d Rating from Sanford C. Bernstein $ANTO https://t.co/KZFYsk4ZL2
p718
aVCamellia Plc insider Perkins,Malcolm Courtney Acquires 100 Shares $CAM https://t.co/4JlFzAamY3
p719
aVNomura Reiterates Buy Rating for Amec Foster Wheeler PLC $AMFW https://t.co/8oHk4kiJN8
p720
aVInsider Selling: Hays plc insider Venables,Paul Sells 7,217 Shares of Stock $HAS https://t.co/djxHYtmzvV
p721
aVAmec Foster Wheeler PLC Given Overweight Rating at JPMorgan Chase &amp; Co. $AMEC https://t.co/LT4LaHdDKS
p722
aVInsider Buying: Halfords Group plc insider Millard,Dennis H Acquires 5,000 Shares of Stock $HFD https://t.co/ilIvFL35Lo
p723
aVInsider Buying: Gaming Realms PLC insider Southon,Patrick Purchases 400,000 Shares of Stock $GMR https://t.co/NcLGOZRs3D
p724
aVArdelyx Stock Price Down 10.2% on Disappointing Earnings $ARDX https://t.co/rsqD9crLWw
p725
aVEnergizer Holdings Trading Down 10.8% Following Weak Earnings $ENR https://t.co/gbtC4AblBq
p726
aVDiana Shipping  Shares Down 12.9%  on Disappointing Earnings $DSX https://t.co/1jAeqKWSjT
p727
aVAdvance Auto Parts Stock Price Down 14.6% Following Weak Earnings $AAP https://t.co/Wn7YmrvVKu
p728
aVClearfield  Shares Down 19.1%  on Disappointing Earnings $CLFD https://t.co/GauWbLNUam
p729
aVChina Lodging Group Trading 1.3% Higher  After Analyst Upgrade $HTHT https://t.co/VAy8e9lIHX
p730
aVVista Outdoor Stock Price Up 1.9% After Better-Than-Expected Earnings $VSTO https://t.co/k8NRslpOLv
p731
aVDenbury Resources Short Interest Up 10.7% in October $DNR https://t.co/2SSUoMx8nj
p732
aVWincanton plc\u2019s Buy Rating Reaffirmed at Liberum Capital $WIN https://t.co/Kxckv3sOWw
p733
aVCanaccord Genuity Reiterates \u201cBuy\u201d Rating for Workspace Group Plc $WKP https://t.co/iEEtmb82IW
p734
aVWorkspace Group Plc\u2019s \u201cOverweight\u201d Rating Reaffirmed at JPMorgan Chase &amp; Co. $WKP https://t.co/Gk3u54kbSb
p735
aVWolseley plc Given \u201cOverweight\u201d Rating at JPMorgan Chase &amp; Co. $WOS https://t.co/3ahfkr0Has
p736
aVNatixis Reiterates Neutral Rating for Wolseley plc $WOS https://t.co/3D1StygarD
p737
aVWolseley plc\u2019s \u201cHold\u201d Rating Reiterated at Liberum Capital $WOS https://t.co/RutnyvzQ5y
p738
aVYoung &amp; Co.'s Brewery plc Given New GBX 1,380 Price Target at Panmure Gordon $YNGN https://t.co/wZlJAX56sm
p739
aVAssura Group Limited Receives \u201cHold\u201d Rating from Liberum Capital $AGR https://t.co/4yKKOPf6eD
p740
aVAggreko plc\u2019s Hold Rating Reiterated at Beaufort Securities $AGK https://t.co/ClgVGFIRBI
p741
aVCredit Suisse Trims Aberdeen Asset Management plc Target Price to GBX 370 $ADN https://t.co/IvmdC1YyCk
p742
aVJPMorgan Chase &amp; Co. Raises Associated British Foods plc Price Target to GBX 3,700 $ABF https://t.co/nE7cxaTkSa
p743
aVAb Dynamics PLC Upgraded by Panmure Gordon to \u201cBuy\u201d $ABDP https://t.co/hf3rH0HlNb
p744
aVAnglo American plc Receives Outperform Rating from Sanford C. Bernstein $AAL https://t.co/yM90Uo2PzR
p745
aVLaird PLC insider Purchases 9,828 in Stock $LRD https://t.co/bZ8bPWw04r
p746
aVEPE Special Opportunities Plc insider Acquires 21,800 in Stock $ESO https://t.co/wMCuHMJhaA
p747
aVParker,Michael Acquires 17,000 Shares of Laird PLC Stock $LRD https://t.co/g5KoKv7peM
p748
aVHorsch ,Lawrence Sells 55,000 Shares of Somero Enterprises Stock $SOM https://t.co/zSiy7Ih0hk
p749
aVInsider Selling: City of London Investment Group PLC insider Sells 92,148 in Stock $CLIG https://t.co/goCJGmK1Eu
p750
aVInternational Shipholding $ISH to Release Quarterly Earnings on Monday https://t.co/1W7ZRoXJz4
p751
aVInfraREIT Hits New 1-Year Low After Insider Selling $HIFR https://t.co/jglksH0ggH
p752
aV$BA received a new alert. Find out why at https://t.co/nZwqReM0tj #stocks #daytrading #trading #mkt  #NYSE #NASDAQ #markets 11
p753
aV$IMI received a new alert. Find out why at https://t.co/nZwqReM0tj #stocks #daytrading #trading #mkt  #NYSE #NASDAQ #markets 10
p754
aV$SGC received a new alert. Find out why at https://t.co/nZwqReM0tj #stocks #daytrading #trading #mkt  #NYSE #NASDAQ #markets 9
p755
aV$MMS received a new alert. Find out why at https://t.co/nZwqReM0tj #stocks #daytrading #trading #mkt  #NYSE #NASDAQ #markets 8
p756
aV$MGAM received a new alert. Find out why at https://t.co/nZwqReM0tj #stocks #daytrading #trading #mkt  #NYSE #NASDAQ #markets 7
p757
aV$SGC received a new alert. Find out why at https://t.co/nZwqReM0tj #stocks #daytrading #trading #mkt  #NYSE #NASDAQ #markets 6
p758
aV$CNQ received a new alert. Find out why at https://t.co/nZwqReM0tj #stocks #daytrading #trading #mkt  #NYSE #NASDAQ #markets 5
p759
aV$BA received a new alert. Find out why at https://t.co/nZwqReM0tj #stocks #daytrading #trading #mkt  #NYSE #NASDAQ #markets 4
p760
aV$IMI received a new alert. Find out why at https://t.co/nZwqReM0tj #stocks #daytrading #trading #mkt  #NYSE #NASDAQ #markets 3
p761
aV$FLY received a new alert. Find out why at https://t.co/nZwqReM0tj #stocks #daytrading #trading #mkt  #NYSE #NASDAQ #markets 2
p762
aV$ACET received a new alert. Find out why at https://t.co/nZwqReM0tj #stocks #daytrading #trading #mkt  #NYSE #NASDAQ #markets 1
p763
aV$WG received a new alert. Find out why at https://t.co/nZwqReM0tj #stocks #daytrading #trading #mkt  #NYSE #NASDAQ #markets 621
p764
aV$CMI received a new alert. Find out why at https://t.co/nZwqReM0tj #stocks #daytrading #trading #mkt  #NYSE #NASDAQ #markets 620
p765
aV$PEIX received a new alert. Find out why at https://t.co/nZwqReM0tj #stocks #daytrading #trading #mkt  #NYSE #NASDAQ #markets 619
p766
aV$SWN received a new alert. Find out why at https://t.co/nZwqReM0tj #stocks #daytrading #trading #mkt  #NYSE #NASDAQ #markets 618
p767
aV$INFN received a new alert. Find out why at https://t.co/nZwqReM0tj #stocks #daytrading #trading #mkt  #NYSE #NASDAQ #markets 617
p768
aV$DEO received a new alert. Find out why at https://t.co/nZwqReM0tj #stocks #daytrading #trading #mkt  #NYSE #NASDAQ #markets 616
p769
aV$CVX received a new alert. Find out why at https://t.co/nZwqReM0tj #stocks #daytrading #trading #mkt  #NYSE #NASDAQ #markets 615
p770
aV$CAH received a new alert. Find out why at https://t.co/nZwqReM0tj #stocks #daytrading #trading #mkt  #NYSE #NASDAQ #markets 614
p771
aV$ADT received a new alert. Find out why at https://t.co/nZwqReM0tj #stocks #daytrading #trading #mkt  #NYSE #NASDAQ #markets 613
p772
aV$GS received a new alert. Find out why at https://t.co/nZwqReM0tj #stocks #daytrading #trading #mkt  #NYSE #NASDAQ #markets 612
p773
aV$ETN received a new alert. Find out why at https://t.co/nZwqReM0tj #stocks #daytrading #trading #mkt  #NYSE #NASDAQ #markets 611
p774
aV$EOG received a new alert. Find out why at https://t.co/nZwqReM0tj #stocks #daytrading #trading #mkt  #NYSE #NASDAQ #markets 610
p775
aV$KR received a new alert. Find out why at https://t.co/nZwqReM0tj #stocks #daytrading #trading #mkt  #NYSE #NASDAQ #markets 609
p776
aV$JCP received a new alert. Find out why at https://t.co/nZwqReM0tj #stocks #daytrading #trading #mkt  #NYSE #NASDAQ #markets 608
p777
aV$HD received a new alert. Find out why at https://t.co/nZwqReM0tj #stocks #daytrading #trading #mkt  #NYSE #NASDAQ #markets 607
p778
aV$SUNE received a new alert. Find out why at https://t.co/nZwqReM0tj #stocks #daytrading #trading #mkt  #NYSE #NASDAQ #markets 606
p779
aV$NBL received a new alert. Find out why at https://t.co/nZwqReM0tj #stocks #daytrading #trading #mkt  #NYSE #NASDAQ #markets 605
p780
aV$MCO received a new alert. Find out why at https://t.co/nZwqReM0tj #stocks #daytrading #trading #mkt  #NYSE #NASDAQ #markets 604
p781
aV$OXY received a new alert. Find out why at https://t.co/nZwqReM0tj #stocks #daytrading #trading #mkt  #NYSE #NASDAQ #markets 603
p782
aV$RIG received a new alert. Find out why at https://t.co/nZwqReM0tj #stocks #daytrading #trading #mkt  #NYSE #NASDAQ #markets 602
p783
aV$RF received a new alert. Find out why at https://t.co/nZwqReM0tj #stocks #daytrading #trading #mkt  #NYSE #NASDAQ #markets 601
p784
aV$ANGI received a new alert. Find out why at https://t.co/nZwqReM0tj #stocks #daytrading #trading #mkt  #NYSE #NASDAQ #markets 600
p785
aV$AAPL received a new alert. Find out why at https://t.co/nZwqReM0tj #stocks #daytrading #trading #mkt  #NYSE #NASDAQ #markets 599
p786
aV$YUM received a new alert. Find out why at https://t.co/nZwqReM0tj #stocks #daytrading #trading #mkt  #NYSE #NASDAQ #markets 598
p787
aV$CTRP received a new alert. Find out why at https://t.co/nZwqReM0tj #stocks #daytrading #trading #mkt  #NYSE #NASDAQ #markets 597
p788
aV$ROK received a new alert. Find out why at https://t.co/nZwqReM0tj #stocks #daytrading #trading #mkt  #NYSE #NASDAQ #markets 596
p789
aV$BRKR received a new alert. Find out why at https://t.co/nZwqReM0tj #stocks #daytrading #trading #mkt  #NYSE #NASDAQ #markets 595
p790
aV$BKCC received a new alert. Find out why at https://t.co/nZwqReM0tj #stocks #daytrading #trading #mkt  #NYSE #NASDAQ #markets 594
p791
aV$MAT received a new alert. Find out why at https://t.co/nZwqReM0tj #stocks #daytrading #trading #mkt  #NYSE #NASDAQ #markets 593
p792
aV$GILD received a new alert. Find out why at https://t.co/nZwqReM0tj #stocks #daytrading #trading #mkt  #NYSE #NASDAQ #markets 592
p793
aV$SONC received a new alert. Find out why at https://t.co/nZwqReM0tj #stocks #daytrading #trading #mkt  #NYSE #NASDAQ #markets 591
p794
aV$NGG received a new alert. Find out why at https://t.co/nZwqReM0tj #stocks #daytrading #trading #mkt  #NYSE #NASDAQ #markets 590
p795
aV$MYCC received a new alert. Find out why at https://t.co/nZwqReM0tj #stocks #daytrading #trading #mkt  #NYSE #NASDAQ #markets 589
p796
aV$RPXC received a new alert. Find out why at https://t.co/nZwqReM0tj #stocks #daytrading #trading #mkt  #NYSE #NASDAQ #markets 588
p797
aV$PTLA received a new alert. Find out why at https://t.co/nZwqReM0tj #stocks #daytrading #trading #mkt  #NYSE #NASDAQ #markets 587
p798
aV$PZE received a new alert. Find out why at https://t.co/nZwqReM0tj #stocks #daytrading #trading #mkt  #NYSE #NASDAQ #markets 586
p799
aV$GVA received a new alert. Find out why at https://t.co/nZwqReM0tj #stocks #daytrading #trading #mkt  #NYSE #NASDAQ #markets 585
p800
aV$NWY received a new alert. Find out why at https://t.co/nZwqReM0tj #stocks #daytrading #trading #mkt  #NYSE #NASDAQ #markets 584
p801
aV$BID received a new alert. Find out why at https://t.co/nZwqReM0tj #stocks #daytrading #trading #mkt  #NYSE #NASDAQ #markets 583
p802
aV$KW received a new alert. Find out why at https://t.co/nZwqReM0tj #stocks #daytrading #trading #mkt  #NYSE #NASDAQ #markets 582
p803
aV$SBY received a new alert. Find out why at https://t.co/nZwqReM0tj #stocks #daytrading #trading #mkt  #NYSE #NASDAQ #markets 581
p804
aV$KW received a new alert. Find out why at https://t.co/nZwqReM0tj #stocks #daytrading #trading #mkt  #NYSE #NASDAQ #markets 580
p805
aV$KW received a new alert. Find out why at https://t.co/nZwqReM0tj #stocks #daytrading #trading #mkt  #NYSE #NASDAQ #markets 579
p806
aV$WPT received a new alert. Find out why at https://t.co/nZwqReM0tj #stocks #daytrading #trading #mkt  #NYSE #NASDAQ #markets 578
p807
aV$UTSI received a new alert. Find out why at https://t.co/nZwqReM0tj #stocks #daytrading #trading #mkt  #NYSE #NASDAQ #markets 575
p808
aV$WETF received a new alert. Find out why at https://t.co/nZwqReM0tj #stocks #daytrading #trading #mkt  #NYSE #NASDAQ #markets 574
p809
aV$YUME received a new alert. Find out why at https://t.co/nZwqReM0tj #stocks #daytrading #trading #mkt  #NYSE #NASDAQ #markets 573
p810
aV$UCP received a new alert. Find out why at https://t.co/nZwqReM0tj #stocks #daytrading #trading #mkt  #NYSE #NASDAQ #markets 572
p811
aV$WTM received a new alert. Find out why at https://t.co/nZwqReM0tj #stocks #daytrading #trading #mkt  #NYSE #NASDAQ #markets 571
p812
aV$WX received a new alert. Find out why at https://t.co/nZwqReM0tj #stocks #daytrading #trading #mkt  #NYSE #NASDAQ #markets 570
p813
aV$WWE received a new alert. Find out why at https://t.co/nZwqReM0tj #stocks #daytrading #trading #mkt  #NYSE #NASDAQ #markets 569
p814
aV$XOM received a new alert. Find out why at https://t.co/nZwqReM0tj #stocks #daytrading #trading #mkt  #NYSE #NASDAQ #markets 568
p815
aV$UTSI received a new alert. Find out why at https://t.co/nZwqReM0tj #stocks #daytrading #trading #mkt  #NYSE #NASDAQ #markets 566
p816
aV$ZGNX received a new alert. Find out why at https://t.co/nZwqReM0tj #stocks #daytrading #trading #mkt  #NYSE #NASDAQ #markets 563
p817
aV$YORW received a new alert. Find out why at https://t.co/nZwqReM0tj #stocks #daytrading #trading #mkt  #NYSE #NASDAQ #markets 562
p818
aV$YUME received a new alert. Find out why at https://t.co/nZwqReM0tj #stocks #daytrading #trading #mkt  #NYSE #NASDAQ #markets 561
p819
aV$WWE received a new alert. Find out why at https://t.co/nZwqReM0tj #stocks #daytrading #trading #mkt  #NYSE #NASDAQ #markets 560
p820
aV$WX received a new alert. Find out why at https://t.co/nZwqReM0tj #stocks #daytrading #trading #mkt  #NYSE #NASDAQ #markets 559
p821
aV$WETF received a new alert. Find out why at https://t.co/nZwqReM0tj #stocks #daytrading #trading #mkt  #NYSE #NASDAQ #markets 558
p822
aV$WHF received a new alert. Find out why at https://t.co/nZwqReM0tj #stocks #daytrading #trading #mkt  #NYSE #NASDAQ #markets 557
p823
aV$WTM received a new alert. Find out why at https://t.co/nZwqReM0tj #stocks #daytrading #trading #mkt  #NYSE #NASDAQ #markets 556
p824
aV$VRTX received a new alert. Find out why at https://t.co/nZwqReM0tj #stocks #daytrading #trading #mkt  #NYSE #NASDAQ #markets 555
p825
aV$WDFC received a new alert. Find out why at https://t.co/nZwqReM0tj #stocks #daytrading #trading #mkt  #NYSE #NASDAQ #markets 554
p826
aV$USCR received a new alert. Find out why at https://t.co/nZwqReM0tj #stocks #daytrading #trading #mkt  #NYSE #NASDAQ #markets 553
p827
aV$UTSI received a new alert. Find out why at https://t.co/nZwqReM0tj #stocks #daytrading #trading #mkt  #NYSE #NASDAQ #markets 552
p828
aV$UCP received a new alert. Find out why at https://t.co/nZwqReM0tj #stocks #daytrading #trading #mkt  #NYSE #NASDAQ #markets 550
p829
aV$UGP received a new alert. Find out why at https://t.co/nZwqReM0tj #stocks #daytrading #trading #mkt  #NYSE #NASDAQ #markets 549
p830
aV$FLY received a new alert. Find out why at https://t.co/nZwqReM0tj #stocks #daytrading #trading #mkt  #NYSE #NASDAQ #markets 547
p831
aV$JNJ received a new alert. Find out why at https://t.co/nZwqReM0tj #stocks #daytrading #trading #mkt  #NYSE #NASDAQ #markets 546
p832
aV$AIN received a new alert. Find out why at https://t.co/nZwqRf3BRT #stocks #daytrading #trading #mkt  #NYSE #NASDAQ #markets 545
p833
aV$BDBD received a new alert. Find out why at https://t.co/nZwqReM0tj #stocks #daytrading #trading #mkt  #NYSE #NASDAQ #markets 544
p834
aV$ADT received a new alert. Find out why at https://t.co/nZwqReM0tj #stocks #daytrading #trading #mkt  #NYSE #NASDAQ #markets 543
p835
aV$SOHO received a new alert. Find out why at https://t.co/nZwqReM0tj #stocks #daytrading #trading #mkt  #NYSE #NASDAQ #markets 542
p836
aV$NRP received a new alert. Find out why at https://t.co/nZwqReM0tj #stocks #daytrading #trading #mkt  #NYSE #NASDAQ #markets 540
p837
aV$SLAB received a new alert. Find out why at https://t.co/nZwqReM0tj #stocks #daytrading #trading #mkt  #NYSE #NASDAQ #markets 539
p838
aV$KELYB received a new alert. Find out why at https://t.co/nZwqReM0tj #stocks #daytrading #trading #mkt  #NYSE #NASDAQ #markets 538
p839
aV$ESCA received a new alert. Find out why at https://t.co/nZwqReM0tj #stocks #daytrading #trading #mkt  #NYSE #NASDAQ #markets 536
p840
aV$DISH received a new alert. Find out why at https://t.co/nZwqReM0tj #stocks #daytrading #trading #mkt  #NYSE #NASDAQ #markets 535
p841
aV$ELTK received a new alert. Find out why at https://t.co/nZwqReM0tj #stocks #daytrading #trading #mkt  #NYSE #NASDAQ #markets 534
p842
aV$ERII received a new alert. Find out why at https://t.co/nZwqReM0tj #stocks #daytrading #trading #mkt  #NYSE #NASDAQ #markets 533
p843
aV$CYH received a new alert. Find out why at https://t.co/nZwqReM0tj #stocks #daytrading #trading #mkt  #NYSE #NASDAQ #markets 532
p844
a.