(dp0
S'following'
p1
(lp2
(lp3
I16700029
aI236953420
aI245069853
aI57251718
aI19600070
aI54879118
aI18198635
aL2726345108L
aI1354704283
aI39465006
aI473179284
aI1383966032
aL2482407307L
aI135653078
aL2389718366L
aI12413162
aL2307783032L
aL2871142919L
aL2227355222L
aI103011458
aI842217085
aI232578837
aI20652557
aL2891265398L
aL2819903153L
aI237548529
aI27979167
aL2707535059L
aL2295434528L
aI278388597
aL2220248983L
aI1633631874
aI153957211
aI116229964
aL2205251851L
aI17825445
aI888903264
aI294628573
aI47048536
aI23469738
aI470328256
aI25950355
aI613772062
aI24259164
aL2603570532L
aL2416465915L
aI194439261
aI119106683
aI54791458
aL2359880024L
aI1511620350
aI732827046
aI47678782
aI26469557
aI1172420172
aL2338675608L
aI41897007
aI244194828
aL2346048230L
aI376347156
aI30217291
aI260230248
aI51263697
aI54789776
aI113148426
aI271918174
aI37918984
aL2358843680L
aI252732212
aI617825073
aI246565905
aI942063967
aI106192037
aI430652259
aI344752927
aI64066379
aI922060614
aI47384508
aI37579771
aI154581183
aI585934344
aI22205740
aI41376533
aI626109349
aI1190977808
aI18021517
aI433847448
aI1086485478
aI30820266
aI873399943
aI18968528
aI23318841
aI390019354
aI206372778
aI106718232
aI1711239283
aI179231594
aI26117527
aI54907500
aI22851407
aI44438256
aI933055692
aI1023436759
aI380500399
aI467796546
aI332611454
aI28719308
aI18999854
aI412461506
aI105186633
aI330389740
aI906828392
aI37866843
aI19717430
aI486139568
aI114798387
aI1496945653
aI131999950
aI555928038
aI566414860
aI1543212792
aI4456791
aI388149804
aI169596678
aI1429297806
aI438563943
aI190850119
aI746033623
aI394991342
aI811658209
aI55278721
aI785935140
aI357114732
aI339039253
aI1255880191
aI432992338
aI95104763
aI434681699
aI296341409
aI602321455
aI111054964
aI14744629
aI60329023
aI231391299
aI414147765
aI53039176
aI1101391634
aI229085376
aI190773758
aI454905848
aI252877176
aI355124396
aI43718300
aI104643871
aI229966745
aI504729152
aI62871181
aI123713942
aI274233761
aI210862918
aI229246832
aI262363648
aI1093668242
aI104284098
aI212067078
aI348772885
aI86125016
aI276642682
aI446784969
aI244969675
aI131849629
aI56486495
aI168186079
aI427877977
aI636545451
aI166711687
aI16379894
aI416311594
aI24147760
aI361943494
aI255996385
aI223589965
aI855073758
aI50753411
aI84312619
aI102527566
aI169489285
aI102094857
aI29113916
aI39653167
aI47650483
aI18294197
aI102754598
aI63538464
aI409194010
aasS'followers'
p4
(lp5
(lp6
L4129818237L
aL2726345108L
aI469944256
aL2837628825L
aL3286321110L
aL3015892587L
aI18537317
aI1483279009
aI226608198
aL3816376277L
aL3646467079L
aI944229228
aL3485933532L
aL2233319532L
aL2358843680L
aI48359058
aI398661113
aI218752033
aL3435791579L
aL2842077269L
aI389642157
aL3296068861L
aI1861049119
aI14878918
aL3319074172L
aI179955793
aL3234051685L
aI250317700
aL3289880823L
aI45702033
aL3342230116L
aI223589965
aI1360786974
aL3287877013L
aI24259164
aI14545417
aI789872652
aI41897007
aI20297042
aI254793747
aI54879118
aI1402475490
aL2434288680L
aL2414730402L
aL2373382754L
aL3304240565L
aI185191108
aI1457115289
aL2980159402L
aI1675875950
aL2887925780L
aI78359414
aL2698128151L
aL3161576652L
aI34489969
aL3160588727L
aI1299253807
aI38908839
aL2590725986L
aL3131183147L
aL2857253644L
aI288320158
aI32395417
aL3063269664L
aI1146103586
aL2904263065L
aL3059402023L
aI560141481
aL3034687258L
aI361602357
aL2482407307L
aI26782350
aI1852696561
aI61007690
aI229966745
aI47433937
aI273275868
aL2712637668L
aI374071770
aI1259520480
aI1927163754
aL2416995798L
aI18758244
aL2400426024L
aL2922234899L
aI586260978
aI1686721272
aL2674555470L
aI135653078
aI808571826
aI503777731
aL2991493886L
aL2991212785L
aI611817117
aI551660871
aI17065426
aL2707535059L
aI1258159874
aL2548536121L
aI707519282
aL2343757398L
aL2307783032L
aI805065356
aI288998203
aI200505372
aL2798309084L
aL2459395075L
aI41155590
aL2917945203L
aL2891265398L
aI1429297806
aI507237717
aL2819903153L
aI20652557
aL2859086301L
aI835591916
aI26907890
aI54622589
aI850268262
aI137322271
aL2850406588L
aI14211952
aL2837142837L
aI153957211
aI21282169
aI921564800
aI337220787
aI1305451382
aL2218856582L
aI97150159
aL2807260238L
aI929672970
aI135397526
aL2804221790L
aI1633631874
aL2359880024L
aI1905183326
aI380500399
aI314061974
aI888903264
aI220822172
aI1244393550
aI16574824
aI167562015
aI633494999
aI19403556
aI1914315978
aI57326684
aI252699516
aI368625568
aL2416465915L
aI28622119
aI531525580
aL2603570532L
aI248083393
aI15990144
aL2555644723L
aI446784969
aI1172420172
aI33664520
aI26469557
aI253558646
aI1730494003
aL2230715340L
aL2331526177L
aL2444375556L
aL2217347833L
aI244194828
aI1009089170
aI270013555
aI125779036
aL2408101196L
aI420586391
aI38140853
aL2290044060L
aI261354349
aI70911722
aI215441808
aI47200863
aI8080612
aI38737997
aL2187938131L
aI237969452
aI25328467
aI271918174
aI1255880191
aI383200350
aI21388263
aI262653256
aI559295665
aI22069448
aI252732212
aI785935140
aI106192037
aI1147233769
aI23984713
aI194816401
aI922060614
aI303976277
aI739447195
aI38008025
aI17599124
aI308773188
aI13712672
aI22205740
aL2220248983L
aI586179073
aI247788883
aI1093668242
aI23161106
aI41376533
aI1645717729
aI631372417
aI344180293
aI26283715
aI1000845955
aI1190977808
aI1883496066
aI211316225
aI344752927
aI752261888
aI218349048
aI18021517
aI30820266
aI837301315
aI467796546
aI1682397852
aI37866843
aI732827046
aI27979167
aI1496945653
aI273150889
aI32280700
aI1543212792
aI1511620350
aI4456791
aI190850119
aI1271652320
aI339039253
aI29751744
aI842217085
aI459908645
aI25277152
aI79547213
aI54789776
aI811658209
aI971119026
aI59299751
aI360012803
aI46034070
aI327961517
aI14757591
aI50381253
aI252651621
aI244969675
aI427877977
aI19010961
aI287259683
aI43718300
aI123713942
aI262363648
aI212067078
aI1101391634
aI855073758
aI131849629
aI855756031
aasS'obj'
p7
ccopy_reg
_reconstructor
p8
(ctweepy.models
User
p9
c__builtin__
object
p10
Ntp11
Rp12
(dp13
S'follow_request_sent'
p14
NsS'has_extended_profile'
p15
I00
sS'profile_use_background_image'
p16
I01
sS'profile_sidebar_fill_color'
p17
VDDEEF6
p18
sS'id'
p19
I1013544132
sS'verified'
p20
I00
sS'entities'
p21
(dp22
Vdescription
p23
(dp24
Vurls
p25
(lp26
sssS'profile_image_url_https'
p27
Vhttps://pbs.twimg.com/profile_images/446757258773274624/PgvU2qQG_normal.jpeg
p28
sS'_json'
p29
(dp30
Vfollow_request_sent
p31
NsVhas_extended_profile
p32
I00
sVprofile_use_background_image
p33
I01
sVdefault_profile_image
p34
I00
sVid
p35
I1013544132
sVprofile_background_image_url_https
p36
Vhttps://abs.twimg.com/images/themes/theme1/bg.png
p37
sVverified
p38
I00
sVprofile_text_color
p39
V333333
p40
sVprofile_image_url_https
p41
g28
sVprofile_sidebar_fill_color
p42
g18
sVentities
p43
g22
sVfollowers_count
p44
I267
sVprofile_sidebar_border_color
p45
VC0DEED
p46
sVid_str
p47
V1013544132
p48
sVprofile_background_color
p49
VC0DEED
p50
sVlisted_count
p51
I14
sVstatus
p52
(dp53
Vlang
p54
Ven
p55
sVfavorited
p56
I00
sg43
(dp57
Vsymbols
p58
(lp59
(dp60
Vindices
p61
(lp62
I0
aI5
asVtext
p63
VABUS
p64
sasVuser_mentions
p65
(lp66
sVhashtags
p67
(lp68
sg25
(lp69
ssVcontributors
p70
NsVtruncated
p71
I00
sg63
V$ABUS hitting new 52-wk lows
p72
sVcreated_at
p73
VFri Nov 13 14:40:24 +0000 2015
p74
sVretweeted
p75
I00
sVin_reply_to_status_id_str
p76
NsVcoordinates
p77
NsVin_reply_to_user_id_str
p78
NsVsource
p79
V<a href="http://twitter.com" rel="nofollow">Twitter Web Client</a>
p80
sVin_reply_to_status_id
p81
NsVin_reply_to_screen_name
p82
Nsg47
V665177398057373697
p83
sVplace
p84
NsVretweet_count
p85
I2
sVgeo
p86
Nsg35
L665177398057373697L
sVfavorite_count
p87
I0
sVin_reply_to_user_id
p88
NssVis_translation_enabled
p89
I00
sVutc_offset
p90
I-21600
sVstatuses_count
p91
I924
sg23
VFormer pharma sales rep turned IR guy.  Bias towards Canadian biotech.  Life sciences contributor to the Cantech Letter.  Hockey Dad.
p92
sVfriends_count
p93
I195
sVlocation
p94
VCanada
p95
sVprofile_link_color
p96
V0084B4
p97
sVprofile_image_url
p98
Vhttp://pbs.twimg.com/profile_images/446757258773274624/PgvU2qQG_normal.jpeg
p99
sVfollowing
p100
NsVgeo_enabled
p101
I01
sVprofile_banner_url
p102
Vhttps://pbs.twimg.com/profile_banners/1013544132/1359647482
p103
sVprofile_background_image_url
p104
Vhttp://abs.twimg.com/images/themes/theme1/bg.png
p105
sVscreen_name
p106
VHoganMullally
p107
sg54
Ven
p108
sVprofile_background_tile
p109
I00
sVfavourites_count
p110
I209
sVname
p111
VHogan Mullally
p112
sVnotifications
p113
NsVurl
p114
Nsg73
VSat Dec 15 16:48:18 +0000 2012
p115
sVcontributors_enabled
p116
I00
sVtime_zone
p117
VCentral Time (US & Canada)
p118
sVprotected
p119
I00
sVdefault_profile
p120
I01
sVis_translator
p121
I00
ssS'contributors_enabled'
p122
I00
sS'profile_text_color'
p123
g40
sS'followers_count'
p124
I267
sS'profile_sidebar_border_color'
p125
g46
sS'id_str'
p126
g48
sS'default_profile_image'
p127
I00
sS'listed_count'
p128
I14
sS'status'
p129
g8
(ctweepy.models
Status
p130
g10
Ntp131
Rp132
(dp133
S'favorited'
p134
I00
sS'contributors'
p135
NsS'truncated'
p136
I00
sS'text'
p137
g72
sS'source_url'
p138
Vhttp://twitter.com
p139
sS'in_reply_to_status_id'
p140
NsS'geo'
p141
Nsg19
L665177398057373697L
sS'favorite_count'
p142
I0
sS'lang'
p143
g55
sg21
g57
sS'created_at'
p144
cdatetime
datetime
p145
(S'\x07\xdf\x0b\r\x0e(\x18\x00\x00\x00'
p146
tp147
Rp148
sg29
g53
sS'coordinates'
p149
NsS'in_reply_to_user_id_str'
p150
NsS'source'
p151
VTwitter Web Client
p152
sS'in_reply_to_status_id_str'
p153
NsS'in_reply_to_screen_name'
p154
Nsg126
g83
sS'retweeted'
p155
I00
sS'place'
p156
NsS'retweet_count'
p157
I2
sS'in_reply_to_user_id'
p158
NsbsS'is_translation_enabled'
p159
I00
sS'utc_offset'
p160
I-21600
sS'statuses_count'
p161
I924
sS'description'
p162
g92
sS'friends_count'
p163
I195
sS'location'
p164
g95
sS'profile_link_color'
p165
g97
sS'profile_image_url'
p166
g99
sS'notifications'
p167
NsS'geo_enabled'
p168
I01
sS'profile_background_color'
p169
g50
sS'profile_banner_url'
p170
g103
sS'profile_background_image_url'
p171
g105
sS'screen_name'
p172
g107
sg143
g108
sg1
I00
sS'profile_background_tile'
p173
I00
sS'favourites_count'
p174
I209
sS'name'
p175
g112
sS'url'
p176
Nsg144
g145
(S'\x07\xdc\x0c\x0f\x100\x12\x00\x00\x00'
p177
tp178
Rp179
sS'profile_background_image_url_https'
p180
g37
sS'time_zone'
p181
g118
sS'protected'
p182
I00
sS'default_profile'
p183
I01
sS'is_translator'
p184
I00
sbs.