(dp0
S'following'
p1
(lp2
(lp3
I1280034956
aI49616273
aI16589206
aI149760844
aI47591616
aI714967702
aL2352435372L
aI33900164
aI498790808
aI574594956
aL3098988520L
aI24680689
aL2412448069L
aI156645608
aI239064343
aI262755165
aI247977494
aI115930154
aI260515872
aI19658826
aI258031607
aL3233527973L
aI257905298
aL3301834803L
aI1306076312
aI1620686150
aI381496644
aI475524030
aI132673153
aI9180622
aI36795220
aI65174274
aI41330603
aI360685668
aL2576820571L
aI42343025
aI253167239
aI54675700
aI709430142
aI1944585612
aI21577803
aI183351570
aI400054955
aI554525564
aI500711588
aI2097571
aL2189072756L
aI11348282
aI14292675
aI404853456
aL2277140276L
aL2231913055L
aI52247245
aI288377691
aI33286321
aI455824771
aI264370502
aI375980238
aI455366870
aI262906411
aI152313557
aI7455352
aI100024370
aI39371002
aI16827489
aI50393960
aI423836782
aI400115842
aI271211220
aI70498392
aI27093808
aI326315947
aI1012057938
aI53215424
aI1241635501
aI550663732
aI456107944
aI5831802
aI238174807
aI500704345
aI35002876
aI67358777
aI165757778
aI270960840
aI430072775
aI224466293
aI315480746
aI26538229
aI28588306
aI14115408
aI14292717
aI24263018
aI284223502
aI28261526
aI335551469
aI43636912
aI106725205
aI15533286
aI16732770
aI19546277
aI18481050
aI624413
aI18639734
aI84402174
aI34713362
aI61342056
aI51963389
aI92451364
aI131685667
aI5723662
aasS'followers'
p4
(lp5
(lp6
L3289917664L
aI132972153
aI1682397852
aL4190367919L
aL2395258519L
aL2874374362L
aI48486244
aL2435505893L
aI28036369
aI1711320932
aL2781050528L
aI1529917477
aL3941590570L
aI946533932
aI131613425
aL2952662745L
aI747600494
aI344717568
aI7530552
aI14205040
aI23157846
aL3319136443L
aI952510544
aL3228415425L
aL3153226343L
aL3064230009L
aL3947772555L
aL3441912856L
aL2451082681L
aL2857216422L
aL3878870555L
aL3093931818L
aI515363049
aI1573242241
aI71831311
aL3605241853L
aL2561860272L
aI141453630
aL3386529741L
aL3611638873L
aL3601119679L
aI151044005
aL3588331632L
aL3318790872L
aI99147325
aL3409402814L
aL3370391079L
aI15766226
aI102797593
aI465636248
aL3477725473L
aL3478777634L
aI111984921
aL3309102074L
aI869985108
aL3195299269L
aL3306776935L
aL3421591092L
aI574854016
aI314281991
aI471397444
aL2958567969L
aI347710970
aL3163414921L
aI147637139
aL3305624143L
aL3259610084L
aI241767661
aI227723458
aI59911810
aL2988184007L
aL3301834803L
aI17643458
aI487089617
aI14886375
aI976761468
aI208085406
aL2939839209L
aI119940178
aI19321565
aI465905778
aI1413569754
aI97523416
aL2165395825L
aL2962625758L
aI874419354
aL2306973602L
aI342399680
aI266082671
aI30654717
aI1618666351
aI233349285
aI539206003
aI62226476
aI449128723
aL2275230932L
aL2408436884L
aL2904098999L
aI145494924
aI294677852
aL2857997231L
aI132673153
aI41860823
aL2343757398L
aL2290064965L
aL2795995227L
aI1150969206
aI1428744902
aI904968246
aL2202538465L
aI19509675
aI29911980
aI1329095618
aI355449199
aI340741079
aI178900268
aI36354800
aI40125245
aI39480502
aI80326777
aI22869899
aI248781629
aI304610767
aI178130011
aI35642055
aI201908004
aI43636912
aL2465128316L
aI50796583
aI552735475
aI544484168
aI54246282
aI783009354
aI439698723
aL2576820571L
aI34578922
aI42343025
aL2521968698L
aL2424448070L
aI709430142
aI14176380
aI334845584
aI172003075
aI1694311884
aI454521503
aI1348732656
aI183351570
aL2501404116L
aI142353824
aL2426741106L
aI14773492
aI527124271
aI1395076646
aL2242327045L
aI182012536
aI613632476
aI1012057938
aI840006746
aI300243358
aI615782406
aI552999239
aI362474008
aI21278302
aI561716703
aI234014728
aI416326602
aI367591570
aI334316486
aI138192835
aI327393187
aI295074382
aI165917354
aI223993073
aI254285553
aI214300319
aI149078685
aI36697369
aI15029108
aI256977869
aI167176399
aI257789234
aI21651817
aI240946911
aI121864847
aI18354442
aI208586987
aI108986816
aI193684164
aI194385934
aI79918175
aI185737688
aI83217589
aI110554205
aI107767185
aI111166066
aI112170952
aI134541208
aI49217470
aI134746873
aI41733369
aI131685667
aI110308596
aI126787043
aI102137943
aI15751790
aI133714062
aI47265579
aI43710911
aI66201057
aI94712621
aI133728892
aI122513445
aI114911326
aI84686706
aI98407486
aI107206799
aI24485772
aI125997045
aI81641911
aI70373761
aI100736337
aI87114853
aI131074910
aI133623636
aI62899688
aI124151290
aI122705548
aI94610613
aI93694507
aI130677174
aI25665901
aI42301558
aI75965504
aI66309171
aI15097479
aI62104974
aI93827358
aI47228409
aI115524394
aI38116494
aI117688214
aI119590904
aI128141397
aI112662648
aI15265533
aI133432855
aI51620937
aI123132050
aI112132819
aI132602403
aI9081372
aI5723662
aI106481008
aI118089647
aI30891345
aI45719746
aI121752182
aI131149395
aI102527575
aI32357885
aI41416343
aI20660609
aI53322700
aI95169866
aI59162942
aI82038411
aI127302854
aI17003420
aI34622630
aI34490779
aI76408284
aI133054372
aI98488588
aI101832395
aI40611430
aI55391169
aI43448152
aI38793166
aI76655382
aI108605028
aI74378868
aI117003790
aI108160616
aI44320270
aI108714793
aI130488144
aI21157704
aI19108610
aI14301756
aI18661817
aI79744556
aI115525682
aI85493334
aI97506471
aI113379158
aI6892092
aI38594861
aI34834977
aI28203154
aI22627116
aI37092600
aI33590051
aI29208227
aI70913653
aI106585648
aI13515082
aI16699495
aI14373393
aI78547290
aI96988464
aI37929777
aI39564894
aI21339427
aI104445213
aI62371559
aI103515871
aI17121049
aI101303121
aI102546202
aI77275587
aI41897074
aI102037153
aasS'obj'
p7
ccopy_reg
_reconstructor
p8
(ctweepy.models
User
p9
c__builtin__
object
p10
Ntp11
Rp12
(dp13
S'follow_request_sent'
p14
I00
sS'has_extended_profile'
p15
I00
sS'profile_use_background_image'
p16
I00
sS'profile_sidebar_fill_color'
p17
V000000
p18
sS'id'
p19
I102057172
sS'verified'
p20
I00
sS'entities'
p21
(dp22
Vdescription
p23
(dp24
Vurls
p25
(lp26
sssS'profile_image_url_https'
p27
Vhttps://pbs.twimg.com/profile_images/461536683897257985/CixX12mc_normal.png
p28
sS'_json'
p29
(dp30
Vfollow_request_sent
p31
I00
sVhas_extended_profile
p32
I00
sVprofile_use_background_image
p33
I00
sVdefault_profile_image
p34
I00
sVid
p35
I102057172
sVprofile_background_image_url_https
p36
Vhttps://abs.twimg.com/images/themes/theme14/bg.gif
p37
sVverified
p38
I00
sVprofile_text_color
p39
V000000
p40
sVprofile_image_url_https
p41
g28
sVprofile_sidebar_fill_color
p42
g18
sVentities
p43
g22
sVfollowers_count
p44
I322
sVprofile_sidebar_border_color
p45
V000000
p46
sVid_str
p47
V102057172
p48
sVprofile_background_color
p49
V000000
p50
sVlisted_count
p51
I15
sVstatus
p52
(dp53
Vlang
p54
Vsk
p55
sVfavorited
p56
I00
sg43
(dp57
Vsymbols
p58
(lp59
(dp60
Vindices
p61
(lp62
I40
aI44
asVtext
p63
VMUX
p64
sa(dp65
g61
(lp66
I45
aI50
asg63
VKBIO
p67
sa(dp68
g61
(lp69
I51
aI55
asg63
VPEG
p70
sa(dp71
g61
(lp72
I56
aI60
asg63
VADI
p73
sa(dp74
g61
(lp75
I61
aI66
asg63
VSSNC
p76
sa(dp77
g61
(lp78
I67
aI71
asg63
VWEC
p79
sa(dp80
g61
(lp81
I72
aI76
asg63
VAES
p82
sa(dp83
g61
(lp84
I77
aI81
asg63
VLYV
p85
sasVuser_mentions
p86
(lp87
sVhashtags
p88
(lp89
sg25
(lp90
ssVcontributors
p91
NsVtruncated
p92
I00
sg63
VAlgo trading: OPEN signals Nov/16\u000aSELL: $MUX $KBIO $PEG $ADI $SSNC $WEC $AES $LYV
p93
sVcreated_at
p94
VMon Nov 16 20:52:46 +0000 2015
p95
sVretweeted
p96
I00
sVin_reply_to_status_id_str
p97
NsVcoordinates
p98
NsVin_reply_to_user_id_str
p99
NsVsource
p100
V<a href="http://www.sisSoftwareFactory.com" rel="nofollow">VisualOptions</a>
p101
sVin_reply_to_status_id
p102
NsVin_reply_to_screen_name
p103
Nsg47
V666358270051905536
p104
sVplace
p105
NsVretweet_count
p106
I0
sVgeo
p107
Nsg35
L666358270051905536L
sVfavorite_count
p108
I0
sVin_reply_to_user_id
p109
NssVis_translation_enabled
p110
I00
sVutc_offset
p111
I-18000
sVstatuses_count
p112
I2063
sg23
VAlgorithmic trading, automated strategies, options, stocks and futures. Creator of trading platforms and HFT systems. Ahh yes, software engineer too.
p113
sVfriends_count
p114
I110
sVlocation
p115
VMiami, FL
p116
sVprofile_link_color
p117
VDD2E44
p118
sVprofile_image_url
p119
Vhttp://pbs.twimg.com/profile_images/461536683897257985/CixX12mc_normal.png
p120
sVfollowing
p121
I00
sVgeo_enabled
p122
I01
sVprofile_banner_url
p123
Vhttps://pbs.twimg.com/profile_banners/102057172/1398873842
p124
sVprofile_background_image_url
p125
Vhttp://abs.twimg.com/images/themes/theme14/bg.gif
p126
sVscreen_name
p127
VsisSoftware
p128
sg54
Ven
p129
sVprofile_background_tile
p130
I00
sVfavourites_count
p131
I14
sVname
p132
VAriel Silahian
p133
sVnotifications
p134
I00
sVurl
p135
Nsg94
VTue Jan 05 13:12:58 +0000 2010
p136
sVcontributors_enabled
p137
I00
sVtime_zone
p138
VEastern Time (US & Canada)
p139
sVprotected
p140
I00
sVdefault_profile
p141
I00
sVis_translator
p142
I00
ssS'contributors_enabled'
p143
I00
sS'profile_text_color'
p144
g40
sS'followers_count'
p145
I322
sS'profile_sidebar_border_color'
p146
g46
sS'id_str'
p147
g48
sS'default_profile_image'
p148
I00
sS'listed_count'
p149
I15
sS'status'
p150
g8
(ctweepy.models
Status
p151
g10
Ntp152
Rp153
(dp154
S'favorited'
p155
I00
sS'contributors'
p156
NsS'truncated'
p157
I00
sS'text'
p158
VAlgo trading: OPEN signals Nov/16\u000aSELL: $MUX $KBIO $PEG $ADI $SSNC $WEC $AES $LYV
p159
sS'source_url'
p160
Vhttp://www.sisSoftwareFactory.com
p161
sS'in_reply_to_status_id'
p162
NsS'geo'
p163
Nsg19
L666358270051905536L
sS'favorite_count'
p164
I0
sS'lang'
p165
g55
sg21
g57
sS'created_at'
p166
cdatetime
datetime
p167
(S'\x07\xdf\x0b\x10\x144.\x00\x00\x00'
p168
tp169
Rp170
sg29
g53
sS'coordinates'
p171
NsS'in_reply_to_user_id_str'
p172
NsS'source'
p173
VVisualOptions
p174
sS'in_reply_to_status_id_str'
p175
NsS'in_reply_to_screen_name'
p176
Nsg147
g104
sS'retweeted'
p177
I00
sS'place'
p178
NsS'retweet_count'
p179
I0
sS'in_reply_to_user_id'
p180
NsbsS'is_translation_enabled'
p181
I00
sS'utc_offset'
p182
I-18000
sS'statuses_count'
p183
I2063
sS'description'
p184
g113
sS'friends_count'
p185
I110
sS'location'
p186
g116
sS'profile_link_color'
p187
g118
sS'profile_image_url'
p188
g120
sS'notifications'
p189
I00
sS'geo_enabled'
p190
I01
sS'profile_background_color'
p191
g50
sS'profile_banner_url'
p192
g124
sS'profile_background_image_url'
p193
g126
sS'screen_name'
p194
g128
sg165
g129
sg1
I00
sS'profile_background_tile'
p195
I00
sS'favourites_count'
p196
I14
sS'name'
p197
g133
sS'url'
p198
Nsg166
g167
(S'\x07\xda\x01\x05\r\x0c:\x00\x00\x00'
p199
tp200
Rp201
sS'profile_background_image_url_https'
p202
g37
sS'time_zone'
p203
g139
sS'protected'
p204
I00
sS'default_profile'
p205
I00
sS'is_translator'
p206
I00
sbs.