(dp0
S'following'
p1
(lp2
(lp3
L2243152405L
aI9632312
aI71545388
aI17017636
aI1669610749
aI564226751
aI53594098
aI35407832
aI709313
aL3739197619L
aI46292189
aI187711248
aI95064543
aL2916305152L
aI28299731
aI583547325
aI145635867
aI19706453
aL2156853223L
aI18856867
aL3390787541L
aI977910404
aI7512
aI188545143
aI346380319
aI795029
aI444925097
aI242411056
aL2853660366L
aL2675711419L
aI61702125
aL3342578933L
aI16134137
aI304240210
aL2596836636L
aI256053751
aI24393
aI14669471
aL2319108198L
aI4072401
aI74767030
aL2302450723L
aI20583139
aI1127293040
aI76786636
aI240334557
aI26673100
aI401009490
aL2456451750L
aI1630162190
aI30429195
aL2303751216L
aL3154394066L
aL2363177275L
aI8592732
aL3120044362L
aI82416891
aI773773628
aI15581551
aI70097926
aI1345580348
aI108559468
aI33750225
aI28267675
aI199342559
aI96049182
aI1510135616
aI18177624
aL2699603534L
aI198936965
aI18042371
aI17775619
aL2693718236L
aI65845659
aI127111218
aI585475980
aL2845996615L
aI86351835
aI529147678
aI25298569
aI535144190
aL2992880664L
aI223282435
aI14620332
aL2872156241L
aL2343047250L
aI580240697
aI859466935
aI36612360
aI15460250
aI997053254
aI70346792
aI130436636
aI454423088
aI21736625
aI30680268
aI1265000756
aI40113645
aI1666425085
aI7278472
aI18066440
aI42857826
aI14162904
aI14279598
aI21232519
aL2238434701L
aI265722336
aI165506153
aI197411164
aI1173685621
aL2797059368L
aI121391248
aI16638310
aI15305886
aI15655416
aI231384721
aI17228860
aI198294488
aI6349102
aI17420537
aI344896093
aI377179911
aI164274882
aI250603308
aL2810903930L
aI1132468884
aI105001423
aI20219560
aI44072805
aL2780272093L
aI19315801
aI240421228
aI1433652877
aI45594358
aI16337710
aI15901190
aI13826102
aI209058378
aI52543721
aI49317804
aI20356005
aI24851557
aI557364265
aI14252894
aI22790881
aI342690380
aI1267770224
aI36080424
aI18476766
aI42800098
aI16365707
aI39650205
aI124308753
aI807586682
aI9468852
aI53636266
aI14146029
aI12100072
aI14289425
aL2413997304L
aI18826503
aI15236752
aI34204102
aI38366595
aI37793806
aI219183946
aI293248536
aI87162280
aI15729892
aI18301335
aI147423304
aI1641726098
aI22717651
aI15698731
aI349170833
aI126523687
aI190533521
aI15789755
aI1438031972
aI134931311
aI19333977
aI282434241
aI34255829
aI22356478
aI458328611
aI14161568
aI752395825
aI882259496
aI14453232
aI104089616
aI259214830
aL2359926157L
aI17869632
aI69279952
aI72316141
aI132397046
aI15300995
aI524873334
aI14262197
aI18367054
aI17738358
aI23548997
aI14666934
aI20571756
aI13702482
aI14668484
aI1420365998
aI16143712
aI56612906
aI18983429
aI13404292
aI1957401379
aI260782997
aI67382798
aI14514804
aL2382117350L
aI15265603
aI6024062
aL2360219677L
aI219229259
aI153154765
aI78143293
aI16199802
aI13418072
aI107232730
aI25101007
aI898768003
aI44078873
aI465929514
aL2270291792L
aI132518463
aI14535751
aI1552524072
aL2371660657L
aI46440718
aI156842004
aI13611
aI110181820
aI1630283270
aI348853018
aI1948845854
aI1038813325
aL2313332804L
aI348659640
aI572225652
aI492709003
aI578851632
aL2181563466L
aI34819624
aI390623858
aI51435711
aI9882612
aI13895242
aI15286324
aI21227670
aI401850207
aI26316116
aI8322662
aI247633729
aI15686959
aI19126373
aI160134818
aI5082531
aI62823
aI6249902
aI790038
aI281470452
aI18479184
aI10251002
aI5946352
aI1382128099
aI9433372
aI25466541
aI379662337
aI79227302
aI87071732
aI750554018
aI12056892
aI96959436
aI20958216
aI5679092
aI44196397
aI14380900
aI106039518
aI90339962
aI1513779667
aI35735314
aI254791849
aI14129665
aI1330457336
aI165195747
aI599022441
aI22642788
aI53416635
aI94209322
aI250039170
aI94817123
aI404526275
aI303687748
aI1340925350
aI28770884
aI1309809859
aI419639256
aI15451796
aI629149096
aI17535388
aI128806918
aI34939784
aI19022380
aI1003074350
aI27801862
aI2237651
aI1032801810
aI38868837
aI123441777
aI61131167
aI488417933
aI262957336
aI15352541
aI11541372
aI14065694
aI35568017
aI26836647
aI15821845
aI148694154
aI214933294
aI23751864
aI26454650
aI162070929
aI31066191
aI12935932
aI71643224
aI41724881
aI46957751
aI14979330
aI11326952
aI17129966
aI24855881
aI47569148
aI437459161
aI316869223
aI780032935
aI50090898
aI11877522
aI1407461
aI19767193
aI454384379
aI115692945
aI296716997
aI15156473
aI14802318
aI20248981
aI21652797
aI404259692
aI135202091
aI14621446
aI13458072
aI437990297
aI85244594
aI106923604
aI108470971
aI140211422
aI175624200
aI719013
aI16037084
aI65356032
aI36383929
aI44099854
aI476700973
aI15595875
aI12282472
aI73020492
aI15151064
aI133594571
aI14333344
aI90380405
aI3112561
aI23988193
aI32493647
aI238436945
aI370633829
aI16922998
aI234362929
aI304326532
aI140353561
aI5945472
aI434513
aI510683340
aI19107088
aI66837674
aI23300056
aI173086803
aI108845341
aI20917790
aI281734652
aI115416757
aI21584407
aI11872982
aI6508612
aI254140031
aI38885823
aI18947776
aI22582796
aI79265350
aI133548219
aI46687236
aI76874432
aI15626151
aI1413771
aasS'followers'
p4
(lp5
(lp6
I1861663298
aL3365693523L
aL4078435834L
aL2917062164L
aL3620109977L
aI1471393621
aI315669483
aI53594098
aI1359201932
aI461058590
aL3289418288L
aL3335993900L
aI28299731
aI16438898
aI114438335
aI99190336
aL3170076946L
aI262363044
aI145635867
aI26673100
aL3420608897L
aL2989634142L
aL3447899068L
aI107348914
aI588559501
aI80989226
aI1312878535
aL2990400792L
aI25101007
aI175439376
aL3100574996L
aL2875952707L
aI49607086
aI81160905
aI61702125
aL3345464884L
aI178157297
aL3342578933L
aI315948514
aL3015159997L
aL2951872025L
aL2302450723L
aI14315686
aI15747981
aI51949978
aI24931506
aI1127293040
aI14847675
aI547335114
aI1513779667
aI15052374
aI76786636
aI585475980
aL2456451750L
aI158680425
aI5679092
aI600786827
aL2835442897L
aL2716139294L
aI16184259
aI207888012
aI18177624
aI250039170
aI18042371
aI21652797
aI437990297
aI411898978
aI3099501
aL2872156241L
aI550743435
aI859466935
aI248121168
aI15460250
aI11874672
aI7273252
aI569083301
aI164523117
aI25707136
aI14162904
aI17420537
aI1413771
aI6024062
aI18082484
aI18492318
aL2369354924L
aI198294488
aI174715928
aI6349102
aI8322662
aI1508219737
aL2483032742L
aI939883874
aL2492244008L
aL2547398149L
aL2481612618L
aI72686822
aI145294106
aI15110886
aI14129665
aL2389818972L
aL2775624372L
aI151590616
aI376676647
aL2189943546L
aI52543721
aI24209186
aI90339962
aI24851557
aL2230137668L
aL2552571781L
aL2349851095L
aI119915483
aI13702482
aI147423304
aI633540865
aI1335121687
aL2180123174L
aI1032272064
aI752395825
aI69279952
aI57589386
aI14262197
aI3382
aI107232730
aL2360219677L
aI16199802
aI898768003
aI488417933
aI58369436
aL2313332804L
aI50569611
aL2181563466L
aL2371660657L
aI15698731
aI612299215
aI126916586
aI46836531
aL2276938135L
aI21227670
aI26316116
aI108845341
aI136927056
aI1301772758
aI6249902
aI487180868
aI233600790
aI113022733
aI1664768570
aI123371202
aI17535388
aI379662337
aI1809974810
aI1635536496
aI18962954
aI953250864
aI250058247
aI1500819973
aI1132876218
aI840979945
aI1396816572
aI301754564
aI1353841105
aI1153662026
aI10141312
aI196149542
aI258994195
aI21985595
aI599022441
aI1143330170
aI28770884
aI94209322
aI1360305530
aI53416635
aI15451796
aI94817123
aI128806918
aI34939784
aI15200363
aI549441035
aI15352541
aI705174631
aI38868837
aI162070929
aI61131167
aI58880670
aI108470971
aI242409743
aI23741785
aI15420080
aI14289425
aI145747196
aI25232937
aI26836647
aI427205624
aI148694154
aI214933294
aI70393967
aI486558191
aI754765806
aI14579415
aI918557280
aI864295753
aI31066191
aI554850266
aI24855881
aI260965176
aI41724881
aI17129966
aI12935932
aI133594571
aI14979330
aI473240889
aI20494869
aI818944850
aI18000798
aI353163861
aI437459161
aI473646915
aI132353765
aI161734391
aI187868281
aI1407461
aI106408038
aI590257043
aI115416757
aI21584407
aI14802318
aI614517608
aI1084791
aI404259692
aI140353561
aI135202091
aI11877522
aI85244594
aI12282472
aI434513
aI15595875
aI719013
aI581954075
aI304326532
aI23988193
aI196813257
aI65356032
aI22599038
aI238436945
aI242748012
aI18947776
aI370633829
aI164656577
aI5945472
aI11872982
aI37897938
aI510683340
aI281734652
aI261078887
aI20917790
aI38885823
aI23300056
aI173086803
aI254140031
aI6508612
aI167619717
aI285613569
aI338185692
aI133548219
aI93523388
aI105408233
aI17094460
aI86556098
aI85322065
aI83790752
aI81505098
aI82734962
aI81506349
aI76874432
aI45252851
aI46687236
aI45594358
aI15014612
aI19271589
aI16918582
aI15917026
aI15643433
aI15591458
aI15626151
aI13715572
aasS'obj'
p7
ccopy_reg
_reconstructor
p8
(ctweepy.models
User
p9
c__builtin__
object
p10
Ntp11
Rp12
(dp13
S'follow_request_sent'
p14
NsS'has_extended_profile'
p15
I00
sS'profile_use_background_image'
p16
I01
sS'profile_sidebar_fill_color'
p17
VDDEEF6
p18
sS'id'
p19
I10650732
sS'verified'
p20
I00
sS'entities'
p21
(dp22
Vurl
p23
(dp24
Vurls
p25
(lp26
(dp27
g23
Vhttps://t.co/ptbepbHxRW
p28
sVindices
p29
(lp30
I0
aI23
asVexpanded_url
p31
Vhttp://tramdas.wordpress.com
p32
sVdisplay_url
p33
Vtramdas.wordpress.com
p34
sassVdescription
p35
(dp36
g25
(lp37
sssS'profile_image_url_https'
p38
Vhttps://pbs.twimg.com/profile_images/641108289531412480/8AfQ0Scn_normal.jpg
p39
sS'_json'
p40
(dp41
Vfollow_request_sent
p42
NsVhas_extended_profile
p43
I00
sVprofile_use_background_image
p44
I01
sVdefault_profile_image
p45
I00
sVid
p46
I10650732
sVprofile_background_image_url_https
p47
Vhttps://abs.twimg.com/images/themes/theme1/bg.png
p48
sVverified
p49
I00
sVprofile_text_color
p50
V333333
p51
sVprofile_image_url_https
p52
g39
sVprofile_sidebar_fill_color
p53
g18
sVentities
p54
g22
sVfollowers_count
p55
I286
sVprofile_sidebar_border_color
p56
VC0DEED
p57
sVid_str
p58
V10650732
p59
sVprofile_background_color
p60
VC0DEED
p61
sVlisted_count
p62
I58
sVstatus
p63
(dp64
Vcontributors
p65
NsVtruncated
p66
I00
sVtext
p67
VRT @redneckninja: Meanwhile, someone is leaving these around Ikea #auspol https://t.co/VHDpirHQ4a
p68
sVin_reply_to_status_id
p69
Nsg46
L666262571826065408L
sVfavorite_count
p70
I0
sVsource
p71
V<a href="http://twitter.com/download/iphone" rel="nofollow">Twitter for iPhone</a>
p72
sVretweeted
p73
I00
sVcoordinates
p74
Nsg54
(dp75
Vsymbols
p76
(lp77
sVuser_mentions
p78
(lp79
(dp80
g46
I15351240
sg29
(lp81
I3
aI16
asg58
V15351240
p82
sVscreen_name
p83
Vredneckninja
p84
sVname
p85
VFrank Keany
p86
sasVhashtags
p87
(lp88
(dp89
g29
(lp90
I66
aI73
asg67
Vauspol
p91
sasg25
(lp92
sVmedia
p93
(lp94
(dp95
Vsource_user_id
p96
I15351240
sVsource_status_id_str
p97
V666060296637681665
p98
sg31
Vhttp://twitter.com/redneckninja/status/666060296637681665/photo/1
p99
sg33
Vpic.twitter.com/VHDpirHQ4a
p100
sg23
Vhttps://t.co/VHDpirHQ4a
p101
sVmedia_url_https
p102
Vhttps://pbs.twimg.com/media/CT5STktVAAAL1VZ.jpg
p103
sVsource_user_id_str
p104
V15351240
p105
sVsource_status_id
p106
L666060296637681665L
sg58
V666060291122200576
p107
sVsizes
p108
(dp109
Vlarge
p110
(dp111
Vh
p112
I1365
sVresize
p113
Vfit
p114
sVw
p115
I1024
ssVsmall
p116
(dp117
g112
I453
sg113
Vfit
p118
sg115
I340
ssVmedium
p119
(dp120
g112
I800
sg113
Vfit
p121
sg115
I600
ssVthumb
p122
(dp123
g112
I150
sg113
Vcrop
p124
sg115
I150
sssg29
(lp125
I74
aI97
asVtype
p126
Vphoto
p127
sg46
L666060291122200576L
sVmedia_url
p128
Vhttp://pbs.twimg.com/media/CT5STktVAAAL1VZ.jpg
p129
sassVin_reply_to_screen_name
p130
Nsg58
V666262571826065408
p131
sVretweet_count
p132
I511
sVin_reply_to_user_id
p133
NsVfavorited
p134
I00
sVretweeted_status
p135
(dp136
g65
Nsg66
I00
sg67
VMeanwhile, someone is leaving these around Ikea #auspol https://t.co/VHDpirHQ4a
p137
sg69
Nsg46
L666060296637681665L
sg70
I354
sg71
V<a href="http://tapbots.com/tweetbot" rel="nofollow">Tweetbot for i\u039fS</a>
p138
sg73
I00
sg74
Nsg54
(dp139
g76
(lp140
sg78
(lp141
sg87
(lp142
(dp143
g29
(lp144
I48
aI55
asg67
Vauspol
p145
sasg25
(lp146
sg93
(lp147
(dp148
g31
Vhttp://twitter.com/redneckninja/status/666060296637681665/photo/1
p149
sg33
Vpic.twitter.com/VHDpirHQ4a
p150
sg23
Vhttps://t.co/VHDpirHQ4a
p151
sg102
Vhttps://pbs.twimg.com/media/CT5STktVAAAL1VZ.jpg
p152
sg58
V666060291122200576
p153
sg108
(dp154
g110
(dp155
g112
I1365
sg113
Vfit
p156
sg115
I1024
ssg116
(dp157
g112
I453
sg113
Vfit
p158
sg115
I340
ssg119
(dp159
g112
I800
sg113
Vfit
p160
sg115
I600
ssg122
(dp161
g112
I150
sg113
Vcrop
p162
sg115
I150
sssg29
(lp163
I56
aI79
asg126
Vphoto
p164
sg46
L666060291122200576L
sg128
Vhttp://pbs.twimg.com/media/CT5STktVAAAL1VZ.jpg
p165
sassg130
Nsg58
V666060296637681665
p166
sg132
I511
sg133
Nsg134
I00
sVgeo
p167
NsVin_reply_to_user_id_str
p168
NsVpossibly_sensitive
p169
I00
sVlang
p170
Ven
p171
sVcreated_at
p172
VMon Nov 16 01:08:44 +0000 2015
p173
sVin_reply_to_status_id_str
p174
NsVplace
p175
Nssg167
Nsg168
Nsg169
I00
sg170
Ven
p176
sg172
VMon Nov 16 14:32:30 +0000 2015
p177
sg174
Nsg175
NssVis_translation_enabled
p178
I00
sVutc_offset
p179
I28800
sVstatuses_count
p180
I4841
sg35
VRap critics say I'm money, cache, hos. @bromium/@bigdatamalaysia. I \u2665 sushi. UPDATE: I might like something without actually liking it. Converse also true.
p181
sVfriends_count
p182
I409
sVlocation
p183
VMelbourne / Kuala Lumpur
p184
sVprofile_link_color
p185
V000000
p186
sVprofile_image_url
p187
Vhttp://pbs.twimg.com/profile_images/641108289531412480/8AfQ0Scn_normal.jpg
p188
sVfollowing
p189
NsVgeo_enabled
p190
I01
sVprofile_banner_url
p191
Vhttps://pbs.twimg.com/profile_banners/10650732/1439357874
p192
sVprofile_background_image_url
p193
Vhttp://abs.twimg.com/images/themes/theme1/bg.png
p194
sg83
Vtirath
p195
sg170
Ven
p196
sVprofile_background_tile
p197
I00
sVfavourites_count
p198
I457
sg85
VTirath Ramdas
p199
sVnotifications
p200
Nsg23
Vhttps://t.co/ptbepbHxRW
p201
sg172
VTue Nov 27 08:18:22 +0000 2007
p202
sVcontributors_enabled
p203
I00
sVtime_zone
p204
VKuala Lumpur
p205
sVprotected
p206
I00
sVdefault_profile
p207
I00
sVis_translator
p208
I00
ssS'contributors_enabled'
p209
I00
sS'profile_text_color'
p210
g51
sS'followers_count'
p211
I286
sS'profile_sidebar_border_color'
p212
g57
sS'id_str'
p213
g59
sS'default_profile_image'
p214
I00
sS'listed_count'
p215
I58
sS'status'
p216
g8
(ctweepy.models
Status
p217
g10
Ntp218
Rp219
(dp220
S'favorited'
p221
I00
sS'contributors'
p222
NsS'truncated'
p223
I00
sS'text'
p224
g68
sS'source_url'
p225
Vhttp://twitter.com/download/iphone
p226
sS'possibly_sensitive'
p227
I00
sS'in_reply_to_status_id'
p228
NsS'geo'
p229
Nsg19
L666262571826065408L
sS'favorite_count'
p230
I0
sS'lang'
p231
g176
sS'retweeted_status'
p232
g8
(g217
g10
Ntp233
Rp234
(dp235
g221
I00
sg222
Nsg223
I00
sg224
g137
sg225
Vhttp://tapbots.com/tweetbot
p236
sg227
I00
sg228
Nsg229
Nsg19
L666060296637681665L
sg230
I354
sg231
g171
sg21
g139
sS'created_at'
p237
cdatetime
datetime
p238
(S'\x07\xdf\x0b\x10\x01\x08,\x00\x00\x00'
p239
tp240
Rp241
sg40
g136
sS'coordinates'
p242
NsS'in_reply_to_user_id_str'
p243
NsS'source'
p244
VTweetbot for i\u039fS
p245
sS'in_reply_to_status_id_str'
p246
NsS'in_reply_to_screen_name'
p247
Nsg213
g166
sS'retweeted'
p248
I00
sS'place'
p249
NsS'retweet_count'
p250
I511
sS'in_reply_to_user_id'
p251
Nsbsg21
g75
sg237
g238
(S'\x07\xdf\x0b\x10\x0e \x1e\x00\x00\x00'
p252
tp253
Rp254
sg40
g64
sg242
Nsg243
Nsg244
VTwitter for iPhone
p255
sg246
Nsg247
Nsg213
g131
sg248
I00
sg249
Nsg250
I511
sg251
NsbsS'is_translation_enabled'
p256
I00
sS'utc_offset'
p257
I28800
sS'statuses_count'
p258
I4841
sS'description'
p259
g181
sS'friends_count'
p260
I409
sS'location'
p261
g184
sS'profile_link_color'
p262
g186
sS'profile_image_url'
p263
g188
sS'notifications'
p264
NsS'geo_enabled'
p265
I01
sS'profile_background_color'
p266
g61
sS'profile_banner_url'
p267
g192
sS'profile_background_image_url'
p268
g194
sS'screen_name'
p269
g195
sg231
g196
sg1
I00
sS'profile_background_tile'
p270
I00
sS'favourites_count'
p271
I457
sS'name'
p272
g199
sS'url'
p273
g201
sg237
g238
(S'\x07\xd7\x0b\x1b\x08\x12\x16\x00\x00\x00'
p274
tp275
Rp276
sS'profile_background_image_url_https'
p277
g48
sS'time_zone'
p278
g205
sS'protected'
p279
I00
sS'default_profile'
p280
I00
sS'is_translator'
p281
I00
sbs.