(dp0
S'following'
p1
(lp2
(lp3
I886996418
aI22090282
aI15425377
aI39559926
aI65594489
aI32102565
aL2575101426L
aI9555372
aI34681960
aI208155240
aL3044619527L
aI18746431
aI20963461
aI97786845
aI907213880
aI21232827
aL2890172923L
aI201537863
aI98522869
aL2968276594L
aI252874958
aI91798372
aI31784030
aI7587032
aI16343974
aI16887175
aI972651
aI73248493
aI338957752
aI342567396
aI11041
aI20159042
aI60622883
aI17021282
aI47677148
aI250275433
aI44918069
aI594029345
aI169426475
aI206717989
aI24150634
aI36329597
aI157981564
aI102700680
aI177179008
aI169963553
aI25098482
aI27860681
aI25390350
aI382275399
aI42088679
aI453030125
aI218812123
aI37244716
aI109553437
aI995576238
aI439437576
aI15897179
aI60900794
aI270415274
aI53326942
aI292775676
aI292382053
aI303862998
aI487118986
aI292233171
aI70354857
aI39213635
aI566637308
aL2961589380L
aL2867512575L
aI365657175
aI36048973
aI426159377
aI14204663
aI635604793
aI866443928
aL2851156594L
aI1332106124
aI498404030
aI32761187
aL2573294868L
aI298074138
aI859306879
aI1138552015
aL3152565277L
aI51205137
aL2302754738L
aL2927960383L
aI333354104
aL2203746163L
aI1327359720
aL2801562730L
aI28614262
aI20545835
aI289843272
aI82414172
aI112897540
aI16186995
aL2791864417L
aI34732474
aI159282289
aI168161721
aI34035933
aL2968256134L
aL2523483728L
aI227682918
aI1668256296
aI352947624
aI21778391
aI16732770
aI14216123
aI1076600557
aI106878438
aI22631898
aI321299775
aI174256096
aI183368996
aI381318163
aI41330603
aI1529271854
aI34743251
aL2361288673L
aI421794008
aI824157
aI54986495
aI87098546
aI86141342
aI381090984
aI621583
aI25562270
aI21272440
aI11348282
aI2890961
aI112243365
aI428333
aI2836421
aI59486068
aI36010396
aI1443737214
aI1534167900
aI10228272
aI34001062
aI26322795
aI313644208
aI1252224511
aI5904682
aI102323621
aI51241574
aI32359921
aI2467791
aI807095
aI759251
aI537243906
aI7400702
aI621523
aI5402612
aI742143
aI944206759
aI241789496
aI580641304
aI886728468
aI6076652
aI16726035
aI205183966
aI102325185
aI1674089395
aI15935591
aI16827489
aI205244994
aI261354349
aI1032298513
aI15281391
aI592729858
aI123049389
aI28571999
aI21323268
aL2281350655L
aI143473696
aI1152279248
aI35860484
aL2449270687L
aL2203730634L
aI332617373
aI797769606
aI2097571
aI240168146
aI142672514
aI1241549743
aL2228632277L
aI1324817845
aI17894501
aI20536157
aI17193794
aI1907413100
aI98736295
aI817386
aI123663235
aI102527566
aI218180284
aI168679374
aI1527680376
aI151998296
aI388768197
aI28785486
aI182876615
aI60642052
aI14173315
aI101902311
aI31080136
aI67025123
aI40983077
aI113372113
aI97465323
aI163397346
aI24891799
aI326652075
aI20274912
aI324545385
aI1571140190
aI87290642
aI33289381
aI24150300
aI1005263827
aL2183551648L
aI87418952
aI19207861
aI337726021
aI240666745
aI71027475
aI14525845
aI17899113
aI18452614
aI13073622
aI708779395
aI1636590253
aI19012517
aI87236039
aI14892904
aI15179215
aI171563950
aI348772885
aI63222576
aI23095461
aI18938646
aI17712324
aI95975081
aI563922289
aI1547707416
aI517240992
aI26787673
aI17824922
aI322048758
aI19790872
aI20090888
aI327484803
aI264996175
aI39879120
aI233704756
aI41670073
aI90727311
aI497094379
aI320524842
aI1461820334
aI1364930179
aI872581886
aI22079148
aI396175465
aI40982362
aI22302444
aI17473062
aI375980238
aI399605208
aI98676554
aI90631792
aI96555771
aI353516682
aI125925341
aI389759266
aI366553075
aI217892171
aI1266522240
aI38197397
aI22446586
aI164563576
aI1086538034
aI1010996515
aI108021761
aI21328656
aI16906237
aI382685028
aI995378850
aI37718217
aI101044849
aI15296897
aI112441291
aI519633486
aI15005808
aI950517078
aI95489542
aI80596373
aI262685053
aI139960419
aI535913183
aI1161888475
aI551440408
aI84402174
aI30043148
aI36359651
aI364818324
aI119372054
aI27652717
aI108617488
aI104712573
aI191160473
aI405212324
aI14136886
aI1379275105
aI25709609
aI353676175
aI22756483
aI61987064
aI106725205
aI227070376
aI1141627460
aI125424574
aI26583295
aI923554537
aI34837057
aI171985134
aI9688342
aI16315838
aI253167239
aI49996749
aI1236101
aI48994068
aI420929558
aI434649810
aI66884690
aI847364690
aI112192083
aI138182116
aI65448361
aI1162235052
aI30261067
aI99910639
aI936505195
aI20220092
aI154090869
aI14248401
aI48713183
aI19011238
aI404431059
aI127865195
aI75227798
aI44060322
aI67358777
aI69620713
aI35002876
aI40207399
aI82836636
aI18019299
aI36082429
aI15377138
aI18949452
aI296962834
aI78714922
aI110974198
aI7449842
aI110711694
aI15945181
aI117590354
aI681813
aI2201941
aI949874132
aI494931681
aI14886375
aI486022227
aI617760963
aI44196397
aI61853389
aI36367130
aI73112681
aI108657905
aI79099132
aI628417077
aI786993542
aI788430600
aI157941114
aI97072271
aI213670158
aI74116498
aI17816699
aI37564410
aI992182100
aI348398805
aI4898091
aI14511951
aI159110713
aI877744351
aI19343218
aI14677919
aI423426321
aI31036329
aI2735591
aI17503180
aI24735933
aI203249899
aI465547640
aI3151101
aI289556231
aI122363532
aI816653
aI17464780
aI475116120
aI570282502
aI413955323
aI1010710706
aI122924767
aI136200511
aI41580964
aI88851192
aI91454746
aI486494732
aI25070893
aI41406433
aI55020919
aI18952948
aI74130577
aI275721015
aI298077846
aI14861285
aI20542450
aI418793735
aI89143322
aI16876383
aI21644750
aI755452
aI83466368
aI46685353
aI97668998
aI121902355
aI84344194
aI143949701
aI13298072
aI10565
aI10032112
aI166252256
aI25570548
aI23462254
aI234271706
aI253509775
aI8524892
aI27030065
aI65155179
aI138513820
aI86582499
aI264643463
aI101409766
aI41022150
aI23694685
aI14301180
aI74430219
aI1652541
aI337853585
aI15108702
aI17513682
aI137375632
aI148337224
aI27028249
aI5120691
aI27707080
aI40098752
aI104237736
aI121387626
aI112674764
aI17622474
aI265732557
aI82923521
aI91139315
aI18639734
aI19546277
aI275686563
aI1344951
aI426662549
aI200036846
aI363294130
aI76588981
aI317256470
aI21982720
aI506344028
aI23484039
aI5988062
aI3108351
aI19224439
aI243799290
aI91478624
aI20562637
aI20402945
aI34713362
aI624413
aI20127779
aI17993286
aI108711620
aI67382798
aI15568127
aI552102161
aI28212513
aI23059499
aasS'followers'
p4
(lp5
(lp6
I1285949539
aL2957195931L
aI424239558
aI50283857
aI1243167092
aL2880938229L
aI218122059
aL2906862160L
aL3320654594L
aL2722310510L
aI60877603
aI188341419
aI1924312855
aL4066169367L
aI1044661212
aL3317398447L
aL3888098296L
aL3435571384L
aL3023580476L
aL3421882955L
aI305037806
aL2450102586L
aL2203759328L
aI1924310023
aL4126110134L
aI76213350
aI201436130
aL2925160535L
aL2394624246L
aL3506149637L
aL2674240102L
aL2781050528L
aL3854311035L
aI15321866
aI1496832474
aL3832015454L
aI122996217
aL3945232397L
aL3018809793L
aL3946770635L
aI1371367364
aL2466373656L
aI119714569
aI248725525
aL3246513592L
aI311129718
aI9555372
aI338115564
aL2662370076L
aL3236719673L
aI1012682347
aL3523580653L
aL3392291031L
aL2445064535L
aL2817966517L
aL3356135507L
aL3563437876L
aI21759987
aI1640681918
aI22972984
aI1604507318
aI23359324
aI108607339
aL3044619527L
aI954478375
aL3362388111L
aI569018355
aI22446586
aL3020164085L
aI16886925
aL3305442939L
aL2951725368L
aI1650439231
aL3308782837L
aL2968276594L
aI98522869
aI35359528
aI246393692
aI342977614
aI1845191160
aI182103541
aI1909213225
aI1382499301
aL3250576651L
aL2361262828L
aI950517078
aI17993286
aL3239762876L
aL2796247106L
aL3244288688L
aI1252224511
aI139988522
aI600961508
aI15897179
aL2393519503L
aL2867512575L
aL3292909683L
aI17072544
aI415753384
aI1878159230
aL2950700548L
aI611817117
aI1877086280
aL2950761064L
aL3152565277L
aI1138552015
aL2927960383L
aI534379639
aL2302754738L
aL3016726620L
aL3130088085L
aI1332106124
aI259056263
aL2894726206L
aI48572412
aI1460732912
aL2991527953L
aL3044038310L
aL2968256134L
aI316427869
aL2909948195L
aI173831670
aI14886375
aI427022779
aI34035933
aL2596288916L
aI303531344
aL2975581469L
aI1529271854
aL2166494490L
aI184391585
aL2883878327L
aI1286540352
aL2912585938L
aI1019032993
aL2522660570L
aI217892171
aL2843437958L
aL2881288162L
aL2589332558L
aL2872715745L
aL2872741607L
aI127967449
aI976592376
aI1847308628
aL2856797530L
aI16673128
aL2813281398L
aL2781959869L
aL2680195514L
aI580641304
aI60029169
aI145724109
aL2379264098L
aI1032298513
aI1833197341
aI1241549743
aI58559649
aL2434575380L
aL2449270687L
aI34578922
aI1571140190
aI1039313370
aI1011608761
aI49380359
aI1650934717
aI353516682
aI7918092
aI1010059819
aI302839642
aI1562599782
aI1559710764
aI1547707416
aI14069268
aI245768879
aI1461820334
aI320524842
aI96555771
aI38197397
aI90727311
aI1086538034
aI101044849
aI1161888475
aI364818324
aI1379275105
aI14136886
aI22596737
aI143949701
aI405212324
aI99910639
aI420929558
aI191160473
aI494931681
aI1283868066
aI79099132
aI108657905
aI74116498
aI628417077
aI2201941
aI788430600
aI786993542
aI949874132
aI1162235052
aI15377138
aI475116120
aI265732557
aI46685353
aI877744351
aI413955323
aI136200511
aI570282502
aI91454746
aI122924767
aI1010710706
aI108711620
aasS'obj'
p7
ccopy_reg
_reconstructor
p8
(ctweepy.models
User
p9
c__builtin__
object
p10
Ntp11
Rp12
(dp13
S'follow_request_sent'
p14
NsS'has_extended_profile'
p15
I00
sS'profile_use_background_image'
p16
I01
sS'profile_sidebar_fill_color'
p17
VDDEEF6
p18
sS'id'
p19
I1077850658
sS'verified'
p20
I00
sS'entities'
p21
(dp22
Vurl
p23
(dp24
Vurls
p25
(lp26
(dp27
g23
Vhttp://t.co/ZCOkHpRv
p28
sVindices
p29
(lp30
I0
aI20
asVexpanded_url
p31
Vhttp://privatcapital.blogspot.com
p32
sVdisplay_url
p33
Vprivatcapital.blogspot.com
p34
sassVdescription
p35
(dp36
g25
(lp37
sssS'profile_image_url_https'
p38
Vhttps://pbs.twimg.com/profile_images/3095470603/fefa30e42e95fcf294f7ff74b7f18caa_normal.jpeg
p39
sS'_json'
p40
(dp41
Vfollow_request_sent
p42
NsVhas_extended_profile
p43
I00
sVprofile_use_background_image
p44
I01
sVdefault_profile_image
p45
I00
sVid
p46
I1077850658
sVprofile_background_image_url_https
p47
Vhttps://abs.twimg.com/images/themes/theme1/bg.png
p48
sVverified
p49
I00
sVprofile_text_color
p50
V333333
p51
sVprofile_image_url_https
p52
g39
sVprofile_sidebar_fill_color
p53
g18
sVentities
p54
g22
sVfollowers_count
p55
I215
sVprofile_sidebar_border_color
p56
VC0DEED
p57
sVid_str
p58
V1077850658
p59
sVprofile_background_color
p60
VC0DEED
p61
sVlisted_count
p62
I39
sVstatus
p63
(dp64
Vcontributors
p65
NsVtruncated
p66
I00
sVtext
p67
VA Case For Buying Fossil After Friday's Stock Wipeout $FOSL https://t.co/wwZQdjWLnQ
p68
sVin_reply_to_status_id
p69
Nsg46
L666304158832730112L
sVfavorite_count
p70
I0
sVsource
p71
V<a href="http://twitter.com/download/iphone" rel="nofollow">Twitter for iPhone</a>
p72
sVretweeted
p73
I00
sVcoordinates
p74
Nsg54
(dp75
Vsymbols
p76
(lp77
(dp78
g29
(lp79
I54
aI59
asg67
VFOSL
p80
sasVuser_mentions
p81
(lp82
sVhashtags
p83
(lp84
sg25
(lp85
(dp86
g23
Vhttps://t.co/wwZQdjWLnQ
p87
sg29
(lp88
I60
aI83
asg31
Vhttp://www.seekingalpha.com/article/3688006
p89
sg33
Vseekingalpha.com/article/3688006
p90
sassVin_reply_to_screen_name
p91
Nsg58
V666304158832730112
p92
sVretweet_count
p93
I0
sVin_reply_to_user_id
p94
NsVfavorited
p95
I00
sVgeo
p96
NsVin_reply_to_user_id_str
p97
NsVpossibly_sensitive
p98
I00
sVlang
p99
Ven
p100
sVcreated_at
p101
VMon Nov 16 17:17:45 +0000 2015
p102
sVin_reply_to_status_id_str
p103
NsVplace
p104
NssVis_translation_enabled
p105
I00
sVutc_offset
p106
NsVstatuses_count
p107
I11848
sg35
VMicro Blog of Markets and Economy
p108
sVfriends_count
p109
I509
sVlocation
p110
VBudapest, Hungary
p111
sVprofile_link_color
p112
V0084B4
p113
sVprofile_image_url
p114
Vhttp://pbs.twimg.com/profile_images/3095470603/fefa30e42e95fcf294f7ff74b7f18caa_normal.jpeg
p115
sVfollowing
p116
NsVgeo_enabled
p117
I00
sVprofile_banner_url
p118
Vhttps://pbs.twimg.com/profile_banners/1077850658/1358109822
p119
sVprofile_background_image_url
p120
Vhttp://abs.twimg.com/images/themes/theme1/bg.png
p121
sVscreen_name
p122
VPrivateCapBlog
p123
sg99
Ven
p124
sVprofile_background_tile
p125
I00
sVfavourites_count
p126
I470
sVname
p127
VPrivateCapBlogger
p128
sVnotifications
p129
Nsg23
Vhttp://t.co/ZCOkHpRv
p130
sg101
VThu Jan 10 22:17:39 +0000 2013
p131
sVcontributors_enabled
p132
I00
sVtime_zone
p133
NsVprotected
p134
I00
sVdefault_profile
p135
I01
sVis_translator
p136
I00
ssS'contributors_enabled'
p137
I00
sS'profile_text_color'
p138
g51
sS'followers_count'
p139
I215
sS'profile_sidebar_border_color'
p140
g57
sS'id_str'
p141
g59
sS'default_profile_image'
p142
I00
sS'listed_count'
p143
I39
sS'status'
p144
g8
(ctweepy.models
Status
p145
g10
Ntp146
Rp147
(dp148
S'favorited'
p149
I00
sS'contributors'
p150
NsS'truncated'
p151
I00
sS'text'
p152
g68
sS'source_url'
p153
Vhttp://twitter.com/download/iphone
p154
sS'possibly_sensitive'
p155
I00
sS'in_reply_to_status_id'
p156
NsS'geo'
p157
Nsg19
L666304158832730112L
sS'favorite_count'
p158
I0
sS'lang'
p159
g100
sg21
g75
sS'created_at'
p160
cdatetime
datetime
p161
(S'\x07\xdf\x0b\x10\x11\x11-\x00\x00\x00'
p162
tp163
Rp164
sg40
g64
sS'coordinates'
p165
NsS'in_reply_to_user_id_str'
p166
NsS'source'
p167
VTwitter for iPhone
p168
sS'in_reply_to_status_id_str'
p169
NsS'in_reply_to_screen_name'
p170
Nsg141
g92
sS'retweeted'
p171
I00
sS'place'
p172
NsS'retweet_count'
p173
I0
sS'in_reply_to_user_id'
p174
NsbsS'is_translation_enabled'
p175
I00
sS'utc_offset'
p176
NsS'statuses_count'
p177
I11848
sS'description'
p178
g108
sS'friends_count'
p179
I509
sS'location'
p180
g111
sS'profile_link_color'
p181
g113
sS'profile_image_url'
p182
g115
sS'notifications'
p183
NsS'geo_enabled'
p184
I00
sS'profile_background_color'
p185
g61
sS'profile_banner_url'
p186
g119
sS'profile_background_image_url'
p187
g121
sS'screen_name'
p188
g123
sg159
g124
sg1
I00
sS'profile_background_tile'
p189
I00
sS'favourites_count'
p190
I470
sS'name'
p191
g128
sS'url'
p192
g130
sg160
g161
(S"\x07\xdd\x01\n\x16\x11'\x00\x00\x00"
p193
tp194
Rp195
sS'profile_background_image_url_https'
p196
g48
sS'time_zone'
p197
NsS'protected'
p198
I00
sS'default_profile'
p199
I01
sS'is_translator'
p200
I00
sbs.