(dp0
S'following'
p1
(lp2
(lp3
I983655260
aL3346438133L
aI273984441
aI249608059
aI1318795076
aI287471448
aL2411447383L
aI55381052
aL2414736175L
aI190092133
aI196442145
aI297848618
aL2902223007L
aI466333756
aL2335651058L
aI175792847
aI318280647
aI106504911
aI820031509
aL3096714913L
aI788333744
aL3435168249L
aI415302822
aI253263442
aI84888263
aI24227424
aI29854129
aI150094848
aI266867464
aI15919493
aI486459307
aI608172804
aL3190986447L
aL2427554983L
aL3312390334L
aL3089023499L
aI22169709
aL3358540545L
aI1446352950
aI455824771
aI100291468
aI263835409
aI1676238666
aI496066203
aI48305047
aL2832007441L
aI186813890
aL2950915445L
aI192930327
aL2874503536L
aL3154923455L
aI187204088
aL2949213921L
aI1399507794
aI357349881
aI82050044
aL3164268772L
aI238919310
aL2516029806L
aI176168308
aL2517112130L
aI196296812
aI425942351
aI52166809
aI53215424
aI573028637
aI116252479
aL2915763990L
aI303531344
aI1732456644
aI88157952
aL2932224381L
aI141380072
aI198223216
aI160869273
aI1556418139
aI855552331
aI323096742
aI192023234
aI799122090
aI1492449175
aL2847837948L
aI194328601
aL2572696104L
aI65681636
aI32141500
aI24597982
aI770341250
aI1048250724
aI336328354
aI636713360
aI20874566
aI861042800
aL2940416010L
aI546815202
aI299565046
aI208204498
aI135161407
aI1572707106
aI20883285
aI399681239
aL2442354826L
aI316234901
aI952404036
aI26493482
aI18034541
aL2725896061L
aL2544278864L
aL2286097290L
aL2558804928L
aI475524030
aI317076058
aL2584819545L
aI188286675
aI1477671475
aI337023595
aI519573215
aI380439169
aI735239035
aI260058844
aI363540963
aI507532556
aI289556231
aL2962639539L
aI297080451
aL2612537108L
aI142885691
aI1031996370
aI102460885
aI311738954
aI28353935
aL2674042633L
aI1425713144
aI94210183
aI434119641
aI1883527866
aI740148150
aL2471697932L
aI135184183
aL2399428293L
aI379112990
aI184700461
aI403475769
aI211525204
aI1399589509
aI126640430
aI259354209
aI18616722
aI15592217
aasS'followers'
p4
(lp5
(lp6
I1953747355
aL3161642778L
aI1393603976
aI15935339
aL2551992944L
aI1583359764
aL4169787496L
aI360575744
aI1251173263
aI314695590
aI1580736493
aI249608059
aL4065821235L
aL3286318968L
aI287471448
aI55381052
aI296991398
aL2159322464L
aL3392090854L
aL2829448048L
aI1893858302
aL3308266956L
aI982992144
aL3673988177L
aL3613029022L
aL3521874373L
aI238919310
aI1234749992
aL3435168249L
aI415302822
aI294203821
aL3379662789L
aI59143641
aL3412307123L
aL3426650992L
aI253263442
aI1546408422
aI909854588
aL3332351152L
aI1626294277
aL3300645337L
aL3400558323L
aL3392005821L
aL2889381899L
aL2269071335L
aI745457683
aI354903682
aL3091401899L
aL3383781215L
aI310819318
aL2267539420L
aI328457529
aL2427554983L
aL3312390334L
aL3089023499L
aL3371682857L
aL2844051765L
aI602891299
aL2495948499L
aI105492055
aI620186310
aI380260095
aI1446352950
aI841743768
aL2874503536L
aL3353643573L
aI603830625
aI557726825
aI554025041
aI238387143
aI100291468
aI301924866
aL2706007339L
aL2732357411L
aI359638660
aL2915690823L
aI270057190
aI387027780
aL3339463695L
aL2847898283L
aI986035028
aL2786976814L
aI485401187
aL3322982927L
aI211799362
aI190163551
aI186813890
aI263835409
aI496066203
aI410596861
aI206264864
aI238538973
aI191812541
aI877118527
aI123641920
aI322530222
aI440690311
aL2744497420L
aI1307154355
aL2950915445L
aI192930327
aL3309467548L
aL3154923455L
aL2274295728L
aL3164268772L
aL2221210423L
aL2516029806L
aL2888105993L
aI196296812
aL2517112130L
aI1056076242
aI276120124
aI1529917477
aI303531344
aL2963885915L
aI761086260
aI1732456644
aI88157952
aI763605788
aL2932224381L
aI141380072
aI160869273
aI198223216
aI1556418139
aI323096742
aI855552331
aL3145461719L
aI1351541414
aI564810481
aL3002565558L
aI1492449175
aI26862009
aI281558866
aL3086887536L
aI205055499
aI157883442
aI180252985
aI52411232
aI410961480
aI349503216
aI33456863
aI314793398
aI144825067
aL3063351995L
aI1355682194
aI168798119
aI36784430
aI171490029
aI336328354
aI20874566
aI139777670
aI431834413
aL2442354826L
aI861042800
aI208204498
aI299565046
aI546815202
aI135161407
aI1572707106
aI20883285
aI316234901
aI1914802015
aI26493482
aI952404036
aL2719013235L
aL2824905492L
aI317076058
aI200730656
aI278553772
aI507532556
aI735239035
aI363540963
aI519573215
aI380439169
aI260058844
aI337023595
aI135184183
aI1477671475
aI188286675
aL2584819545L
aL2268762372L
aI142885691
aI1870096807
aI102460885
aI311738954
aL2674042633L
aI28353935
aL2932160777L
aL2926002097L
aI91015613
aI1425713144
aI94210183
aI1532399899
aI211525204
aL2471697932L
aI45597575
aI84095726
aL2811144901L
aL2399428293L
aL2187098254L
aI379112990
aI184700461
aI744316176
aL2762832844L
aL2611976506L
aL2506185098L
aL2310796272L
aI446442611
aI558797861
aI123395858
aI561753146
aI244847987
aI18128070
aI120503539
aI43351805
aI46525606
aI15776004
aI15592217
aI102119647
aasS'obj'
p7
ccopy_reg
_reconstructor
p8
(ctweepy.models
User
p9
c__builtin__
object
p10
Ntp11
Rp12
(dp13
S'follow_request_sent'
p14
NsS'has_extended_profile'
p15
I00
sS'profile_use_background_image'
p16
I01
sS'profile_sidebar_fill_color'
p17
VF3F3F3
p18
sS'id'
p19
I109671883
sS'verified'
p20
I00
sS'entities'
p21
(dp22
Vdescription
p23
(dp24
Vurls
p25
(lp26
sssS'profile_image_url_https'
p27
Vhttps://pbs.twimg.com/profile_images/642300298975969280/0f3rPfoL_normal.jpg
p28
sS'_json'
p29
(dp30
Vfollow_request_sent
p31
NsVhas_extended_profile
p32
I00
sVprofile_use_background_image
p33
I01
sVdefault_profile_image
p34
I00
sVid
p35
I109671883
sVprofile_background_image_url_https
p36
Vhttps://pbs.twimg.com/profile_background_images/298097922/1920-1200-63985.jpg
p37
sVverified
p38
I00
sVprofile_text_color
p39
V333333
p40
sVprofile_image_url_https
p41
g28
sVprofile_sidebar_fill_color
p42
g18
sVentities
p43
g22
sVfollowers_count
p44
I219
sVprofile_sidebar_border_color
p45
VDFDFDF
p46
sVid_str
p47
V109671883
p48
sVprofile_background_color
p49
VEBEBEB
p50
sVlisted_count
p51
I9
sVstatus
p52
(dp53
Vcontributors
p54
NsVtruncated
p55
I00
sVtext
p56
V$MU good for a bounce at this level. Use a close below ascending trend line as stop loss. https://t.co/GKKrkmoXmp
p57
sVin_reply_to_status_id
p58
Nsg35
L666402015157751810L
sVfavorite_count
p59
I0
sVsource
p60
V<a href="http://stocktwits.com" rel="nofollow">StockTwits Web</a>
p61
sVretweeted
p62
I00
sVcoordinates
p63
Nsg43
(dp64
Vsymbols
p65
(lp66
(dp67
Vindices
p68
(lp69
I0
aI3
asg56
VMU
p70
sasVuser_mentions
p71
(lp72
sVhashtags
p73
(lp74
sg25
(lp75
sVmedia
p76
(lp77
(dp78
Vexpanded_url
p79
Vhttp://twitter.com/Dreamestorical/status/666402015157751810/photo/1
p80
sVdisplay_url
p81
Vpic.twitter.com/GKKrkmoXmp
p82
sVurl
p83
Vhttps://t.co/GKKrkmoXmp
p84
sVmedia_url_https
p85
Vhttps://pbs.twimg.com/media/CT-JGTnU8AAYlvH.png
p86
sg47
V666402011311566848
p87
sVsizes
p88
(dp89
Vsmall
p90
(dp91
Vh
p92
I166
sVresize
p93
Vfit
p94
sVw
p95
I340
ssVlarge
p96
(dp97
g92
I500
sg93
Vfit
p98
sg95
I1024
ssVmedium
p99
(dp100
g92
I293
sg93
Vfit
p101
sg95
I600
ssVthumb
p102
(dp103
g92
I150
sg93
Vcrop
p104
sg95
I150
sssg68
(lp105
I90
aI113
asVtype
p106
Vphoto
p107
sg35
L666402011311566848L
sVmedia_url
p108
Vhttp://pbs.twimg.com/media/CT-JGTnU8AAYlvH.png
p109
sassVin_reply_to_screen_name
p110
Nsg47
V666402015157751810
p111
sVretweet_count
p112
I0
sVin_reply_to_user_id
p113
NsVfavorited
p114
I00
sVgeo
p115
NsVin_reply_to_user_id_str
p116
NsVpossibly_sensitive
p117
I00
sVlang
p118
Ven
p119
sVcreated_at
p120
VMon Nov 16 23:46:36 +0000 2015
p121
sVin_reply_to_status_id_str
p122
NsVplace
p123
NssVis_translation_enabled
p124
I00
sVutc_offset
p125
I3600
sVstatuses_count
p126
I3605
sg23
VDay and Swing Trader via Options
p127
sVfriends_count
p128
I149
sVlocation
p129
V
p130
sVprofile_link_color
p131
V990000
p132
sVprofile_image_url
p133
Vhttp://pbs.twimg.com/profile_images/642300298975969280/0f3rPfoL_normal.jpg
p134
sVfollowing
p135
NsVgeo_enabled
p136
I00
sVprofile_banner_url
p137
Vhttps://pbs.twimg.com/profile_banners/109671883/1442024931
p138
sVprofile_background_image_url
p139
Vhttp://pbs.twimg.com/profile_background_images/298097922/1920-1200-63985.jpg
p140
sVscreen_name
p141
VDreamestorical
p142
sg118
Ven
p143
sVprofile_background_tile
p144
I00
sVfavourites_count
p145
I48
sVname
p146
VKonye Bisong
p147
sVnotifications
p148
Nsg83
Nsg120
VFri Jan 29 21:36:57 +0000 2010
p149
sVcontributors_enabled
p150
I00
sVtime_zone
p151
VWest Central Africa
p152
sVprotected
p153
I00
sVdefault_profile
p154
I00
sVis_translator
p155
I00
ssS'contributors_enabled'
p156
I00
sS'profile_text_color'
p157
g40
sS'followers_count'
p158
I219
sS'profile_sidebar_border_color'
p159
g46
sS'id_str'
p160
g48
sS'default_profile_image'
p161
I00
sS'listed_count'
p162
I9
sS'status'
p163
g8
(ctweepy.models
Status
p164
g10
Ntp165
Rp166
(dp167
S'favorited'
p168
I00
sS'contributors'
p169
NsS'truncated'
p170
I00
sS'text'
p171
g57
sS'source_url'
p172
Vhttp://stocktwits.com
p173
sS'possibly_sensitive'
p174
I00
sS'in_reply_to_status_id'
p175
NsS'geo'
p176
Nsg19
L666402015157751810L
sS'favorite_count'
p177
I0
sS'lang'
p178
g119
sg21
g64
sS'created_at'
p179
cdatetime
datetime
p180
(S'\x07\xdf\x0b\x10\x17.$\x00\x00\x00'
p181
tp182
Rp183
sg29
g53
sS'coordinates'
p184
NsS'in_reply_to_user_id_str'
p185
NsS'source'
p186
VStockTwits Web
p187
sS'in_reply_to_status_id_str'
p188
NsS'in_reply_to_screen_name'
p189
Nsg160
g111
sS'retweeted'
p190
I00
sS'place'
p191
NsS'retweet_count'
p192
I0
sS'in_reply_to_user_id'
p193
NsbsS'is_translation_enabled'
p194
I00
sS'utc_offset'
p195
I3600
sS'statuses_count'
p196
I3605
sS'description'
p197
g127
sS'friends_count'
p198
I149
sS'location'
p199
g130
sS'profile_link_color'
p200
g132
sS'profile_image_url'
p201
g134
sS'notifications'
p202
NsS'geo_enabled'
p203
I00
sS'profile_background_color'
p204
g50
sS'profile_banner_url'
p205
g138
sS'profile_background_image_url'
p206
g140
sS'screen_name'
p207
g142
sg178
g143
sg1
I00
sS'profile_background_tile'
p208
I00
sS'favourites_count'
p209
I48
sS'name'
p210
g147
sS'url'
p211
Nsg179
g180
(S'\x07\xda\x01\x1d\x15$9\x00\x00\x00'
p212
tp213
Rp214
sS'profile_background_image_url_https'
p215
g37
sS'time_zone'
p216
g152
sS'protected'
p217
I00
sS'default_profile'
p218
I00
sS'is_translator'
p219
I00
sbs.