(dp0
S'following'
p1
(lp2
(lp3
I21055792
aI275020574
aI22867489
aI425938933
aI286974125
aI262329070
aI23756134
aI532240590
aI414268101
aI22027300
aI98912540
aI369065376
aI23131068
aI97966078
aI591331840
aI1170234294
aI99005969
aI33286321
aI334915113
aI775396675
aI418299880
aI551844887
aI620560647
aI764842830
aI24578794
aI713292288
aI409617637
aI18719020
aI292451113
aI56718849
aI17824295
aI1070820493
aI48597403
aI34939208
aI20888115
aI39199749
aI26230553
aI219329534
aI100592354
aI143196844
aI624620754
aI937852190
aI118399469
aI355172912
aI1109593117
aI322796213
aI371004757
aI135996942
aI207194809
aI194137231
aI74185959
aI91246236
aI376249618
aI137480027
aI10408142
aI57978111
aI76913286
aI141333247
aI14227196
aI55007147
aI60473581
aI45670056
aI16719112
aI77846920
aI119372054
aI233603015
aI17879574
aI19476830
aI2890961
aI21810002
aI28655703
aI27473764
aI45459750
aI26223938
aI20636215
aI41257337
aI316462911
aI14798101
aI288997854
aI389551062
aI307155940
aI36047098
aI156731570
aI449469948
aI33104659
aI189385490
aI18215286
aI445976402
aI294053762
aI472269627
aI37605054
aI33216611
aI138157120
aI63706463
aI266046571
aI479040536
aI6823402
aI453113118
aI322602539
aI22623542
aI23450320
aI33747430
aI169583664
aI306118443
aI50206233
aI28007217
aI339750414
aI15820651
aI541253226
aI330578621
aI325616823
aI415820536
aI201891014
aI25110366
aI36457630
aI316402194
aI440765604
aI247861990
aI624852565
aI72928001
aI612079785
aI49619321
aI14992263
aI111441302
aI762229735
aI22302444
aI160566999
aI311137316
aI110711694
aI325293774
aI174256096
aI851632189
aI726538688
aI172514509
aI20525971
aI197125250
aI26819104
aI21232827
aI392036106
aI65681636
aI486139568
aI18856867
aI15469101
aI741898266
aI286654612
aI108021761
aI293294726
aI171555329
aI628379399
aI319102548
aI24443284
aI264288016
aI633238141
aI823319828
aI14173032
aI120209971
aI5402612
aI3108351
aI34713362
aI93723527
aI14819993
aI60224553
aI35625099
aasS'followers'
p4
(lp5
(lp6
I1565751108
aI551440408
aI1244051461
aL4150814553L
aL2725286889L
aI535837431
aL3761707757L
aL2408038189L
aL2434600926L
aI411500669
aL3880243212L
aL3876513139L
aL3375752729L
aI240526672
aL2217025676L
aL2372251789L
aL3840355763L
aI825818250
aI566059206
aI114063347
aI316602904
aI316628274
aI316625084
aL3306248044L
aI1954805156
aI310100383
aI242218039
aI267175103
aL2887204842L
aL2935280518L
aI881608580
aL2722662162L
aI121830586
aI712995869
aI360008071
aL3261757092L
aI1883912030
aI616371649
aI250942288
aI166661213
aL3358730423L
aL3407477890L
aI50194468
aL2794397342L
aI76529765
aI352528867
aI426905294
aI1700418835
aI1333461242
aL3233416869L
aI209959772
aI1554103002
aI1845191160
aI1537260883
aL2850470339L
aI364309280
aI81080302
aL2970725878L
aI1126888788
aI62958589
aI87960376
aL3309051153L
aL2866905989L
aI1302133536
aI1278922550
aL2185510824L
aL3060507030L
aI16035019
aI818936437
aI28682053
aI13423622
aI492248877
aL2249184608L
aL2786875882L
aL2218620350L
aI20800915
aL2724400994L
aI90758418
aL2151540818L
aI47247213
aI1468176786
aI108439329
aI1356760028
aL3163991712L
aI360887097
aI1226730612
aL3054651455L
aI19286891
aL2358712722L
aI203561040
aI161368630
aI1210065096
aI223678784
aL2314804225L
aL2878820378L
aI593351017
aI988804681
aI716044325
aL3005559517L
aI1300264609
aI18298605
aL2948879195L
aL2956828738L
aL2857253644L
aL2601562952L
aL2239612556L
aL2350701259L
aI805230144
aI996066158
aI1093004335
aI1865669947
aI356270349
aI147624108
aI302273348
aL2177607063L
aI15202321
aI20190369
aL2952519799L
aI40140781
aL2233952215L
aI166807523
aI43652518
aI146504636
aI15633527
aI323589811
aL2959530070L
aI31310399
aL2965493062L
aI702402034
aI1676288168
aI198320976
aL2923933186L
aI250317700
aI38419159
aI1668549488
aI487089304
aI1462240951
aL2869562673L
aL2695787300L
aL2886431098L
aL2903150990L
aI69764713
aI537545061
aI286933114
aI29239395
aI1340184788
aI85253884
aI718260068
aI544886223
aI50041321
aI40898910
aL2807668160L
aI123577686
aI388011737
aI1068886340
aI1955493762
aI38044455
aI41514484
aI198128593
aI1244393550
aI1877053902
aI44050635
aI510446342
aL2608446166L
aI823400516
aI1355793986
aI1286084917
aI1546961504
aI811576698
aI124172914
aI891354319
aL2395258519L
aL2634777789L
aL2683048170L
aI305821203
aI445121232
aI38368292
aI45355685
aI415971712
aL2591081672L
aI457099259
aL2616445050L
aL2598200586L
aI18350942
aL2554635272L
aI354875016
aL2170018283L
aI1276523425
aL2461816362L
aI402766482
aI760410895
aL2414134034L
aL2401960592L
aI137322271
aI31466615
aI518680128
aI41592518
aL2377616300L
aI353740289
aL2411152848L
aI387880772
aI387286612
aI1649056656
aI76948484
aL2270488010L
aI34265774
aL2365181975L
aI167404317
aI34917284
aI126764947
aL2374486207L
aI26609560
aI148893025
aL2321300888L
aI119988904
aI1620449059
aI1109656447
aL2224009784L
aI628635025
aI36293963
aL2343313584L
aI33048451
aI491452593
aI40043358
aI244526641
aI767829331
aI22526499
aL2236826372L
aL2280561706L
aI475950891
aI364701860
aI143651355
aL2224352989L
aI367530506
aI393858736
aI569026856
aI1654761470
aL2282402046L
aI1018484418
aI481345593
aI21813874
aI48006033
aI104611058
aI571312676
aI552327444
aI1717189704
aI283302980
aI34185439
aI545273917
aI17529929
aL2272172215L
aL2183192892L
aI287727974
aI105039132
aI706310587
aI750410011
aI537809727
aI1849096682
aI32908444
aI19010961
aI302128211
aI484541362
aI288997854
aI1965155760
aI31186367
aI28405871
aI1256850715
aI20703161
aI1958442601
aI50381253
aI20428698
aI201919494
aI365052236
aI321142584
aI56679604
aI869478499
aI133007347
aI6823402
aI1170234294
aI418299880
aI775396675
aI599397649
aI1160486412
aI334915113
aI292451113
aI28007217
aI160566999
aI1109593117
aasS'obj'
p7
ccopy_reg
_reconstructor
p8
(ctweepy.models
User
p9
c__builtin__
object
p10
Ntp11
Rp12
(dp13
S'follow_request_sent'
p14
NsS'has_extended_profile'
p15
I00
sS'profile_use_background_image'
p16
I01
sS'profile_sidebar_fill_color'
p17
VDDEEF6
p18
sS'id'
p19
I1109468634
sS'verified'
p20
I00
sS'entities'
p21
(dp22
Vurl
p23
(dp24
Vurls
p25
(lp26
(dp27
g23
Vhttp://t.co/X8VaQVPn
p28
sVindices
p29
(lp30
I0
aI20
asVexpanded_url
p31
Vhttp://www.filingsanalysis.com
p32
sVdisplay_url
p33
Vfilingsanalysis.com
p34
sassVdescription
p35
(dp36
g25
(lp37
sssS'profile_image_url_https'
p38
Vhttps://pbs.twimg.com/profile_images/3149833734/9dab0d9f109d09a6e9b334ab6326f4c2_normal.jpeg
p39
sS'_json'
p40
(dp41
Vfollow_request_sent
p42
NsVhas_extended_profile
p43
I00
sVprofile_use_background_image
p44
I01
sVdefault_profile_image
p45
I00
sVid
p46
I1109468634
sVprofile_background_image_url_https
p47
Vhttps://abs.twimg.com/images/themes/theme1/bg.png
p48
sVverified
p49
I00
sVprofile_text_color
p50
V333333
p51
sVprofile_image_url_https
p52
g39
sVprofile_sidebar_fill_color
p53
g18
sVentities
p54
g22
sVfollowers_count
p55
I288
sVprofile_sidebar_border_color
p56
VC0DEED
p57
sVid_str
p58
V1109468634
p59
sVprofile_background_color
p60
VC0DEED
p61
sVlisted_count
p62
I24
sVstatus
p63
(dp64
Vcontributors
p65
NsVtruncated
p66
I00
sVtext
p67
V$LXU, 13G filed by Robotti Robert https://t.co/rw0uEHZUvm, https://t.co/FRfocV8YVK
p68
sVin_reply_to_status_id
p69
Nsg46
L666396715390541830L
sVfavorite_count
p70
I0
sVsource
p71
V<a href="http://www.filingsanalysis.com" rel="nofollow">Filings Analysis</a>
p72
sVretweeted
p73
I00
sVcoordinates
p74
Nsg54
(dp75
Vsymbols
p76
(lp77
(dp78
g29
(lp79
I0
aI4
asg67
VLXU
p80
sasVuser_mentions
p81
(lp82
sVhashtags
p83
(lp84
sg25
(lp85
(dp86
g23
Vhttps://t.co/rw0uEHZUvm
p87
sg29
(lp88
I34
aI57
asg31
Vhttp://www.filingsanalysis.com/sec/502160104/2014/09/30/
p89
sg33
Vfilingsanalysis.com/sec/502160104/\u2026
p90
sa(dp91
g23
Vhttps://t.co/FRfocV8YVK
p92
sg29
(lp93
I59
aI82
asg31
Vhttp://www.filingsanalysis.com/managers.php?id=0001105838
p94
sg33
Vfilingsanalysis.com/managers.php?i\u2026
p95
sassVin_reply_to_screen_name
p96
Nsg58
V666396715390541830
p97
sVretweet_count
p98
I0
sVin_reply_to_user_id
p99
NsVfavorited
p100
I00
sVgeo
p101
NsVin_reply_to_user_id_str
p102
NsVpossibly_sensitive
p103
I00
sVlang
p104
Vsk
p105
sVcreated_at
p106
VMon Nov 16 23:25:32 +0000 2015
p107
sVin_reply_to_status_id_str
p108
NsVplace
p109
NssVis_translation_enabled
p110
I00
sVutc_offset
p111
NsVstatuses_count
p112
I21181
sg35
VWe parse and analyze SEC 13F filings and provide users a way to easily view managers, securities, and their similarities.
p113
sVfriends_count
p114
I163
sVlocation
p115
V
p116
sVprofile_link_color
p117
V0084B4
p118
sVprofile_image_url
p119
Vhttp://pbs.twimg.com/profile_images/3149833734/9dab0d9f109d09a6e9b334ab6326f4c2_normal.jpeg
p120
sVfollowing
p121
NsVgeo_enabled
p122
I00
sVprofile_banner_url
p123
Vhttps://pbs.twimg.com/profile_banners/1109468634/1358790318
p124
sVprofile_background_image_url
p125
Vhttp://abs.twimg.com/images/themes/theme1/bg.png
p126
sVscreen_name
p127
VFilingsAnalysis
p128
sg104
Ven
p129
sVprofile_background_tile
p130
I00
sVfavourites_count
p131
I0
sVname
p132
VFilingsAnalysis
p133
sVnotifications
p134
Nsg23
Vhttp://t.co/X8VaQVPn
p135
sg106
VMon Jan 21 16:39:53 +0000 2013
p136
sVcontributors_enabled
p137
I00
sVtime_zone
p138
NsVprotected
p139
I00
sVdefault_profile
p140
I01
sVis_translator
p141
I00
ssS'contributors_enabled'
p142
I00
sS'profile_text_color'
p143
g51
sS'followers_count'
p144
I288
sS'profile_sidebar_border_color'
p145
g57
sS'id_str'
p146
g59
sS'default_profile_image'
p147
I00
sS'listed_count'
p148
I24
sS'status'
p149
g8
(ctweepy.models
Status
p150
g10
Ntp151
Rp152
(dp153
S'favorited'
p154
I00
sS'contributors'
p155
NsS'truncated'
p156
I00
sS'text'
p157
g68
sS'source_url'
p158
Vhttp://www.filingsanalysis.com
p159
sS'possibly_sensitive'
p160
I00
sS'in_reply_to_status_id'
p161
NsS'geo'
p162
Nsg19
L666396715390541830L
sS'favorite_count'
p163
I0
sS'lang'
p164
g105
sg21
g75
sS'created_at'
p165
cdatetime
datetime
p166
(S'\x07\xdf\x0b\x10\x17\x19 \x00\x00\x00'
p167
tp168
Rp169
sg40
g64
sS'coordinates'
p170
NsS'in_reply_to_user_id_str'
p171
NsS'source'
p172
VFilings Analysis
p173
sS'in_reply_to_status_id_str'
p174
NsS'in_reply_to_screen_name'
p175
Nsg146
g97
sS'retweeted'
p176
I00
sS'place'
p177
NsS'retweet_count'
p178
I0
sS'in_reply_to_user_id'
p179
NsbsS'is_translation_enabled'
p180
I00
sS'utc_offset'
p181
NsS'statuses_count'
p182
I21181
sS'description'
p183
g113
sS'friends_count'
p184
I163
sS'location'
p185
g116
sS'profile_link_color'
p186
g118
sS'profile_image_url'
p187
g120
sS'notifications'
p188
NsS'geo_enabled'
p189
I00
sS'profile_background_color'
p190
g61
sS'profile_banner_url'
p191
g124
sS'profile_background_image_url'
p192
g126
sS'screen_name'
p193
g128
sg164
g129
sg1
I00
sS'profile_background_tile'
p194
I00
sS'favourites_count'
p195
I0
sS'name'
p196
g133
sS'url'
p197
g135
sg165
g166
(S"\x07\xdd\x01\x15\x10'5\x00\x00\x00"
p198
tp199
Rp200
sS'profile_background_image_url_https'
p201
g48
sS'time_zone'
p202
NsS'protected'
p203
I00
sS'default_profile'
p204
I01
sS'is_translator'
p205
I00
sbs.