(dp0
S'following'
p1
(lp2
(lp3
I425402956
aI377773501
aI20678850
aL3018699204L
aL3018804103L
aI1724405875
aI1711239283
aL2690637547L
aL2946450412L
aI227312102
aL3035804476L
aI112872946
aI305221233
aL3290364847L
aI923263237
aL2482407307L
aI735536305
aL2494896473L
aI1055551057
aI206372778
aI277191527
aI88090593
aI525579713
aI287532397
aI416311594
aI1177065859
aI243795494
aI275328937
aI245581702
aI119615628
aL2567518027L
aI1604802008
aI19419395
aI56121651
aI602321455
aI289311242
aI61342056
aI28943421
aI55561590
aI198941291
aI243801041
aI190337035
aL2154631964L
aI233364902
aI31484145
aI262365030
aI40156330
aI449681624
aI67066114
aL3426014292L
aI166816694
aI1091770208
aI1017360962
aL2274875012L
aL2564014766L
aL2344420430L
aI26775476
aI40099128
aL3314956698L
aI879161563
aI295221061
aI7243252
aL3166329193L
aI998059640
aI137322271
aI820379341
aI348772885
aI97530284
aI23892927
aI22867489
aI1132786314
aI160625399
aI714790766
aI434681699
aI376154503
aI17695167
aI47247213
aI15563814
aI16246929
aL2227519598L
aI884935388
aI15496407
aI888903264
aI31546412
aL3142088601L
aI245069853
aI188884701
aI108021761
aI432992338
aI473451684
aI293618490
aI209907837
aL2178857768L
aI446784969
aL2272207286L
aI197004838
aI203332110
aI21674530
aI296924721
aI391492257
aI433664446
aI1032288734
aI23751864
aI169489285
aI93913891
aI1498350660
aI314061974
aI559118898
aI733086954
aI405681948
aI247788883
aI152634265
aI785935140
aI72442349
aL2744869459L
aI28489821
aI30820266
aI24408359
aI1048879194
aI770904320
aI206277247
aI229966745
aI255996385
aI104034095
aI820031509
aI467796546
aI575796665
aI86640232
aI82162291
aI27162339
aI1616185404
aL2278259810L
aI1433652877
aI1265726480
aI64801005
aI210862918
aI1228537610
aI103011458
aI863003467
aI182828968
aI148001265
aI744650100
aI1267775677
aI873399943
aI19564105
aL2674382460L
aI1704701516
aI132173493
aI41458395
aI103883488
aI427877977
aI24147760
aI16629477
aI380500399
aI86125016
aI71372467
aI442298073
aI30217291
aI19717430
aI62871181
aI1330741110
aI274233761
aI43475268
aI73774967
aI168186079
aI47678782
aI1001726569
aI49637104
aI49883265
aI632341632
aI102754598
aI102094857
aI50753411
aI194343133
aI44438256
aI16017475
aI16193578
aI161372707
aI229246832
aI87255753
aI1717291
aI86626845
aI15727738
aasS'followers'
p4
(lp5
(lp6
I193756258
aI627765164
aI233491567
aL3120145617L
aL3509200096L
aL3242158281L
aL3083788462L
aL3727141093L
aL3581208917L
aL3034687258L
aI42912883
aI29781852
aL3035804476L
aL2312928782L
aI361602357
aI405141209
aI95696162
aL3545684907L
aL2486728992L
aI100767876
aI713866729
aI21155531
aI287532397
aI348772885
aI289311242
aL2677963314L
aI25748642
aL2721717048L
aI31484145
aI879161563
aL3234464040L
aI424258567
aI250317700
aI51932290
aI15496407
aI994257902
aI446784969
aI380500399
aI971129101
aL2986162709L
aI707464219
aI17480298
aL3164498274L
aI28489821
aI1048879194
aL2341525668L
aL2801104355L
aL2815979137L
aI1529271854
aI611817117
aI262684838
aL3130435955L
aL3086204338L
aL2548136947L
aL2315376242L
aL2653695734L
aI314061974
aI619421644
aI247788883
aL2922234899L
aL2487957738L
aI35835676
aL2844688340L
aL2917238896L
aL2950318940L
aL2902235927L
aI546908700
aL2608766300L
aI280462014
aI602519478
aI1109490944
aI1704701516
aL2346950491L
aI230180728
aI137322271
aI1633631874
aI16519380
aL2411172127L
aI1289812100
aI89283544
aI225387949
aI105530526
aI342473560
aI244526641
aI288764707
aI245581702
aI487873428
aI393858736
aI611910040
aI531745614
aI32122432
aL2260956925L
aI237732607
aI26072461
aI19010961
aI1032288734
aI15173603
aI355700763
aI27136797
aI211316225
aI546118553
aI128592428
aI632341632
aI1227859237
aI1436185118
aI229246832
aI30820266
aI556557205
aL2320970532L
aI30217291
aL2330527682L
aL2265038293L
aI15172980
aI44986993
aI15860016
aI18089164
aI1400945995
aL2223552085L
aL2152866589L
aI1001726569
aL2162862396L
aI191166718
aI18757219
aI37268231
aI248263754
aI516598056
aI832353355
aI14579415
aI451785230
aI451231395
aI377577675
aI29051638
aI145378129
aI162694737
aI439167744
aI18006863
aI112818407
aI413756911
aI231287175
aI14685025
aI329490564
aI211329040
aI173703849
aI298389074
aI9810192
aI94465962
aI120266797
aI130690697
aI295793346
aI282608781
aI297176037
aI224416709
aI173893461
aI173760163
aI7315022
aI15727738
aI119905745
aI243914898
aI27818395
aI49971783
aI17445752
aI259687604
aI238713324
aI43947282
aI242461049
aI242905001
aI28843686
aI22256645
aI49390674
aI69485308
aI14470012
aI52816029
aI210704927
aI18095704
aI15934814
aI21174149
aI15202971
aI169554577
aI33957333
aI104979397
aI31839038
aI148719760
aI146105989
aI21811585
aI123035510
aI110290136
aI109390441
aI135737758
aI110171947
aI110677436
aI108512758
aI105182896
aI110685799
aI111406298
aI105232816
aI103281476
aI104064314
aI104257895
aI108049422
aI109674379
aI113872130
aI108925310
aI109074803
aI91826892
aI123952921
aI65820447
aI103815087
aasS'obj'
p7
ccopy_reg
_reconstructor
p8
(ctweepy.models
User
p9
c__builtin__
object
p10
Ntp11
Rp12
(dp13
S'follow_request_sent'
p14
NsS'has_extended_profile'
p15
I00
sS'profile_use_background_image'
p16
I01
sS'profile_sidebar_fill_color'
p17
V695652
p18
sS'id'
p19
I118276057
sS'verified'
p20
I00
sS'entities'
p21
(dp22
Vdescription
p23
(dp24
Vurls
p25
(lp26
sssS'profile_image_url_https'
p27
Vhttps://pbs.twimg.com/profile_images/378800000849877130/612781c2f036f72c8e11c69185f5cc91_normal.jpeg
p28
sS'_json'
p29
(dp30
Vfollow_request_sent
p31
NsVhas_extended_profile
p32
I00
sVprofile_use_background_image
p33
I01
sVdefault_profile_image
p34
I00
sVid
p35
I118276057
sVprofile_background_image_url_https
p36
Vhttps://pbs.twimg.com/profile_background_images/239656045/x9c7340c34209d07aac05d4270880f10.png
p37
sVverified
p38
I00
sVprofile_text_color
p39
V959A84
p40
sVprofile_image_url_https
p41
g28
sVprofile_sidebar_fill_color
p42
g18
sVentities
p43
g22
sVfollowers_count
p44
I207
sVprofile_sidebar_border_color
p45
V53363A
p46
sVid_str
p47
V118276057
p48
sVprofile_background_color
p49
VA2AE96
p50
sVlisted_count
p51
I50
sVstatus
p52
(dp53
Vcontributors
p54
NsVtruncated
p55
I00
sVtext
p56
VRT @WhiteCoatMafia: Good to see marketing is going strong. $RLYP $ZSPH https://t.co/2OXqiK1DYa
p57
sVin_reply_to_status_id
p58
Nsg35
L666145006105726976L
sVfavorite_count
p59
I0
sVsource
p60
V<a href="http://twitter.com/download/iphone" rel="nofollow">Twitter for iPhone</a>
p61
sVretweeted
p62
I00
sVcoordinates
p63
Nsg43
(dp64
Vsymbols
p65
(lp66
(dp67
Vindices
p68
(lp69
I59
aI64
asg56
VRLYP
p70
sa(dp71
g68
(lp72
I65
aI70
asg56
VZSPH
p73
sasVuser_mentions
p74
(lp75
(dp76
g35
L2690637547L
sg68
(lp77
I3
aI18
asg47
V2690637547
p78
sVscreen_name
p79
VWhiteCoatMafia
p80
sVname
p81
VWhiteCoatMafia
p82
sasVhashtags
p83
(lp84
sg25
(lp85
sVmedia
p86
(lp87
(dp88
Vsource_user_id
p89
L2690637547L
sVsource_status_id_str
p90
V666073626886586368
p91
sVexpanded_url
p92
Vhttp://twitter.com/WhiteCoatMafia/status/666073626886586368/photo/1
p93
sVdisplay_url
p94
Vpic.twitter.com/2OXqiK1DYa
p95
sVurl
p96
Vhttps://t.co/2OXqiK1DYa
p97
sVmedia_url_https
p98
Vhttps://pbs.twimg.com/media/CT5ebesUYAI7gAh.jpg
p99
sVsource_user_id_str
p100
V2690637547
p101
sVsource_status_id
p102
L666073626886586368L
sg47
V666073621085839362
p103
sVsizes
p104
(dp105
Vsmall
p106
(dp107
Vh
p108
I605
sVresize
p109
Vfit
p110
sVw
p111
I340
ssVlarge
p112
(dp113
g108
I1024
sg109
Vfit
p114
sg111
I575
ssVmedium
p115
(dp116
g108
I1024
sg109
Vfit
p117
sg111
I575
ssVthumb
p118
(dp119
g108
I150
sg109
Vcrop
p120
sg111
I150
sssg68
(lp121
I71
aI94
asVtype
p122
Vphoto
p123
sg35
L666073621085839362L
sVmedia_url
p124
Vhttp://pbs.twimg.com/media/CT5ebesUYAI7gAh.jpg
p125
sassVin_reply_to_screen_name
p126
Nsg47
V666145006105726976
p127
sVretweet_count
p128
I19
sVin_reply_to_user_id
p129
NsVfavorited
p130
I00
sVretweeted_status
p131
(dp132
g54
Nsg55
I00
sg56
VGood to see marketing is going strong. $RLYP $ZSPH https://t.co/2OXqiK1DYa
p133
sg58
Nsg35
L666073626886586368L
sg59
I32
sg60
V<a href="http://twitter.com/download/iphone" rel="nofollow">Twitter for iPhone</a>
p134
sg62
I00
sg63
Nsg43
(dp135
g65
(lp136
(dp137
g68
(lp138
I39
aI44
asg56
VRLYP
p139
sa(dp140
g68
(lp141
I45
aI50
asg56
VZSPH
p142
sasg74
(lp143
sg83
(lp144
sg25
(lp145
sg86
(lp146
(dp147
g92
Vhttp://twitter.com/WhiteCoatMafia/status/666073626886586368/photo/1
p148
sg94
Vpic.twitter.com/2OXqiK1DYa
p149
sg96
Vhttps://t.co/2OXqiK1DYa
p150
sg98
Vhttps://pbs.twimg.com/media/CT5ebesUYAI7gAh.jpg
p151
sg47
V666073621085839362
p152
sg104
(dp153
g106
(dp154
g108
I605
sg109
Vfit
p155
sg111
I340
ssg112
(dp156
g108
I1024
sg109
Vfit
p157
sg111
I575
ssg115
(dp158
g108
I1024
sg109
Vfit
p159
sg111
I575
ssg118
(dp160
g108
I150
sg109
Vcrop
p161
sg111
I150
sssg68
(lp162
I51
aI74
asg122
Vphoto
p163
sg35
L666073621085839362L
sg124
Vhttp://pbs.twimg.com/media/CT5ebesUYAI7gAh.jpg
p164
sassg126
Nsg47
V666073626886586368
p165
sg128
I19
sg129
Nsg130
I00
sVgeo
p166
NsVin_reply_to_user_id_str
p167
NsVpossibly_sensitive
p168
I00
sVlang
p169
Ven
p170
sVcreated_at
p171
VMon Nov 16 02:01:42 +0000 2015
p172
sVin_reply_to_status_id_str
p173
NsVplace
p174
Nssg166
Nsg167
Nsg168
I00
sg169
Ven
p175
sg171
VMon Nov 16 06:45:20 +0000 2015
p176
sg173
Nsg174
NssVis_translation_enabled
p177
I00
sVutc_offset
p178
I-32400
sVstatuses_count
p179
I6089
sg23
VPrecision Medicine | Immunoengineering | Machine Learning | Opinions are my own
p180
sVfriends_count
p181
I183
sVlocation
p182
V
p183
sVprofile_link_color
p184
V847C65
p185
sVprofile_image_url
p186
Vhttp://pbs.twimg.com/profile_images/378800000849877130/612781c2f036f72c8e11c69185f5cc91_normal.jpeg
p187
sVfollowing
p188
NsVgeo_enabled
p189
I01
sVprofile_banner_url
p190
Vhttps://pbs.twimg.com/profile_banners/118276057/1440084671
p191
sVprofile_background_image_url
p192
Vhttp://pbs.twimg.com/profile_background_images/239656045/x9c7340c34209d07aac05d4270880f10.png
p193
sg79
VChar1eyLu
p194
sg169
Ven
p195
sVprofile_background_tile
p196
I01
sVfavourites_count
p197
I903
sg81
VCharley Lu
p198
sVnotifications
p199
Nsg96
Nsg171
VSun Feb 28 04:27:55 +0000 2010
p200
sVcontributors_enabled
p201
I00
sVtime_zone
p202
VAlaska
p203
sVprotected
p204
I00
sVdefault_profile
p205
I00
sVis_translator
p206
I00
ssS'contributors_enabled'
p207
I00
sS'profile_text_color'
p208
g40
sS'followers_count'
p209
I207
sS'profile_sidebar_border_color'
p210
g46
sS'id_str'
p211
g48
sS'default_profile_image'
p212
I00
sS'listed_count'
p213
I50
sS'status'
p214
g8
(ctweepy.models
Status
p215
g10
Ntp216
Rp217
(dp218
S'favorited'
p219
I00
sS'contributors'
p220
NsS'truncated'
p221
I00
sS'text'
p222
g57
sS'source_url'
p223
Vhttp://twitter.com/download/iphone
p224
sS'possibly_sensitive'
p225
I00
sS'in_reply_to_status_id'
p226
NsS'geo'
p227
Nsg19
L666145006105726976L
sS'favorite_count'
p228
I0
sS'lang'
p229
g175
sS'retweeted_status'
p230
g8
(g215
g10
Ntp231
Rp232
(dp233
g219
I00
sg220
Nsg221
I00
sg222
g133
sg223
Vhttp://twitter.com/download/iphone
p234
sg225
I00
sg226
Nsg227
Nsg19
L666073626886586368L
sg228
I32
sg229
g170
sg21
g135
sS'created_at'
p235
cdatetime
datetime
p236
(S'\x07\xdf\x0b\x10\x02\x01*\x00\x00\x00'
p237
tp238
Rp239
sg29
g132
sS'coordinates'
p240
NsS'in_reply_to_user_id_str'
p241
NsS'source'
p242
VTwitter for iPhone
p243
sS'in_reply_to_status_id_str'
p244
NsS'in_reply_to_screen_name'
p245
Nsg211
g165
sS'retweeted'
p246
I00
sS'place'
p247
NsS'retweet_count'
p248
I19
sS'in_reply_to_user_id'
p249
Nsbsg21
g64
sg235
g236
(S'\x07\xdf\x0b\x10\x06-\x14\x00\x00\x00'
p250
tp251
Rp252
sg29
g53
sg240
Nsg241
Nsg242
VTwitter for iPhone
p253
sg244
Nsg245
Nsg211
g127
sg246
I00
sg247
Nsg248
I19
sg249
NsbsS'is_translation_enabled'
p254
I00
sS'utc_offset'
p255
I-32400
sS'statuses_count'
p256
I6089
sS'description'
p257
g180
sS'friends_count'
p258
I183
sS'location'
p259
g183
sS'profile_link_color'
p260
g185
sS'profile_image_url'
p261
g187
sS'notifications'
p262
NsS'geo_enabled'
p263
I01
sS'profile_background_color'
p264
g50
sS'profile_banner_url'
p265
g191
sS'profile_background_image_url'
p266
g193
sS'screen_name'
p267
g194
sg229
g195
sg1
I00
sS'profile_background_tile'
p268
I01
sS'favourites_count'
p269
I903
sS'name'
p270
g198
sS'url'
p271
Nsg235
g236
(S'\x07\xda\x02\x1c\x04\x1b7\x00\x00\x00'
p272
tp273
Rp274
sS'profile_background_image_url_https'
p275
g37
sS'time_zone'
p276
g203
sS'protected'
p277
I00
sS'default_profile'
p278
I00
sS'is_translator'
p279
I00
sbs.