(dp0
S'following'
p1
(lp2
(lp3
I411034263
aI573356661
aL3044346069L
aI312653402
aL2712969680L
aI1209991820
aI493628381
aI285738285
aI61532027
aL3129807446L
aI1289436835
aI1289738107
aL2371952437L
aI318171818
aI1369919335
aL2388075426L
aL2347247707L
aI33972508
aI98522869
aI348048535
aI8524892
aI113390942
aI329173077
aL3064520638L
aL2882124578L
aI1316087911
aL2758506003L
aL2829395304L
aI100024370
aI267418268
aL2177224099L
aL2778611606L
aI43010876
aI247861990
aI18301946
aI138157120
aL2236826372L
aI14136886
aI820534716
aL2551194972L
aI198300183
aI319102548
aI22522178
aL2525906341L
aI34939208
aI163537857
aI93913891
aL2997788563L
aL2990428712L
aI154130614
aI1870273261
aI1275929029
aI1505034776
aL2830318542L
aI43162411
aI874438663
aI286654612
aI17437374
aI753817788
aL2482710715L
aI487089304
aL2345735136L
aI1375375806
aI902587116
aI8731732
aI1637794394
aI1300523630
aI412709297
aI254084962
aI1897110559
aL2291479358L
aL2224419450L
aI258625911
aI19111917
aI302349992
aI21328656
aI286774989
aI72612752
aI14886375
aI8287602
aI21792210
aL2208629701L
aI200896018
aI89225644
aI117112282
aI31984670
aI20381233
aI31480072
aI34379992
aI34273205
aI16439117
aI1833197341
aI1388891070
aI47539748
aI19546277
aI437060374
aI46706395
aI273294289
aI17513682
aI398063592
aI23059499
aI22869238
aI337762077
aI297629304
aI33792634
aI39264827
aI77304134
aI119372054
aI39853973
aI851544830
aI75567037
aI1563473748
aI106878438
aI302839642
aI384365460
aI1461820334
aI60642052
aI15533286
aI60350585
aI16955870
aI19790872
aI106498703
aI114782468
aI140912249
aI433530146
aI91418281
aI19407053
aI618558126
aI16896485
aI56810507
aI16399949
aI36545805
aI81195356
aI529614003
aI6735882
aI26819104
aI400524509
aI2735591
aI108021761
aI14514804
aI24410456
aI91478624
aI25053299
aI15905103
aI1134734101
aI25277152
aI36359651
aI72928001
aI89043072
aI44358989
aI20449296
aI314768563
aI18223590
aI18622869
aI30271982
aI19997064
aI16017475
aI22264891
aI17473062
aI28571999
aI14173032
aI596266521
aI20888115
aI26223938
aI15485461
aI41516710
aI139848857
aI885043004
aI15281391
aI14227196
aI178790083
aI23125257
aI18341423
aI229663274
aI28140646
aI11014272
aI15110357
aI22255654
aI15568127
aI624413
aI14216123
aI296594249
aasS'followers'
p4
(lp5
(lp6
L2821297174L
aL3188178780L
aL3241291391L
aI425944160
aI120672388
aL3090281978L
aI9838862
aL2516823012L
aL2662370076L
aI40300931
aI1012682347
aL2657429448L
aL3388556074L
aL3503272272L
aI958160354
aL2794521741L
aI142788514
aL2781050528L
aL3401010287L
aI1286540352
aL3315652524L
aI1633137108
aI376511761
aL3386043964L
aL2313776190L
aI152896258
aI1845191160
aI21718195
aI49909375
aL2153563979L
aL3309414893L
aL2165676145L
aI1529271854
aI44549904
aI15897179
aL2952070029L
aI1877135052
aL2950697476L
aL3020048952L
aL3129807446L
aL3130480607L
aL3073478049L
aL2872380631L
aI1925121408
aI98522869
aL3065083689L
aL3019790520L
aI1316087911
aL2758506003L
aI1621056008
aL2829395304L
aI14136886
aI287885364
aL2997788563L
aL2990428712L
aI1870273261
aL2512954062L
aI1275929029
aL2830318542L
aI572319265
aI874438663
aI611817117
aI753817788
aL2748517662L
aL2660301434L
aI487089304
aI402003512
aL2535215256L
aI169366816
aL2345735136L
aI1375375806
aI902587116
aI1637794394
aI8731732
aI412709297
aI60350585
aL2291479358L
aL2224419450L
aL2208629701L
aI306683205
aI18223590
aI46706395
aI1934799546
aI273294289
aI398063592
aI233958374
aI1563473748
aI384365460
aI302839642
aI1239802219
aI1461820334
aI433530146
aI618558126
aI81195356
aI529614003
aI15106394
aI714762186
aI259518089
aI400524509
aI1093261778
aI1134734101
aI25277152
aI1300523630
aI36545805
aI314768563
aI296594249
aI1280299766
aI596266521
aI139848857
aI229663274
aasS'obj'
p7
ccopy_reg
_reconstructor
p8
(ctweepy.models
User
p9
c__builtin__
object
p10
Ntp11
Rp12
(dp13
S'follow_request_sent'
p14
NsS'has_extended_profile'
p15
I00
sS'profile_use_background_image'
p16
I01
sS'profile_sidebar_fill_color'
p17
VDDEEF6
p18
sS'id'
p19
I1201107619
sS'verified'
p20
I00
sS'entities'
p21
(dp22
Vurl
p23
(dp24
Vurls
p25
(lp26
(dp27
g23
Vhttp://t.co/Wz9djgYDai
p28
sVindices
p29
(lp30
I0
aI22
asVexpanded_url
p31
Vhttp://www.mokrari.com
p32
sVdisplay_url
p33
Vmokrari.com
p34
sassVdescription
p35
(dp36
g25
(lp37
sssS'profile_image_url_https'
p38
Vhttps://pbs.twimg.com/profile_images/3498759038/c00f740ae43a7aa5eaee72e1f2237515_normal.jpeg
p39
sS'_json'
p40
(dp41
Vfollow_request_sent
p42
NsVhas_extended_profile
p43
I00
sVprofile_use_background_image
p44
I01
sVdefault_profile_image
p45
I00
sVid
p46
I1201107619
sVprofile_background_image_url_https
p47
Vhttps://abs.twimg.com/images/themes/theme1/bg.png
p48
sVverified
p49
I00
sVprofile_text_color
p50
V333333
p51
sVprofile_image_url_https
p52
g39
sVprofile_sidebar_fill_color
p53
g18
sVentities
p54
g22
sVfollowers_count
p55
I110
sVprofile_sidebar_border_color
p56
VC0DEED
p57
sVid_str
p58
V1201107619
p59
sVprofile_background_color
p60
VC0DEED
p61
sVlisted_count
p62
I12
sVstatus
p63
(dp64
Vlang
p65
Ven
p66
sVfavorited
p67
I00
sg54
(dp68
Vsymbols
p69
(lp70
(dp71
g29
(lp72
I36
aI41
asVtext
p73
VSPNC
p74
sa(dp75
g29
(lp76
I42
aI47
asg73
VCTRL
p77
sa(dp78
g29
(lp79
I48
aI53
asg73
VHBIO
p80
sa(dp81
g29
(lp82
I54
aI59
asg73
VBBOX
p83
sa(dp84
g29
(lp85
I60
aI65
asg73
VAGYS
p86
sasVuser_mentions
p87
(lp88
sVhashtags
p89
(lp90
sg25
(lp91
ssVcontributors
p92
NsVtruncated
p93
I00
sg73
VWorst underperformers ranked 95-100 $SPNC $CTRL $HBIO $BBOX $AGYS
p94
sVcreated_at
p95
VSun Nov 15 23:11:35 +0000 2015
p96
sVretweeted
p97
I00
sVin_reply_to_status_id_str
p98
NsVcoordinates
p99
NsVin_reply_to_user_id_str
p100
NsVsource
p101
V<a href="http://www.mokrari.com" rel="nofollow">mokrari short-term predictor</a>
p102
sVin_reply_to_status_id
p103
NsVin_reply_to_screen_name
p104
Nsg58
V666030817093754880
p105
sVplace
p106
NsVretweet_count
p107
I0
sVgeo
p108
Nsg46
L666030817093754880L
sVfavorite_count
p109
I0
sVin_reply_to_user_id
p110
NssVis_translation_enabled
p111
I00
sVutc_offset
p112
I-18000
sVstatuses_count
p113
I8574
sg35
VTweet daily top rated near-term market out-, and underperformers using machine learning models built on decades of financial stmts and complete price history.
p114
sVfriends_count
p115
I182
sVlocation
p116
V
p117
sVprofile_link_color
p118
V0084B4
p119
sVprofile_image_url
p120
Vhttp://pbs.twimg.com/profile_images/3498759038/c00f740ae43a7aa5eaee72e1f2237515_normal.jpeg
p121
sVfollowing
p122
NsVgeo_enabled
p123
I00
sVprofile_banner_url
p124
Vhttps://pbs.twimg.com/profile_banners/1201107619/1385126030
p125
sVprofile_background_image_url
p126
Vhttp://abs.twimg.com/images/themes/theme1/bg.png
p127
sVscreen_name
p128
Vmokrari
p129
sg65
Ven
p130
sVprofile_background_tile
p131
I00
sVfavourites_count
p132
I159
sVname
p133
Vmokrari by @edi_bice
p134
sVnotifications
p135
Nsg23
Vhttp://t.co/Wz9djgYDai
p136
sg95
VWed Feb 20 13:46:31 +0000 2013
p137
sVcontributors_enabled
p138
I00
sVtime_zone
p139
VEastern Time (US & Canada)
p140
sVprotected
p141
I00
sVdefault_profile
p142
I01
sVis_translator
p143
I00
ssS'contributors_enabled'
p144
I00
sS'profile_text_color'
p145
g51
sS'followers_count'
p146
I110
sS'profile_sidebar_border_color'
p147
g57
sS'id_str'
p148
g59
sS'default_profile_image'
p149
I00
sS'listed_count'
p150
I12
sS'status'
p151
g8
(ctweepy.models
Status
p152
g10
Ntp153
Rp154
(dp155
S'favorited'
p156
I00
sS'contributors'
p157
NsS'truncated'
p158
I00
sS'text'
p159
g94
sS'source_url'
p160
Vhttp://www.mokrari.com
p161
sS'in_reply_to_status_id'
p162
NsS'geo'
p163
Nsg19
L666030817093754880L
sS'favorite_count'
p164
I0
sS'lang'
p165
g66
sg21
g68
sS'created_at'
p166
cdatetime
datetime
p167
(S'\x07\xdf\x0b\x0f\x17\x0b#\x00\x00\x00'
p168
tp169
Rp170
sg40
g64
sS'coordinates'
p171
NsS'in_reply_to_user_id_str'
p172
NsS'source'
p173
Vmokrari short-term predictor
p174
sS'in_reply_to_status_id_str'
p175
NsS'in_reply_to_screen_name'
p176
Nsg148
g105
sS'retweeted'
p177
I00
sS'place'
p178
NsS'retweet_count'
p179
I0
sS'in_reply_to_user_id'
p180
NsbsS'is_translation_enabled'
p181
I00
sS'utc_offset'
p182
I-18000
sS'statuses_count'
p183
I8574
sS'description'
p184
g114
sS'friends_count'
p185
I182
sS'location'
p186
g117
sS'profile_link_color'
p187
g119
sS'profile_image_url'
p188
g121
sS'notifications'
p189
NsS'geo_enabled'
p190
I00
sS'profile_background_color'
p191
g61
sS'profile_banner_url'
p192
g125
sS'profile_background_image_url'
p193
g127
sS'screen_name'
p194
g129
sg165
g130
sg1
I00
sS'profile_background_tile'
p195
I00
sS'favourites_count'
p196
I159
sS'name'
p197
g134
sS'url'
p198
g136
sg166
g167
(S'\x07\xdd\x02\x14\r.\x1f\x00\x00\x00'
p199
tp200
Rp201
sS'profile_background_image_url_https'
p202
g48
sS'time_zone'
p203
g140
sS'protected'
p204
I00
sS'default_profile'
p205
I01
sS'is_translator'
p206
I00
sbs.