(dp0
S'following'
p1
(lp2
(lp3
L2711726433L
aL2806975422L
aI217553145
aI35961333
aI407529084
aL2495688343L
aL2311721886L
aL2816003964L
aI1050059462
aI608630427
aL2309643170L
aL2800874294L
aI26062151
aI396978333
aL2361824930L
aL2690413542L
aL2681535679L
aI385108265
aI1219301940
aI993389790
aI994392451
aI14947552
aI17815591
aI18571332
aI84365116
aI192533447
aI105353526
aI15391371
aI19739279
aI231742859
aI414093082
aI17093617
aI16359602
aI38053161
aI39604545
aI72907355
aI17797942
aI503945728
aI462814263
aI18052886
aI14886375
aI15407387
aI307061438
aI18734076
aI14813320
aI21328656
aI56822029
aI247857712
aI123559156
aI7520262
aI224167228
aI14250809
aI246244576
aI7517052
aI42206892
aI27771267
aI15246621
aasS'followers'
p4
(lp5
(lp6
L2920720174L
aL3410575617L
aI9555372
aI1924312855
aL4077721821L
aI323811966
aL2954665031L
aL3417548657L
aL2682483841L
aI17598825
aL4132750115L
aI46691793
aI1673276558
aI708455184
aI1924310023
aI1564728330
aI18578905
aL3063301232L
aL2955910459L
aI1919797992
aL3186964358L
aL3947270356L
aL3947413216L
aL2314289604L
aL2208033780L
aL2921103852L
aL3191031566L
aL3993499032L
aI615262903
aI981236256
aI1631929976
aI13756642
aI14153106
aL3184243812L
aL3544162515L
aL3818864361L
aL2662370076L
aL3732886635L
aI1169469103
aI1692717212
aL3763030214L
aL2178628141L
aI376511761
aL2238098118L
aL3753992116L
aI2326781
aL3414138322L
aL3246162836L
aI611990443
aL3340533193L
aI120672388
aL3135287931L
aI605138580
aI56532650
aL3353217459L
aL3523307477L
aL3362388111L
aI29269060
aI303302947
aI1581268584
aL3311888438L
aI278623042
aL3461031256L
aI109163571
aI538065716
aL3396360139L
aL3487606421L
aI134855419
aI842567826
aL2507991025L
aI409599785
aI28862779
aI993282182
aI240104698
aL2816003964L
aL3237921639L
aI192427210
aI238116523
aI161855898
aL2490905178L
aL3135660532L
aI259525645
aL3303538631L
aL2468560187L
aI561467949
aL2809004554L
aL3237170616L
aI328052511
aI166251586
aL3152920558L
aI1640477094
aI334064086
aL2929743297L
aL2346547340L
aL3041076973L
aL3075775982L
aI50527485
aI492248877
aL3160202904L
aL2997607710L
aI838608722
aI1898755370
aL3183109960L
aL2178218272L
aI386249288
aI370389754
aL2392010497L
aI277844610
aI229127401
aI1136681167
aL2298346465L
aL3017902751L
aI1048907563
aI255096317
aL3027280385L
aI472102487
aI1080957824
aI605735945
aI492671190
aI47997472
aI178900268
aL2792156589L
aL3047367738L
aL2809803294L
aI22626103
aI11792122
aI1275871370
aI1734104191
aI276239778
aI23642728
aI1389203360
aL2794397342L
aI277436504
aI492125496
aI19815846
aI7848952
aL3017196771L
aI19616952
aL2922115476L
aI16980340
aI731285546
aL3001722083L
aI72206194
aL2982013384L
aI278020842
aL2973705610L
aI362805905
aI256655617
aL2967077105L
aL2949842549L
aL2918492597L
aL2936805639L
aI42419334
aI1905343417
aI197282701
aL2587913347L
aI230835848
aL2910363828L
aL2900897631L
aI1049226456
aI197934198
aI1025089592
aL2596288916L
aI1467804924
aL2546022091L
aI1699551560
aI182364038
aL2540903480L
aI472610515
aI550760401
aI142771047
aI291791298
aI1925346716
aL2620699980L
aL2459517973L
aI274218971
aL2832062158L
aI170712229
aL2822973875L
aL2828917476L
aI1447296895
aI124850063
aI477600304
aI784808251
aI555461872
aL2408319202L
aL2816209458L
aI475806016
aL2800874294L
aI92607579
aL2309643170L
aL2311721886L
aI408131743
aI35961333
aI217553145
aL2806975422L
aI535388763
aL2761332396L
aI1260229424
aL2751266358L
aI1473549170
aI434574997
aI710634130
aL2607575558L
aI41276816
aI273763469
aL2766617696L
aI503818957
aI312915517
aI27331017
aI21721562
aL2454124364L
aL2740172562L
aI257110097
aI401898139
aI43434821
aI70806831
aI385108265
aL2681535679L
aL2690413542L
aL2667510486L
aI304984268
aL2711999458L
aI281816215
aI274247641
aI55821927
aL2651484800L
aI1332242707
aI193437505
aL2249751139L
aI466722142
aI342156110
aI294293035
aI366856552
aI475437849
aI251205129
aL2611821343L
aI91321449
aI187976081
aI247001645
aI279570844
aI55091965
aL2235235531L
aL2175270596L
aI82329236
aI104611058
aI1265289344
aI499012244
aI55983576
aL2230791338L
aI467594742
aL2501487170L
aI75930970
aI17968587
aI14121270
aI26788389
aI398698365
aI118150776
aI187649000
aI37774672
aI384717221
aI52137117
aI1109656447
aI295505942
aI441964818
aI16930080
aL2211055410L
aI146639669
aL2281642087L
aI1138957981
aI1400689573
aI275263750
aI38665773
aL2492752866L
aL2480265584L
aI1726270730
aI46726917
aI183515361
aL2468010452L
aI1349607438
aI293129222
aI191160473
aI19235029
aI413914460
aI1465323240
aI260576094
aI1455749569
aI189833080
aI1851779996
aI242463829
aI401171990
aI721062118
aL2474741476L
aI493752048
aI615322477
aI18407512
aI125187717
aI24818270
aI1149954571
aI187227918
aI205802040
aI124408254
aL2419459981L
aI396929465
aL2374592384L
aL2407494007L
aI1046462221
aL2203688894L
aI1950505789
aI206373554
aI101819767
aI136405120
aI31832608
aI1615812799
aI122868476
aI474480658
aI559940893
aL2367688207L
aI456647812
aI1322751546
aI242799270
aI1580301864
aL2374329048L
aL2163370130L
aI529433400
aL2362339322L
aI1281088674
aI727527038
aI1150969206
aL2366440854L
aL2365941896L
aL2305809769L
aI87855228
aI236803330
aL2300066043L
aI437180798
aL2347174759L
aL2339289103L
aI427064702
aI59957611
aI767829331
aI1633051956
aL2282402046L
aI127383291
aI34724659
aI75079820
aI79231096
aI1327618064
aI628635025
aI987905618
aL2324921240L
aI165303667
aI14528296
aI1963119565
aL2198352780L
aI247061808
aI1110435644
aI28890143
aI21888936
aI369162851
aI1364402390
aI465048419
aI25356871
aI53859143
aI154751866
aI1385191992
aI180975419
aI870402247
aI47561015
aI14027332
aI138584332
aI302586342
aI17515683
aI62804525
aI280309937
aI375386878
aI1392299858
aL2291477556L
aI230339199
aI273790989
aI190534362
aI1955354786
aI401632581
aI495105224
aI276178830
aI437038817
aI606149810
aI42682642
aI1013444550
aI1624588772
aI1110158821
aI225071408
aI554814642
aI20393518
aI233222955
aI126731503
aI360296632
aI342473560
aL2155201019L
aI359469605
aI465948687
aI266045703
aI22997553
aI384672360
aI1146208928
aI70529911
aI17719253
aI405159544
aI349246422
aI14128412
aI24514106
aI188566030
aI223158753
aL2197885489L
aI1226357095
aI1092123733
aI88249043
aI40901186
aI22867489
aI152881832
aI21163332
aI317781191
aI371250950
aI487089617
aL2243075472L
aI23716458
aI23122923
aI19582102
aI137801522
aI861168080
aI29137645
aI365212839
aI1937858028
aI429874309
aI949819963
aI65783344
aI29596194
aI1263288692
aI19064898
aI306934963
aI1334373031
aL2209028539L
aI66596444
aI408082009
aI285881797
aI1481499571
aL2181127814L
aI203621245
aI43950136
aI433968701
aL2190435667L
aI129353374
aL2176236061L
aL2165191669L
aI93040876
aI110447519
aL2180641603L
aI23871647
aI251647377
aI22418930
aI34578922
aI26476431
aI32527206
aI558086465
aI47744149
aI709362858
aI1232341356
aI342455473
aI348494802
aI615329833
aI945620994
aI910731325
aL2149038517L
aI171861877
aI1908475034
aI730349017
aI27219544
aI23611160
aI1031287261
aI1461321319
aI74777221
aI1849076491
aI289025889
aI153471042
aI16829047
aI267601407
aI904968246
aI1037172816
aI21968787
aI266771927
aI237295240
aI1941635498
aI1403335682
aI1596786836
aI853959488
aI995470718
aI440683973
aI1944338888
aI188509128
aI618453948
aI1942642550
aI475464885
aI1919173640
aI18727440
aI18616128
aI1463017146
aI1104198650
aI1096782986
aI1029772075
aI1259520480
aI1861110080
aI225060059
aI1611627384
aI34953921
aI1919535588
aI17074470
aI143293807
aI1129900796
aI1284545454
aI1219301940
aI1106979649
aI1106975144
aI1120796388
aI1103872381
aI1027578888
aI1027596547
aI1260462205
aI1260460087
aI1260442400
aI1260397050
aI607015559
aI541300762
aI22707237
aI1287244856
aI738612962
aI278577740
aI27291225
aI1597172502
aI360196717
aI1691944716
aI56988987
aI815557542
aI705540042
aI211316225
aI1634380945
aI453331412
aI528862584
aI1658718762
aI1177673100
aI26348559
aI944404885
aI14228535
aI1858114430
aI20235301
aI1401335424
aI1649420834
aI846779454
aI577145439
aI350932984
aI1845191160
aI519762536
aI49510850
aI1410801090
aI241037059
aI16316828
aI256191160
aI228838266
aI165434788
aI1717153334
aI731643894
aI83816037
aI400855481
aI1714110888
aI1713349002
aI862307424
aI1706360694
aI287532397
aI42568950
aI182976445
aI74104397
aI612764226
aI485401507
aI1455442544
aI169551147
aI1683795241
aI121529738
aI342468793
aI437060374
aI40788821
aI495193521
aI272664696
aI306152842
aI38305321
aI41928830
aI389998573
aI164403280
aI1418570761
aI419975212
aI26021414
aI1601955332
aI270037521
aI1311455647
aI52183455
aI333062421
aI418789040
aI357722820
aI276560505
aI603923548
aI436780839
aI43746113
aI424430064
aI375873174
aI23433444
aI17449688
aI56107105
aI1635987432
aI52658734
aI1631750869
aI245294597
aI1584764552
aI1619205608
aI477199210
aI103423889
aI106725205
aI1160386730
aI471121755
aI180240854
aI1577269962
aI269030928
aI1468012454
aI305394281
aI1607236626
aI240362190
aI14858018
aI378327453
aI37677552
aI619645224
aI437601275
aI106086914
aI24606893
aI1581451256
aI1573647553
aI255830430
aI1549113522
aI75998188
aI1448698483
aI101588305
aI66975479
aI105406668
aI249246689
aI19409436
aI1522413073
aI97327863
aI1129577269
aI13518902
aI287727974
aI70452333
aI485061994
aI872242813
aI43147288
aI20187760
aI1534821614
aI147461200
aI989088871
aI89317418
aI809122560
aI79781117
aI725519012
aI366728112
aI248054224
aI1498924284
aI493527133
aI62536556
aI143856669
aI25828942
aI26333635
aI16851523
aI27942665
aI1379697510
aI47247213
aI97681307
aI126909844
aI19067959
aI162363693
aI284661273
aI333512950
aI38964988
aI1367982782
aI1016272682
aI1413172147
aI15834790
aI222098757
aI958564926
aI438866866
aI20427908
aI235959660
aI101612719
aI272740594
aI104284098
aI98432890
aI15014948
aI374098671
aI1344528985
aI18277525
aI804588912
aI1419097176
aI385138724
aI325391990
aI262396772
aI583123413
aI1190875200
aI236834561
aI322716781
aI1360344678
aI29028201
aI24461812
aI868780044
aI16252467
aI85407995
aI1376233632
aI1004634690
aI14725500
aI16975907
aI912895352
aI254775607
aI304206362
aI258653710
aI314281991
aI38044455
aI590374788
aI231334203
aI120685711
aI37587294
aI48132502
aI135209546
aI169338298
aI1268461093
aI1151467939
aI574696909
aI792774194
aI1303240640
aI370463430
aI571928144
aI33186913
aI445902563
aI1291620312
aI117088484
aI1092504572
aI71245449
aI85616008
aI17162201
aI18128325
aI146419280
aI1246070119
aI1237327542
aI313917139
aI1021169419
aI367410040
aI1246579490
aI313306889
aI344884809
aI10374422
aI70109753
aI1239888378
aI19304535
aI320365482
aI11128572
aI180403460
aI53514752
aI22006806
aI270447549
aI142270126
aI22695664
aI55354528
aI1087194962
aI1052211774
aI1059588349
aI318757839
aI1193034812
aI282667495
aI228578999
aI69187710
aI22022865
aI397269069
aI40300931
aI19010961
aI17549691
aI413121402
aI225030894
aI39520030
aI19433094
aI127712835
aI720022765
aI24585143
aI20868465
aI254240784
aI1050720030
aI16861385
aI945541014
aI65179465
aI8169842
aI943082713
aI19881733
aI1113234390
aI35288393
aI837144722
aI265760721
aI55561590
aI181709442
aI256794522
aI284546286
aI230488609
aI1084455799
aI975116011
aI176556327
aI57396966
aI300531959
aI49103604
aI1077166736
aI14166814
aI22180286
aI1083927577
aI141474883
aI873611449
aI41769211
aI1076583042
aI21154839
aI438008830
aI38008025
aI516142455
aI476038973
aI817389482
aI1072301490
aI322644802
aI45966700
aI339039253
aI195650587
aI277643790
aI24584022
aI28543976
aI504689141
aI18992010
aI542376402
aI18267073
aI105353526
aI296937040
aI956641345
aI415136807
aI887934744
aI878055745
aI231742859
aI965744359
aI17093617
aI103079809
aI38323035
aI28528141
aI284577062
aI522453772
aI27302473
aI170658209
aI421883816
aI231208825
aI550276601
aI809354412
aI10365002
aI312004959
aI61560150
aI21527610
aI98045315
aI30297854
aI17103585
aI762378800
aI732013838
aI371685389
aI126020555
aI16384948
aI277079077
aI592094689
aI179018482
aI587905276
aI255913846
aI553037412
aI181802465
aI233510504
aI534143114
aI52165527
aI489022370
aI529294038
aI11364202
aI462814263
aI503945728
aI28784541
aI148449363
aI491098386
aI57161843
aI262052745
aI393937490
aI463170853
aI207050697
aI257087742
aI84537759
aI414807599
aI305494705
aI107201950
aI95957696
aI22225944
aI424064827
aI210538773
aI137391312
aI73467825
aI20068700
aI414093082
aI408549048
aI407795089
aI106870257
aI307061438
aI40579488
aI70699553
aI18734076
aI378418532
aI238189960
aI15935591
aI353507864
aI343352680
aI207237965
aI14886375
aI203111528
aI276158402
aI26967725
aI282095199
aI246244576
aI14268071
aI25054108
aI143425479
aI42206892
aasS'obj'
p7
ccopy_reg
_reconstructor
p8
(ctweepy.models
User
p9
c__builtin__
object
p10
Ntp11
Rp12
(dp13
S'follow_request_sent'
p14
I00
sS'has_extended_profile'
p15
I00
sS'profile_use_background_image'
p16
I01
sS'profile_sidebar_fill_color'
p17
VDDEEF6
p18
sS'id'
p19
I121370906
sS'verified'
p20
I00
sS'entities'
p21
(dp22
Vurl
p23
(dp24
Vurls
p25
(lp26
(dp27
g23
Vhttp://t.co/a5AdiZaqe0
p28
sVindices
p29
(lp30
I0
aI22
asVexpanded_url
p31
Vhttp://www.chartmill.com
p32
sVdisplay_url
p33
Vchartmill.com
p34
sassVdescription
p35
(dp36
g25
(lp37
sssS'profile_image_url_https'
p38
Vhttps://pbs.twimg.com/profile_images/2548131451/c3lr9fmwmzx57kdclugi_normal.jpeg
p39
sS'_json'
p40
(dp41
Vfollow_request_sent
p42
I00
sVhas_extended_profile
p43
I00
sVprofile_use_background_image
p44
I01
sVdefault_profile_image
p45
I00
sVid
p46
I121370906
sVprofile_background_image_url_https
p47
Vhttps://abs.twimg.com/images/themes/theme1/bg.png
p48
sVverified
p49
I00
sVprofile_text_color
p50
V333333
p51
sVprofile_image_url_https
p52
g39
sVprofile_sidebar_fill_color
p53
g18
sVentities
p54
g22
sVfollowers_count
p55
I935
sVprofile_sidebar_border_color
p56
VC0DEED
p57
sVid_str
p58
V121370906
p59
sVprofile_background_color
p60
VC0DEED
p61
sVlisted_count
p62
I46
sVstatus
p63
(dp64
Vcontributors
p65
NsVtruncated
p66
I00
sVtext
p67
VChartMill https://t.co/pndAUXJVVK, where 2 start study
p68
sVin_reply_to_status_id
p69
Nsg46
L666382246241243137L
sVfavorite_count
p70
I0
sVsource
p71
V<a href="http://www.chartmill.com" rel="nofollow">www.chartmill.com</a>
p72
sVretweeted
p73
I00
sVcoordinates
p74
Nsg54
(dp75
Vsymbols
p76
(lp77
sVuser_mentions
p78
(lp79
sVhashtags
p80
(lp81
sg25
(lp82
(dp83
g23
Vhttps://t.co/pndAUXJVVK
p84
sg29
(lp85
I10
aI33
asg31
Vhttp://chartmill.com/documentation.php?a=catHowTo
p86
sg33
Vchartmill.com/documentation.\u2026
p87
sassVin_reply_to_screen_name
p88
Nsg58
V666382246241243137
p89
sVretweet_count
p90
I0
sVin_reply_to_user_id
p91
NsVfavorited
p92
I00
sVgeo
p93
NsVin_reply_to_user_id_str
p94
NsVpossibly_sensitive
p95
I00
sVlang
p96
Ven
p97
sVcreated_at
p98
VMon Nov 16 22:28:02 +0000 2015
p99
sVin_reply_to_status_id_str
p100
NsVplace
p101
NssVis_translation_enabled
p102
I00
sVutc_offset
p103
I3600
sVstatuses_count
p104
I20915
sg35
VChartMill makes advanced technical analysis tools and stock charts for US and European traders.
p105
sVfriends_count
p106
I57
sVlocation
p107
VBelgium
p108
sVprofile_link_color
p109
V0084B4
p110
sVprofile_image_url
p111
Vhttp://pbs.twimg.com/profile_images/2548131451/c3lr9fmwmzx57kdclugi_normal.jpeg
p112
sVfollowing
p113
I00
sVgeo_enabled
p114
I01
sVprofile_background_image_url
p115
Vhttp://abs.twimg.com/images/themes/theme1/bg.png
p116
sVscreen_name
p117
VChartMill
p118
sg96
Ven
p119
sVprofile_background_tile
p120
I00
sVfavourites_count
p121
I3
sVname
p122
VChartMill
p123
sVnotifications
p124
I00
sg23
Vhttp://t.co/a5AdiZaqe0
p125
sg98
VTue Mar 09 08:43:08 +0000 2010
p126
sVcontributors_enabled
p127
I00
sVtime_zone
p128
VBrussels
p129
sVprotected
p130
I00
sVdefault_profile
p131
I01
sVis_translator
p132
I00
ssS'contributors_enabled'
p133
I00
sS'profile_text_color'
p134
g51
sS'followers_count'
p135
I935
sS'profile_sidebar_border_color'
p136
g57
sS'id_str'
p137
g59
sS'default_profile_image'
p138
I00
sS'listed_count'
p139
I46
sS'status'
p140
g8
(ctweepy.models
Status
p141
g10
Ntp142
Rp143
(dp144
S'favorited'
p145
I00
sS'contributors'
p146
NsS'truncated'
p147
I00
sS'text'
p148
g68
sS'source_url'
p149
Vhttp://www.chartmill.com
p150
sS'possibly_sensitive'
p151
I00
sS'in_reply_to_status_id'
p152
NsS'geo'
p153
Nsg19
L666382246241243137L
sS'favorite_count'
p154
I0
sS'lang'
p155
g97
sg21
g75
sS'created_at'
p156
cdatetime
datetime
p157
(S'\x07\xdf\x0b\x10\x16\x1c\x02\x00\x00\x00'
p158
tp159
Rp160
sg40
g64
sS'coordinates'
p161
NsS'in_reply_to_user_id_str'
p162
NsS'source'
p163
Vwww.chartmill.com
p164
sS'in_reply_to_status_id_str'
p165
NsS'in_reply_to_screen_name'
p166
Nsg137
g89
sS'retweeted'
p167
I00
sS'place'
p168
NsS'retweet_count'
p169
I0
sS'in_reply_to_user_id'
p170
NsbsS'is_translation_enabled'
p171
I00
sS'utc_offset'
p172
I3600
sS'statuses_count'
p173
I20915
sS'description'
p174
g105
sS'friends_count'
p175
I57
sS'location'
p176
g108
sS'profile_link_color'
p177
g110
sS'profile_image_url'
p178
g112
sS'notifications'
p179
I00
sS'geo_enabled'
p180
I01
sS'profile_background_color'
p181
g61
sS'profile_background_image_url'
p182
g116
sS'screen_name'
p183
g118
sg155
g119
sg1
I00
sS'profile_background_tile'
p184
I00
sS'favourites_count'
p185
I3
sS'name'
p186
g123
sS'url'
p187
g125
sg156
g157
(S'\x07\xda\x03\t\x08+\x08\x00\x00\x00'
p188
tp189
Rp190
sS'profile_background_image_url_https'
p191
g48
sS'time_zone'
p192
g129
sS'protected'
p193
I00
sS'default_profile'
p194
I01
sS'is_translator'
p195
I00
sbs.