(dp0
S'following'
p1
(lp2
(lp3
I384941665
aI141612498
aI398985583
aI14442905
aI18090786
aI26141091
aI291759028
aI160625399
aL2353511190L
aI105186633
aI513259673
aI47887874
aI205244994
aI395302791
aI111054964
aI25325260
aI126416038
aI112872946
aL3279075170L
aI1041050238
aI414147765
aI274233761
aL2494896473L
aL3035804476L
aI151551090
aI632341632
aI1711239283
aI188884701
aI21237942
aI185419122
aL2391736411L
aI50758087
aI147981511
aL2328086981L
aL2520719083L
aI552326867
aI210855604
aI252877176
aI86125016
aL2378670373L
aI169489285
aI243801041
aI229966745
aL2203748851L
aI384943292
aL2203756687L
aI119466953
aL2203761781L
aL2203777616L
aI21459600
aL2203688730L
aI440765604
aI386616537
aL2203715713L
aI550663732
aI110539278
aI124585235
aI306850457
aI262652488
aI15568127
aI19380829
aI17801805
aI19546277
aI510743569
aI858812515
aI30919868
aI252747758
aI44462693
aI71824428
aI403730941
aI10165242
aI32002507
aI139848857
aI31869934
aI84402174
aI27801361
aI15065434
aI394642779
aI14115408
aI16359602
aI353737617
aI106168913
aI34837057
aI1522097683
aI1345660531
aI109968678
aI174385219
aI36101461
aI314385813
aI242813383
aI19853312
aI121158213
aI1370308412
aI1488917659
aI19634351
aI44196397
aI1797991
aI16614126
aI327915492
aI245927436
aI20557393
aI197509837
aI16451013
aI22522178
aI14276189
aI17927100
aI455824771
aI127967449
aI153561471
aI208155240
aI103087049
aI636441598
aI120242824
aI47678782
aI61292961
aL2341525668L
aI151603912
aI21689176
aI29187734
aI14886375
aI46093512
aI23059499
aL2607601184L
aI11247222
aL2768045341L
aI57849762
aI84444981
aI15897179
aI18539631
aI22302444
aI775735710
aI39853973
aI1059530150
aI486840302
aI21328656
aI326315947
aI23131068
aI19383279
aI33692766
aI247785264
aI14292717
aI30043148
aI28445389
aI282245814
aI851544830
aI36359651
aL2583651986L
aI19426551
aI95713333
aI19337489
aI39264827
aI16732770
aI455309376
aL2203726764L
aI1379416153
aI16451932
aI16004376
aI15281391
aI20402945
aI14216123
aI106498703
aasS'followers'
p4
(lp5
(lp6
L2880527022L
aL3702262938L
aL2320755170L
aL3293903200L
aI315557721
aL4117750948L
aL3242186633L
aL3663176299L
aL3086624641L
aI440206187
aL4007115612L
aI93294948
aI627765164
aL3667539793L
aI35784526
aL2314289604L
aL2964287876L
aI42912883
aI1682397852
aI1353663842
aL3188158710L
aI1183838114
aI531525580
aL3245138596L
aL3279075170L
aI1092298711
aL3111837451L
aL3035804476L
aL2972555345L
aI147981511
aI1529917477
aI120672388
aL2374986309L
aL2419651428L
aL2973826853L
aL3194562145L
aL3316022507L
aI364701860
aL3092044639L
aI16618831
aI1942453706
aI1566647078
aL2798779614L
aI981236256
aL3370487938L
aL3300155821L
aL2203715713L
aI455871478
aI15943226
aL3242386398L
aI971129101
aL3265674702L
aI498071678
aI192735123
aI19688736
aI1529271854
aL2275230932L
aI904968246
aI9843392
aL2260266942L
aL3073478049L
aL3019532173L
aI287885364
aL3057680842L
aL3028191174L
aL3021490588L
aI805230144
aI611817117
aL2962634357L
aL2361262828L
aI62226476
aI487089304
aL2841096623L
aL2416995798L
aI272141779
aI250317700
aI14177421
aI36293963
aI1399947516
aI1406398616
aI108018253
aL2533422487L
aL2483551628L
aL2466604381L
aI480043820
aI388011737
aI1244393550
aI83664398
aI26057509
aI81506033
aI587814366
aI307394108
aI106168913
aI1522097683
aI211316225
aI1345660531
aI403730941
aI31392444
aI394642779
aI121158213
aI1370308412
aI59143641
aI21689176
aI127967449
aL2341525668L
aL2607601184L
aI84444981
aI57849762
aL2768045341L
aI15897179
aI18539631
aasS'obj'
p7
ccopy_reg
_reconstructor
p8
(ctweepy.models
User
p9
c__builtin__
object
p10
Ntp11
Rp12
(dp13
S'follow_request_sent'
p14
NsS'has_extended_profile'
p15
I00
sS'profile_use_background_image'
p16
I01
sS'profile_sidebar_fill_color'
p17
VDDEEF6
p18
sS'id'
p19
I1255023650
sS'verified'
p20
I00
sS'entities'
p21
(dp22
Vdescription
p23
(dp24
Vurls
p25
(lp26
sssS'profile_image_url_https'
p27
Vhttps://pbs.twimg.com/profile_images/501844466433392640/NDHoxiX0_normal.jpeg
p28
sS'_json'
p29
(dp30
Vfollow_request_sent
p31
NsVhas_extended_profile
p32
I00
sVprofile_use_background_image
p33
I01
sVdefault_profile_image
p34
I00
sVid
p35
I1255023650
sVprofile_background_image_url_https
p36
Vhttps://abs.twimg.com/images/themes/theme1/bg.png
p37
sVverified
p38
I00
sVprofile_text_color
p39
V333333
p40
sVprofile_image_url_https
p41
g28
sVprofile_sidebar_fill_color
p42
g18
sVentities
p43
g22
sVfollowers_count
p44
I111
sVprofile_sidebar_border_color
p45
VC0DEED
p46
sVid_str
p47
V1255023650
p48
sVprofile_background_color
p49
VC0DEED
p50
sVlisted_count
p51
I20
sVstatus
p52
(dp53
Vcontributors
p54
NsVtruncated
p55
I00
sVtext
p56
VBaxalta's Hemophilia Drugs Adynovate and Obizur Approved https://t.co/Z2h7vdugLq via @YahooFinance
p57
sVin_reply_to_status_id
p58
Nsg35
L666377184051884033L
sVfavorite_count
p59
I0
sVsource
p60
V<a href="http://twitter.com" rel="nofollow">Twitter Web Client</a>
p61
sVretweeted
p62
I00
sVcoordinates
p63
Nsg43
(dp64
Vsymbols
p65
(lp66
sVuser_mentions
p67
(lp68
(dp69
g35
I19546277
sVindices
p70
(lp71
I85
aI98
asg47
V19546277
p72
sVscreen_name
p73
VYahooFinance
p74
sVname
p75
VYahoo Finance
p76
sasVhashtags
p77
(lp78
sg25
(lp79
(dp80
Vurl
p81
Vhttps://t.co/Z2h7vdugLq
p82
sg70
(lp83
I57
aI80
asVexpanded_url
p84
Vhttp://finance.yahoo.com/news/baxaltas-hemophilia-drugs-adynovate-obizur-213009557.html?soc_src=mediacontentstory&soc_trk=tw
p85
sVdisplay_url
p86
Vfinance.yahoo.com/news/baxaltas-\u2026
p87
sassVin_reply_to_screen_name
p88
Nsg47
V666377184051884033
p89
sVretweet_count
p90
I0
sVin_reply_to_user_id
p91
NsVfavorited
p92
I00
sVgeo
p93
NsVin_reply_to_user_id_str
p94
NsVpossibly_sensitive
p95
I00
sVlang
p96
Ven
p97
sVcreated_at
p98
VMon Nov 16 22:07:56 +0000 2015
p99
sVin_reply_to_status_id_str
p100
NsVplace
p101
NssVis_translation_enabled
p102
I00
sVutc_offset
p103
I-18000
sVstatuses_count
p104
I4791
sg23
VHelping the individual and small investors through investing education and information services, the more people know the better their lives will be.
p105
sVfriends_count
p106
I161
sVlocation
p107
V
p108
sVprofile_link_color
p109
V0084B4
p110
sVprofile_image_url
p111
Vhttp://pbs.twimg.com/profile_images/501844466433392640/NDHoxiX0_normal.jpeg
p112
sVfollowing
p113
NsVgeo_enabled
p114
I00
sVprofile_banner_url
p115
Vhttps://pbs.twimg.com/profile_banners/1255023650/1409748142
p116
sVprofile_background_image_url
p117
Vhttp://abs.twimg.com/images/themes/theme1/bg.png
p118
sg73
Vconst1969
p119
sg96
Ven
p120
sVprofile_background_tile
p121
I00
sVfavourites_count
p122
I1
sg75
VHomegameralert
p123
sVnotifications
p124
Nsg81
Nsg98
VSat Mar 09 18:11:06 +0000 2013
p125
sVcontributors_enabled
p126
I00
sVtime_zone
p127
VEastern Time (US & Canada)
p128
sVprotected
p129
I00
sVdefault_profile
p130
I01
sVis_translator
p131
I00
ssS'contributors_enabled'
p132
I00
sS'profile_text_color'
p133
g40
sS'followers_count'
p134
I111
sS'profile_sidebar_border_color'
p135
g46
sS'id_str'
p136
g48
sS'default_profile_image'
p137
I00
sS'listed_count'
p138
I20
sS'status'
p139
g8
(ctweepy.models
Status
p140
g10
Ntp141
Rp142
(dp143
S'favorited'
p144
I00
sS'contributors'
p145
NsS'truncated'
p146
I00
sS'text'
p147
g57
sS'source_url'
p148
Vhttp://twitter.com
p149
sS'possibly_sensitive'
p150
I00
sS'in_reply_to_status_id'
p151
NsS'geo'
p152
Nsg19
L666377184051884033L
sS'favorite_count'
p153
I0
sS'lang'
p154
g97
sg21
g64
sS'created_at'
p155
cdatetime
datetime
p156
(S'\x07\xdf\x0b\x10\x16\x078\x00\x00\x00'
p157
tp158
Rp159
sg29
g53
sS'coordinates'
p160
NsS'in_reply_to_user_id_str'
p161
NsS'source'
p162
VTwitter Web Client
p163
sS'in_reply_to_status_id_str'
p164
NsS'in_reply_to_screen_name'
p165
Nsg136
g89
sS'retweeted'
p166
I00
sS'place'
p167
NsS'retweet_count'
p168
I0
sS'in_reply_to_user_id'
p169
NsbsS'is_translation_enabled'
p170
I00
sS'utc_offset'
p171
I-18000
sS'statuses_count'
p172
I4791
sS'description'
p173
g105
sS'friends_count'
p174
I161
sS'location'
p175
g108
sS'profile_link_color'
p176
g110
sS'profile_image_url'
p177
g112
sS'notifications'
p178
NsS'geo_enabled'
p179
I00
sS'profile_background_color'
p180
g50
sS'profile_banner_url'
p181
g116
sS'profile_background_image_url'
p182
g118
sS'screen_name'
p183
g119
sg154
g120
sg1
I00
sS'profile_background_tile'
p184
I00
sS'favourites_count'
p185
I1
sS'name'
p186
g123
sS'url'
p187
Nsg155
g156
(S'\x07\xdd\x03\t\x12\x0b\x06\x00\x00\x00'
p188
tp189
Rp190
sS'profile_background_image_url_https'
p191
g37
sS'time_zone'
p192
g128
sS'protected'
p193
I00
sS'default_profile'
p194
I01
sS'is_translator'
p195
I00
sbs.