(dp0
S'following'
p1
(lp2
(lp3
I1145939592
aL2308639909L
aI16330790
aI16314859
aI410070653
aI31127446
aI372020500
aI93913891
aI18576537
aI22080808
aI1217108497
aI231653036
aI67182352
aI271441733
aI733086954
aI22434517
aI624413
aL2745234251L
aL2271503910L
aI19489239
aI57568548
aL2564014766L
aL2855542157L
aI36454287
aL2167282364L
aI1941253760
aL3290364847L
aI1938707286
aL2573660582L
aI16684965
aI602321455
aI25238259
aL2169436064L
aL2300258166L
aI610454843
aI241435654
aI17689864
aI335885581
aI51932290
aL2850470339L
aI1222829917
aI380500399
aI525579713
aL2459395075L
aI368981875
aI1055551057
aI735536305
aL2344499917L
aI14031032
aI129834917
aI34273205
aI296341409
aI35773039
aI16629477
aI289311242
aI1587232273
aL2274875012L
aI293458690
aL3288790955L
aI110454319
aI152722527
aI15563814
aI18021517
aL3065823783L
aI188884701
aI588554500
aI177235430
aI73774967
aI26141091
aI15862891
aI204564525
aI472650465
aL3017745481L
aI60044785
aI1041050238
aI169489285
aI582117237
aI16359602
aI606340754
aI26637792
aI416311594
aI243795494
aL2494896473L
aI1498350660
aI41458395
aL2843698853L
aI1688939388
aL2838276994L
aI185419122
aI24408359
aI34713362
aI242531268
aI1330055544
aI376154503
aI62871181
aI1711239283
aI1001726569
aI38301261
aI223605846
aI19717430
aI17509945
aL3426014292L
aI1645717729
aI396294440
aL2482407307L
aI52354784
aI294146466
aI8790772
aI45543166
aI69421704
aI14442554
aI59739644
aI75094908
aI18091025
aI18090786
aI17918663
aI48110818
aI53039176
aI50753411
aI14085070
aI25950355
aI16300786
aI1590886926
aL2295434528L
aI566414860
aI212278192
aL2841776049L
aI344752927
aI277258420
aI19149006
aI14384667
aI18179696
aI29881875
aI1616185404
aI14886375
aI305221233
aI511577820
aI20186316
aI225476586
aI21793154
aI973770902
aI124271997
aI412362576
aI433664446
aI26014766
aI1629934208
aI103883488
aI194346014
aI56121651
aI14693227
aI391492257
aL2275337142L
aI59853587
aI947581652
aL2302479052L
aI63969804
aL2934270659L
aI308455859
aI314061974
aI881323524
aL2828976141L
aI240033834
aI785935140
aI863003467
aL3035804476L
aL2752355256L
aI103011458
aI43475268
aI67154364
aI41561657
aI888903264
aI156574723
aI30820266
aI32450040
aI252877176
aI28489821
aL2263467936L
aI10791192
aI26077026
aI28160998
aI274233761
aI25325260
aI102754598
aI166597717
aL2562063075L
aI104284098
aI72928001
aI1370906497
aI30217291
aI35789155
aI29870631
aI116748080
aI431752978
aI14442905
aI632341632
aI86125016
aI102527566
aI575796665
aI18294197
aI356986434
aI31484145
aI348772885
aI31720614
aI15974185
aI263675100
aI32492934
aI20278673
aI442298073
aI446784969
aI112872946
aI243801041
aI59645583
aI348371023
aI18294275
aI44418062
aI13171622
aI244969675
aI19019298
aI104952689
aI44438256
aI1769551
aI14442567
aI71542880
aI194343133
aI255996385
aI102094857
aasS'followers'
p4
(lp5
(lp6
L2493962683L
aL2215567596L
aI50076223
aI1135261279
aI1908173190
aL3382164261L
aI1349607438
aL4030974658L
aL2745234251L
aI287465957
aI372020500
aL3343186031L
aI1037805512
aL2920720174L
aL4129818237L
aI1964282917
aL3083788462L
aI158588618
aI405141209
aI14031032
aI703708440
aI61316869
aI1043461548
aI15990144
aI1027615087
aL3928329973L
aI51932290
aL2486034890L
aI1923926642
aL3922072546L
aI575889578
aL3228716620L
aI368981875
aI289311242
aI378376311
aI48514580
aI264496980
aI31484145
aL2351425526L
aL2694375258L
aI133316482
aL2435505893L
aI594139888
aI936824448
aI467676108
aL2511133711L
aL3523410734L
aL2309838606L
aI293458690
aL2935939131L
aL3026563894L
aI121158213
aI1726191319
aI1255023650
aI554290220
aL3309405116L
aL2502402132L
aI952510544
aL3688029328L
aI1529917477
aI315554546
aI14886375
aI947581652
aI867224497
aI177235430
aL3111837451L
aL2992585800L
aL2820852462L
aL3271800751L
aL3328267871L
aL3633846149L
aI447518314
aI22887734
aL3485492116L
aI60044785
aL2374559252L
aI52841010
aI100767876
aI1041050238
aI1052672035
aI53494137
aL2388405810L
aI482112810
aI994257902
aI14407813
aI1263007015
aI72942042
aI511043145
aI1482104738
aI363889053
aL3421882955L
aI408674809
aL3260746692L
aI713866729
aI24408359
aL3613293855L
aI109296812
aL2820891938L
aL2769316162L
aI242531268
aI493804255
aL3545684907L
aI47605772
aL2857109432L
aI376154503
aI247788883
aL3379546426L
aI44408466
aI33419981
aL2773270327L
aL3034687258L
aI523691047
aI33318026
aI250769196
aL3426014292L
aL3256942986L
aI411778324
aI231807002
aI30820266
aI17904253
aI634841391
aI396294440
aL2752355256L
aL2361655766L
aL2466423169L
aI310100383
aL3234464040L
aI164582794
aI256498848
aI380250753
aL2850470339L
aL2487957738L
aI1909489698
aI51472152
aL2482407307L
aI1455673712
aI21155531
aL2830974222L
aI20277810
aI344752927
aI25290623
aI277258420
aI11879752
aL3434373489L
aI412362576
aI145689341
aI588482744
aI28489821
aL3113719124L
aI1392762546
aI196536375
aI18457647
aL2898526274L
aI234447350
aI274997124
aL2181071694L
aL2436075539L
aL3305714846L
aI320524842
aI1063724088
aL3090072082L
aI15897179
aL3297001155L
aI88053063
aI79547213
aI1543212792
aL3155271593L
aI1444977902
aI297283395
aL3121448765L
aL3394569273L
aI19790594
aI28663227
aL2710599498L
aI380482650
aL3278600922L
aI373216088
aL3077258951L
aL2400554652L
aL2251192118L
aI26014766
aL2590725986L
aI1954792118
aL2169436064L
aI13916922
aL2414734766L
aI572033695
aL3084633057L
aI63969804
aL2934270659L
aI133504478
aL3185728742L
aI308455859
aI705601364
aI575582187
aI611817117
aI869749831
aI314061974
aI881323524
aL2922234899L
aI211316225
aI453662520
aI240033834
aI1623811824
aI71758586
aI250317700
aL2950673207L
aI57679254
aI1222829917
aL2294183432L
aL3035804476L
aL3017745481L
aI188884701
aI204833926
aI347315451
aI701103860
aI287885364
aL2831737343L
aI31620577
aL2952218007L
aL3009160773L
aL2967257684L
aI14702529
aL2938858384L
aI557306150
aI1340624978
aI1574273683
aL2396771335L
aI54789776
aI302839642
aI1334111060
aI107646745
aI454215364
aI270887166
aI575706755
aI67154364
aI318593980
aI503777731
aI482152677
aI29153573
aI130578931
aI28753123
aI112614571
aI217005463
aI244705277
aI227877229
aI254537508
aI255181557
aI227052890
aI91368787
aI194965404
aI99596108
aI236783921
aI242282245
aI174275690
aI38107667
aI113116653
aI83496939
aI5380672
aI232229395
aI234806313
aasS'obj'
p7
ccopy_reg
_reconstructor
p8
(ctweepy.models
User
p9
c__builtin__
object
p10
Ntp11
Rp12
(dp13
S'follow_request_sent'
p14
NsS'has_extended_profile'
p15
I00
sS'profile_use_background_image'
p16
I01
sS'profile_sidebar_fill_color'
p17
VC0DFEC
p18
sS'id'
p19
I126416038
sS'verified'
p20
I00
sS'entities'
p21
(dp22
Vdescription
p23
(dp24
Vurls
p25
(lp26
sssS'profile_image_url_https'
p27
Vhttps://pbs.twimg.com/profile_images/646393169630875648/FOfg1lbE_normal.jpg
p28
sS'_json'
p29
(dp30
Vfollow_request_sent
p31
NsVhas_extended_profile
p32
I00
sVprofile_use_background_image
p33
I01
sVdefault_profile_image
p34
I00
sVid
p35
I126416038
sVprofile_background_image_url_https
p36
Vhttps://abs.twimg.com/images/themes/theme15/bg.png
p37
sVverified
p38
I00
sVprofile_text_color
p39
V333333
p40
sVprofile_image_url_https
p41
g28
sVprofile_sidebar_fill_color
p42
g18
sVentities
p43
g22
sVfollowers_count
p44
I261
sVprofile_sidebar_border_color
p45
VA8C7F7
p46
sVid_str
p47
V126416038
p48
sVprofile_background_color
p49
V022330
p50
sVlisted_count
p51
I35
sVstatus
p52
(dp53
Vcontributors
p54
NsVtruncated
p55
I00
sVtext
p56
VRT @jefflstein: It's great when a plan comes together as expected. https://t.co/PCbNBxzmFW
p57
sVin_reply_to_status_id
p58
Nsg35
L666384856667000832L
sVfavorite_count
p59
I0
sVsource
p60
V<a href="http://twitter.com/download/iphone" rel="nofollow">Twitter for iPhone</a>
p61
sVretweeted
p62
I00
sVcoordinates
p63
Nsg43
(dp64
Vsymbols
p65
(lp66
sVuser_mentions
p67
(lp68
(dp69
g35
I105589614
sVindices
p70
(lp71
I3
aI14
asg47
V105589614
p72
sVscreen_name
p73
Vjefflstein
p74
sVname
p75
VJeff Stein
p76
sasVhashtags
p77
(lp78
sg25
(lp79
(dp80
Vurl
p81
Vhttps://t.co/PCbNBxzmFW
p82
sg70
(lp83
I67
aI90
asVexpanded_url
p84
Vhttps://twitter.com/CidaraThera/status/666367298278551552
p85
sVdisplay_url
p86
Vtwitter.com/CidaraThera/st\u2026
p87
sassVin_reply_to_screen_name
p88
Nsg47
V666384856667000832
p89
sVretweet_count
p90
I8
sVin_reply_to_user_id
p91
NsVfavorited
p92
I00
sVretweeted_status
p93
(dp94
g54
Nsg55
I00
sg56
VIt's great when a plan comes together as expected. https://t.co/PCbNBxzmFW
p95
sg58
Nsg35
L666383407027503104L
sg59
I8
sg60
V<a href="http://twitter.com" rel="nofollow">Twitter Web Client</a>
p96
sg62
I00
sg63
Nsg43
(dp97
g65
(lp98
sg67
(lp99
sg77
(lp100
sg25
(lp101
(dp102
g81
Vhttps://t.co/PCbNBxzmFW
p103
sg70
(lp104
I51
aI74
asg84
Vhttps://twitter.com/CidaraThera/status/666367298278551552
p105
sg86
Vtwitter.com/CidaraThera/st\u2026
p106
sassg88
Nsg47
V666383407027503104
p107
sg90
I8
sg91
Nsg92
I00
sVgeo
p108
NsVin_reply_to_user_id_str
p109
NsVpossibly_sensitive
p110
I00
sVlang
p111
Ven
p112
sVcreated_at
p113
VMon Nov 16 22:32:39 +0000 2015
p114
sVin_reply_to_status_id_str
p115
NsVplace
p116
Nssg108
Nsg109
Nsg110
I00
sg111
Ven
p117
sg113
VMon Nov 16 22:38:25 +0000 2015
p118
sg115
Nsg116
NssVis_translation_enabled
p119
I00
sVutc_offset
p120
I7200
sVstatuses_count
p121
I3152
sg23
VIndividual investor focused on Biotech.
p122
sVfriends_count
p123
I226
sVlocation
p124
VTel Aviv
p125
sVprofile_link_color
p126
V0084B4
p127
sVprofile_image_url
p128
Vhttp://pbs.twimg.com/profile_images/646393169630875648/FOfg1lbE_normal.jpg
p129
sVfollowing
p130
NsVgeo_enabled
p131
I01
sVprofile_banner_url
p132
Vhttps://pbs.twimg.com/profile_banners/126416038/1438951290
p133
sVprofile_background_image_url
p134
Vhttp://abs.twimg.com/images/themes/theme15/bg.png
p135
sg73
Vodibro
p136
sg111
Ven
p137
sVprofile_background_tile
p138
I00
sVfavourites_count
p139
I1340
sg75
VAudi
p140
sVnotifications
p141
Nsg81
Nsg113
VThu Mar 25 20:17:38 +0000 2010
p142
sVcontributors_enabled
p143
I00
sVtime_zone
p144
VJerusalem
p145
sVprotected
p146
I00
sVdefault_profile
p147
I00
sVis_translator
p148
I00
ssS'contributors_enabled'
p149
I00
sS'profile_text_color'
p150
g40
sS'followers_count'
p151
I261
sS'profile_sidebar_border_color'
p152
g46
sS'id_str'
p153
g48
sS'default_profile_image'
p154
I00
sS'listed_count'
p155
I35
sS'status'
p156
g8
(ctweepy.models
Status
p157
g10
Ntp158
Rp159
(dp160
S'favorited'
p161
I00
sS'contributors'
p162
NsS'truncated'
p163
I00
sS'text'
p164
g57
sS'source_url'
p165
Vhttp://twitter.com/download/iphone
p166
sS'possibly_sensitive'
p167
I00
sS'in_reply_to_status_id'
p168
NsS'geo'
p169
Nsg19
L666384856667000832L
sS'favorite_count'
p170
I0
sS'lang'
p171
g117
sS'retweeted_status'
p172
g8
(g157
g10
Ntp173
Rp174
(dp175
g161
I00
sg162
Nsg163
I00
sg164
g95
sg165
Vhttp://twitter.com
p176
sg167
I00
sg168
Nsg169
Nsg19
L666383407027503104L
sg170
I8
sg171
g112
sg21
g97
sS'created_at'
p177
cdatetime
datetime
p178
(S"\x07\xdf\x0b\x10\x16 '\x00\x00\x00"
p179
tp180
Rp181
sg29
g94
sS'coordinates'
p182
NsS'in_reply_to_user_id_str'
p183
NsS'source'
p184
VTwitter Web Client
p185
sS'in_reply_to_status_id_str'
p186
NsS'in_reply_to_screen_name'
p187
Nsg153
g107
sS'retweeted'
p188
I00
sS'place'
p189
NsS'retweet_count'
p190
I8
sS'in_reply_to_user_id'
p191
Nsbsg21
g64
sg177
g178
(S'\x07\xdf\x0b\x10\x16&\x19\x00\x00\x00'
p192
tp193
Rp194
sg29
g53
sg182
Nsg183
Nsg184
VTwitter for iPhone
p195
sg186
Nsg187
Nsg153
g89
sg188
I00
sg189
Nsg190
I8
sg191
NsbsS'is_translation_enabled'
p196
I00
sS'utc_offset'
p197
I7200
sS'statuses_count'
p198
I3152
sS'description'
p199
g122
sS'friends_count'
p200
I226
sS'location'
p201
g125
sS'profile_link_color'
p202
g127
sS'profile_image_url'
p203
g129
sS'notifications'
p204
NsS'geo_enabled'
p205
I01
sS'profile_background_color'
p206
g50
sS'profile_banner_url'
p207
g133
sS'profile_background_image_url'
p208
g135
sS'screen_name'
p209
g136
sg171
g137
sg1
I00
sS'profile_background_tile'
p210
I00
sS'favourites_count'
p211
I1340
sS'name'
p212
g140
sS'url'
p213
Nsg177
g178
(S'\x07\xda\x03\x19\x14\x11&\x00\x00\x00'
p214
tp215
Rp216
sS'profile_background_image_url_https'
p217
g37
sS'time_zone'
p218
g145
sS'protected'
p219
I00
sS'default_profile'
p220
I00
sS'is_translator'
p221
I00
sbs.