(dp0
S'following'
p1
(lp2
(lp3
I600378539
aI173420716
aI49663664
aI97334517
aI475524030
aI582117237
aI602811570
aL2934022367L
aI56562803
aI47678782
aI1241647488
aI49974658
aI576436187
aI454490122
aI245980249
aI188726536
aI1389493454
aI168691253
aI20707966
aI602321455
aI713090820
aI296924721
aI61683965
aI297178707
aI1979601391
aI23892927
aL3065823783L
aL2305654506L
aI315095688
aI204564525
aI140912249
aI18294197
aI1177065859
aI14186094
aI17975357
aI632341632
aI271918174
aI27762318
aI26223938
aL2187938131L
aI70987052
aI39853973
aI262913379
aI409194010
aI102527566
aI172023851
aI1534167900
aI1209579391
aI461212126
aI1105089212
aI17124991
aI20991140
aI13298072
aI44196397
aI30217291
aL2208993636L
aI321507436
aI1559356620
aI271211220
aI16732770
aI906797108
aI32778531
aI16451932
aI624620754
aI1146597823
aI271138078
aI102094857
aI14276189
aI455824771
aI68739089
aI289556231
aI168679374
aI236953420
aI19224439
aI14216123
aasS'followers'
p4
(lp5
(lp6
L3002874024L
aL3236681721L
aI75265060
aI108018253
aL4149372904L
aI627765164
aL2291499218L
aL3319587413L
aI1265390306
aI285930441
aI214661713
aI17292738
aL3516426378L
aI230023425
aL3246891431L
aI220410565
aI261974427
aI1498824697
aI232442708
aI254507476
aL3033836084L
aL2933443333L
aL3937546997L
aI515937042
aL3137584245L
aL3252964840L
aI1211706115
aI250800038
aL3763030214L
aI194147814
aI54357059
aI942610028
aI25091158
aI597799971
aL2383861202L
aI590374788
aI198978774
aI22179587
aL3063312486L
aI1659187860
aI164376860
aI58377318
aL3438384959L
aL2450540634L
aL2388135896L
aI310472398
aI946170319
aI72822673
aI412270015
aI466721917
aI216424192
aI393714191
aL3330413428L
aL2149448199L
aI772643436
aI84239264
aI261467074
aL2344938772L
aI235444617
aL2260795585L
aI20124196
aI52814035
aI297446198
aI386620728
aI25724813
aI1248823338
aI311719272
aI433929725
aI997439718
aI272261428
aL2230668524L
aL2934022367L
aL2953707450L
aI28401101
aI26062151
aI344715486
aI613141951
aI21764703
aI74884436
aI119477806
aL2465023328L
aI741147679
aI56017553
aL2696090930L
aL2161171076L
aI1176002924
aI1478600785
aI871060566
aI18043616
aI293180056
aI90757876
aI301363956
aI28846391
aL3438940859L
aI24461461
aL2924246863L
aI1106976996
aI18270490
aL2249751139L
aI342156110
aL2383480328L
aI138643468
aL2236152487L
aL2790418381L
aI136130315
aL3137461421L
aI552982509
aI401540343
aI294293035
aI317889109
aI35784965
aI415434728
aI935761915
aI425516077
aL2389032866L
aI460617306
aL2917907693L
aI601011938
aI20158190
aI18939307
aI255716143
aI295807182
aL3026411940L
aL3237531037L
aI475760802
aI156871200
aL2165183887L
aL2752627488L
aL2586061274L
aI23974141
aI385112096
aI371135713
aI1745385044
aL2855170383L
aI188726536
aI181309185
aL2896401414L
aI611817117
aI15897179
aI274121346
aL2302598977L
aI28628843
aI393799018
aI35370304
aI90477815
aI1279658036
aI1389493454
aI31662943
aI1380008827
aI40769811
aI1489158180
aI214549789
aI609681729
aL3004482624L
aI900888337
aI207801872
aI142281291
aI296946119
aI879376561
aI18594313
aI309084466
aI102746181
aI418696838
aI406289145
aI135776686
aI14624231
aI883416302
aI173420716
aI1561874822
aI1216936020
aI29756596
aI45004206
aL2393593698L
aI557269669
aL2813290292L
aI1152117697
aI29157032
aI857095219
aI38526176
aI346617990
aI20298592
aI1544009316
aI69168764
aI462469250
aI454490122
aI37058442
aI275070751
aL2924431226L
aI47698768
aI273422164
aI339657402
aI606444385
aI1944518827
aI19081498
aL2557882591L
aL2412668348L
aI43955607
aI294338350
aI731350160
aI867773557
aI1564266859
aI118703394
aI571207227
aI1161171948
aI1007392657
aI98884937
aI455977179
aI157873500
aL2330861131L
aI179757920
aI93574154
aI39267010
aI1951761474
aI15552825
aI307004401
aI726796249
aI485824393
aI148867781
aI246961865
aI245980249
aI467106508
aI573722043
aI322650695
aI23648412
aI487816382
aI221652332
aI18049743
aI614449081
aI20991140
aI31649510
aI39792282
aI497341976
aI700175622
aI261067815
aI1262653794
aI867206124
aI832123596
aI372497502
aI1115605134
aI569806308
aI23387622
aI40955165
aL2236484408L
aI436264114
aI1502880462
aI216868857
aI455824771
aI251961889
aI258277583
aI23368614
aI461312319
aI569653813
aI481246501
aI227209725
aI120952781
aI62047635
aI231868057
aI491509349
aI250775009
aI370362432
aI363196122
aI777255944
aI505132985
aI87014813
aI344227184
aI56697237
aI17786870
aI588263709
aI178056380
aI420605213
aI419528647
aL2177328266L
aI113159693
aI29553775
aI103904129
aI289146357
aI1648402069
aI137431462
aI284598419
aI1542236892
aI69861855
aI919689546
aI343792374
aI426336387
aI235946395
aL2290138806L
aI32778531
aI1206178027
aasS'obj'
p7
ccopy_reg
_reconstructor
p8
(ctweepy.models
User
p9
c__builtin__
object
p10
Ntp11
Rp12
(dp13
S'follow_request_sent'
p14
I00
sS'has_extended_profile'
p15
I00
sS'profile_use_background_image'
p16
I01
sS'profile_sidebar_fill_color'
p17
VDDEEF6
p18
sS'id'
p19
I1299235627
sS'verified'
p20
I00
sS'entities'
p21
(dp22
Vdescription
p23
(dp24
Vurls
p25
(lp26
sssS'profile_image_url_https'
p27
Vhttps://pbs.twimg.com/profile_images/489526085353107456/iZL4r0xO_normal.jpeg
p28
sS'_json'
p29
(dp30
Vfollow_request_sent
p31
I00
sVhas_extended_profile
p32
I00
sVprofile_use_background_image
p33
I01
sVdefault_profile_image
p34
I00
sVid
p35
I1299235627
sVprofile_background_image_url_https
p36
Vhttps://abs.twimg.com/images/themes/theme1/bg.png
p37
sVverified
p38
I00
sVprofile_text_color
p39
V333333
p40
sVprofile_image_url_https
p41
g28
sVprofile_sidebar_fill_color
p42
g18
sVentities
p43
g22
sVfollowers_count
p44
I288
sVprofile_sidebar_border_color
p45
VC0DEED
p46
sVid_str
p47
V1299235627
p48
sVprofile_background_color
p49
VC0DEED
p50
sVlisted_count
p51
I19
sVstatus
p52
(dp53
Vlang
p54
Ven
p55
sVfavorited
p56
I00
sg43
(dp57
Vsymbols
p58
(lp59
sVuser_mentions
p60
(lp61
(dp62
g35
I1299235627
sVindices
p63
(lp64
I0
aI14
asg47
V1299235627
p65
sVscreen_name
p66
VRobertDurant7
p67
sVname
p68
VRobert Durant
p69
sasVhashtags
p70
(lp71
sg25
(lp72
ssVcontributors
p73
NsVtruncated
p74
I00
sVtext
p75
V@RobertDurant7 This one going to pay today as we get an upgrade from ML
p76
sVcreated_at
p77
VTue Nov 17 11:29:03 +0000 2015
p78
sVretweeted
p79
I00
sVin_reply_to_status_id_str
p80
V665187091936993280
p81
sVcoordinates
p82
NsVin_reply_to_user_id_str
p83
V1299235627
p84
sVsource
p85
V<a href="http://twitter.com" rel="nofollow">Twitter Web Client</a>
p86
sVin_reply_to_status_id
p87
L665187091936993280L
sVin_reply_to_screen_name
p88
VRobertDurant7
p89
sg47
V666578795030122497
p90
sVplace
p91
(dp92
Vcountry_code
p93
VPR
p94
sVurl
p95
Vhttps://api.twitter.com/1.1/geo/id/4f3c95e0a936049b.json
p96
sVcountry
p97
VPuerto Rico
p98
sVplace_type
p99
Vcity
p100
sVbounding_box
p101
(dp102
Vtype
p103
VPolygon
p104
sg82
(lp105
(lp106
(lp107
F-66.295112
aF18.449974
aa(lp108
F-66.25321
aF18.449974
aa(lp109
F-66.25321
aF18.483403
aa(lp110
F-66.295112
aF18.483403
aaassVcontained_within
p111
(lp112
sVfull_name
p113
VDorado, Puerto Rico
p114
sVattributes
p115
(dp116
sg35
V4f3c95e0a936049b
p117
sg68
VDorado
p118
ssVretweet_count
p119
I0
sVgeo
p120
Nsg35
L666578795030122497L
sVfavorite_count
p121
I0
sVin_reply_to_user_id
p122
I1299235627
ssVis_translation_enabled
p123
I00
sVutc_offset
p124
NsVstatuses_count
p125
I1422
sg23
V
p126
sVfriends_count
p127
I75
sVlocation
p128
g126
sVprofile_link_color
p129
V0084B4
p130
sVprofile_image_url
p131
Vhttp://pbs.twimg.com/profile_images/489526085353107456/iZL4r0xO_normal.jpeg
p132
sVfollowing
p133
I00
sVgeo_enabled
p134
I01
sVprofile_background_image_url
p135
Vhttp://abs.twimg.com/images/themes/theme1/bg.png
p136
sg66
VRobertDurant7
p137
sg54
Ven
p138
sVprofile_background_tile
p139
I00
sVfavourites_count
p140
I9
sg68
VRobert Durant
p141
sVnotifications
p142
I00
sg95
Nsg77
VMon Mar 25 12:23:25 +0000 2013
p143
sVcontributors_enabled
p144
I00
sVtime_zone
p145
NsVprotected
p146
I00
sVdefault_profile
p147
I01
sVis_translator
p148
I00
ssS'contributors_enabled'
p149
I00
sS'profile_text_color'
p150
g40
sS'followers_count'
p151
I288
sS'profile_sidebar_border_color'
p152
g46
sS'id_str'
p153
g48
sS'default_profile_image'
p154
I00
sS'listed_count'
p155
I19
sS'status'
p156
g8
(ctweepy.models
Status
p157
g10
Ntp158
Rp159
(dp160
S'favorited'
p161
I00
sS'contributors'
p162
NsS'truncated'
p163
I00
sS'text'
p164
g76
sS'source_url'
p165
Vhttp://twitter.com
p166
sS'in_reply_to_status_id'
p167
L665187091936993280L
sS'geo'
p168
Nsg19
L666578795030122497L
sS'favorite_count'
p169
I0
sS'lang'
p170
g55
sg21
g57
sS'created_at'
p171
cdatetime
datetime
p172
(S'\x07\xdf\x0b\x11\x0b\x1d\x03\x00\x00\x00'
p173
tp174
Rp175
sg29
g53
sS'coordinates'
p176
NsS'in_reply_to_user_id_str'
p177
g84
sS'source'
p178
VTwitter Web Client
p179
sS'in_reply_to_status_id_str'
p180
g81
sS'in_reply_to_screen_name'
p181
g89
sg153
g90
sS'retweeted'
p182
I00
sS'place'
p183
g8
(ctweepy.models
Place
p184
g10
Ntp185
Rp186
(dp187
S'country_code'
p188
g94
sS'url'
p189
g96
sS'country'
p190
g98
sS'place_type'
p191
g100
sS'bounding_box'
p192
g8
(ctweepy.models
BoundingBox
p193
g10
Ntp194
Rp195
(dp196
S'type'
p197
g104
sg176
g105
sbsS'contained_within'
p198
g8
(ctweepy.models
ResultSet
p199
c__builtin__
list
p200
(lp201
tp202
Rp203
(dp204
S'_since_id'
p205
NsS'_max_id'
p206
NsbsS'full_name'
p207
g114
sS'attributes'
p208
g116
sg19
g117
sS'name'
p209
g118
sbsS'retweet_count'
p210
I0
sS'in_reply_to_user_id'
p211
I1299235627
sbsS'is_translation_enabled'
p212
I00
sS'utc_offset'
p213
NsS'statuses_count'
p214
I1422
sS'description'
p215
g126
sS'friends_count'
p216
I75
sS'location'
p217
g126
sS'profile_link_color'
p218
g130
sS'profile_image_url'
p219
g132
sS'notifications'
p220
I00
sS'geo_enabled'
p221
I01
sS'profile_background_color'
p222
g50
sS'profile_background_image_url'
p223
g136
sS'screen_name'
p224
g137
sg170
g138
sg1
I00
sS'profile_background_tile'
p225
I00
sS'favourites_count'
p226
I9
sg209
g141
sg189
Nsg171
g172
(S'\x07\xdd\x03\x19\x0c\x17\x19\x00\x00\x00'
p227
tp228
Rp229
sS'profile_background_image_url_https'
p230
g37
sS'time_zone'
p231
NsS'protected'
p232
I00
sS'default_profile'
p233
I01
sS'is_translator'
p234
I00
sbs.