(dp0
S'following'
p1
(lp2
(lp3
I65691824
aI1180379185
aL3036882419L
aI805230144
aI25073877
aL2412831349L
aI11134252
aI838518992
aI14839147
aI166691352
aI23970102
aI45602144
aasS'followers'
p4
(lp5
(lp6
I8954032
aL4135561820L
aL4099297217L
aL2992414321L
aI250317700
aL3008205254L
aL2860845668L
aI1583359764
aI71189849
aI234956680
aL3975340934L
aI463513623
aI274278900
aL3831403938L
aL3308399997L
aL2683677198L
aL3487921454L
aL2837882056L
aI192759988
aI142395411
aI77274769
aI1074265044
aI117937557
aL2445064535L
aL2287187870L
aL2284190942L
aL2502970082L
aI1237317199
aL3485492116L
aL2473248270L
aL3368521005L
aL2897332049L
aI264728129
aI121158213
aL2972555345L
aL3317361650L
aI441023873
aL2482104006L
aL2800304516L
aL3395828014L
aI25762392
aI1861049119
aL2492303702L
aI215041402
aL2858112275L
aI348650987
aI603226483
aI36894359
aI463425472
aL3157856587L
aI1385347147
aI1286540352
aL2430846618L
aI524768352
aL3228981804L
aL3241888604L
aI21436811
aI805230144
aI46997278
aL2991546292L
aI48536965
aL3014483681L
aI259517435
aL3338207680L
aI29870954
aL2426971367L
aL3297729207L
aL2731069732L
aI27957540
aI987975300
aL2470475939L
aI562710084
aL2899752808L
aI247526040
aI402885065
aL2855488317L
aI1622411040
aL2412831349L
aL2270756894L
aL2350870813L
aL2564339628L
aL2686353036L
aI18381004
aL2754855222L
aL3247834005L
aL2743417979L
aL2165676145L
aI1213049425
aI1228116126
aI492248877
aL2883020982L
aI232933767
aL3185728742L
aL3029062961L
aL2275230932L
aI860614674
aL3161641066L
aI317562281
aL3165905884L
aL2649607398L
aL3040049696L
aI1656547706
aI79320543
aI92660946
aL3169243635L
aL3132500118L
aI279822718
aL2530373714L
aL2323015076L
aL2374332966L
aI583123413
aI20498237
aL2374587662L
aI143648536
aL2835430243L
aL3086242381L
aL2544108019L
aL2312724108L
aL3130391663L
aL2949469179L
aL2414203034L
aL2902143872L
aL2913835175L
aL2299169612L
aI300598805
aI1633340946
aL3082138464L
aL2471049920L
aL2449994563L
aI1444614408
aL3073478049L
aL3065083689L
aI981236256
aI524525604
aI52576766
aI785003724
aL3080017667L
aI1656677858
aI976797445
aL2420011614L
aI73429838
aL2984379055L
aI22341610
aI21668138
aI17996917
aL2917930186L
aI172000875
aL2575657495L
aI38878018
aL2448292941L
aL2753440416L
aI611817117
aI323701408
aL2869400937L
aL2581281223L
aL2426830898L
aL2573497537L
aL2847146068L
aI633246422
aI101355525
aI1681922173
aL2823698986L
aL2359725325L
aL2720343778L
aL2841889802L
aL2800447181L
aI490362735
aL2525979061L
aI315552007
aL2317696490L
aL2392882836L
aL2786336834L
aI299126098
aI316210432
aL2324588594L
aI316447141
aI183003784
aI411310080
aL2444104684L
aI172836249
aI596474219
aI105217332
aI107646745
aI1462240951
aI1099358575
aL2508994484L
aI216270430
aI139526643
aL2374497366L
aL2728317401L
aL2507376274L
aI16974180
aL2353739293L
aL2722261972L
aI203981879
aL2225929518L
aL2207072149L
aL2332723759L
aI491673327
aI102897972
aL2414595968L
aL2586763938L
aL2573812465L
aI55776241
aL2549223271L
aI473222521
aL2564258690L
aL2494964258L
aI423600594
aI366719129
aL2353228367L
aI763168987
aL2462149436L
aL2469815917L
aI133433959
aL2445422803L
aL2409739332L
aI846280729
aI571941102
aL2462331878L
aI91692102
aI838518992
aI1596202939
aI384444876
aL2268287648L
aI292472586
aL2186937014L
aI1877485782
aL2342329416L
aI43950136
aL2344643174L
aI1925595032
aL2294309405L
aL2337056357L
aI363113962
aI176146843
aI1796255335
aL2169391824L
aI1877257982
aI234829266
aI531331282
aI1589551814
aI58675316
aI1356330492
aI419574878
aI1075262827
aI31545174
aI1237381830
aI857697518
aI463263583
aI133464983
aI556888394
aI1260208092
aI731108575
aI151267983
aI603037763
aI201380581
aI60429918
aI548981763
aI98502962
aI788498557
aI375541220
aI28067139
aI554670281
aI554759610
aI432083594
aI554760792
aI442040064
aI550950618
aI546450114
aI546366172
aI546449427
aI563069811
aI550864123
aI237060541
aI569940313
aI540890813
aI563390783
aI509678236
aI484585514
aI552418942
aI553445168
aI527018393
aI510842403
aI517964685
aI519205099
aI506015588
aI506015235
aI252674189
aI484894996
aI492504273
aI418300642
aI415305134
aI360014692
aI352766194
aI89661416
aI299922476
aasS'obj'
p7
ccopy_reg
_reconstructor
p8
(ctweepy.models
User
p9
c__builtin__
object
p10
Ntp11
Rp12
(dp13
S'follow_request_sent'
p14
NsS'has_extended_profile'
p15
I00
sS'profile_use_background_image'
p16
I01
sS'profile_sidebar_fill_color'
p17
VDDEEF6
p18
sS'id'
p19
I132321543
sS'verified'
p20
I00
sS'entities'
p21
(dp22
Vdescription
p23
(dp24
Vurls
p25
(lp26
sssS'profile_image_url_https'
p27
Vhttps://pbs.twimg.com/profile_images/472954969755107328/mNq2oZfi_normal.png
p28
sS'_json'
p29
(dp30
Vfollow_request_sent
p31
NsVhas_extended_profile
p32
I00
sVprofile_use_background_image
p33
I01
sVdefault_profile_image
p34
I00
sVid
p35
I132321543
sVprofile_background_image_url_https
p36
Vhttps://abs.twimg.com/images/themes/theme1/bg.png
p37
sVverified
p38
I00
sVprofile_text_color
p39
V333333
p40
sVprofile_image_url_https
p41
g28
sVprofile_sidebar_fill_color
p42
g18
sVentities
p43
g22
sVfollowers_count
p44
I297
sVprofile_sidebar_border_color
p45
VC0DEED
p46
sVid_str
p47
V132321543
p48
sVprofile_background_color
p49
VC0DEED
p50
sVlisted_count
p51
I11
sVstatus
p52
(dp53
Vcontributors
p54
NsVtruncated
p55
I00
sVtext
p56
VBB's Stock Haven: $AVXL ~ Shorts Cant Stop Anavex Life Sciences https://t.co/SJirsxBO4E
p57
sVin_reply_to_status_id
p58
Nsg35
L666517384778219520L
sVfavorite_count
p59
I0
sVsource
p60
V<a href="http://twitter.com" rel="nofollow">Twitter Web Client</a>
p61
sVretweeted
p62
I00
sVcoordinates
p63
Nsg43
(dp64
Vsymbols
p65
(lp66
(dp67
Vindices
p68
(lp69
I18
aI23
asg56
VAVXL
p70
sasVuser_mentions
p71
(lp72
sVhashtags
p73
(lp74
sg25
(lp75
(dp76
Vurl
p77
Vhttps://t.co/SJirsxBO4E
p78
sg68
(lp79
I64
aI87
asVexpanded_url
p80
Vhttp://investorshub.advfn.com/boards/read_msg.aspx?message_id=118545750
p81
sVdisplay_url
p82
Vinvestorshub.advfn.com/boards/read_ms\u2026
p83
sassVin_reply_to_screen_name
p84
Nsg47
V666517384778219520
p85
sVretweet_count
p86
I0
sVin_reply_to_user_id
p87
NsVfavorited
p88
I00
sVgeo
p89
NsVin_reply_to_user_id_str
p90
NsVpossibly_sensitive
p91
I00
sVlang
p92
Ven
p93
sVcreated_at
p94
VTue Nov 17 07:25:02 +0000 2015
p95
sVin_reply_to_status_id_str
p96
NsVplace
p97
NssVis_translation_enabled
p98
I00
sVutc_offset
p99
I-28800
sVstatuses_count
p100
I107035
sg23
V
p101
sVfriends_count
p102
I12
sVlocation
p103
g101
sVprofile_link_color
p104
V0084B4
p105
sVprofile_image_url
p106
Vhttp://pbs.twimg.com/profile_images/472954969755107328/mNq2oZfi_normal.png
p107
sVfollowing
p108
NsVgeo_enabled
p109
I00
sVprofile_background_image_url
p110
Vhttp://abs.twimg.com/images/themes/theme1/bg.png
p111
sVscreen_name
p112
Vcjstocksup
p113
sg92
Ven
p114
sVprofile_background_tile
p115
I00
sVfavourites_count
p116
I71
sVname
p117
VC S
p118
sVnotifications
p119
Nsg77
Nsg94
VMon Apr 12 22:52:03 +0000 2010
p120
sVcontributors_enabled
p121
I00
sVtime_zone
p122
VPacific Time (US & Canada)
p123
sVprotected
p124
I00
sVdefault_profile
p125
I01
sVis_translator
p126
I00
ssS'contributors_enabled'
p127
I00
sS'profile_text_color'
p128
g40
sS'followers_count'
p129
I297
sS'profile_sidebar_border_color'
p130
g46
sS'id_str'
p131
g48
sS'default_profile_image'
p132
I00
sS'listed_count'
p133
I11
sS'status'
p134
g8
(ctweepy.models
Status
p135
g10
Ntp136
Rp137
(dp138
S'favorited'
p139
I00
sS'contributors'
p140
NsS'truncated'
p141
I00
sS'text'
p142
g57
sS'source_url'
p143
Vhttp://twitter.com
p144
sS'possibly_sensitive'
p145
I00
sS'in_reply_to_status_id'
p146
NsS'geo'
p147
Nsg19
L666517384778219520L
sS'favorite_count'
p148
I0
sS'lang'
p149
g93
sg21
g64
sS'created_at'
p150
cdatetime
datetime
p151
(S'\x07\xdf\x0b\x11\x07\x19\x02\x00\x00\x00'
p152
tp153
Rp154
sg29
g53
sS'coordinates'
p155
NsS'in_reply_to_user_id_str'
p156
NsS'source'
p157
VTwitter Web Client
p158
sS'in_reply_to_status_id_str'
p159
NsS'in_reply_to_screen_name'
p160
Nsg131
g85
sS'retweeted'
p161
I00
sS'place'
p162
NsS'retweet_count'
p163
I0
sS'in_reply_to_user_id'
p164
NsbsS'is_translation_enabled'
p165
I00
sS'utc_offset'
p166
I-28800
sS'statuses_count'
p167
I107035
sS'description'
p168
g101
sS'friends_count'
p169
I12
sS'location'
p170
g101
sS'profile_link_color'
p171
g105
sS'profile_image_url'
p172
g107
sS'notifications'
p173
NsS'geo_enabled'
p174
I00
sS'profile_background_color'
p175
g50
sS'profile_background_image_url'
p176
g111
sS'screen_name'
p177
g113
sg149
g114
sg1
I00
sS'profile_background_tile'
p178
I00
sS'favourites_count'
p179
I71
sS'name'
p180
g118
sS'url'
p181
Nsg150
g151
(S'\x07\xda\x04\x0c\x164\x03\x00\x00\x00'
p182
tp183
Rp184
sS'profile_background_image_url_https'
p185
g37
sS'time_zone'
p186
g123
sS'protected'
p187
I00
sS'default_profile'
p188
I01
sS'is_translator'
p189
I00
sbs.