(dp0
S'following'
p1
(lp2
(lp3
I573356661
aI997356415
aI1537728620
aI22128530
aL3029451197L
aI322048536
aI702585281
aI15003446
aI12875282
aL4138083707L
aL2671133647L
aI25410160
aI22088714
aI28402887
aI544764686
aI36457630
aI207630487
aL3289388736L
aI174385219
aI249397271
aI1964084738
aI624753831
aI1570180292
aL2972089007L
aL3195244375L
aL3107645764L
aI586
aI1631140573
aL2600174850L
aI342251338
aI1337585012
aI118331219
aI406619965
aI624900175
aI337999162
aL2335870220L
aI19292731
aI32683353
aL2811106662L
aI60555449
aI132224608
aI594930584
aL2621611160L
aL2904841291L
aI819514728
aL3407694843L
aL2434397022L
aI216802143
aL2869475913L
aI1627763208
aI151090823
aI28894912
aL2803822165L
aI21391703
aI1861439480
aL2615610961L
aL3044346069L
aL2306406853L
aI15774741
aI193590927
aI57073389
aI593715538
aI18408384
aL2432549275L
aL2393135197L
aI560294989
aI1050552247
aL2177224099L
aI558223071
aL2525906341L
aI21793923
aI709905230
aL2952673006L
aI53481841
aL2676762737L
aI14459305
aI17974785
aI35280278
aI1082745968
aI126402006
aI346931995
aI616604522
aI104485726
aI192936405
aI551913305
aI302971361
aI93723527
aL2253891355L
aI1860794096
aI885386329
aI218503228
aI782061396
aI260230547
aI163537857
aI51280297
aI602039686
aI1141384256
aL2657146262L
aI28064679
aI375626449
aL2215148312L
aI36033627
aI1059273780
aL2968388932L
aI14722659
aI6823402
aI484663513
aI54867646
aI64657863
aI19383099
aI65221182
aI355866075
aI19157233
aI20950304
aI410374467
aI122828450
aI33747430
aI20119344
aI329173077
aI18301946
aI26644466
aI857471436
aI29762417
aI267418268
aI495357252
aI726538688
aI481682612
aI1712776076
aI43010876
aI31186367
aI36835665
aI392036106
aI138157120
aI129079450
aI522109018
aI701203206
aI385205597
aI1557315432
aI1650303372
aI318045259
aI257661436
aI293294726
aI34939208
aI95440122
aI15861355
aI64614569
aI782138142
aI138782941
aI34713362
aI816653
aI20402945
aI1797991
aI14173032
aI1717291
aI41516710
aI15485461
aI89043072
aI459708890
aI197869772
aI16184358
aI782026586
aasS'followers'
p4
(lp5
(lp6
I573356661
aI45355685
aI484371282
aI267418268
aI367105503
aI989657845
aL3029451197L
aL3009933464L
aI250060976
aI1245926706
aI486503046
aL2414709972L
aI1244031900
aL2957596833L
aI292451113
aI1058581980
aL4159385567L
aI114954183
aL2799757448L
aL2486034890L
aL4015400234L
aI78779422
aI238252349
aI22128530
aI492177195
aI18162055
aL2814132798L
aI28894912
aL4075893167L
aI51090132
aI367345333
aL2951306981L
aI1587469344
aI36457630
aI151588515
aL2794704558L
aI12875282
aI17840243
aI296552984
aL3118084756L
aI20832419
aI22597528
aL3419710329L
aI364379772
aI22213224
aI249397271
aI59892610
aL3158120600L
aL2434600926L
aI419080766
aI582051792
aI226673210
aL2891974813L
aL2520041581L
aL2393135197L
aL3107645764L
aL2600174850L
aI29762417
aI27473764
aI862128438
aI276848694
aI356473747
aL2986760493L
aI624900175
aI48041449
aI21067783
aI26644466
aI21241717
aL3471404075L
aI252494088
aL2702304586L
aI106954305
aI43370064
aI384251583
aL3317548075L
aI86260306
aI328400268
aI154130614
aI390583057
aI306559583
aI616604522
aL2961389848L
aI49230081
aI728199702
aI362469496
aL3308498843L
aL2956420784L
aI961797541
aI205558974
aI446876772
aI702585281
aI594930584
aI25410160
aI509432945
aI1858023878
aI14173032
aL2731385984L
aI1641031428
aI1289262985
aI310661570
aI22093804
aL2748085613L
aI32858887
aI1470319040
aI201891014
aL2895810478L
aI16821202
aL3289388736L
aI35040862
aL2621611160L
aI20428698
aI31631018
aL3176770727L
aI819514728
aL3306309824L
aL2297341705L
aL3071253103L
aL3301099928L
aI83687024
aL2946763118L
aI713512562
aI29452416
aI1962117006
aL3287317076L
aI317790170
aL2869475913L
aI444971861
aL2887586521L
aI376828280
aL2686575416L
aI1861439480
aI37890319
aL2904841291L
aI384217858
aL3044346069L
aL2285475277L
aL2306406853L
aL2927337550L
aI1082745968
aI193590927
aL2952673006L
aI18408384
aL2615610961L
aI192936405
aI38526549
aL2289618368L
aI562346664
aI551913305
aI1084685863
aL3189687737L
aL3296400093L
aI1434514458
aL2202064120L
aL3058312464L
aL3224193559L
aL2968388932L
aL2983087518L
aL2944973801L
aL2425654026L
aI75580195
aI1540248782
aL2987476970L
aL2970329640L
aI569496245
aI170143933
aI1562614952
aI39958891
aI78041752
aI14722659
aL2226889057L
aL2501347503L
aI20119344
aI110974731
aI6823402
aL2508177857L
aI315397132
aI54867646
aI1438854709
aI1971496015
aI113874184
aI1673580578
aI49325145
aI441193710
aL2257749920L
aI1633712917
aI71218846
aI410374467
aI441521246
aI238533112
aI154837237
aI18301946
aI1679340314
aI1712776076
aI1911962599
aI44564089
aI385205597
aI156981013
aI54251280
aI1650303372
aI481682612
aI726538688
aI129079450
aI272502687
aI782899633
aasS'obj'
p7
ccopy_reg
_reconstructor
p8
(ctweepy.models
User
p9
c__builtin__
object
p10
Ntp11
Rp12
(dp13
S'follow_request_sent'
p14
I00
sS'has_extended_profile'
p15
I00
sS'profile_use_background_image'
p16
I00
sS'profile_sidebar_fill_color'
p17
V000000
p18
sS'id'
p19
I1359088742
sS'verified'
p20
I00
sS'entities'
p21
(dp22
Vurl
p23
(dp24
Vurls
p25
(lp26
(dp27
g23
Vhttp://t.co/qhnwo1h3Ox
p28
sVindices
p29
(lp30
I0
aI22
asVexpanded_url
p31
Vhttp://Huck-Fund.com
p32
sVdisplay_url
p33
VHuck-Fund.com
p34
sassVdescription
p35
(dp36
g25
(lp37
sssS'profile_image_url_https'
p38
Vhttps://pbs.twimg.com/profile_images/663043091515994112/B0Y5dPC9_normal.png
p39
sS'_json'
p40
(dp41
Vfollow_request_sent
p42
I00
sVhas_extended_profile
p43
I00
sVprofile_use_background_image
p44
I00
sVdefault_profile_image
p45
I00
sVid
p46
I1359088742
sVprofile_background_image_url_https
p47
Vhttps://abs.twimg.com/images/themes/theme1/bg.png
p48
sVverified
p49
I00
sVprofile_text_color
p50
V000000
p51
sVprofile_image_url_https
p52
g39
sVprofile_sidebar_fill_color
p53
g18
sVentities
p54
g22
sVfollowers_count
p55
I204
sVprofile_sidebar_border_color
p56
V000000
p57
sVid_str
p58
V1359088742
p59
sVprofile_background_color
p60
V000000
p61
sVlisted_count
p62
I11
sVstatus
p63
(dp64
Vcontributors
p65
NsVtruncated
p66
I00
sVtext
p67
V81.04p it is\u000a\u000ahttps://t.co/NLvFjsrbh5
p68
sVin_reply_to_status_id
p69
Nsg46
L666330426139672576L
sVfavorite_count
p70
I0
sVsource
p71
V<a href="http://twitter.com" rel="nofollow">Twitter Web Client</a>
p72
sVretweeted
p73
I00
sVcoordinates
p74
Nsg54
(dp75
Vsymbols
p76
(lp77
sVuser_mentions
p78
(lp79
sVhashtags
p80
(lp81
sg25
(lp82
(dp83
g23
Vhttps://t.co/NLvFjsrbh5
p84
sg29
(lp85
I14
aI37
asg31
Vhttps://twitter.com/HuckFund/status/666204637150756864
p86
sg33
Vtwitter.com/HuckFund/statu\u2026
p87
sassVin_reply_to_screen_name
p88
Nsg58
V666330426139672576
p89
sVretweet_count
p90
I0
sVin_reply_to_user_id
p91
NsVfavorited
p92
I00
sVgeo
p93
NsVin_reply_to_user_id_str
p94
NsVpossibly_sensitive
p95
I00
sVlang
p96
Ven
p97
sVcreated_at
p98
VMon Nov 16 19:02:08 +0000 2015
p99
sVin_reply_to_status_id_str
p100
NsVplace
p101
NssVis_translation_enabled
p102
I00
sVutc_offset
p103
I-28800
sVstatuses_count
p104
I962
sg35
VTel Aviv based value investor / Fund manager at Huckleberry Value Fund, a long-biased global equity HF / A dad
p105
sVfriends_count
p106
I161
sVlocation
p107
VTel Aviv, Israel
p108
sVprofile_link_color
p109
V89C9FA
p110
sVprofile_image_url
p111
Vhttp://pbs.twimg.com/profile_images/663043091515994112/B0Y5dPC9_normal.png
p112
sVfollowing
p113
I00
sVgeo_enabled
p114
I00
sVprofile_banner_url
p115
Vhttps://pbs.twimg.com/profile_banners/1359088742/1440607499
p116
sVprofile_background_image_url
p117
Vhttp://abs.twimg.com/images/themes/theme1/bg.png
p118
sVscreen_name
p119
VHuckFund
p120
sg96
Ven
p121
sVprofile_background_tile
p122
I00
sVfavourites_count
p123
I198
sVname
p124
VAmir Dov
p125
sVnotifications
p126
I00
sg23
Vhttp://t.co/qhnwo1h3Ox
p127
sg98
VWed Apr 17 10:21:36 +0000 2013
p128
sVcontributors_enabled
p129
I00
sVtime_zone
p130
VPacific Time (US & Canada)
p131
sVprotected
p132
I00
sVdefault_profile
p133
I00
sVis_translator
p134
I00
ssS'contributors_enabled'
p135
I00
sS'profile_text_color'
p136
g51
sS'followers_count'
p137
I204
sS'profile_sidebar_border_color'
p138
g57
sS'id_str'
p139
g59
sS'default_profile_image'
p140
I00
sS'listed_count'
p141
I11
sS'status'
p142
g8
(ctweepy.models
Status
p143
g10
Ntp144
Rp145
(dp146
S'favorited'
p147
I00
sS'contributors'
p148
NsS'truncated'
p149
I00
sS'text'
p150
V81.04p it is\u000a\u000ahttps://t.co/NLvFjsrbh5
p151
sS'source_url'
p152
Vhttp://twitter.com
p153
sS'possibly_sensitive'
p154
I00
sS'in_reply_to_status_id'
p155
NsS'geo'
p156
Nsg19
L666330426139672576L
sS'favorite_count'
p157
I0
sS'lang'
p158
g97
sg21
g75
sS'created_at'
p159
cdatetime
datetime
p160
(S'\x07\xdf\x0b\x10\x13\x02\x08\x00\x00\x00'
p161
tp162
Rp163
sg40
g64
sS'coordinates'
p164
NsS'in_reply_to_user_id_str'
p165
NsS'source'
p166
VTwitter Web Client
p167
sS'in_reply_to_status_id_str'
p168
NsS'in_reply_to_screen_name'
p169
Nsg139
g89
sS'retweeted'
p170
I00
sS'place'
p171
NsS'retweet_count'
p172
I0
sS'in_reply_to_user_id'
p173
NsbsS'is_translation_enabled'
p174
I00
sS'utc_offset'
p175
I-28800
sS'statuses_count'
p176
I962
sS'description'
p177
g105
sS'friends_count'
p178
I161
sS'location'
p179
g108
sS'profile_link_color'
p180
g110
sS'profile_image_url'
p181
g112
sS'notifications'
p182
I00
sS'geo_enabled'
p183
I00
sS'profile_background_color'
p184
g61
sS'profile_banner_url'
p185
g116
sS'profile_background_image_url'
p186
g118
sS'screen_name'
p187
g120
sg158
g121
sg1
I00
sS'profile_background_tile'
p188
I00
sS'favourites_count'
p189
I198
sS'name'
p190
g125
sS'url'
p191
g127
sg159
g160
(S'\x07\xdd\x04\x11\n\x15$\x00\x00\x00'
p192
tp193
Rp194
sS'profile_background_image_url_https'
p195
g48
sS'time_zone'
p196
g131
sS'protected'
p197
I00
sS'default_profile'
p198
I00
sS'is_translator'
p199
I00
sbs.