(dp0
S'following'
p1
(lp2
(lp3
L3315134870L
aL2307828661L
aI55395551
aL2678090893L
aI47383148
aL3947393835L
aI386492564
aI374101804
aL2862979658L
aL2445064535L
aI157878520
aL3884295673L
aL3243555336L
aI25073877
aL2161913370L
aL2463277092L
aI83786013
aL2926756168L
aI330740614
aI129935623
aI19689815
aL2429328334L
aI20813763
aL2519254622L
aI16190898
aL2737884906L
aI300525555
aI563489125
aI981236256
aI37469211
aL2828138658L
aI153694176
aI1891737607
aL2366303634L
aI928967952
aI21769093
aL2577396554L
aL2437532460L
aI485801797
aL2181357950L
aI263431193
aI222195944
aL2426245616L
aI1689434408
aL2172423304L
aI18408384
aI874438663
aI100024370
aL2462874699L
aI1869471378
aI613876677
aI355727441
aI709430142
aI291718177
aL2447078804L
aI50395933
aL2424571596L
aI15897179
aI148272213
aI334924180
aL2450547252L
aI1129324334
aI252171211
aI1375860338
aI1948062499
aI223885817
aI174965200
aL2149877280L
aI18503803
aL2432613518L
aL2439520662L
aL2458955186L
aI34097682
aL2167406106L
aI1648361706
aI26122205
aI608325855
aL2425191276L
aL2396533387L
aI156847093
aI546355411
aI540967474
aI95961590
aI386861642
aI441248955
aI23003843
aI1494243978
aI28320231
aL2341525668L
aL2364012076L
aI178074005
aI368051933
aI1700583565
aI805230144
aL2427815251L
aL2429512537L
aI16004376
aI11247222
aI304597194
aI1226435360
aL2436379111L
aL2336560186L
aI590302232
aL2413394779L
aI287426817
aL2361790122L
aI22522178
aI597806750
aL2329893787L
aL2436377918L
aI1593647899
aI108443000
aL2185041662L
aI137581921
aI109043438
aI196218576
aI193380790
aL2463371525L
aI949083331
aL2407681518L
aI1398685674
aL2390964422L
aI1099358575
aL2385330938L
aI22784458
aI1104241182
aI924970663
aI32386123
aI46454412
aI42116240
aI1914657931
aL2363262968L
aL2451814433L
aI81432232
aL2436944025L
aI1880662680
aI36359651
aL2326375554L
aI140149665
aI1490281285
aL2333710026L
aI216270430
aI56868295
aI117103149
aL2357032238L
aL2398623685L
aI1611543626
aL2216333869L
aI600139331
aL2389409060L
aI1467278119
aI14216123
aI42890030
aL2391799927L
aI1370308412
aL2391775315L
aI13131362
aI1928213371
aI1115304062
aI602397399
aL2389136459L
aL2259383122L
aI54253744
aI35787166
aI28655703
aI297448940
aI72612752
aI18341423
aasS'followers'
p4
(lp5
(lp6
L2830371145L
aL2307828661L
aL3578893212L
aI55395551
aL4086878235L
aI163030290
aL2678090893L
aL4065291019L
aL4065127514L
aI47383148
aL3947393835L
aI386492564
aI374101804
aL2862979658L
aL2445064535L
aL3232166957L
aL3300549860L
aL3267474548L
aL2828138658L
aL2851544538L
aI221497409
aL3105190777L
aI83786013
aL2926756168L
aL2988558468L
aL2987476872L
aL2969521059L
aI587226437
aL2971697575L
aI408576661
aL2753440416L
aI981236256
aL2172423304L
aL2413576753L
aL2633783994L
aL2729514521L
aL2577396554L
aL2436377918L
aL2570922993L
aI485801797
aI522920774
aL2529554131L
aL2526414124L
aL2512758919L
aL2411284602L
aI1228116126
aI18408384
aL2542917784L
aI874438663
aL2480753982L
aL2439015775L
aL2469663601L
aI1869471378
aI355727441
aI291718177
aI43550495
aI137581921
aI709430142
aL2447078804L
aI15897179
aL2432613518L
aL2149877280L
aI1147055131
aL2451697074L
aI540967474
aI95961590
aI23003843
aI174965200
aL2341525668L
aI368051933
aI1700583565
aL2440826251L
aI805230144
aL2427815251L
aI304597194
aI287426817
aL2361790122L
aI597806750
aI196218576
aL2185041662L
aL2424269132L
aI117103149
aI949083331
aL2407681518L
aI1099358575
aL2385330938L
aI32386123
aI1914657931
aL2400615456L
aL2411625121L
aL2436944025L
aL2393519503L
aL2363507684L
aL2392583808L
aL2398623685L
aI13131362
aL2402478548L
aL2401669638L
aI600139331
aL2400694737L
aI1467278119
aI315013514
aasS'obj'
p7
ccopy_reg
_reconstructor
p8
(ctweepy.models
User
p9
c__builtin__
object
p10
Ntp11
Rp12
(dp13
S'follow_request_sent'
p14
I00
sS'has_extended_profile'
p15
I00
sS'profile_use_background_image'
p16
I01
sS'profile_sidebar_fill_color'
p17
VDDEEF6
p18
sS'id'
p19
I1360358396
sS'verified'
p20
I00
sS'entities'
p21
(dp22
Vdescription
p23
(dp24
Vurls
p25
(lp26
sssS'profile_image_url_https'
p27
Vhttps://pbs.twimg.com/profile_images/453695546192977921/pUzpAsMv_normal.jpeg
p28
sS'_json'
p29
(dp30
Vfollow_request_sent
p31
I00
sVhas_extended_profile
p32
I00
sVprofile_use_background_image
p33
I01
sVdefault_profile_image
p34
I00
sVid
p35
I1360358396
sVprofile_background_image_url_https
p36
Vhttps://abs.twimg.com/images/themes/theme1/bg.png
p37
sVverified
p38
I00
sVprofile_text_color
p39
V333333
p40
sVprofile_image_url_https
p41
g28
sVprofile_sidebar_fill_color
p42
g18
sVentities
p43
g22
sVfollowers_count
p44
I102
sVprofile_sidebar_border_color
p45
VC0DEED
p46
sVid_str
p47
V1360358396
p48
sVprofile_background_color
p49
VC0DEED
p50
sVlisted_count
p51
I5
sVstatus
p52
(dp53
Vcontributors
p54
NsVtruncated
p55
I00
sVtext
p56
VRT @TablepoundK: Oh boy, i sure do love it when you slap that ask on $SNET. 8x9.
p57
sVin_reply_to_status_id
p58
Nsg35
L666352293617496064L
sVfavorite_count
p59
I0
sVsource
p60
V<a href="http://twitter.com/download/android" rel="nofollow">Twitter for Android</a>
p61
sVretweeted
p62
I00
sVcoordinates
p63
Nsg43
(dp64
Vsymbols
p65
(lp66
(dp67
Vindices
p68
(lp69
I69
aI74
asg56
VSNET
p70
sasVuser_mentions
p71
(lp72
(dp73
g35
I386492564
sg68
(lp74
I3
aI15
asg47
V386492564
p75
sVscreen_name
p76
VTablepoundK
p77
sVname
p78
VAstockalypse
p79
sasVhashtags
p80
(lp81
sg25
(lp82
ssVin_reply_to_screen_name
p83
Nsg47
V666352293617496064
p84
sVretweet_count
p85
I1
sVin_reply_to_user_id
p86
NsVfavorited
p87
I00
sVretweeted_status
p88
(dp89
Vlang
p90
Ven
p91
sg87
I00
sg43
(dp92
g65
(lp93
(dp94
g68
(lp95
I52
aI57
asg56
VSNET
p96
sasg71
(lp97
sg80
(lp98
sg25
(lp99
ssg54
Nsg55
I00
sg56
VOh boy, i sure do love it when you slap that ask on $SNET. 8x9.
p100
sVcreated_at
p101
VMon Nov 16 19:38:21 +0000 2015
p102
sg62
I00
sVin_reply_to_status_id_str
p103
Nsg63
NsVin_reply_to_user_id_str
p104
Nsg60
V<a href="http://twitter.com/download/android" rel="nofollow">Twitter for Android</a>
p105
sg58
Nsg83
Nsg47
V666339540362203136
p106
sVplace
p107
Nsg85
I1
sVgeo
p108
Nsg35
L666339540362203136L
sg59
I2
sg86
Nssg108
Nsg104
Nsg90
Ven
p109
sg101
VMon Nov 16 20:29:01 +0000 2015
p110
sg103
Nsg107
NssVis_translation_enabled
p111
I00
sVutc_offset
p112
NsVstatuses_count
p113
I1019
sg23
V
p114
sVfriends_count
p115
I168
sVlocation
p116
Veverywhere
p117
sVprofile_link_color
p118
V0084B4
p119
sVprofile_image_url
p120
Vhttp://pbs.twimg.com/profile_images/453695546192977921/pUzpAsMv_normal.jpeg
p121
sVfollowing
p122
I00
sVgeo_enabled
p123
I00
sVprofile_banner_url
p124
Vhttps://pbs.twimg.com/profile_banners/1360358396/1400001045
p125
sVprofile_background_image_url
p126
Vhttp://abs.twimg.com/images/themes/theme1/bg.png
p127
sg76
Vandrewcoar
p128
sg90
Ven
p129
sVprofile_background_tile
p130
I00
sVfavourites_count
p131
I484
sg78
Vfstmny13
p132
sVnotifications
p133
I00
sVurl
p134
Nsg101
VWed Apr 17 21:00:38 +0000 2013
p135
sVcontributors_enabled
p136
I00
sVtime_zone
p137
NsVprotected
p138
I00
sVdefault_profile
p139
I01
sVis_translator
p140
I00
ssS'contributors_enabled'
p141
I00
sS'profile_text_color'
p142
g40
sS'followers_count'
p143
I102
sS'profile_sidebar_border_color'
p144
g46
sS'id_str'
p145
g48
sS'default_profile_image'
p146
I00
sS'listed_count'
p147
I5
sS'status'
p148
g8
(ctweepy.models
Status
p149
g10
Ntp150
Rp151
(dp152
S'favorited'
p153
I00
sS'contributors'
p154
NsS'truncated'
p155
I00
sS'text'
p156
g57
sS'source_url'
p157
Vhttp://twitter.com/download/android
p158
sS'in_reply_to_status_id'
p159
NsS'geo'
p160
Nsg19
L666352293617496064L
sS'favorite_count'
p161
I0
sS'lang'
p162
g109
sS'retweeted_status'
p163
g8
(g149
g10
Ntp164
Rp165
(dp166
g153
I00
sg154
Nsg155
I00
sg156
g100
sg157
Vhttp://twitter.com/download/android
p167
sg159
Nsg160
Nsg19
L666339540362203136L
sg161
I2
sg162
g91
sg21
g92
sS'created_at'
p168
cdatetime
datetime
p169
(S'\x07\xdf\x0b\x10\x13&\x15\x00\x00\x00'
p170
tp171
Rp172
sg29
g89
sS'coordinates'
p173
NsS'in_reply_to_user_id_str'
p174
NsS'source'
p175
VTwitter for Android
p176
sS'in_reply_to_status_id_str'
p177
NsS'in_reply_to_screen_name'
p178
Nsg145
g106
sS'retweeted'
p179
I00
sS'place'
p180
NsS'retweet_count'
p181
I1
sS'in_reply_to_user_id'
p182
Nsbsg21
g64
sg168
g169
(S'\x07\xdf\x0b\x10\x14\x1d\x01\x00\x00\x00'
p183
tp184
Rp185
sg29
g53
sg173
Nsg174
Nsg175
VTwitter for Android
p186
sg177
Nsg178
Nsg145
g84
sg179
I00
sg180
Nsg181
I1
sg182
NsbsS'is_translation_enabled'
p187
I00
sS'utc_offset'
p188
NsS'statuses_count'
p189
I1019
sS'description'
p190
g114
sS'friends_count'
p191
I168
sS'location'
p192
g117
sS'profile_link_color'
p193
g119
sS'profile_image_url'
p194
g121
sS'notifications'
p195
I00
sS'geo_enabled'
p196
I00
sS'profile_background_color'
p197
g50
sS'profile_banner_url'
p198
g125
sS'profile_background_image_url'
p199
g127
sS'screen_name'
p200
g128
sg162
g129
sg1
I00
sS'profile_background_tile'
p201
I00
sS'favourites_count'
p202
I484
sS'name'
p203
g132
sS'url'
p204
Nsg168
g169
(S'\x07\xdd\x04\x11\x15\x00&\x00\x00\x00'
p205
tp206
Rp207
sS'profile_background_image_url_https'
p208
g37
sS'time_zone'
p209
NsS'protected'
p210
I00
sS'default_profile'
p211
I01
sS'is_translator'
p212
I00
sbs.