(dp0
S'following'
p1
(lp2
(lp3
I989088871
aL2456460704L
aI366721494
aI44792796
aI1675465040
aL2310270138L
aL2309483036L
aI65577676
aI48041449
aI463100829
aI1149954571
aI18578905
aI20800915
aI15085627
aI462900946
aI302128211
aI956382744
aI155807143
aI390074840
aI28593464
aI73782019
aI28858121
aasS'followers'
p4
(lp5
(lp6
I248856369
aI597799971
aI964737036
aL3308478041L
aI30583510
aL2948879195L
aI284521341
aI352531396
aL2528319445L
aI36293963
aI140540706
aI754617049
aI399226149
aI178900268
aI989088871
aI1327354884
aI18452087
aI1404958586
aL2294263593L
aL2293948298L
aL2457383286L
aI209529286
aI45377391
aI323649413
aI143004711
aI125978392
aI405987177
aI191404764
aI328689107
aI588497146
aI42567568
aI224463813
aI167155160
aI65057148
aI33877032
aI397394842
aI97226402
aI201415946
aI220763648
aI127714947
aI411662872
aI126187710
aI53081298
aI594846047
aI818063436
aI1921003039
aI23135873
aI1636025653
aI72150581
aI25953028
aI89766859
aI112458561
aI411597820
aI70804343
aI111205463
aI75964123
aI252093456
aI845099953
aI325527109
aI513742333
aI197806954
aI34180993
aI168222764
aI185532823
aI166528096
aI86450745
aI336206744
aI1288621542
aI404446683
aI231813251
aI331929725
aI18013085
aI736225825
aI481523713
aI367396912
aI312115805
aI311602723
aI20751891
aI155332826
aI215323828
aI636386092
aI545533224
aI572475953
aI537012589
aI22567473
aI374806492
aI138117779
aI96365218
aI308471971
aI21480472
aI1090964994
aI375897569
aI390616455
aL2296599150L
aI383976846
aI349538436
aI476928473
aI255165036
aI67095679
aI93740954
aI344970454
aI215698488
aI245084432
aI3905661
aI510374373
aI330244236
aI1876548168
aI299191183
aI1090507020
aI706370906
aI380787540
aI36119951
aI312154888
aI278049110
aI522218596
aI63323514
aI26275849
aI492472675
aI81543887
aI423635886
aI181919134
aI187114297
aI173408375
aI51742030
aI327337948
aI358045561
aI141844367
aI561233529
aI485374968
aI328972259
aI132370630
aI219137026
aI102835570
aI81317330
aI399406125
aI512506908
aI26888952
aI1606606778
aI251270729
aI139489217
aI405934887
aI181324669
aI354227158
aI351694055
aI349974748
aI725060864
aI303322780
aI81388573
aI558119678
aI1036416259
aI377937250
aI303947227
aI712968528
aI1065288900
aI268667049
aI461023375
aI75982656
aI399341979
aI272337047
aI196084019
aI201442577
aI620469988
aI403354237
aI418658283
aI389413616
aI765655658
aI169544564
aI242314083
aL2314454383L
aI979995858
aI970329115
aI411206977
aL2310530202L
aL2299967940L
aI592216510
aI265503408
aI71898880
aI326328923
aI433105312
aI137042992
aI76475363
aI384935430
aI1496226716
aI528827484
aI60870782
aI377042870
aI197097273
aI330571679
aI265790904
aI49429951
aI185681779
aI314739076
aI296524889
aI37267062
aI48330059
aI16074655
aI543236922
aI84776380
aI930255254
aI463727881
aI908883126
aI44846107
aI16120677
aI267561384
aI114487495
aI281694587
aL2292526962L
aI712632692
aI339679651
aI46493919
aI36376867
aI241042555
aI403324899
aI254428582
aI25932371
aI21755710
aI242269225
aI813753710
aI257084471
aI285040823
aI262029110
aI17359772
aI255180760
aI780734334
aI68519095
aI479488631
aI63676752
aI1421845381
aI106931332
aI66222359
aI1002116178
aI311600123
aI256590941
aI241929923
aI196529246
aI311659238
aI920067834
aI494838314
aI421762130
aI1879477850
aI415009095
aI221261513
aI858083905
aI107635530
aI105573475
aI307486463
aI712724156
aI516468798
aL2235656420L
aI546891952
aI22419047
aI87158319
aI265990468
aI251189295
aI334651631
aI496462915
aI189649567
aI59364169
aI58628550
aI203081256
aI61680548
aI149932280
aI167927227
aI150441259
aI402325551
aI384679203
aI254096381
aI137149968
aI627888800
aI190008482
aI511528981
aI598862961
aI773149926
aI1356392208
aI305814044
aI6449472
aI899735245
aI438099840
aI30459896
aI286255086
aI377965654
aI1146250878
aI30129518
aI17553390
aI1448384016
aL2285069733L
aI337813287
aI90939719
aI251056206
aI470836923
aI302880373
aI72599592
aI255783264
aI39704027
aI197153187
aI250534973
aI381435362
aI545930007
aI598718029
aI968046876
aI321105553
aI99994134
aI69893730
aI23317540
aI381300624
aI390528663
aI214308666
aI99379622
aI615210751
aI53944400
aI438229368
aI419245397
aI251400731
aI507000585
aI88919049
aI241818449
aI68357842
aI361547143
aI370528464
aI140587367
aI449866396
aI449785320
aI217568461
aI91879400
aI56569326
aI329406316
aI275964242
aI372537490
aI159819706
aI712744700
aI164396271
aI245580150
aI149299320
aI53873092
aI34241814
aI269920233
aI461402712
aI976719642
aI112451264
aI18900751
aI976052282
aI176369814
aI256815723
aI569145971
aI174783426
aL2394492514L
aI58851493
aL2331865394L
aI58503401
aI1263280003
aL2377352250L
aL2377351987L
aL2377335318L
aL2377322478L
aL2377221744L
aL2377116787L
aL2377090200L
aI252415772
aI386808013
aI1675465040
aL2310270138L
aL2309483036L
aI447449333
aI377161455
aI1845191160
aI27065139
aI390450593
aI501816596
aI1256509472
aI1009613448
aI467763382
aI1455868291
aI14429900
aI1648211437
aI515925108
aI1652149952
aI30942695
aI83512543
aI1265919968
aI1633521590
aI49939830
aI85407995
aI187724250
aI1641148190
aI291672600
aI1596301968
aI1633181208
aI344667673
aI1375790539
aI24585143
aI536996833
aI1592398656
aI26333635
aI514824435
aI263301754
aI1009951508
aI1613357550
aI21530545
aI871828321
aI437937594
aI1572796868
aI1534369560
aI138255943
aI191334198
aI314281991
aI861950138
aI18392438
aI1538409192
aI1554078264
aI1551369308
aI104284098
aI556477388
aI543679678
aI50666935
aI35300045
aI462900946
aI15085627
aI1475745116
aI1453070851
aI332703608
aI1472070066
aI298205137
aI23993719
aI1149954571
aI48041449
aI159588734
aI58530308
aI147787382
aI463100829
aI141553070
aI302128211
aI956382744
aI73782019
aI28858121
aasS'obj'
p7
ccopy_reg
_reconstructor
p8
(ctweepy.models
User
p9
c__builtin__
object
p10
Ntp11
Rp12
(dp13
S'follow_request_sent'
p14
NsS'has_extended_profile'
p15
I00
sS'profile_use_background_image'
p16
I00
sS'profile_sidebar_fill_color'
p17
VDDEEF6
p18
sS'id'
p19
I1368090276
sS'verified'
p20
I00
sS'entities'
p21
(dp22
Vurl
p23
(dp24
Vurls
p25
(lp26
(dp27
g23
Vhttp://t.co/mwn85Zo3oa
p28
sVindices
p29
(lp30
I0
aI22
asVexpanded_url
p31
Vhttp://stocksaints.com
p32
sVdisplay_url
p33
Vstocksaints.com
p34
sassVdescription
p35
(dp36
g25
(lp37
sssS'profile_image_url_https'
p38
Vhttps://pbs.twimg.com/profile_images/3568731573/802b548199f8f1f19049398da2d56175_normal.jpeg
p39
sS'_json'
p40
(dp41
Vfollow_request_sent
p42
NsVhas_extended_profile
p43
I00
sVprofile_use_background_image
p44
I00
sVdefault_profile_image
p45
I00
sVid
p46
I1368090276
sVprofile_background_image_url_https
p47
Vhttps://pbs.twimg.com/profile_background_images/851249501/f75524c3bb7330c4a712d1b1c4ee8999.jpeg
p48
sVverified
p49
I00
sVprofile_text_color
p50
V333333
p51
sVprofile_image_url_https
p52
g39
sVprofile_sidebar_fill_color
p53
g18
sVentities
p54
g22
sVfollowers_count
p55
I434
sVprofile_sidebar_border_color
p56
VFFFFFF
p57
sVid_str
p58
V1368090276
p59
sVprofile_background_color
p60
VC0DEED
p61
sVlisted_count
p62
I6
sVstatus
p63
(dp64
Vcontributors
p65
NsVtruncated
p66
I00
sVtext
p67
V10 Helpful Personal Finance Tips That Won't Require Drastic Lifes... https://t.co/36e0vgJTfd $SBUX $NFLX
p68
sVin_reply_to_status_id
p69
Nsg46
L665959409315667968L
sVfavorite_count
p70
I0
sVsource
p71
V<a href="https://www.socialoomph.com" rel="nofollow">SocialOomph</a>
p72
sVretweeted
p73
I00
sVcoordinates
p74
Nsg54
(dp75
Vsymbols
p76
(lp77
(dp78
g29
(lp79
I93
aI98
asg67
VSBUX
p80
sa(dp81
g29
(lp82
I99
aI104
asg67
VNFLX
p83
sasVuser_mentions
p84
(lp85
sVhashtags
p86
(lp87
sg25
(lp88
(dp89
g23
Vhttps://t.co/36e0vgJTfd
p90
sg29
(lp91
I69
aI92
asg31
Vhttp://www.stocksaints.com/blog/12877/10_helpful_personal_finance_tips_won%E2%80%99t_require_drastic_lifestyle_changes
p92
sg33
Vstocksaints.com/blog/12877/10_\u2026
p93
sassVin_reply_to_screen_name
p94
Nsg58
V665959409315667968
p95
sVretweet_count
p96
I0
sVin_reply_to_user_id
p97
NsVfavorited
p98
I00
sVgeo
p99
NsVin_reply_to_user_id_str
p100
NsVpossibly_sensitive
p101
I00
sVlang
p102
Ven
p103
sVcreated_at
p104
VSun Nov 15 18:27:50 +0000 2015
p105
sVin_reply_to_status_id_str
p106
NsVplace
p107
NssVis_translation_enabled
p108
I00
sVutc_offset
p109
NsVstatuses_count
p110
I4903
sg35
VYour bridge to the New York Financial Information that matters most
p111
sVfriends_count
p112
I22
sVlocation
p113
V
p114
sVprofile_link_color
p115
V0084B4
p116
sVprofile_image_url
p117
Vhttp://pbs.twimg.com/profile_images/3568731573/802b548199f8f1f19049398da2d56175_normal.jpeg
p118
sVfollowing
p119
NsVgeo_enabled
p120
I00
sVprofile_banner_url
p121
Vhttps://pbs.twimg.com/profile_banners/1368090276/1366807875
p122
sVprofile_background_image_url
p123
Vhttp://pbs.twimg.com/profile_background_images/851249501/f75524c3bb7330c4a712d1b1c4ee8999.jpeg
p124
sVscreen_name
p125
VStockSaints
p126
sg102
Ven
p127
sVprofile_background_tile
p128
I01
sVfavourites_count
p129
I0
sVname
p130
VStockSaints
p131
sVnotifications
p132
Nsg23
Vhttp://t.co/mwn85Zo3oa
p133
sg104
VSat Apr 20 22:10:21 +0000 2013
p134
sVcontributors_enabled
p135
I00
sVtime_zone
p136
NsVprotected
p137
I00
sVdefault_profile
p138
I00
sVis_translator
p139
I00
ssS'contributors_enabled'
p140
I00
sS'profile_text_color'
p141
g51
sS'followers_count'
p142
I434
sS'profile_sidebar_border_color'
p143
g57
sS'id_str'
p144
g59
sS'default_profile_image'
p145
I00
sS'listed_count'
p146
I6
sS'status'
p147
g8
(ctweepy.models
Status
p148
g10
Ntp149
Rp150
(dp151
S'favorited'
p152
I00
sS'contributors'
p153
NsS'truncated'
p154
I00
sS'text'
p155
g68
sS'source_url'
p156
Vhttps://www.socialoomph.com
p157
sS'possibly_sensitive'
p158
I00
sS'in_reply_to_status_id'
p159
NsS'geo'
p160
Nsg19
L665959409315667968L
sS'favorite_count'
p161
I0
sS'lang'
p162
g103
sg21
g75
sS'created_at'
p163
cdatetime
datetime
p164
(S'\x07\xdf\x0b\x0f\x12\x1b2\x00\x00\x00'
p165
tp166
Rp167
sg40
g64
sS'coordinates'
p168
NsS'in_reply_to_user_id_str'
p169
NsS'source'
p170
VSocialOomph
p171
sS'in_reply_to_status_id_str'
p172
NsS'in_reply_to_screen_name'
p173
Nsg144
g95
sS'retweeted'
p174
I00
sS'place'
p175
NsS'retweet_count'
p176
I0
sS'in_reply_to_user_id'
p177
NsbsS'is_translation_enabled'
p178
I00
sS'utc_offset'
p179
NsS'statuses_count'
p180
I4903
sS'description'
p181
g111
sS'friends_count'
p182
I22
sS'location'
p183
g114
sS'profile_link_color'
p184
g116
sS'profile_image_url'
p185
g118
sS'notifications'
p186
NsS'geo_enabled'
p187
I00
sS'profile_background_color'
p188
g61
sS'profile_banner_url'
p189
g122
sS'profile_background_image_url'
p190
g124
sS'screen_name'
p191
g126
sg162
g127
sg1
I00
sS'profile_background_tile'
p192
I01
sS'favourites_count'
p193
I0
sS'name'
p194
g131
sS'url'
p195
g133
sg163
g164
(S'\x07\xdd\x04\x14\x16\n\x15\x00\x00\x00'
p196
tp197
Rp198
sS'profile_background_image_url_https'
p199
g48
sS'time_zone'
p200
NsS'protected'
p201
I00
sS'default_profile'
p202
I00
sS'is_translator'
p203
I00
sbs.