(dp0
S'following'
p1
(lp2
(lp3
I50695931
aI39768085
aI64643056
aI19408552
aI54277123
aI143181655
aI56820618
aI14931614
aI164162154
aI151777403
aI50872658
aL3111229459L
aI1078552154
aI1365372732
aI932013864
aL3407461571L
aI100731315
aI248497275
aL2963116990L
aL2204978575L
aL2465351252L
aI310701077
aI78650945
aL2961109689L
aI716503621
aI161047617
aI248310140
aL2976791284L
aL2601301270L
aL2862685193L
aI17497643
aI62100113
aI154784097
aI119149823
aI18248645
aI69313350
aI14638581
aL2908932442L
aI88124686
aI31622299
aL3298627281L
aI352831741
aI1486659211
aL2307428684L
aI329847396
aL3040189290L
aI171343255
aL3131540780L
aI44409004
aL2247048990L
aI1270811928
aI34384708
aI1424415042
aI252176459
aI38237581
aI1103931926
aI101224288
aI15754281
aI78138151
aI767313044
aI531941905
aL2870500551L
aI215395361
aI1344941736
aI454999318
aI218164320
aI272014060
aL3173926953L
aI243269745
aI288411000
aI186939618
aI256917362
aL2646251413L
aL2537195550L
aI1246660291
aL3120097078L
aI1883330089
aL2463487026L
aI1280304228
aL3181377677L
aL3198813677L
aI17377957
aI77518799
aI110595037
aL3094308923L
aL2864784916L
aI145423448
aI144211330
aI234040544
aI82222707
aI148864742
aI433138300
aI181713857
aI106914836
aI87581977
aI590622469
aI69116877
aI1729956373
aI859245212
aI266348091
aI317958352
aI446851998
aI460029850
aI15579316
aL2284175803L
aI378851810
aI370344947
aI407723064
aI222553273
aI172142093
aL2469552672L
aI348835584
aI211932242
aI191208148
aL2802773848L
aI39789183
aL2411474582L
aI75069067
aI17899109
aI161801527
aI167456441
aI771953828
aI190061386
aL3099084569L
aI757303975
aI50393960
aI364155552
aI24355988
aI606642244
aI1330457336
aI444921429
aI491186345
aI149975707
aL2318396524L
aI1536791610
aI1595891990
aI538537837
aI555401143
aL2779741827L
aI35914963
aL3056131611L
aI873003691
aI1447787113
aI65178900
aI209651181
aL2789667895L
aI73064524
aL3229590682L
aL3148508923L
aI197196731
aI152625311
aI256544641
aI488639353
aL2511699098L
aL2306168027L
aL2968747252L
aI576009298
aI995555982
aI303965345
aI241069760
aI868730376
aI482944316
aI104847530
aI90972300
aI219816491
aL2891201457L
aL2654845502L
aL3160125801L
aI209317974
aL2571222475L
aI237328433
aI40465740
aL3159391851L
aI847495303
aI149001721
aI726707412
aL3078553769L
aI584478682
aL3015124913L
aI282869158
aI704482057
aI449163439
aI525768212
aI203809978
aL2789186707L
aI100322017
aL2924320982L
aL3095197277L
aI1303099050
aI1944860143
aL2688853858L
aI54233469
aI1663685455
aL2773657891L
aI1417593426
aI1854391896
aI942295237
aL2435077778L
aL2329247971L
aL2436995011L
aI146989389
aI279317704
aI1413012800
aI399896149
aI102804459
aI457821018
aI381458487
aI119200325
aI329327007
aI1186764247
aI1491153210
aI1081149133
aI39469544
aI76508157
aI988638973
aI1350315901
aI70234957
aL2164994875L
aL2346928474L
aI1009462879
aI1615910971
aI246937023
aI322211841
aI465962955
aI126755463
aL2494185703L
aI564044821
aI762162229
aL2366822780L
aL2830065940L
aL2670424238L
aI1055626538
aL2793017745L
aI36094161
aI172263483
aI870770802
aL2718632034L
aI407769733
aI166427026
aI329727902
aI293007896
aI1642054652
aL2622014534L
aI598889458
aI1624031852
aL2565535354L
aI396839161
aI386110772
aI1145153726
aL2200277102L
aI298097587
aI1319850361
aL2280706424L
aI205011496
aI351921957
aL2482146205L
aI313913938
aI147660512
aI104450382
aI1646750426
aI296624784
aI609304229
aI1483213278
aI1106620200
aI194068300
aI411412874
aL2557703906L
aI246771600
aI19169157
aI351953986
aI300135299
aI455165970
aI148445725
aI65463088
aI555878161
aI145182795
aI210605607
aI392752673
aI859588692
aI45604676
aI965704518
aL2472445236L
aI257174007
aI89473738
aI61937421
aI31012677
aI67444698
aI179717438
aI427978089
aI214649875
aI338634342
aI134726292
aI358300044
aI1219631611
aL2241082399L
aI73576985
aI1966997371
aI72936647
aI191417815
aI1571180659
aL2284471190L
aI392983125
aI10911792
aI606281964
aI252645232
aI72955172
aI807899797
aI603667105
aI538726848
aI474859058
aI131276801
aI871028390
aI601498962
aI148353426
aI321155981
aI378737569
aI283653542
aI184239682
aI172860677
aL2345973251L
aI368273551
aI155164046
aI1422808718
aI126069651
aI595202512
aI1566647725
aL2353368493L
aI213551032
aI56662850
aL2320411801L
aI39304351
aL2358994218L
aI240816796
aL2361516866L
aI965748104
aI194210454
aL2175183727L
aI239488730
aI1544101068
aI443102794
aI481364641
aI1040867167
aI183539421
aI305675136
aI853252350
aL2386279355L
aI429284290
aI1978995841
aI64223915
aI1118358312
aI150793320
aL2251661327L
aL2398379106L
aL2397096662L
aL2429678909L
aI103064822
aL2411838296L
aI428272905
aL2455156312L
aI1888443792
aI935876274
aL2275596506L
aI441404588
aI581848142
aL2433157609L
aL2435105401L
aL2411458663L
aI120556973
aI867892423
aL2386744422L
aL2433340114L
aL2317787659L
aI1377870900
aL2431229258L
aL2434818996L
aL2458953962L
aI266343821
aI493678540
aI199851580
aI18669246
aI344126917
aL2469866778L
aI782901812
aL2524439073L
aL2246350444L
aL2473096968L
aI148558234
aI570870479
aI165438247
aI367695390
aI321735080
aI139481894
aI231893715
aL2242615135L
aI793809920
aI517925608
aI447924606
aL2375731448L
aI330790826
aI551573256
aI229156265
aI106231214
aI111933542
aI18265605
aI263780425
aI97963881
aI1533299365
aI103124628
aI37915447
aI220958101
aI130699423
aI241131134
aL2273954439L
aI58417540
aI17997341
aL2485091595L
aI132178426
aI722170892
aI76914701
aI20624857
aL2460127130L
aI24192269
aL2395405795L
aI18238467
aI75480370
aI304287573
aI14858280
aI343447873
aI50982086
aL2409389624L
aI20509689
aI27515801
aI16308919
aI303777084
aI61119315
aI28534854
aI1519118797
aI847705135
aI104143852
aI805198934
aI1390136905
aI22773484
aI156955601
aI519309217
aL2380787690L
aI518898272
aI125118320
aI357971173
aI1187158074
aI329896068
aI264856110
aI55033131
aI1948885129
aI297433421
aI817750058
aI1494318619
aI1409055956
aL2335411586L
aI552533220
aI254167920
aI73076641
aI253428363
aI360554753
aI90372333
aI470426747
aI296149070
aI325230983
aI1097983099
aI1122395209
aI118676284
aI59521836
aI1694475504
aI97133993
aI849969704
aI328704945
aI262389559
aI377163038
aI257717191
aI45526681
aI197142563
aI625086213
aI1287554504
aI365328468
aI251109629
aI533151453
aI965741665
aI485325459
aI175273213
aI345257174
aI108857268
aL2163827715L
aI535039589
aI73532880
aI130121006
aI915287041
aI1144471680
aI45317102
aI179202323
aI500711588
aI122991439
aI1415603780
aI956055421
aI138921646
aI18999059
aI90824570
aI158185619
aI1093871028
aI275552383
aI176163836
aI129373706
aI151156979
aL2330095767L
aI395016392
aI101814279
aI121248417
aI138708473
aI1638631634
aI184963714
aI821062382
aI444364318
aI16134540
aI21328656
aI527508915
aI373373336
aI426159377
aI25485897
aI209811713
aI14143624
aI491171103
aI36753271
aI31143957
aI14049061
aI15091022
aI113400818
aI182485662
aI45937003
aI455024343
aI40705626
aI17170147
aI19788277
aI18768513
aI133792190
aI27114180
aI76420529
aI226231298
aI303994581
aI21832608
aI50706891
aI564277420
aI104590024
aI78606921
aI19356263
aI205770556
aI773298642
aI17500178
aI1178011
aI23097023
aI519795737
aI84296804
aI299890254
aI15091978
aI85112312
aI607867793
aI589419748
aI32706726
aI18161913
aI14342661
aI684983
aI74161330
aI76998171
aI94142495
aI104609993
aI63827192
aI577537350
aI17909465
aI15640533
aI16519133
aI41353531
aI40297195
aI117685967
aI607099840
aI454313925
aI31176345
aI20510539
aI17463923
aI22046686
aI21323268
aI745860649
aI242456585
aI44886859
aI61636429
aI299798272
aI307589282
aI27613071
aI23967554
aI352640163
aI7712452
aI14342564
aI14755492
aI67662899
aI334050411
aI17683011
aI63322658
aI16669075
aI381112363
aI405172517
aI97509924
aI7117962
aI590412316
aI98047213
aI860522688
aI23995748
aI256167210
aI22665788
aI236816297
aI33546465
aI17351972
aI456245946
aI487118986
aI52529345
aI22353388
aI46770950
aI913598166
aI394408426
aI422880849
aI88748190
aI54681870
aI151072173
aI883363909
aI1269677569
aI220395136
aI260202978
aI307116304
aI101355104
aI1330113366
aI454830544
aI55863697
aI71573592
aI289432543
aI75863317
aI168025942
aI968897964
aI72725493
aL2167245217L
aI34399354
aI283636847
aI83605118
aI267863673
aI275586794
aI348547332
aI294700895
aI66737444
aL2265963997L
aI32819279
aI284888773
aI304081886
aI15528561
aI267018757
aI181746557
aI123000942
aI279270658
aI437573882
aI244051002
aI577520067
aI119595187
aI284764933
aI103172393
aI95826481
aI1019384437
aI73194799
aI105881723
aI811961251
aI96780039
aI267455567
aI49436070
aI59907842
aI66883173
aI254157909
aI91342186
aI375756831
aI93997084
aI197198139
aI122840315
aI251814332
aI254245514
aI240051781
aI191106356
aI576571122
aI69174906
aL2220917514L
aI523780093
aI114933610
aI151679679
aI560065789
aI465021194
aI20594793
aI27185174
aI150152183
aI473415229
aI169704509
aI540909122
aI204701526
aI221399199
aI318008118
aI188532584
aI125841391
aI1539059905
aI109690731
aI104842847
aI188972013
aI67431143
aI713356466
aI45501341
aI48275796
aI347134838
aI176304327
aI14496886
aI340405668
aI144005944
aI574309129
aI909249817
aI16288559
aI59901214
aI1571543791
aI1014524408
aI846044575
aI334836824
aI275943064
aI1312353919
aI73775901
aI98931018
aI238238767
aI1016174317
aI259306481
aI807121820
aI35012689
aI93645416
aI10051052
aI90418064
aI150076955
aI563198066
aL2252449124L
aI304901344
aI1533844296
aI94150412
aI70214437
aI285683540
aI1616061134
aI498094737
aL2298809134L
aI187583500
aL2190962029L
aI123532857
aI1958920518
aI269974327
aI335627786
aI1202126533
aI1003316102
aI846255662
aI184505877
aI61617766
aI109937649
aI571306284
aI575809124
aI621450118
aI185277435
aI751355984
aI1402121718
aI1869197444
aI1400391210
aI1262637342
aI803808722
aI358884797
aI1384676150
aI505164236
aI149989152
aI83974268
aI1212336204
aI35270873
aI1024132645
aI84603059
aI298789161
aI451688659
aI121482708
aI38216191
aI296216301
aI291294443
aI270685835
aI346818724
aI215982149
aI129666594
aI378300630
aI575067227
aI220110147
aI1495879051
aI255479741
aI81490266
aI151954843
aI1897534616
aI564916961
aI1887098130
aI1702946743
aI615319355
aI1313491190
aI1928612546
aI278626443
aI434354423
aI479956814
aI125557402
aI1261083656
aI271136073
aI148821329
aI1924764816
aI1931509093
aI704386055
aI990824281
aI286767494
aI1856645706
aI1954332397
aI246228006
aI1916164886
aI728719406
aI1961531401
aI234950624
aI884597624
aI198687643
aI107785744
aI1028363683
aI1066949240
aI1623514472
aI188047022
aL2155197403L
aL2159997810L
aL2154911301L
aL2163658741L
aI1951488228
aI1837964425
aI1262464098
aL2165829951L
aL2171193308L
aL2174597233L
aI592418452
aL2177470718L
aL2165518152L
aL2166316870L
aI124332359
aI1915166455
aI43038373
aI1223631686
aI1140012049
aI202781306
aI1297162741
aI80462161
aI169954352
aI362102129
aI1424001709
aL2196707750L
aI824259583
aI327691521
aI421161536
aI245908498
aI94159490
aL2212361257L
aI861956678
aI44513878
aI1515452190
aI1023318067
aL2184356513L
aL2231822670L
aI138186349
aI1422388699
aI128666718
aI1068541394
aI502785577
aI702164584
aI335462063
aI1543728949
aI437696837
aI1023487891
aI130589814
aI257202520
aI173827318
aI37698514
aI442053187
aI1115233538
aI3069611
aI568651001
aI80363405
aI1034107093
aI1423824241
aI487247111
aI364135687
aI49888507
aI1414060092
aI99363123
aL2319529104L
aI496564649
aI1447331425
aI303201709
aL2152000763L
aI486606149
aL2215500008L
aI552550562
aI263685549
aI87975521
aI67420860
aI1007400518
aI628248463
aI1027903909
aI241259224
aI24438725
aI162171015
aI20478883
aI62908243
aI28266730
aI353922759
aI15085492
aI19605160
aI153902756
aI23636362
aI19187416
aI308623653
aI162818476
aI50448580
aI18713297
aI34990445
aI25113905
aI1436475218
aI787567202
aI95621217
aI35772042
aI1163540090
aI880937688
aI144221593
aI300952036
aI29491488
aI20064348
aI27099428
aI17136419
aI32422915
aI151029171
aI14790432
aI113030999
aI56772537
aI212818041
aI297784596
aI160916877
aI212165532
aI130574455
aI91121937
aI56735159
aI249976489
aI1081757592
aI499966505
aI122976019
aI52420670
aI105976753
aI18647752
aI168748104
aI156747817
aI20160893
aI19894061
aI20220277
aI104893909
aI158427758
aI74552263
aI54446384
aI54445020
aI533138233
aI1451869814
aI56724209
aI329976392
aI79541275
aI19556746
aI1929095034
aI24725278
aI73206697
aI31896742
aI45842973
aI58875245
aI19093746
aI137472360
aI20010127
aI1967738366
aI69122101
aI1927114338
aI439826784
aI70511512
aI92561414
aI17349381
aI26071396
aI159555441
aI61235449
aI17918065
aI113572649
aI820927544
aI40623989
aI93687464
aI111955325
aI204496882
aI290102129
aI1950763159
aI1578961946
aI158420771
aI36976702
aI554494426
aI829732692
aI313846388
aI153907479
aI53100611
aI1376073882
aI24936092
aI22915667
aI588898161
aI189207470
aI64461615
aI38485212
aI101489351
aI355002467
aI205910808
aI151996404
aI1206451206
aI269092666
aI1271978730
aI206020230
aI381145279
aI516426055
aI1867893876
aI339659349
aI226288831
aI249894025
aI15115024
aI156718176
aI1656555312
aI263160472
aI301148535
aI1523466924
aI112747953
aI181271527
aI155334789
aI274966473
aI289326126
aI215635660
aI555938870
aI948584244
aI55093847
aI376480722
aI131574396
aI376907229
aI455805401
aI51241574
aI2467791
aI87818409
aI2097571
aI92045489
aI21210620
aI137732031
aI81267687
aI742143
aI49889940
aI809898038
aI807095
aI821692
aI71781269
aI223330116
aI84746865
aI155741380
aI825926101
aI69292432
aI19483258
aI219282495
aI1427664512
aI1264712994
aI1092802070
aI305917079
aI619364085
aI60920113
aI415901786
aI164368516
aI354323593
aI149633982
aI338214287
aI471640264
aI125394612
aI891437911
aI92492730
aI485948547
aI1654059949
aI1849864501
aI1422000516
aI962899699
aI933296684
aI150730689
aI1477762092
aI617459633
aI174489621
aI455205632
aI1730970175
aI38481918
aI539335571
aI1649064847
aI96051164
aI1597256742
aI826076917
aI386146395
aI1884080773
aI770433992
aI767741215
aI263987797
aI465109775
aI1047981044
aI734769349
aI281374235
aI1711222988
aI1727180814
aI304123416
aI165269619
aI1334457625
aI1717774609
aI222121184
aI208740096
aI5175311
aI496072480
aI164848128
aI857265673
aI602943555
aI207141054
aI149517269
aI1331883474
aI1846829574
aI264503523
aI1623572118
aI274303348
aI1142011736
aI1708771014
aI1109232589
aI109714931
aI583285106
aI180643738
aI259331572
aI241187514
aI345098678
aI274525869
aI1606409042
aI413396748
aI84781408
aI291683928
aI325283826
aI358753275
aI618229165
aI618248455
aI871925090
aI954566096
aI233754487
aI525130695
aI546269725
aI921095018
aI372380187
aI1625367558
aI1372379478
aI747834763
aI1463972233
aI196390656
aI735451831
aI473633881
aI173587958
aI1549468910
aI178432723
aI208681596
aI1704686426
aI176497482
aI1336600350
aI556988386
aI1726763917
aI173516566
aI1898672378
aI145718209
aI1523250379
aI1286710279
aI328793395
aI396095683
aI617724103
aI606740224
aI237806669
aI428776453
aI1671484140
aI298392544
aI1104324229
aI130844328
aI582459393
aI1092135390
aI232916269
aI173673675
aI135730980
aI84013996
aI1884000618
aI1120540202
aI170955445
aI1071068378
aI87327779
aI180505807
aI328747494
aI130122917
aI349968963
aI783214
aI38741679
aI555684585
aI870616478
aI2459371
aI137981443
aI2425151
aI20450173
aI52484614
aI13058772
aI85426644
aI201774646
aI17093617
aI25537857
aI163321157
aI131047605
aI318419630
aI143780439
aI317231068
aI253176236
aI127683262
aI155698993
aI284783298
aI182644738
aI163154530
aI178045174
aI731430768
aI216649647
aI145240604
aI326807652
aI115536644
aI576657975
aI117257483
aI131967942
aI126782533
aI94615190
aI80070042
aI870930445
aI63976147
aI627320911
aI89843305
aI66772029
aI969296744
aI129790289
aI8935912
aI130378300
aI159620450
aI126485690
aI91870798
aI151953199
aI121815723
aI7775542
aI29251066
aI201715162
aI270168698
aI124539002
aI128958788
aI39261061
aI533573263
aI132694351
aI44655711
aI872246778
aI128005971
aI93905966
aI577576491
aI51806144
aI253673393
aI11162772
aI103686885
aI299896959
aI194376306
aI254341885
aI276603636
aI219992998
aI159570066
aI145239732
aI164791463
aI110331469
aI205069185
aI377117086
aI288653105
aI277074970
aI213624880
aI64274607
aI150123282
aI595641302
aI160626775
aI840612122
aI120930513
aI167085672
aI1249556881
aI171650631
aI214321041
aI1727193464
aI1726489134
aI224813194
aI329822888
aI424975488
aI1733717875
aI1260738997
aI417856532
aI284085997
aI90428011
aI194171433
aI292539295
aI963864264
aI936744504
aI1869153667
aI570660451
aI1068678224
aI1847050939
aI769731756
aI491837981
aI185402244
aI156434423
aI357225293
aI339265290
aI113211566
aI266189655
aI578847748
aI509139479
aI183997763
aI735345480
aI142704203
aI108196938
aI102094084
aI175876963
aI69349832
aI205319282
aI159916083
aI43780902
aI1252764865
aI22170482
aI160609570
aI127898349
aI22033957
aI142796658
aI190443872
aI559096632
aI244175447
aI102084011
aI332918283
aI310586974
aI19902823
aI153243904
aI155396001
aI51890039
aI163088565
aI234032767
aI41587357
aI123260305
aI560669494
aI625393299
aI144712423
aI153973953
aI305764459
aI176540641
aI137486112
aI185862047
aI700183560
aI278822771
aI130673615
aI152325528
aI232260547
aI131263336
aI242941996
aI133184048
aI51714340
aI16406372
aI32417910
aI202282454
aI113381896
aI267939039
aI346373983
aI357597780
aI209780362
aI144929758
aI137548920
aI15329526
aI208575740
aI47466424
aI176414763
aI373740319
aI19292868
aI304577661
aI60916256
aI213108676
aI266112611
aI11127482
aI145992645
aI120128401
aI121183700
aI291827307
aI19923515
aI57983020
aI29977367
aI105082141
aI57986415
aI65369125
aI238536756
aI88722362
aI95516514
aI26729931
aI38871237
aI29749448
aI15648827
aI146611282
aI87808186
aI149096668
aI14436030
aI7996082
aI260773265
aI176979194
aI314809933
aI37093819
aI276169885
aI140228130
aI430072775
aI500704345
aI151229246
aI137076289
aI145677457
aI66943816
aI150662889
aI90897983
aI133954472
aI139953366
aI146589502
aI206838242
aI327524667
aI45840788
aI91361327
aI359791727
aI20552192
aI18898168
aI147969023
aI326287426
aI582697292
aI182923335
aI46939260
aI238073324
aI194910498
aI177027862
aI234499737
aI197812039
aI319771376
aI56148100
aI252399946
aI135728191
aI131493075
aI319712090
aI338978204
aI268913086
aI353334973
aI343698537
aI37085345
aI249897689
aI133506131
aI373665024
aI160580462
aI303456110
aI115158755
aI358852357
aI306256468
aI305344243
aI298848978
aI154645605
aI254318314
aI478864373
aI490409993
aI176194298
aI517081091
aI37523737
aI313618935
aI143279476
aI172519730
aI268065570
aI266514738
aI540042982
aI67676930
aI561598596
aI296406987
aI628868043
aI156627830
aI635061844
aI637033711
aI629169063
aI14692572
aI159166700
aI140273573
aI350546110
aI760629475
aI594545542
aI406230488
aI798714296
aI818512369
aI155256256
aI179604506
aI528236464
aI633087730
aI730813243
aI397661197
aI314389073
aI480622396
aI478660323
aI257126887
aI268534869
aI465612447
aI858083472
aI1193287416
aI1160564059
aI974750738
aI629307444
aI251307624
aI270503570
aI1305857514
aI25552702
aI182663468
aI1330141700
aI1334823031
aI1145473460
aI1340154979
aI1351835646
aI299131665
aI140443616
aI1377697946
aI548762557
aI1375506992
aI132228670
aI1397348654
aI624162636
aI1271035388
aI1442682121
aI108468772
aI1465363926
aI1471176972
aI1339753430
aI1050230802
aI584050171
aI1523371393
aI1477999147
aI1531457424
aI213913204
aI1553508054
aI1557145298
aI1557554058
aI1560997939
aI556641231
aI60443696
aI1599550914
aI75465012
aI1590569522
aI1408065673
aI1617136591
aI103281390
aI1471451767
aI1674220184
aI172350492
aI231767127
aI1010483634
aI1563222853
aI403461713
aI91152265
aI382682677
aI1704829591
aI1070857758
aI244280163
aI307292747
aI151589631
aI10012122
aI18245853
aI144990834
aI175881965
aI191553994
aI10228272
aI50434933
aI33884545
aI78227291
aI237562389
aI18230855
aI61858214
aI87180061
aI150903507
aI429941233
aI110796288
aI151582578
aI168918626
aI158536904
aI70468535
aI17814160
aI161280980
aI18001922
aI66768596
aI134480384
aI1183717286
aI265945808
aI137568918
aI180990597
aI288259001
aI148547437
aI85851159
aI18466403
aI337425958
aI180076191
aI17376632
aI146459939
aI525264466
aI60178043
aI128761808
aI179675345
aI29452554
aI127895424
aI164774579
aI259681081
aI170843906
aI36644927
aI175157212
aI101746003
aI259916312
aI17946159
aI166122395
aI500317946
aI183408601
aI12895152
aI480711668
aI295975123
aI143175654
aI1308559987
aI174010839
aI45136035
aI33286154
aI280095492
aI66543262
aI142532652
aI135675218
aI33936362
aI16492551
aI175184120
aI258840924
aI59604175
aI150884948
aI100014747
aI141286250
aI145256578
aI25352511
aI19088871
aI87749445
aI79556841
aI148062771
aI143689068
aI627159592
aI274144952
aI255586348
aI142526936
aI195691612
aI21027607
aI173263956
aI198756401
aI24732020
aI102581765
aI76133133
aI144805398
aI155669017
aI297144638
aI156430095
aI336748693
aI177677440
aI216821966
aI15973392
aI208413101
aI121482054
aI174368061
aI175824869
aI51460564
aI155598890
aI142802581
aI32420070
aI50126679
aI813286
aI613508372
aI15384291
aI789856765
aI18927538
aI153169998
aI143852870
aI574546641
aI52912093
aI122136236
aI71006713
aI156523002
aI500964169
aI197258094
aI78232917
aI77139152
aI121173998
aI153946199
aI258393807
aI188137680
aI62815290
aI39044759
aI79005608
aI85711955
aI211225348
aI38698045
aI180867212
aI29172652
aI43736407
aI128334331
aI29198850
aI101344367
aI335492355
aI173343746
aI259205325
aI173199543
aI66856210
aI61774588
aI27582547
aI76256934
aI111290278
aI139477449
aI92284311
aI126849834
aI213615650
aI162955667
aI170366770
aI238364240
aI137197498
aI50026327
aI232015570
aI150381553
aI107293155
aI113069965
aI114523769
aI139516827
aI163724931
aI26965137
aI61079564
aI141419186
aI174824963
aI155220993
aI58935054
aI172521832
aI72764447
aI179155521
aI177663759
aI129820315
aI126186346
aI166021227
aI183100936
aI34157839
aI183619338
aI186419290
aI70543082
aI46577442
aI188870381
aI180505004
aI195972500
aI190024467
aI85906392
aI199947464
aI147668894
aI155783775
aI22270793
aI201446274
aI140299028
aI20565056
aI189740158
aI196725535
aI159969314
aI205809609
aI211710056
aI208420757
aI164791629
aI153201219
aI138019732
aI167917988
aI218224333
aI173670279
aI197202744
aI117855198
aI228737400
aI153852427
aI38712887
aI195357756
aI63565641
aI69966443
aI149284162
aI22766802
aI244531922
aI118578729
aI211189907
aI53808544
aI174219045
aI79279169
aI259132092
aI153809065
aI181588998
aI171539352
aI97929367
aI19722366
aI136881246
aI61263979
aI158906112
aI164335332
aI121000528
aI135224117
aI72053092
aI166022063
aI32867314
aI96629035
aI83766099
aI62584305
aI178086357
aI124599878
aI99497061
aI93536280
aI67334466
aI171468523
aI130122646
aI17028456
aI143529859
aI43814969
aI139195202
aI139556944
aI132704571
aI145002782
aI116313517
aI83719928
aI119175667
aI45716518
aI83941492
aI172791159
aI135042050
aI28095599
aI146234589
aI7918722
aI77338274
aI148194379
aI163516788
aI145685744
aI19029918
aI82363407
aI115392153
aI190037399
aI182925466
aI9053502
aI143546328
aI181408748
aI139264852
aI17337093
aI75114336
aI156501558
aI58613
aI143418323
aI143502765
aI67415282
aI146150006
aI66838712
aI57152295
aI8565932
aI103614732
aI72603359
aI36391714
aI148752676
aI151198642
aI69113673
aI117185027
aI35776604
aI7650242
aI167253149
aI64407857
aI27515656
aI23677018
aI140856303
aI138814032
aI150372271
aI114845248
aI31556297
aI139092348
aI144800186
aI54414081
aI37529477
aI80396134
aI79749136
aI22285286
aI177342424
aI133722469
aI31237389
aI69800760
aI38507270
aI130535563
aI117251043
aI101884357
aI146803524
aI35733038
aI137810514
aI128637475
aI142684449
aI168596485
aI24342206
aI142821215
aI33989170
aI114510872
aI124779370
aI123916637
aI77207659
aI119998164
aI42156961
aI118756218
aI41354969
aI62619172
aI18466094
aI115140176
aI40858089
aI31133330
aI48345780
aI74615519
aI130277239
aI38078904
aI148472016
aI158944663
aI151645123
aI111418291
aI109615031
aI134330803
aI11404912
aI125175859
aI105223609
aI150363877
aI149191616
aI93924044
aI131996819
aI57195485
aI29622459
aI35778170
aI36787113
aI37494271
aI18143118
aI19232096
aI109040582
aI105180935
aI13623532
aI5988062
aI17429002
aI108968018
aI42616335
aI77288753
aI40017971
aI69416519
aI25992212
aI86219321
aI76326090
aI7809402
aI16294264
aI33952069
aI48814448
aI16160650
aI27011234
aI8105922
aI42995297
aI6089082
aI20816312
aI8545122
aI17622198
aI33927228
aI38456951
aI11816412
aI44126150
aI8999622
aI16672021
aI35729682
aI37301272
aI62806842
aI8732462
aI7772992
aI17027964
aI57037088
aI57370965
aI60647069
aI20455887
aI82403377
aI69403126
aI48568308
aI43989092
aI759251
aI34455479
aI134856584
aI134924496
aI143430477
aI7684742
aI144801356
aI77009449
aI7827962
aI33933259
aI87741293
aI2655791
aI50065150
aI85846217
aI16784012
aI140538938
aI38494089
aI24900072
aI141317156
aI41300525
aI124510155
aI17828368
aI148078014
aI140935414
aI72356529
aI72357071
aasS'followers'
p4
(lp5
(lp6
I255249548
aI73576985
aL4202373808L
aI295749317
aI106760962
aI8527372
aI1525812288
aI250362250
aI1897969111
aI461558727
aL4127285584L
aI270588139
aL4116096623L
aL4156840900L
aI53132943
aL2548244049L
aI258305857
aI781373150
aI1365372732
aI212935298
aI1115323165
aL3314795460L
aI1251873379
aI1568289332
aL4068863477L
aI50872658
aL3111229459L
aI1078552154
aI17349381
aL4046545874L
aL3497303601L
aI269744755
aI1575882122
aL2596635817L
aI52944689
aI932013864
aL3188020517L
aL2209881182L
aL2999572835L
aI97480646
aL4019183519L
aI248310140
aL2524407665L
aI1246198045
aI267268378
aI153068983
aL3260240622L
aL3411210130L
aI562479337
aL3039267957L
aI344122636
aL3250902325L
aI61774588
aI104565957
aI1167488364
aI627504167
aI495072523
aI370564585
aL3367179922L
aL3401802033L
aI358131078
aL3522565516L
aI244681832
aI348563780
aI1707552097
aI1120555274
aL3120274707L
aL2491845636L
aL3754398912L
aL3817895355L
aI126485690
aI630974560
aL3753514096L
aI67363665
aL3535972992L
aI34842246
aI948019093
aL3483408255L
aL2563543026L
aI217087861
aI205830898
aL3432135975L
aL3412556464L
aI281107611
aL3546250036L
aI314809933
aL3663051616L
aL2722158312L
aI1499977382
aL3198813677L
aI136054798
aL3379164785L
aI610378546
aI206775692
aI1489442298
aL3545348967L
aI78513662
aI10911792
aL3520561875L
aI185906955
aL2503075388L
aI1620629760
aI608154898
aL3515277802L
aI1424516707
aL3388824272L
aI334438741
aI366702423
aI209343385
aI223697187
aL3362347154L
aL3438814379L
aI70676152
aL3429990647L
aI41814560
aL3130714911L
aL3418826722L
aL3324983514L
aL3302076410L
aL3431431907L
aI495705238
aL2737585834L
aI858256147
aL3411138940L
aL3421418939L
aL3420622829L
aL3419245090L
aI137363034
aL3245792735L
aL3411863403L
aL3310079162L
aL3166828755L
aI261740076
aL3370053274L
aI451067770
aI328605492
aI110812513
aL3305334444L
aI104494175
aL3400864667L
aI189325580
aL3266672810L
aL2204978575L
aL3395416907L
aL3308760549L
aL3392720661L
aI419628252
aI222553273
aI316018090
aL3313383526L
aL3244239880L
aI611750346
aI353102625
aL3294172877L
aL3382079271L
aI91813268
aL2956897570L
aI220518165
aI248271833
aL3226194971L
aI234950624
aL3373270233L
aL3277850882L
aI240893766
aI948022404
aL3257945622L
aI1572839750
aI165438247
aL2247048990L
aI248497275
aL3365364617L
aL2307428684L
aI39915129
aI352831741
aI1163177353
aI147773698
aI1424415042
aL2512837633L
aI318419630
aL3024070931L
aI218164320
aI1707620066
aI531941905
aI98076196
aI20478883
aL2982846489L
aL2646251413L
aI811318963
aL3099084569L
aL3341859993L
aL2954438901L
aL2802773848L
aL3094308923L
aI1883330089
aL2843125042L
aL2537195550L
aI378851810
aI211932242
aI190061386
aL2709817597L
aI446666543
aL2966948387L
aL3244480375L
aL2980071897L
aI137882564
aI349274330
aI1006152714
aL3317830126L
aL3317810027L
aI78650945
aL3294929969L
aI195487215
aL3307699648L
aI1486659211
aL3226237270L
aL3156137721L
aI1712905626
aI726973122
aL2201446952L
aL3304122335L
aL2318396524L
aI940472166
aL2986416688L
aL2558897483L
aL2980121969L
aI360669461
aL3056131611L
aI65178900
aL3295733669L
aL2321587110L
aL3262068928L
aL2353729854L
aL2677824081L
aI771773809
aL3037060863L
aI397253649
aI63499182
aL3229590682L
aI267969188
aL2789667895L
aL2728412814L
aL3167673961L
aL2306168027L
aL2511699098L
aI241069760
aI352640163
aL3091467088L
aL3036653139L
aI122767181
aI303965345
aI1652766116
aI473544721
aI868730376
aI149001721
aL3148508923L
aI93159121
aL2718078519L
aL2891201457L
aL2737640616L
aL2370266972L
aI29452554
aI219816491
aL3160125801L
aI64316330
aL3188743907L
aI704482057
aI161435744
aL3182537422L
aI605879653
aI40465740
aI1094616632
aI1948885129
aL3078553769L
aL2924320982L
aI117496910
aI584478682
aL3175257885L
aI923346415
aI87022679
aL2855924976L
aL3173288253L
aL3159391851L
aL2571222475L
aI626693531
aL3167471249L
aL2375534576L
aL2182121200L
aI1663685455
aI1414044732
aL2675696478L
aI1303099050
aI462742197
aI52339711
aI474463710
aL2355237091L
aI1417593426
aI350710136
aL3136989186L
aI47743525
aI267793282
aI1407663882
aL3115370902L
aL3008897461L
aI373740319
aL3108951225L
aI810602443
aI76749984
aL2566056421L
aI178931596
aI1280298740
aL3041388375L
aI54233469
aI1288470248
aI1571180659
aL3083975530L
aL3080288584L
aI933002180
aI216326987
aL3071093477L
aI193552759
aL3066387856L
aI311783706
aI172388371
aI308746133
aL2543902755L
aI942295237
aL2167245217L
aL2928110223L
aI61877856
aI111932067
aL3026462314L
aI73532880
aL2815376346L
aI569189945
aL2436995011L
aL2435077778L
aI1031333580
aI50071234
aL2956913147L
aL2906329845L
aL2926943230L
aL2918929455L
aI222270313
aL2911492545L
aL2905562475L
aI1310238595
aL2893798487L
aL2891174211L
aI129647849
aL2520114503L
aL2863475307L
aI1009462879
aL2864784916L
aI198425781
aL2866076601L
aI161118169
aI156955601
aI457821018
aI76508157
aI1491153210
aI246937023
aI102804459
aI1081149133
aI329327007
aL2859353355L
aL2657192767L
aL2308240552L
aI370291576
aI425522251
aL2829526060L
aI198526689
aL2497281337L
aL2830065940L
aL2823485141L
aI221462757
aI276605365
aI135896362
aL2632726833L
aI1028767914
aI61057806
aL2793017745L
aL2670424238L
aI371349427
aL2789186707L
aL2180547666L
aL2831610156L
aI101841457
aL2433167246L
aI613349006
aL2780490699L
aI86869491
aL2370720396L
aI68514977
aL2765921901L
aI547112813
aI626833149
aL2764320717L
aI632307555
aL2790914335L
aL2214629030L
aL2760059188L
aI278529342
aI1050713377
aI928914961
aI1537810164
aI929902166
aL2772065738L
aL2767406443L
aI101344367
aI168025942
aI119233203
aI180632348
aI870770802
aI101955260
aI902986513
aL2526812950L
aI1476409340
aI425470693
aL2732039988L
aI852155550
aL2723830686L
aL2408641288L
aL2718632034L
aI1125406591
aL2452370491L
aI396839161
aL2200277102L
aI1642054652
aI1145153726
aL2696991204L
aL2199778777L
aI205541586
aI1884080773
aL2686775748L
aL2686101356L
aI123955962
aI1555048334
aL2673614017L
aI494604637
aI301683013
aI97963881
aL2654845502L
aL2552050792L
aL2543583607L
aI117472771
aI859588692
aL2622014534L
aI125394612
aL2482146205L
aI98931018
aI1202126533
aI19169157
aI317659976
aI147553210
aI1553944248
aI347737582
aL2565535354L
aI67662899
aI119903920
aI596327800
aI24192269
aI121550667
aL2447774144L
aI62817776
aI1357694490
aI145182795
aI471640264
aI1624031852
aI540258228
aL2541448807L
aL2547004158L
aI437058930
aI729013826
aL2539720669L
aI116425335
aL2337035427L
aI303777084
aI340405668
aI100911328
aI38685278
aI402914706
aI392752673
aI767958998
aL2216425332L
aL2523907454L
aL2352723728L
aL2472445236L
aI214649875
aI559096632
aI76503697
aI484931424
aI257623954
aL2510444933L
aL2482405357L
aL2498987581L
aI231893715
aI722170892
aI321735080
aI330790826
aI269974327
aI367695390
aI570870479
aI148558234
aI147660512
aL2246350444L
aL2524439073L
aI782901812
aL2469866778L
aI73076641
aI28534854
aI18669246
aI199851580
aI493678540
aI204701526
aL2458953962L
aL2434818996L
aL2460127130L
aI519309217
aL2431229258L
aI1377870900
aL2317787659L
aI867892423
aI120556973
aL2411458663L
aI103124628
aL2380787690L
aI125118320
aL2435105401L
aI329896068
aL2433157609L
aI581848142
aI441404588
aL2275596506L
aI935876274
aI1888443792
aI1409055956
aL2455156312L
aI428272905
aI22773484
aI121173998
aI1533299365
aI793809920
aI517925608
aL2375731448L
aI79005608
aL2411838296L
aL2409389624L
aI552533220
aI103064822
aL2429678909L
aI285683540
aL2397096662L
aL2398379106L
aL2251661327L
aI817750058
aL2395405795L
aI150793320
aI1118358312
aI470426747
aI325230983
aL2335411586L
aI1122395209
aI1701091999
aI1494318619
aI64223915
aI1978995841
aI429284290
aI454830544
aI1519118797
aL2386279355L
aI1694475504
aI305675136
aI849969704
aI183539421
aI1040867167
aI149989152
aI481364641
aI443102794
aI1106620200
aI130699423
aI1544101068
aI485325459
aL2175183727L
aI194210454
aI104450382
aI965748104
aL2361516866L
aI95826481
aI240816796
aI100322017
aI39304351
aI16288559
aI625086213
aL2320411801L
aI56662850
aI213551032
aI465021194
aL2353368493L
aI197198139
aI1566647725
aI275552383
aI595202512
aI126069651
aI533151453
aI1422808718
aI956055421
aI138921646
aI563198066
aI155164046
aI368273551
aI66883173
aI846044575
aI577520067
aL2345973251L
aI158185619
aI172860677
aI83605118
aI184239682
aI185277435
aI96780039
aI321155981
aI54681870
aI148353426
aI713356466
aL2252449124L
aI108857268
aI601498962
aI132178426
aI871028390
aI34399354
aI114933610
aI1402121718
aI59907842
aI395016392
aI101814279
aI72725493
aI69174906
aI437573882
aI131276801
aI191106356
aI144005944
aI275586794
aI66737444
aL2220917514L
aI1014524408
aI150152183
aI71573592
aI394408426
aI176304327
aI55863697
aI811961251
aI90418064
aI909249817
aI1869197444
aI968897964
aI83974268
aI20594793
aL2298809134L
aI505164236
aI254245514
aI94150412
aI297433421
aI538726848
aI298789161
aI603667105
aI807899797
aI1144471680
aI257174007
aI215635660
aL2330095767L
aI72955172
aI303201709
aI1447331425
aI496564649
aL2319529104L
aI36644927
aI1414060092
aI49888507
aI364135687
aI487247111
aI1423824241
aI1034107093
aI80363405
aI568651001
aI1027903909
aI3069611
aI1115233538
aI241259224
aI87180061
aI1415603780
aI442053187
aI37698514
aI173827318
aI257202520
aI130589814
aI1023487891
aI437696837
aI1543728949
aI335462063
aI702164584
aI502785577
aI18230855
aI1068541394
aI128666718
aI1007400518
aI1422388699
aI138186349
aL2231822670L
aL2184356513L
aI1023318067
aI1515452190
aI44513878
aL2152000763L
aI486606149
aL2215500008L
aI346818724
aI861956678
aL2212361257L
aI94159490
aI245908498
aI421161536
aI327691521
aI824259583
aL2196707750L
aI362102129
aI233754487
aI169954352
aI1287554504
aI212165532
aI80462161
aI215982149
aI1297162741
aI202781306
aI1140012049
aI1223631686
aI43038373
aI1915166455
aI124332359
aL2166316870L
aL2165518152L
aI95621217
aL2177470718L
aI592418452
aL2174597233L
aL2171193308L
aL2165829951L
aI1262464098
aI1837964425
aI1951488228
aL2163658741L
aI51460564
aL2154911301L
aI439826784
aL2159997810L
aL2155197403L
aI145718209
aI1066949240
aI1028363683
aI107785744
aI27099428
aI198687643
aI1376073882
aI1967738366
aI1436475218
aI1081757592
aI1961531401
aI728719406
aI180643738
aI1916164886
aI246228006
aI1954332397
aI381145279
aI1950763159
aI1856645706
aI516426055
aI84746865
aI286767494
aI990824281
aI704386055
aI1523466924
aI148821329
aI271136073
aI787567202
aI1261083656
aI125557402
aI1929095034
aI1927114338
aI479956814
aI434354423
aI278626443
aI735345480
aI71781269
aI1928612546
aI81267687
aI615319355
aI1702946743
aI1887098130
aI109714931
aI555938870
aI150730689
aI173516566
aI617459633
aI891437911
aI60920113
aI1092802070
aI564916961
aI825926101
aI770433992
aI1717774609
aI376480722
aI546269725
aI1047981044
aI734769349
aI84013996
aI208740096
aI1671484140
aI372380187
aI1884000618
aI1656555312
aI954566096
aI1708771014
aI962899699
aI1649064847
aI1726763917
aI173673675
aI1654059949
aI274303348
aI222121184
aI1849864501
aI1092135390
aI196390656
aI1704686426
aI1597256742
aI1523250379
aI264503523
aI826076917
aI871925090
aI1422000516
aI207141054
aI582459393
aI1372379478
aI304123416
aI1623572118
aI465109775
aI281374235
aI556988386
aI241187514
aI602943555
aI173587958
aI473633881
aI38481918
aI149517269
aI1463972233
aI130122917
aI428776453
aI1730970175
aI396095683
aI96051164
aI84781408
aI1727180814
aI747834763
aI735451831
aI1625367558
aI933296684
aI767741215
aI1477762092
aI345098678
aI413396748
aI259331572
aI1109232589
aI525130695
aI617724103
aI1897534616
aI840612122
aI552550562
aI1264712994
aI485948547
aI151954843
aI81490266
aI255479741
aI87327779
aI220110147
aI7775542
aI575067227
aI509139479
aI310586974
aI266189655
aI339265290
aI183997763
aI357225293
aI156434423
aI185402244
aI769731756
aI1847050939
aI570660451
aI1869153667
aI936744504
aI17622198
aI50434933
aI963864264
aI292539295
aI1260738997
aI1733717875
aI424975488
aI137548920
aI329822888
aI378300630
aI224813194
aI120930513
aI1726489134
aI1727193464
aI214321041
aI18927538
aI171650631
aI101746003
aI751355984
aI1249556881
aI167085672
aI180076191
aI313618935
aI182663468
aI307292747
aI244280163
aI33286154
aI1704829591
aI1563222853
aI172350492
aI263685549
aI1674220184
aI1183717286
aI1471451767
aI103281390
aI1408065673
aI1590569522
aI75465012
aI1599550914
aI60443696
aI556641231
aI1560997939
aI1558055444
aI1557554058
aI1557145298
aI1553508054
aI627159592
aI1531457424
aI1523371393
aI584050171
aI1050230802
aI1339753430
aI1471176972
aI1465363926
aI1442682121
aI1271035388
aI624162636
aI1375506992
aI548762557
aI151589631
aI1377697946
aI140443616
aI1375024074
aI1351835646
aI1340154979
aI1145473460
aI1334823031
aI1330141700
aI478660323
aI25552702
aI1305857514
aI270503570
aI251307624
aI974750738
aI1160564059
aI1193287416
aI858083472
aI312685087
aI29198850
aI465612447
aI268534869
aI257126887
aI480622396
aI226288831
aI314389073
aI397661197
aI730813243
aI95516514
aI633087730
aI528236464
aI179604506
aI155256256
aI818512369
aI798714296
aI406230488
aI594545542
aI760629475
aI350546110
aI140273573
aI334050411
aI159166700
aI248856993
aI14692572
aI629169063
aI637033711
aI635061844
aI156627830
aI259205325
aI628868043
aI78918511
aI238536756
aI561598596
aI552933520
aI67676930
aI540042982
aI266514738
aI268065570
aI172519730
aI37523737
aI517081091
aI176194298
aI266112611
aI490409993
aI478864373
aI254318314
aI154645605
aI298848978
aI305344243
aI306256468
aI358852357
aI115158755
aI303456110
aI160580462
aI373665024
aI133506131
aI249897689
aI301930760
aI37085345
aI343698537
aI353334973
aI102581765
aI146459939
aI268913086
aI338978204
aI336748693
aI319712090
aI131493075
aI135728191
aI252399946
aI56148100
aI319771376
aI197812039
aI88722362
aI234499737
aI177027862
aI213108676
aI194910498
aI238073324
aI151156979
aI187540931
aI171539352
aI181588998
aI153809065
aI259132092
aI238364240
aI256167210
aI19722366
aI79279169
aI53808544
aI174219045
aI69416519
aI244531922
aI22766802
aI149284162
aI69966443
aI63565641
aI195357756
aI137197498
aI232015570
aI38712887
aI153852427
aI228737400
aI197202744
aI139195202
aI148194379
aI116313517
aI173670279
aI218224333
aI82363407
aI166825271
aI126849834
aI167917988
aI138019732
aI75114336
aI143418323
aI164791629
aI213615650
aI211710056
aI205809609
aI46939260
aI162955667
aI196725535
aI189740158
aI186526921
aI201446274
aI69800760
aI22270793
aI155783775
aI147668894
aI199947464
aI190024467
aI83719928
aI195972500
aI180505004
aI188870381
aI70543082
aI186419290
aI183619338
aI34157839
aI183100936
aI166021227
aI129820315
aI177663759
aI72764447
aI172521832
aI155220993
aI134856584
aI174824963
aI38078904
aI170366770
aI148472016
aI141419186
aI26965137
aI163724931
aI139516827
aI114523769
aI113069965
aI107293155
aI150381553
aI150363877
aI105223609
aI125175859
aI149191616
aI38494089
aI109615031
aI140935414
aasS'obj'
p7
ccopy_reg
_reconstructor
p8
(ctweepy.models
User
p9
c__builtin__
object
p10
Ntp11
Rp12
(dp13
S'follow_request_sent'
p14
I00
sS'has_extended_profile'
p15
I00
sS'profile_use_background_image'
p16
I01
sS'profile_sidebar_fill_color'
p17
VE3E2DE
p18
sS'id'
p19
I141114969
sS'verified'
p20
I00
sS'entities'
p21
(dp22
Vurl
p23
(dp24
Vurls
p25
(lp26
(dp27
g23
Vhttp://t.co/yXJKCngN9g
p28
sVindices
p29
(lp30
I0
aI22
asVexpanded_url
p31
Vhttp://www.infovida.org
p32
sVdisplay_url
p33
Vinfovida.org
p34
sassVdescription
p35
(dp36
g25
(lp37
sssS'profile_image_url_https'
p38
Vhttps://pbs.twimg.com/profile_images/934322648/logo1_normal.bmp
p39
sS'_json'
p40
(dp41
Vfollow_request_sent
p42
I00
sVhas_extended_profile
p43
I00
sVprofile_use_background_image
p44
I01
sVdefault_profile_image
p45
I00
sVid
p46
I141114969
sVprofile_background_image_url_https
p47
Vhttps://abs.twimg.com/images/themes/theme3/bg.gif
p48
sVverified
p49
I00
sVprofile_text_color
p50
V634047
p51
sVprofile_image_url_https
p52
g39
sVprofile_sidebar_fill_color
p53
g18
sVentities
p54
g22
sVfollowers_count
p55
I1143
sVprofile_sidebar_border_color
p56
VD3D2CF
p57
sVid_str
p58
V141114969
p59
sVprofile_background_color
p60
VEDECE9
p61
sVlisted_count
p62
I44
sVstatus
p63
(dp64
Vcontributors
p65
NsVtruncated
p66
I00
sVtext
p67
VRT @YO_no_apoyo: No entiendo a estos candidatos de izquierda. Se la pasan hablando en contra del FMI, del Banco Mundial, de la... http://t.\u2026
p68
sVin_reply_to_status_id
p69
Nsg46
L664400236987719680L
sVfavorite_count
p70
I0
sVsource
p71
V<a href="http://twitter.com" rel="nofollow">Twitter Web Client</a>
p72
sVretweeted
p73
I00
sVcoordinates
p74
Nsg54
(dp75
Vsymbols
p76
(lp77
sVuser_mentions
p78
(lp79
(dp80
g46
I427978089
sg29
(lp81
I3
aI15
asg58
V427978089
p82
sVscreen_name
p83
VYO_no_apoyo
p84
sVname
p85
VNo al aborto
p86
sasVhashtags
p87
(lp88
sg25
(lp89
(dp90
g23
Vhttp://t.co/5Bb3h59DYo
p91
sg29
(lp92
I139
aI140
asg31
Vhttp://fb.me/3ODlmTKOU
p93
sg33
Vfb.me/3ODlmTKOU
p94
sassVin_reply_to_screen_name
p95
Nsg58
V664400236987719680
p96
sVretweet_count
p97
I3
sVin_reply_to_user_id
p98
NsVfavorited
p99
I00
sVretweeted_status
p100
(dp101
g65
Nsg66
I00
sg67
VNo entiendo a estos candidatos de izquierda. Se la pasan hablando en contra del FMI, del Banco Mundial, de la... http://t.co/5Bb3h59DYo
p102
sg69
Nsg46
L609703085754060802L
sg70
I1
sg71
V<a href="http://www.facebook.com/twitter" rel="nofollow">Facebook</a>
p103
sg73
I00
sg74
Nsg54
(dp104
g76
(lp105
sg78
(lp106
sg87
(lp107
sg25
(lp108
(dp109
g23
Vhttp://t.co/5Bb3h59DYo
p110
sg29
(lp111
I113
aI135
asg31
Vhttp://fb.me/3ODlmTKOU
p112
sg33
Vfb.me/3ODlmTKOU
p113
sassg95
Nsg58
V609703085754060802
p114
sg97
I3
sg98
Nsg99
I00
sVgeo
p115
NsVin_reply_to_user_id_str
p116
NsVpossibly_sensitive
p117
I00
sVlang
p118
Ves
p119
sVcreated_at
p120
VSat Jun 13 12:45:18 +0000 2015
p121
sVin_reply_to_status_id_str
p122
NsVplace
p123
Nssg115
Nsg116
Nsg117
I00
sg118
Ves
p124
sg120
VWed Nov 11 11:12:15 +0000 2015
p125
sg122
Nsg123
NssVis_translation_enabled
p126
I00
sVutc_offset
p127
I-10800
sVstatuses_count
p128
I10180
sg35
V
p129
sVfriends_count
p130
I2014
sVlocation
p131
g129
sVprofile_link_color
p132
V088253
p133
sVprofile_image_url
p134
Vhttp://pbs.twimg.com/profile_images/934322648/logo1_normal.bmp
p135
sVfollowing
p136
I00
sVgeo_enabled
p137
I00
sVprofile_background_image_url
p138
Vhttp://abs.twimg.com/images/themes/theme3/bg.gif
p139
sg83
VDerechoalavida
p140
sg118
Ves
p141
sVprofile_background_tile
p142
I00
sVfavourites_count
p143
I16
sg85
VPro-Vida
p144
sVnotifications
p145
I00
sg23
Vhttp://t.co/yXJKCngN9g
p146
sg120
VFri May 07 06:31:42 +0000 2010
p147
sVcontributors_enabled
p148
I00
sVtime_zone
p149
VBuenos Aires
p150
sVprotected
p151
I00
sVdefault_profile
p152
I00
sVis_translator
p153
I00
ssS'contributors_enabled'
p154
I00
sS'profile_text_color'
p155
g51
sS'followers_count'
p156
I1143
sS'profile_sidebar_border_color'
p157
g57
sS'id_str'
p158
g59
sS'default_profile_image'
p159
I00
sS'listed_count'
p160
I44
sS'status'
p161
g8
(ctweepy.models
Status
p162
g10
Ntp163
Rp164
(dp165
S'favorited'
p166
I00
sS'contributors'
p167
NsS'truncated'
p168
I00
sS'text'
p169
g68
sS'source_url'
p170
Vhttp://twitter.com
p171
sS'possibly_sensitive'
p172
I00
sS'in_reply_to_status_id'
p173
NsS'geo'
p174
Nsg19
L664400236987719680L
sS'favorite_count'
p175
I0
sS'lang'
p176
g124
sS'retweeted_status'
p177
g8
(g162
g10
Ntp178
Rp179
(dp180
g166
I00
sg167
Nsg168
I00
sg169
g102
sg170
Vhttp://www.facebook.com/twitter
p181
sg172
I00
sg173
Nsg174
Nsg19
L609703085754060802L
sg175
I1
sg176
g119
sg21
g104
sS'created_at'
p182
cdatetime
datetime
p183
(S'\x07\xdf\x06\r\x0c-\x12\x00\x00\x00'
p184
tp185
Rp186
sg40
g101
sS'coordinates'
p187
NsS'in_reply_to_user_id_str'
p188
NsS'source'
p189
VFacebook
p190
sS'in_reply_to_status_id_str'
p191
NsS'in_reply_to_screen_name'
p192
Nsg158
g114
sS'retweeted'
p193
I00
sS'place'
p194
NsS'retweet_count'
p195
I3
sS'in_reply_to_user_id'
p196
Nsbsg21
g75
sg182
g183
(S'\x07\xdf\x0b\x0b\x0b\x0c\x0f\x00\x00\x00'
p197
tp198
Rp199
sg40
g64
sg187
Nsg188
Nsg189
VTwitter Web Client
p200
sg191
Nsg192
Nsg158
g96
sg193
I00
sg194
Nsg195
I3
sg196
NsbsS'is_translation_enabled'
p201
I00
sS'utc_offset'
p202
I-10800
sS'statuses_count'
p203
I10180
sS'description'
p204
g129
sS'friends_count'
p205
I2014
sS'location'
p206
g129
sS'profile_link_color'
p207
g133
sS'profile_image_url'
p208
g135
sS'notifications'
p209
I00
sS'geo_enabled'
p210
I00
sS'profile_background_color'
p211
g61
sS'profile_background_image_url'
p212
g139
sS'screen_name'
p213
g140
sg176
g141
sg1
I00
sS'profile_background_tile'
p214
I00
sS'favourites_count'
p215
I16
sS'name'
p216
g144
sS'url'
p217
g146
sg182
g183
(S'\x07\xda\x05\x07\x06\x1f*\x00\x00\x00'
p218
tp219
Rp220
sS'profile_background_image_url_https'
p221
g48
sS'time_zone'
p222
g150
sS'protected'
p223
I00
sS'default_profile'
p224
I00
sS'is_translator'
p225
I00
sbs.