(dp0
S'following'
p1
(lp2
(lp3
I67013704
aI879376561
aI14325574
aL2227396142L
aI424481268
aI209424197
aI110273384
aL3301788987L
aI236953420
aI1629336979
aI127062637
aI418325508
aI465897557
aI989
aI70498392
aI363112193
aL2275658568L
aI202915788
aL2334614718L
aI15492359
aI48436234
aI487118986
aI85253884
aI1687890656
aI956308381
aI46227914
aI14749606
aI793926
aI1413027896
aI553713584
aL2214652482L
aI93529573
aI141365328
aI31146207
aI262230241
aI14130366
aL3298350420L
aI1676327754
aI613876677
aI15752703
aL2493246408L
aI150094848
aL2925204334L
aL2292454922L
aI124690469
aL3179906354L
aI338330795
aL3062121561L
aL3143285089L
aI250831586
aI22048008
aI31498418
aL3085835595L
aI51205137
aI106504911
aI1676553354
aI1475988331
aL2612261960L
aI60113926
aI493281971
aI209907837
aI19739279
aI455824771
aI714051110
aI983655260
aL2595918914L
aL2846650551L
aI1059530150
aI690823
aI162655910
aI545618159
aI21917683
aI27828974
aI16816021
aI40938160
aI34939208
aI581221150
aI59117354
aI471121755
aI124585235
aI6844292
aL2196092280L
aI61342056
aI346257282
aI222184684
aI82142636
aL2272207286L
aI269055437
aI262763182
aI23368614
aI160625399
aL2915103594L
aI583938358
aI332617373
aI56562803
aI232120274
aI79233326
aI36041084
aI274626857
aI16669898
aI1368083346
aI39796874
aI15246621
aL2432213029L
aI21232827
aI1485188648
aI1358146357
aI18170896
aI55190116
aI208155240
aL2361288673L
aI1394399438
aI19046875
aL2339253280L
aI115378178
aI58808528
aI115749048
aL2359926157L
aI60783724
aI14117774
aI19997064
aI18052886
aI14173032
aI80711358
aI381289719
aI22017602
aI201891203
aI13796572
aI7557352
aI202016968
aI15915843
aI18136692
aI19318231
aI222306494
aI375980238
aL2312262702L
aI119466953
aI263276880
aI82143051
aI65466158
aI378208943
aI15079601
aI7836182
aI329783589
aI430841130
aI326745108
aI410827049
aI207177120
aL2296501071L
aI349599564
aI53215424
aI322603418
aI1064700308
aI250758475
aI588775819
aI455366870
aI39264827
aI184881902
aI43111757
aI15130891
aI29054836
aI473385747
aI214275954
aL2220183580L
aI253697494
aI1582853809
aI1598644159
aI1464203184
aI373909564
aI1926911660
aI15127307
aI24227424
aI1636590253
aI475524030
aI14446488
aI127896978
aI49753604
aI250362250
aI203652149
aI550663732
aI1534167900
aI632105670
aI17549691
aI65681636
aI52166809
aI264996175
aI600378539
aI16589206
aI140472116
aI253167239
aI352947624
aI26223938
aI33792634
aI21045893
aI407224551
aI214928280
aI44060322
aI32359921
aI15110357
aI271211220
aI44401911
aI133877732
aI59499923
aI19337489
aI42903820
aI14115408
aI40053049
aI14292717
aI222164515
aI24410456
aI26538229
aI463966111
aI21048875
aI820110584
aI19546277
aI31001654
aI49619321
aI14886375
aI45459750
aI1364930179
aI28445389
aI445291350
aI413344125
aI19988458
aI18856867
aI813286
aasS'followers'
p4
(lp5
(lp6
I402876893
aI475524030
aI18578905
aI35486742
aI35784526
aL3947481623L
aI1935592992
aI45415894
aI465897557
aI60113926
aI597799971
aI1286540352
aL3323867790L
aL2445206664L
aI65466158
aL3271870938L
aI48854415
aI14886375
aI65681636
aL3028191174L
aI200034146
aI333560927
aI404333242
aI30729546
aI184881902
aI537735271
aL2911070687L
aL2296501071L
aL2371656464L
aI349599564
aI43111757
aI1664744882
aI250362250
aasS'obj'
p7
ccopy_reg
_reconstructor
p8
(ctweepy.models
User
p9
c__builtin__
object
p10
Ntp11
Rp12
(dp13
S'follow_request_sent'
p14
NsS'has_extended_profile'
p15
I00
sS'profile_use_background_image'
p16
I01
sS'profile_sidebar_fill_color'
p17
VDDEEF6
p18
sS'id'
p19
I1419310464
sS'verified'
p20
I00
sS'entities'
p21
(dp22
Vdescription
p23
(dp24
Vurls
p25
(lp26
sssS'profile_image_url_https'
p27
Vhttps://pbs.twimg.com/profile_images/564576911444025344/uCjmZnxf_normal.png
p28
sS'_json'
p29
(dp30
Vfollow_request_sent
p31
NsVhas_extended_profile
p32
I00
sVprofile_use_background_image
p33
I01
sVdefault_profile_image
p34
I00
sVid
p35
I1419310464
sVprofile_background_image_url_https
p36
Vhttps://abs.twimg.com/images/themes/theme3/bg.gif
p37
sVverified
p38
I00
sVprofile_text_color
p39
V333333
p40
sVprofile_image_url_https
p41
g28
sVprofile_sidebar_fill_color
p42
g18
sVentities
p43
g22
sVfollowers_count
p44
I33
sVprofile_sidebar_border_color
p45
VC0DEED
p46
sVid_str
p47
V1419310464
p48
sVprofile_background_color
p49
VEDECE9
p50
sVlisted_count
p51
I9
sVstatus
p52
(dp53
Vcontributors
p54
NsVtruncated
p55
I00
sVtext
p56
VRT @RyanDetrick: Last time the $SPX had a 6-wk win streak end with a loss like last week?  Mar '39.  It dropped 18% next 4 wks.  $SPY https\u2026
p57
sVin_reply_to_status_id
p58
Nsg35
L666097843984183296L
sVfavorite_count
p59
I0
sVsource
p60
V<a href="http://twitter.com" rel="nofollow">Twitter Web Client</a>
p61
sVretweeted
p62
I00
sVcoordinates
p63
Nsg43
(dp64
Vsymbols
p65
(lp66
(dp67
Vindices
p68
(lp69
I31
aI35
asg56
VSPX
p70
sa(dp71
g68
(lp72
I129
aI133
asg56
VSPY
p73
sasVuser_mentions
p74
(lp75
(dp76
g35
I21232827
sg68
(lp77
I3
aI15
asg47
V21232827
p78
sVscreen_name
p79
VRyanDetrick
p80
sVname
p81
VRyan Detrick, CMT
p82
sasVhashtags
p83
(lp84
sg25
(lp85
sVmedia
p86
(lp87
(dp88
Vsource_user_id
p89
I21232827
sVsource_status_id_str
p90
V666095636429713410
p91
sVexpanded_url
p92
Vhttp://twitter.com/RyanDetrick/status/666095636429713410/photo/1
p93
sVdisplay_url
p94
Vpic.twitter.com/yI8r7xiedb
p95
sVurl
p96
Vhttps://t.co/yI8r7xiedb
p97
sVmedia_url_https
p98
Vhttps://pbs.twimg.com/media/CT5yc5RU8AAqoe1.png
p99
sVsource_user_id_str
p100
V21232827
p101
sVsource_status_id
p102
L666095636429713410L
sg47
V666095635632812032
p103
sVsizes
p104
(dp105
Vsmall
p106
(dp107
Vh
p108
I141
sVresize
p109
Vfit
p110
sVw
p111
I340
ssVlarge
p112
(dp113
g108
I426
sg109
Vfit
p114
sg111
I1024
ssVmedium
p115
(dp116
g108
I249
sg109
Vfit
p117
sg111
I600
ssVthumb
p118
(dp119
g108
I150
sg109
Vcrop
p120
sg111
I150
sssg68
(lp121
I139
aI140
asVtype
p122
Vphoto
p123
sg35
L666095635632812032L
sVmedia_url
p124
Vhttp://pbs.twimg.com/media/CT5yc5RU8AAqoe1.png
p125
sassVin_reply_to_screen_name
p126
Nsg47
V666097843984183296
p127
sVretweet_count
p128
I74
sVin_reply_to_user_id
p129
NsVfavorited
p130
I00
sVretweeted_status
p131
(dp132
g54
Nsg55
I00
sg56
VLast time the $SPX had a 6-wk win streak end with a loss like last week?  Mar '39.  It dropped 18% next 4 wks.  $SPY https://t.co/yI8r7xiedb
p133
sg58
Nsg35
L666095636429713410L
sg59
I84
sg60
V<a href="http://stocktwits.com" rel="nofollow">StockTwits Web</a>
p134
sg62
I00
sg63
Nsg43
(dp135
g65
(lp136
(dp137
g68
(lp138
I14
aI18
asg56
VSPX
p139
sa(dp140
g68
(lp141
I112
aI116
asg56
VSPY
p142
sasg74
(lp143
sg83
(lp144
sg25
(lp145
sg86
(lp146
(dp147
g92
Vhttp://twitter.com/RyanDetrick/status/666095636429713410/photo/1
p148
sg94
Vpic.twitter.com/yI8r7xiedb
p149
sg96
Vhttps://t.co/yI8r7xiedb
p150
sg98
Vhttps://pbs.twimg.com/media/CT5yc5RU8AAqoe1.png
p151
sg47
V666095635632812032
p152
sg104
(dp153
g106
(dp154
g108
I141
sg109
Vfit
p155
sg111
I340
ssg112
(dp156
g108
I426
sg109
Vfit
p157
sg111
I1024
ssg115
(dp158
g108
I249
sg109
Vfit
p159
sg111
I600
ssg118
(dp160
g108
I150
sg109
Vcrop
p161
sg111
I150
sssg68
(lp162
I117
aI140
asg122
Vphoto
p163
sg35
L666095635632812032L
sg124
Vhttp://pbs.twimg.com/media/CT5yc5RU8AAqoe1.png
p164
sassg126
Nsg47
V666095636429713410
p165
sg128
I74
sg129
Nsg130
I00
sVgeo
p166
NsVin_reply_to_user_id_str
p167
NsVpossibly_sensitive
p168
I00
sVlang
p169
Ven
p170
sVcreated_at
p171
VMon Nov 16 03:29:09 +0000 2015
p172
sVin_reply_to_status_id_str
p173
NsVplace
p174
Nssg166
Nsg167
Nsg168
I00
sg169
Ven
p175
sg171
VMon Nov 16 03:37:56 +0000 2015
p176
sg173
Nsg174
NssVis_translation_enabled
p177
I00
sVutc_offset
p178
NsVstatuses_count
p179
I1463
sg23
VProduct Architect by Profession. Trading is my passion.
p180
sVfriends_count
p181
I226
sVlocation
p182
VNew York
p183
sVprofile_link_color
p184
V2C3B33
p185
sVprofile_image_url
p186
Vhttp://pbs.twimg.com/profile_images/564576911444025344/uCjmZnxf_normal.png
p187
sVfollowing
p188
NsVgeo_enabled
p189
I00
sVprofile_background_image_url
p190
Vhttp://abs.twimg.com/images/themes/theme3/bg.gif
p191
sg79
VThekkw
p192
sg169
Ven
p193
sVprofile_background_tile
p194
I00
sVfavourites_count
p195
I500
sg81
VKKW
p196
sVnotifications
p197
Nsg96
Nsg171
VFri May 10 23:47:19 +0000 2013
p198
sVcontributors_enabled
p199
I00
sVtime_zone
p200
NsVprotected
p201
I00
sVdefault_profile
p202
I00
sVis_translator
p203
I00
ssS'contributors_enabled'
p204
I00
sS'profile_text_color'
p205
g40
sS'followers_count'
p206
I33
sS'profile_sidebar_border_color'
p207
g46
sS'id_str'
p208
g48
sS'default_profile_image'
p209
I00
sS'listed_count'
p210
I9
sS'status'
p211
g8
(ctweepy.models
Status
p212
g10
Ntp213
Rp214
(dp215
S'favorited'
p216
I00
sS'contributors'
p217
NsS'truncated'
p218
I00
sS'text'
p219
g57
sS'source_url'
p220
Vhttp://twitter.com
p221
sS'possibly_sensitive'
p222
I00
sS'in_reply_to_status_id'
p223
NsS'geo'
p224
Nsg19
L666097843984183296L
sS'favorite_count'
p225
I0
sS'lang'
p226
g175
sS'retweeted_status'
p227
g8
(g212
g10
Ntp228
Rp229
(dp230
g216
I00
sg217
Nsg218
I00
sg219
g133
sg220
Vhttp://stocktwits.com
p231
sg222
I00
sg223
Nsg224
Nsg19
L666095636429713410L
sg225
I84
sg226
g170
sg21
g135
sS'created_at'
p232
cdatetime
datetime
p233
(S'\x07\xdf\x0b\x10\x03\x1d\t\x00\x00\x00'
p234
tp235
Rp236
sg29
g132
sS'coordinates'
p237
NsS'in_reply_to_user_id_str'
p238
NsS'source'
p239
VStockTwits Web
p240
sS'in_reply_to_status_id_str'
p241
NsS'in_reply_to_screen_name'
p242
Nsg208
g165
sS'retweeted'
p243
I00
sS'place'
p244
NsS'retweet_count'
p245
I74
sS'in_reply_to_user_id'
p246
Nsbsg21
g64
sg232
g233
(S'\x07\xdf\x0b\x10\x03%8\x00\x00\x00'
p247
tp248
Rp249
sg29
g53
sg237
Nsg238
Nsg239
VTwitter Web Client
p250
sg241
Nsg242
Nsg208
g127
sg243
I00
sg244
Nsg245
I74
sg246
NsbsS'is_translation_enabled'
p251
I00
sS'utc_offset'
p252
NsS'statuses_count'
p253
I1463
sS'description'
p254
g180
sS'friends_count'
p255
I226
sS'location'
p256
g183
sS'profile_link_color'
p257
g185
sS'profile_image_url'
p258
g187
sS'notifications'
p259
NsS'geo_enabled'
p260
I00
sS'profile_background_color'
p261
g50
sS'profile_background_image_url'
p262
g191
sS'screen_name'
p263
g192
sg226
g193
sg1
I00
sS'profile_background_tile'
p264
I00
sS'favourites_count'
p265
I500
sS'name'
p266
g196
sS'url'
p267
Nsg232
g233
(S'\x07\xdd\x05\n\x17/\x13\x00\x00\x00'
p268
tp269
Rp270
sS'profile_background_image_url_https'
p271
g37
sS'time_zone'
p272
NsS'protected'
p273
I00
sS'default_profile'
p274
I00
sS'is_translator'
p275
I00
sbs.