(dp0
S'following'
p1
(lp2
(lp3
I41542581
aI61996422
aI119519642
aI12794362
aI1409498718
aI24258355
aI191389138
aI39871442
aI20374262
aI92267891
aI564111558
aI249446387
aI1595507280
aI1154735912
aL2529826914L
aI499713569
aI1642858368
aI139134500
aI634470885
aI128627725
aL2924861420L
aI195667017
aI171747252
aL2259525949L
aI1358146357
aI16985343
aI1160400596
aI248707613
aI283047655
aI1868735647
aI246758233
aI189948728
aI319268829
aI19951102
aI56562803
aI155952299
aI19062153
aI49753604
aI22522178
aI123607950
aI284551240
aI18856867
aI18524851
aI280733892
aI93295809
aL2241518862L
aI22739676
aI60113926
aI25088909
aI45401607
aI138513820
aI39613642
aI19996888
aI213671271
aI19772589
aI121786809
aL2892782311L
aI364285099
aI50395933
aI364282535
aI31108229
aI554498632
aI249807121
aL2907403148L
aI369786451
aI1271261790
aI1321807399
aI1379739200
aI342156431
aL2384661548L
aI159667407
aI1633713920
aI886303566
aI292502674
aI23666107
aI50560529
aI43525891
aI66917778
aI125486974
aI21055261
aI167281867
aI269545003
aI34752409
aI75945637
aI56938404
aI34713362
aI557485303
aI243580662
aI40138389
aI1652541
aL2300446753L
aL2342993688L
aI1108109330
aI944643468
aI622246015
aI146293159
aI109553437
aI19581894
aI422520786
aI40452468
aL2238528674L
aI13933172
aI205866324
aI185477564
aI1153049328
aI889933238
aL2799702063L
aL2547199921L
aI26894141
aI60785099
aL2963767631L
aI392584063
aI1429032192
aI45512600
aasS'followers'
p4
(lp5
(lp6
L2466373656L
aL4219514959L
aL2912161373L
aL3317311189L
aL4217985314L
aI1388451270
aI35486742
aI1612774364
aI1499112468
aL2600716538L
aL4124950394L
aI109452988
aL2415500982L
aI296951109
aL4098279932L
aI249446387
aL3167818135L
aI1154735912
aI403072705
aI1360916118
aI499713569
aI618523751
aI1149314232
aI976592376
aL2823694738L
aL3314085690L
aL2264835908L
aI16985343
aL2891432029L
aI1868735647
aL3985744574L
aI105295143
aL3996662679L
aL3979579694L
aI369786451
aI338861974
aI117655609
aL3962348478L
aL2813786642L
aI15957929
aI545760889
aL3018809793L
aI1111417075
aI193129397
aL3236838030L
aL3580625174L
aI1122168242
aL2556348558L
aL2241518862L
aI165328212
aL3875510654L
aL2993147258L
aL3787070773L
aI44654561
aI570154956
aL2907403148L
aI554498632
aI1271261790
aI121786809
aL2892782311L
aI1314862352
aI190561123
aI1105006693
aI147199236
aI43525891
aL3799589414L
aL3788775193L
aI9670652
aI1518502867
aI109553437
aI422520786
aI622246015
aI13933172
aL3701599632L
aL3689399246L
aL3678081026L
aI75556179
aL3741530657L
aI205866324
aI624552997
aI1480626626
aL3511667780L
aL3446145853L
aI146249667
aL2450984358L
aI260191826
aI15218168
aL3322658292L
aI553913364
aL2535159288L
aI562961490
aI592233803
aL3333800178L
aL3331217954L
aL2279490859L
aI127967449
aI130015219
aL2911903028L
aI41542581
aL2905316259L
aL3321009259L
aI374518358
aL3319400964L
aI1594254138
aL2535876372L
aI1662851989
aL3316672375L
aL2547199921L
aL3395693079L
aL2487235322L
aL3301839330L
aL2214469243L
aL3382255565L
aL2378108080L
aL3140734686L
aL2787216812L
aI28081430
aI1311345284
aL3277747242L
aI605855336
aI199038403
aL3256358964L
aL2529826914L
aL3232341151L
aL3270522672L
aL3186583820L
aL3265519460L
aL2556341117L
aI59341759
aL2799702063L
aL2199684402L
aL2476331670L
aI554675465
aI31108229
aL3154044780L
aI360091911
aI54431539
aI1038360872
aI948392744
aI21022589
aL3239684112L
aL3239265798L
aI1366070222
aL3308572012L
aI423268221
aI156474672
aI318760993
aL2822007451L
aL2857583048L
aI89570289
aL3301317321L
aL3016240248L
aI437222295
aL2581621242L
aL3197129689L
aI24316742
aI193516827
aI45831180
aI84705997
aL3178806624L
aL3167167346L
aI553617435
aL3179887318L
aL3161863094L
aL3153583610L
aL2226529230L
aL3142963159L
aI381974615
aI72253851
aI932098219
aL3042204535L
aL3111804408L
aL2538898718L
aI17690658
aL2511341048L
aI345875745
aL3001987713L
aL2740851923L
aL3100554288L
aL3098886660L
aL3087204501L
aL2551165812L
aL3092289574L
aL3075697370L
aI772132280
aL3061265528L
aL2960134404L
aL3044795343L
aL2666636156L
aI1211119381
aI989978094
aL2926684767L
aI196539353
aL3047184855L
aI278468387
aI1340530915
aL2776718796L
aL2915636676L
aI858142578
aI343678442
aI382677234
aI417145690
aI828792228
aL3008812848L
aL3003506158L
aL2901001102L
aI43246461
aI153124526
aL3001992247L
aL2882791779L
aL2964285030L
aI255310051
aL2971887503L
aL2253473389L
aL2911350516L
aI186878364
aI1963605775
aI194671297
aL2301974785L
aL2957742546L
aI41227246
aI1564629242
aL2919487746L
aI398108495
aL2956858010L
aL2927010930L
aL2828442451L
aI1723786914
aL2955986226L
aI1525794624
aL2946841170L
aI42272157
aI1738263793
aL2931329393L
aL2157355981L
aI393728046
aL2931873914L
aI32833195
aI1525299284
aI1034944020
aL2924861420L
aI61574414
aI93295809
aI1044686358
aI26498809
aI300282889
aL2902069225L
aI78878811
aI169483901
aL2331447170L
aL2238528674L
aL2599041139L
aI65243528
aI61996422
aI183956061
aI306031230
aL2814035354L
aL2773082215L
aL2262081103L
aL2502861456L
aI73868790
aL2290846634L
aI1227034207
aI27595300
aL2687441412L
aL2281607318L
aI371172741
aI490212944
aI112376788
aL2550365922L
aL2591125940L
aI532619209
aI21077518
aL2552622840L
aI1391022528
aL2544319627L
aL2371816084L
aI207963247
aI406002992
aL2500290871L
aL2494064136L
aI983934103
aL2470634954L
aL2409653796L
aI249878709
aI372601907
aI15083981
aL2354676914L
aL2331268890L
aL2292114012L
aI121630339
aL2262145310L
aI1934233824
aI140669988
aI1607016876
aI502268863
aL2193027925L
aI5930982
aI264522481
aI115856882
aI1951388952
aI40138389
aI1669268538
aI19034522
aI785586554
aI1429032192
aI1440841154
aI45512600
aasS'obj'
p7
ccopy_reg
_reconstructor
p8
(ctweepy.models
User
p9
c__builtin__
object
p10
Ntp11
Rp12
(dp13
S'follow_request_sent'
p14
NsS'has_extended_profile'
p15
I00
sS'profile_use_background_image'
p16
I01
sS'profile_sidebar_fill_color'
p17
VDDEEF6
p18
sS'id'
p19
I1429568694
sS'verified'
p20
I00
sS'entities'
p21
(dp22
Vurl
p23
(dp24
Vurls
p25
(lp26
(dp27
g23
Vhttp://t.co/HAFjpP9FnH
p28
sVindices
p29
(lp30
I0
aI22
asVexpanded_url
p31
Vhttp://www.abcbullion.com.au
p32
sVdisplay_url
p33
Vabcbullion.com.au
p34
sassVdescription
p35
(dp36
g25
(lp37
sssS'profile_image_url_https'
p38
Vhttps://pbs.twimg.com/profile_images/598739635154472960/7U_nAT8j_normal.jpg
p39
sS'_json'
p40
(dp41
Vfollow_request_sent
p42
NsVhas_extended_profile
p43
I00
sVprofile_use_background_image
p44
I01
sVdefault_profile_image
p45
I00
sVid
p46
I1429568694
sVprofile_background_image_url_https
p47
Vhttps://abs.twimg.com/images/themes/theme14/bg.gif
p48
sVverified
p49
I00
sVprofile_text_color
p50
V333333
p51
sVprofile_image_url_https
p52
g39
sVprofile_sidebar_fill_color
p53
g18
sVentities
p54
g22
sVfollowers_count
p55
I308
sVprofile_sidebar_border_color
p56
V000000
p57
sVid_str
p58
V1429568694
p59
sVprofile_background_color
p60
V585D86
p61
sVlisted_count
p62
I7
sVstatus
p63
(dp64
Vcontributors
p65
NsVtruncated
p66
I00
sVtext
p67
VRT @business: LATEST: European stocks fall as markets reopen after Paris attacks https://t.co/o5bQuEcWzI https://t.co/JL09SjB2qX
p68
sVin_reply_to_status_id
p69
Nsg46
L666357904560123904L
sVfavorite_count
p70
I0
sVsource
p71
V<a href="http://twitter.com/download/android" rel="nofollow">Twitter for Android</a>
p72
sVretweeted
p73
I00
sVcoordinates
p74
Nsg54
(dp75
Vsymbols
p76
(lp77
sVuser_mentions
p78
(lp79
(dp80
g46
I34713362
sg29
(lp81
I3
aI12
asg58
V34713362
p82
sVscreen_name
p83
Vbusiness
p84
sVname
p85
VBloomberg Business
p86
sasVhashtags
p87
(lp88
sg25
(lp89
(dp90
g23
Vhttps://t.co/o5bQuEcWzI
p91
sg29
(lp92
I81
aI104
asg31
Vhttp://bloom.bg/1kYBqht
p93
sg33
Vbloom.bg/1kYBqht
p94
sasVmedia
p95
(lp96
(dp97
Vsource_user_id
p98
I34713362
sVsource_status_id_str
p99
V666167904010940416
p100
sg31
Vhttp://twitter.com/business/status/666167904010940416/photo/1
p101
sg33
Vpic.twitter.com/JL09SjB2qX
p102
sg23
Vhttps://t.co/JL09SjB2qX
p103
sVmedia_url_https
p104
Vhttps://pbs.twimg.com/media/CT60Lc8XIAAKe8U.jpg
p105
sVsource_user_id_str
p106
V34713362
p107
sVsource_status_id
p108
L666167904010940416L
sg58
V666167903738339328
p109
sVsizes
p110
(dp111
Vlarge
p112
(dp113
Vh
p114
I512
sVresize
p115
Vfit
p116
sVw
p117
I1024
ssVsmall
p118
(dp119
g114
I170
sg115
Vfit
p120
sg117
I340
ssVmedium
p121
(dp122
g114
I300
sg115
Vfit
p123
sg117
I600
ssVthumb
p124
(dp125
g114
I150
sg115
Vcrop
p126
sg117
I150
sssg29
(lp127
I105
aI128
asVtype
p128
Vphoto
p129
sg46
L666167903738339328L
sVmedia_url
p130
Vhttp://pbs.twimg.com/media/CT60Lc8XIAAKe8U.jpg
p131
sassVin_reply_to_screen_name
p132
Nsg58
V666357904560123904
p133
sVretweet_count
p134
I65
sVin_reply_to_user_id
p135
NsVfavorited
p136
I00
sVretweeted_status
p137
(dp138
g65
Nsg66
I00
sg67
VLATEST: European stocks fall as markets reopen after Paris attacks https://t.co/o5bQuEcWzI https://t.co/JL09SjB2qX
p139
sg69
Nsg46
L666167904010940416L
sg70
I18
sg71
V<a href="http://www.hootsuite.com" rel="nofollow">Hootsuite</a>
p140
sg73
I00
sg74
Nsg54
(dp141
g76
(lp142
sg78
(lp143
sg87
(lp144
sg25
(lp145
(dp146
g23
Vhttps://t.co/o5bQuEcWzI
p147
sg29
(lp148
I67
aI90
asg31
Vhttp://bloom.bg/1kYBqht
p149
sg33
Vbloom.bg/1kYBqht
p150
sasg95
(lp151
(dp152
g31
Vhttp://twitter.com/business/status/666167904010940416/photo/1
p153
sg33
Vpic.twitter.com/JL09SjB2qX
p154
sg23
Vhttps://t.co/JL09SjB2qX
p155
sg104
Vhttps://pbs.twimg.com/media/CT60Lc8XIAAKe8U.jpg
p156
sg58
V666167903738339328
p157
sg110
(dp158
g112
(dp159
g114
I512
sg115
Vfit
p160
sg117
I1024
ssg118
(dp161
g114
I170
sg115
Vfit
p162
sg117
I340
ssg121
(dp163
g114
I300
sg115
Vfit
p164
sg117
I600
ssg124
(dp165
g114
I150
sg115
Vcrop
p166
sg117
I150
sssg29
(lp167
I91
aI114
asg128
Vphoto
p168
sg46
L666167903738339328L
sg130
Vhttp://pbs.twimg.com/media/CT60Lc8XIAAKe8U.jpg
p169
sassg132
Nsg58
V666167904010940416
p170
sg134
I65
sg135
Nsg136
I00
sVgeo
p171
NsVin_reply_to_user_id_str
p172
NsVpossibly_sensitive
p173
I00
sVlang
p174
Ven
p175
sVcreated_at
p176
VMon Nov 16 08:16:19 +0000 2015
p177
sVin_reply_to_status_id_str
p178
NsVplace
p179
Nssg171
Nsg172
Nsg173
I00
sg174
Ven
p180
sg176
VMon Nov 16 20:51:19 +0000 2015
p181
sg178
Nsg179
NssVis_translation_enabled
p182
I01
sVutc_offset
p183
I39600
sVstatuses_count
p184
I282
sg35
VAustralia\u2019s leading precious metals and bullion specialist
p185
sVfriends_count
p186
I114
sVlocation
p187
VAustralia Wide 
p188
sVprofile_link_color
p189
V95792B
p190
sVprofile_image_url
p191
Vhttp://pbs.twimg.com/profile_images/598739635154472960/7U_nAT8j_normal.jpg
p192
sVfollowing
p193
NsVgeo_enabled
p194
I00
sVprofile_banner_url
p195
Vhttps://pbs.twimg.com/profile_banners/1429568694/1427773002
p196
sVprofile_background_image_url
p197
Vhttp://abs.twimg.com/images/themes/theme14/bg.gif
p198
sg83
VABCBullion
p199
sg174
Ven
p200
sVprofile_background_tile
p201
I01
sVfavourites_count
p202
I102
sg85
VABC Bullion
p203
sVnotifications
p204
Nsg23
Vhttp://t.co/HAFjpP9FnH
p205
sg176
VWed May 15 05:15:10 +0000 2013
p206
sVcontributors_enabled
p207
I00
sVtime_zone
p208
VSydney
p209
sVprotected
p210
I00
sVdefault_profile
p211
I00
sVis_translator
p212
I00
ssS'contributors_enabled'
p213
I00
sS'profile_text_color'
p214
g51
sS'followers_count'
p215
I308
sS'profile_sidebar_border_color'
p216
g57
sS'id_str'
p217
g59
sS'default_profile_image'
p218
I00
sS'listed_count'
p219
I7
sS'status'
p220
g8
(ctweepy.models
Status
p221
g10
Ntp222
Rp223
(dp224
S'favorited'
p225
I00
sS'contributors'
p226
NsS'truncated'
p227
I00
sS'text'
p228
g68
sS'source_url'
p229
Vhttp://twitter.com/download/android
p230
sS'possibly_sensitive'
p231
I00
sS'in_reply_to_status_id'
p232
NsS'geo'
p233
Nsg19
L666357904560123904L
sS'favorite_count'
p234
I0
sS'lang'
p235
g180
sS'retweeted_status'
p236
g8
(g221
g10
Ntp237
Rp238
(dp239
g225
I00
sg226
Nsg227
I00
sg228
g139
sg229
Vhttp://www.hootsuite.com
p240
sg231
I00
sg232
Nsg233
Nsg19
L666167904010940416L
sg234
I18
sg235
g175
sg21
g141
sS'created_at'
p241
cdatetime
datetime
p242
(S'\x07\xdf\x0b\x10\x08\x10\x13\x00\x00\x00'
p243
tp244
Rp245
sg40
g138
sS'coordinates'
p246
NsS'in_reply_to_user_id_str'
p247
NsS'source'
p248
VHootsuite
p249
sS'in_reply_to_status_id_str'
p250
NsS'in_reply_to_screen_name'
p251
Nsg217
g170
sS'retweeted'
p252
I00
sS'place'
p253
NsS'retweet_count'
p254
I65
sS'in_reply_to_user_id'
p255
Nsbsg21
g75
sg241
g242
(S'\x07\xdf\x0b\x10\x143\x13\x00\x00\x00'
p256
tp257
Rp258
sg40
g64
sg246
Nsg247
Nsg248
VTwitter for Android
p259
sg250
Nsg251
Nsg217
g133
sg252
I00
sg253
Nsg254
I65
sg255
NsbsS'is_translation_enabled'
p260
I01
sS'utc_offset'
p261
I39600
sS'statuses_count'
p262
I282
sS'description'
p263
g185
sS'friends_count'
p264
I114
sS'location'
p265
g188
sS'profile_link_color'
p266
g190
sS'profile_image_url'
p267
g192
sS'notifications'
p268
NsS'geo_enabled'
p269
I00
sS'profile_background_color'
p270
g61
sS'profile_banner_url'
p271
g196
sS'profile_background_image_url'
p272
g198
sS'screen_name'
p273
g199
sg235
g200
sg1
I00
sS'profile_background_tile'
p274
I01
sS'favourites_count'
p275
I102
sS'name'
p276
g203
sS'url'
p277
g205
sg241
g242
(S'\x07\xdd\x05\x0f\x05\x0f\n\x00\x00\x00'
p278
tp279
Rp280
sS'profile_background_image_url_https'
p281
g48
sS'time_zone'
p282
g209
sS'protected'
p283
I00
sS'default_profile'
p284
I00
sS'is_translator'
p285
I00
sbs.