(dp0
S'following'
p1
(lp2
(lp3
I248411369
aI15823805
aI47025231
aI39349894
aL2491861854L
aI30305837
aL2448326774L
aL3439484728L
aI146653307
aI8287602
aI16857553
aI463245558
aI743865986
aI728997302
aI17790274
aL3242053186L
aI31546412
aI1317807865
aL2463277092L
aI636441598
aI30359797
aI1027173822
aL2231813953L
aI709249044
aI144876165
aI59853587
aI23390520
aI81157050
aI11247222
aI862266090
aL2955596087L
aL2792683216L
aI24806187
aL2374254228L
aI26538513
aL2314264926L
aI633690479
aI1059676776
aI16069693
aI815385631
aI388945610
aI588402871
aL2240673216L
aI460289307
aI161373994
aI25234311
aI17244973
aI479809444
aI277468468
aI31177241
aI276234003
aI25553720
aI142341936
aI180038491
aI39504861
aI240905920
aI98715369
aI111422855
aI26784273
aI15922433
aL2437334971L
aI24089166
aI86354712
aI167547258
aI1380652752
aI111734160
aI28851853
aI7689232
aL2148273331L
aI221990072
aI1653309769
aI102431596
aI26259480
aI42887781
aI54791458
aI432627298
aI19596767
aI57629490
aI23798611
aI256622596
aI871941271
aI539132299
aI991520846
aI138512430
aI198999259
aI15515420
aI111082742
aI222554496
aI185248035
aI17051205
aI515412823
aI11348282
aI111332790
aI186154646
aI27630460
aI56338089
aI201203300
aI790136510
aI23114265
aI365784872
aI27658349
aI74372963
aI198604594
aI186646579
aI1352350981
aI1327174399
aI332493156
aI18947552
aI42965602
aI30680268
aI130250127
aI1114542486
aI69266063
aI23450937
aI15839394
aI338632318
aI181962146
aI236468208
aI39804810
aI15851753
aI212308700
aI139244785
aI115505144
aI32002507
aI41258937
aI29743384
aI18093710
aI30599544
aI20733756
aI90520238
aI208214219
aI29234090
aI373576506
aI78116780
aI16360400
aI36992297
aI33811461
aI15159691
aI19600238
aI44623496
aI388611976
aI49610918
aI4276531
aI36786716
aI37104970
aI18946138
aI294821391
aI36954239
aI25165951
aI485182129
aI15316540
aI122731004
aI159852658
aI14295156
aI61517596
aI568619946
aI17394008
aI18345919
aI214708212
aI509296048
aI20174005
aI259001548
aI39406858
aI34173389
aI229113227
aI68860774
aI437866966
aI27902353
aI21207762
aI17464103
aI17552696
aI20783092
aI39262155
aI105901883
aI16606967
aI43732950
aI91467788
aI494286783
aI115764455
aI106769801
aI222545270
aI33496439
aI27900691
aI15107260
aI249307818
aI14580438
aI63031470
aI24752003
aI44367399
aI47322894
aI326836291
aI214540572
aI32766271
aI26342853
aI36269953
aI39344374
aI130822013
aI157452642
aI24755416
aI270160062
aI51052623
aI228769818
aI22870548
aI336116660
aI15717449
aI18177126
aI18480191
aI14109095
aI223001775
aI33619331
aI263853830
aI22552019
aI26547262
aI28381563
aI221898261
aI22634945
aI55638250
aI14869587
aI32122637
aI194439261
aI25093616
aI32128783
aI76796615
aI261901573
aI242181549
aI14413715
aI281818374
aI41910099
aI44470591
aI52544275
aI35301878
aI15017311
aI17061263
aI171742638
aI25073877
aI166270127
aI14807546
aI138134695
aI17798759
aI8559342
aI14585754
aI65493023
aI115485051
aI32411258
aI16375531
aI38782307
aI19335302
aI19301896
aI21142905
aI14174808
aI14225091
aI14226308
aI657863
aasS'followers'
p4
(lp5
(lp6
L4066100233L
aI1935663590
aL2563924585L
aI263430798
aI981236256
aI132898426
aL3305714846L
aL3188262614L
aL3215876815L
aL2148273331L
aL3231871049L
aL3235587516L
aL2373907790L
aI33619331
aI550678003
aL2849350897L
aI276234003
aI277468468
aL2545917086L
aI1380652752
aI7689232
aI805070959
aI1969785529
aI991520846
aI1955264570
aI1720093748
aI515412823
aI1352350981
aI69266063
aI15839394
aI1586681580
aI499085205
aI164472159
aI482341316
aI1146210060
aI780420392
aI1117804836
aI323259065
aI219891620
aI233660275
aI466035895
aI773172882
aI123957913
aI221898261
aI29738466
aI523805673
aI503982818
aI25165951
aI509296048
aI392272386
aI374119501
aI19722000
aI467132294
aI91467788
aI284593828
aI264582494
aI274783904
aI249307818
aI15107260
aI117208432
aI384215147
aI14109095
aI242181549
aI321698023
aI378724942
aI318607020
aI281818374
aI20714308
aI171742638
aI14225091
aI14118444
aasS'obj'
p7
ccopy_reg
_reconstructor
p8
(ctweepy.models
User
p9
c__builtin__
object
p10
Ntp11
Rp12
(dp13
S'follow_request_sent'
p14
I00
sS'has_extended_profile'
p15
I00
sS'profile_use_background_image'
p16
I01
sS'profile_sidebar_fill_color'
p17
VDDEEF6
p18
sS'id'
p19
I14322160
sS'verified'
p20
I00
sS'entities'
p21
(dp22
Vdescription
p23
(dp24
Vurls
p25
(lp26
sssS'profile_image_url_https'
p27
Vhttps://pbs.twimg.com/profile_images/378800000500251396/f45e686a2b860d810a122fae2b074bd6_normal.jpeg
p28
sS'_json'
p29
(dp30
Vfollow_request_sent
p31
I00
sVhas_extended_profile
p32
I00
sVprofile_use_background_image
p33
I01
sVdefault_profile_image
p34
I00
sVid
p35
I14322160
sVprofile_background_image_url_https
p36
Vhttps://abs.twimg.com/images/themes/theme1/bg.png
p37
sVverified
p38
I00
sVprofile_text_color
p39
V333333
p40
sVprofile_image_url_https
p41
g28
sVprofile_sidebar_fill_color
p42
g18
sVentities
p43
g22
sVfollowers_count
p44
I71
sVprofile_sidebar_border_color
p45
VC0DEED
p46
sVid_str
p47
V14322160
p48
sVprofile_background_color
p49
VC0DEED
p50
sVlisted_count
p51
I3
sVstatus
p52
(dp53
Vcontributors
p54
NsVtruncated
p55
I00
sVtext
p56
VRT @timothysykes: Good the #NewYorkGiants lost, now they'll get revenge in in the Super Bowl &amp; I'll buy a suite &amp; take $FB $LNKD $TWTR peep\u2026
p57
sVin_reply_to_status_id
p58
Nsg35
L666061742666072065L
sVfavorite_count
p59
I0
sVsource
p60
V<a href="http://twitter.com/download/android" rel="nofollow">Twitter for Android</a>
p61
sVretweeted
p62
I00
sVcoordinates
p63
Nsg43
(dp64
Vsymbols
p65
(lp66
(dp67
Vindices
p68
(lp69
I127
aI130
asg56
VFB
p70
sa(dp71
g68
(lp72
I131
aI136
asg56
VLNKD
p73
sa(dp74
g68
(lp75
I137
aI142
asg56
VTWTR
p76
sasVuser_mentions
p77
(lp78
(dp79
g35
I11247222
sg68
(lp80
I3
aI16
asg47
V11247222
p81
sVscreen_name
p82
Vtimothysykes
p83
sVname
p84
VTimothy Sykes
p85
sasVhashtags
p86
(lp87
(dp88
g68
(lp89
I27
aI41
asg56
VNewYorkGiants
p90
sasg25
(lp91
ssVin_reply_to_screen_name
p92
Nsg47
V666061742666072065
p93
sVretweet_count
p94
I135
sVin_reply_to_user_id
p95
NsVfavorited
p96
I00
sVretweeted_status
p97
(dp98
Vlang
p99
Ven
p100
sg96
I00
sg43
(dp101
g65
(lp102
(dp103
g68
(lp104
I109
aI112
asg56
VFB
p105
sa(dp106
g68
(lp107
I113
aI118
asg56
VLNKD
p108
sa(dp109
g68
(lp110
I119
aI124
asg56
VTWTR
p111
sasg77
(lp112
sg86
(lp113
(dp114
g68
(lp115
I9
aI23
asg56
VNewYorkGiants
p116
sasg25
(lp117
ssg54
Nsg55
I00
sg56
VGood the #NewYorkGiants lost, now they'll get revenge in in the Super Bowl &amp; I'll buy a suite &amp; take $FB $LNKD $TWTR peeps who retweet this!
p118
sVcreated_at
p119
VMon Nov 16 00:58:33 +0000 2015
p120
sg62
I00
sVin_reply_to_status_id_str
p121
Nsg63
NsVin_reply_to_user_id_str
p122
Nsg60
V<a href="http://twitter.com" rel="nofollow">Twitter Web Client</a>
p123
sg58
Nsg92
Nsg47
V666057733448167424
p124
sVplace
p125
Nsg94
I135
sVgeo
p126
Nsg35
L666057733448167424L
sg59
I58
sg95
Nssg126
Nsg122
Nsg99
Ven
p127
sg119
VMon Nov 16 01:14:28 +0000 2015
p128
sg121
Nsg125
NssVis_translation_enabled
p129
I00
sVutc_offset
p130
I-18000
sVstatuses_count
p131
I372
sg23
VChristian.  Archer eGRC guy. College Football nut. Batman wannabe. Expressions/Views are my own, not my employer's.
p132
sVfriends_count
p133
I253
sVlocation
p134
VElmira, ON
p135
sVprofile_link_color
p136
V0084B4
p137
sVprofile_image_url
p138
Vhttp://pbs.twimg.com/profile_images/378800000500251396/f45e686a2b860d810a122fae2b074bd6_normal.jpeg
p139
sVfollowing
p140
I00
sVgeo_enabled
p141
I01
sVprofile_background_image_url
p142
Vhttp://abs.twimg.com/images/themes/theme1/bg.png
p143
sg82
Vadeboer
p144
sg99
Ven
p145
sVprofile_background_tile
p146
I00
sVfavourites_count
p147
I41
sg84
VAdrian
p148
sVnotifications
p149
I00
sVurl
p150
Nsg119
VMon Apr 07 12:06:30 +0000 2008
p151
sVcontributors_enabled
p152
I00
sVtime_zone
p153
VEastern Time (US & Canada)
p154
sVprotected
p155
I00
sVdefault_profile
p156
I01
sVis_translator
p157
I00
ssS'contributors_enabled'
p158
I00
sS'profile_text_color'
p159
g40
sS'followers_count'
p160
I71
sS'profile_sidebar_border_color'
p161
g46
sS'id_str'
p162
g48
sS'default_profile_image'
p163
I00
sS'listed_count'
p164
I3
sS'status'
p165
g8
(ctweepy.models
Status
p166
g10
Ntp167
Rp168
(dp169
S'favorited'
p170
I00
sS'contributors'
p171
NsS'truncated'
p172
I00
sS'text'
p173
g57
sS'source_url'
p174
Vhttp://twitter.com/download/android
p175
sS'in_reply_to_status_id'
p176
NsS'geo'
p177
Nsg19
L666061742666072065L
sS'favorite_count'
p178
I0
sS'lang'
p179
g127
sS'retweeted_status'
p180
g8
(g166
g10
Ntp181
Rp182
(dp183
g170
I00
sg171
Nsg172
I00
sg173
g118
sg174
Vhttp://twitter.com
p184
sg176
Nsg177
Nsg19
L666057733448167424L
sg178
I58
sg179
g100
sg21
g101
sS'created_at'
p185
cdatetime
datetime
p186
(S'\x07\xdf\x0b\x10\x00:!\x00\x00\x00'
p187
tp188
Rp189
sg29
g98
sS'coordinates'
p190
NsS'in_reply_to_user_id_str'
p191
NsS'source'
p192
VTwitter Web Client
p193
sS'in_reply_to_status_id_str'
p194
NsS'in_reply_to_screen_name'
p195
Nsg162
g124
sS'retweeted'
p196
I00
sS'place'
p197
NsS'retweet_count'
p198
I135
sS'in_reply_to_user_id'
p199
Nsbsg21
g64
sg185
g186
(S'\x07\xdf\x0b\x10\x01\x0e\x1c\x00\x00\x00'
p200
tp201
Rp202
sg29
g53
sg190
Nsg191
Nsg192
VTwitter for Android
p203
sg194
Nsg195
Nsg162
g93
sg196
I00
sg197
Nsg198
I135
sg199
NsbsS'is_translation_enabled'
p204
I00
sS'utc_offset'
p205
I-18000
sS'statuses_count'
p206
I372
sS'description'
p207
g132
sS'friends_count'
p208
I253
sS'location'
p209
g135
sS'profile_link_color'
p210
g137
sS'profile_image_url'
p211
g139
sS'notifications'
p212
I00
sS'geo_enabled'
p213
I01
sS'profile_background_color'
p214
g50
sS'profile_background_image_url'
p215
g143
sS'screen_name'
p216
g144
sg179
g145
sg1
I00
sS'profile_background_tile'
p217
I00
sS'favourites_count'
p218
I41
sS'name'
p219
g148
sS'url'
p220
Nsg185
g186
(S'\x07\xd8\x04\x07\x0c\x06\x1e\x00\x00\x00'
p221
tp222
Rp223
sS'profile_background_image_url_https'
p224
g37
sS'time_zone'
p225
g154
sS'protected'
p226
I00
sS'default_profile'
p227
I01
sS'is_translator'
p228
I00
sbs.