(dp0
S'following'
p1
(lp2
(lp3
I50393960
aI259471396
aL2725366949L
aI1559590873
aI1032288734
aI31472313
aL3416178238L
aI600574177
aL3480991889L
aL3247200464L
aL2329595875L
aL2494896473L
aI1616185404
aI1017360962
aL2247670622L
aI302173273
aL2253770318L
aI785935140
aI247788883
aI342577543
aI15971805
aI393125588
aI609304305
aI169489285
aI208937100
aI394088817
aL2838276994L
aL3188400966L
aI353088383
aL2555553103L
aI28846995
aI23835730
aI28489821
aI1713609026
aI433664446
aI604396974
aI1735482102
aI20390695
aI206372778
aI701411095
aI63533286
aI35961145
aI61008852
aI620040949
aI994245901
aI114927225
aI25735151
aI132173493
aI61008134
aL2482407307L
aI1323680454
aL3035804476L
aI474334718
aI405681948
aL2934024528L
aL2389718366L
aI19877147
aI8790772
aI317506401
aL2216333869L
aI376154503
aI65681636
aI972132170
aI17442457
aL2236449300L
aI7836182
aI19019298
aI82162291
aI552243033
aI170428232
aI38053161
aI403855355
aI109200080
aL2925186109L
aI14442905
aI770904320
aL2278259810L
aI737311736
aI274233761
aI1927015632
aL2302479052L
aI1370308412
aL2957837847L
aL2783668379L
aI30217291
aI229966745
aI409194010
aI551462946
aI47887874
aI8765762
aI15537227
aI244969675
aI97064954
aI14216123
aI102094857
aI166711687
aI19717430
aI43475268
aI32492934
aI50753411
aI472650465
aI352785485
aI632341632
aI1599056852
aI47678782
aI35789155
aI224135146
aL2546788616L
aI40113645
aI303960199
aI194346014
aI18090786
aI111054964
aI394991342
aI243801041
aI102527566
aI56121651
aI168679374
aI262144590
aI1370906497
aI18294197
aI1041050238
aI1217108497
aI112872946
aI17975357
aI500704345
aI820031509
aI193084716
aI197004838
aL2690637547L
aI317826655
aI281648605
aI365659990
aL2707283114L
aI44056458
aI117856309
aI146569971
aI14592723
aI24236494
aI59547877
aI1095840446
aI23141147
aI18132032
aI45668062
aI48294321
aI454237315
aI473493882
aI398323499
aI1948677396
aI1417004570
aI50427842
aI251261926
aI14192680
aI26257166
aI37129861
aI31131608
aI63322197
aI1459758564
aI21454322
aI91406407
aI729452473
aI1488497755
aI28426555
aI261515513
aI38520853
aI460421853
aI1449592184
aI921407492
aI34374919
aI318531893
aI31504542
aI30009639
aI2557521
aI16028049
aI429969517
aI1293246241
aI160648440
aI36361864
aI482358041
aI36155411
aI36184220
aI21662482
aI20639220
aI51241574
aI18124756
aI25521487
aasS'followers'
p4
(lp5
(lp6
L2725366949L
aI600574177
aL3480991889L
aL3188322991L
aL2534761215L
aI161764951
aI609304305
aL2967286551L
aI971129101
aL2658935590L
aI1506550260
aI41836427
aL3188400966L
aI28489821
aL2830220129L
aL3130480607L
aI259056263
aI1976918065
aI399549969
aI363277317
aI805230144
aL2482407307L
aL3035804476L
aL2948603481L
aI65681636
aI462550055
aI424920822
aI611817117
aL2922234899L
aI109200080
aI16736796
aL2925186109L
aI1927015632
aI1370308412
aL2783668379L
aL2957837847L
aI365659990
aI251261926
aI23141147
aI1417004570
aI729452473
aI1449592184
aI1488497755
aI28426555
aI261515513
aI1441948783
aI36361864
aasS'obj'
p7
ccopy_reg
_reconstructor
p8
(ctweepy.models
User
p9
c__builtin__
object
p10
Ntp11
Rp12
(dp13
S'follow_request_sent'
p14
NsS'has_extended_profile'
p15
I00
sS'profile_use_background_image'
p16
I01
sS'profile_sidebar_fill_color'
p17
VDDEEF6
p18
sS'id'
p19
I1446782119
sS'verified'
p20
I00
sS'entities'
p21
(dp22
Vdescription
p23
(dp24
Vurls
p25
(lp26
sssS'profile_image_url_https'
p27
Vhttps://pbs.twimg.com/profile_images/664910457690562560/QYOORWHy_normal.jpg
p28
sS'_json'
p29
(dp30
Vfollow_request_sent
p31
NsVhas_extended_profile
p32
I00
sVprofile_use_background_image
p33
I01
sVdefault_profile_image
p34
I00
sVid
p35
I1446782119
sVprofile_background_image_url_https
p36
Vhttps://abs.twimg.com/images/themes/theme1/bg.png
p37
sVverified
p38
I00
sVprofile_text_color
p39
V333333
p40
sVprofile_image_url_https
p41
g28
sVprofile_sidebar_fill_color
p42
g18
sVentities
p43
g22
sVfollowers_count
p44
I47
sVprofile_sidebar_border_color
p45
VC0DEED
p46
sVid_str
p47
V1446782119
p48
sVprofile_background_color
p49
VC0DEED
p50
sVlisted_count
p51
I10
sVstatus
p52
(dp53
Vcontributors
p54
NsVtruncated
p55
I00
sVtext
p56
VRT @MichaelCohen212: ISIS makes $40 million a month in oil revenue. Who is buying the oil from these terrorists?
p57
sVin_reply_to_status_id
p58
Nsg35
L666436067109785601L
sVfavorite_count
p59
I0
sVsource
p60
V<a href="http://twitter.com/download/iphone" rel="nofollow">Twitter for iPhone</a>
p61
sVretweeted
p62
I00
sVcoordinates
p63
Nsg43
(dp64
Vsymbols
p65
(lp66
sVuser_mentions
p67
(lp68
(dp69
g35
I52136185
sVindices
p70
(lp71
I3
aI19
asg47
V52136185
p72
sVscreen_name
p73
VMichaelCohen212
p74
sVname
p75
VMichael Cohen
p76
sasVhashtags
p77
(lp78
sg25
(lp79
ssVin_reply_to_screen_name
p80
Nsg47
V666436067109785601
p81
sVretweet_count
p82
I582
sVin_reply_to_user_id
p83
NsVfavorited
p84
I00
sVretweeted_status
p85
(dp86
Vlang
p87
Ven
p88
sg84
I00
sg43
(dp89
g65
(lp90
sg67
(lp91
sg77
(lp92
sg25
(lp93
ssg54
Nsg55
I00
sg56
VISIS makes $40 million a month in oil revenue. Who is buying the oil from these terrorists?
p94
sVcreated_at
p95
VMon Nov 16 12:14:58 +0000 2015
p96
sg62
I00
sVin_reply_to_status_id_str
p97
Nsg63
NsVin_reply_to_user_id_str
p98
Nsg60
V<a href="http://twitter.com/download/iphone" rel="nofollow">Twitter for iPhone</a>
p99
sg58
Nsg80
Nsg47
V666227959410401280
p100
sVplace
p101
Nsg82
I582
sVgeo
p102
Nsg35
L666227959410401280L
sg59
I497
sg83
Nssg102
Nsg98
Nsg87
Ven
p103
sg95
VTue Nov 17 02:01:54 +0000 2015
p104
sg97
Nsg101
NssVis_translation_enabled
p105
I00
sVutc_offset
p106
NsVstatuses_count
p107
I1332
sg23
V
p108
sVfriends_count
p109
I186
sVlocation
p110
Vtennessee
p111
sVprofile_link_color
p112
V0084B4
p113
sVprofile_image_url
p114
Vhttp://pbs.twimg.com/profile_images/664910457690562560/QYOORWHy_normal.jpg
p115
sVfollowing
p116
NsVgeo_enabled
p117
I01
sVprofile_background_image_url
p118
Vhttp://abs.twimg.com/images/themes/theme1/bg.png
p119
sg73
Vdherlevic
p120
sg87
Ven
p121
sVprofile_background_tile
p122
I00
sVfavourites_count
p123
I675
sg75
VDavid Herlevic
p124
sVnotifications
p125
NsVurl
p126
Nsg95
VTue May 21 16:29:03 +0000 2013
p127
sVcontributors_enabled
p128
I00
sVtime_zone
p129
NsVprotected
p130
I00
sVdefault_profile
p131
I01
sVis_translator
p132
I00
ssS'contributors_enabled'
p133
I00
sS'profile_text_color'
p134
g40
sS'followers_count'
p135
I47
sS'profile_sidebar_border_color'
p136
g46
sS'id_str'
p137
g48
sS'default_profile_image'
p138
I00
sS'listed_count'
p139
I10
sS'status'
p140
g8
(ctweepy.models
Status
p141
g10
Ntp142
Rp143
(dp144
S'favorited'
p145
I00
sS'contributors'
p146
NsS'truncated'
p147
I00
sS'text'
p148
g57
sS'source_url'
p149
Vhttp://twitter.com/download/iphone
p150
sS'in_reply_to_status_id'
p151
NsS'geo'
p152
Nsg19
L666436067109785601L
sS'favorite_count'
p153
I0
sS'lang'
p154
g103
sS'retweeted_status'
p155
g8
(g141
g10
Ntp156
Rp157
(dp158
g145
I00
sg146
Nsg147
I00
sg148
g94
sg149
Vhttp://twitter.com/download/iphone
p159
sg151
Nsg152
Nsg19
L666227959410401280L
sg153
I497
sg154
g88
sg21
g89
sS'created_at'
p160
cdatetime
datetime
p161
(S'\x07\xdf\x0b\x10\x0c\x0e:\x00\x00\x00'
p162
tp163
Rp164
sg29
g86
sS'coordinates'
p165
NsS'in_reply_to_user_id_str'
p166
NsS'source'
p167
VTwitter for iPhone
p168
sS'in_reply_to_status_id_str'
p169
NsS'in_reply_to_screen_name'
p170
Nsg137
g100
sS'retweeted'
p171
I00
sS'place'
p172
NsS'retweet_count'
p173
I582
sS'in_reply_to_user_id'
p174
Nsbsg21
g64
sg160
g161
(S'\x07\xdf\x0b\x11\x02\x016\x00\x00\x00'
p175
tp176
Rp177
sg29
g53
sg165
Nsg166
Nsg167
VTwitter for iPhone
p178
sg169
Nsg170
Nsg137
g81
sg171
I00
sg172
Nsg173
I582
sg174
NsbsS'is_translation_enabled'
p179
I00
sS'utc_offset'
p180
NsS'statuses_count'
p181
I1332
sS'description'
p182
g108
sS'friends_count'
p183
I186
sS'location'
p184
g111
sS'profile_link_color'
p185
g113
sS'profile_image_url'
p186
g115
sS'notifications'
p187
NsS'geo_enabled'
p188
I01
sS'profile_background_color'
p189
g50
sS'profile_background_image_url'
p190
g119
sS'screen_name'
p191
g120
sg154
g121
sg1
I00
sS'profile_background_tile'
p192
I00
sS'favourites_count'
p193
I675
sS'name'
p194
g124
sS'url'
p195
Nsg160
g161
(S'\x07\xdd\x05\x15\x10\x1d\x03\x00\x00\x00'
p196
tp197
Rp198
sS'profile_background_image_url_https'
p199
g37
sS'time_zone'
p200
NsS'protected'
p201
I00
sS'default_profile'
p202
I01
sS'is_translator'
p203
I00
sbs.