(dp0
S'following'
p1
(lp2
(lp3
I989054216
aI125838207
aL3131048201L
aI223238349
aI210855604
aI263440231
aI3840
aI783214
aI545618159
aI1631140573
aI805100527
aI274609144
aI150094848
aI104224141
aI1570180292
aI466333756
aI27746125
aI27185960
aI244248703
aI34968878
aI1551265794
aI419084104
aI975312619
aI26775476
aI171969696
aI41012342
aL3413442681L
aI71567590
aI19997064
aI89283254
aI141365328
aI35469475
aI1439033714
aI185847527
aI22152944
aI93529573
aI956308381
aI25073877
aI573356661
aI37065910
aL3307350720L
aI320524842
aI260296153
aI1137278262
aI16451932
aI274233761
aI37040959
aI67066114
aL2600444204L
aI873399943
aI1886441564
aI1961333743
aI1217108497
aI200552102
aL3060678379L
aI166816694
aI56585069
aI146128105
aI296924721
aI168691253
aI312653402
aL2859086301L
aL2232016410L
aI15520340
aI64748159
aI888903264
aI36609463
aI204619543
aI325616823
aI315536846
aI168679374
aI714051110
aI83466368
aI148397526
aI236621887
aI263197731
aL2281127150L
aL2313837474L
aI32450040
aI602809193
aI258929520
aI1645717729
aI1347071545
aL2344061090L
aI17583317
aI25330246
aI423769635
aI597104499
aI375721095
aI352925193
aI111411404
aI17695167
aI82172203
aI19565763
aL2426574114L
aL2196092280L
aI56121651
aI18223590
aI50753411
aI1431342590
aL2353511190L
aI19980808
aI1310354202
aI1413027896
aL2798309084L
aI19717430
aI1308512629
aI14663698
aI403855355
aL2274875012L
aI1979190776
aI1964973745
aI436947490
aL2724301285L
aL2588516546L
aI36041084
aI983655260
aI21328656
aI1611599888
aI68739089
aI54675700
aL2334614718L
aI404712651
aL2544278864L
aI15109611
aL2375680748L
aI1553291664
aI705540042
aL2411203357L
aI1064700308
aI721480968
aI93913891
aI24590532
aI16549997
aI246213562
aI17790265
aI191461872
aI259547567
aI352093320
aI241582083
aI198819777
aL2231913055L
aI80363261
aI91587884
aI216798259
aI235422006
aI18560146
aI72907355
aI37982404
aI271918174
aI429299410
aL2272207286L
aI340037225
aI54879118
aI1871450522
aI45539593
aI39030654
aI1526285174
aI3512101
aI100024370
aI35499699
aI192863913
aI313888969
aI19238203
aI286654612
aI33329534
aI100592354
aI82143051
aI1499852552
aI160625399
aI1881168794
aI884935388
aI18433619
aI428653913
aI14673355
aI783395028
aI495187540
aI1711239283
aI62871181
aI183826751
aI17124991
aI137322271
aI1979921
aI247857712
aI818081647
aI254280603
aI504094623
aI113390942
aI258028535
aI47247213
aI881219510
aI73224138
aI14659239
aI49663664
aI1359887402
aI890031644
aI262763182
aI281869839
aI524512963
aI1475988331
aI33286321
aI498166332
aI15110357
aL2171346457L
aI475524030
aI1919041363
aI577715567
aI82508155
aI188667490
aI77299913
aI715238213
aI430037432
aI143949701
aI590523112
aI1429550540
aI1652541
aI831258415
aI17841130
aI224466293
aI486139568
aI35728524
aI50088247
aI817209
aI230577906
aI15391371
aI21394549
aI357204582
aI238411032
aI86129724
aI317531803
aI157761266
aI402353316
aI257960802
aI377714371
aI58808528
aI29113916
aI479658434
aI592355101
aI25292321
aI29748372
aI243973091
aI18481050
aI21572528
aI416311594
aI27762318
aI27922928
aI126640430
aI324878994
aI375980238
aI106255504
aI489022370
aI302349992
aI100603066
aI186243441
aI82142636
aI21810002
aI41753918
aI102754598
aI790062926
aI22814481
aI163223282
aI14561327
aI29751744
aI373457750
aI1018083266
aI17513682
aI72928001
aI61661638
aI57111200
aI71777247
aI40053049
aI1559356620
aI28954908
aI15296897
aI1461820334
aI955733059
aI219526902
aI16359602
aI20636215
aI285738285
aI33216611
aI108021761
aI1087194962
aI271138078
aI1534167900
aI55626399
aI18745322
aI250758475
aI248373197
aI93295809
aI412611622
aI551252344
aI25103967
aI343066142
aI381696140
aI271211220
aI37564410
aI35002876
aI42589787
aI25163231
aI15985098
aI53215424
aI32780262
aI47087332
aI106820363
aI194137231
aI21232827
aI15896903
aI246114807
aI48434084
aI632341632
aI16598957
aI22866433
aI904243855
aI211951561
aI586
aI34315481
aI392739061
aI32731520
aI269497154
aI14117774
aI94609907
aI53437516
aI624413
aI540974910
aI244869418
aI992182100
aI289556231
aI226812118
aI267317705
aI574582398
aI55561590
aI7517052
aI202915788
aI25827743
aI154726606
aI267867165
aI397230151
aI1033654686
aI61342056
aI64888916
aI136842204
aI166597717
aI818071
aI455366870
aI418036639
aI32674236
aI82414172
aI16456226
aI327462963
aI14633485
aI44060322
aI60642052
aI106504911
aI61197838
aI38962746
aI18327902
aI168186079
aI391492257
aI126067662
aI745273
aI15971805
aI172023851
aI211281628
aI44264894
aI264370502
aI292250240
aI375340663
aI266799789
aI39549428
aI21917683
aI14692160
aI15784700
aI851632189
aI84312619
aI26223938
aI255996385
aI46063
aI22088714
aI434681699
aI18294197
aI565899403
aI67533177
aI26819104
aI15737459
aI149111689
aI27814665
aI23059499
aI21907474
aI10284472
aI624620754
aI12543
aI11222
aI338091511
aI204798346
aI64391962
aI11132462
aI3232
aI54664941
aI67181543
aI766509
aI184693
aI409194010
aI846865657
aI20449296
aI101881787
aI626461093
aI652193
aI23484039
aI33303104
aI15303626
aI21892507
aI30040201
aI14372091
aI37284991
aI112961861
aI972651
aI412362576
aI36630361
aI15079601
aI19651092
aI816653
aI16955517
aI600378539
aI472974408
aI27745484
aI15227849
aI15293504
aI9312072
aI74112480
aI14115408
aI34176543
aI355172912
aI146930159
aI220016580
aI15808764
aI318171818
aI47669320
aI122346941
aI20402945
aI49637104
aI10202342
aI244969675
aI149102306
aI16722610
aI89366087
aI25262848
aI118399469
aI51912109
aI62562916
aI455824771
aI23074277
aI30818980
aI102094857
aI71760197
aI35227172
aI216498411
aI140912249
aI24227424
aI28571999
aI16746076
aI34713362
aI84344194
aI111984730
aI81000114
aI86582499
aI14276189
aI146095589
aI17880354
aI112317039
aI236953420
aI18856867
aI84402174
aI130510920
aI28123717
aI42027382
aI38065837
aI37918984
aI27808627
aI20061636
aI15710716
aI17762177
aI52004191
aI47209382
aI44413646
aI47387039
aI15485461
aI14134555
aI23390520
aI31546412
aI47794084
aI23036853
aI5768632
aI38861234
aI14250809
aI14886375
aI36351671
aI29562293
aI20327105
aI45270950
aI5831802
aI30521330
aI41729003
aI22264891
aI14136886
aI19988458
aI36288874
aI15005443
aI17622474
aI17094120
aI10017542
aI7750492
aI18052886
aI29219633
aI7557352
aI15246621
aasS'followers'
p4
(lp5
(lp6
L3128433922L
aL3119836100L
aI1931770087
aL2708462749L
aI22718477
aI533699760
aI127603740
aL2749463678L
aL4130538674L
aL4138083707L
aI238422999
aI1924310023
aI498211573
aI16032378
aI25599792
aL3081549154L
aI210561036
aI124193987
aI348532299
aI15812297
aL2161743374L
aI49431605
aI3840
aL2220254215L
aL2260795585L
aL3131225117L
aI755879528
aI994257902
aI274609144
aL3257328403L
aI435924734
aI189901963
aL3319553639L
aL3308110928L
aI39948926
aI446674553
aI132617656
aI418036639
aI17315080
aI41124850
aI515722717
aI316545680
aI182992352
aI890088571
aI430736162
aI463499893
aI108949303
aI19507456
aI182333689
aI73708617
aI141453630
aI100418160
aL2305708183L
aI241232715
aI115473049
aI64888916
aL3001773137L
aI85100416
aI480002469
aI247779127
aI1608479064
aI1345345056
aI38116056
aI398126992
aI263873737
aI879376561
aI35842814
aI12229902
aI106255504
aI47757340
aI1966253173
aI226316127
aL2485450356L
aI39549428
aL2856866291L
aI25091158
aL2473207808L
aI612939239
aI472426245
aL3313002806L
aI250317700
aI153148261
aI438402214
aI284807200
aL3307350720L
aI1703246636
aI58236945
aL2993148593L
aI35469475
aI19565763
aI198953070
aI374743601
aL2155801673L
aI260296153
aI1137278262
aI474850295
aI25810518
aL2163272683L
aI154926637
aI20345379
aI14447280
aI258510361
aI334235131
aI166041412
aL3161475848L
aI260493946
aL2600444204L
aL3233844061L
aL2833931855L
aI262684838
aI1335895868
aI1904290465
aL3192850274L
aL3062557547L
aI19020722
aI399111305
aI318170259
aI40183126
aI919533990
aI46510194
aI24115965
aI303531344
aI21069098
aI16886925
aI1192010382
aI260907612
aI1407273368
aL3075596091L
aI16844291
aL3122552289L
aL2915665733L
aL2922234899L
aI1530916794
aI18073620
aI265532169
aL2451351144L
aL3016884012L
aI705540042
aL2332137835L
aL2931625874L
aI16483885
aL2995596672L
aL2994515924L
aI1917883639
aI62121613
aL2978861728L
aI703330770
aI34002867
aL2820922074L
aI493444715
aI37599577
aI550415080
aI17224769
aL2445930245L
aL2710770848L
aI23284581
aI890031644
aI36089353
aL2908537305L
aI62226476
aI462618111
aL2446490742L
aI501208961
aL2912585938L
aI146351426
aI1467804924
aI320524842
aI570004912
aI993756841
aI20700725
aI224525004
aI16140851
aI964641726
aI58670477
aL2859086301L
aL2831901166L
aL2766924404L
aI26644466
aL2846797281L
aI129079450
aI1436185118
aI314639384
aI266717381
aI23633168
aI706839793
aL2863058378L
aL2606024768L
aI120672388
aI279978591
aI160753079
aL2638147227L
aL2727006568L
aI126743971
aI42935945
aI14383942
aI1167632820
aI14276189
aL2785111906L
aI1955493762
aI1354252658
aI45539593
aL2825353152L
aL2371129896L
aL2798309084L
aI366856552
aI305931207
aL2457763392L
aI19988458
aI50117842
aI534327789
aL2536549554L
aI405571001
aI374315292
aI441964818
aI15897179
aI184391585
aI35204335
aI14722659
aL2724301285L
aI159826858
aL2529833184L
aI190777222
aI604871206
aI1361315400
aI46468236
aI404712651
aI34943146
aL2465030030L
aI60407575
aI125187717
aI381836069
aL2545106514L
aL2562307189L
aI202329423
aI274087824
aI191461872
aI305073940
aI810870114
aI93913891
aI107742244
aI45011903
aL2400554652L
aI141437269
aI605164415
aI48792187
aI573095099
aI27473764
aI1018083266
aL2236826372L
aI527692450
aI14565991
aL2460925059L
aI3382
aI1611599888
aI429299410
aI256832893
aL2282629103L
aI1370362818
aI1268476141
aI57166340
aI17638299
aI3512101
aI55677143
aI67181543
aI710571001
aI212428415
aI544484168
aI185420483
aI296351501
aI1526285174
aI7517052
aI275681725
aL2203807027L
aI805230144
aI33303104
aI67533177
aI14136886
aI118156684
aI18818431
aI1702482906
aI192863913
aI19010961
aL2212995808L
aI105217332
aI101342511
aI19238203
aI33329534
aI83668232
aI1418264892
aI187722717
aI15062200
aI356800344
aI379214294
aI1193201976
aI146930159
aI123674886
aI77032491
aI140149665
aL2241442813L
aI246500128
aI254280603
aI95751058
aI1838814206
aI163223282
aI620560642
aI262763182
aI1475988331
aI184131402
aI23390520
aI43950136
aI352515718
aI157761266
aI37589139
aI1950302029
aI211617699
aI8080612
aI29751744
aI57111200
aI508676095
aI1461820334
aI25163231
aI15985098
aI1409599188
aI1395791395
aI761821016
aI108657905
aI1172630544
aI32674236
aI14735589
aI1055055542
aI1006695176
aI567611232
aI25277152
aI18001417
aI28324703
aI815835894
aI107646745
aI565899403
aI596278928
aI485380865
aI25292321
aI16360370
aI775763174
aI747534438
aI846865657
aI589893077
aI318171818
aI18992010
aI440384198
aI32731520
aI41872110
aI45324390
aI34646331
aI55257731
aI86582499
aI15710716
aI52004191
aI44413646
aI47794084
aI14886375
aasS'obj'
p7
ccopy_reg
_reconstructor
p8
(ctweepy.models
User
p9
c__builtin__
object
p10
Ntp11
Rp12
(dp13
S'follow_request_sent'
p14
NsS'has_extended_profile'
p15
I00
sS'profile_use_background_image'
p16
I00
sS'profile_sidebar_fill_color'
p17
V000000
p18
sS'id'
p19
I14629171
sS'verified'
p20
I00
sS'entities'
p21
(dp22
Vdescription
p23
(dp24
Vurls
p25
(lp26
sssS'profile_image_url_https'
p27
Vhttps://pbs.twimg.com/profile_images/617506338759782400/btl2d3lD_normal.jpg
p28
sS'_json'
p29
(dp30
Vfollow_request_sent
p31
NsVhas_extended_profile
p32
I00
sVprofile_use_background_image
p33
I00
sVdefault_profile_image
p34
I00
sVid
p35
I14629171
sVprofile_background_image_url_https
p36
Vhttps://abs.twimg.com/images/themes/theme1/bg.png
p37
sVverified
p38
I00
sVprofile_text_color
p39
V000000
p40
sVprofile_image_url_https
p41
g28
sVprofile_sidebar_fill_color
p42
g18
sVentities
p43
g22
sVfollowers_count
p44
I360
sVprofile_sidebar_border_color
p45
V000000
p46
sVid_str
p47
V14629171
p48
sVprofile_background_color
p49
V000000
p50
sVlisted_count
p51
I47
sVstatus
p52
(dp53
Vlang
p54
Vund
p55
sVfavorited
p56
I00
sg43
(dp57
Vsymbols
p58
(lp59
sVuser_mentions
p60
(lp61
(dp62
g35
I1137278262
sVindices
p63
(lp64
I0
aI11
asg47
V1137278262
p65
sVscreen_name
p66
Vsmarter411
p67
sVname
p68
VSam P
p69
sasVhashtags
p70
(lp71
sg25
(lp72
ssVcontributors
p73
NsVtruncated
p74
I00
sVtext
p75
V@smarter411 lol!
p76
sVcreated_at
p77
VMon Nov 16 20:00:36 +0000 2015
p78
sVretweeted
p79
I00
sVin_reply_to_status_id_str
p80
V666344948434800640
p81
sVcoordinates
p82
NsVin_reply_to_user_id_str
p83
V1137278262
p84
sVsource
p85
V<a href="http://twitter.com" rel="nofollow">Twitter Web Client</a>
p86
sVin_reply_to_status_id
p87
L666344948434800640L
sVin_reply_to_screen_name
p88
Vsmarter411
p89
sg47
V666345140387090432
p90
sVplace
p91
NsVretweet_count
p92
I0
sVgeo
p93
Nsg35
L666345140387090432L
sVfavorite_count
p94
I0
sVin_reply_to_user_id
p95
I1137278262
ssVis_translation_enabled
p96
I00
sVutc_offset
p97
I-28800
sVstatuses_count
p98
I7882
sg23
VEquity Analyst, Portfolio Manager, Entrepreneur, Angel Investor & More!!!
p99
sVfriends_count
p100
I516
sVlocation
p101
VWest Coast - USA
p102
sVprofile_link_color
p103
V3B94D9
p104
sVprofile_image_url
p105
Vhttp://pbs.twimg.com/profile_images/617506338759782400/btl2d3lD_normal.jpg
p106
sVfollowing
p107
NsVgeo_enabled
p108
I01
sVprofile_background_image_url
p109
Vhttp://abs.twimg.com/images/themes/theme1/bg.png
p110
sg66
Vsandiegosam
p111
sg54
Ven
p112
sVprofile_background_tile
p113
I00
sVfavourites_count
p114
I675
sg68
VCraig S.
p115
sVnotifications
p116
NsVurl
p117
Nsg77
VFri May 02 18:18:21 +0000 2008
p118
sVcontributors_enabled
p119
I00
sVtime_zone
p120
VPacific Time (US & Canada)
p121
sVprotected
p122
I00
sVdefault_profile
p123
I00
sVis_translator
p124
I00
ssS'contributors_enabled'
p125
I00
sS'profile_text_color'
p126
g40
sS'followers_count'
p127
I360
sS'profile_sidebar_border_color'
p128
g46
sS'id_str'
p129
g48
sS'default_profile_image'
p130
I00
sS'listed_count'
p131
I47
sS'status'
p132
g8
(ctweepy.models
Status
p133
g10
Ntp134
Rp135
(dp136
S'favorited'
p137
I00
sS'contributors'
p138
NsS'truncated'
p139
I00
sS'text'
p140
g76
sS'source_url'
p141
Vhttp://twitter.com
p142
sS'in_reply_to_status_id'
p143
L666344948434800640L
sS'geo'
p144
Nsg19
L666345140387090432L
sS'favorite_count'
p145
I0
sS'lang'
p146
g55
sg21
g57
sS'created_at'
p147
cdatetime
datetime
p148
(S'\x07\xdf\x0b\x10\x14\x00$\x00\x00\x00'
p149
tp150
Rp151
sg29
g53
sS'coordinates'
p152
NsS'in_reply_to_user_id_str'
p153
g84
sS'source'
p154
VTwitter Web Client
p155
sS'in_reply_to_status_id_str'
p156
g81
sS'in_reply_to_screen_name'
p157
g89
sg129
g90
sS'retweeted'
p158
I00
sS'place'
p159
NsS'retweet_count'
p160
I0
sS'in_reply_to_user_id'
p161
I1137278262
sbsS'is_translation_enabled'
p162
I00
sS'utc_offset'
p163
I-28800
sS'statuses_count'
p164
I7882
sS'description'
p165
g99
sS'friends_count'
p166
I516
sS'location'
p167
g102
sS'profile_link_color'
p168
g104
sS'profile_image_url'
p169
g106
sS'notifications'
p170
NsS'geo_enabled'
p171
I01
sS'profile_background_color'
p172
g50
sS'profile_background_image_url'
p173
g110
sS'screen_name'
p174
g111
sg146
g112
sg1
I00
sS'profile_background_tile'
p175
I00
sS'favourites_count'
p176
I675
sS'name'
p177
g115
sS'url'
p178
Nsg147
g148
(S'\x07\xd8\x05\x02\x12\x12\x15\x00\x00\x00'
p179
tp180
Rp181
sS'profile_background_image_url_https'
p182
g37
sS'time_zone'
p183
g121
sS'protected'
p184
I00
sS'default_profile'
p185
I00
sS'is_translator'
p186
I00
sbs.