(dp0
S'following'
p1
(lp2
(lp3
I396294440
aI61533120
aI931450722
aI442298073
aI15752608
aI701464597
aI36066745
aI386616537
aI1091770208
aI116229964
aI19019298
aI63538464
aI111083109
aI274233761
aI529704495
aI353176792
aI169944507
aI1346097727
aI86626845
aI396365748
aI82162291
aI17393219
aI30217291
aI17445167
aL2187938131L
aI888903264
aI1241647488
aI409194010
aI1330741110
aI36454287
aI1330055544
aI1020244080
aI1713068424
aI44986993
aI93889008
aI23469738
aI38530021
aI348772885
aI446784969
aI25562183
aI168186079
aI20147730
aI19717430
aI412362576
aI26117527
aI82095703
aI86455649
aI50758087
aI1033654686
aI69421704
aI81124540
aI47678782
aI21354462
aI18021517
aI25325260
aI15563814
aI13171622
aI243801041
aI18058609
aI53039176
aI632341632
aI26759915
aI32492934
aI50753411
aI15974185
aI102754598
aI194343133
aI609204253
aI356986434
aI176693404
aI229246832
aI1261344432
aI16300786
aI20815041
aI18294275
aI1101251856
aI116748080
aI28160998
aI5383942
aI56488059
aI22623663
aI102094857
aI50014224
aI208120290
aI34010976
aI22813422
aI76023409
aI20187065
aI16150688
aI16949344
aI38489678
aI44418062
aI18294197
aI31484145
aI27013292
aI25950355
aI44438256
aasS'followers'
p4
(lp5
(lp6
I13171622
aL3902723544L
aI119444186
aI393858736
aI15386694
aI116877838
aI408674809
aI390142771
aI19583480
aI405141209
aI45508397
aL3685660152L
aI19010961
aI56593404
aI856575014
aI76730512
aI86363672
aI216793344
aI49184462
aL3114333293L
aI1434344588
aL2275337142L
aI317124815
aI971129101
aI15173863
aI1001356296
aL3221222915L
aL2416995798L
aI285362838
aI30820266
aL3197149232L
aI210541126
aL2653464069L
aI1525342994
aL2830096608L
aL2294183432L
aI1147233769
aI1457773255
aI467089613
aI45194550
aI364701860
aI253016918
aL3056633512L
aI377773501
aL3012561618L
aL3170213435L
aI1592398656
aI546475090
aI35944945
aL2428348442L
aL2366845389L
aL2851107971L
aI79709503
aI974948892
aL2979342893L
aI37674084
aL2922234899L
aI1927163754
aL2517983497L
aI237481280
aI16519380
aL2803571985L
aI1613140274
aI135397526
aL2975533509L
aL2707418735L
aL2893129192L
aI1712596382
aI485889702
aI250317700
aI605735945
aL2905771350L
aI1252006784
aL2459651330L
aL2360959886L
aL2912938047L
aI487089304
aI331391769
aI330389740
aI66975479
aI210071010
aL2550149892L
aL2361262828L
aI336150147
aL2852522477L
aI797149178
aI21244847
aI1676850295
aI303223590
aI289311242
aI247788883
aI28622119
aI513835349
aL2839629840L
aI140588707
aL2343757398L
aI1545630956
aI26057509
aI1706469354
aL2312689556L
aI260863945
aI960747870
aI949640148
aI104284098
aI18077308
aI114439583
aI33746067
aI82916889
aL2180577975L
aL2591062964L
aI1271652320
aI31369038
aI71330475
aI611532789
aI446784969
aI89746167
aI15990144
aI353416396
aL2567586141L
aI183495067
aI227565300
aI60620182
aL2275763821L
aI418498034
aI1346097727
aI206120837
aI1227859237
aI221910932
aI475809343
aI252732212
aL2369309544L
aI1024867136
aI132046547
aL2385490910L
aI140962092
aI48160048
aL2319017766L
aI552326867
aL2260964498L
aL2260978466L
aL2260944566L
aL2260956925L
aI258047960
aL2295434528L
aI145693132
aI606290554
aI104584141
aI1308097688
aI1228613498
aI72743091
aI97234383
aL2162862396L
aI1927559376
aI575582187
aI343291101
aI176693404
aI1261344432
aI1101251856
aasS'obj'
p7
ccopy_reg
_reconstructor
p8
(ctweepy.models
User
p9
c__builtin__
object
p10
Ntp11
Rp12
(dp13
S'follow_request_sent'
p14
NsS'has_extended_profile'
p15
I00
sS'profile_use_background_image'
p16
I01
sS'profile_sidebar_fill_color'
p17
VDDEEF6
p18
sS'id'
p19
I1500075060
sS'verified'
p20
I00
sS'entities'
p21
(dp22
Vurl
p23
(dp24
Vurls
p25
(lp26
(dp27
g23
Vhttp://t.co/3yxdBDt55t
p28
sVindices
p29
(lp30
I0
aI22
asVexpanded_url
p31
Vhttp://biotechbeat.blogspot.com
p32
sVdisplay_url
p33
Vbiotechbeat.blogspot.com
p34
sassVdescription
p35
(dp36
g25
(lp37
sssS'profile_image_url_https'
p38
Vhttps://pbs.twimg.com/profile_images/344513261567726262/65064c399320f204dc36b8e9820b5184_normal.jpeg
p39
sS'_json'
p40
(dp41
Vfollow_request_sent
p42
NsVhas_extended_profile
p43
I00
sVprofile_use_background_image
p44
I01
sVdefault_profile_image
p45
I00
sVid
p46
I1500075060
sVprofile_background_image_url_https
p47
Vhttps://abs.twimg.com/images/themes/theme1/bg.png
p48
sVverified
p49
I00
sVprofile_text_color
p50
V333333
p51
sVprofile_image_url_https
p52
g39
sVprofile_sidebar_fill_color
p53
g18
sVentities
p54
g22
sVfollowers_count
p55
I158
sVprofile_sidebar_border_color
p56
VC0DEED
p57
sVid_str
p58
V1500075060
p59
sVprofile_background_color
p60
VC0DEED
p61
sVlisted_count
p62
I24
sVstatus
p63
(dp64
Vcontributors
p65
NsVtruncated
p66
I00
sVtext
p67
VRT @FierceBiotech: RIP: Failure-prone KaloBios pulls the plug, calls in the liquidators. https://t.co/Pk5ksROX9B by @JohnCFierce $KBIO
p68
sVin_reply_to_status_id
p69
Nsg46
L666383425469677568L
sVfavorite_count
p70
I0
sVsource
p71
V<a href="http://twitter.com" rel="nofollow">Twitter Web Client</a>
p72
sVretweeted
p73
I00
sVcoordinates
p74
Nsg54
(dp75
Vsymbols
p76
(lp77
(dp78
g29
(lp79
I129
aI134
asg67
VKBIO
p80
sasVuser_mentions
p81
(lp82
(dp83
g46
I18294197
sg29
(lp84
I3
aI17
asg58
V18294197
p85
sVscreen_name
p86
VFierceBiotech
p87
sVname
p88
VFierceBiotech
p89
sa(dp90
g46
I102754598
sg29
(lp91
I116
aI128
asg58
V102754598
p92
sg86
VJohnCFierce
p93
sg88
VJohn Carroll
p94
sasVhashtags
p95
(lp96
sg25
(lp97
(dp98
g23
Vhttps://t.co/Pk5ksROX9B
p99
sg29
(lp100
I89
aI112
asg31
Vhttp://www.fiercebiotech.com/story/rip-failure-prone-kalobios-pulls-plug-calls-liquidators/2015-11-16
p101
sg33
Vfiercebiotech.com/story/rip-fail\u2026
p102
sassVin_reply_to_screen_name
p103
Nsg58
V666383425469677568
p104
sVretweet_count
p105
I4
sVin_reply_to_user_id
p106
NsVfavorited
p107
I00
sVretweeted_status
p108
(dp109
g65
Nsg66
I00
sg67
VRIP: Failure-prone KaloBios pulls the plug, calls in the liquidators. https://t.co/Pk5ksROX9B by @JohnCFierce $KBIO
p110
sg69
Nsg46
L666240721721106433L
sg70
I1
sg71
V<a href="https://about.twitter.com/products/tweetdeck" rel="nofollow">TweetDeck</a>
p111
sg73
I00
sg74
Nsg54
(dp112
g76
(lp113
(dp114
g29
(lp115
I110
aI115
asg67
VKBIO
p116
sasg81
(lp117
(dp118
g46
I102754598
sg29
(lp119
I97
aI109
asg58
V102754598
p120
sg86
VJohnCFierce
p121
sg88
VJohn Carroll
p122
sasg95
(lp123
sg25
(lp124
(dp125
g23
Vhttps://t.co/Pk5ksROX9B
p126
sg29
(lp127
I70
aI93
asg31
Vhttp://www.fiercebiotech.com/story/rip-failure-prone-kalobios-pulls-plug-calls-liquidators/2015-11-16
p128
sg33
Vfiercebiotech.com/story/rip-fail\u2026
p129
sassg103
Nsg58
V666240721721106433
p130
sg105
I4
sg106
Nsg107
I00
sVgeo
p131
NsVin_reply_to_user_id_str
p132
NsVpossibly_sensitive
p133
I00
sVlang
p134
Ven
p135
sVcreated_at
p136
VMon Nov 16 13:05:40 +0000 2015
p137
sVin_reply_to_status_id_str
p138
NsVplace
p139
Nssg131
Nsg132
Nsg133
I00
sg134
Ven
p140
sg136
VMon Nov 16 22:32:44 +0000 2015
p141
sg138
Nsg139
NssVis_translation_enabled
p142
I00
sVutc_offset
p143
NsVstatuses_count
p144
I5885
sg35
V
p145
sVfriends_count
p146
I97
sVlocation
p147
g145
sVprofile_link_color
p148
V0084B4
p149
sVprofile_image_url
p150
Vhttp://pbs.twimg.com/profile_images/344513261567726262/65064c399320f204dc36b8e9820b5184_normal.jpeg
p151
sVfollowing
p152
NsVgeo_enabled
p153
I00
sVprofile_background_image_url
p154
Vhttp://abs.twimg.com/images/themes/theme1/bg.png
p155
sg86
VTheBiotechBeat
p156
sg134
Ven
p157
sVprofile_background_tile
p158
I00
sVfavourites_count
p159
I1650
sg88
VBiotech Beat
p160
sVnotifications
p161
Nsg23
Vhttp://t.co/3yxdBDt55t
p162
sg136
VTue Jun 11 02:49:32 +0000 2013
p163
sVcontributors_enabled
p164
I00
sVtime_zone
p165
NsVprotected
p166
I00
sVdefault_profile
p167
I01
sVis_translator
p168
I00
ssS'contributors_enabled'
p169
I00
sS'profile_text_color'
p170
g51
sS'followers_count'
p171
I158
sS'profile_sidebar_border_color'
p172
g57
sS'id_str'
p173
g59
sS'default_profile_image'
p174
I00
sS'listed_count'
p175
I24
sS'status'
p176
g8
(ctweepy.models
Status
p177
g10
Ntp178
Rp179
(dp180
S'favorited'
p181
I00
sS'contributors'
p182
NsS'truncated'
p183
I00
sS'text'
p184
g68
sS'source_url'
p185
Vhttp://twitter.com
p186
sS'possibly_sensitive'
p187
I00
sS'in_reply_to_status_id'
p188
NsS'geo'
p189
Nsg19
L666383425469677568L
sS'favorite_count'
p190
I0
sS'lang'
p191
g140
sS'retweeted_status'
p192
g8
(g177
g10
Ntp193
Rp194
(dp195
g181
I00
sg182
Nsg183
I00
sg184
g110
sg185
Vhttps://about.twitter.com/products/tweetdeck
p196
sg187
I00
sg188
Nsg189
Nsg19
L666240721721106433L
sg190
I1
sg191
g135
sg21
g112
sS'created_at'
p197
cdatetime
datetime
p198
(S'\x07\xdf\x0b\x10\r\x05(\x00\x00\x00'
p199
tp200
Rp201
sg40
g109
sS'coordinates'
p202
NsS'in_reply_to_user_id_str'
p203
NsS'source'
p204
VTweetDeck
p205
sS'in_reply_to_status_id_str'
p206
NsS'in_reply_to_screen_name'
p207
Nsg173
g130
sS'retweeted'
p208
I00
sS'place'
p209
NsS'retweet_count'
p210
I4
sS'in_reply_to_user_id'
p211
Nsbsg21
g75
sg197
g198
(S'\x07\xdf\x0b\x10\x16 ,\x00\x00\x00'
p212
tp213
Rp214
sg40
g64
sg202
Nsg203
Nsg204
VTwitter Web Client
p215
sg206
Nsg207
Nsg173
g104
sg208
I00
sg209
Nsg210
I4
sg211
NsbsS'is_translation_enabled'
p216
I00
sS'utc_offset'
p217
NsS'statuses_count'
p218
I5885
sS'description'
p219
g145
sS'friends_count'
p220
I97
sS'location'
p221
g145
sS'profile_link_color'
p222
g149
sS'profile_image_url'
p223
g151
sS'notifications'
p224
NsS'geo_enabled'
p225
I00
sS'profile_background_color'
p226
g61
sS'profile_background_image_url'
p227
g155
sS'screen_name'
p228
g156
sg191
g157
sg1
I00
sS'profile_background_tile'
p229
I00
sS'favourites_count'
p230
I1650
sS'name'
p231
g160
sS'url'
p232
g162
sg197
g198
(S'\x07\xdd\x06\x0b\x021 \x00\x00\x00'
p233
tp234
Rp235
sS'profile_background_image_url_https'
p236
g48
sS'time_zone'
p237
NsS'protected'
p238
I00
sS'default_profile'
p239
I01
sS'is_translator'
p240
I00
sbs.