(dp0
S'following'
p1
(lp2
(lp3
I342321261
aI15079601
aI569209566
aI97729358
aI88226103
aI298823402
aI250758475
aL2827166299L
aI367418636
aL2215937899L
aI470438993
aL3408963874L
aL3189110000L
aL2895033159L
aL3117335656L
aI620240656
aI31631018
aI274233761
aI20183927
aI371723057
aI208185348
aL2905062363L
aI104718147
aI322975900
aI1627763208
aL2898560489L
aL3085771904L
aL3237558054L
aL3086231934L
aI25695779
aI1729015129
aI509761132
aI32468301
aI1118381612
aI890146412
aI543760437
aI201756951
aL3164538112L
aL2607601184L
aI11247222
aI757033212
aL2385801239L
aI179959497
aI205561306
aL2832571183L
aI534812541
aL3062135689L
aI47200863
aI91154423
aI47384508
aI297564170
aL2843981466L
aI292777349
aI782030712
aL2321166747L
aL2555486508L
aI141663871
aL2857256388L
aL2597009028L
aI35773039
aI85326024
aI1314862352
aI237548529
aI3108351
aI112516813
aL2397966581L
aI326953842
aI22256645
aI16534711
aI91478624
aI19407053
aI71818799
aI482523330
aI115711911
aI8736882
aI5988062
aI25053299
aL2685647036L
aI51224626
aI122418054
aI215671599
aI246120229
aI73406718
aI94342002
aI14367719
aI33275038
aI170366190
aL2298462277L
aI260918561
aL2346048230L
aL2874337821L
aI9626902
aL2704486915L
aI43718300
aI78979931
aI1891089511
aI1598644159
aI316172080
aI193870590
aI7517052
aI35219345
aI19600070
aI17660505
aI184881902
aI269463162
aI475644434
aI757530296
aI14886375
aI15568127
aI1534167900
aI235312627
aI580504980
aI1663297784
aI398519572
aI258572270
aI82114345
aI37918984
aI548747112
aI263853830
aI54636082
aI109455180
aI361809247
aI190365079
aI18981482
aI26765788
aI747504205
aI109350515
aI379589715
aI92435771
aI17826999
aI1089860617
aI18921643
aI44669326
aI1364930179
aasS'followers'
p4
(lp5
(lp6
L3701710339L
aL2797710308L
aI1267802725
aL2548138436L
aL4142019881L
aL2415939985L
aL3151918170L
aL3248378876L
aL3995055857L
aI819791815
aI67164596
aL4041137254L
aI95654255
aL3395170581L
aL2792924349L
aI569209566
aI350970952
aI28939115
aL2992585800L
aI349330256
aI553097578
aI44540101
aI1258430052
aI450629741
aL2726345108L
aL2315975940L
aL3237558054L
aL2158837314L
aI87090949
aI17179911
aI252404664
aI565681878
aL2555486508L
aI1449673868
aL2875175409L
aL2215937899L
aI175877211
aI37918984
aI962935880
aL3522280756L
aL2656655996L
aI247788883
aI470438993
aL2912072247L
aL2895033159L
aI536808172
aL3341700679L
aI113084091
aI141453630
aI144625221
aL3236163921L
aL2835791771L
aI208185348
aL2905062363L
aI14886375
aL2597087005L
aI485816169
aL3263400317L
aL2704486915L
aL3408963874L
aL3239301276L
aI22069448
aI453627331
aI95440122
aI163601842
aI45702033
aI549657836
aL2330623136L
aI61197838
aI1288711902
aI188916872
aI811658209
aL3115501186L
aL3056947008L
aL3075270063L
aI31631018
aL2304194297L
aL3243286032L
aI98324902
aI23947213
aL3062135689L
aI296253096
aI487651091
aL3233844061L
aI39035316
aI32468301
aI186769278
aI589012026
aI618582303
aI543760437
aL3195423205L
aL2503076374L
aI1541106392
aL3086231934L
aL2607601184L
aI1151768143
aI14367719
aL2660883866L
aI47200863
aI91154423
aI731627244
aI251366372
aL2950618881L
aL3164538112L
aL2385801239L
aL2832571183L
aI260512143
aI24790558
aI1847742732
aI1016438010
aI622546104
aL2512007084L
aI287871082
aL2898560489L
aI26042636
aI184908803
aL3152299658L
aL2882858428L
aI47384508
aI770683328
aI108067786
aL2843981466L
aI183361560
aI54622589
aL3054437720L
aI782030712
aI322975900
aI287885364
aL3073500563L
aI247073419
aL2857256388L
aI20297042
aI71818799
aI85326024
aI112516813
aI822252434
aI35219345
aI554110416
aL2864543157L
aI553987633
aI371723057
aI264366262
aL2846061576L
aL2397966581L
aI771609446
aI1685042425
aL2698128151L
aI543844884
aL2685647036L
aL2766140775L
aI170366190
aL2925322294L
aI64897792
aL2682663512L
aL2864392336L
aL2321166747L
aL2710752662L
aI316172080
aI92435771
aI1314862352
aI51224626
aI482523330
aL2555847386L
aI540853800
aI269463162
aI184881902
aI433487157
aI436248154
aI260723320
aI193870590
aL2450275878L
aI488578937
aI810870114
aI114564845
aI475644434
aI757530296
aI14655000
aI772332468
aI482341316
aI398519572
aI1011104233
aI54636082
aI1663297784
aI132964441
aI460592390
aI1598963148
aI190850119
aI1308425101
aI1094117952
aasS'obj'
p7
ccopy_reg
_reconstructor
p8
(ctweepy.models
User
p9
c__builtin__
object
p10
Ntp11
Rp12
(dp13
S'follow_request_sent'
p14
I00
sS'has_extended_profile'
p15
I00
sS'profile_use_background_image'
p16
I00
sS'profile_sidebar_fill_color'
p17
V000000
p18
sS'id'
p19
I1558222058
sS'verified'
p20
I00
sS'entities'
p21
(dp22
Vurl
p23
(dp24
Vurls
p25
(lp26
(dp27
g23
Vhttp://t.co/3ElLat6V5L
p28
sVindices
p29
(lp30
I0
aI22
asVexpanded_url
p31
Vhttp://cdnstocks.wordpress.com
p32
sVdisplay_url
p33
Vcdnstocks.wordpress.com
p34
sassVdescription
p35
(dp36
g25
(lp37
sssS'profile_image_url_https'
p38
Vhttps://pbs.twimg.com/profile_images/378800000068353090/81bd5347091256ebfd607d41c8d0cdd3_normal.jpeg
p39
sS'_json'
p40
(dp41
Vfollow_request_sent
p42
I00
sVhas_extended_profile
p43
I00
sVprofile_use_background_image
p44
I00
sVdefault_profile_image
p45
I00
sVid
p46
I1558222058
sVprofile_background_image_url_https
p47
Vhttps://abs.twimg.com/images/themes/theme1/bg.png
p48
sVverified
p49
I00
sVprofile_text_color
p50
V000000
p51
sVprofile_image_url_https
p52
g39
sVprofile_sidebar_fill_color
p53
g18
sVentities
p54
g22
sVfollowers_count
p55
I189
sVprofile_sidebar_border_color
p56
V000000
p57
sVid_str
p58
V1558222058
p59
sVprofile_background_color
p60
V000000
p61
sVlisted_count
p62
I11
sVstatus
p63
(dp64
Vlang
p65
Ven
p66
sVfavorited
p67
I00
sg54
(dp68
Vsymbols
p69
(lp70
(dp71
g29
(lp72
I0
aI7
asVtext
p73
VPHM.CA
p74
sasVuser_mentions
p75
(lp76
sVhashtags
p77
(lp78
sg25
(lp79
ssVcontributors
p80
NsVtruncated
p81
I00
sg73
V$PHM.CA I'm calling .75 by year's end
p82
sVcreated_at
p83
VTue Nov 17 02:27:16 +0000 2015
p84
sVretweeted
p85
I00
sVin_reply_to_status_id_str
p86
NsVcoordinates
p87
NsVin_reply_to_user_id_str
p88
NsVsource
p89
V<a href="http://stocktwits.com" rel="nofollow">StockTwits Web</a>
p90
sVin_reply_to_status_id
p91
NsVin_reply_to_screen_name
p92
Nsg58
V666442449192026112
p93
sVplace
p94
NsVretweet_count
p95
I0
sVgeo
p96
Nsg46
L666442449192026112L
sVfavorite_count
p97
I2
sVin_reply_to_user_id
p98
NssVis_translation_enabled
p99
I00
sVutc_offset
p100
I-18000
sVstatuses_count
p101
I2003
sg35
VSelf-directed Investor. I look for reasonable P/E, high ROE & most importantly share price momentum!  Raptors. Blue Jays.
p102
sVfriends_count
p103
I134
sVlocation
p104
V
p105
sVprofile_link_color
p106
V3B94D9
p107
sVprofile_image_url
p108
Vhttp://pbs.twimg.com/profile_images/378800000068353090/81bd5347091256ebfd607d41c8d0cdd3_normal.jpeg
p109
sVfollowing
p110
I00
sVgeo_enabled
p111
I00
sVprofile_banner_url
p112
Vhttps://pbs.twimg.com/profile_banners/1558222058/1421534260
p113
sVprofile_background_image_url
p114
Vhttp://abs.twimg.com/images/themes/theme1/bg.png
p115
sVscreen_name
p116
Vcndstockpicker
p117
sg65
Ven
p118
sVprofile_background_tile
p119
I00
sVfavourites_count
p120
I475
sVname
p121
VJohn 
p122
sVnotifications
p123
I00
sg23
Vhttp://t.co/3ElLat6V5L
p124
sg83
VSun Jun 30 14:49:27 +0000 2013
p125
sVcontributors_enabled
p126
I00
sVtime_zone
p127
VEastern Time (US & Canada)
p128
sVprotected
p129
I00
sVdefault_profile
p130
I00
sVis_translator
p131
I00
ssS'contributors_enabled'
p132
I00
sS'profile_text_color'
p133
g51
sS'followers_count'
p134
I189
sS'profile_sidebar_border_color'
p135
g57
sS'id_str'
p136
g59
sS'default_profile_image'
p137
I00
sS'listed_count'
p138
I11
sS'status'
p139
g8
(ctweepy.models
Status
p140
g10
Ntp141
Rp142
(dp143
S'favorited'
p144
I00
sS'contributors'
p145
NsS'truncated'
p146
I00
sS'text'
p147
g82
sS'source_url'
p148
Vhttp://stocktwits.com
p149
sS'in_reply_to_status_id'
p150
NsS'geo'
p151
Nsg19
L666442449192026112L
sS'favorite_count'
p152
I2
sS'lang'
p153
g66
sg21
g68
sS'created_at'
p154
cdatetime
datetime
p155
(S'\x07\xdf\x0b\x11\x02\x1b\x10\x00\x00\x00'
p156
tp157
Rp158
sg40
g64
sS'coordinates'
p159
NsS'in_reply_to_user_id_str'
p160
NsS'source'
p161
VStockTwits Web
p162
sS'in_reply_to_status_id_str'
p163
NsS'in_reply_to_screen_name'
p164
Nsg136
g93
sS'retweeted'
p165
I00
sS'place'
p166
NsS'retweet_count'
p167
I0
sS'in_reply_to_user_id'
p168
NsbsS'is_translation_enabled'
p169
I00
sS'utc_offset'
p170
I-18000
sS'statuses_count'
p171
I2003
sS'description'
p172
g102
sS'friends_count'
p173
I134
sS'location'
p174
g105
sS'profile_link_color'
p175
g107
sS'profile_image_url'
p176
g109
sS'notifications'
p177
I00
sS'geo_enabled'
p178
I00
sS'profile_background_color'
p179
g61
sS'profile_banner_url'
p180
g113
sS'profile_background_image_url'
p181
g115
sS'screen_name'
p182
g117
sg153
g118
sg1
I00
sS'profile_background_tile'
p183
I00
sS'favourites_count'
p184
I475
sS'name'
p185
g122
sS'url'
p186
g124
sg154
g155
(S'\x07\xdd\x06\x1e\x0e1\x1b\x00\x00\x00'
p187
tp188
Rp189
sS'profile_background_image_url_https'
p190
g48
sS'time_zone'
p191
g128
sS'protected'
p192
I00
sS'default_profile'
p193
I00
sS'is_translator'
p194
I00
sbs.