(dp0
S'following'
p1
(lp2
(lp3
I526143949
aI242344936
aI287074157
aL2201794429L
aI59343092
aI79232746
aI59557062
aL2538316141L
aL3193629266L
aI105918870
aI302974524
aI548850667
aI622257982
aI533609057
aI117856865
aL3242587651L
aI18368859
aI2982951
aI240452829
aI19725644
aI470745679
aI154175423
aI74466269
aI332892860
aI256736976
aI113475180
aL2959308787L
aI714787264
aI898040838
aL2874014276L
aI127613071
aI17748949
aI251903895
aI285923284
aI1678488888
aI1289507658
aL2796151628L
aL2203770176L
aI300076375
aI15210060
aI65414320
aI503786103
aI15661871
aI27260086
aI250831586
aI22745779
aL2909310806L
aL2892994193L
aI50393960
aL2201085398L
aL2894970275L
aI36431303
aI17325982
aI58539315
aI1578540512
aI1020067598
aL2697028960L
aL2476046870L
aL2208137936L
aL2334614718L
aI370871493
aI569413508
aL2846562772L
aL2650413864L
aI28457505
aL2832886877L
aI1429587566
aI26819104
aI16878156
aL2371663399L
aI1067270556
aI373102216
aI985289869
aL2328195067L
aI1370586966
aI523457705
aL2385946315L
aI21107290
aL2390964422L
aI28050309
aI725378071
aI44503856
aI23419494
aL2480829542L
aI57471560
aI518427012
aI590048837
aI606516708
aI153878748
aI1658843286
aI196378362
aI197488411
aI32186559
aI1154493776
aI17432885
aI18927441
aI37718217
aI347802273
aL2188840262L
aI175452679
aI310325693
aI222177693
aI77888423
aI624556771
aI301281143
aI25817524
aI890891
aL2401715113L
aI887267017
aI1728489481
aI23949957
aI247171394
aI1668256296
aL2220378002L
aL2387867912L
aI507672047
aI87284779
aI740118727
aI854512956
aI90891816
aI1093363586
aI76288096
aI20609518
aI479809444
aL2371644853L
aI192981789
aI125567504
aI60502572
aI17901282
aI21837967
aI1254978090
aI20570702
aI16664681
aI246839094
aI108247668
aI14148802
aI17266725
aI793655922
aI1344951
aI16788222
aI69008563
aI175850143
aL2317351705L
aI117640526
aI15602991
aI128753272
aI14511951
aI11348282
aI34713362
aL2405653088L
aI20545055
aI23818581
aI36398553
aI1582853809
aI39594610
aI42519612
aI525151426
aI24129206
aI43139414
aI23043294
aI16297009
aI374209360
aI21239304
aI80094297
aI19426551
aI180180104
aI373180628
aI23778898
aI259379883
aI153920310
aI185272205
aI18966253
aI21465523
aI486827503
aI19697415
aI509588822
aI770376067
aI512649046
aI76433849
aI116537970
aI608434200
aI28206253
aI268602677
aI374237792
aI531552407
aI30935202
aI455309376
aI138182116
aI227070376
aI486840302
aI32359921
aI26574283
aI22495082
aI15764136
aI14115408
aI208155240
aI140912249
aI44401911
aI147409568
aI5988062
aI19727597
aI16184358
aI19790261
aI19546277
aI113455697
aI61292961
aI19013887
aI25053299
aI103087049
aI114782468
aI16451932
aI52183640
aI28164923
aI14216123
aI624413
aI91478624
aI3108351
aI15568127
aI15281391
aI20402945
aasS'followers'
p4
(lp5
(lp6
I526143949
aL3248378876L
aL3255852554L
aL4018894214L
aI62724977
aL3188262349L
aI124246378
aI405774418
aL3111753920L
aL3799218018L
aI60502572
aL3306309824L
aI53565035
aL2934348659L
aL3410161366L
aI1000206758
aL2993128590L
aI403221375
aL2277800833L
aI1557059640
aI73833736
aI1031599578
aI1887456704
aL3277931268L
aI1641120872
aL3259363796L
aL3254994546L
aL3242587651L
aI218837319
aI2982951
aL3193629266L
aL2733744533L
aI67406250
aL2829108685L
aI363114433
aI49503964
aL3152133919L
aL2935152158L
aL3140362010L
aL3122381881L
aI267835031
aI20414662
aI1071730590
aI74466269
aL3045925242L
aL3032338660L
aL3035623238L
aI898040838
aI288320142
aI17748949
aI558761025
aI300076375
aI15210060
aI503786103
aI1244653969
aL3015717893L
aL3000044956L
aI614894910
aI503535605
aL2892994193L
aI332969428
aL2201085398L
aL2984543491L
aI515404961
aL2970042844L
aL2894970275L
aI429333101
aI1270897466
aL2933528989L
aL2923557695L
aL2753440416L
aL2210933518L
aI14220811
aL2897668619L
aI135786730
aL2476046870L
aL2902547312L
aL2846562772L
aL2659234980L
aL2832886877L
aI1564544138
aL2838177197L
aI211334721
aI28050309
aL2788424975L
aI725378071
aL2817598124L
aL2480829542L
aI23419494
aI17025336
aI518427012
aI347802273
aI310325693
aI153878748
aL2390964422L
aI301281143
aI166636432
aI624556771
aI606516708
aL2575536668L
aL2220378002L
aL2387867912L
aI450248512
aI76288096
aI1728489481
aI887267017
aL2614034353L
aL2566719002L
aI38032306
aI21107290
aI192981789
aI985289869
aI52183640
aI116537970
aL2502212006L
aL2497044302L
aI1254978090
aI20570702
aL2318094193L
aL2431061364L
aL2469105831L
aL2419894945L
aL2405653088L
aI268602677
aI590048837
aI44687282
aL2401715113L
aI525151426
aL2385946315L
aI419290462
aI164080860
aI523457705
aI1370586966
aL2283182130L
aL2328195067L
aI1032182827
aI608434200
aI26693694
aI1965387264
aI1963798190
aI30673492
aI1935590371
aI1876324820
aI952528364
aI1707785564
aI30935202
aI1669375104
aI41355975
aI265623200
aI215716171
aI1625819707
aI531552407
aasS'obj'
p7
ccopy_reg
_reconstructor
p8
(ctweepy.models
User
p9
c__builtin__
object
p10
Ntp11
Rp12
(dp13
S'follow_request_sent'
p14
NsS'has_extended_profile'
p15
I01
sS'profile_use_background_image'
p16
I01
sS'profile_sidebar_fill_color'
p17
VEFEFEF
p18
sS'id'
p19
I1578996132
sS'verified'
p20
I00
sS'entities'
p21
(dp22
Vurl
p23
(dp24
Vurls
p25
(lp26
(dp27
g23
Vhttp://t.co/vdF3syPqzI
p28
sVindices
p29
(lp30
I0
aI22
asVexpanded_url
p31
Vhttp://www.ttvalueinvesting.com
p32
sVdisplay_url
p33
Vttvalueinvesting.com
p34
sassVdescription
p35
(dp36
g25
(lp37
sssS'profile_image_url_https'
p38
Vhttps://pbs.twimg.com/profile_images/512046987953188864/02wNh9Hf_normal.jpeg
p39
sS'_json'
p40
(dp41
Vfollow_request_sent
p42
NsVhas_extended_profile
p43
I01
sVprofile_use_background_image
p44
I01
sVdefault_profile_image
p45
I00
sVid
p46
I1578996132
sVprofile_background_image_url_https
p47
Vhttps://abs.twimg.com/images/themes/theme14/bg.gif
p48
sVverified
p49
I00
sVprofile_text_color
p50
V333333
p51
sVprofile_image_url_https
p52
g39
sVprofile_sidebar_fill_color
p53
g18
sVentities
p54
g22
sVfollowers_count
p55
I152
sVprofile_sidebar_border_color
p56
VEEEEEE
p57
sVid_str
p58
V1578996132
p59
sVprofile_background_color
p60
V131516
p61
sVlisted_count
p62
I9
sVstatus
p63
(dp64
Vcontributors
p65
NsVtruncated
p66
I00
sVtext
p67
VTim Travis Research Report on Assured Guaranty (AGO) - 50% of Growing Adjusted Book Value https://t.co/K9d9X4GmSX $AGO #ttcm #valueinvesting
p68
sVin_reply_to_status_id
p69
Nsg46
L665232652916551680L
sVfavorite_count
p70
I0
sVsource
p71
V<a href="http://twitter.com" rel="nofollow">Twitter Web Client</a>
p72
sVretweeted
p73
I00
sVcoordinates
p74
Nsg54
(dp75
Vsymbols
p76
(lp77
(dp78
g29
(lp79
I114
aI118
asg67
VAGO
p80
sasVuser_mentions
p81
(lp82
sVhashtags
p83
(lp84
(dp85
g29
(lp86
I119
aI124
asg67
Vttcm
p87
sa(dp88
g29
(lp89
I125
aI140
asg67
Vvalueinvesting
p90
sasg25
(lp91
(dp92
g23
Vhttps://t.co/K9d9X4GmSX
p93
sg29
(lp94
I90
aI113
asg31
Vhttp://ttvalueinvesting.com/tim-travis-research-report-on-assured-guaranty-ago-50-of-growing-adjusted-book-value/
p95
sg33
Vttvalueinvesting.com/tim-travis-res\u2026
p96
sassVin_reply_to_screen_name
p97
Nsg58
V665232652916551680
p98
sVretweet_count
p99
I0
sVin_reply_to_user_id
p100
NsVfavorited
p101
I00
sVgeo
p102
NsVin_reply_to_user_id_str
p103
NsVpossibly_sensitive
p104
I00
sVlang
p105
Ven
p106
sVcreated_at
p107
VFri Nov 13 18:19:58 +0000 2015
p108
sVin_reply_to_status_id_str
p109
NsVplace
p110
NssVis_translation_enabled
p111
I00
sVutc_offset
p112
I-28800
sVstatuses_count
p113
I571
sg35
VInvestment management. charity founder. planning commissioner. old fashioned. more.
p114
sVfriends_count
p115
I220
sVlocation
p116
VSan Diego. Chula Vista
p117
sVprofile_link_color
p118
V009999
p119
sVprofile_image_url
p120
Vhttp://pbs.twimg.com/profile_images/512046987953188864/02wNh9Hf_normal.jpeg
p121
sVfollowing
p122
NsVgeo_enabled
p123
I01
sVprofile_banner_url
p124
Vhttps://pbs.twimg.com/profile_banners/1578996132/1410910018
p125
sVprofile_background_image_url
p126
Vhttp://abs.twimg.com/images/themes/theme14/bg.gif
p127
sVscreen_name
p128
Vmfragomeno
p129
sg105
Ven
p130
sVprofile_background_tile
p131
I01
sVfavourites_count
p132
I23
sVname
p133
VMario Fragomeno
p134
sVnotifications
p135
Nsg23
Vhttp://t.co/vdF3syPqzI
p136
sg107
VTue Jul 09 00:44:36 +0000 2013
p137
sVcontributors_enabled
p138
I00
sVtime_zone
p139
VPacific Time (US & Canada)
p140
sVprotected
p141
I00
sVdefault_profile
p142
I00
sVis_translator
p143
I00
ssS'contributors_enabled'
p144
I00
sS'profile_text_color'
p145
g51
sS'followers_count'
p146
I152
sS'profile_sidebar_border_color'
p147
g57
sS'id_str'
p148
g59
sS'default_profile_image'
p149
I00
sS'listed_count'
p150
I9
sS'status'
p151
g8
(ctweepy.models
Status
p152
g10
Ntp153
Rp154
(dp155
S'favorited'
p156
I00
sS'contributors'
p157
NsS'truncated'
p158
I00
sS'text'
p159
g68
sS'source_url'
p160
Vhttp://twitter.com
p161
sS'possibly_sensitive'
p162
I00
sS'in_reply_to_status_id'
p163
NsS'geo'
p164
Nsg19
L665232652916551680L
sS'favorite_count'
p165
I0
sS'lang'
p166
g106
sg21
g75
sS'created_at'
p167
cdatetime
datetime
p168
(S'\x07\xdf\x0b\r\x12\x13:\x00\x00\x00'
p169
tp170
Rp171
sg40
g64
sS'coordinates'
p172
NsS'in_reply_to_user_id_str'
p173
NsS'source'
p174
VTwitter Web Client
p175
sS'in_reply_to_status_id_str'
p176
NsS'in_reply_to_screen_name'
p177
Nsg148
g98
sS'retweeted'
p178
I00
sS'place'
p179
NsS'retweet_count'
p180
I0
sS'in_reply_to_user_id'
p181
NsbsS'is_translation_enabled'
p182
I00
sS'utc_offset'
p183
I-28800
sS'statuses_count'
p184
I571
sS'description'
p185
g114
sS'friends_count'
p186
I220
sS'location'
p187
g117
sS'profile_link_color'
p188
g119
sS'profile_image_url'
p189
g121
sS'notifications'
p190
NsS'geo_enabled'
p191
I01
sS'profile_background_color'
p192
g61
sS'profile_banner_url'
p193
g125
sS'profile_background_image_url'
p194
g127
sS'screen_name'
p195
g129
sg166
g130
sg1
I00
sS'profile_background_tile'
p196
I01
sS'favourites_count'
p197
I23
sS'name'
p198
g134
sS'url'
p199
g136
sg167
g168
(S'\x07\xdd\x07\t\x00,$\x00\x00\x00'
p200
tp201
Rp202
sS'profile_background_image_url_https'
p203
g48
sS'time_zone'
p204
g140
sS'protected'
p205
I00
sS'default_profile'
p206
I00
sS'is_translator'
p207
I00
sbs.