(dp0
S'following'
p1
(lp2
(lp3
I923263237
aI1336714309
aI455824771
aI203652149
aL2999842234L
aI305275926
aI129400817
aI1297913125
aL2519493182L
aI10091442
aL3225783793L
aI21575534
aI31784030
aI478622315
aI320524842
aL3273218809L
aI970207298
aI1536791610
aI29442313
aI216776631
aL3332761755L
aI18856867
aL2470147892L
aI238032009
aL3018809793L
aI121158213
aI303862998
aI15143478
aI20015311
aL2354847625L
aI51205137
aL3090506986L
aI1229055031
aI381318163
aI1308512629
aL2896920065L
aI316389142
aI1418745782
aI15666380
aL2686729075L
aI1196328007
aL2995596672L
aI51912109
aI886996418
aI635334091
aI1138552015
aI137424427
aL2754939598L
aI1127966803
aL2203726350L
aI865308288
aI114885858
aI1529271854
aI1546979844
aL2572362774L
aI29312953
aI16228398
aI7334402
aI587548809
aI39871442
aI330702442
aI194265424
aI455346167
aL2424696307L
aI348743758
aI22449367
aI22571216
aI23180682
aI154634920
aI29385204
aI34868161
aI276716878
aI64044676
aI296164101
aI215876567
aL2299945816L
aI16004376
aL2259314475L
aI85983397
aL2241916778L
aI17599124
aI43950136
aI463100829
aI85924331
aI962744707
aI383077253
aI34212654
aI1191612620
aI1949809724
aI14355883
aI205183966
aI272108790
aI52166809
aI28184757
aI18498217
aI1343384624
aI16184358
aI19377674
aI191449523
aI1190977808
aI473517830
aI390641663
aI1037172816
aI604610969
aI40300931
aI476256944
aI15442036
aI216838778
aI337267500
aI17494010
aI7713202
aI16789970
aI25728625
aI1682397852
aI31231597
aI1905792500
aI1691019367
aI30867769
aI22509548
aI1845191160
aI65466158
aI344113054
aI1663297784
aI170197134
aI1093090866
aI813286
aI409486555
aI1330457336
aI37397428
aI8161232
aI1364930179
aI19562228
aI43111757
aI1526285174
aI30364057
aI25521487
aI115485051
aI390728521
aI1517562331
aI82398383
aI582495445
aI158414847
aI18948541
aI157761266
aI16303106
aI590052460
aI188341419
aI18744957
aI30401655
aI1390187366
aI302128211
aI44025711
aI5996982
aI15110357
aI3203731
aI118459278
aI137763446
aI104146203
aI487118986
aI599065130
aI135937369
aI16994529
aI87775422
aI92570838
aI28137737
aI50029033
aI41038473
aI300959779
aI369441018
aI13651482
aI12925762
aI52105523
aI15281391
aI23059499
aI2395801
aI624413
aasS'followers'
p4
(lp5
(lp6
L2992414321L
aI1146597823
aI457851160
aL4185680540L
aI390815820
aL4026427246L
aI15812297
aL2495688343L
aL3257328403L
aL2286097290L
aL3246295867L
aL3523375760L
aI79568509
aI9555372
aL3188239572L
aI238032009
aL3331217954L
aL3402998427L
aL3403117636L
aL2401926560L
aL3306282001L
aL3403143910L
aL3225783793L
aI51422146
aI312266530
aI320524842
aI1601113573
aI215833032
aI740981251
aL3273218809L
aL3121537492L
aL3300351053L
aI281369833
aL3293656669L
aL3064344431L
aI130202248
aI367218221
aL3246483205L
aI971129101
aL3037038130L
aI127967449
aL2470147892L
aI1007915173
aI296253096
aI1923620557
aL3018809793L
aI121158213
aL2909231891L
aL2426471287L
aL2385321504L
aL3091838079L
aI37477788
aI38985333
aI977782442
aI492248877
aL2402266285L
aL3257216650L
aL3170449983L
aI22863310
aI113280148
aL2493866012L
aL2795479460L
aL2353079736L
aI43990129
aI611817117
aI265520992
aI54945291
aL3063699671L
aL3065083689L
aL3090506986L
aI742826664
aL2981421573L
aI352994970
aL2451166981L
aL2459709067L
aL2896920065L
aL2354023606L
aL2999196074L
aL2995596672L
aL2165908872L
aI635334091
aI346434029
aI1403780881
aI1138552015
aI137424427
aL2953567151L
aL2941698573L
aL2203726350L
aI865308288
aL2912496057L
aL2190116136L
aI1127966803
aL2233087962L
aL2754939598L
aI34578922
aI1579852537
aL2688025806L
aI463747432
aI15397465
aI184391585
aL2830603110L
aI1529271854
aL2781243252L
aL2789032640L
aI1371097844
aI1546979844
aI1244393550
aI1665653426
aL2572362774L
aL2414281644L
aL2733386227L
aL2196978424L
aI1496945653
aL2704028005L
aL2610454034L
aL2693818494L
aI1273400275
aL2218563840L
aL2593490828L
aI533586983
aI1193201976
aI46618024
aL2298152911L
aI23003843
aI311832433
aI132365879
aI919588261
aL2394037158L
aL2390239010L
aL2315846996L
aL2424696307L
aI300959779
aI283759002
aL2287427719L
aI766093465
aI1683417906
aI7530552
aI15897179
aI619103037
aI14355883
aL2329891573L
aL2274875012L
aL2317683108L
aL2299945816L
aL2180253732L
aI922552368
aI85983397
aI300195767
aI19335523
aL2287690398L
aL2291769248L
aI44646813
aI16004376
aL2177068602L
aL2259314475L
aI220580561
aI157761266
aL2241916778L
aI17599124
aI1433343836
aI257635313
aI1625683448
aI43950136
aI1398198943
aI463100829
aI85924331
aI962744707
aI383077253
aI96310474
aI1949809724
aI272108790
aI344884809
aI18498217
aI28184757
aI838409509
aI1190977808
aI473517830
aI191449523
aI390641663
aI1037172816
aI604610969
aI19377674
aI1858788162
aI40300931
aI337267500
aI216838778
aI1682397852
aI31231597
aI1691019367
aI1905792500
aI30867769
aI1845191160
aI344113054
aI1663297784
aI170197134
aI582495445
aI578383794
aI43111757
aI1526285174
aI1517562331
aI369441018
aI590052460
aI44025711
aI188341419
aI30401655
aI1390187366
aI302128211
aI92570838
aasS'obj'
p7
ccopy_reg
_reconstructor
p8
(ctweepy.models
User
p9
c__builtin__
object
p10
Ntp11
Rp12
(dp13
S'follow_request_sent'
p14
NsS'has_extended_profile'
p15
I00
sS'profile_use_background_image'
p16
I01
sS'profile_sidebar_fill_color'
p17
VDDEEF6
p18
sS'id'
p19
I1603589396
sS'verified'
p20
I00
sS'entities'
p21
(dp22
Vdescription
p23
(dp24
Vurls
p25
(lp26
sssS'profile_image_url_https'
p27
Vhttps://pbs.twimg.com/profile_images/592040743184674816/O2w67LSS_normal.jpg
p28
sS'_json'
p29
(dp30
Vfollow_request_sent
p31
NsVhas_extended_profile
p32
I00
sVprofile_use_background_image
p33
I01
sVdefault_profile_image
p34
I00
sVid
p35
I1603589396
sVprofile_background_image_url_https
p36
Vhttps://abs.twimg.com/images/themes/theme1/bg.png
p37
sVverified
p38
I00
sVprofile_text_color
p39
V333333
p40
sVprofile_image_url_https
p41
g28
sVprofile_sidebar_fill_color
p42
g18
sVentities
p43
g22
sVfollowers_count
p44
I208
sVprofile_sidebar_border_color
p45
VC0DEED
p46
sVid_str
p47
V1603589396
p48
sVprofile_background_color
p49
VC0DEED
p50
sVlisted_count
p51
I20
sVstatus
p52
(dp53
Vcontributors
p54
NsVtruncated
p55
I00
sVtext
p56
V$KGJI #Book #Value Per Share Increased to $4.03 https://t.co/EuJQFUpwEU
p57
sVin_reply_to_status_id
p58
Nsg35
L666364474236891136L
sVfavorite_count
p59
I0
sVsource
p60
V<a href="http://twitter.com" rel="nofollow">Twitter Web Client</a>
p61
sVretweeted
p62
I00
sVcoordinates
p63
Nsg43
(dp64
Vsymbols
p65
(lp66
(dp67
Vindices
p68
(lp69
I0
aI5
asg56
VKGJI
p70
sasVuser_mentions
p71
(lp72
sVhashtags
p73
(lp74
(dp75
g68
(lp76
I6
aI11
asg56
VBook
p77
sa(dp78
g68
(lp79
I12
aI18
asg56
VValue
p80
sasg25
(lp81
(dp82
Vurl
p83
Vhttps://t.co/EuJQFUpwEU
p84
sg68
(lp85
I48
aI71
asVexpanded_url
p86
Vhttp://money.cnn.com/news/newsfeeds/articles/prnewswire/CN58630.htm
p87
sVdisplay_url
p88
Vmoney.cnn.com/news/newsfeeds\u2026
p89
sassVin_reply_to_screen_name
p90
Nsg47
V666364474236891136
p91
sVretweet_count
p92
I0
sVin_reply_to_user_id
p93
NsVfavorited
p94
I00
sVgeo
p95
NsVin_reply_to_user_id_str
p96
NsVpossibly_sensitive
p97
I00
sVlang
p98
Ven
p99
sVcreated_at
p100
VMon Nov 16 21:17:25 +0000 2015
p101
sVin_reply_to_status_id_str
p102
NsVplace
p103
NssVis_translation_enabled
p104
I00
sVutc_offset
p105
NsVstatuses_count
p106
I2865
sg23
VChina Updates. Do your own DD.
p107
sVfriends_count
p108
I176
sVlocation
p109
V
p110
sVprofile_link_color
p111
V000FB3
p112
sVprofile_image_url
p113
Vhttp://pbs.twimg.com/profile_images/592040743184674816/O2w67LSS_normal.jpg
p114
sVfollowing
p115
NsVgeo_enabled
p116
I01
sVprofile_banner_url
p117
Vhttps://pbs.twimg.com/profile_banners/1603589396/1413994835
p118
sVprofile_background_image_url
p119
Vhttp://abs.twimg.com/images/themes/theme1/bg.png
p120
sVscreen_name
p121
VStephenTookIt
p122
sg98
Ven
p123
sVprofile_background_tile
p124
I00
sVfavourites_count
p125
I258
sVname
p126
VChina Stocks
p127
sVnotifications
p128
Nsg83
Nsg100
VThu Jul 18 14:35:32 +0000 2013
p129
sVcontributors_enabled
p130
I00
sVtime_zone
p131
NsVprotected
p132
I00
sVdefault_profile
p133
I00
sVis_translator
p134
I00
ssS'contributors_enabled'
p135
I00
sS'profile_text_color'
p136
g40
sS'followers_count'
p137
I208
sS'profile_sidebar_border_color'
p138
g46
sS'id_str'
p139
g48
sS'default_profile_image'
p140
I00
sS'listed_count'
p141
I20
sS'status'
p142
g8
(ctweepy.models
Status
p143
g10
Ntp144
Rp145
(dp146
S'favorited'
p147
I00
sS'contributors'
p148
NsS'truncated'
p149
I00
sS'text'
p150
g57
sS'source_url'
p151
Vhttp://twitter.com
p152
sS'possibly_sensitive'
p153
I00
sS'in_reply_to_status_id'
p154
NsS'geo'
p155
Nsg19
L666364474236891136L
sS'favorite_count'
p156
I0
sS'lang'
p157
g99
sg21
g64
sS'created_at'
p158
cdatetime
datetime
p159
(S'\x07\xdf\x0b\x10\x15\x11\x19\x00\x00\x00'
p160
tp161
Rp162
sg29
g53
sS'coordinates'
p163
NsS'in_reply_to_user_id_str'
p164
NsS'source'
p165
VTwitter Web Client
p166
sS'in_reply_to_status_id_str'
p167
NsS'in_reply_to_screen_name'
p168
Nsg139
g91
sS'retweeted'
p169
I00
sS'place'
p170
NsS'retweet_count'
p171
I0
sS'in_reply_to_user_id'
p172
NsbsS'is_translation_enabled'
p173
I00
sS'utc_offset'
p174
NsS'statuses_count'
p175
I2865
sS'description'
p176
g107
sS'friends_count'
p177
I176
sS'location'
p178
g110
sS'profile_link_color'
p179
g112
sS'profile_image_url'
p180
g114
sS'notifications'
p181
NsS'geo_enabled'
p182
I01
sS'profile_background_color'
p183
g50
sS'profile_banner_url'
p184
g118
sS'profile_background_image_url'
p185
g120
sS'screen_name'
p186
g122
sg157
g123
sg1
I00
sS'profile_background_tile'
p187
I00
sS'favourites_count'
p188
I258
sS'name'
p189
g127
sS'url'
p190
Nsg158
g159
(S'\x07\xdd\x07\x12\x0e# \x00\x00\x00'
p191
tp192
Rp193
sS'profile_background_image_url_https'
p194
g37
sS'time_zone'
p195
NsS'protected'
p196
I00
sS'default_profile'
p197
I00
sS'is_translator'
p198
I00
sbs.