(dp0
S'following'
p1
(lp2
(lp3
I11740902
aI22315431
aI600378539
aI1413027896
aI21232827
aI1317671
aI16076032
aI1585932799
aI7157132
aI18927441
aI14763734
aI10351072
aI382908094
aI73530523
aI317041794
aI274857156
aL2330963108L
aL2314089271L
aL2493314768L
aL3161331709L
aI16806253
aI19362239
aI17625154
aI23785621
aI253784672
aI78411917
aI5162861
aI35773039
aI38533218
aI57734560
aI17493187
aI46222735
aI17975882
aI56413858
aI36823
aI1430426018
aI108021761
aI295325513
aI291488537
aI732016639
aI123412647
aI485902729
aI14326765
aI255784266
aI21990051
aL3020181013L
aI46582809
aI13159032
aI242822343
aI18005526
aI39879120
aI25709609
aI429568386
aI1244041687
aI44060322
aI278035623
aI23131068
aI42070873
aI94143715
aI29515247
aI17900666
aI573918122
aI104257356
aI455824771
aI550663732
aI49663664
aI430995737
aI74286565
aI23756134
aI300338214
aI486840302
aI21778391
aI1347071545
aI16732770
aI16955517
aI14669951
aI106498703
aI140912249
aI404422077
aI119372054
aI382685028
aI138182116
aI1636590253
aI233704756
aI110974198
aI74130577
aI17622474
aI19546277
aI66975479
aI1394399438
aI39590753
aI65694678
aI16017475
aI18856867
aI28164923
aL2244340904L
aI30016344
aI2467791
aI21323268
aI16191793
aI19158135
aI601160772
aI61875147
aI717313
aI16896485
aI16228398
aI858051
aI15774563
aI1534167900
aI1545994664
aI231506687
aI22790881
aI349296531
aI1700785105
aI31062889
aI524396430
aI14372486
aI14882900
aI12480582
aI30205586
aI14886375
aI15707842
aI2529971
aI14561327
aI17889970
aI14372143
aI17825445
aI989
aI15403454
aI14278978
aI8287602
aI5768632
aI818071
aI914061
aI5392522
aI16086928
aI112243365
aI6708952
aI168857946
aI14541402
aI19407053
aI113130846
aI1081
aI586
aI1000591
aI624413
aI6017542
aI2735591
aI15492359
aI33792634
aI2893971
aI27814665
aI13058772
aI50393960
aI60642052
aI492532196
aI30018058
aI20348377
aI24775410
aI10078
aI26581605
aI10228272
aI67358777
aI34713362
aI180505807
aI91478624
aI28140646
aI14800270
aI1754641
aI106837463
aI972651
aI822198726
aI7144422
aI1284740143
aI816653
aI45911118
aI3108351
aI19497020
aI6475722
aI24941044
aI7184612
aI783214
aI291917793
aI5768872
aI18880638
aI1344951
aI33016550
aI12101862
aI13192972
aI42712551
aI19709040
aI14761795
aI8161232
aI30973
aI35871965
aI7040932
aI9857052
aI20631936
aasS'followers'
p4
(lp5
(lp6
L2926109660L
aI1449000090
aI21360280
aI20169430
aL2931418048L
aL2992414321L
aL2889460032L
aL4065758234L
aI316168519
aI1924167116
aI23732701
aL3249975732L
aI582763140
aL3184654038L
aI27217647
aL3026193592L
aI1355020194
aI913543363
aL3195835470L
aI157082767
aI1720979318
aL3272796044L
aL3256651004L
aL3300348975L
aL3064808777L
aI32488790
aL3184585556L
aL2946260703L
aI156301606
aI1506344900
aI41135906
aL3329274521L
aL2869046426L
aI1877813964
aI1430426018
aI14902429
aI391304315
aL3116218064L
aI66915233
aI248279296
aI611817117
aL3073478049L
aI1444614408
aL3065083689L
aL2349899198L
aI39513092
aL3020181013L
aL2772010364L
aL3065591250L
aL2842572699L
aI276334529
aL3063126833L
aL2960147274L
aL2922115476L
aI42070873
aL2904845303L
aL2904886696L
aL2918400854L
aL2904826569L
aL2904824187L
aL2912541034L
aI14886375
aL2190316980L
aI732244128
aI237490467
aL2807466476L
aI48193301
aL2753856781L
aL2721511480L
aI19497020
aI110581612
aI1972854631
aI995590147
aI15162193
aI1662681848
aI1045932858
aL2308931647L
aI432438963
aI15774563
aL2279250671L
aI1543048922
aI395849879
aI231506687
aL2290033692L
aI1376602711
aI335726885
aI31062889
aI578211051
aI1700785105
aL2270586013L
aI15707842
aI1006915670
aI60282439
aL2221756328L
aI861897924
aI335711362
aI242375508
aI100139220
aI349296531
aI614023804
aI24973023
aI142273213
aI17456140
aI877140980
aI626219434
aI291917793
aI327589267
aI362697649
aI127566622
aI55416850
aI491889679
aI226622530
aI257431809
aI35871965
aI33016550
aI9857052
aI7040932
aI20631936
aasS'obj'
p7
ccopy_reg
_reconstructor
p8
(ctweepy.models
User
p9
c__builtin__
object
p10
Ntp11
Rp12
(dp13
S'follow_request_sent'
p14
NsS'has_extended_profile'
p15
I00
sS'profile_use_background_image'
p16
I00
sS'profile_sidebar_fill_color'
p17
V000000
p18
sS'id'
p19
I16082873
sS'verified'
p20
I00
sS'entities'
p21
(dp22
Vdescription
p23
(dp24
Vurls
p25
(lp26
sssS'profile_image_url_https'
p27
Vhttps://pbs.twimg.com/profile_images/553348290532495362/d-HAtVbD_normal.jpeg
p28
sS'_json'
p29
(dp30
Vfollow_request_sent
p31
NsVhas_extended_profile
p32
I00
sVprofile_use_background_image
p33
I00
sVdefault_profile_image
p34
I00
sVid
p35
I16082873
sVprofile_background_image_url_https
p36
Vhttps://abs.twimg.com/images/themes/theme1/bg.png
p37
sVverified
p38
I00
sVprofile_text_color
p39
V000000
p40
sVprofile_image_url_https
p41
g28
sVprofile_sidebar_fill_color
p42
g18
sVentities
p43
g22
sVfollowers_count
p44
I118
sVprofile_sidebar_border_color
p45
V000000
p46
sVid_str
p47
V16082873
p48
sVprofile_background_color
p49
V000000
p50
sVlisted_count
p51
I19
sVstatus
p52
(dp53
Vlang
p54
Ven
p55
sVfavorited
p56
I00
sg43
(dp57
Vsymbols
p58
(lp59
sVuser_mentions
p60
(lp61
(dp62
g35
I64770337
sVindices
p63
(lp64
I27
aI38
asg47
V64770337
p65
sVscreen_name
p66
VMoneyLynch
p67
sVname
p68
VShawn Lynch
p69
sasVhashtags
p70
(lp71
(dp72
g63
(lp73
I0
aI9
asVtext
p74
VSeahawks
p75
sa(dp76
g63
(lp77
I74
aI85
asg74
VFireBevell
p78
sa(dp79
g63
(lp80
I86
aI95
asg74
VSEAvsARI
p81
sasg25
(lp82
ssVcontributors
p83
NsVtruncated
p84
I00
sg74
V#Seahawks must have forgot @MoneyLynch is on team! Seriously 8 carries??? #FireBevell #SEAvsARI
p85
sVcreated_at
p86
VMon Nov 16 05:39:12 +0000 2015
p87
sVretweeted
p88
I00
sVin_reply_to_status_id_str
p89
NsVcoordinates
p90
NsVin_reply_to_user_id_str
p91
NsVsource
p92
V<a href="http://twitter.com/download/iphone" rel="nofollow">Twitter for iPhone</a>
p93
sVin_reply_to_status_id
p94
NsVin_reply_to_screen_name
p95
Nsg47
V666128363124224000
p96
sVplace
p97
NsVretweet_count
p98
I0
sVgeo
p99
Nsg35
L666128363124224000L
sVfavorite_count
p100
I1
sVin_reply_to_user_id
p101
NssVis_translation_enabled
p102
I00
sVutc_offset
p103
I-21600
sVstatuses_count
p104
I1095
sg23
VFinancial Guy #News junkie #Trader #BargainHunter KorAm guy! Attitude Is Everything! Current Favs $COH $FNMA $SFTBY $GOOG $TWTR $FB
p105
sVfriends_count
p106
I198
sVlocation
p107
VSeattle
p108
sVprofile_link_color
p109
V3B94D9
p110
sVprofile_image_url
p111
Vhttp://pbs.twimg.com/profile_images/553348290532495362/d-HAtVbD_normal.jpeg
p112
sVfollowing
p113
NsVgeo_enabled
p114
I01
sVprofile_banner_url
p115
Vhttps://pbs.twimg.com/profile_banners/16082873/1446671233
p116
sVprofile_background_image_url
p117
Vhttp://abs.twimg.com/images/themes/theme1/bg.png
p118
sg66
Vdbk312
p119
sg54
Ven
p120
sVprofile_background_tile
p121
I00
sVfavourites_count
p122
I726
sg68
VDavid B Kim
p123
sVnotifications
p124
NsVurl
p125
Nsg86
VMon Sep 01 14:31:49 +0000 2008
p126
sVcontributors_enabled
p127
I00
sVtime_zone
p128
VCentral Time (US & Canada)
p129
sVprotected
p130
I00
sVdefault_profile
p131
I00
sVis_translator
p132
I00
ssS'contributors_enabled'
p133
I00
sS'profile_text_color'
p134
g40
sS'followers_count'
p135
I118
sS'profile_sidebar_border_color'
p136
g46
sS'id_str'
p137
g48
sS'default_profile_image'
p138
I00
sS'listed_count'
p139
I19
sS'status'
p140
g8
(ctweepy.models
Status
p141
g10
Ntp142
Rp143
(dp144
S'favorited'
p145
I00
sS'contributors'
p146
NsS'truncated'
p147
I00
sS'text'
p148
g85
sS'source_url'
p149
Vhttp://twitter.com/download/iphone
p150
sS'in_reply_to_status_id'
p151
NsS'geo'
p152
Nsg19
L666128363124224000L
sS'favorite_count'
p153
I1
sS'lang'
p154
g55
sg21
g57
sS'created_at'
p155
cdatetime
datetime
p156
(S"\x07\xdf\x0b\x10\x05'\x0c\x00\x00\x00"
p157
tp158
Rp159
sg29
g53
sS'coordinates'
p160
NsS'in_reply_to_user_id_str'
p161
NsS'source'
p162
VTwitter for iPhone
p163
sS'in_reply_to_status_id_str'
p164
NsS'in_reply_to_screen_name'
p165
Nsg137
g96
sS'retweeted'
p166
I00
sS'place'
p167
NsS'retweet_count'
p168
I0
sS'in_reply_to_user_id'
p169
NsbsS'is_translation_enabled'
p170
I00
sS'utc_offset'
p171
I-21600
sS'statuses_count'
p172
I1095
sS'description'
p173
g105
sS'friends_count'
p174
I198
sS'location'
p175
g108
sS'profile_link_color'
p176
g110
sS'profile_image_url'
p177
g112
sS'notifications'
p178
NsS'geo_enabled'
p179
I01
sS'profile_background_color'
p180
g50
sS'profile_banner_url'
p181
g116
sS'profile_background_image_url'
p182
g118
sS'screen_name'
p183
g119
sg154
g120
sg1
I00
sS'profile_background_tile'
p184
I00
sS'favourites_count'
p185
I726
sS'name'
p186
g123
sS'url'
p187
Nsg155
g156
(S'\x07\xd8\t\x01\x0e\x1f1\x00\x00\x00'
p188
tp189
Rp190
sS'profile_background_image_url_https'
p191
g37
sS'time_zone'
p192
g129
sS'protected'
p193
I00
sS'default_profile'
p194
I00
sS'is_translator'
p195
I00
sbs.