(dp0
S'following'
p1
(lp2
(lp3
I192863913
aL2482407307L
aL2564057876L
aI1352962327
aI35315865
aI22707820
aI798491287
aL2553883748L
aI332360644
aI100185304
aL2272207286L
aI1245975114
aI71322014
aL2977580734L
aI285622842
aI1945011049
aI385804820
aI44438256
aI284508936
aL2426498719L
aI1058762022
aI48695135
aI18274250
aI118266357
aI406014990
aL2870346081L
aI1671096974
aI61533120
aI37490861
aI245389045
aL3055364812L
aI443492997
aI17442457
aI287568380
aI161372707
aI14267832
aI1543219537
aL2616517399L
aI45820838
aI349347318
aI915436742
aI100024370
aI701464597
aI458988232
aL2190906684L
aL2416355760L
aI1132786314
aI56916619
aI16564324
aI221775604
aI1060997204
aI1639603778
aI228596812
aI563945983
aL2494896473L
aL2534664916L
aI176742975
aL2214406417L
aI260926865
aI39537053
aI210862918
aI104932756
aI137322271
aI166711687
aI47678782
aI28943421
aI588507814
aI1407780158
aI863003467
aI103883488
aI575796665
aI1001726569
aI425402956
aI311099164
aI432992338
aI15752608
aI931450722
aI305221233
aI1498350660
aI1139977934
aI1132875708
aI1340624978
aI67066114
aI17509945
aI1023436759
aI30217291
aI52523659
aI17439693
aI18406292
aI14186094
aI17437735
aI35820490
aI15214195
aI50340794
aI767477616
aI288203147
aI717935582
aI42703163
aI593813785
aI38197397
aI139725619
aI22516132
aI252732212
aI83395888
aI26368450
aI302060408
aI1033377594
aI1241647488
aI216583184
aI1091770208
aI50753411
aI15563814
aI55006025
aI295221061
aI56486495
aI454952766
aI391204136
aI1927015632
aI66590132
aI20147730
aI142299055
aI19717430
aI169489285
aI873399943
aI1005177648
aI18021517
aI602321455
aI1711239283
aI586751692
aI177997886
aI118022730
aI267171658
aI478610727
aI178083055
aI250823312
aI180799911
aI21793154
aI460670530
aI204564525
aI39924174
aI229966745
aI15134240
aI205847300
aI244969675
aI442298073
aI1093668242
aI96994334
aI190337035
aI10989152
aI208120290
aI1228537610
aI44986993
aI413578650
aI116716199
aI257010511
aI40156330
aI744650100
aI434681699
aI140427956
aI53039176
aI293458690
aI24180209
aI15923641
aI112872946
aI84312619
aI416311594
aI348772885
aI229085376
aI35038857
aI292098928
aI43921687
aI805240146
aI18058609
aI31484145
aI35789155
aI25325260
aI13649002
aI21880565
aI63183702
aI51717242
aI15173603
aI17526497
aI30724493
aI879161563
aI21795874
aI47951876
aI140322564
aI25103830
aI229246832
aI111305843
aI242531268
aI59200277
aI19614296
aI183254309
aI218605102
aI200226529
aI36074354
aI19740891
aI106526969
aI31002593
aI14837383
aI55586971
aI16484374
aI47726194
aI15893046
aI19642657
aI106762706
aI15811193
aI123284564
aI122131645
aI94345657
aI20695614
aI297680821
aI446784969
aI26338992
aI108457870
aI62871181
aI267090558
aI34541022
aI1326353852
aI26992934
aI823842553
aI1394764730
aI233220448
aI196056107
aI82162291
aI86626845
aI87715935
aI246348124
aI20982118
aI407068486
aI36066745
aI199226563
aI23631835
aI32979008
aI168186079
aI19408917
aI252877176
aI290158392
aI194346014
aI14063950
aI49832877
aI529704495
aI65808339
aI70731075
aI157981564
aI343341273
aI119120977
aI26759915
aI20317677
aI52397099
aI76481951
aI21102627
aI20531154
aI49637104
aI740230171
aI44406845
aI148606502
aI391492257
aI56121651
aI116748080
aI21572529
aI20187065
aI39922872
aI36967128
aI20186316
aI25952049
aI25950355
aI347892016
aI260684182
aI247789654
aI562041141
aI252999528
aI255546148
aI247674958
aI259688652
aI260678321
aI247395947
aI260183486
aI252522074
aI89198998
aI20693816
aI18179696
aI1397270928
aI121221625
aI14461362
aI461242546
aI43199901
aI27024872
aI26832834
aI14433444
aI81886481
aI15974185
aI17960461
aI21079030
aI13171622
aI20277810
aI59739644
aI19739371
aI851053963
aI18083983
aI14971572
aI132897310
aI45543166
aI71542880
aI138590258
aI18294275
aI19774555
aI16385645
aI22813422
aI123713942
aI85555796
aI88988669
aI180351760
aI471899079
aI46250756
aI102754598
aI17393219
aI399700930
aI227778014
aI412362576
aI18091025
aI31720614
aI32492934
aI102094857
aI140087723
aI102527566
aI111054964
aI44418062
aI113108699
aI18090786
aI18294197
aI194343133
aI20278673
aI19019298
aI165757778
aI632341632
aI740597142
aasS'followers'
p4
(lp5
(lp6
L2203759704L
aL2203695764L
aI19349963
aI35784526
aL3374443945L
aL2881348703L
aI332360644
aL3326833720L
aL3239617658L
aL3292909683L
aI48954588
aI385804820
aI1529271854
aL2190906684L
aI389604704
aI851326009
aI1942560164
aI178172546
aL3130100735L
aI1870258736
aL2922234899L
aL3004214811L
aI611817117
aL2922115476L
aL2975180929L
aI14886375
aI487089304
aL2534664916L
aI563945983
aI1945904293
aI67066114
aI1340624978
aL2577247860L
aI44986993
aI242607215
aI1023436759
aI702320076
aI288203147
aI15214195
aL2173671183L
aI1927015632
aI167823538
aI1719681860
aI1351213416
aI369205985
aL2290146716L
aI192863913
aL2275000208L
aI24180209
aI1621489501
aI293458690
aI705813886
aI879161563
aI1222558171
aI225117951
aI343341273
aI1650201894
aI1602076700
aI778830600
aI1620449059
aI36074354
aI454124578
aI228596812
aI740597142
aasS'obj'
p7
ccopy_reg
_reconstructor
p8
(ctweepy.models
User
p9
c__builtin__
object
p10
Ntp11
Rp12
(dp13
S'follow_request_sent'
p14
NsS'has_extended_profile'
p15
I00
sS'profile_use_background_image'
p16
I01
sS'profile_sidebar_fill_color'
p17
VDDEEF6
p18
sS'id'
p19
I1615962686
sS'verified'
p20
I00
sS'entities'
p21
(dp22
Vdescription
p23
(dp24
Vurls
p25
(lp26
sssS'profile_image_url_https'
p27
Vhttps://pbs.twimg.com/profile_images/378800000182404168/538392bcf5ee8b050f15aed53c9098e2_normal.jpeg
p28
sS'_json'
p29
(dp30
Vfollow_request_sent
p31
NsVhas_extended_profile
p32
I00
sVprofile_use_background_image
p33
I01
sVdefault_profile_image
p34
I00
sVid
p35
I1615962686
sVprofile_background_image_url_https
p36
Vhttps://abs.twimg.com/images/themes/theme1/bg.png
p37
sVverified
p38
I00
sVprofile_text_color
p39
V333333
p40
sVprofile_image_url_https
p41
g28
sVprofile_sidebar_fill_color
p42
g18
sVentities
p43
g22
sVfollowers_count
p44
I64
sVprofile_sidebar_border_color
p45
VC0DEED
p46
sVid_str
p47
V1615962686
p48
sVprofile_background_color
p49
VC0DEED
p50
sVlisted_count
p51
I12
sVstatus
p52
(dp53
Vcontributors
p54
NsVtruncated
p55
I00
sVtext
p56
VRT @HedgeMind: $CLVS Devastated. So many top biotech hedgies placed their big bets on this #ImmunoTherapy stock w/ unwavering faith https:/\u2026
p57
sVin_reply_to_status_id
p58
Nsg35
L666315234479579137L
sVfavorite_count
p59
I0
sVsource
p60
V<a href="https://about.twitter.com/products/tweetdeck" rel="nofollow">TweetDeck</a>
p61
sVretweeted
p62
I00
sVcoordinates
p63
Nsg43
(dp64
Vsymbols
p65
(lp66
(dp67
Vindices
p68
(lp69
I15
aI20
asg56
VCLVS
p70
sasVuser_mentions
p71
(lp72
(dp73
g35
L2272207286L
sg68
(lp74
I3
aI13
asg47
V2272207286
p75
sVscreen_name
p76
VHedgeMind
p77
sVname
p78
VHedgeMind
p79
sasVhashtags
p80
(lp81
(dp82
g68
(lp83
I91
aI105
asg56
VImmunoTherapy
p84
sasg25
(lp85
sVmedia
p86
(lp87
(dp88
Vsource_user_id
p89
L2272207286L
sVsource_status_id_str
p90
V666314936910385152
p91
sVexpanded_url
p92
Vhttp://twitter.com/HedgeMind/status/666314936910385152/photo/1
p93
sVdisplay_url
p94
Vpic.twitter.com/Ql6kHs02Uy
p95
sVurl
p96
Vhttps://t.co/Ql6kHs02Uy
p97
sVmedia_url_https
p98
Vhttps://pbs.twimg.com/media/CT8551pVEAAc5eF.png
p99
sVsource_user_id_str
p100
V2272207286
p101
sVsource_status_id
p102
L666314936910385152L
sg47
V666314935689875456
p103
sVsizes
p104
(dp105
Vsmall
p106
(dp107
Vh
p108
I215
sVresize
p109
Vfit
p110
sVw
p111
I340
ssVlarge
p112
(dp113
g108
I648
sg109
Vfit
p114
sg111
I1024
ssVmedium
p115
(dp116
g108
I379
sg109
Vfit
p117
sg111
I600
ssVthumb
p118
(dp119
g108
I150
sg109
Vcrop
p120
sg111
I150
sssg68
(lp121
I139
aI140
asVtype
p122
Vphoto
p123
sg35
L666314935689875456L
sVmedia_url
p124
Vhttp://pbs.twimg.com/media/CT8551pVEAAc5eF.png
p125
sassVin_reply_to_screen_name
p126
Nsg47
V666315234479579137
p127
sVretweet_count
p128
I2
sVin_reply_to_user_id
p129
NsVfavorited
p130
I00
sVretweeted_status
p131
(dp132
g54
Nsg55
I00
sg56
V$CLVS Devastated. So many top biotech hedgies placed their big bets on this #ImmunoTherapy stock w/ unwavering faith https://t.co/Ql6kHs02Uy
p133
sg58
Nsg35
L666314936910385152L
sg59
I2
sg60
V<a href="http://twitter.com" rel="nofollow">Twitter Web Client</a>
p134
sg62
I00
sg63
Nsg43
(dp135
g65
(lp136
(dp137
g68
(lp138
I0
aI5
asg56
VCLVS
p139
sasg71
(lp140
sg80
(lp141
(dp142
g68
(lp143
I76
aI90
asg56
VImmunoTherapy
p144
sasg25
(lp145
sg86
(lp146
(dp147
g92
Vhttp://twitter.com/HedgeMind/status/666314936910385152/photo/1
p148
sg94
Vpic.twitter.com/Ql6kHs02Uy
p149
sg96
Vhttps://t.co/Ql6kHs02Uy
p150
sg98
Vhttps://pbs.twimg.com/media/CT8551pVEAAc5eF.png
p151
sg47
V666314935689875456
p152
sg104
(dp153
g106
(dp154
g108
I215
sg109
Vfit
p155
sg111
I340
ssg112
(dp156
g108
I648
sg109
Vfit
p157
sg111
I1024
ssg115
(dp158
g108
I379
sg109
Vfit
p159
sg111
I600
ssg118
(dp160
g108
I150
sg109
Vcrop
p161
sg111
I150
sssg68
(lp162
I117
aI140
asg122
Vphoto
p163
sg35
L666314935689875456L
sg124
Vhttp://pbs.twimg.com/media/CT8551pVEAAc5eF.png
p164
sassg126
Nsg47
V666314936910385152
p165
sg128
I2
sg129
Nsg130
I00
sVgeo
p166
NsVin_reply_to_user_id_str
p167
NsVpossibly_sensitive
p168
I00
sVlang
p169
Ven
p170
sVcreated_at
p171
VMon Nov 16 18:00:35 +0000 2015
p172
sVin_reply_to_status_id_str
p173
NsVplace
p174
Nssg166
Nsg167
Nsg168
I00
sg169
Ven
p175
sg171
VMon Nov 16 18:01:46 +0000 2015
p176
sg173
Nsg174
NssVis_translation_enabled
p177
I00
sVutc_offset
p178
I-14400
sVstatuses_count
p179
I1425
sg23
VThe Art of Surfing the Wave
p180
sVfriends_count
p181
I338
sVlocation
p182
VTrapped Under Something Heavy
p183
sVprofile_link_color
p184
V0084B4
p185
sVprofile_image_url
p186
Vhttp://pbs.twimg.com/profile_images/378800000182404168/538392bcf5ee8b050f15aed53c9098e2_normal.jpeg
p187
sVfollowing
p188
NsVgeo_enabled
p189
I00
sVprofile_background_image_url
p190
Vhttp://abs.twimg.com/images/themes/theme1/bg.png
p191
sg76
VBioMedSector
p192
sg169
Ven
p193
sVprofile_background_tile
p194
I00
sVfavourites_count
p195
I35
sg78
VDomani Capital
p196
sVnotifications
p197
Nsg96
Nsg171
VTue Jul 23 19:36:53 +0000 2013
p198
sVcontributors_enabled
p199
I00
sVtime_zone
p200
VAtlantic Time (Canada)
p201
sVprotected
p202
I00
sVdefault_profile
p203
I01
sVis_translator
p204
I00
ssS'contributors_enabled'
p205
I00
sS'profile_text_color'
p206
g40
sS'followers_count'
p207
I64
sS'profile_sidebar_border_color'
p208
g46
sS'id_str'
p209
g48
sS'default_profile_image'
p210
I00
sS'listed_count'
p211
I12
sS'status'
p212
g8
(ctweepy.models
Status
p213
g10
Ntp214
Rp215
(dp216
S'favorited'
p217
I00
sS'contributors'
p218
NsS'truncated'
p219
I00
sS'text'
p220
g57
sS'source_url'
p221
Vhttps://about.twitter.com/products/tweetdeck
p222
sS'possibly_sensitive'
p223
I00
sS'in_reply_to_status_id'
p224
NsS'geo'
p225
Nsg19
L666315234479579137L
sS'favorite_count'
p226
I0
sS'lang'
p227
g175
sS'retweeted_status'
p228
g8
(g213
g10
Ntp229
Rp230
(dp231
g217
I00
sg218
Nsg219
I00
sg220
g133
sg221
Vhttp://twitter.com
p232
sg223
I00
sg224
Nsg225
Nsg19
L666314936910385152L
sg226
I2
sg227
g170
sg21
g135
sS'created_at'
p233
cdatetime
datetime
p234
(S'\x07\xdf\x0b\x10\x12\x00#\x00\x00\x00'
p235
tp236
Rp237
sg29
g132
sS'coordinates'
p238
NsS'in_reply_to_user_id_str'
p239
NsS'source'
p240
VTwitter Web Client
p241
sS'in_reply_to_status_id_str'
p242
NsS'in_reply_to_screen_name'
p243
Nsg209
g165
sS'retweeted'
p244
I00
sS'place'
p245
NsS'retweet_count'
p246
I2
sS'in_reply_to_user_id'
p247
Nsbsg21
g64
sg233
g234
(S'\x07\xdf\x0b\x10\x12\x01.\x00\x00\x00'
p248
tp249
Rp250
sg29
g53
sg238
Nsg239
Nsg240
VTweetDeck
p251
sg242
Nsg243
Nsg209
g127
sg244
I00
sg245
Nsg246
I2
sg247
NsbsS'is_translation_enabled'
p252
I00
sS'utc_offset'
p253
I-14400
sS'statuses_count'
p254
I1425
sS'description'
p255
g180
sS'friends_count'
p256
I338
sS'location'
p257
g183
sS'profile_link_color'
p258
g185
sS'profile_image_url'
p259
g187
sS'notifications'
p260
NsS'geo_enabled'
p261
I00
sS'profile_background_color'
p262
g50
sS'profile_background_image_url'
p263
g191
sS'screen_name'
p264
g192
sg227
g193
sg1
I00
sS'profile_background_tile'
p265
I00
sS'favourites_count'
p266
I35
sS'name'
p267
g196
sS'url'
p268
Nsg233
g234
(S'\x07\xdd\x07\x17\x13$5\x00\x00\x00'
p269
tp270
Rp271
sS'profile_background_image_url_https'
p272
g37
sS'time_zone'
p273
g201
sS'protected'
p274
I00
sS'default_profile'
p275
I01
sS'is_translator'
p276
I00
sbs.