(dp0
S'following'
p1
(lp2
(lp3
L3860644756L
aL3997309654L
aL3717439282L
aI20356255
aL3878126655L
aL4066970773L
aI315463438
aL2869475913L
aL2827835238L
aL2555352817L
aL4115741650L
aL3302870909L
aI19835520
aI39564953
aI20113996
aI118673628
aL3044886466L
aI231239077
aL2328854937L
aL2160113041L
aI47087332
aI14165212
aI17841130
aI57849762
aI17790265
aI93913891
aI182896979
aI37469211
aL3197535338L
aI16004376
aI24447643
aI20573948
aL2523596058L
aI135813580
aL2199606703L
aL3131365840L
aL3019290069L
aI1551826970
aL3225783793L
aL3251831039L
aI9672642
aI1928213371
aL2283796038L
aI55395551
aL3154923455L
aI324785060
aI326973224
aI242155457
aL2730826481L
aI119130178
aI23540413
aL3369028305L
aI113703966
aL2277712488L
aI206277247
aL3318157345L
aI836033257
aI1543432280
aL3081597406L
aL3127950274L
aI523607508
aL2980216509L
aI234546406
aL3050213907L
aI1889846168
aI914813090
aI569352914
aI20811982
aL3139139799L
aI602177178
aI611678841
aI1082637517
aL2592841921L
aL3342513825L
aL2857103458L
aI1139857417
aL3409240960L
aI29582695
aI1394410152
aI16795947
aI295091981
aI186585767
aI205324902
aI57053935
aI224241222
aI703721852
aL3181618677L
aL2999735878L
aL3415396210L
aL2865098103L
aI19717430
aI611616582
aI331311644
aI1227724117
aL2760808768L
aI118924246
aI18616722
aI149560373
aI262109188
aL2465120636L
aI17249855
aL2932892716L
aI946833560
aL3223468184L
aI253915179
aI346773459
aI20084443
aL2251602908L
aL2167183003L
aI904394119
aI31374456
aL2985926925L
aI187993109
aI15130891
aI441260402
aL3075775982L
aL2557025744L
aI32290377
aL2534364897L
aI1866021704
aI61243475
aI322090544
aI104969057
aI602317143
aI1494917670
aI20435863
aI17549691
aL3074581416L
aI214103248
aL2607477037L
aI225975041
aI597123321
aI588406265
aI1056521628
aI1719506780
aL2582806043L
aI925752595
aI31590536
aI545333253
aI442520906
aL2710704187L
aI24819650
aI1967591317
aI225758803
aI60969583
aL2719032029L
aL3234497036L
aI347640326
aL2784770668L
aI1607155250
aI1364930179
aI274233761
aI246585278
aL2933358286L
aL2893191361L
aI575495944
aL2362882962L
aL2951747985L
aI16595597
aI1320073344
aI735588145
aL3252028703L
aI572352450
aI490802219
aI362507190
aL2731069732L
aL2746667072L
aI335107974
aI1140129296
aL3143285089L
aI129845242
aI20545055
aI184881902
aI195917254
aI21328656
aI14204449
aI1611593304
aI297848618
aI28999113
aI33973843
aI617713057
aI1931179794
aI19739279
aI1042303244
aL2171294112L
aL2186813068L
aI1637977152
aI13219402
aI15921072
aL2710595881L
aI777011756
aI55561590
aI455824771
aI238668583
aI77549898
aI90715655
aI265896998
aL2946624364L
aI416749415
aI551907282
aI878385756
aI443918542
aI468128621
aI75354209
aI480384076
aI43111757
aI29748372
aL2161913370L
aI403855355
aI163648850
aI39085071
aI15281391
aI30818980
aI262652488
aI19143910
aI234828509
aI49663664
aI82142636
aI624413
aI14886375
aI410827049
aI53215424
aL3061520791L
aL3039818766L
aI110526468
aI179959497
aL3145005276L
aI1279746739
aI799122090
aI475839404
aI203652149
aI93733389
aI164611711
aI72442349
aI310216379
aI1308512629
aL3147247317L
aL3060166140L
aI151135255
aI47247213
aI190092133
aL3073962759L
aL2445459474L
aI611817117
aL3059478537L
aI1198992138
aI270369094
aI1158475142
aI1209303486
aI74336234
aI92321567
aI15915843
aI188398607
aI89332876
aI44196397
aL3011472697L
aI37555599
aI7520262
aL2520719083L
aI788333744
aI238174807
aI23420231
aL2804393939L
aI7836182
aI163637459
aL3094510846L
aI257022195
aI1217108497
aI16098089
aI475235004
aI568571833
aI54499269
aI72593091
aI58337627
aI297723492
aI1269224551
aI343625360
aL2992556597L
aL2643312339L
aI250278161
aI43336639
aI246823608
aI15439395
aI278230061
aI27214684
aI180740198
aI108583903
aI60150406
aI50118104
aI52166809
aI84402174
aI19407053
aI112872946
aL2904785077L
aL2996196900L
aI8161232
aI168715580
aI1093403928
aI41458395
aI35404934
aI102527566
aI884935388
aL2611362920L
aI102094857
aI49620233
aI1673739764
aI237591901
aI775319148
aI142845251
aI194036078
aI582390700
aL2657211457L
aI1223724236
aI565969885
aL2874279502L
aL2595519847L
aI317373303
aI132643352
aI317437245
aI1689434408
aI755071644
aI72907355
aI527381280
aI434574997
aI262144590
aI102819479
aI1873589498
aI133483902
aL2409330439L
aL2452494672L
aI59853587
aI193838214
aI301638595
aI486139568
aI955733059
aI172023851
aI168679374
aL2704486915L
aI96682182
aI31546412
aI236953420
aI14297693
aI138404716
aL2179895676L
aI379172971
aI586734515
aL3049349310L
aI170428232
aI11247222
aI514835972
aI81157050
aI15971805
aI14923571
aI743088090
aI562202183
aasS'followers'
p4
(lp5
(lp6
I1488838998
aL3438142690L
aI591335059
aI1935601249
aL3044552061L
aI1934329934
aL2830371145L
aL3120145617L
aL3983826133L
aI23978832
aL2332532588L
aL2332531530L
aL2197275834L
aI1968734192
aL4066970773L
aL3044886466L
aL3302870909L
aL2846259511L
aL2328854937L
aL3188243731L
aI57849762
aI42912883
aL2529664742L
aL4086878235L
aI182896979
aL3405443625L
aI250362250
aL3028160926L
aI100767876
aI24430413
aI914813090
aL3655387937L
aL2348579490L
aL3225783793L
aI55395551
aI1082637517
aL2884641887L
aL3154923455L
aL2922822785L
aL2730826481L
aL2328545764L
aL3369028305L
aL3081597406L
aL2862548602L
aL3139139799L
aI836033257
aI1379998892
aI20811982
aL2857103458L
aL3415396210L
aL2465120636L
aL2760808768L
aI346773459
aL2991724353L
aI1530916794
aL3224648169L
aI1531007624
aL2885639245L
aI51508718
aI971129101
aI20435863
aL3259302902L
aL3119814442L
aI1719506780
aI1462240951
aL3233951736L
aI13219402
aI572352450
aL2753471751L
aL2764193091L
aL3240351874L
aL2788102767L
aL2901583598L
aL2739972932L
aI788333744
aL3179832176L
aL3071235587L
aI41140413
aL3155583077L
aL3167720624L
aL3175979237L
aL2559876024L
aL3188621553L
aI805230144
aL2584877251L
aL2433268352L
aI43111757
aL3061520791L
aI302510445
aL3039818766L
aL3145005276L
aL2258355798L
aI164611711
aL3059478537L
aL2445459474L
aI1423715634
aI10643652
aI347640326
aL3015860842L
aI54499269
aL3094510846L
aL3108200401L
aL2643312339L
aI878385756
aI51491327
aI70934015
aI24172445
aL2731069732L
aI296397625
aL3085485258L
aL2978868645L
aI1660859730
aL2258136452L
aI52363246
aL3102329427L
aI322129904
aI265924017
aI343625360
aL3076082735L
aI611817117
aL3073478049L
aL2981421573L
aL3065083689L
aI1444614408
aL2704486915L
aI379172971
aL3049349310L
aL3028191174L
aI538385554
aI442266589
aI341379296
aI743088090
aI486467753
aI1627673982
aI1663083536
aasS'obj'
p7
ccopy_reg
_reconstructor
p8
(ctweepy.models
User
p9
c__builtin__
object
p10
Ntp11
Rp12
(dp13
S'follow_request_sent'
p14
I00
sS'has_extended_profile'
p15
I00
sS'profile_use_background_image'
p16
I01
sS'profile_sidebar_fill_color'
p17
VDDEEF6
p18
sS'id'
p19
I1662973620
sS'verified'
p20
I00
sS'entities'
p21
(dp22
Vdescription
p23
(dp24
Vurls
p25
(lp26
sssS'profile_image_url_https'
p27
Vhttps://pbs.twimg.com/profile_images/609664630353457152/SJLIJ8qP_normal.jpg
p28
sS'_json'
p29
(dp30
Vfollow_request_sent
p31
I00
sVhas_extended_profile
p32
I00
sVprofile_use_background_image
p33
I01
sVdefault_profile_image
p34
I00
sVid
p35
I1662973620
sVprofile_background_image_url_https
p36
Vhttps://abs.twimg.com/images/themes/theme1/bg.png
p37
sVverified
p38
I00
sVprofile_text_color
p39
V333333
p40
sVprofile_image_url_https
p41
g28
sVprofile_sidebar_fill_color
p42
g18
sVentities
p43
g22
sVfollowers_count
p44
I135
sVprofile_sidebar_border_color
p45
VC0DEED
p46
sVid_str
p47
V1662973620
p48
sVprofile_background_color
p49
VC0DEED
p50
sVlisted_count
p51
I11
sVstatus
p52
(dp53
Vcontributors
p54
NsVtruncated
p55
I00
sVtext
p56
Vhttps://t.co/GYTpl62jIP Verified $9.49 profit in $FRPT don't usually trade these cheaper stocks but it met all the other criteria.. worke...
p57
sVin_reply_to_status_id
p58
Nsg35
L666283452447092736L
sVfavorite_count
p59
I0
sVsource
p60
V<a href="http://www.profit.ly" rel="nofollow">Profit.ly</a>
p61
sVretweeted
p62
I00
sVcoordinates
p63
Nsg43
(dp64
Vsymbols
p65
(lp66
(dp67
Vindices
p68
(lp69
I49
aI54
asg56
VFRPT
p70
sasVuser_mentions
p71
(lp72
sVhashtags
p73
(lp74
sg25
(lp75
(dp76
Vurl
p77
Vhttps://t.co/GYTpl62jIP
p78
sg68
(lp79
I0
aI23
asVexpanded_url
p80
Vhttp://profit.ly/5006hH
p81
sVdisplay_url
p82
Vprofit.ly/5006hH
p83
sassVin_reply_to_screen_name
p84
Nsg47
V666283452447092736
p85
sVretweet_count
p86
I0
sVin_reply_to_user_id
p87
NsVfavorited
p88
I00
sVgeo
p89
NsVin_reply_to_user_id_str
p90
NsVpossibly_sensitive
p91
I00
sVlang
p92
Ven
p93
sVcreated_at
p94
VMon Nov 16 15:55:28 +0000 2015
p95
sVin_reply_to_status_id_str
p96
NsVplace
p97
NssVis_translation_enabled
p98
I00
sVutc_offset
p99
I3600
sVstatuses_count
p100
I917
sg23
VHave two Cats and want a Dog!\u2606 Learning to Daytrade and Legendary Barista.\u2606
p101
sVfriends_count
p102
I355
sVlocation
p103
VExeter, England
p104
sVprofile_link_color
p105
V0084B4
p106
sVprofile_image_url
p107
Vhttp://pbs.twimg.com/profile_images/609664630353457152/SJLIJ8qP_normal.jpg
p108
sVfollowing
p109
I00
sVgeo_enabled
p110
I01
sVprofile_banner_url
p111
Vhttps://pbs.twimg.com/profile_banners/1662973620/1425933185
p112
sVprofile_background_image_url
p113
Vhttp://abs.twimg.com/images/themes/theme1/bg.png
p114
sVscreen_name
p115
VExaggeratedLies
p116
sg92
Ven
p117
sVprofile_background_tile
p118
I00
sVfavourites_count
p119
I257
sVname
p120
VAlura Grufold
p121
sVnotifications
p122
I00
sg77
Nsg94
VSun Aug 11 17:00:38 +0000 2013
p123
sVcontributors_enabled
p124
I00
sVtime_zone
p125
VAmsterdam
p126
sVprotected
p127
I00
sVdefault_profile
p128
I01
sVis_translator
p129
I00
ssS'contributors_enabled'
p130
I00
sS'profile_text_color'
p131
g40
sS'followers_count'
p132
I135
sS'profile_sidebar_border_color'
p133
g46
sS'id_str'
p134
g48
sS'default_profile_image'
p135
I00
sS'listed_count'
p136
I11
sS'status'
p137
g8
(ctweepy.models
Status
p138
g10
Ntp139
Rp140
(dp141
S'favorited'
p142
I00
sS'contributors'
p143
NsS'truncated'
p144
I00
sS'text'
p145
g57
sS'source_url'
p146
Vhttp://www.profit.ly
p147
sS'possibly_sensitive'
p148
I00
sS'in_reply_to_status_id'
p149
NsS'geo'
p150
Nsg19
L666283452447092736L
sS'favorite_count'
p151
I0
sS'lang'
p152
g93
sg21
g64
sS'created_at'
p153
cdatetime
datetime
p154
(S'\x07\xdf\x0b\x10\x0f7\x1c\x00\x00\x00'
p155
tp156
Rp157
sg29
g53
sS'coordinates'
p158
NsS'in_reply_to_user_id_str'
p159
NsS'source'
p160
VProfit.ly
p161
sS'in_reply_to_status_id_str'
p162
NsS'in_reply_to_screen_name'
p163
Nsg134
g85
sS'retweeted'
p164
I00
sS'place'
p165
NsS'retweet_count'
p166
I0
sS'in_reply_to_user_id'
p167
NsbsS'is_translation_enabled'
p168
I00
sS'utc_offset'
p169
I3600
sS'statuses_count'
p170
I917
sS'description'
p171
g101
sS'friends_count'
p172
I355
sS'location'
p173
g104
sS'profile_link_color'
p174
g106
sS'profile_image_url'
p175
g108
sS'notifications'
p176
I00
sS'geo_enabled'
p177
I01
sS'profile_background_color'
p178
g50
sS'profile_banner_url'
p179
g112
sS'profile_background_image_url'
p180
g114
sS'screen_name'
p181
g116
sg152
g117
sg1
I00
sS'profile_background_tile'
p182
I00
sS'favourites_count'
p183
I257
sS'name'
p184
g121
sS'url'
p185
Nsg153
g154
(S'\x07\xdd\x08\x0b\x11\x00&\x00\x00\x00'
p186
tp187
Rp188
sS'profile_background_image_url_https'
p189
g37
sS'time_zone'
p190
g126
sS'protected'
p191
I00
sS'default_profile'
p192
I01
sS'is_translator'
p193
I00
sbs.