(dp0
S'following'
p1
(lp2
(lp3
I14886375
aI1413027896
aI70984741
aI47087332
aI18062147
aI1534167900
aI38476367
aI7520262
aI7557352
aI473385747
aL2517112130L
aI68739089
aI72442349
aI389157954
aL2915634197L
aI103925867
aI172836249
aI96682182
aI264671180
aI201891203
aI848811998
aI14235127
aI263440231
aI28164923
aL2752524304L
aL2286995456L
aI426159377
aI253167239
aI4898091
aI32359921
aI15110357
aI34063386
aI111416652
aI831819445
aI304909941
aI624413
aI269866916
aI242894390
aI400179351
aI105189580
aI19224439
aI350958562
aI6361512
aI425976792
aI1615929840
aI316485110
aI120209971
aI1506525248
aI186569724
aI545618159
aI93529573
aI37192303
aI155908524
aI381289719
aI45953808
aI66975479
aI247857712
aI600378539
aI23002939
aI97334517
aI21232827
aI202915788
aI46594805
aI590523112
aI250362250
aI316462911
aI253168011
aI395016696
aI504821033
aI430841130
aI258028535
aI1687890656
aI27828974
aI42903820
aI410827049
aI37284991
aI295159747
aI24656325
aI1005382280
aI15130891
aI19739279
aI17549691
aI71295439
aI52166809
aI184881902
aI455824771
aI203652149
aI64783984
aI160625399
aL2470080818L
aI805230144
aI1263288692
aI1375860338
aI278584330
aL2484513824L
aI1390730917
aI273984441
aI54303167
aI16225240
aI31869934
aI36728196
aI32002507
aI39275966
aI16228398
aI479584564
aI27801361
aL2459793510L
aI1484162798
aI163864880
aL2290927698L
aL2426029027L
aI1514346050
aL2357359778L
aI580641304
aI453548744
aI400246375
aI535913183
aI197282701
aL2394624246L
aL2431803428L
aI17316055
aI19546362
aI105295143
aL2429288503L
aL2341525668L
aL2460538845L
aI454015086
aI1015241814
aI904810278
aI284742585
aI1209303486
aI27105334
aI197869772
aI104952689
aI397041712
aI263671861
aI544126975
aI166131787
aI50011708
aI254136706
aI168679374
aL2431583503L
aI63222576
aI252751061
aI27762318
aI236953420
aI14935349
aI609372856
aI140149665
aI36240243
aI74130577
aI486139568
aI268895913
aI1959513294
aI1152105936
aI164425558
aL2161847108L
aI22631898
aI339750414
aI1490281285
aI136361303
aI13131362
aI1928213371
aL2433203911L
aI32693404
aI14791162
aI138404716
aI602397399
aI514835972
aI15063486
aI42890030
aI14875576
aI11247222
aI14872511
aL2259383122L
aL2203774591L
aI118952409
aI48572412
aI198741618
aI97487983
aI35067659
aL2393142584L
aI14935367
aI44401911
aI50393960
aI16017475
aI586734515
aI302128211
aI742143
aI126717954
aI23484039
aI27771267
aI53978117
aI108021761
aI313714566
aI51241574
aI94682674
aI59853587
aI745273
aI1308512629
aI377714371
aI27226503
aI56562803
aI254207829
aI37564410
aI108767179
aI38204207
aI264996175
aI265066319
aI86582499
aI295
aI320524842
aI34681960
aI23221109
aI57675435
aI270453567
aI13471032
aL2183192892L
aI120093200
aI23540413
aI381696140
aI31458684
aI160948300
aI174256096
aI1388067565
aL2396086740L
aI28174713
aI163538563
aI110974198
aI106878438
aI208155240
aI138182116
aI37718217
aI332617373
aI382685028
aI25709609
aI233704756
aI22411342
aI39879120
aI141612498
aI17173207
aL2233512937L
aI316171681
aI349599564
aL2358546985L
aI18719020
aI222164515
aI18378349
aL2432938284L
aI88579495
aI1941887018
aI1511806302
aI1160386730
aI218403677
aI1329811814
aI28953913
aI1392153384
aI1379998892
aI250832467
aI108289007
aI858641310
aI119774331
aI540081442
aI74561702
aL2296834591L
aI1090358641
aL2279813613L
aI1954614438
aI1385191992
aI942445345
aL2282396586L
aI371957856
aL2308931647L
aL2313646142L
aI363184279
aI499253528
aI45415894
aI262761903
aI64367566
aI1418087640
aI138550217
aL2377788787L
aI277138163
aI91854488
aI198179597
aI254247433
aI1922163835
aI170428232
aL2215342812L
aI1000591
aI228033403
aI18949452
aI7015112
aI21888718
aI15317462
aI262144590
aI19331681
aI14946614
aI733498692
aI16650886
aI31099876
aI14653404
aI19720395
aI59166197
aI231164809
aI15307727
aI243801041
aI1520072330
aI33846451
aI41003633
aI3382
aI165503959
aI24775410
aI185808487
aI27814665
aI20348377
aI2529971
aI64844802
aI10078
aI400066174
aL2208137936L
aI38225004
aI16242081
aI34547390
aI5943622
aI191991185
aI1624561014
aI303916100
aI844865059
aI233510504
aL2208485844L
aI360304674
aI20402945
aI273538988
aL2411493198L
aI1481984011
aI463100829
aI343702445
aI1691707573
aI51533820
aI163648850
aI18560146
aI19891705
aI43950136
aI14897785
aI28445389
aI24410456
aI19337489
aI604701612
aL2149877280L
aI383077253
aI1031517068
aI892355328
aI409617637
aL2341060992L
aI89301725
aI378208943
aI34923361
aI1465132578
aI1503276012
aI393213564
aI1598644159
aI533529603
aI275286075
aI15981775
aI704983797
aI338330795
aL2269916281L
aI21033404
aI15271342
aI120325121
aI259059584
aI50764888
aI1957737757
aI53714715
aI1829455344
aI1289738107
aI387286612
aI114782468
aI26705006
aI602321455
aI70225622
aI1935196039
aI1962149498
aI387287736
aI9940162
aI40983010
aI25036033
aI102212196
aL2281244994L
aI569413508
aI22092119
aI356800344
aI20525971
aI273294289
aI1963154750
aI16515274
aI1857063908
aI102375372
aI51912109
aL2161913370L
aI416311594
aI807095
aI14800270
aI5988062
aI3108351
aL2233713018L
aI483195215
aI324545385
aI20562637
aI72907355
aI440765604
aI26223938
aI959564347
aI85616008
aI40099128
aI23059499
aI166597717
aI72928001
aI61532027
aI15296897
aL2242327045L
aI1064015220
aI317781191
aI604281093
aI121158213
aI58792459
aI1315225639
aI460818077
aI257635313
aI458989076
aI989646270
aI451486814
aI27990259
aI41458395
aI71454795
aI820031509
aI15971805
aI18433619
aI17790265
aI205244994
aI20800915
aL2181103753L
aI262763182
aI16753226
aI14297693
aI16040817
aI141928893
aI19904067
aI9636172
aI5768872
aI44196397
aI241789496
aL2198989210L
aI99005969
aI173203697
aI1869471378
aI106725205
aI627258075
aI47993386
aI20596865
aI274537469
aI289556231
aI715170120
aI604616126
aI47887874
aI23003843
aI435854974
aI36359651
aI176168308
aI1488917659
aI214433021
aI373457750
aI99140220
aI43111757
aI1093261778
aI131276801
aI26600720
aI394642779
aI21958792
aI2730791
aI106498703
aI47539748
aI160983113
aI6730222
aI407685094
aI24443284
aI407644339
aI1702731
aI70999427
aI17578576
aI119372054
aI17105436
aI7517052
aI20707966
aI636441598
aI112317039
aI375980238
aI550663732
aI1064700308
aI250758475
aL2165221004L
aI21000248
aI24227424
aI17049899
aI54879118
aI38053161
aI82142636
aI8524892
aI16359602
aI103087049
aI14117774
aI14165212
aI17780244
aI14216123
aI14292717
aI19988458
aI245991435
aI15984351
aI49753604
aI34713362
aI20971676
aI39853973
aI191177057
aI258819961
aI28571999
aI27212395
aI15485461
aI14173032
aI44060322
aI22522178
aI16732770
aI18856867
aI18571332
aI16955517
aI1364930179
aI27707080
aasS'followers'
p4
(lp5
(lp6
I60478078
aI218634414
aI386770863
aL3099926523L
aL2945959759L
aL2906862160L
aL3236747475L
aL3236798219L
aI83992846
aL2432028553L
aI1245939253
aL2205699471L
aI330595077
aL2363012924L
aI18062147
aL3076387533L
aI218996103
aI977782442
aL2753471751L
aI30143126
aI1877387125
aL2951551890L
aI15897179
aL3092520322L
aI54945291
aL3061677082L
aI1853820926
aL2915634197L
aI172836249
aL2754857585L
aI519911967
aL3059203505L
aI16262784
aI22308909
aL2861670335L
aI106291034
aI424029998
aL3007228188L
aL2275230932L
aI8430902
aI1150969206
aI873035406
aI755771490
aL2917238896L
aI1594074108
aL2753440416L
aI51533820
aL2855170383L
aL2839234018L
aL2860806346L
aI575686941
aI184391585
aI82111706
aL2435458328L
aL2609500089L
aI946533932
aI805230144
aL2497649096L
aI70379882
aI850160976
aL2616980359L
aL2511518101L
aL2344211317L
aI398268047
aL2290381626L
aL2406403884L
aL2316367758L
aI966509118
aI82329236
aI627991604
aL2526829653L
aI1263288692
aI60331659
aL2510900658L
aI54303167
aI443360122
aI245294597
aI38225004
aI479584564
aL2470080818L
aI1388067565
aI1484162798
aI535913183
aI453548744
aL2357359778L
aL2394624246L
aI1514346050
aL2431803428L
aL2426029027L
aL2290927698L
aL2409581528L
aI105295143
aL2429288503L
aL2255580920L
aI17316055
aI19546362
aL2460538845L
aL2341525668L
aL2183192892L
aI108767179
aL2393142584L
aI97487983
aI48572412
aL2433203911L
aI15063486
aL2431583503L
aI32693404
aI349599564
aL2233512937L
aI17173207
aL2432938284L
aI120093200
aI22411342
aL2396086740L
aI1922163835
aI254247433
aI231164809
aL2315822372L
aI298123951
aI198179597
aL2215342812L
aL2377788787L
aI3382
aI138550217
aI1418087640
aI360304674
aL2411493198L
aI64367566
aI1481984011
aI463100829
aI1869471378
aI262761903
aL2208485844L
aI233510504
aI844865059
aI45415894
aI499253528
aI43950136
aI1031517068
aI383077253
aL2149877280L
aI604701612
aI363184279
aI892355328
aL2313646142L
aL2308931647L
aL2282396586L
aI942445345
aI1385191992
aI704983797
aI15271342
aI393213564
aI1954614438
aI21033404
aL2279813613L
aI53714715
aI387286612
aI1829455344
aI1090358641
aI70225622
aL2296834591L
aI74561702
aI540081442
aL2286995456L
aI387287736
aI119774331
aI108289007
aI250832467
aI40983010
aI25036033
aI1392153384
aI28953913
aI1329811814
aI218403677
aI1160386730
aI1511806302
aI1941887018
aI69612579
aI959564347
aI810726385
aL2260942443L
aI244942653
aI67000429
aI1358343787
aI862233572
aL2273835792L
aL2238559969L
aI397516741
aI391448844
aI273294289
aL2214613100L
aI1857063908
aI238418654
aI351735291
aI49720832
aI1959513294
aI229027427
aI312004959
aI449128723
aL2233228551L
aI475809343
aI40576469
aI75012206
aL2242298871L
aI1977179426
aL2233713018L
aI106922623
aI228617584
aI56641554
aI55983576
aI49191809
aI85616008
aL2250848065L
aL2242327045L
aI121158213
aI91899550
aI1315225639
aI317781191
aI604281093
aI460818077
aL2239637942L
aI345590200
aI257635313
aI451486814
aI1479060733
aI270668290
aI16753226
aI9636172
aL2198989210L
aL2216039120L
aI132859709
aL2190310947L
aI1203866802
aL2149252537L
aI23003843
aI47887874
aL2205121992L
aI57716523
aI27084124
aI604616126
aI47993386
aI627258075
aI214433021
aI575582187
aI43111757
aI1093261778
aI1344189493
aI407685094
aI407644339
aL2165221004L
aasS'obj'
p7
ccopy_reg
_reconstructor
p8
(ctweepy.models
User
p9
c__builtin__
object
p10
Ntp11
Rp12
(dp13
S'follow_request_sent'
p14
NsS'has_extended_profile'
p15
I00
sS'profile_use_background_image'
p16
I01
sS'profile_sidebar_fill_color'
p17
VDDEEF6
p18
sS'id'
p19
I1711733179
sS'verified'
p20
I00
sS'entities'
p21
(dp22
Vurl
p23
(dp24
Vurls
p25
(lp26
(dp27
g23
Vhttp://t.co/ihN22WFV0J
p28
sVindices
p29
(lp30
I0
aI22
asVexpanded_url
p31
Vhttp://www.Thestealthytrader.com
p32
sVdisplay_url
p33
VThestealthytrader.com
p34
sassVdescription
p35
(dp36
g25
(lp37
sssS'profile_image_url_https'
p38
Vhttps://pbs.twimg.com/profile_images/378800000732274858/9bc017e903db00325e3a4a3dfe130d17_normal.jpeg
p39
sS'_json'
p40
(dp41
Vfollow_request_sent
p42
NsVhas_extended_profile
p43
I00
sVprofile_use_background_image
p44
I01
sVdefault_profile_image
p45
I00
sVid
p46
I1711733179
sVprofile_background_image_url_https
p47
Vhttps://abs.twimg.com/images/themes/theme1/bg.png
p48
sVverified
p49
I00
sVprofile_text_color
p50
V333333
p51
sVprofile_image_url_https
p52
g39
sVprofile_sidebar_fill_color
p53
g18
sVentities
p54
g22
sVfollowers_count
p55
I250
sVprofile_sidebar_border_color
p56
VC0DEED
p57
sVid_str
p58
V1711733179
p59
sVprofile_background_color
p60
VC0DEED
p61
sVlisted_count
p62
I5
sVstatus
p63
(dp64
Vcontributors
p65
NsVtruncated
p66
I00
sVtext
p67
VI just updated my Weebly website. https://t.co/4v6qKyEucH via @weebly
p68
sVin_reply_to_status_id
p69
Nsg46
L666052662991806464L
sVfavorite_count
p70
I0
sVsource
p71
V<a href="http://www.weebly.com/" rel="nofollow">Weebly App</a>
p72
sVretweeted
p73
I00
sVcoordinates
p74
Nsg54
(dp75
Vsymbols
p76
(lp77
sVuser_mentions
p78
(lp79
(dp80
g46
I5733082
sg29
(lp81
I62
aI69
asg58
V5733082
p82
sVscreen_name
p83
Vweebly
p84
sVname
p85
VWeebly
p86
sasVhashtags
p87
(lp88
sg25
(lp89
(dp90
g23
Vhttps://t.co/4v6qKyEucH
p91
sg29
(lp92
I34
aI57
asg31
Vhttp://www.thestealthytrader.com
p93
sg33
Vthestealthytrader.com
p94
sassVin_reply_to_screen_name
p95
Nsg58
V666052662991806464
p96
sVretweet_count
p97
I0
sVin_reply_to_user_id
p98
NsVfavorited
p99
I00
sVgeo
p100
NsVin_reply_to_user_id_str
p101
NsVpossibly_sensitive
p102
I00
sVlang
p103
Ven
p104
sVcreated_at
p105
VMon Nov 16 00:38:24 +0000 2015
p106
sVin_reply_to_status_id_str
p107
NsVplace
p108
NssVis_translation_enabled
p109
I00
sVutc_offset
p110
I-18000
sVstatuses_count
p111
I725
sg35
VTrader Education, Market Psychology, Pattern Recognition, Technical Analysis, Volume Interpretation, Stealth Movers. Tweets are just our opinion.
p112
sVfriends_count
p113
I537
sVlocation
p114
VNew York
p115
sVprofile_link_color
p116
V0084B4
p117
sVprofile_image_url
p118
Vhttp://pbs.twimg.com/profile_images/378800000732274858/9bc017e903db00325e3a4a3dfe130d17_normal.jpeg
p119
sVfollowing
p120
NsVgeo_enabled
p121
I00
sVprofile_background_image_url
p122
Vhttp://abs.twimg.com/images/themes/theme1/bg.png
p123
sg83
Vstealthytrading
p124
sg103
Ven
p125
sVprofile_background_tile
p126
I00
sVfavourites_count
p127
I1
sg85
VDid you see that?
p128
sVnotifications
p129
Nsg23
Vhttp://t.co/ihN22WFV0J
p130
sg105
VFri Aug 30 03:46:54 +0000 2013
p131
sVcontributors_enabled
p132
I00
sVtime_zone
p133
VEastern Time (US & Canada)
p134
sVprotected
p135
I00
sVdefault_profile
p136
I01
sVis_translator
p137
I00
ssS'contributors_enabled'
p138
I00
sS'profile_text_color'
p139
g51
sS'followers_count'
p140
I250
sS'profile_sidebar_border_color'
p141
g57
sS'id_str'
p142
g59
sS'default_profile_image'
p143
I00
sS'listed_count'
p144
I5
sS'status'
p145
g8
(ctweepy.models
Status
p146
g10
Ntp147
Rp148
(dp149
S'favorited'
p150
I00
sS'contributors'
p151
NsS'truncated'
p152
I00
sS'text'
p153
g68
sS'source_url'
p154
Vhttp://www.weebly.com/
p155
sS'possibly_sensitive'
p156
I00
sS'in_reply_to_status_id'
p157
NsS'geo'
p158
Nsg19
L666052662991806464L
sS'favorite_count'
p159
I0
sS'lang'
p160
g104
sg21
g75
sS'created_at'
p161
cdatetime
datetime
p162
(S'\x07\xdf\x0b\x10\x00&\x18\x00\x00\x00'
p163
tp164
Rp165
sg40
g64
sS'coordinates'
p166
NsS'in_reply_to_user_id_str'
p167
NsS'source'
p168
VWeebly App
p169
sS'in_reply_to_status_id_str'
p170
NsS'in_reply_to_screen_name'
p171
Nsg142
g96
sS'retweeted'
p172
I00
sS'place'
p173
NsS'retweet_count'
p174
I0
sS'in_reply_to_user_id'
p175
NsbsS'is_translation_enabled'
p176
I00
sS'utc_offset'
p177
I-18000
sS'statuses_count'
p178
I725
sS'description'
p179
g112
sS'friends_count'
p180
I537
sS'location'
p181
g115
sS'profile_link_color'
p182
g117
sS'profile_image_url'
p183
g119
sS'notifications'
p184
NsS'geo_enabled'
p185
I00
sS'profile_background_color'
p186
g61
sS'profile_background_image_url'
p187
g123
sS'screen_name'
p188
g124
sg160
g125
sg1
I00
sS'profile_background_tile'
p189
I00
sS'favourites_count'
p190
I1
sS'name'
p191
g128
sS'url'
p192
g130
sg161
g162
(S'\x07\xdd\x08\x1e\x03.6\x00\x00\x00'
p193
tp194
Rp195
sS'profile_background_image_url_https'
p196
g48
sS'time_zone'
p197
g134
sS'protected'
p198
I00
sS'default_profile'
p199
I01
sS'is_translator'
p200
I00
sbs.