(dp0
S'following'
p1
(lp2
(lp3
L2339480196L
aI28489821
aL2690637547L
aL4185693733L
aI339039253
aI51932290
aL3424441204L
aL3239257840L
aI1941253760
aI1354704283
aI24636272
aI1713609026
aI1160386730
aL2986197711L
aI1682397852
aI585934344
aL2573660582L
aL2494896473L
aI1262780605
aI405681948
aL2302479052L
aL2275337142L
aI787401038
aI1898548820
aI26487100
aL2916305152L
aI19614296
aI563124667
aI465973
aI555139060
aI245833569
aI21079030
aI331636896
aL3426014292L
aI30820266
aI459091687
aI22522178
aI18223590
aI71643224
aI65466158
aL3055067522L
aL3043828834L
aL2520719083L
aI19419395
aL2819372269L
aL2581358730L
aI559118898
aI560837262
aI1017360962
aI34939208
aI26574283
aI811522
aL2744869459L
aI102486563
aI249707268
aI43901312
aI960747870
aI873399943
aI1055551057
aI396294440
aL2651596849L
aL2566535282L
aI101645381
aI141834186
aI1957125536
aL3044867175L
aL2263467936L
aI25325260
aI1873157642
aI550528636
aI71856984
aI818081647
aI82761528
aI102754598
aI446160487
aL2322117006L
aI1574773014
aL2459395075L
aI44196397
aI51305926
aI18985501
aI234523064
aI1355250584
aL2427893281L
aL2298133382L
aI425402956
aI210862918
aI104034095
aI705164280
aI338330795
aI224147492
aI41458395
aI67345697
aI11177602
aI1367451606
aI1946800788
aI21015529
aI820379341
aI179330403
aI228515266
aI866334295
aL3008939701L
aI121750974
aI313285713
aI259471396
aL2274875012L
aI327449659
aI67258983
aL2550149892L
aL2578837430L
aI19697415
aI1176954493
aL2988279556L
aL2427086898L
aI91099960
aI6017542
aI714790766
aI299752552
aI66975479
aI169489285
aI159894847
aI376347156
aI15296897
aI305221233
aI785935140
aI744650100
aI1711239283
aL2838276994L
aI545618159
aI47678782
aI14075928
aI1920286333
aI47387039
aI403730941
aL2280470022L
aL2178445214L
aL2358410354L
aL2601562952L
aI283066411
aI15173603
aI1435461
aI126834832
aL2838318774L
aL2875804979L
aI70269977
aI350955752
aI1630896181
aI1645717729
aI625910716
aI72928001
aI54619467
aI935803668
aI28350927
aI1485188648
aI632431183
aI103011458
aI1498350660
aI292777349
aI96206129
aI552326867
aI82162291
aI575796665
aI867224497
aI132173493
aI111441302
aI1152279248
aI32359921
aI25562183
aI4898091
aI34713362
aI1582853809
aI154610487
aI620487016
aI51241574
aI30217291
aI198941291
aI19668442
aI138820530
aI412362576
aI1093668242
aI1287234745
aI116229964
aL2290146716L
aI239982538
aI15470276
aI14063950
aI40144710
aI416311594
aI770904320
aI408672890
aI390450593
aI114857580
aI21793154
aI330389740
aI324538889
aL2295434528L
aI1615962686
aI274233761
aI921706345
aI36454287
aI888903264
aI548047409
aI388234560
aI344752927
aI743368848
aI531480389
aI19010961
aI433664446
aI29113916
aI602037998
aI23117251
aI1033654686
aI601025225
aI340481793
aI348772885
aI334906414
aI863003467
aI363815946
aI963684349
aI1584059844
aI255996385
aI467796546
aI153957211
aI1871450522
aI178083055
aI19019298
aI196056107
aI330492732
aI946459574
aI355124396
aI735588145
aI141612498
aI1190977808
aI24147760
aI212067078
aI105186633
aI380500399
aI465098412
aI22813422
aI49832877
aI227778014
aI43475268
aI229246832
aI174547154
aI726304448
aI47114671
aI243902538
aI252877176
aI165757778
aI223589965
aI1177065859
aI71609690
aI44841299
aI1224202136
aI62871181
aI270920283
aI108454159
aI229966745
aI147707464
aI15143478
aI19658826
aI244969675
aI84312619
aI194346014
aI446784969
aI44438256
aI243801041
aI18021517
aI290158392
aI442298073
aI19717430
aI168186079
aI632341632
aI17393219
aI15974185
aI13171622
aI111054964
aI102527566
aI112872946
aI56121651
aI18856867
aI167057163
aI32492934
aI351775059
aI71542880
aI35789155
aI44986993
aI17975357
aI14886375
aI1020244080
aI32450040
aI602321455
aI102094857
aasS'followers'
p4
(lp5
(lp6
L3314607132L
aL3154340963L
aI425894696
aI35784526
aL3239257840L
aL2859579189L
aI1682397852
aI1160386730
aI405681948
aI531525580
aI41666086
aL2432028553L
aI371694875
aI100767876
aL3169285989L
aI70128071
aL3277651620L
aI145037023
aI575582187
aI1055551057
aL3234087455L
aI1531007624
aI395892170
aI18267715
aI977420616
aL3311038876L
aI609996018
aL2306896124L
aI1611937303
aL2315376242L
aI259475114
aL3289024673L
aL3198383664L
aL2999819665L
aI21192969
aI809440051
aL2459395075L
aL3243752505L
aI19338040
aI48243560
aI383362249
aI71856984
aI87754222
aL2188579076L
aI440571951
aI67258983
aI888903264
aL2427893281L
aI224147492
aI60463167
aI1909133948
aI221497409
aI11177602
aI1367451606
aI21015529
aL3065591250L
aI212680094
aI1084184383
aI259448391
aI383517327
aL3008939701L
aL2988875059L
aI503777731
aL2416995798L
aI473344263
aI560837262
aI36587949
aI13916922
aL2891831343L
aL2908077580L
aI255363029
aL2977875862L
aI66975479
aL2752788966L
aI305221233
aI744650100
aI372360330
aL2924322759L
aI396720850
aI632431183
aI403730941
aL2917945203L
aL2875804979L
aL2838318774L
aI114857580
aL2694857078L
aI339836095
aI76730512
aI571118682
aI1235172012
aI18257487
aI867224497
aI82162291
aI808928378
aI21764446
aI743368848
aI220089923
aL2396558989L
aL2385665239L
aL2267956423L
aI412362576
aI273745284
aI330389740
aI247788883
aI36454287
aI27979167
aI36807633
aL2209381153L
aI238197580
aI16379894
aI19010961
aI344752927
aI1287234745
aI44986993
aI1177065859
aI32450040
aI1871450522
aI309364329
aI330492732
aI128592428
aI557788373
aI1190977808
aI465098412
aI22813422
aI227778014
aI71609690
aI44841299
aasS'obj'
p7
ccopy_reg
_reconstructor
p8
(ctweepy.models
User
p9
c__builtin__
object
p10
Ntp11
Rp12
(dp13
S'follow_request_sent'
p14
NsS'has_extended_profile'
p15
I00
sS'profile_use_background_image'
p16
I01
sS'profile_sidebar_fill_color'
p17
VDDEEF6
p18
sS'id'
p19
I1719681860
sS'verified'
p20
I00
sS'entities'
p21
(dp22
Vdescription
p23
(dp24
Vurls
p25
(lp26
sssS'profile_image_url_https'
p27
Vhttps://pbs.twimg.com/profile_images/378800000396824516/ef6bc254b68cacdb0c59ac277dbe031e_normal.jpeg
p28
sS'_json'
p29
(dp30
Vfollow_request_sent
p31
NsVhas_extended_profile
p32
I00
sVprofile_use_background_image
p33
I01
sVdefault_profile_image
p34
I00
sVid
p35
I1719681860
sVprofile_background_image_url_https
p36
Vhttps://abs.twimg.com/images/themes/theme1/bg.png
p37
sVverified
p38
I00
sVprofile_text_color
p39
V333333
p40
sVprofile_image_url_https
p41
g28
sVprofile_sidebar_fill_color
p42
g18
sVentities
p43
g22
sVfollowers_count
p44
I127
sVprofile_sidebar_border_color
p45
VC0DEED
p46
sVid_str
p47
V1719681860
p48
sVprofile_background_color
p49
VC0DEED
p50
sVlisted_count
p51
I5
sVstatus
p52
(dp53
Vcontributors
p54
NsVtruncated
p55
I00
sVtext
p56
VRT @DrSManian: Biotech Stock Mailbag: $AZN buying $ZSPH $2.7B\u000a$RLYP MV&lt; $800M with a hyperkalemia drug just as good if not better https://t\u2026
p57
sVin_reply_to_status_id
p58
Nsg35
L665186673978949633L
sVfavorite_count
p59
I0
sVsource
p60
V<a href="http://twitter.com" rel="nofollow">Twitter Web Client</a>
p61
sVretweeted
p62
I00
sVcoordinates
p63
Nsg43
(dp64
Vsymbols
p65
(lp66
(dp67
Vindices
p68
(lp69
I38
aI42
asg56
VAZN
p70
sa(dp71
g68
(lp72
I50
aI55
asg56
VZSPH
p73
sa(dp74
g68
(lp75
I62
aI67
asg56
VRLYP
p76
sasVuser_mentions
p77
(lp78
(dp79
g35
I433664446
sg68
(lp80
I3
aI13
asg47
V433664446
p81
sVscreen_name
p82
VDrSManian
p83
sVname
p84
VS Manian
p85
sasVhashtags
p86
(lp87
sg25
(lp88
(dp89
Vurl
p90
Vhttps://t.co/dWID4e46F9
p91
sg68
(lp92
I142
aI143
asVexpanded_url
p93
Vhttp://www.thestreet.com/story/13364217/1/biotech-stock-mailbag-relypsa-sophiris-bluebird-zafgen-nw-bio.html
p94
sVdisplay_url
p95
Vthestreet.com/story/13364217\u2026
p96
sassVin_reply_to_screen_name
p97
Nsg47
V665186673978949633
p98
sVretweet_count
p99
I7
sVin_reply_to_user_id
p100
NsVfavorited
p101
I00
sVretweeted_status
p102
(dp103
g54
Nsg55
I00
sg56
VBiotech Stock Mailbag: $AZN buying $ZSPH $2.7B\u000a$RLYP MV&lt; $800M with a hyperkalemia drug just as good if not better https://t.co/dWID4e46F9
p104
sg58
Nsg35
L665185095347781633L
sg59
I6
sg60
V<a href="http://twitter.com/download/iphone" rel="nofollow">Twitter for iPhone</a>
p105
sg62
I00
sg63
Nsg43
(dp106
g65
(lp107
(dp108
g68
(lp109
I23
aI27
asg56
VAZN
p110
sa(dp111
g68
(lp112
I35
aI40
asg56
VZSPH
p113
sa(dp114
g68
(lp115
I47
aI52
asg56
VRLYP
p116
sasg77
(lp117
sg86
(lp118
sg25
(lp119
(dp120
g90
Vhttps://t.co/dWID4e46F9
p121
sg68
(lp122
I118
aI141
asg93
Vhttp://www.thestreet.com/story/13364217/1/biotech-stock-mailbag-relypsa-sophiris-bluebird-zafgen-nw-bio.html
p123
sg95
Vthestreet.com/story/13364217\u2026
p124
sassg97
Nsg47
V665185095347781633
p125
sg99
I7
sg100
Nsg101
I00
sVgeo
p126
NsVin_reply_to_user_id_str
p127
NsVpossibly_sensitive
p128
I00
sVlang
p129
Ven
p130
sVcreated_at
p131
VFri Nov 13 15:10:59 +0000 2015
p132
sVin_reply_to_status_id_str
p133
NsVplace
p134
Nssg126
Nsg127
Nsg128
I00
sg129
Ven
p135
sg131
VFri Nov 13 15:17:16 +0000 2015
p136
sg133
Nsg134
NssVis_translation_enabled
p137
I00
sVutc_offset
p138
NsVstatuses_count
p139
I399
sg23
VUS Patent Attorney, former Head of IP/Legal for Pharma Companies, Molecular Biologist, Biotech Investor. All opinions expressed here are my own.
p140
sVfriends_count
p141
I293
sVlocation
p142
VSomewhere in Europe
p143
sVprofile_link_color
p144
V0084B4
p145
sVprofile_image_url
p146
Vhttp://pbs.twimg.com/profile_images/378800000396824516/ef6bc254b68cacdb0c59ac277dbe031e_normal.jpeg
p147
sVfollowing
p148
NsVgeo_enabled
p149
I01
sVprofile_background_image_url
p150
Vhttp://abs.twimg.com/images/themes/theme1/bg.png
p151
sg82
Vjamesdeyonker
p152
sg129
Ven
p153
sVprofile_background_tile
p154
I00
sVfavourites_count
p155
I190
sg84
VJames DeYonker
p156
sVnotifications
p157
Nsg90
Nsg131
VSun Sep 01 17:18:53 +0000 2013
p158
sVcontributors_enabled
p159
I00
sVtime_zone
p160
NsVprotected
p161
I00
sVdefault_profile
p162
I01
sVis_translator
p163
I00
ssS'contributors_enabled'
p164
I00
sS'profile_text_color'
p165
g40
sS'followers_count'
p166
I127
sS'profile_sidebar_border_color'
p167
g46
sS'id_str'
p168
g48
sS'default_profile_image'
p169
I00
sS'listed_count'
p170
I5
sS'status'
p171
g8
(ctweepy.models
Status
p172
g10
Ntp173
Rp174
(dp175
S'favorited'
p176
I00
sS'contributors'
p177
NsS'truncated'
p178
I00
sS'text'
p179
VRT @DrSManian: Biotech Stock Mailbag: $AZN buying $ZSPH $2.7B\u000a$RLYP MV&lt; $800M with a hyperkalemia drug just as good if not better https://t\u2026
p180
sS'source_url'
p181
Vhttp://twitter.com
p182
sS'possibly_sensitive'
p183
I00
sS'in_reply_to_status_id'
p184
NsS'geo'
p185
Nsg19
L665186673978949633L
sS'favorite_count'
p186
I0
sS'lang'
p187
g135
sS'retweeted_status'
p188
g8
(g172
g10
Ntp189
Rp190
(dp191
g176
I00
sg177
Nsg178
I00
sg179
VBiotech Stock Mailbag: $AZN buying $ZSPH $2.7B\u000a$RLYP MV&lt; $800M with a hyperkalemia drug just as good if not better https://t.co/dWID4e46F9
p192
sg181
Vhttp://twitter.com/download/iphone
p193
sg183
I00
sg184
Nsg185
Nsg19
L665185095347781633L
sg186
I6
sg187
g130
sg21
g106
sS'created_at'
p194
cdatetime
datetime
p195
(S'\x07\xdf\x0b\r\x0f\n;\x00\x00\x00'
p196
tp197
Rp198
sg29
g103
sS'coordinates'
p199
NsS'in_reply_to_user_id_str'
p200
NsS'source'
p201
VTwitter for iPhone
p202
sS'in_reply_to_status_id_str'
p203
NsS'in_reply_to_screen_name'
p204
Nsg168
g125
sS'retweeted'
p205
I00
sS'place'
p206
NsS'retweet_count'
p207
I7
sS'in_reply_to_user_id'
p208
Nsbsg21
g64
sg194
g195
(S'\x07\xdf\x0b\r\x0f\x11\x10\x00\x00\x00'
p209
tp210
Rp211
sg29
g53
sg199
Nsg200
Nsg201
VTwitter Web Client
p212
sg203
Nsg204
Nsg168
g98
sg205
I00
sg206
Nsg207
I7
sg208
NsbsS'is_translation_enabled'
p213
I00
sS'utc_offset'
p214
NsS'statuses_count'
p215
I399
sS'description'
p216
g140
sS'friends_count'
p217
I293
sS'location'
p218
g143
sS'profile_link_color'
p219
g145
sS'profile_image_url'
p220
g147
sS'notifications'
p221
NsS'geo_enabled'
p222
I01
sS'profile_background_color'
p223
g50
sS'profile_background_image_url'
p224
g151
sS'screen_name'
p225
g152
sg187
g153
sg1
I00
sS'profile_background_tile'
p226
I00
sS'favourites_count'
p227
I190
sS'name'
p228
g156
sS'url'
p229
Nsg194
g195
(S'\x07\xdd\t\x01\x11\x125\x00\x00\x00'
p230
tp231
Rp232
sS'profile_background_image_url_https'
p233
g37
sS'time_zone'
p234
NsS'protected'
p235
I00
sS'default_profile'
p236
I01
sS'is_translator'
p237
I00
sbs.