(dp0
S'following'
p1
(lp2
(lp3
I1652541
aI1682845890
aI386131152
aI130627991
aI257293000
aI16565738
aI40128048
aI289398939
aI33174947
aI222518187
aI233566151
aI160425618
aI14478614
aI24685203
aI275849139
aI27611883
aI15018476
aI101560678
aI24802509
aI92824738
aI195282070
aI291945263
aI45385914
aI42811653
aI150745137
aI51285201
aI208143006
aI25936467
aI109207780
aI19647313
aI225207334
aI280086349
aI207687716
aI258279572
aI43070676
aI6712942
aI33206959
aI210812093
aI32493883
aI251744064
aI242556822
aI17893345
aI113389940
aI16094685
aI278388597
aI180085646
aI20000024
aI26092570
aI15390311
aI54455390
aI90797591
aI31067157
aI29748372
aI50537735
aI221650229
aI27019237
aI169489285
aI242912563
aI116897088
aI22789906
aI65914286
aI91530388
aI276227572
aI129925775
aI125470916
aI21904217
aI29840295
aI14230524
aI19248106
aI16190898
aI26565946
aI18222378
aI79293791
aI23375688
aI19397785
aI44409004
aI17919972
aI15846407
aI19058681
aI21447363
aI25365536
aI16409683
aI27260086
aI239568088
aI15220752
aI45142832
aI242909945
aI242910873
aI213002904
aI16827333
aI28861327
aI118284405
aI29380716
aI123340781
aI46338662
aI15811717
aI167124626
aI285819816
aI87374085
aI28293725
aI17341796
aI66598114
aI243125637
aI85331713
aI32707423
aI38695717
aI19641996
aI18150258
aI84167314
aI23723232
aI23355730
aI19174806
aI1330201
aI15412559
aI14384696
aI24262103
aI183877949
aI31001654
aI195019820
aI80227843
aI36346003
aI43971153
aI160623610
aI20865044
aI21234040
aI50374439
aI14494997
aI19196415
aI67614120
aI20611194
aI34507480
aI47586577
aI125862975
aI66138954
aI28428838
aI151861460
aI141228627
aI68455250
aI62566252
aI210914028
aI62576224
aI15520340
aI128177017
aI67603734
aI162572920
aI32701652
aI116575420
aI134089685
aI118300343
aI142982465
aI171087457
aasS'followers'
p4
(lp5
(lp6
L3432541535L
aI704439205
aI1960680768
aL4234521392L
aL3414592213L
aI1924312855
aI1583359764
aL2860845668L
aL3027977603L
aI259475114
aL2569521432L
aI557562057
aI1870044852
aL3355707449L
aL2886748566L
aL2922512422L
aI749682607
aI1336266481
aI314028114
aI1870111806
aI1870237458
aI1870187911
aI1870184845
aI1870171777
aI310285291
aL3933666736L
aI316075831
aI316130199
aI316618578
aI316291332
aI119436568
aI466953623
aL3309027113L
aL3345603303L
aL3327511717L
aL2916105403L
aI356162553
aL3311593267L
aL3309293960L
aI311147247
aL3278044910L
aI316384461
aI616033457
aI208143006
aL2224859588L
aI259171457
aI286773890
aI1682845890
aI282676246
aI221650229
aI230965741
aI376575126
aI129925775
aI162572920
aI199355915
aI32701652
aI136961420
aI90616389
aI91530388
aI242909945
aI242912563
aI219582437
aI305115249
aI223363798
aI223360937
aI223358760
aI223357010
aI223347399
aI223340095
aI201196107
aI177539184
aI201193702
aI179426248
aI207292834
aI208383316
aI208036710
aI208034355
aI208023904
aI207507115
aI207498981
aI207493749
aI185137956
aI185126156
aI184697738
aI184695849
aI184404582
aI184401496
aI184397804
aI223436408
aI175999544
aI175998612
aI175986432
aI175980133
aI175977259
aI201578121
aI201576950
aI201574597
aI201573620
aI197686585
aI201572221
aI201231881
aI201230039
aI201221886
aI201219564
aI192004970
aI191985550
aI207454377
aI207442460
aI185115850
aI197321720
aI177489289
aI197319418
aI177482483
aI299394900
aI194168411
aI288432584
aI90255782
aI276885883
aI302145529
aI65914286
aI298578231
aI210812093
aI15390311
aI277889090
aI188562949
aI177120181
aI238619937
aI92935758
aI295999383
aI48781399
aI150745137
aI301834611
aI266023753
aI18046180
aI82954402
aI279793102
aI277949056
aI109207780
aI116897088
aI98982017
aI195673088
aI187823727
aI18690475
aI107016686
aI15325048
aI221477598
aI250557511
aI108866647
aI63556608
aI296277138
aI152597993
aI247291662
aI288674951
aI290706367
aI187822588
aI211903138
aI300736240
aI300809625
aI179461595
aI179451498
aI179450042
aI50427458
aI179445433
aI179442907
aI177507649
aI179441252
aI177488035
aI290500860
aI276643108
aI179432119
aI179423910
aI157406518
aI178249004
aI177827751
aI219875315
aI171808139
aI177529033
aI219872213
aI268140660
aI219870820
aI220897679
aI219868495
aI219866785
aI223003224
aI265864184
aI237577435
aI192013328
aI208033176
aI286099150
aI208064918
aI294262674
aI279185673
aI227611862
aI302809783
aI268051403
aI293895491
aI151058945
aI299618763
aI256613177
aI290708088
aI284723811
aI270772792
aI238211345
aI299449735
aI301377745
aI284959812
aI301534338
aI295122595
aI299617465
aI272377792
aI219030499
aI300451139
aI290459192
aI295108073
aI99136022
aI46639208
aI15122461
aI299615681
aI40660548
aI256143641
aI107505444
aI262525743
aI15415642
aI17453910
aI126161449
aI186495659
aI234853417
aI40794900
aI276095792
aI194299895
aI205556481
aI236951215
aI47586577
aI241977419
aI291864753
aI92824738
aI282434018
aI221340152
aI293200727
aI302100316
aI43387161
aI210914028
aI203732441
aI232559928
aI62576224
aI213388531
aI227179349
aI158863153
aI226244040
aI225706220
aI223783593
aI223374616
aI19716463
aI161421761
aI225088086
aI225002267
aI215719798
aI221096273
aI225097303
aI185638166
aI225093036
aI201801688
aI223090560
aI151861460
aI141228627
aI62566252
aI128177017
aI28428838
aI15520340
aI224406192
aI225433368
aI129027912
aI224540589
aI159001757
aI225441163
aI219159189
aI225439209
aI99782750
aI109021872
aI68455250
aI223897186
aI225045840
aI158967034
aI223059009
aI97002247
aI225197797
aI223425829
aI185622721
aI127328516
aI123478543
aI219964998
aI203554502
aI221676768
aI171087457
aasS'obj'
p7
ccopy_reg
_reconstructor
p8
(ctweepy.models
User
p9
c__builtin__
object
p10
Ntp11
Rp12
(dp13
S'follow_request_sent'
p14
I00
sS'has_extended_profile'
p15
I00
sS'profile_use_background_image'
p16
I01
sS'profile_sidebar_fill_color'
p17
V95E8EC
p18
sS'id'
p19
I177602153
sS'verified'
p20
I00
sS'entities'
p21
(dp22
Vdescription
p23
(dp24
Vurls
p25
(lp26
sssS'profile_image_url_https'
p27
Vhttps://pbs.twimg.com/profile_images/1101377488/G_Tree_Logo_normal.jpg
p28
sS'_json'
p29
(dp30
Vfollow_request_sent
p31
I00
sVhas_extended_profile
p32
I00
sVprofile_use_background_image
p33
I01
sVdefault_profile_image
p34
I00
sVid
p35
I177602153
sVprofile_background_image_url_https
p36
Vhttps://abs.twimg.com/images/themes/theme4/bg.gif
p37
sVverified
p38
I00
sVprofile_text_color
p39
V3C3940
p40
sVprofile_image_url_https
p41
g28
sVprofile_sidebar_fill_color
p42
g18
sVentities
p43
g22
sVfollowers_count
p44
I294
sVprofile_sidebar_border_color
p45
V5ED4DC
p46
sVid_str
p47
V177602153
p48
sVprofile_background_color
p49
V0099B9
p50
sVlisted_count
p51
I13
sVstatus
p52
(dp53
Vcontributors
p54
NsVtruncated
p55
I00
sVtext
p56
VRT @ stockguy22 "Icahn exits eBay stake, opts for PayPal after spinoff https://t.co/9mjj4BPJHb --&gt;  $EBAY $PYPL $AIG"
p57
sVin_reply_to_status_id
p58
Nsg35
L666469613262237696L
sVfavorite_count
p59
I0
sVsource
p60
V<a href="http://ifttt.com" rel="nofollow">IFTTT</a>
p61
sVretweeted
p62
I00
sVcoordinates
p63
Nsg43
(dp64
Vsymbols
p65
(lp66
(dp67
Vindices
p68
(lp69
I103
aI108
asg56
VEBAY
p70
sa(dp71
g68
(lp72
I109
aI114
asg56
VPYPL
p73
sa(dp74
g68
(lp75
I115
aI119
asg56
VAIG
p76
sasVuser_mentions
p77
(lp78
sVhashtags
p79
(lp80
sg25
(lp81
(dp82
Vurl
p83
Vhttps://t.co/9mjj4BPJHb
p84
sg68
(lp85
I71
aI94
asVexpanded_url
p86
Vhttp://reut.rs/1l0GKAQ
p87
sVdisplay_url
p88
Vreut.rs/1l0GKAQ
p89
sassVin_reply_to_screen_name
p90
Nsg47
V666469613262237696
p91
sVretweet_count
p92
I0
sVin_reply_to_user_id
p93
NsVfavorited
p94
I00
sVgeo
p95
NsVin_reply_to_user_id_str
p96
NsVpossibly_sensitive
p97
I00
sVlang
p98
Ven
p99
sVcreated_at
p100
VTue Nov 17 04:15:12 +0000 2015
p101
sVin_reply_to_status_id_str
p102
NsVplace
p103
NssVis_translation_enabled
p104
I00
sVutc_offset
p105
I-36000
sVstatuses_count
p106
I10423
sg23
Vgtreesolutions@gmail.com
p107
sVfriends_count
p108
I151
sVlocation
p109
VThanjavur
p110
sVprofile_link_color
p111
V0099B9
p112
sVprofile_image_url
p113
Vhttp://pbs.twimg.com/profile_images/1101377488/G_Tree_Logo_normal.jpg
p114
sVfollowing
p115
I00
sVgeo_enabled
p116
I00
sVprofile_background_image_url
p117
Vhttp://abs.twimg.com/images/themes/theme4/bg.gif
p118
sVscreen_name
p119
Vgtreesolutions
p120
sg98
Ven
p121
sVprofile_background_tile
p122
I00
sVfavourites_count
p123
I0
sVname
p124
VR.Hariramakrishnan
p125
sVnotifications
p126
I00
sg83
Nsg100
VThu Aug 12 15:41:34 +0000 2010
p127
sVcontributors_enabled
p128
I00
sVtime_zone
p129
VHawaii
p130
sVprotected
p131
I00
sVdefault_profile
p132
I00
sVis_translator
p133
I00
ssS'contributors_enabled'
p134
I00
sS'profile_text_color'
p135
g40
sS'followers_count'
p136
I294
sS'profile_sidebar_border_color'
p137
g46
sS'id_str'
p138
g48
sS'default_profile_image'
p139
I00
sS'listed_count'
p140
I13
sS'status'
p141
g8
(ctweepy.models
Status
p142
g10
Ntp143
Rp144
(dp145
S'favorited'
p146
I00
sS'contributors'
p147
NsS'truncated'
p148
I00
sS'text'
p149
g57
sS'source_url'
p150
Vhttp://ifttt.com
p151
sS'possibly_sensitive'
p152
I00
sS'in_reply_to_status_id'
p153
NsS'geo'
p154
Nsg19
L666469613262237696L
sS'favorite_count'
p155
I0
sS'lang'
p156
g99
sg21
g64
sS'created_at'
p157
cdatetime
datetime
p158
(S'\x07\xdf\x0b\x11\x04\x0f\x0c\x00\x00\x00'
p159
tp160
Rp161
sg29
g53
sS'coordinates'
p162
NsS'in_reply_to_user_id_str'
p163
NsS'source'
p164
VIFTTT
p165
sS'in_reply_to_status_id_str'
p166
NsS'in_reply_to_screen_name'
p167
Nsg138
g91
sS'retweeted'
p168
I00
sS'place'
p169
NsS'retweet_count'
p170
I0
sS'in_reply_to_user_id'
p171
NsbsS'is_translation_enabled'
p172
I00
sS'utc_offset'
p173
I-36000
sS'statuses_count'
p174
I10423
sS'description'
p175
g107
sS'friends_count'
p176
I151
sS'location'
p177
g110
sS'profile_link_color'
p178
g112
sS'profile_image_url'
p179
g114
sS'notifications'
p180
I00
sS'geo_enabled'
p181
I00
sS'profile_background_color'
p182
g50
sS'profile_background_image_url'
p183
g118
sS'screen_name'
p184
g120
sg156
g121
sg1
I00
sS'profile_background_tile'
p185
I00
sS'favourites_count'
p186
I0
sS'name'
p187
g125
sS'url'
p188
Nsg157
g158
(S'\x07\xda\x08\x0c\x0f)"\x00\x00\x00'
p189
tp190
Rp191
sS'profile_background_image_url_https'
p192
g37
sS'time_zone'
p193
g130
sS'protected'
p194
I00
sS'default_profile'
p195
I00
sS'is_translator'
p196
I00
sbs.