(dp0
S'following'
p1
(lp2
(lp3
I786188024
aI788333744
aI1413027896
aI14886375
aL2704486915L
aL3278937357L
aI173954819
aI20342218
aL2249432185L
aI202524942
aI47678782
aL3213724070L
aL3094874199L
aI600726968
aL3274684562L
aI507977194
aL2172423304L
aL3279083937L
aI39371002
aI884935388
aL2729649089L
aL2341525668L
aI14292717
aI237591901
aI193838214
aI31546412
aI62562916
aI15971805
aL2409330439L
aI96682182
aL2272207286L
aI1663600692
aL2874538467L
aL2414834689L
aI56121651
aI552154783
aI19651092
aI112872946
aI1217108497
aL2301715645L
aI1917955062
aI51776106
aL2242914704L
aI142839300
aI229966745
aI1964215938
aI380500399
aL2278259810L
aI1108126932
aI19418909
aL3036882419L
aI389157954
aL2463371525L
aI34767359
aI317562281
aL2445459474L
aI433664446
aI1072643928
aL3219691214L
aL3035804476L
aI463245558
aI61342056
aI523632806
aI246481013
aI34837057
aI373102216
aI30820266
aL2214833341L
aI1672464121
aI129935623
aI1711713978
aI14117843
aI47993676
aL2236152487L
aI34582316
aL2641781176L
aL2815459592L
aI223589965
aI55561590
aI394642779
aI416311594
aI102819479
aI47247213
aI81157050
aI19717430
aL3012980234L
aL2806783879L
aI140149665
aI102527566
aL2911715728L
aI1095928674
aL2801197604L
aI58792459
aI374039792
aL2522665776L
aL2414230128L
aI37469211
aI1700583565
aI114030159
aI41821072
aI210294057
aI805230144
aI46451415
aI571034858
aI57680343
aI40983933
aI18433619
aI166597717
aI778071602
aL2473296440L
aL2439520662L
aI117103149
aI121158213
aL2269666182L
aI27886437
aL2413457743L
aI265062844
aI417281365
aL2379534210L
aI389319582
aI11247222
aI23390520
aI168269385
aI28954908
aL2392583808L
aL2366303634L
aL2333921930L
aI18189134
aL2391775315L
aI1928213371
aI285321572
aI13131362
aL2395267038L
aL2355785412L
aL2326375554L
aI947043115
aL2259383122L
aI18143410
aI18371803
aI318675551
aI382192609
aI1121536958
aI7542702
aI74649700
aI180503626
aI15964377
aI112883806
aI469907186
aI40935656
aI114953856
aI115286354
aI19037362
aI42712551
aI18489900
aI273520841
aI14983499
aI77888423
aI238459901
aI32228471
aI80181950
aI201923580
aI17542901
aI257546952
aI242874388
aI213148135
aI352650085
aI226660396
aI34539514
aI34900302
aI240114135
aI292427253
aI28061932
aI66119889
aI78652602
aI152825054
aI64827034
aI333026840
aI28480276
aI30825474
aI29588650
aI81172502
aI24579060
aI98520051
aI43846517
aI158126576
aI25267437
aI26070483
aI166718532
aI221244167
aI328969308
aI259379883
aI22788527
aI44295213
aI299483358
aI84353161
aI18785654
aI20441485
aI43139414
aI22365249
aI43469093
aasS'followers'
p4
(lp5
(lp6
L4108364716L
aL3279025397L
aL3311253463L
aL3971308694L
aL3904881314L
aL3436983305L
aI1393603976
aL4132750115L
aI90970076
aI14886375
aL2161913370L
aL3583114214L
aL4109140881L
aI31545174
aI1934255911
aL3438541138L
aI499537591
aL3437759770L
aI1530916794
aL3436408732L
aL4043566468L
aL3278937357L
aL3395170581L
aL3213616386L
aI24897626
aL3018809793L
aI741111715
aI405141209
aL3315903219L
aL3213629798L
aL3279124031L
aL3890953601L
aI127967449
aL2949299915L
aL3279028835L
aL3279105113L
aL3278881485L
aL3279144982L
aL3214456469L
aL3243069375L
aI35784526
aL3213692023L
aL3214345499L
aL2412032018L
aL3187147868L
aL3438491399L
aL3214288073L
aL3436379579L
aL3437707911L
aI266331784
aL3196276947L
aL3077729323L
aL3213631050L
aL3213724070L
aL3279083937L
aL2172423304L
aI36894359
aI1845191160
aI235362301
aI971129101
aI1917955062
aL3103439218L
aI51776106
aI422982642
aI282215638
aL3228942146L
aL2930422354L
aI205944076
aL3243228366L
aI507977194
aL2236152487L
aL2463371525L
aL3073630905L
aI1233362096
aL2445459474L
aL2922234899L
aL3035804476L
aI1072643928
aL3219691214L
aL2913156844L
aL2753471751L
aI310602062
aI15897179
aI18433619
aL3063883707L
aL2341525668L
aI30820266
aL3155163167L
aL3165427600L
aI976797445
aL2360472259L
aL2360462270L
aI23390520
aI317562281
aL2335305336L
aI312471892
aI47993676
aL3155363572L
aI611817117
aL3164787885L
aL3155589387L
aL3153738421L
aL3154346286L
aL3155801084L
aL3155258759L
aL3224228998L
aL2326375554L
aL2366303634L
aI718799630
aL3156886910L
aL2713790683L
aL2310145046L
aI473463895
aI381543553
aL2914036978L
aL3019434960L
aI85934220
aI1607030694
aL2641781176L
aL2815459592L
aL2884649079L
aL2842637282L
aL2548774968L
aI1700583565
aI805230144
aL2572365420L
aL2449217664L
aI121158213
aL2392583808L
aI13131362
aL2398370648L
aI1334213605
aI1121536958
aI337929082
aI561591669
aI412798081
aI442923346
aI469907186
aI449142059
aI213148135
aI389686707
aI226660396
aI34900302
aI240114135
aI328969308
aasS'obj'
p7
ccopy_reg
_reconstructor
p8
(ctweepy.models
User
p9
c__builtin__
object
p10
Ntp11
Rp12
(dp13
S'follow_request_sent'
p14
NsS'has_extended_profile'
p15
I00
sS'profile_use_background_image'
p16
I00
sS'profile_sidebar_fill_color'
p17
V000000
p18
sS'id'
p19
I177915812
sS'verified'
p20
I00
sS'entities'
p21
(dp22
Vdescription
p23
(dp24
Vurls
p25
(lp26
sssS'profile_image_url_https'
p27
Vhttps://pbs.twimg.com/profile_images/591698008586190849/KLz_sHIs_normal.jpg
p28
sS'_json'
p29
(dp30
Vfollow_request_sent
p31
NsVhas_extended_profile
p32
I00
sVprofile_use_background_image
p33
I00
sVdefault_profile_image
p34
I00
sVid
p35
I177915812
sVprofile_background_image_url_https
p36
Vhttps://abs.twimg.com/images/themes/theme1/bg.png
p37
sVverified
p38
I00
sVprofile_text_color
p39
V000000
p40
sVprofile_image_url_https
p41
g28
sVprofile_sidebar_fill_color
p42
g18
sVentities
p43
g22
sVfollowers_count
p44
I145
sVprofile_sidebar_border_color
p45
V000000
p46
sVid_str
p47
V177915812
p48
sVprofile_background_color
p49
V000000
p50
sVlisted_count
p51
I9
sVstatus
p52
(dp53
Vcontributors
p54
NsVtruncated
p55
I00
sVtext
p56
VRT @PsychoOnWallSt: $KBIO follows $DNDN down the "fuck it. we're out." path https://t.co/lrz8LxGL1u
p57
sVin_reply_to_status_id
p58
Nsg35
L665286571743158272L
sVfavorite_count
p59
I0
sVsource
p60
V<a href="http://twitter.com/#!/download/ipad" rel="nofollow">Twitter for iPad</a>
p61
sVretweeted
p62
I00
sVcoordinates
p63
Nsg43
(dp64
Vsymbols
p65
(lp66
(dp67
Vindices
p68
(lp69
I20
aI25
asg56
VKBIO
p70
sa(dp71
g68
(lp72
I34
aI39
asg56
VDNDN
p73
sasVuser_mentions
p74
(lp75
(dp76
g35
I1928213371
sg68
(lp77
I3
aI18
asg47
V1928213371
p78
sVscreen_name
p79
VPsychoOnWallSt
p80
sVname
p81
VPsychoOnWallst
p82
sasVhashtags
p83
(lp84
sg25
(lp85
sVmedia
p86
(lp87
(dp88
Vsource_user_id
p89
I1928213371
sVsource_status_id_str
p90
V665283893906436098
p91
sVexpanded_url
p92
Vhttp://twitter.com/PsychoOnWallSt/status/665283893906436098/photo/1
p93
sVdisplay_url
p94
Vpic.twitter.com/lrz8LxGL1u
p95
sVurl
p96
Vhttps://t.co/lrz8LxGL1u
p97
sVmedia_url_https
p98
Vhttps://pbs.twimg.com/media/CTuQLSTVEAAkEt4.png
p99
sVsource_user_id_str
p100
V1928213371
p101
sVsource_status_id
p102
L665283893906436098L
sg47
V665283893533151232
p103
sVsizes
p104
(dp105
Vsmall
p106
(dp107
Vh
p108
I166
sVresize
p109
Vfit
p110
sVw
p111
I340
ssVlarge
p112
(dp113
g108
I359
sg109
Vfit
p114
sg111
I734
ssVmedium
p115
(dp116
g108
I293
sg109
Vfit
p117
sg111
I600
ssVthumb
p118
(dp119
g108
I150
sg109
Vcrop
p120
sg111
I150
sssg68
(lp121
I76
aI99
asVtype
p122
Vphoto
p123
sg35
L665283893533151232L
sVmedia_url
p124
Vhttp://pbs.twimg.com/media/CTuQLSTVEAAkEt4.png
p125
sassVin_reply_to_screen_name
p126
Nsg47
V665286571743158272
p127
sVretweet_count
p128
I1
sVin_reply_to_user_id
p129
NsVfavorited
p130
I00
sVretweeted_status
p131
(dp132
g54
Nsg55
I00
sg56
V$KBIO follows $DNDN down the "fuck it. we're out." path https://t.co/lrz8LxGL1u
p133
sg58
Nsg35
L665283893906436098L
sg59
I6
sg60
V<a href="http://twitter.com" rel="nofollow">Twitter Web Client</a>
p134
sg62
I00
sg63
Nsg43
(dp135
g65
(lp136
(dp137
g68
(lp138
I0
aI5
asg56
VKBIO
p139
sa(dp140
g68
(lp141
I14
aI19
asg56
VDNDN
p142
sasg74
(lp143
sg83
(lp144
sg25
(lp145
sg86
(lp146
(dp147
g92
Vhttp://twitter.com/PsychoOnWallSt/status/665283893906436098/photo/1
p148
sg94
Vpic.twitter.com/lrz8LxGL1u
p149
sg96
Vhttps://t.co/lrz8LxGL1u
p150
sg98
Vhttps://pbs.twimg.com/media/CTuQLSTVEAAkEt4.png
p151
sg47
V665283893533151232
p152
sg104
(dp153
g106
(dp154
g108
I166
sg109
Vfit
p155
sg111
I340
ssg112
(dp156
g108
I359
sg109
Vfit
p157
sg111
I734
ssg115
(dp158
g108
I293
sg109
Vfit
p159
sg111
I600
ssg118
(dp160
g108
I150
sg109
Vcrop
p161
sg111
I150
sssg68
(lp162
I56
aI79
asg122
Vphoto
p163
sg35
L665283893533151232L
sg124
Vhttp://pbs.twimg.com/media/CTuQLSTVEAAkEt4.png
p164
sassg126
Nsg47
V665283893906436098
p165
sg128
I1
sg129
Nsg130
I00
sVgeo
p166
NsVin_reply_to_user_id_str
p167
NsVpossibly_sensitive
p168
I00
sVlang
p169
Ven
p170
sVcreated_at
p171
VFri Nov 13 21:43:35 +0000 2015
p172
sVin_reply_to_status_id_str
p173
NsVplace
p174
(dp175
Vcountry_code
p176
VUS
p177
sg96
Vhttps://api.twitter.com/1.1/geo/id/300bcc6e23a88361.json
p178
sVcountry
p179
VUnited States
p180
sVplace_type
p181
Vcity
p182
sVbounding_box
p183
(dp184
g122
VPolygon
p185
sg63
(lp186
(lp187
(lp188
F-122.436232
aF47.4953154
aa(lp189
F-122.2249728
aF47.4953154
aa(lp190
F-122.2249728
aF47.734561
aa(lp191
F-122.436232
aF47.734561
aaassVcontained_within
p192
(lp193
sVfull_name
p194
VSeattle, WA
p195
sVattributes
p196
(dp197
sg35
V300bcc6e23a88361
p198
sg81
VSeattle
p199
sssg166
Nsg167
Nsg168
I00
sg169
Ven
p200
sg171
VFri Nov 13 21:54:13 +0000 2015
p201
sg173
Nsg174
NssVis_translation_enabled
p202
I00
sVutc_offset
p203
NsVstatuses_count
p204
I1629
sg23
V36 Male Orlando
p205
sVfriends_count
p206
I200
sVlocation
p207
VOrlando,Fl
p208
sVprofile_link_color
p209
VABB8C2
p210
sVprofile_image_url
p211
Vhttp://pbs.twimg.com/profile_images/591698008586190849/KLz_sHIs_normal.jpg
p212
sVfollowing
p213
NsVgeo_enabled
p214
I01
sVprofile_banner_url
p215
Vhttps://pbs.twimg.com/profile_banners/177915812/1438314890
p216
sVprofile_background_image_url
p217
Vhttp://abs.twimg.com/images/themes/theme1/bg.png
p218
sg79
Vquinn501
p219
sg169
Ven
p220
sVprofile_background_tile
p221
I00
sVfavourites_count
p222
I3004
sg81
VDr. Quinn
p223
sVnotifications
p224
Nsg96
Nsg171
VFri Aug 13 11:37:13 +0000 2010
p225
sVcontributors_enabled
p226
I00
sVtime_zone
p227
NsVprotected
p228
I00
sVdefault_profile
p229
I00
sVis_translator
p230
I00
ssS'contributors_enabled'
p231
I00
sS'profile_text_color'
p232
g40
sS'followers_count'
p233
I145
sS'profile_sidebar_border_color'
p234
g46
sS'id_str'
p235
g48
sS'default_profile_image'
p236
I00
sS'listed_count'
p237
I9
sS'status'
p238
g8
(ctweepy.models
Status
p239
g10
Ntp240
Rp241
(dp242
S'favorited'
p243
I00
sS'contributors'
p244
NsS'truncated'
p245
I00
sS'text'
p246
g57
sS'source_url'
p247
Vhttp://twitter.com/#!/download/ipad
p248
sS'possibly_sensitive'
p249
I00
sS'in_reply_to_status_id'
p250
NsS'geo'
p251
Nsg19
L665286571743158272L
sS'favorite_count'
p252
I0
sS'lang'
p253
g200
sS'retweeted_status'
p254
g8
(g239
g10
Ntp255
Rp256
(dp257
g243
I00
sg244
Nsg245
I00
sg246
g133
sg247
Vhttp://twitter.com
p258
sg249
I00
sg250
Nsg251
Nsg19
L665283893906436098L
sg252
I6
sg253
g170
sg21
g135
sS'created_at'
p259
cdatetime
datetime
p260
(S'\x07\xdf\x0b\r\x15+#\x00\x00\x00'
p261
tp262
Rp263
sg29
g132
sS'coordinates'
p264
NsS'in_reply_to_user_id_str'
p265
NsS'source'
p266
VTwitter Web Client
p267
sS'in_reply_to_status_id_str'
p268
NsS'in_reply_to_screen_name'
p269
Nsg235
g165
sS'retweeted'
p270
I00
sS'place'
p271
g8
(ctweepy.models
Place
p272
g10
Ntp273
Rp274
(dp275
S'country_code'
p276
g177
sS'url'
p277
g178
sS'country'
p278
g180
sS'place_type'
p279
g182
sS'bounding_box'
p280
g8
(ctweepy.models
BoundingBox
p281
g10
Ntp282
Rp283
(dp284
S'type'
p285
g185
sg264
g186
sbsS'contained_within'
p286
g8
(ctweepy.models
ResultSet
p287
c__builtin__
list
p288
(lp289
tp290
Rp291
(dp292
S'_since_id'
p293
NsS'_max_id'
p294
NsbsS'full_name'
p295
g195
sS'attributes'
p296
g197
sg19
g198
sS'name'
p297
g199
sbsS'retweet_count'
p298
I1
sS'in_reply_to_user_id'
p299
Nsbsg21
g64
sg259
g260
(S'\x07\xdf\x0b\r\x156\r\x00\x00\x00'
p300
tp301
Rp302
sg29
g53
sg264
Nsg265
Nsg266
VTwitter for iPad
p303
sg268
Nsg269
Nsg235
g127
sg270
I00
sg271
Nsg298
I1
sg299
NsbsS'is_translation_enabled'
p304
I00
sS'utc_offset'
p305
NsS'statuses_count'
p306
I1629
sS'description'
p307
g205
sS'friends_count'
p308
I200
sS'location'
p309
g208
sS'profile_link_color'
p310
g210
sS'profile_image_url'
p311
g212
sS'notifications'
p312
NsS'geo_enabled'
p313
I01
sS'profile_background_color'
p314
g50
sS'profile_banner_url'
p315
g216
sS'profile_background_image_url'
p316
g218
sS'screen_name'
p317
g219
sg253
g220
sg1
I00
sS'profile_background_tile'
p318
I00
sS'favourites_count'
p319
I3004
sg297
g223
sg277
Nsg259
g260
(S'\x07\xda\x08\r\x0b%\r\x00\x00\x00'
p320
tp321
Rp322
sS'profile_background_image_url_https'
p323
g37
sS'time_zone'
p324
NsS'protected'
p325
I00
sS'default_profile'
p326
I00
sS'is_translator'
p327
I00
sbs.