(dp0
S'following'
p1
(lp2
(lp3
I1677283748
aI158374641
aL3778667061L
aI26270913
aI427877977
aI103883488
aI735536305
aI19019298
aI30474174
aI1542533869
aI30047168
aI87118217
aI144788090
aL2613879180L
aI42562446
aI106735655
aL3426014292L
aI1682397852
aI14526582
aI47887874
aI18294275
aI18294197
aI405681948
aI52166809
aL2334614718L
aL3035804476L
aI213788861
aL2485844124L
aL3763719556L
aL2231913055L
aI600378539
aI14886375
aI26538229
aI455824771
aI69329527
aI259471396
aI188884701
aI15246621
aL3465719173L
aI26574283
aI1928213371
aI19546277
aI16999433
aI21674530
aI18856867
aI32778531
aI1941253760
aI348772885
aI785935140
aI114602310
aI545618159
aI227312102
aL2744869459L
aI430841130
aI47247213
aI104952689
aI72928001
aI129845242
aI274233761
aI15281391
aI460678801
aL2235441500L
aI93913891
aI297848618
aI197869772
aL2303157007L
aI434681699
aL2567518027L
aI818081647
aI82162291
aI17124991
aI29422232
aI23785621
aI16732770
aI1450167168
aL2274875012L
aI455366870
aI632341632
aI1884013189
aI1308512629
aI14031032
aL2272207286L
aI701464597
aI888903264
aI15568127
aI26775476
aI5402612
aI33980532
aI581221150
aI911318336
aI475524030
aI396294440
aI16451932
aI209907837
aI21232827
aI1470261637
aL2520719083L
aI18944615
aI255996385
aI65681636
aI35643668
aI3108351
aI5988062
aI377026626
aI624413
aI1344951
aI16334857
aI1927015632
aI572064418
aI296924721
aI1177065859
aI444909298
aI1652541
aI807095
aI314061974
aI757372303
aI14173315
aI428333
aI1706183262
aI56413858
aI15012486
aI742143
aI227682918
aI51241574
aI163283674
aI14216123
aL2690637547L
aI91478624
aI61342056
aI64643056
aL2553591458L
aI501848788
aI96662921
aI15296897
aI20562637
aI21958792
aI390019354
aI16184358
aI87567131
aL2275337142L
aI1152105936
aL2161847108L
aI739708848
aI79713025
aI122212020
aI416749415
aI15896903
aI72907355
aI1370906497
aL2494896473L
aI6017542
aI34713362
aI433664446
aI246668408
aL2204103433L
aI42962298
aI1187422273
aI19988458
aI229966745
aI223589965
aI1007564641
aI55561590
aI1154776783
aI189336590
aI20800915
aI1041050238
aI20402945
aI380500399
aI602321455
aI131849629
aI714051110
aI585934344
aI102527566
aI1172544517
aI1330457336
aI498166332
aI377714371
aI405820375
aI19697415
aI43403778
aI50393960
aI831824190
aI169489285
aI339039253
aI106718232
aI141612498
aI69875528
aI176172613
aI529745410
aI168186079
aI1228537610
aI1720338654
aI1190977808
aL2158754264L
aI14442905
aI1217108497
aI1023436759
aI1461820334
aI820031509
aI26705006
aI482362854
aI102094857
aI316015964
aI112872946
aI84402174
aI1267775677
aI53215424
aI790062926
aI253167239
aI118399469
aasS'followers'
p4
(lp5
(lp6
L3238092944L
aL3055893392L
aI1432127796
aL3904846100L
aI27189557
aL2792828298L
aL2860845668L
aI1583359764
aL3429947717L
aI334653385
aI989695484
aI1934289931
aI235211407
aL2752017954L
aL3218657438L
aL2850097217L
aL3279068392L
aI1839427464
aI14031032
aL3279105113L
aL3241451644L
aL2269443556L
aI1682397852
aL3278922089L
aL3307782283L
aL2553218186L
aL3437220159L
aL2286097290L
aI1920881443
aL2817468704L
aL3035804476L
aL2269896053L
aL2546978790L
aL3236783261L
aL2837882056L
aI1349607438
aI198314965
aI995324587
aL3438198603L
aL3214345499L
aL3218515116L
aL3213629798L
aL3214456469L
aI144788090
aL3213597091L
aL2773032194L
aI1478823308
aI100767876
aL3306248044L
aL2410006842L
aI250317700
aI531525580
aI1706183262
aL3436258691L
aI1393603976
aL3438573268L
aI58457983
aL2907149655L
aL2773951369L
aL2754857585L
aL3213585090L
aL3214288073L
aL2680140903L
aI97728804
aL3213655135L
aI1355494926
aI1023436759
aI354373374
aL2218703514L
aL3233844061L
aI1413634874
aL2517112130L
aI1376953676
aL2996509518L
aL2950673829L
aI1877362922
aL2950655415L
aL3169249704L
aI283163487
aI259056263
aL2922234899L
aI26705006
aI1053166656
aL2917930186L
aL2880223297L
aI1926819872
aI373875321
aL2892571932L
aL2411761843L
aL2612105738L
aI20800915
aI515542041
aI1955493762
aI595680816
aI1920633618
aI502422645
aI455287603
aI810870114
aL2396689214L
aI14439853
aI15897179
aI805230144
aI163326617
aL2347627314L
aI71174108
aI1302149690
aI42962298
aI43950136
aI64888916
aI69875528
aI1190977808
aL2158754264L
aI211316225
aI393064347
aI1898479602
aasS'obj'
p7
ccopy_reg
_reconstructor
p8
(ctweepy.models
User
p9
c__builtin__
object
p10
Ntp11
Rp12
(dp13
S'follow_request_sent'
p14
NsS'has_extended_profile'
p15
I00
sS'profile_use_background_image'
p16
I01
sS'profile_sidebar_fill_color'
p17
VDDEEF6
p18
sS'id'
p19
I1880113279
sS'verified'
p20
I00
sS'entities'
p21
(dp22
Vdescription
p23
(dp24
Vurls
p25
(lp26
sssS'profile_image_url_https'
p27
Vhttps://pbs.twimg.com/profile_images/642513784695754752/Hs2Ej1ov_normal.png
p28
sS'_json'
p29
(dp30
Vfollow_request_sent
p31
NsVhas_extended_profile
p32
I00
sVprofile_use_background_image
p33
I01
sVdefault_profile_image
p34
I00
sVid
p35
I1880113279
sVprofile_background_image_url_https
p36
Vhttps://abs.twimg.com/images/themes/theme1/bg.png
p37
sVverified
p38
I00
sVprofile_text_color
p39
V333333
p40
sVprofile_image_url_https
p41
g28
sVprofile_sidebar_fill_color
p42
g18
sVentities
p43
g22
sVfollowers_count
p44
I115
sVprofile_sidebar_border_color
p45
VC0DEED
p46
sVid_str
p47
V1880113279
p48
sVprofile_background_color
p49
VC0DEED
p50
sVlisted_count
p51
I5
sVstatus
p52
(dp53
Vcontributors
p54
NsVtruncated
p55
I00
sVtext
p56
VRT @BioStocks: $CLVS downgraded to Neutral from Conviction Buy at Goldman, PT $23 from $123
p57
sVin_reply_to_status_id
p58
Nsg35
L666599146149707776L
sVfavorite_count
p59
I0
sVsource
p60
V<a href="http://twitter.com/download/android" rel="nofollow">Twitter for Android</a>
p61
sVretweeted
p62
I00
sVcoordinates
p63
Nsg43
(dp64
Vsymbols
p65
(lp66
(dp67
Vindices
p68
(lp69
I15
aI20
asg56
VCLVS
p70
sasVuser_mentions
p71
(lp72
(dp73
g35
I112872946
sg68
(lp74
I3
aI13
asg47
V112872946
p75
sVscreen_name
p76
VBioStocks
p77
sVname
p78
VBio Stocks\u2122
p79
sasVhashtags
p80
(lp81
sg25
(lp82
ssVin_reply_to_screen_name
p83
Nsg47
V666599146149707776
p84
sVretweet_count
p85
I11
sVin_reply_to_user_id
p86
NsVfavorited
p87
I00
sVretweeted_status
p88
(dp89
Vlang
p90
Ven
p91
sg87
I00
sg43
(dp92
g65
(lp93
(dp94
g68
(lp95
I0
aI5
asg56
VCLVS
p96
sasg71
(lp97
sg80
(lp98
sg25
(lp99
ssg54
Nsg55
I00
sg56
V$CLVS downgraded to Neutral from Conviction Buy at Goldman, PT $23 from $123
p100
sVcreated_at
p101
VTue Nov 17 11:29:05 +0000 2015
p102
sg62
I00
sVin_reply_to_status_id_str
p103
Nsg63
NsVin_reply_to_user_id_str
p104
Nsg60
V<a href="http://twitter.com" rel="nofollow">Twitter Web Client</a>
p105
sg58
Nsg83
Nsg47
V666578803242741760
p106
sVplace
p107
Nsg85
I11
sVgeo
p108
Nsg35
L666578803242741760L
sg59
I3
sg86
Nssg108
Nsg104
Nsg90
Ven
p109
sg101
VTue Nov 17 12:49:55 +0000 2015
p110
sg103
Nsg107
NssVis_translation_enabled
p111
I00
sVutc_offset
p112
I-28800
sVstatuses_count
p113
I1422
sg23
VPassionate trader and love investing in biotech. \u000a\u000aEvery strike brings me closer to the next home run ~babe Ruth
p114
sVfriends_count
p115
I210
sVlocation
p116
VBay Area California
p117
sVprofile_link_color
p118
V0084B4
p119
sVprofile_image_url
p120
Vhttp://pbs.twimg.com/profile_images/642513784695754752/Hs2Ej1ov_normal.png
p121
sVfollowing
p122
NsVgeo_enabled
p123
I00
sVprofile_banner_url
p124
Vhttps://pbs.twimg.com/profile_banners/1880113279/1438027476
p125
sVprofile_background_image_url
p126
Vhttp://abs.twimg.com/images/themes/theme1/bg.png
p127
sg76
Vsammymoh
p128
sg90
Ven
p129
sVprofile_background_tile
p130
I00
sVfavourites_count
p131
I859
sg78
Vsammymo
p132
sVnotifications
p133
NsVurl
p134
Nsg101
VWed Sep 18 16:35:09 +0000 2013
p135
sVcontributors_enabled
p136
I00
sVtime_zone
p137
VPacific Time (US & Canada)
p138
sVprotected
p139
I00
sVdefault_profile
p140
I01
sVis_translator
p141
I00
ssS'contributors_enabled'
p142
I00
sS'profile_text_color'
p143
g40
sS'followers_count'
p144
I115
sS'profile_sidebar_border_color'
p145
g46
sS'id_str'
p146
g48
sS'default_profile_image'
p147
I00
sS'listed_count'
p148
I5
sS'status'
p149
g8
(ctweepy.models
Status
p150
g10
Ntp151
Rp152
(dp153
S'favorited'
p154
I00
sS'contributors'
p155
NsS'truncated'
p156
I00
sS'text'
p157
g57
sS'source_url'
p158
Vhttp://twitter.com/download/android
p159
sS'in_reply_to_status_id'
p160
NsS'geo'
p161
Nsg19
L666599146149707776L
sS'favorite_count'
p162
I0
sS'lang'
p163
g109
sS'retweeted_status'
p164
g8
(g150
g10
Ntp165
Rp166
(dp167
g154
I00
sg155
Nsg156
I00
sg157
g100
sg158
Vhttp://twitter.com
p168
sg160
Nsg161
Nsg19
L666578803242741760L
sg162
I3
sg163
g91
sg21
g92
sS'created_at'
p169
cdatetime
datetime
p170
(S'\x07\xdf\x0b\x11\x0b\x1d\x05\x00\x00\x00'
p171
tp172
Rp173
sg29
g89
sS'coordinates'
p174
NsS'in_reply_to_user_id_str'
p175
NsS'source'
p176
VTwitter Web Client
p177
sS'in_reply_to_status_id_str'
p178
NsS'in_reply_to_screen_name'
p179
Nsg146
g106
sS'retweeted'
p180
I00
sS'place'
p181
NsS'retweet_count'
p182
I11
sS'in_reply_to_user_id'
p183
Nsbsg21
g64
sg169
g170
(S'\x07\xdf\x0b\x11\x0c17\x00\x00\x00'
p184
tp185
Rp186
sg29
g53
sg174
Nsg175
Nsg176
VTwitter for Android
p187
sg178
Nsg179
Nsg146
g84
sg180
I00
sg181
Nsg182
I11
sg183
NsbsS'is_translation_enabled'
p188
I00
sS'utc_offset'
p189
I-28800
sS'statuses_count'
p190
I1422
sS'description'
p191
VPassionate trader and love investing in biotech. \u000a\u000aEvery strike brings me closer to the next home run ~babe Ruth
p192
sS'friends_count'
p193
I210
sS'location'
p194
g117
sS'profile_link_color'
p195
g119
sS'profile_image_url'
p196
g121
sS'notifications'
p197
NsS'geo_enabled'
p198
I00
sS'profile_background_color'
p199
g50
sS'profile_banner_url'
p200
g125
sS'profile_background_image_url'
p201
g127
sS'screen_name'
p202
g128
sg163
g129
sg1
I00
sS'profile_background_tile'
p203
I00
sS'favourites_count'
p204
I859
sS'name'
p205
g132
sS'url'
p206
Nsg169
g170
(S'\x07\xdd\t\x12\x10#\t\x00\x00\x00'
p207
tp208
Rp209
sS'profile_background_image_url_https'
p210
g37
sS'time_zone'
p211
g138
sS'protected'
p212
I00
sS'default_profile'
p213
I01
sS'is_translator'
p214
I00
sbs.