(dp0
S'following'
p1
(lp2
(lp3
I376499282
aI727419774
aI1096745072
aL3248568151L
aI1921459111
aL2744869459L
aL2207442626L
aL2174585395L
aI1092326809
aI378208943
aI76122124
aI21932479
aI43475268
aI396294440
aI45939528
aI113390942
aI185774847
aL2315611879L
aI1075556388
aI369020061
aI898301664
aI384445331
aI24410456
aI271138078
aI46383423
aL2377164372L
aI554398280
aI810870114
aI613515240
aI82142636
aL2350639447L
aI1329417120
aI632341632
aI1413027896
aI36393084
aI101937105
aI1969740852
aI572064418
aL2370604700L
aI1694197267
aI557402447
aI297848618
aI122868476
aI127034427
aI342249665
aI42119682
aI736299464
aI189788477
aI84312619
aI54991448
aI49637104
aI61292961
aI274233761
aI263197731
aI140912249
aI257513690
aI382685028
aI208155240
aI20071932
aI1265300773
aI1855976942
aI8524892
aI17077422
aI14165212
aI1473343417
aI392772061
aI1694722513
aL2291866248L
aI545618159
aI1543212792
aI341311937
aI33931334
aI28263739
aL2222017368L
aI1150121532
aI271211220
aI166816694
aI433664446
aI408672890
aI904968246
aI575796665
aI24147760
aI1017360962
aI16515274
aL2175160304L
aI17105436
aI259468875
aI448461258
aI797149178
aI126640430
aI169489285
aI624920658
aI20504642
aI1382631162
aI1413634874
aI14885246
aI1904290465
aL2176674864L
aL2190310947L
aL2216039120L
aI1681149697
aI1869471378
aI373457750
aI51912109
aI121549389
aI209033977
aI337778531
aI364351796
aL2177480973L
aI1154776783
aI113678194
aI7836182
aI285665360
aI29748372
aI416311594
aI124008935
aI390450593
aI34837057
aI13406012
aI16184821
aI780517974
aI1497035718
aI63269421
aI58808528
aI1919041363
aI205746285
aI25953981
aI108021761
aI55330338
aI62871181
aI36732307
aI1963154750
aI261078035
aI15264378
aI106498703
aI119372054
aI227070376
aI28858121
aI55561590
aI16827489
aI56121651
aI1194000546
aI164817791
aI552871925
aI23831851
aI112872946
aI20800915
aI194137231
aI102527566
aI38197397
aI72907355
aI458989076
aI262652488
aI273294289
aI1413757886
aI403500479
aI21730322
aI37941633
aI601459296
aI868081038
aI5848722
aI898213406
aI575785971
aI984751344
aI173423200
aI1269955802
aI121158213
aI20596865
aI423695486
aI12889882
aI174838895
aI120325121
aI1534167900
aI1271109162
aI63706463
aI35625099
aI325404774
aI17097223
aI27692585
aI82689705
aI15034882
aI13982132
aI14269152
aI87940762
aI80069355
aI15837844
aI99781138
aI19573968
aI5814392
aI19563837
aI16870421
aI123321217
aI428653913
aI4898091
aI67358777
aI34743251
aI44196397
aI13298072
aI114782468
aI1347071545
aI16630600
aI16732770
aI14292717
aI310319053
aI39264827
aI28445389
aI14276189
aI19988458
aI33689651
aI25531882
aI17991579
aI170932456
aI44906914
aI126074985
aI19891705
aI102094857
aI276653634
aI425917134
aI551532933
aI109200080
aI398565996
aI1559356620
aI5988062
aI34713362
aI398258984
aI17513682
aI15281391
aI30818980
aI14216123
aI61342056
aI14886375
aI15296897
aI166597717
aI705540042
aI1280663072
aasS'followers'
p4
(lp5
(lp6
L3983695459L
aI380423643
aI325600953
aI1244014266
aL2251342008L
aL3236709857L
aI1092267594
aI35861518
aI348586179
aI102275856
aL3375409822L
aI148186622
aL3233844061L
aL3292909683L
aI1259343733
aL3079089812L
aL3078610209L
aL2917930186L
aL2901876153L
aL2753440416L
aI36293963
aI172882912
aI60684241
aL2377164372L
aI846344222
aI810870114
aI613515240
aL2350639447L
aI1855976942
aI1869471378
aI537351590
aL2175160304L
aI1694197267
aL2334843785L
aI43950136
aL2309172162L
aI21932479
aL2298166525L
aI39085071
aL2289971941L
aI23161106
aI1029328674
aI797149178
aI54622589
aI15497893
aI20504642
aI780517974
aI21730322
aI55330338
aI38197397
aI1681149697
aL2216039120L
aL2190310947L
aL2176674864L
aI423695486
aI14885246
aI1413757886
aI273294289
aI868081038
aI37941633
aI1413634874
aI1382631162
aI984751344
aI1269955802
aI121158213
aI1280663072
aI398565996
aI398258984
aasS'obj'
p7
ccopy_reg
_reconstructor
p8
(ctweepy.models
User
p9
c__builtin__
object
p10
Ntp11
Rp12
(dp13
S'follow_request_sent'
p14
I00
sS'has_extended_profile'
p15
I00
sS'profile_use_background_image'
p16
I01
sS'profile_sidebar_fill_color'
p17
VDDEEF6
p18
sS'id'
p19
I1923837649
sS'verified'
p20
I00
sS'entities'
p21
(dp22
Vdescription
p23
(dp24
Vurls
p25
(lp26
sssS'profile_image_url_https'
p27
Vhttps://pbs.twimg.com/profile_images/378800000560649887/49ec32dc0e8c469aceb6c16da2880301_normal.jpeg
p28
sS'_json'
p29
(dp30
Vfollow_request_sent
p31
I00
sVhas_extended_profile
p32
I00
sVprofile_use_background_image
p33
I01
sVdefault_profile_image
p34
I00
sVid
p35
I1923837649
sVprofile_background_image_url_https
p36
Vhttps://abs.twimg.com/images/themes/theme1/bg.png
p37
sVverified
p38
I00
sVprofile_text_color
p39
V333333
p40
sVprofile_image_url_https
p41
g28
sVprofile_sidebar_fill_color
p42
g18
sVentities
p43
g22
sVfollowers_count
p44
I68
sVprofile_sidebar_border_color
p45
VC0DEED
p46
sVid_str
p47
V1923837649
p48
sVprofile_background_color
p49
VC0DEED
p50
sVlisted_count
p51
I1
sVstatus
p52
(dp53
Vlang
p54
Ven
p55
sVfavorited
p56
I00
sg43
(dp57
Vsymbols
p58
(lp59
(dp60
Vindices
p61
(lp62
I0
aI3
asVtext
p63
Vba
p64
sasVuser_mentions
p65
(lp66
sVhashtags
p67
(lp68
sg25
(lp69
ssVcontributors
p70
NsVtruncated
p71
I00
sg63
V$ba probably a run to new 52week high by dec
p72
sVcreated_at
p73
VMon Nov 16 20:58:23 +0000 2015
p74
sVretweeted
p75
I00
sVin_reply_to_status_id_str
p76
NsVcoordinates
p77
NsVin_reply_to_user_id_str
p78
NsVsource
p79
V<a href="http://twitter.com/download/iphone" rel="nofollow">Twitter for iPhone</a>
p80
sVin_reply_to_status_id
p81
NsVin_reply_to_screen_name
p82
Nsg47
V666359683817566208
p83
sVplace
p84
NsVretweet_count
p85
I0
sVgeo
p86
Nsg35
L666359683817566208L
sVfavorite_count
p87
I0
sVin_reply_to_user_id
p88
NssVis_translation_enabled
p89
I00
sVutc_offset
p90
I-18000
sVstatuses_count
p91
I587
sg23
V
p92
sVfriends_count
p93
I235
sVlocation
p94
g92
sVprofile_link_color
p95
V0084B4
p96
sVprofile_image_url
p97
Vhttp://pbs.twimg.com/profile_images/378800000560649887/49ec32dc0e8c469aceb6c16da2880301_normal.jpeg
p98
sVfollowing
p99
I00
sVgeo_enabled
p100
I00
sVprofile_banner_url
p101
Vhttps://pbs.twimg.com/profile_banners/1923837649/1381112473
p102
sVprofile_background_image_url
p103
Vhttp://abs.twimg.com/images/themes/theme1/bg.png
p104
sVscreen_name
p105
VDisruptivestock
p106
sg54
Ven
p107
sVprofile_background_tile
p108
I00
sVfavourites_count
p109
I390
sVname
p110
VDisruptivePortfolio
p111
sVnotifications
p112
I00
sVurl
p113
Nsg73
VTue Oct 01 15:38:25 +0000 2013
p114
sVcontributors_enabled
p115
I00
sVtime_zone
p116
VEastern Time (US & Canada)
p117
sVprotected
p118
I00
sVdefault_profile
p119
I01
sVis_translator
p120
I00
ssS'contributors_enabled'
p121
I00
sS'profile_text_color'
p122
g40
sS'followers_count'
p123
I68
sS'profile_sidebar_border_color'
p124
g46
sS'id_str'
p125
g48
sS'default_profile_image'
p126
I00
sS'listed_count'
p127
I1
sS'status'
p128
g8
(ctweepy.models
Status
p129
g10
Ntp130
Rp131
(dp132
S'favorited'
p133
I00
sS'contributors'
p134
NsS'truncated'
p135
I00
sS'text'
p136
g72
sS'source_url'
p137
Vhttp://twitter.com/download/iphone
p138
sS'in_reply_to_status_id'
p139
NsS'geo'
p140
Nsg19
L666359683817566208L
sS'favorite_count'
p141
I0
sS'lang'
p142
g55
sg21
g57
sS'created_at'
p143
cdatetime
datetime
p144
(S'\x07\xdf\x0b\x10\x14:\x17\x00\x00\x00'
p145
tp146
Rp147
sg29
g53
sS'coordinates'
p148
NsS'in_reply_to_user_id_str'
p149
NsS'source'
p150
VTwitter for iPhone
p151
sS'in_reply_to_status_id_str'
p152
NsS'in_reply_to_screen_name'
p153
Nsg125
g83
sS'retweeted'
p154
I00
sS'place'
p155
NsS'retweet_count'
p156
I0
sS'in_reply_to_user_id'
p157
NsbsS'is_translation_enabled'
p158
I00
sS'utc_offset'
p159
I-18000
sS'statuses_count'
p160
I587
sS'description'
p161
g92
sS'friends_count'
p162
I235
sS'location'
p163
g92
sS'profile_link_color'
p164
g96
sS'profile_image_url'
p165
g98
sS'notifications'
p166
I00
sS'geo_enabled'
p167
I00
sS'profile_background_color'
p168
g50
sS'profile_banner_url'
p169
g102
sS'profile_background_image_url'
p170
g104
sS'screen_name'
p171
g106
sg142
g107
sg1
I00
sS'profile_background_tile'
p172
I00
sS'favourites_count'
p173
I390
sS'name'
p174
g111
sS'url'
p175
Nsg143
g144
(S'\x07\xdd\n\x01\x0f&\x19\x00\x00\x00'
p176
tp177
Rp178
sS'profile_background_image_url_https'
p179
g37
sS'time_zone'
p180
g117
sS'protected'
p181
I00
sS'default_profile'
p182
I01
sS'is_translator'
p183
I00
sbs.