(dp0
S'following'
p1
(lp2
(lp3
I515154835
aL2945959759L
aI450062327
aI880237465
aI129935623
aI458909659
aI290097255
aI559977174
aI785830202
aI291506429
aI620451650
aI551644827
aI460848476
aI288629888
aL2505217933L
aI924970663
aL2210884015L
aI468193368
aI185699977
aI107125748
aI222666657
aL2166729990L
aI1711713978
aI1108126932
aI283102442
aI38004713
aI1470261637
aL3759237796L
aL2329624993L
aI19319290
aI1110196416
aL2584347619L
aI805230144
aL2243075472L
aL2455904196L
aL2969912229L
aL2875817634L
aL2483093335L
aI494128669
aL3240480037L
aI56745670
aI271024963
aL2776909754L
aI386015316
aI158126576
aI44122437
aI38495835
aI15519565
aI182824991
aI86356349
aI40197535
aI963480595
aI23859823
aI34616510
aI148771088
aI1027092416
aI261918703
aL3195591187L
aI407130574
aI25073877
aL3012700344L
aI112897540
aI251873156
aI25643394
aI325655146
aL2435896604L
aI1406750924
aI267018018
aI14498484
aI56876644
aI73058561
aI634598384
aI215696948
aI862217688
aI1947141134
aI91709555
aI40443752
aI1691722118
aI1909407714
aL2810410272L
aL2257095848L
aI57537112
aI327014724
aI193787480
aI327024650
aI338159612
aI23022687
aI137460929
aI555204790
aI581999965
aI22192847
aI24897626
aI473227811
aI321613624
aI40015723
aI20744553
aI1401267992
aI28587919
aI153572036
aI113758100
aL2385446660L
aI73021361
aL2610462031L
aI615414108
aI91245131
aI617507390
aI594211385
aI40047532
aI336116660
aI57084769
aI278781238
aI10228272
aI342887079
aI258031607
aI26671856
aI20682342
aI416814339
aI155544257
aI105211981
aI85401970
aI988105718
aI43139414
aI255199842
aI174889139
aI16119129
aI100638300
aI494422305
aI85617701
aI1413547332
aI1260366252
aI163559269
aI76388667
aI184478003
aI16212685
aI28272865
aI167421802
aI303827856
aI614024492
aI20270332
aI235381204
aI509145315
aI63576861
aL2180515758L
aI1606965788
aI58840200
aI28183933
aI23970102
aI171663779
aI185737367
aI15485441
aI612792060
aI115485051
aI1276326409
aL2254724888L
aI96821645
aI21433995
aL2217181338L
aI17070047
aI387483014
aI151115182
aI20205271
aI429540606
aI34930912
aI16032925
aI332638587
aI113897988
aI77117012
aI500042487
aI26053643
aI59949396
aI259375460
aI143582146
aI54238128
aI51263592
aI19362299
aI1367531
aI362189733
aI33583496
aI26565946
aasS'followers'
p4
(lp5
(lp6
L2528805090L
aL2487791838L
aI325783734
aI189567107
aI515154835
aL2945959759L
aI284542517
aI797557909
aL4037958079L
aI450919703
aI450062327
aI603708824
aI632985793
aI629482056
aI750703231
aI407130574
aI561802635
aL4209172104L
aI458909659
aI291506429
aI785830202
aI559977174
aI620451650
aI460848476
aI551644827
aI290097255
aI557444210
aI506864606
aI708522042
aI288629888
aL2505217933L
aI1339060338
aI517392967
aL3731901754L
aI226438054
aI805230144
aI60784269
aL4120054337L
aI177732271
aI48486244
aI100767876
aI29293136
aL3158469199L
aL3319136443L
aI952112047
aI100185304
aL2334289251L
aL3214214153L
aL2767912162L
aI538547125
aL2478015324L
aL3584534893L
aL3304115046L
aI143582146
aL3420915977L
aL3304652934L
aI15519565
aL2512732765L
aL3182887447L
aI317430591
aI1340448301
aI148771088
aL2386034021L
aI261918703
aI1027092416
aL3368019856L
aI1967646295
aL3011540220L
aI14942482
aI43561629
aI156216432
aL2735726783L
aL2810410272L
aL3324236848L
aL3012700344L
aL3221884908L
aI1276326409
aL3199389838L
aL2905669398L
aI577281559
aI175494070
aI868025190
aI38590007
aI91756243
aL2435896604L
aL2391687061L
aI1060492003
aI862217688
aI1947141134
aL2935626906L
aI160803422
aI1606965788
aI1909407714
aI1691722118
aI1870124922
aI480556057
aL2791107369L
aL2763888452L
aI40443752
aI988105718
aI21587082
aI100638300
aI26671856
aI1053191882
aL2471666613L
aL2350795464L
aI235381204
aI966550729
aL2254724888L
aL2258730973L
aasS'obj'
p7
ccopy_reg
_reconstructor
p8
(ctweepy.models
User
p9
c__builtin__
object
p10
Ntp11
Rp12
(dp13
S'follow_request_sent'
p14
NsS'has_extended_profile'
p15
I00
sS'profile_use_background_image'
p16
I01
sS'profile_sidebar_fill_color'
p17
VDDEEF6
p18
sS'id'
p19
I1964856300
sS'verified'
p20
I00
sS'entities'
p21
(dp22
Vurl
p23
(dp24
Vurls
p25
(lp26
(dp27
g23
Vhttps://t.co/XLVd7I4Oey
p28
sVindices
p29
(lp30
I0
aI23
asVexpanded_url
p31
Vhttps://youtu.be/CnVf1ZoCJSo
p32
sVdisplay_url
p33
Vyoutu.be/CnVf1ZoCJSo
p34
sassVdescription
p35
(dp36
g25
(lp37
sssS'profile_image_url_https'
p38
Vhttps://pbs.twimg.com/profile_images/634227743865962496/00qmdU5J_normal.jpg
p39
sS'_json'
p40
(dp41
Vfollow_request_sent
p42
NsVhas_extended_profile
p43
I00
sVprofile_use_background_image
p44
I01
sVdefault_profile_image
p45
I00
sVid
p46
I1964856300
sVprofile_background_image_url_https
p47
Vhttps://abs.twimg.com/images/themes/theme1/bg.png
p48
sVverified
p49
I00
sVprofile_text_color
p50
V333333
p51
sVprofile_image_url_https
p52
g39
sVprofile_sidebar_fill_color
p53
g18
sVentities
p54
g22
sVfollowers_count
p55
I110
sVprofile_sidebar_border_color
p56
VC0DEED
p57
sVid_str
p58
V1964856300
p59
sVprofile_background_color
p60
VC0DEED
p61
sVlisted_count
p62
I9
sVstatus
p63
(dp64
Vlang
p65
Ven
p66
sVfavorited
p67
I00
sg54
(dp68
Vsymbols
p69
(lp70
sVuser_mentions
p71
(lp72
(dp73
g46
L2941122879L
sg29
(lp74
I0
aI11
asg58
V2941122879
p75
sVscreen_name
p76
Vcrtaylor81
p77
sVname
p78
VMistery Man
p79
sa(dp80
g46
L2430639870L
sg29
(lp81
I12
aI23
asg58
V2430639870
p82
sg76
VOducks123G
p83
sg78
VGOducks123
p84
sasVhashtags
p85
(lp86
sg25
(lp87
ssVcontributors
p88
NsVtruncated
p89
I00
sVtext
p90
V@crtaylor81 @Oducks123G I'm not down either but didn't see all the shorters keeping this thing down after having it sit @.0011 forever
p91
sVcreated_at
p92
VTue Nov 17 04:28:26 +0000 2015
p93
sVretweeted
p94
I00
sVin_reply_to_status_id_str
p95
V666472560415109120
p96
sVcoordinates
p97
NsVin_reply_to_user_id_str
p98
V2941122879
p99
sVsource
p100
V<a href="http://twitter.com/download/android" rel="nofollow">Twitter for Android</a>
p101
sVin_reply_to_status_id
p102
L666472560415109120L
sVin_reply_to_screen_name
p103
Vcrtaylor81
p104
sg58
V666472942012776448
p105
sVplace
p106
NsVretweet_count
p107
I0
sVgeo
p108
Nsg46
L666472942012776448L
sVfavorite_count
p109
I0
sVin_reply_to_user_id
p110
L2941122879L
ssVis_translation_enabled
p111
I00
sVutc_offset
p112
I-25200
sVstatuses_count
p113
I6275
sg35
Vsports, politics and stocks
p114
sVfriends_count
p115
I179
sVlocation
p116
Vvail az
p117
sVprofile_link_color
p118
V0084B4
p119
sVprofile_image_url
p120
Vhttp://pbs.twimg.com/profile_images/634227743865962496/00qmdU5J_normal.jpg
p121
sVfollowing
p122
NsVgeo_enabled
p123
I01
sVprofile_banner_url
p124
Vhttps://pbs.twimg.com/profile_banners/1964856300/1429931623
p125
sVprofile_background_image_url
p126
Vhttp://abs.twimg.com/images/themes/theme1/bg.png
p127
sg76
VSteal_Wheat34
p128
sg65
Ven
p129
sVprofile_background_tile
p130
I00
sVfavourites_count
p131
I4125
sg78
Vreal_shaun_king
p132
sVnotifications
p133
Nsg23
Vhttps://t.co/XLVd7I4Oey
p134
sg92
VWed Oct 16 14:28:06 +0000 2013
p135
sVcontributors_enabled
p136
I00
sVtime_zone
p137
VArizona
p138
sVprotected
p139
I00
sVdefault_profile
p140
I01
sVis_translator
p141
I00
ssS'contributors_enabled'
p142
I00
sS'profile_text_color'
p143
g51
sS'followers_count'
p144
I110
sS'profile_sidebar_border_color'
p145
g57
sS'id_str'
p146
g59
sS'default_profile_image'
p147
I00
sS'listed_count'
p148
I9
sS'status'
p149
g8
(ctweepy.models
Status
p150
g10
Ntp151
Rp152
(dp153
S'favorited'
p154
I00
sS'contributors'
p155
NsS'truncated'
p156
I00
sS'text'
p157
g91
sS'source_url'
p158
Vhttp://twitter.com/download/android
p159
sS'in_reply_to_status_id'
p160
L666472560415109120L
sS'geo'
p161
Nsg19
L666472942012776448L
sS'favorite_count'
p162
I0
sS'lang'
p163
g66
sg21
g68
sS'created_at'
p164
cdatetime
datetime
p165
(S'\x07\xdf\x0b\x11\x04\x1c\x1a\x00\x00\x00'
p166
tp167
Rp168
sg40
g64
sS'coordinates'
p169
NsS'in_reply_to_user_id_str'
p170
g99
sS'source'
p171
VTwitter for Android
p172
sS'in_reply_to_status_id_str'
p173
g96
sS'in_reply_to_screen_name'
p174
g104
sg146
g105
sS'retweeted'
p175
I00
sS'place'
p176
NsS'retweet_count'
p177
I0
sS'in_reply_to_user_id'
p178
L2941122879L
sbsS'is_translation_enabled'
p179
I00
sS'utc_offset'
p180
I-25200
sS'statuses_count'
p181
I6275
sS'description'
p182
g114
sS'friends_count'
p183
I179
sS'location'
p184
g117
sS'profile_link_color'
p185
g119
sS'profile_image_url'
p186
g121
sS'notifications'
p187
NsS'geo_enabled'
p188
I01
sS'profile_background_color'
p189
g61
sS'profile_banner_url'
p190
g125
sS'profile_background_image_url'
p191
g127
sS'screen_name'
p192
g128
sg163
g129
sg1
I00
sS'profile_background_tile'
p193
I00
sS'favourites_count'
p194
I4125
sS'name'
p195
g132
sS'url'
p196
g134
sg164
g165
(S'\x07\xdd\n\x10\x0e\x1c\x06\x00\x00\x00'
p197
tp198
Rp199
sS'profile_background_image_url_https'
p200
g48
sS'time_zone'
p201
g138
sS'protected'
p202
I00
sS'default_profile'
p203
I01
sS'is_translator'
p204
I00
sbs.