(dp0
S'following'
p1
(lp2
(lp3
I360737269
aI227390518
aI22657351
aI90098789
aI193523908
aL3342154871L
aI19252216
aI175073422
aI789848623
aI21310839
aI13786802
aI101019351
aI16567309
aI876086923
aI330589753
aI371470954
aI35239459
aL2889160213L
aI22562425
aI92197959
aI554146423
aI20655304
aI1960888590
aI166707531
aI313740242
aI30958372
aI1775731
aI611930922
aI6519522
aI22155975
aI103148839
aI83425781
aL2563082400L
aI15519565
aL2743113943L
aI267373063
aI18221712
aI145000238
aI211993386
aI575348044
aI43024351
aI1096262468
aI1358019355
aI175091719
aI17220934
aI18396070
aI19720440
aI247560825
aI260538004
aI463193040
aI1093090866
aI29812065
aI1633799557
aI47285504
aI75974281
aI602317143
aI47786101
aI1726788152
aL2321434164L
aI233749221
aI15552773
aI148900868
aI6449282
aI14749606
aI15927336
aI134234059
aI76698338
aI16648790
aI378171907
aI15661871
aI28781230
aI501802343
aI257689330
aI39525838
aI36980342
aI158414847
aI1202793056
aI556297194
aI212255045
aI11243802
aI24569387
aI65453104
aI19080760
aI168509710
aI166739404
aI54682125
aI143988282
aI41788605
aI16895274
aI50600062
aI1260481946
aI81371986
aI27083523
aI63811449
aI16303106
aI31391307
aI21345455
aI6285
aI91048230
aI207078963
aI90202078
aI8984102
aI149158800
aI31208184
aI7861312
aI310687757
aI55702109
aI298224129
aI120118721
aI59693359
aI535991259
aI224450775
aI193930774
aI391037985
aI254117355
aI15687962
aI15131310
aI16129920
aI237845487
aI139930250
aI58528137
aI30282704
aI15666380
aI40152883
aI92052107
aI1450087165
aI21024838
aI237670274
aI18171994
aI93759830
aI72936595
aI61586751
aI72694909
aI1137161258
aI137117427
aI1205974434
aI32621370
aI20710809
aI185273251
aI5796972
aI34736672
aI526724531
aI16303450
aI20636347
aI40918816
aI44166798
aI27961547
aI17955507
aI24886570
aI73205560
aI106498703
aI1851799740
aI20132159
aI35554723
aI263290939
aI23690344
aI813286
aI112508240
aI91478624
aI34713362
aI59459839
aI14216123
aI100781591
aI52553796
aI20793816
aI15846407
aI23151437
aI87335738
aI454313925
aI174022914
aI17475013
aI14742848
aI14342564
aI16451932
aI2836421
aI80943051
aI14353392
aI25170188
aI30973
aI14511951
aI50004938
aI268414482
aI15492359
aasS'followers'
p4
(lp5
(lp6
I1314866862
aL2741222433L
aL3636983481L
aI19768990
aI47631884
aI128044290
aI24363911
aI174082131
aL3984566435L
aL3223604196L
aL3241287130L
aI135767303
aI615919765
aL3360785553L
aI15519565
aI1014153434
aI1943323992
aL3153751141L
aL3353757418L
aL3342154871L
aI788074675
aL3069912183L
aI19252216
aL2854000263L
aI67378997
aL2938156154L
aI914595336
aI872670043
aI16567309
aL3087312848L
aI15054961
aI747259099
aL3065569709L
aI16886925
aI1125610508
aI6449282
aI73205560
aL2872571512L
aI246355446
aL2991362456L
aI1572577698
aI539539884
aI15176887
aI210953833
aL2781586139L
aI661433
aL2811784014L
aL2541510835L
aI103148839
aI18949610
aI390176029
aI5796972
aI876086923
aI438580748
aL2451603282L
aL2402020526L
aL2493417516L
aL2724488421L
aI481303622
aI106244541
aI1638183535
aL2319981299L
aL2548223947L
aI109524559
aL2506613916L
aI718442166
aI1323875953
aI481009532
aI24276049
aI1546608584
aI1567260980
aI35554723
aL2383427647L
aL2381637062L
aI30973
aI175073422
aI41814338
aI39525838
aL2332790280L
aI100781591
aL2309000105L
aI467550840
aI76698338
aI103967865
aI501802343
aI63365510
aL2187554665L
aI821302374
aI148398551
aL2174053708L
aI55702109
aI52553796
aasS'obj'
p7
ccopy_reg
_reconstructor
p8
(ctweepy.models
User
p9
c__builtin__
object
p10
Ntp11
Rp12
(dp13
S'follow_request_sent'
p14
NsS'has_extended_profile'
p15
I00
sS'profile_use_background_image'
p16
I01
sS'profile_sidebar_fill_color'
p17
VDAECF4
p18
sS'id'
p19
I1967676368
sS'verified'
p20
I00
sS'entities'
p21
(dp22
Vurl
p23
(dp24
Vurls
p25
(lp26
(dp27
g23
Vhttp://t.co/IbUjxkMvT5
p28
sVindices
p29
(lp30
I0
aI22
asVexpanded_url
p31
Vhttp://woodox-earthtaurus.tumblr.com
p32
sVdisplay_url
p33
Vwoodox-earthtaurus.tumblr.com
p34
sassVdescription
p35
(dp36
g25
(lp37
sssS'profile_image_url_https'
p38
Vhttps://pbs.twimg.com/profile_images/505220030909255680/_bNY8VWb_normal.jpeg
p39
sS'_json'
p40
(dp41
Vfollow_request_sent
p42
NsVhas_extended_profile
p43
I00
sVprofile_use_background_image
p44
I01
sVdefault_profile_image
p45
I00
sVid
p46
I1967676368
sVprofile_background_image_url_https
p47
Vhttps://abs.twimg.com/images/themes/theme2/bg.gif
p48
sVverified
p49
I00
sVprofile_text_color
p50
V663B12
p51
sVprofile_image_url_https
p52
g39
sVprofile_sidebar_fill_color
p53
g18
sVentities
p54
g22
sVfollowers_count
p55
I92
sVprofile_sidebar_border_color
p56
V000000
p57
sVid_str
p58
V1967676368
p59
sVprofile_background_color
p60
V58A7C4
p61
sVlisted_count
p62
I13
sVstatus
p63
(dp64
Vlang
p65
Ven
p66
sVfavorited
p67
I00
sg54
(dp68
Vsymbols
p69
(lp70
sVuser_mentions
p71
(lp72
(dp73
g46
I789848623
sg29
(lp74
I0
aI12
asg58
V789848623
p75
sVscreen_name
p76
VHopeandMain
p77
sVname
p78
VHope & Main
p79
sa(dp80
g46
I31391307
sg29
(lp81
I13
aI21
asg58
V31391307
p82
sg76
Vjbchang
p83
sg78
Vjoanne chang-myers
p84
sasVhashtags
p85
(lp86
sg25
(lp87
ssVcontributors
p88
NsVtruncated
p89
I00
sVtext
p90
V@HopeandMain @jbchang I've been dreaming about baking. Not necessarily in/of itself but with other things. Can it be Thanksgiving already?
p91
sVcreated_at
p92
VMon Nov 16 07:22:37 +0000 2015
p93
sVretweeted
p94
I00
sVin_reply_to_status_id_str
p95
NsVcoordinates
p96
NsVin_reply_to_user_id_str
p97
V789848623
p98
sVsource
p99
V<a href="https://twitter.com/download/android" rel="nofollow">Twitter for Android Tablets</a>
p100
sVin_reply_to_status_id
p101
NsVin_reply_to_screen_name
p102
VHopeandMain
p103
sg58
V666154388323500032
p104
sVplace
p105
NsVretweet_count
p106
I0
sVgeo
p107
Nsg46
L666154388323500032L
sVfavorite_count
p108
I1
sVin_reply_to_user_id
p109
I789848623
ssVis_translation_enabled
p110
I00
sVutc_offset
p111
I-18000
sVstatuses_count
p112
I9401
sg35
Vstudent, writer, avid reader, blogger, lover of nature & the outdoors
p113
sVfriends_count
p114
I183
sVlocation
p115
VRhode Island
p116
sVprofile_link_color
p117
V18627A
p118
sVprofile_image_url
p119
Vhttp://pbs.twimg.com/profile_images/505220030909255680/_bNY8VWb_normal.jpeg
p120
sVfollowing
p121
NsVgeo_enabled
p122
I01
sVprofile_banner_url
p123
Vhttps://pbs.twimg.com/profile_banners/1967676368/1409288725
p124
sVprofile_background_image_url
p125
Vhttp://abs.twimg.com/images/themes/theme2/bg.gif
p126
sg76
VEDGAurora
p127
sg65
Ven
p128
sVprofile_background_tile
p129
I00
sVfavourites_count
p130
I3181
sg78
VEmily G
p131
sVnotifications
p132
Nsg23
Vhttp://t.co/IbUjxkMvT5
p133
sg92
VThu Oct 17 22:10:42 +0000 2013
p134
sVcontributors_enabled
p135
I00
sVtime_zone
p136
VEastern Time (US & Canada)
p137
sVprotected
p138
I00
sVdefault_profile
p139
I00
sVis_translator
p140
I00
ssS'contributors_enabled'
p141
I00
sS'profile_text_color'
p142
g51
sS'followers_count'
p143
I92
sS'profile_sidebar_border_color'
p144
g57
sS'id_str'
p145
g59
sS'default_profile_image'
p146
I00
sS'listed_count'
p147
I13
sS'status'
p148
g8
(ctweepy.models
Status
p149
g10
Ntp150
Rp151
(dp152
S'favorited'
p153
I00
sS'contributors'
p154
NsS'truncated'
p155
I00
sS'text'
p156
g91
sS'source_url'
p157
Vhttps://twitter.com/download/android
p158
sS'in_reply_to_status_id'
p159
NsS'geo'
p160
Nsg19
L666154388323500032L
sS'favorite_count'
p161
I1
sS'lang'
p162
g66
sg21
g68
sS'created_at'
p163
cdatetime
datetime
p164
(S'\x07\xdf\x0b\x10\x07\x16%\x00\x00\x00'
p165
tp166
Rp167
sg40
g64
sS'coordinates'
p168
NsS'in_reply_to_user_id_str'
p169
g98
sS'source'
p170
VTwitter for Android Tablets
p171
sS'in_reply_to_status_id_str'
p172
NsS'in_reply_to_screen_name'
p173
g103
sg145
g104
sS'retweeted'
p174
I00
sS'place'
p175
NsS'retweet_count'
p176
I0
sS'in_reply_to_user_id'
p177
I789848623
sbsS'is_translation_enabled'
p178
I00
sS'utc_offset'
p179
I-18000
sS'statuses_count'
p180
I9401
sS'description'
p181
g113
sS'friends_count'
p182
I183
sS'location'
p183
g116
sS'profile_link_color'
p184
g118
sS'profile_image_url'
p185
g120
sS'notifications'
p186
NsS'geo_enabled'
p187
I01
sS'profile_background_color'
p188
g61
sS'profile_banner_url'
p189
g124
sS'profile_background_image_url'
p190
g126
sS'screen_name'
p191
g127
sg162
g128
sg1
I00
sS'profile_background_tile'
p192
I00
sS'favourites_count'
p193
I3181
sS'name'
p194
g131
sS'url'
p195
g133
sg163
g164
(S'\x07\xdd\n\x11\x16\n*\x00\x00\x00'
p196
tp197
Rp198
sS'profile_background_image_url_https'
p199
g48
sS'time_zone'
p200
g137
sS'protected'
p201
I00
sS'default_profile'
p202
I00
sS'is_translator'
p203
I00
sbs.