(dp0
S'following'
p1
(lp2
(lp3
L2360075610L
aI1595561010
aI19658585
aI14075928
aI352947624
aI65136339
aI460639735
aL2522665776L
aL2230711438L
aL2287469286L
aI61513286
aI1432977446
aI1614266905
aL2359926157L
aI25421094
aI203190304
aI57947388
aI19224439
aL2373036210L
aL2214337922L
aI728211757
aI133414920
aI1857839678
aI388351453
aI376394069
aL2280024992L
aI18049517
aI138532350
aI16427734
aI16732770
aI1499059045
aI408969994
aI782396905
aI338588208
aI1141197450
aI54856917
aI15800081
aL2239240086L
aI798722731
aL2235759473L
aI16826617
aI988386703
aI337743147
aI365328022
aI161263981
aI31128730
aI110623693
aI227343379
aI313285183
aI128288109
aI1666038950
aI195009699
aI344538987
aI142816337
aI407122884
aI47327321
aI1322672845
aI59386332
aI176168308
aI429874309
aL2197954226L
aI131276801
aI50764888
aI27185428
aI16451932
aI1283527969
aI1219791493
aI83666769
aI463100829
aI1872819308
aI302128211
aI424954204
aL2189786654L
aI223329689
aI1526404644
aI98522869
aI546195796
aI364729605
aI481429204
aI15130891
aI1670822089
aI1630954710
aI606412013
aI1962332060
aI715170120
aI775319148
aL2186080387L
aI1919132659
aI821002322
aI1301982696
aI422300607
aI1650007682
aI983827232
aI467529463
aI70204367
aI418193343
aI227229522
aI382841370
aI285250272
aI166252256
aI16580226
aI15461733
aI24919888
aI35009875
aI11348282
aI63492964
aI59135870
aI17471979
aI123355425
aI13201312
aI15585039
aI86113611
aI3459051
aI20329672
aI17026589
aI172233326
aI41167959
aI41077970
aI106213121
aI143923948
aI16451669
aI20941733
aI52090405
aI43120198
aI322040938
aI27757931
aI980582593
aI37728789
aI33289381
aI141764283
aL2165708558L
aI308576601
aI1073953842
aI273294289
aI130110470
aI372262602
aI1345702129
aI1364930179
aI95226858
aI153410829
aI260791260
aI24229787
aI15808135
aI407436616
aI376856538
aI146341446
aI17805662
aI323405942
aI270952936
aI419498220
aI271069523
aI317820566
aI29583254
aI173522676
aI222803538
aI163498518
aI16964197
aI325117336
aI832964858
aI1109452214
aI346056309
aI588214689
aI23752466
aI462822668
aI155208145
aI35740289
aI451767611
aI325399382
aI1309808982
aI636391943
aI22164556
aI28646364
aI41154742
aI139715762
aI182906951
aI1445903744
aI1186662457
aI55561590
aI565538332
aI19964097
aI218072162
aI551936202
aI146090267
aI501181538
aI1161717457
aI1379673444
aI926009286
aI30359797
aI1534919449
aI31463168
aI383843175
aI86881662
aI175754840
aI17607204
aI404341711
aI329658853
aI22510558
aI17873593
aI25254134
aI780517974
aI412611622
aI109200080
aI25885519
aI601459296
aI547900363
aI21451963
aI14292717
aI1171211503
aI17862108
aI386808013
aI219232987
aI278299495
aI15502574
aI166569708
aI82143051
aI1622183040
aI566258291
aI15896903
aI1603883088
aI331677065
aI860252845
aI185310946
aI74130577
aI106498703
aI16334857
aI15568127
aI14216123
aI254136706
aI189541943
aI25359863
aI34940512
aI539247187
aI19615829
aI60629481
aI17985493
aI30721947
aI36027680
aI250709925
aI263065045
aI36215319
aI20924488
aI56171815
aI20492200
aI121127692
aI168300811
aI260791818
aI310460634
aI130861909
aI71096825
aI503479172
aI36128216
aI15781262
aI182016144
aI31436859
aI18721632
aI772803463
aI382316642
aI38714518
aI106849145
aI1240463418
aI93675013
aI14146188
aI43135991
aI16301908
aI46008015
aI23517715
aI18435707
aI20178997
aI39683693
aI62717300
aI58941740
aI21274000
aI95165340
aI31549974
aI41409575
aI64942609
aI36350546
aI187314178
aI22751329
aI791886692
aI80446055
aI18196002
aI43801407
aI957342319
aI15487945
aI21520854
aI119485192
aI66517904
aI47761207
aI33931998
aI22784129
aI64997681
aI19671234
aI16423158
aI49910635
aI482362854
aI32377320
aI135404644
aI263706477
aI57673098
aI231209687
aI24886465
aI70428380
aI20213316
aI154265454
aI400495835
aI85603396
aI18484918
aI187520111
aI161122931
aI61127855
aI18993705
aI282373446
aI191621124
aI27890812
aI20022906
aI95323720
aI28886295
aI88961975
aI40496256
aI51556497
aI52183028
aI161141384
aI29797190
aI19520981
aI28171980
aI17299376
aI21231063
aI29377613
aI88966020
aI1314764664
aI14355883
aI185718976
aI83678036
aI31039892
aI19430555
aI52129399
aI87997141
aI17059140
aI51432494
aI18452349
aI25539815
aI49012699
aI82901380
aI41282667
aI69400458
aI45747659
aI40918110
aI331703548
aI41146726
aI52784106
aI20832496
aI33522957
aI12889882
aI1898246480
aI318764599
aI37564410
aI818071
aI18492355
aI363429010
aI692023
aI4767021
aI158414847
aI14677919
aI5392522
aI19658826
aI23962323
aI8161232
aI16827489
aI52166809
aI59485000
aI18104730
aI15971805
aI24227424
aI946555122
aI1666651962
aI291940756
aI34743251
aI1860080138
aI301366947
aI701689424
aI123290555
aI333689254
aI17824922
aI22920732
aI1368052542
aI403445500
aI262653256
aI49717501
aI1457452183
aI21364213
aI138700816
aI45967905
aI14307954
aI465217309
aI29321385
aI18237120
aI604618223
aI1182382878
aI219846823
aI781408
aI110974198
aI135618949
aI65174274
aI18200793
aI20562637
aI34182155
aI1853216792
aI1870159273
aI1952502085
aI1851398576
aI348117523
aI48229752
aI1342739178
aI227847958
aI203020497
aI876904831
aI107891213
aI859997696
aI47119310
aI309104609
aI495218803
aI1307874901
aI70987052
aI9672642
aI239128875
aI342400032
aI1347903889
aI1322784444
aI13298072
aI34713362
aI44196397
aasS'followers'
p4
(lp5
(lp6
L2992414321L
aI869918281
aI83019869
aL2360075610L
aL3236745466L
aI130401781
aL3823118447L
aI797942226
aL2338423776L
aL2939699349L
aL2450190421L
aI77805345
aI1877592672
aL2950651967L
aL3041115696L
aI18472330
aI805230144
aI1358078479
aL2716708574L
aI255125930
aL2907600664L
aI387612403
aI1309808982
aL2788364934L
aL2613882308L
aL2789154494L
aI1972631497
aI40043358
aI22788684
aI35204335
aL2653411604L
aI144613438
aI1614266905
aI208185348
aI583040158
aI1541594804
aL2583696044L
aI78123356
aL2563890230L
aL2383033592L
aI7573192
aI875839476
aI33096353
aL2199740118L
aI70204367
aI15502574
aI141764283
aI14355883
aI1501049730
aI301127939
aI133414920
aI18049517
aI138532350
aL2280024992L
aI1455959965
aI338588208
aI1524798422
aL2235759473L
aI1943699478
aI195009699
aI313285183
aI33214843
aI43950136
aI45967905
aI407122884
aI1322672845
aI59386332
aI105217332
aI429874309
aI859997696
aL2197954226L
aI59485000
aI27185428
aI1283527969
aI1219791493
aI83666769
aI481429204
aI463100829
aI1872819308
aI302128211
aL2189786654L
aI1526404644
aI98522869
aL2196874405L
aI424954204
aI15897179
aI606412013
aI1630954710
aL2165708558L
aL2186080387L
aI983827232
aI821002322
aI1919132659
aI14055112
aI227229522
aI37728789
aI1073953842
aI273294289
aI308576601
aI1342739178
aI372262602
aI1345702129
aI1186662457
aI17862108
aI218072162
aI1161717457
aI1379673444
aI495218803
aI780517974
aI86881662
aI383843175
aI31463168
aI1534919449
aI404341711
aI22510558
aI547900363
aI14307954
aI25885519
aI189541943
aI342400032
aI239128875
aasS'obj'
p7
ccopy_reg
_reconstructor
p8
(ctweepy.models
User
p9
c__builtin__
object
p10
Ntp11
Rp12
(dp13
S'follow_request_sent'
p14
NsS'has_extended_profile'
p15
I00
sS'profile_use_background_image'
p16
I01
sS'profile_sidebar_fill_color'
p17
VDDEEF6
p18
sS'id'
p19
I1968756600
sS'verified'
p20
I00
sS'entities'
p21
(dp22
Vurl
p23
(dp24
Vurls
p25
(lp26
(dp27
g23
Vhttp://t.co/BfhC9XAS8J
p28
sVindices
p29
(lp30
I0
aI22
asVexpanded_url
p31
Vhttp://www.thecontrarianinvestor.com/
p32
sVdisplay_url
p33
Vthecontrarianinvestor.com
p34
sassVdescription
p35
(dp36
g25
(lp37
(dp38
g23
Vhttp://t.co/lRplCEider
p39
sg29
(lp40
I66
aI88
asg31
Vhttp://forum.thecontrarianinvestor.com
p41
sg33
Vforum.thecontrarianinvestor.com
p42
sasssS'profile_image_url_https'
p43
Vhttps://pbs.twimg.com/profile_images/378800000613507436/236be7b48061cfe3cce07e1c716344b7_normal.png
p44
sS'_json'
p45
(dp46
Vfollow_request_sent
p47
NsVhas_extended_profile
p48
I00
sVprofile_use_background_image
p49
I01
sVdefault_profile_image
p50
I00
sVid
p51
I1968756600
sVprofile_background_image_url_https
p52
Vhttps://abs.twimg.com/images/themes/theme1/bg.png
p53
sVverified
p54
I00
sVprofile_text_color
p55
V333333
p56
sVprofile_image_url_https
p57
g44
sVprofile_sidebar_fill_color
p58
g18
sVentities
p59
g22
sVfollowers_count
p60
I121
sVprofile_sidebar_border_color
p61
VC0DEED
p62
sVid_str
p63
V1968756600
p64
sVprofile_background_color
p65
VC0DEED
p66
sVlisted_count
p67
I5
sVstatus
p68
(dp69
Vcontributors
p70
NsVtruncated
p71
I00
sVtext
p72
VDiscuss today reds and greens https://t.co/rcEzqn657a $CSIQ $SUNE $WATT $KNDI $FSLR $JKS $JASO $TSLA $TSL $SCTY $SPWR Has the sun gone down?
p73
sVin_reply_to_status_id
p74
Nsg51
L664107304153935872L
sVfavorite_count
p75
I0
sVsource
p76
V<a href="http://twitter.com/download/iphone" rel="nofollow">Twitter for iPhone</a>
p77
sVretweeted
p78
I00
sVcoordinates
p79
Nsg59
(dp80
Vsymbols
p81
(lp82
(dp83
g29
(lp84
I54
aI59
asg72
VCSIQ
p85
sa(dp86
g29
(lp87
I60
aI65
asg72
VSUNE
p88
sa(dp89
g29
(lp90
I66
aI71
asg72
VWATT
p91
sa(dp92
g29
(lp93
I72
aI77
asg72
VKNDI
p94
sa(dp95
g29
(lp96
I78
aI83
asg72
VFSLR
p97
sa(dp98
g29
(lp99
I84
aI88
asg72
VJKS
p100
sa(dp101
g29
(lp102
I89
aI94
asg72
VJASO
p103
sa(dp104
g29
(lp105
I95
aI100
asg72
VTSLA
p106
sa(dp107
g29
(lp108
I101
aI105
asg72
VTSL
p109
sa(dp110
g29
(lp111
I106
aI111
asg72
VSCTY
p112
sa(dp113
g29
(lp114
I112
aI117
asg72
VSPWR
p115
sasVuser_mentions
p116
(lp117
sVhashtags
p118
(lp119
sg25
(lp120
(dp121
g23
Vhttps://t.co/rcEzqn657a
p122
sg29
(lp123
I30
aI53
asg31
Vhttp://forum.thecontrarianinvestor.com/index.php
p124
sg33
Vforum.thecontrarianinvestor.com/index.php
p125
sassVin_reply_to_screen_name
p126
Nsg63
V664107304153935872
p127
sVretweet_count
p128
I0
sVin_reply_to_user_id
p129
NsVfavorited
p130
I00
sVgeo
p131
NsVin_reply_to_user_id_str
p132
NsVpossibly_sensitive
p133
I00
sVlang
p134
Ven
p135
sVcreated_at
p136
VTue Nov 10 15:48:14 +0000 2015
p137
sVin_reply_to_status_id_str
p138
NsVplace
p139
NssVis_translation_enabled
p140
I00
sVutc_offset
p141
NsVstatuses_count
p142
I295
sg35
VWriting articles and news on the emerging markets. Join our forum http://t.co/lRplCEider
p143
sVfriends_count
p144
I432
sVlocation
p145
V
p146
sVprofile_link_color
p147
V0084B4
p148
sVprofile_image_url
p149
Vhttp://pbs.twimg.com/profile_images/378800000613507436/236be7b48061cfe3cce07e1c716344b7_normal.png
p150
sVfollowing
p151
NsVgeo_enabled
p152
I00
sVprofile_background_image_url
p153
Vhttp://abs.twimg.com/images/themes/theme1/bg.png
p154
sVscreen_name
p155
Vtcnvestor
p156
sg134
Ven
p157
sVprofile_background_tile
p158
I00
sVfavourites_count
p159
I33
sVname
p160
VContrarian Investor
p161
sVnotifications
p162
Nsg23
Vhttp://t.co/BfhC9XAS8J
p163
sg136
VFri Oct 18 12:35:26 +0000 2013
p164
sVcontributors_enabled
p165
I00
sVtime_zone
p166
NsVprotected
p167
I00
sVdefault_profile
p168
I01
sVis_translator
p169
I00
ssS'contributors_enabled'
p170
I00
sS'profile_text_color'
p171
g56
sS'followers_count'
p172
I121
sS'profile_sidebar_border_color'
p173
g62
sS'id_str'
p174
g64
sS'default_profile_image'
p175
I00
sS'listed_count'
p176
I5
sS'status'
p177
g8
(ctweepy.models
Status
p178
g10
Ntp179
Rp180
(dp181
S'favorited'
p182
I00
sS'contributors'
p183
NsS'truncated'
p184
I00
sS'text'
p185
g73
sS'source_url'
p186
Vhttp://twitter.com/download/iphone
p187
sS'possibly_sensitive'
p188
I00
sS'in_reply_to_status_id'
p189
NsS'geo'
p190
Nsg19
L664107304153935872L
sS'favorite_count'
p191
I0
sS'lang'
p192
g135
sg21
g80
sS'created_at'
p193
cdatetime
datetime
p194
(S'\x07\xdf\x0b\n\x0f0\x0e\x00\x00\x00'
p195
tp196
Rp197
sg45
g69
sS'coordinates'
p198
NsS'in_reply_to_user_id_str'
p199
NsS'source'
p200
VTwitter for iPhone
p201
sS'in_reply_to_status_id_str'
p202
NsS'in_reply_to_screen_name'
p203
Nsg174
g127
sS'retweeted'
p204
I00
sS'place'
p205
NsS'retweet_count'
p206
I0
sS'in_reply_to_user_id'
p207
NsbsS'is_translation_enabled'
p208
I00
sS'utc_offset'
p209
NsS'statuses_count'
p210
I295
sS'description'
p211
g143
sS'friends_count'
p212
I432
sS'location'
p213
g146
sS'profile_link_color'
p214
g148
sS'profile_image_url'
p215
g150
sS'notifications'
p216
NsS'geo_enabled'
p217
I00
sS'profile_background_color'
p218
g66
sS'profile_background_image_url'
p219
g154
sS'screen_name'
p220
g156
sg192
g157
sg1
I00
sS'profile_background_tile'
p221
I00
sS'favourites_count'
p222
I33
sS'name'
p223
g161
sS'url'
p224
g163
sg193
g194
(S'\x07\xdd\n\x12\x0c#\x1a\x00\x00\x00'
p225
tp226
Rp227
sS'profile_background_image_url_https'
p228
g53
sS'time_zone'
p229
NsS'protected'
p230
I00
sS'default_profile'
p231
I01
sS'is_translator'
p232
I00
sbs.