(dp0
S'following'
p1
(lp2
(lp3
I17813899
aI33474655
aI19606528
aI39585367
aI35364351
aI6160742
aI270426592
aI811350
aI16753407
aI398271367
aI767
aI84358766
aI14227196
aI15976697
aI166990746
aI342894187
aI47438401
aI71048726
aI26551245
aI465965880
aI1570989690
aI14097951
aI18378044
aI28339843
aI19707587
aI14844867
aI20159596
aI44991594
aI1180440943
aI78400205
aL2347655606L
aI78523300
aI196168350
aI401625957
aI395568341
aI23176276
aI50769180
aI809760
aI19086859
aI10069172
aI112310624
aI824157
aI16892481
aI22056192
aI26609111
aI112445679
aI15764644
aI159950527
aI55117855
aI31080039
aI308573576
aI939091
aI153004670
aI59157393
aI304909941
aI236526490
aI93017945
aI20449296
aL2513339424L
aI381264102
aI44971686
aI20565284
aI1094620135
aI486139568
aI236953420
aI265066319
aI39879120
aI354948782
aI851632189
aI17473062
aI220016580
aL3657147557L
aL2832131263L
aI260211154
aI67609370
aI9917512
aI264418621
aI272729720
aI216224973
aI44771048
aI10807392
aI334921581
aI33235771
aI188343397
aL2315734417L
aI211785295
aI521906763
aI39114551
aI14348157
aI788363167
aI1314604885
aI22301442
aI24447643
aI3497941
aI11317392
aI15290381
aI15439395
aI19562228
aI15003446
aI512336426
aI20015311
aI18948541
aI18938646
aI6480682
aI268476335
aI1967275506
aI13670232
aI24705126
aI192913906
aL2460282691L
aI1465671968
aI313888969
aI761884866
aI196697822
aI131506459
aI1011882912
aI142742259
aI27530178
aI353789193
aI15281972
aI13837292
aI13334762
aI1092348054
aI397041712
aI1305940272
aI5699
aI1137701
aI174934382
aI468035482
aI44317593
aI294306372
aL2517988075L
aI604940737
aL2899566130L
aI707807954
aI281616947
aI16916799
aI183749519
aI1605
aI443492997
aI7433772
aI12901712
aI14225267
aI4939401
aI34235402
aI297988115
aI1157373200
aI14216123
aI20402945
aI39820738
aI18719020
aI18378349
aI22522178
aI24410456
aI16732770
aI14886375
aI357606935
aI161801527
aI15888142
aI1060578475
aI34042766
aI132961448
aI15808765
aI23059499
aI65466158
aI408602991
aI23095461
aI160948300
aI477088244
aI124690469
aI19988458
aI233364902
aI10810102
aI20348377
aI1446376116
aI308105256
aI71256932
aI1434251
aI15161984
aI312653402
aI18812572
aI19079396
aI11178902
aI18937279
aI15977209
aI112889546
aI104286459
aI168775611
aI59166197
aI41003633
aI33846451
aI19720395
aI228380252
aI989
aI36823
aI5120691
aI5988062
aI3291691
aI22783783
aI15446531
aI21982720
aI17004618
aI34743251
aI5746452
aI37570179
aI6708952
aL2244340904L
aI11348282
aI15635604
aI16573941
aI30043148
aI898301664
aI17220817
aI226231298
aI22026851
aL2778611606L
aI14503196
aI26576457
aI712767574
aI19654407
aI50428583
aI425134513
aI17239967
aI48001143
aI15072071
aI16532451
aI20078032
aI28145010
aI20268270
aI46804450
aI46393249
aI143477156
aI30857540
aI284112637
aI117237387
aI71567590
aI49753604
aI217284148
aI14159148
aI27860681
aI25098482
aI83466368
aI26538229
aI583938358
aI35810531
aI21872269
aI125481462
aI14372104
aI1629336979
aI63293032
aI15824531
aI96206540
aI113130846
aI49736166
aI6163252
aI29442313
aI168857946
aI27814665
aI15307727
aI24775410
aI745273
aI19224439
aI41814169
aI64844802
aI1963312058
aI33792634
aI18622869
aI5392522
aI5763262
aI17006157
aI914061
aI12
aI14840869
aI20727819
aI33956270
aL3233675462L
aI7087112
aI168679374
aI5225991
aI12804422
aI15057943
aI168264219
aI16727022
aI19066345
aI17057271
aI42226885
aI9729502
aI22255654
aI18949783
aI266717381
aI5251831
aI14202711
aI249842778
aI1364930179
aI47585529
aI14129793
aI403761570
aI15207668
aI7713202
aI17220934
aI451586190
aI12044602
aI449588356
aI316389142
aI115485051
aI16303106
aI17469289
aI60659498
aI34395888
aI11740902
aI18746171
aI23462787
aI30331404
aI15808647
aI13982132
aI260022048
aI15414807
aI17493187
aI16242081
aI15293504
aI14145296
aI216140356
aI224
aI8548612
aI15092452
aI1093090866
aI15007149
aI1615463502
aI18125335
aI334505082
aI89503894
aI18101713
aI35315865
aI15684633
aI299273962
aI28838219
aI186154646
aL3307929149L
aI117777690
aI237845487
aI6585222
aI880903614
aI94682674
aI15143478
aI158414847
aI17889970
aI1330457336
aI1156866230
aI14677919
aI58462957
aI185808487
aI10078
aI275686563
aI93957809
aI60642052
aI12480582
aI30205586
aI17503180
aI107225267
aI25073877
aI6730222
aI13565472
aI3840
aI60783724
aI316179038
aI1732829419
aI165622311
aI86626845
aI19416598
aI438540090
aI594666501
aI475988505
aI5943622
aI533529603
aI14710129
aI195826487
aI99008565
aI332617373
aI52672768
aI21312378
aI5252591
aI13298072
aI15291335
aI203162990
aI20255162
aI36947388
aI14497313
aI18086960
aI34676063
aI3291841
aI381289719
aL2648357839L
aI260377391
aI14541402
aI22938914
aI8453452
aI1135512301
aI88749392
aI754500
aI51205137
aI1236101
aI1121181
aI6023932
aI228772684
aI125480328
aL2347049341L
aI8287602
aI114782468
aI1536791610
aI17446359
aI14992263
aI1534167900
aI18856867
aI444096296
aI50393960
aI113047940
aI970207298
aI1339835893
aI250884927
aI813286
aI16581604
aI5695032
aI20571756
aI1636590253
aI1394399438
aI125499355
aI20793816
aI44196397
aI15492359
aI8161232
aI816653
aI14620190
aI14626738
aI16317406
aI12002802
aI20707966
aI17025613
aasS'followers'
p4
(lp5
(lp6
L3409658309L
aL4162257015L
aL3018009700L
aI1433427858
aL3268387628L
aI5514192
aL2713725350L
aI190589983
aL3855379817L
aL2513339424L
aL4143710146L
aI38214128
aL2250711530L
aL4124719174L
aI280826651
aL3089038623L
aI246112126
aL4068563068L
aI991098348
aL2542485780L
aL4027475693L
aI707807954
aI551791436
aI1710303973
aI109200080
aI477041987
aL3198480600L
aL3289206960L
aI33923443
aI1193872682
aL3051257856L
aL2466339073L
aL2849201961L
aL2724205764L
aI191682120
aI18467164
aI24782003
aI17468381
aI38615599
aI37119863
aI87632844
aI89632363
aI131023128
aI116767123
aI70702035
aI70702878
aI15745139
aI48694687
aI414066352
aI117306676
aI1243996794
aL3105260486L
aI794417840
aL2950529207L
aI17010913
aI226168087
aL3011419018L
aI880903614
aI20678384
aI9655952
aI6975832
aI16317406
aI17559578
aasS'obj'
p7
ccopy_reg
_reconstructor
p8
(ctweepy.models
User
p9
c__builtin__
object
p10
Ntp11
Rp12
(dp13
S'follow_request_sent'
p14
NsS'has_extended_profile'
p15
I00
sS'profile_use_background_image'
p16
I01
sS'profile_sidebar_fill_color'
p17
VDDEEF6
p18
sS'id'
p19
I20875598
sS'verified'
p20
I00
sS'entities'
p21
(dp22
Vdescription
p23
(dp24
Vurls
p25
(lp26
sssS'profile_image_url_https'
p27
Vhttps://pbs.twimg.com/profile_images/664921377242247168/3jwu3jsI_normal.jpg
p28
sS'_json'
p29
(dp30
Vfollow_request_sent
p31
NsVhas_extended_profile
p32
I00
sVprofile_use_background_image
p33
I01
sVdefault_profile_image
p34
I00
sVid
p35
I20875598
sVprofile_background_image_url_https
p36
Vhttps://abs.twimg.com/images/themes/theme1/bg.png
p37
sVverified
p38
I00
sVprofile_text_color
p39
V333333
p40
sVprofile_image_url_https
p41
g28
sVprofile_sidebar_fill_color
p42
g18
sVentities
p43
g22
sVfollowers_count
p44
I63
sVprofile_sidebar_border_color
p45
VC0DEED
p46
sVid_str
p47
V20875598
p48
sVprofile_background_color
p49
VC0DEED
p50
sVlisted_count
p51
I0
sVstatus
p52
(dp53
Vcontributors
p54
NsVtruncated
p55
I00
sVtext
p56
VRT @RichardDawkins: \u201c@CitizenZef: @afneil  Why haven't we seen mosques lit in tricolor? It's such an obvious opportunity missed.\u201d  Perhaps \u2026
p57
sVin_reply_to_status_id
p58
Nsg35
L666047341980438528L
sVfavorite_count
p59
I0
sVsource
p60
V<a href="http://twitter.com/#!/download/ipad" rel="nofollow">Twitter for iPad</a>
p61
sVretweeted
p62
I00
sVcoordinates
p63
Nsg43
(dp64
Vsymbols
p65
(lp66
sVuser_mentions
p67
(lp68
(dp69
g35
I15143478
sVindices
p70
(lp71
I3
aI18
asg47
V15143478
p72
sVscreen_name
p73
VRichardDawkins
p74
sVname
p75
VRichard Dawkins
p76
sa(dp77
g35
L3009698787L
sg70
(lp78
I21
aI32
asg47
V3009698787
p79
sg73
VCitizenZef
p80
sg75
VCitizenZef
p81
sa(dp82
g35
I136004952
sg70
(lp83
I34
aI41
asg47
V136004952
p84
sg73
Vafneil
p85
sg75
VAndrew Neil
p86
sasVhashtags
p87
(lp88
sg25
(lp89
ssVin_reply_to_screen_name
p90
Nsg47
V666047341980438528
p91
sVretweet_count
p92
I361
sVin_reply_to_user_id
p93
NsVfavorited
p94
I00
sVretweeted_status
p95
(dp96
Vlang
p97
Ven
p98
sg94
I00
sg43
(dp99
g65
(lp100
sg67
(lp101
(dp102
g35
L3009698787L
sg70
(lp103
I1
aI12
asg47
V3009698787
p104
sg73
VCitizenZef
p105
sg75
VCitizenZef
p106
sa(dp107
g35
I136004952
sg70
(lp108
I14
aI21
asg47
V136004952
p109
sg73
Vafneil
p110
sg75
VAndrew Neil
p111
sasg87
(lp112
sg25
(lp113
ssg54
Nsg55
I00
sg56
V\u201c@CitizenZef: @afneil  Why haven't we seen mosques lit in tricolor? It's such an obvious opportunity missed.\u201d  Perhaps some are? Are they?
p114
sVcreated_at
p115
VSun Nov 15 20:31:14 +0000 2015
p116
sg62
I00
sVin_reply_to_status_id_str
p117
Nsg63
NsVin_reply_to_user_id_str
p118
Nsg60
V<a href="http://tapbots.com/tweetbot" rel="nofollow">Tweetbot for i\u039fS</a>
p119
sg58
Nsg90
Nsg47
V665990464911355904
p120
sVplace
p121
Nsg92
I361
sVgeo
p122
Nsg35
L665990464911355904L
sg59
I479
sg93
Nssg122
Nsg118
Nsg97
Ven
p123
sg115
VMon Nov 16 00:17:15 +0000 2015
p124
sg117
Nsg121
NssVis_translation_enabled
p125
I00
sVutc_offset
p126
I-18000
sVstatuses_count
p127
I50
sg23
VInsomniac investor. Free-market economist. Political critic. Firm believer in American exceptionalism (despite occasional proof to the contrary).
p128
sVfriends_count
p129
I437
sVlocation
p130
VNew York, USA
p131
sVprofile_link_color
p132
V0084B4
p133
sVprofile_image_url
p134
Vhttp://pbs.twimg.com/profile_images/664921377242247168/3jwu3jsI_normal.jpg
p135
sVfollowing
p136
NsVgeo_enabled
p137
I01
sVprofile_background_image_url
p138
Vhttp://abs.twimg.com/images/themes/theme1/bg.png
p139
sg73
VnthAce
p140
sg97
Ven
p141
sVprofile_background_tile
p142
I00
sVfavourites_count
p143
I14
sg75
VnthAce
p144
sVnotifications
p145
NsVurl
p146
Nsg115
VSat Feb 14 22:24:43 +0000 2009
p147
sVcontributors_enabled
p148
I00
sVtime_zone
p149
VEastern Time (US & Canada)
p150
sVprotected
p151
I00
sVdefault_profile
p152
I01
sVis_translator
p153
I00
ssS'contributors_enabled'
p154
I00
sS'profile_text_color'
p155
g40
sS'followers_count'
p156
I63
sS'profile_sidebar_border_color'
p157
g46
sS'id_str'
p158
g48
sS'default_profile_image'
p159
I00
sS'listed_count'
p160
I0
sS'status'
p161
g8
(ctweepy.models
Status
p162
g10
Ntp163
Rp164
(dp165
S'favorited'
p166
I00
sS'contributors'
p167
NsS'truncated'
p168
I00
sS'text'
p169
g57
sS'source_url'
p170
Vhttp://twitter.com/#!/download/ipad
p171
sS'in_reply_to_status_id'
p172
NsS'geo'
p173
Nsg19
L666047341980438528L
sS'favorite_count'
p174
I0
sS'lang'
p175
g123
sS'retweeted_status'
p176
g8
(g162
g10
Ntp177
Rp178
(dp179
g166
I00
sg167
Nsg168
I00
sg169
g114
sg170
Vhttp://tapbots.com/tweetbot
p180
sg172
Nsg173
Nsg19
L665990464911355904L
sg174
I479
sg175
g98
sg21
g99
sS'created_at'
p181
cdatetime
datetime
p182
(S'\x07\xdf\x0b\x0f\x14\x1f\x0e\x00\x00\x00'
p183
tp184
Rp185
sg29
g96
sS'coordinates'
p186
NsS'in_reply_to_user_id_str'
p187
NsS'source'
p188
VTweetbot for i\u039fS
p189
sS'in_reply_to_status_id_str'
p190
NsS'in_reply_to_screen_name'
p191
Nsg158
g120
sS'retweeted'
p192
I00
sS'place'
p193
NsS'retweet_count'
p194
I361
sS'in_reply_to_user_id'
p195
Nsbsg21
g64
sg181
g182
(S'\x07\xdf\x0b\x10\x00\x11\x0f\x00\x00\x00'
p196
tp197
Rp198
sg29
g53
sg186
Nsg187
Nsg188
VTwitter for iPad
p199
sg190
Nsg191
Nsg158
g91
sg192
I00
sg193
Nsg194
I361
sg195
NsbsS'is_translation_enabled'
p200
I00
sS'utc_offset'
p201
I-18000
sS'statuses_count'
p202
I50
sS'description'
p203
g128
sS'friends_count'
p204
I437
sS'location'
p205
g131
sS'profile_link_color'
p206
g133
sS'profile_image_url'
p207
g135
sS'notifications'
p208
NsS'geo_enabled'
p209
I01
sS'profile_background_color'
p210
g50
sS'profile_background_image_url'
p211
g139
sS'screen_name'
p212
g140
sg175
g141
sg1
I00
sS'profile_background_tile'
p213
I00
sS'favourites_count'
p214
I14
sS'name'
p215
g144
sS'url'
p216
Nsg181
g182
(S'\x07\xd9\x02\x0e\x16\x18+\x00\x00\x00'
p217
tp218
Rp219
sS'profile_background_image_url_https'
p220
g37
sS'time_zone'
p221
g150
sS'protected'
p222
I00
sS'default_profile'
p223
I01
sS'is_translator'
p224
I00
sbs.