(dp0
S'following'
p1
(lp2
(lp3
L3235357328L
aI928490268
aI485886716
aL3111036146L
aI44422827
aL2180948154L
aI14372486
aI73147282
aI7144422
aI275686563
aI16581734
aI299204576
aL3386100407L
aI106502914
aI21204465
aI138346220
aI23471213
aI34999247
aI858051
aL2746927586L
aL2165857723L
aI18240655
aI1051521
aI40769340
aI14178641
aI14335810
aI12589692
aI30303206
aI18080577
aI16002550
aI14426860
aI12134322
aI13311832
aI69715248
aI15113693
aI4417131
aI112344735
aI16117109
aI7277372
aI1379607073
aI252180330
aI11940352
aI15716743
aL2250783949L
aI14337039
aI14335160
aI259775556
aI15118038
aI505198664
aL3362845479L
aI72872506
aI14857290
aI22841123
aI19381283
aI111668960
aL2825910070L
aI267116362
aI155580996
aI14701458
aL2832071580L
aI74286565
aL2899530255L
aI14458280
aI8820652
aI467066383
aI335435029
aI393962691
aI117738047
aI14238142
aI255784266
aI17850785
aI272983344
aI14086158
aL2402340588L
aI14511951
aI23033882
aI14597808
aI6527972
aL2919062514L
aI1344951
aI296979153
aI816653
aI41582924
aI115485051
aI601325498
aI104880142
aI15843638
aI37651954
aI21865640
aI7766112
aI41017528
aI1912641
aL2217099931L
aI20402945
aI22138134
aI5695632
aI110681694
aI142325093
aI1410173804
aI16448498
aI261984941
aI1951731
aI260741931
aI2232581
aI90597756
aI20536157
aI1322691
aI2899161
aI31925790
aI270106571
aI16328739
aI30135677
aI98917548
aI394389461
aI16223982
aI736333
aI118789989
aI348047208
aI597679575
aI2097571
aI742143
aI14270387
aI571403926
aI428333
aI347986225
aI1337785291
aI972651
aI44886859
aI31176167
aI3080761
aI15651700
aI20555005
aI14113411
aI51263711
aI1059801
aI101729382
aI23752651
aI48132589
aI747176222
aI1470517896
aI37371561
aI849574748
aI16280428
aI340339380
aI19789294
aI109902965
aI14140913
aI323012525
aI233930172
aI14369314
aI16365636
aI108342741
aI21411543
aI176360464
aI160845103
aI41890754
aI29493065
aI14336299
aasS'followers'
p4
(lp5
(lp6
I85773337
aL4192987395L
aL2158166215L
aI40607969
aL3904243944L
aL3904632212L
aL3904610953L
aL3235357328L
aI258795990
aL4138813756L
aL2507741466L
aI284031415
aL3964692558L
aL3507030137L
aL3153114604L
aL3264842945L
aI1380375433
aL3244671988L
aI815951162
aL3083425845L
aI106502914
aL3187894112L
aL3320565471L
aI390961385
aI218472334
aI193798371
aI119120011
aL2440096988L
aI576377441
aI228847896
aI4417131
aL2531622068L
aI100322440
aI259775556
aI5449422
aI330088998
aI19296305
aL3362845479L
aI22841123
aI111668960
aL2335606939L
aL2825910070L
aI313759359
aI485886716
aL3343137616L
aL2604068238L
aI155580996
aI26247371
aL3187401848L
aI19427242
aL3188886482L
aI216899104
aL3184509019L
aI1675216873
aL2402340588L
aL2899530255L
aI15532089
aL2915054312L
aI467066383
aI393962691
aI335435029
aI117738047
aI843383461
aL2762060950L
aL3092620678L
aL3130439871L
aI19571621
aI170290455
aL2919062514L
aL3023971151L
aL2941149541L
aI601325498
aI104880142
aL2589350306L
aL2860122332L
aL2825275206L
aL2713167582L
aL2776482350L
aI1193338556
aI16448498
aI30135677
aI261984941
aI125487973
aI799933692
aI1062393858
aI90597756
aI156958343
aL2375583018L
aI1621825634
aI118789989
aI1940880188
aI14270387
aL2347384848L
aL2450370704L
aI571403926
aI16565738
aI48132589
aI1459992361
aL2176009205L
aI299570117
aI16328739
aI394389461
aI1624862976
aI818198190
aI849574748
aI1410173804
aI747176222
aI1470517896
aI37371561
aI978343566
aI16280436
aI340339380
aI398117331
aI109902965
aI327574526
aI323012525
aI15048891
aI233930172
aI27168450
aI16559863
aasS'obj'
p7
ccopy_reg
_reconstructor
p8
(ctweepy.models
User
p9
c__builtin__
object
p10
Ntp11
Rp12
(dp13
S'follow_request_sent'
p14
I00
sS'has_extended_profile'
p15
I00
sS'profile_use_background_image'
p16
I00
sS'profile_sidebar_fill_color'
p17
V000000
p18
sS'id'
p19
I216817644
sS'verified'
p20
I00
sS'entities'
p21
(dp22
Vdescription
p23
(dp24
Vurls
p25
(lp26
sssS'profile_image_url_https'
p27
Vhttps://pbs.twimg.com/profile_images/545037040308740097/GjzgVnF1_normal.jpeg
p28
sS'_json'
p29
(dp30
Vfollow_request_sent
p31
I00
sVhas_extended_profile
p32
I00
sVprofile_use_background_image
p33
I00
sVdefault_profile_image
p34
I00
sVid
p35
I216817644
sVprofile_background_image_url_https
p36
Vhttps://abs.twimg.com/images/themes/theme1/bg.png
p37
sVverified
p38
I00
sVprofile_text_color
p39
V000000
p40
sVprofile_image_url_https
p41
g28
sVprofile_sidebar_fill_color
p42
g18
sVentities
p43
g22
sVfollowers_count
p44
I120
sVprofile_sidebar_border_color
p45
V000000
p46
sVid_str
p47
V216817644
p48
sVprofile_background_color
p49
V000000
p50
sVlisted_count
p51
I26
sVstatus
p52
(dp53
Vcontributors
p54
NsVtruncated
p55
I00
sVtext
p56
VRT @Inc: 10 Hottest Startup Ecosystems on the Planet @larrykim https://t.co/Eamtahh32j
p57
sVin_reply_to_status_id
p58
Nsg35
L666603113386811392L
sVfavorite_count
p59
I0
sVsource
p60
V<a href="http://twitter.com/download/iphone" rel="nofollow">Twitter for iPhone</a>
p61
sVretweeted
p62
I00
sVcoordinates
p63
Nsg43
(dp64
Vsymbols
p65
(lp66
sVuser_mentions
p67
(lp68
(dp69
g35
I16896485
sVindices
p70
(lp71
I3
aI7
asg47
V16896485
p72
sVscreen_name
p73
VInc
p74
sVname
p75
VInc.
p76
sa(dp77
g35
I17850785
sg70
(lp78
I53
aI62
asg47
V17850785
p79
sg73
Vlarrykim
p80
sg75
VLarry Kim
p81
sasVhashtags
p82
(lp83
sg25
(lp84
(dp85
Vurl
p86
Vhttps://t.co/Eamtahh32j
p87
sg70
(lp88
I63
aI86
asVexpanded_url
p89
Vhttp://bit.ly/1l25qci
p90
sVdisplay_url
p91
Vbit.ly/1l25qci
p92
sassVin_reply_to_screen_name
p93
Nsg47
V666603113386811392
p94
sVretweet_count
p95
I33
sVin_reply_to_user_id
p96
NsVfavorited
p97
I00
sVretweeted_status
p98
(dp99
g54
Nsg55
I00
sg56
V10 Hottest Startup Ecosystems on the Planet @larrykim https://t.co/Eamtahh32j
p100
sg58
Nsg35
L666599283999809536L
sg59
I30
sg60
V<a href="http://www.socialflow.com" rel="nofollow">SocialFlow</a>
p101
sg62
I00
sg63
Nsg43
(dp102
g65
(lp103
sg67
(lp104
(dp105
g35
I17850785
sg70
(lp106
I44
aI53
asg47
V17850785
p107
sg73
Vlarrykim
p108
sg75
VLarry Kim
p109
sasg82
(lp110
sg25
(lp111
(dp112
g86
Vhttps://t.co/Eamtahh32j
p113
sg70
(lp114
I54
aI77
asg89
Vhttp://bit.ly/1l25qci
p115
sg91
Vbit.ly/1l25qci
p116
sassg93
Nsg47
V666599283999809536
p117
sg95
I33
sg96
Nsg97
I00
sVgeo
p118
NsVin_reply_to_user_id_str
p119
NsVpossibly_sensitive
p120
I00
sVlang
p121
Ven
p122
sVcreated_at
p123
VTue Nov 17 12:50:28 +0000 2015
p124
sVin_reply_to_status_id_str
p125
NsVplace
p126
Nssg118
Nsg119
Nsg120
I00
sg121
Ven
p127
sg123
VTue Nov 17 13:05:41 +0000 2015
p128
sg125
Nsg126
NssVis_translation_enabled
p129
I00
sVutc_offset
p130
NsVstatuses_count
p131
I1262
sg23
VGlobal digital marketer. Love digital marketing, gadgets and sailing. Always looking for new and fun info. All opinions my own.
p132
sVfriends_count
p133
I158
sVlocation
p134
VWashington DC
p135
sVprofile_link_color
p136
V89C9FA
p137
sVprofile_image_url
p138
Vhttp://pbs.twimg.com/profile_images/545037040308740097/GjzgVnF1_normal.jpeg
p139
sVfollowing
p140
I00
sVgeo_enabled
p141
I01
sVprofile_banner_url
p142
Vhttps://pbs.twimg.com/profile_banners/216817644/1441113559
p143
sVprofile_background_image_url
p144
Vhttp://abs.twimg.com/images/themes/theme1/bg.png
p145
sg73
VMrFred_S
p146
sg121
Ven
p147
sVprofile_background_tile
p148
I00
sVfavourites_count
p149
I131
sg75
VFred S.
p150
sVnotifications
p151
I00
sg86
Nsg123
VWed Nov 17 20:14:57 +0000 2010
p152
sVcontributors_enabled
p153
I00
sVtime_zone
p154
NsVprotected
p155
I00
sVdefault_profile
p156
I00
sVis_translator
p157
I00
ssS'contributors_enabled'
p158
I00
sS'profile_text_color'
p159
g40
sS'followers_count'
p160
I120
sS'profile_sidebar_border_color'
p161
g46
sS'id_str'
p162
g48
sS'default_profile_image'
p163
I00
sS'listed_count'
p164
I26
sS'status'
p165
g8
(ctweepy.models
Status
p166
g10
Ntp167
Rp168
(dp169
S'favorited'
p170
I00
sS'contributors'
p171
NsS'truncated'
p172
I00
sS'text'
p173
g57
sS'source_url'
p174
Vhttp://twitter.com/download/iphone
p175
sS'possibly_sensitive'
p176
I00
sS'in_reply_to_status_id'
p177
NsS'geo'
p178
Nsg19
L666603113386811392L
sS'favorite_count'
p179
I0
sS'lang'
p180
g127
sS'retweeted_status'
p181
g8
(g166
g10
Ntp182
Rp183
(dp184
g170
I00
sg171
Nsg172
I00
sg173
g100
sg174
Vhttp://www.socialflow.com
p185
sg176
I00
sg177
Nsg178
Nsg19
L666599283999809536L
sg179
I30
sg180
g122
sg21
g102
sS'created_at'
p186
cdatetime
datetime
p187
(S'\x07\xdf\x0b\x11\x0c2\x1c\x00\x00\x00'
p188
tp189
Rp190
sg29
g99
sS'coordinates'
p191
NsS'in_reply_to_user_id_str'
p192
NsS'source'
p193
VSocialFlow
p194
sS'in_reply_to_status_id_str'
p195
NsS'in_reply_to_screen_name'
p196
Nsg162
g117
sS'retweeted'
p197
I00
sS'place'
p198
NsS'retweet_count'
p199
I33
sS'in_reply_to_user_id'
p200
Nsbsg21
g64
sg186
g187
(S'\x07\xdf\x0b\x11\r\x05)\x00\x00\x00'
p201
tp202
Rp203
sg29
g53
sg191
Nsg192
Nsg193
VTwitter for iPhone
p204
sg195
Nsg196
Nsg162
g94
sg197
I00
sg198
Nsg199
I33
sg200
NsbsS'is_translation_enabled'
p205
I00
sS'utc_offset'
p206
NsS'statuses_count'
p207
I1262
sS'description'
p208
g132
sS'friends_count'
p209
I158
sS'location'
p210
g135
sS'profile_link_color'
p211
g137
sS'profile_image_url'
p212
g139
sS'notifications'
p213
I00
sS'geo_enabled'
p214
I01
sS'profile_background_color'
p215
g50
sS'profile_banner_url'
p216
g143
sS'profile_background_image_url'
p217
g145
sS'screen_name'
p218
g146
sg180
g147
sg1
I00
sS'profile_background_tile'
p219
I00
sS'favourites_count'
p220
I131
sS'name'
p221
g150
sS'url'
p222
Nsg186
g187
(S'\x07\xda\x0b\x11\x14\x0e9\x00\x00\x00'
p223
tp224
Rp225
sS'profile_background_image_url_https'
p226
g37
sS'time_zone'
p227
NsS'protected'
p228
I00
sS'default_profile'
p229
I00
sS'is_translator'
p230
I00
sbs.