(dp0
S'following'
p1
(lp2
(lp3
I1488380389
aI572064418
aI25443684
aL3426014292L
aI39879120
aL2350639447L
aI594149589
aI233704756
aL3368161883L
aI412521232
aI230930518
aL3092658337L
aL3160263882L
aI1098753547
aL2841776049L
aI388234560
aL3044690631L
aI592252072
aI92367751
aI128500019
aI232381625
aL2305708183L
aI1289738107
aL3254642543L
aI142923924
aI1931321792
aL3221070092L
aL3288949749L
aI123125462
aI381307183
aL3095363482L
aL3365031411L
aI1394399438
aL3356879434L
aI48486244
aI89225644
aI105492055
aI1923879936
aI1861663298
aI1884728360
aL3223544316L
aI386770863
aL2439115746L
aL2204452435L
aI55561590
aI819738901
aL3095436401L
aL2885532683L
aI18422311
aI997816897
aI30755301
aI74835604
aI18378349
aI23344188
aI455366870
aI264671180
aI338330795
aL3010150749L
aL3197846393L
aL2992414321L
aL3254845367L
aL2411355302L
aL2852586606L
aL2489295018L
aI336116660
aI18948541
aI115485051
aI402876893
aL2203787994L
aI403855355
aI1128700334
aI989690640
aI996072554
aL2161913370L
aI94344568
aI406440494
aI94710817
aI21408148
aI69343575
aI59316702
aI881799805
aI163981466
aI102135528
aI24781829
aI29964675
aI238319766
aI23428171
aI523632806
aI246481013
aI28562317
aI201300044
aI1068487832
aI509379972
aI80600985
aI235208767
aI42932232
aI27557914
aI41239267
aI1944585612
aI517392967
aI169218052
aL2950059586L
aI553036368
aI404422077
aI14802885
aI11014272
aI28140646
aI26574283
aI215068830
aL3066075088L
aI104237736
aI119372054
aI21328656
aI1910129568
aI15281391
aI331677065
aI552228327
aL2244340904L
aI5746452
aI9534522
aI17031456
aL2976682505L
aL2748944294L
aI921464372
aI403598464
aL2343887288L
aI1489703012
aI5695632
aI14669951
aI1345580348
aI5943622
aL2525241896L
aI35961145
aI17049899
aI201891203
aI425938933
aI102754598
aI19717430
aI632341632
aI255996385
aI196796610
aI144906605
aI17226612
aI1352386519
aI57406450
aI7520262
aI84312619
aI112872946
aI273239400
aI69620713
aI20643764
aI817209
aI14277276
aI168857946
aI27814665
aI24775410
aI10078
aI14541402
aI110974198
aI74130577
aI44438256
aI305221233
aI575796665
aI1330741110
aI102094857
aI7455352
aI54619566
aI428653913
aI70498392
aI27162339
aI289556231
aL2496094172L
aI236953420
aI30820266
aL2227275901L
aL2286097290L
aI1612027483
aI17124991
aI308932264
aI274233761
aI222177693
aI508734872
aI282245814
aI18719020
aI19988458
aI28445389
aI87591850
aI84402174
aI44060322
aI49753604
aL2704486915L
aI8524892
aI983655260
aL2377114772L
aI247857712
aL2690637547L
aI326745108
aI18034541
aI72907355
aI15246621
aI250758475
aI160625399
aL2507495906L
aI869985108
aI288599365
aI60795617
aI68187970
aI102527566
aI49663664
aI26705006
aI1924310023
aI1040640698
aI71990526
aI334906414
aI455309376
aL2343468235L
aI273984441
aI76511168
aL2838318774L
aI21232827
aI551791436
aI551462946
aI783214
aL2752140987L
aI368344521
aI84444981
aL2248044978L
aI475853723
aI265245056
aI173203697
aI71777247
aI144778148
aI1243996794
aL2194840614L
aI51912109
aI65681636
aI15079601
aI713281530
aI60113926
aL2375681418L
aL2654494290L
aI1245955825
aI449681624
aL2174713091L
aI56564230
aI113108699
aI19019298
aL2656800877L
aI29781852
aI139858167
aI531892451
aI17442457
aI114776086
aI65063164
aI149102306
aI25262848
aL2364833484L
aI352925193
aI1347925129
aL2389718366L
aL2296501071L
aI91321449
aI239358819
aI23059499
aI21354868
aI1310354202
aI32778531
aI192993192
aL2196092280L
aI726322958
aI27525796
aI714051110
aI21917683
aI210855604
aI132601097
aI84623395
aI19739279
aI27922928
aI1169876648
aI1736128130
aI239946717
aI17330459
aI37284991
aI264370502
aI466333756
aI550663732
aI203652149
aI455824771
aI302545862
aI430841130
aI18944615
aI237591901
aI193542064
aI100024370
aI324948099
aI874438663
aL2394624246L
aI1705766478
aL2149877280L
aI26775476
aI19143910
aI23390520
aI950517078
aI275681725
aI19400611
aL2463371525L
aI545618159
aI17841130
aL2334614718L
aI136842204
aL2565732337L
aI24227424
aI37011010
aI286965059
aI629573379
aL2415929022L
aI1959888277
aL2343493700L
aI1135026110
aL2544278864L
aI170835143
aI36359651
aI34713362
aI53215424
aI14836197
aI17549691
aI61875147
aI23756134
aI16573941
aI475524030
aI52166809
aI61342056
aI29748372
aI43111757
aI1680622674
aL2421579176L
aI43224016
aI1541544132
aI23125257
aI52849759
aI140912249
aI211184868
aI587814366
aI389551062
aI219370252
aI1370308412
aI309885430
aI3705681
aI51932290
aI21323268
aI21778391
aI37718217
aI126640430
aI1950242234
aI18856867
aI19337489
aI208155240
aI384445331
aI742143
aI24443284
aI36204277
aI15485441
aI163559269
aI13298072
aI263197731
aI790309974
aI114782468
aI61292961
aI14115408
aI397230151
aL2173999435L
aI3108351
aL2451406717L
aI47678782
aI20457806
aI32523291
aI34010976
aI62465691
aI16150688
aI375980238
aI243801041
aI16827148
aI227070376
aI39264827
aI1347071545
aI292098928
aI744650100
aI309728693
aI30217291
aI106498703
aI306850457
aI326315947
aI24578794
aI16451932
aI39853973
aI300338214
aI14292717
aI271211220
aI22522178
aI16732770
aI15568127
aI5402612
aI28162128
aI14276189
aI51241574
aI1652541
aI91478624
aI15108702
aI23484039
aI20449296
aI1636590253
aI15241557
aI1059194370
aI1071419095
aI8161232
aI1364930179
aI44196397
aI19546277
aI1534167900
aI14216123
aI624413
aasS'followers'
p4
(lp5
(lp6
L2860845668L
aI1583359764
aI250362250
aL3241420300L
aL3865626192L
aL2350639447L
aL3232139349L
aL3220105745L
aL2206634780L
aL3222648316L
aI141453630
aL3227365401L
aI26203048
aI388234560
aL2172423304L
aI592252072
aI128500019
aI232381625
aI517392967
aL2305708183L
aL3254642543L
aL3221070092L
aL3121378114L
aI48486244
aI1051076034
aI105492055
aL3311093805L
aL2439115746L
aL2203771892L
aL3010150749L
aL2992414321L
aL2411355302L
aI1529917477
aL2855170383L
aL2489295018L
aI402876893
aL3154680888L
aL3154203882L
aL2360457564L
aL2335299684L
aL3154549896L
aL3164849319L
aL3155343993L
aL3165006929L
aL3217423593L
aI42932232
aI861420990
aL2950059586L
aL2748944294L
aI1910129568
aL2343887288L
aI1489703012
aL2484513824L
aL2525241896L
aL3016884012L
aL2361212156L
aL2704486915L
aI869985108
aI805230144
aI68187970
aL2753440416L
aL2914112182L
aL2802325623L
aI1924310023
aI26705006
aL2838318774L
aI1620449059
aL2897209176L
aI84444981
aL2194840614L
aL2375681418L
aL2656800877L
aL2490542179L
aI21354868
aI1522097683
aI989768389
aL2398035865L
aI1475988331
aL2149877280L
aL2394624246L
aI874438663
aI1705766478
aL2755297353L
aL2732834915L
aL2571452646L
aL2772753588L
aI91321449
aL2676308326L
aI629573379
aI170835143
aL2565732337L
aI43111757
aI68973300
aI1541544132
aI1950242234
aI126640430
aL2421579176L
aasS'obj'
p7
ccopy_reg
_reconstructor
p8
(ctweepy.models
User
p9
c__builtin__
object
p10
Ntp11
Rp12
(dp13
S'follow_request_sent'
p14
NsS'has_extended_profile'
p15
I00
sS'profile_use_background_image'
p16
I01
sS'profile_sidebar_fill_color'
p17
VDDEEF6
p18
sS'id'
p19
L2179442924L
sS'verified'
p20
I00
sS'entities'
p21
(dp22
Vdescription
p23
(dp24
Vurls
p25
(lp26
sssS'profile_image_url_https'
p27
Vhttps://pbs.twimg.com/profile_images/556960424059359233/SAqDSrX3_normal.jpeg
p28
sS'_json'
p29
(dp30
Vfollow_request_sent
p31
NsVhas_extended_profile
p32
I00
sVprofile_use_background_image
p33
I01
sVdefault_profile_image
p34
I00
sVid
p35
L2179442924L
sVprofile_background_image_url_https
p36
Vhttps://abs.twimg.com/images/themes/theme1/bg.png
p37
sVverified
p38
I00
sVprofile_text_color
p39
V333333
p40
sVprofile_image_url_https
p41
g28
sVprofile_sidebar_fill_color
p42
g18
sVentities
p43
g22
sVfollowers_count
p44
I97
sVprofile_sidebar_border_color
p45
VC0DEED
p46
sVid_str
p47
V2179442924
p48
sVprofile_background_color
p49
VC0DEED
p50
sVlisted_count
p51
I3
sVstatus
p52
(dp53
Vlang
p54
Ven
p55
sVfavorited
p56
I00
sg43
(dp57
Vsymbols
p58
(lp59
(dp60
Vindices
p61
(lp62
I132
aI137
asVtext
p63
VGILD
p64
sasVuser_mentions
p65
(lp66
sVhashtags
p67
(lp68
sg25
(lp69
ssVcontributors
p70
NsVtruncated
p71
I00
sg63
VAgain calling any activist worth a damn. A biotech trading at 9x and probably by the end of next week 7x. You've got an easy double\u000a$GILD
p72
sVcreated_at
p73
VSun Nov 15 20:33:59 +0000 2015
p74
sVretweeted
p75
I00
sVin_reply_to_status_id_str
p76
NsVcoordinates
p77
NsVin_reply_to_user_id_str
p78
NsVsource
p79
V<a href="http://itunes.apple.com/us/app/twitter/id409789998?mt=12" rel="nofollow">Twitter for Mac</a>
p80
sVin_reply_to_status_id
p81
NsVin_reply_to_screen_name
p82
Nsg47
V665991152852533249
p83
sVplace
p84
NsVretweet_count
p85
I0
sVgeo
p86
Nsg35
L665991152852533249L
sVfavorite_count
p87
I0
sVin_reply_to_user_id
p88
NssVis_translation_enabled
p89
I00
sVutc_offset
p90
NsVstatuses_count
p91
I554
sg23
V
p92
sVfriends_count
p93
I421
sVlocation
p94
g92
sVprofile_link_color
p95
V0084B4
p96
sVprofile_image_url
p97
Vhttp://pbs.twimg.com/profile_images/556960424059359233/SAqDSrX3_normal.jpeg
p98
sVfollowing
p99
NsVgeo_enabled
p100
I00
sVprofile_banner_url
p101
Vhttps://pbs.twimg.com/profile_banners/2179442924/1421624740
p102
sVprofile_background_image_url
p103
Vhttp://abs.twimg.com/images/themes/theme1/bg.png
p104
sVscreen_name
p105
VZRohelier
p106
sg54
Ven
p107
sVprofile_background_tile
p108
I00
sVfavourites_count
p109
I68
sVname
p110
VZach Rohelier
p111
sVnotifications
p112
NsVurl
p113
Nsg73
VThu Nov 07 06:00:37 +0000 2013
p114
sVcontributors_enabled
p115
I00
sVtime_zone
p116
NsVprotected
p117
I00
sVdefault_profile
p118
I01
sVis_translator
p119
I00
ssS'contributors_enabled'
p120
I00
sS'profile_text_color'
p121
g40
sS'followers_count'
p122
I97
sS'profile_sidebar_border_color'
p123
g46
sS'id_str'
p124
g48
sS'default_profile_image'
p125
I00
sS'listed_count'
p126
I3
sS'status'
p127
g8
(ctweepy.models
Status
p128
g10
Ntp129
Rp130
(dp131
S'favorited'
p132
I00
sS'contributors'
p133
NsS'truncated'
p134
I00
sS'text'
p135
VAgain calling any activist worth a damn. A biotech trading at 9x and probably by the end of next week 7x. You've got an easy double\u000a$GILD
p136
sS'source_url'
p137
Vhttp://itunes.apple.com/us/app/twitter/id409789998?mt=12
p138
sS'in_reply_to_status_id'
p139
NsS'geo'
p140
Nsg19
L665991152852533249L
sS'favorite_count'
p141
I0
sS'lang'
p142
g55
sg21
g57
sS'created_at'
p143
cdatetime
datetime
p144
(S'\x07\xdf\x0b\x0f\x14!;\x00\x00\x00'
p145
tp146
Rp147
sg29
g53
sS'coordinates'
p148
NsS'in_reply_to_user_id_str'
p149
NsS'source'
p150
VTwitter for Mac
p151
sS'in_reply_to_status_id_str'
p152
NsS'in_reply_to_screen_name'
p153
Nsg124
g83
sS'retweeted'
p154
I00
sS'place'
p155
NsS'retweet_count'
p156
I0
sS'in_reply_to_user_id'
p157
NsbsS'is_translation_enabled'
p158
I00
sS'utc_offset'
p159
NsS'statuses_count'
p160
I554
sS'description'
p161
g92
sS'friends_count'
p162
I421
sS'location'
p163
g92
sS'profile_link_color'
p164
g96
sS'profile_image_url'
p165
g98
sS'notifications'
p166
NsS'geo_enabled'
p167
I00
sS'profile_background_color'
p168
g50
sS'profile_banner_url'
p169
g102
sS'profile_background_image_url'
p170
g104
sS'screen_name'
p171
g106
sg142
g107
sg1
I00
sS'profile_background_tile'
p172
I00
sS'favourites_count'
p173
I68
sS'name'
p174
g111
sS'url'
p175
Nsg143
g144
(S'\x07\xdd\x0b\x07\x06\x00%\x00\x00\x00'
p176
tp177
Rp178
sS'profile_background_image_url_https'
p179
g37
sS'time_zone'
p180
NsS'protected'
p181
I00
sS'default_profile'
p182
I01
sS'is_translator'
p183
I00
sbs.