(dp0
S'following'
p1
(lp2
(lp3
L3371157738L
aI122166624
aL3315134870L
aL2654428027L
aL4083586037L
aI494514667
aL4061650355L
aI90970076
aI410668102
aL3225783793L
aL3285950947L
aL2709718838L
aL2277725840L
aI66587284
aL4056356416L
aL3131561907L
aI1279315999
aI1279330326
aI237211692
aL3605158815L
aL3241374928L
aL3292628242L
aI119161370
aI40533912
aI17010198
aL2890616938L
aL3334692641L
aL3331100733L
aL3675148759L
aL2328233864L
aL2513339424L
aL2338019275L
aI1092348054
aI79809731
aL3386531654L
aL2203724526L
aL3181068384L
aI296253096
aI15812297
aI48502545
aL3046715085L
aI124631286
aI138206946
aL3073241957L
aI582009543
aL2307828661L
aI582674212
aI97487983
aI346782326
aL3536309362L
aI603473862
aL3152235234L
aI48158432
aI374209360
aI189652312
aL2203759704L
aL3395170581L
aL3042237100L
aL2429960011L
aL2218295984L
aI345486915
aI149326293
aI33689651
aI29479859
aI15766628
aI79962986
aI23449774
aI36665547
aI15829003
aI21021891
aI55940991
aI24536705
aI61216579
aI130864185
aI1531007624
aI27881452
aI1329705271
aL3439428635L
aL2203436131L
aL2824289729L
aL2856121255L
aL2842775182L
aL2385864392L
aL2758791493L
aL2906862160L
aL2336416399L
aI73725383
aL2305708183L
aL2525374230L
aL2524992199L
aI32258396
aI1074134694
aI138182116
aI110974198
aI34681960
aI233704756
aI174256096
aL3025602553L
aI1013824788
aI92639420
aL3140096339L
aL3345502036L
aI1635769368
aI915931760
aL2848286238L
aL3044526195L
aL3297007591L
aL3150638258L
aL3297213674L
aL2936316954L
aL2933892210L
aI98522869
aI15298399
aI184391585
aL2290523166L
aL3300549860L
aI843798122
aL2457018674L
aL2888351556L
aL2888430895L
aI28610770
aL2813541090L
aI843706801
aI394776692
aL3120826990L
aL3253285746L
aI403845894
aI45181145
aI1530916794
aL3064975762L
aL3064970422L
aL2269407732L
aL2678554854L
aI1622898439
aL2218267860L
aL2177130499L
aL3278032573L
aI1861663298
aL2255893897L
aI349979855
aI240360661
aL3347307435L
aL3220681803L
aL2705842850L
aL2306376410L
aI1126671672
aL3184637045L
aL2203791636L
aL3049694072L
aL2783545616L
aI459051859
aL3353740846L
aI16273972
aI100767876
aI350425853
aI148849393
aI14519349
aI1879355582
aL2945959759L
aL2937577448L
aI132262661
aI305571630
aI1383286602
aL2207715150L
aI305697266
aL2985760145L
aL2152347661L
aL3068657669L
aI826608434
aL2686100426L
aI612896910
aI57111966
aL2454124671L
aI240459155
aI41044925
aI55020919
aL3168670344L
aL2864750405L
aL2862966903L
aL2529508861L
aL2292336366L
aL2383721767L
aI891377682
aL2888367854L
aI1358943476
aL2709971630L
aI1656509761
aL2709507548L
aL2862125872L
aI207027983
aI705918727
aI1323679286
aL3154923455L
aI558856151
aI60478078
aL2894922343L
aL2995645414L
aI788333744
aL2893076684L
aL2516677369L
aL3222503930L
aL2728178049L
aL2613214742L
aL2777247285L
aL2678090893L
aI134816047
aI475309726
aI10381282
aL2974254779L
aL2370750924L
aI959564347
aI1238393161
aL2751158965L
aI486541519
aI1888434120
aL3063523297L
aL3047142632L
aL3186095407L
aL3032714363L
aL3023692764L
aL2988344304L
aL3139242475L
aL2847077003L
aI1601587044
aL3104596321L
aI1625591576
aL3039670927L
aI85244035
aI343228492
aI53404436
aL2650458288L
aI306550555
aL3071724644L
aL2459653010L
aL2622819371L
aI338155098
aL3013681068L
aL2647347524L
aL2549647958L
aL2832899953L
aL2695974361L
aL2642438760L
aI1108695031
aL2563734218L
aL2495275250L
aL3004614841L
aL2742010921L
aL2148974662L
aL2267146754L
aL2181493465L
aL2904931027L
aL2913040362L
aL3132764420L
aL2957101238L
aL2921254921L
aL2976137238L
aL2664933530L
aL3025531153L
aL3151832726L
aL2625176466L
aL3024998400L
aL2570722760L
aI16004376
aL2848595214L
aL3151926529L
aL2851644547L
aI1464779923
aL3018809793L
aL2846409211L
aI970161186
aL2772703106L
aL2906301805L
aI350936512
aL2849743602L
aL2578774956L
aL2999259350L
aL3008846515L
aL3045175564L
aL2777780881L
aL2216285619L
aL2637944947L
aI1328750544
aL2834221130L
aL2857967952L
aL2977289622L
aL2953396614L
aI56050543
aI312392334
aL2929534244L
aL2931833648L
aL2830051135L
aI1112887076
aI34146256
aL2978409789L
aI234818876
aI260230248
aI47336979
aI1895001812
aI344801735
aL2900376760L
aL2347628238L
aI717956449
aI15756049
aL2716627642L
aI435399784
aL3143289078L
aL2458955186L
aI1272158473
aI546355411
aL2409610836L
aL3103912093L
aI226683456
aL2710449174L
aI553557533
aI337157458
aI157151178
aL2429587027L
aL2369512026L
aI112057151
aL2985928478L
aL2279249923L
aL2343702917L
aL2941400605L
aL2421279036L
aL2396533387L
aI184867676
aL2445382852L
aL2944278482L
aI415579386
aI406289145
aI21896677
aI203981879
aI84444981
aL2967584408L
aI21328656
aL2898949706L
aI453548744
aL2161913370L
aI468523252
aI83786013
aL3020510002L
aI107087487
aL2315058284L
aI15764136
aI624413
aI19546277
aI383513910
aI71041945
aI570970181
aI113084080
aI1458487783
aL2236623656L
aI20449296
aI327484803
aI30012714
aI112696718
aL2966603206L
aL2588002008L
aL2857553693L
aL2896920065L
aL2942240752L
aI571172086
aI123008185
aL2461907034L
aL3004055509L
aL2525306964L
aI451136428
aL2921587233L
aI1338753392
aI17796143
aL2986449512L
aI1647613771
aI232342189
aL2780748414L
aL2796607277L
aI221467449
aI312480764
aL2233614128L
aI1449000090
aI1684763856
aI15444539
aI1547081714
aI108410099
aI54306674
aI608471660
aI1636340558
aL2923684831L
aL2919006514L
aI958558344
aI452151127
aI216270430
aL2788588083L
aL2600361548L
aI21924974
aL2899626580L
aI517392967
aL2831153890L
aI127967449
aI611817117
aL2402568709L
aL2905486971L
aL2917238896L
aL2394624246L
aI231805608
aL2492974551L
aL2773032194L
aI249246098
aL2388064016L
aL2674194270L
aI163582516
aI328404789
aI264264597
aL2910343230L
aL2891314043L
aI26705006
aI1633044060
aL2906278572L
aI588559501
aI29015085
aI30249176
aI41635723
aL2330244020L
aL2818548076L
aL2753440416L
aI420284703
aI773574270
aI51435706
aL2726482783L
aL2704486915L
aL2794401247L
aI1938663272
aL2516029806L
aI19405407
aI305859646
aI1598866891
aI168423969
aL2861198574L
aI375266631
aL2517112130L
aL2869658352L
aI453193289
aL2835715198L
aL2567743374L
aI53668939
aL2209606452L
aI1858497169
aI39337663
aI29165172
aL2704494301L
aL2831885138L
aI19386403
aL2551017074L
aI1873053276
aL2748517662L
aL2825166354L
aI604701612
aL2263595983L
aL2796895375L
aI799100228
aI709430142
aI21323268
aI275822906
aL2558653159L
aL2793235608L
aL2695761769L
aI18639734
aI29663279
aL2745296607L
aI47476168
aI151079975
aL2253665083L
aL2625984725L
aI23484734
aI369132893
aL2573286602L
aI394642779
aI60769724
aL2344364964L
aI85983397
aL2758323467L
aL2413576753L
aL2682663512L
aI380751651
aL2519254622L
aI14409222
aI860037217
aL2463766033L
aI604610969
aI130701362
aL2734160297L
aL2314151491L
aL2750381484L
aI151156781
aI156482440
aI1914619908
aI17336507
aI150986578
aI32359921
aI34713362
aI28140646
aI50418426
aI18949452
aI67358777
aI14800270
aL2466633722L
aI196296812
aI517168840
aL2172423304L
aL2580518930L
aL2631197960L
aL2586354205L
aL2557652040L
aI25762392
aI1700583565
aI4898501
aI575098386
aL2269081728L
aI421794008
aI271915777
aI104531614
aL2476046870L
aI16816021
aL2149877280L
aL2732425088L
aI1652541
aI292777349
aI13131362
aI1705766478
aI417927225
aI121158213
aL2675256871L
aL2671574088L
aI55237566
aI1726654345
aI5988062
aI3108351
aI91478624
aL2585002927L
aI604616126
aL2559876024L
aI604281093
aL2601096134L
aI1581463381
aI874438663
aL2332404864L
aI1429128224
aI17986973
aL2212106108L
aasS'followers'
p4
(lp5
(lp6
L3142984964L
aL3371157738L
aI122166624
aL3315134870L
aL2654428027L
aL4083586037L
aI494514667
aL4061650355L
aI90970076
aI410668102
aL3225783793L
aL3285950947L
aL2709718838L
aL2277725840L
aI66587284
aL4056356416L
aL3131561907L
aI237211692
aL3605158815L
aL3241374928L
aL3292628242L
aI1279330326
aI1279315999
aI119161370
aL2890616938L
aI17010198
aL3334692641L
aL3331100733L
aL3675148759L
aL2328233864L
aL2338019275L
aL2513339424L
aI1092348054
aI79809731
aL3386531654L
aL2203724526L
aL3181068384L
aI296253096
aI15812297
aL3046715085L
aI124631286
aL3073241957L
aI138206946
aI582009543
aL2307828661L
aI97487983
aI582674212
aI603473862
aL3536309362L
aL3152235234L
aL3395170581L
aL2203759704L
aL2892436285L
aL2218295984L
aL3042237100L
aL2429960011L
aI345486915
aI149326293
aI1531007624
aI1329705271
aL3439428635L
aL2203436131L
aL2824289729L
aL2856121255L
aL2842775182L
aI605425389
aL2385864392L
aL2305708183L
aI73725383
aL2758791493L
aL2906862160L
aL2336416399L
aI32258396
aL2524992199L
aL2525374230L
aI1074134694
aL3025602553L
aL3432378327L
aI1013824788
aI1635769368
aL3345502036L
aI915931760
aL3140096339L
aL2848286238L
aL3044526195L
aL3150638258L
aL3297007591L
aL3297213674L
aI98522869
aL2933892210L
aL2936316954L
aL3300549860L
aI184391585
aL2290523166L
aI843798122
aL2888430895L
aL2888351556L
aI28610770
aL2813541090L
aI394776692
aL3120826990L
aL3253285746L
aI403845894
aI45181145
aI1530916794
aL3376601884L
aL2678554854L
aL2177130499L
aL2269407732L
aL2218267860L
aI1622898439
aL3064975762L
aL3064970422L
aL3278032573L
aI1861663298
aL2255893897L
aI349979855
aI240360661
aI367662868
aL3220681803L
aL2705842850L
aL3347307435L
aL2306376410L
aI1126671672
aL3184637045L
aL2203791636L
aL3049694072L
aL3267747619L
aL2783545616L
aL3353740846L
aI459051859
aL3350909326L
aI16273972
aI350425853
aI100767876
aI1879355582
aI14519349
aI148849393
aL2945959759L
aL2937577448L
aI132262661
aI1383286602
aL2207715150L
aI305571630
aL2985760145L
aL2152347661L
aI305697266
aL3068657669L
aL2686100426L
aI826608434
aL2454124671L
aI41044925
aL2529508861L
aL2864750405L
aL2862966903L
aL2292336366L
aI891377682
aL2888367854L
aL2383721767L
aI1358943476
aI1656509761
aL2709971630L
aL2709507548L
aL3168670344L
aL2862125872L
aI207027983
aI705918727
aI1323679286
aL3154923455L
aI558856151
aI60478078
aL2995645414L
aI788333744
aL2894922343L
aL2893076684L
aL2516677369L
aL3222503930L
aL2728178049L
aL2613214742L
aL2678090893L
aL2777247285L
aI959564347
aL2370750924L
aL2974254779L
aI486541519
aL3047142632L
aL2751158965L
aI1888434120
aL3063523297L
aL3023692764L
aL3032714363L
aL3186095407L
aL2988344304L
aL3139242475L
aI343228492
aI53404436
aI85244035
aL3039670927L
aL2495275250L
aI1625591576
aI1601587044
aL3104596321L
aL2622819371L
aL2650458288L
aL2549647958L
aI338155098
aL2459653010L
aI1108695031
aL2647347524L
aL2832899953L
aL2695974361L
aI306550555
aL3013681068L
aL3071724644L
aL2642438760L
aI1238393161
aL2563734218L
aL3004614841L
aL2570722760L
aL3024998400L
aL2625176466L
aL3151832726L
aL3025531153L
aL2664933530L
aL2976137238L
aL2957101238L
aL2921254921L
aL3132764420L
aL2913040362L
aL2148974662L
aL2267146754L
aL2904931027L
aL2181493465L
aL2742010921L
aL2848595214L
aL3008846515L
aL3151926529L
aL2851644547L
aI1464779923
aL3018809793L
aL3091311876L
aL3045175564L
aL2216285619L
aL3141186452L
aI350936512
aL2906301805L
aL2772703106L
aL2777780881L
aI970161186
aL2849743602L
aL2578774956L
aL2999259350L
aI376020193
aI56050543
aI312392334
aL2857967952L
aL2637944947L
aI1328750544
aL2953396614L
aL2834221130L
aL2977289622L
aL2931833648L
aL2929534244L
aL2830051135L
aI1112887076
aI47336979
aI234818876
aI34146256
aI260230248
aL2978409789L
aI1895001812
aI344801735
aL2900376760L
aI717956449
aI15756049
aL2347628238L
aL3123028655L
aI435399784
aL2716627642L
aL3143289078L
aI1272158473
aL3103912093L
aL2409610836L
aL2710449174L
aI553557533
aI112057151
aL2429587027L
aL2369512026L
aI337157458
aI226683456
aI157151178
aL2941400605L
aL2421279036L
aL2445382852L
aI184867676
aL2985928478L
aL2279249923L
aL2396533387L
aL2343702917L
aL2944278482L
aI415579386
aI21896677
aI406289145
aL2366391422L
aI203981879
aI480063071
aI84444981
aL2890906552L
aI453548744
aL2898949706L
aL2161913370L
aI468523252
aI83786013
aL3020510002L
aI107087487
aL2315058284L
aI383513910
aI71041945
aI570970181
aI113084080
aI1458487783
aL2236623656L
aI30012714
aI112696718
aL2966603206L
aL2896920065L
aL2857553693L
aL2942240752L
aI571172086
aI123008185
aL2461907034L
aL3004055509L
aL2525306964L
aI451136428
aL2921587233L
aI1338753392
aI17796143
aI1647613771
aL2986449512L
aI232342189
aL2780748414L
aL2796607277L
aI221467449
aL2233614128L
aI1684763856
aI1449000090
aI15444539
aI1547081714
aI108410099
aI54306674
aI608471660
aI1636340558
aI958558344
aI452151127
aL2923684831L
aI216270430
aL2919006514L
aI312480764
aL2788588083L
aL2600361548L
aI21924974
aL2899626580L
aI517392967
aL2831153890L
aI127967449
aI611817117
aL2402568709L
aL2905486971L
aL2917238896L
aL2394624246L
aL2773032194L
aL2492974551L
aI249246098
aL2388064016L
aL2674194270L
aI163582516
aI328404789
aI264264597
aL2910343230L
aI26705006
aL2891314043L
aI1633044060
aI588559501
aL2906278572L
aI29015085
aI30249176
aL2818548076L
aL2330244020L
aL2753440416L
aI420284703
aI773574270
aI51435706
aL2726482783L
aL2704486915L
aL2794401247L
aI1938663272
aL2516029806L
aI19405407
aI305859646
aI1598866891
aI805230144
aI168423969
aL2861198574L
aL2517112130L
aL2869658352L
aI1659939174
aI453193289
aL2567743374L
aI53668939
aL2835715198L
aL2209606452L
aI29165172
aL2704494301L
aL2831885138L
aL2551017074L
aI1873053276
aL2748517662L
aL2263595983L
aI604701612
aL2825166354L
aL2796895375L
aI709430142
aI799100228
aL2573286602L
aI275822906
aL2558653159L
aL2793235608L
aL2695761769L
aI29663279
aI47476168
aL2745296607L
aI151079975
aL2253665083L
aI85983397
aI369132893
aI23484734
aL2625984725L
aI604610969
aI394642779
aL2344364964L
aI60769724
aL2758323467L
aL2413576753L
aL2682663512L
aI380751651
aI860037217
aL2463766033L
aL2466633722L
aI130701362
aL2734160297L
aI1705766478
aI1700583565
aL2314151491L
aI151156781
aI156482440
aI150986578
aI17336507
aI1914619908
aI50418426
aL2750381484L
aL2586354205L
aL2557652040L
aI196296812
aI517168840
aI25762392
aL2580518930L
aL2172423304L
aL2588002008L
aL2631197960L
aI575098386
aI271915777
aI421794008
aL2269081728L
aI104531614
aL2476046870L
aL2149877280L
aL2732425088L
aI13131362
aI417927225
aI121158213
aL2671574088L
aL2675256871L
aL2608197973L
aL2601096134L
aL2559876024L
aI604281093
aI604616126
aL2585002927L
aI874438663
aL2332404864L
aI1429128224
aL2212106108L
aasS'obj'
p7
ccopy_reg
_reconstructor
p8
(ctweepy.models
User
p9
c__builtin__
object
p10
Ntp11
Rp12
(dp13
S'follow_request_sent'
p14
NsS'has_extended_profile'
p15
I00
sS'profile_use_background_image'
p16
I00
sS'profile_sidebar_fill_color'
p17
V000000
p18
sS'id'
p19
L2187835482L
sS'verified'
p20
I00
sS'entities'
p21
(dp22
Vdescription
p23
(dp24
Vurls
p25
(lp26
sssS'profile_image_url_https'
p27
Vhttps://pbs.twimg.com/profile_images/565567658964176897/frawkzG4_normal.jpeg
p28
sS'_json'
p29
(dp30
Vfollow_request_sent
p31
NsVhas_extended_profile
p32
I00
sVprofile_use_background_image
p33
I00
sVdefault_profile_image
p34
I00
sVid
p35
L2187835482L
sVprofile_background_image_url_https
p36
Vhttps://abs.twimg.com/images/themes/theme1/bg.png
p37
sVverified
p38
I00
sVprofile_text_color
p39
V000000
p40
sVprofile_image_url_https
p41
g28
sVprofile_sidebar_fill_color
p42
g18
sVentities
p43
g22
sVfollowers_count
p44
I492
sVprofile_sidebar_border_color
p45
V000000
p46
sVid_str
p47
V2187835482
p48
sVprofile_background_color
p49
V000000
p50
sVlisted_count
p51
I14
sVstatus
p52
(dp53
Vcontributors
p54
NsVtruncated
p55
I00
sVtext
p56
Vsmiles for everyone   :-) https://t.co/g9cFrIi3ZV
p57
sVin_reply_to_status_id
p58
Nsg35
L665180136354902016L
sVfavorite_count
p59
I0
sVsource
p60
V<a href="http://twitter.com" rel="nofollow">Twitter Web Client</a>
p61
sVretweeted
p62
I00
sVcoordinates
p63
Nsg43
(dp64
Vsymbols
p65
(lp66
sVuser_mentions
p67
(lp68
sVhashtags
p69
(lp70
sg25
(lp71
(dp72
Vurl
p73
Vhttps://t.co/g9cFrIi3ZV
p74
sVindices
p75
(lp76
I26
aI49
asVexpanded_url
p77
Vhttps://twitter.com/operationsmile/status/652217861600055296
p78
sVdisplay_url
p79
Vtwitter.com/operationsmile\u2026
p80
sassVin_reply_to_screen_name
p81
Nsg47
V665180136354902016
p82
sVretweet_count
p83
I0
sVin_reply_to_user_id
p84
NsVfavorited
p85
I00
sVgeo
p86
NsVin_reply_to_user_id_str
p87
NsVpossibly_sensitive
p88
I00
sVlang
p89
Ven
p90
sVcreated_at
p91
VFri Nov 13 14:51:17 +0000 2015
p92
sVin_reply_to_status_id_str
p93
NsVplace
p94
NssVis_translation_enabled
p95
I00
sVutc_offset
p96
I-28800
sVstatuses_count
p97
I689
sg23
VHealth , Wealth , Wisdom and Success!   Private Investor
p98
sVfriends_count
p99
I548
sVlocation
p100
VCalifornia
p101
sVprofile_link_color
p102
V9266CC
p103
sVprofile_image_url
p104
Vhttp://pbs.twimg.com/profile_images/565567658964176897/frawkzG4_normal.jpeg
p105
sVfollowing
p106
NsVgeo_enabled
p107
I00
sVprofile_banner_url
p108
Vhttps://pbs.twimg.com/profile_banners/2187835482/1423678128
p109
sVprofile_background_image_url
p110
Vhttp://abs.twimg.com/images/themes/theme1/bg.png
p111
sVscreen_name
p112
VBIGEHURD
p113
sg89
Ven
p114
sVprofile_background_tile
p115
I00
sVfavourites_count
p116
I222
sVname
p117
VE HURD
p118
sVnotifications
p119
Nsg73
Nsg91
VMon Nov 11 06:45:33 +0000 2013
p120
sVcontributors_enabled
p121
I00
sVtime_zone
p122
VPacific Time (US & Canada)
p123
sVprotected
p124
I00
sVdefault_profile
p125
I00
sVis_translator
p126
I00
ssS'contributors_enabled'
p127
I00
sS'profile_text_color'
p128
g40
sS'followers_count'
p129
I492
sS'profile_sidebar_border_color'
p130
g46
sS'id_str'
p131
g48
sS'default_profile_image'
p132
I00
sS'listed_count'
p133
I14
sS'status'
p134
g8
(ctweepy.models
Status
p135
g10
Ntp136
Rp137
(dp138
S'favorited'
p139
I00
sS'contributors'
p140
NsS'truncated'
p141
I00
sS'text'
p142
g57
sS'source_url'
p143
Vhttp://twitter.com
p144
sS'possibly_sensitive'
p145
I00
sS'in_reply_to_status_id'
p146
NsS'geo'
p147
Nsg19
L665180136354902016L
sS'favorite_count'
p148
I0
sS'lang'
p149
g90
sg21
g64
sS'created_at'
p150
cdatetime
datetime
p151
(S'\x07\xdf\x0b\r\x0e3\x11\x00\x00\x00'
p152
tp153
Rp154
sg29
g53
sS'coordinates'
p155
NsS'in_reply_to_user_id_str'
p156
NsS'source'
p157
VTwitter Web Client
p158
sS'in_reply_to_status_id_str'
p159
NsS'in_reply_to_screen_name'
p160
Nsg131
g82
sS'retweeted'
p161
I00
sS'place'
p162
NsS'retweet_count'
p163
I0
sS'in_reply_to_user_id'
p164
NsbsS'is_translation_enabled'
p165
I00
sS'utc_offset'
p166
I-28800
sS'statuses_count'
p167
I689
sS'description'
p168
g98
sS'friends_count'
p169
I548
sS'location'
p170
g101
sS'profile_link_color'
p171
g103
sS'profile_image_url'
p172
g105
sS'notifications'
p173
NsS'geo_enabled'
p174
I00
sS'profile_background_color'
p175
g50
sS'profile_banner_url'
p176
g109
sS'profile_background_image_url'
p177
g111
sS'screen_name'
p178
g113
sg149
g114
sg1
I00
sS'profile_background_tile'
p179
I00
sS'favourites_count'
p180
I222
sS'name'
p181
g118
sS'url'
p182
Nsg150
g151
(S'\x07\xdd\x0b\x0b\x06-!\x00\x00\x00'
p183
tp184
Rp185
sS'profile_background_image_url_https'
p186
g37
sS'time_zone'
p187
g123
sS'protected'
p188
I00
sS'default_profile'
p189
I00
sS'is_translator'
p190
I00
sbs.