(dp0
S'following'
p1
(lp2
(lp3
I188341419
aI448217494
aL3006974781L
aL3839714114L
aL2203759704L
aI1684635048
aI190092133
aI1721304937
aI459483899
aI1358146357
aI1342956066
aL2363964991L
aL3534486733L
aL2724745646L
aL3219100369L
aL3245682260L
aI32135630
aL3189115338L
aL2707405315L
aL2964459628L
aL3071078336L
aI148879685
aI22815781
aI122105597
aI187993109
aL3297914543L
aI19637281
aI65353502
aI25073877
aI382991619
aL3146648621L
aI396402659
aI88899123
aI12788332
aI764587405
aL2273319734L
aI219496700
aL2199001590L
aL3234853662L
aL2960338381L
aL2937483474L
aL2363891865L
aI1928213371
aI451636774
aI25692368
aI15458694
aL2369283373L
aI47993676
aI250745369
aI178006333
aI588775819
aI292691834
aI17061263
aL2800581040L
aI425935315
aI1908608630
aI403171779
aI30681076
aI636239122
aI1534167900
aL2409726542L
aL2365863967L
aL2337281922L
aI37918984
aI346257282
aI347880292
aI102094857
aI97486299
aI140149665
aI373562248
aI29886563
aI13131362
aI1286540352
aI1551576062
aL2831153890L
aL2417993377L
aI20700725
aI215988907
aL2773032194L
aL2912585938L
aL2923628197L
aI1909010532
aI584146722
aI1223724236
aL2460066678L
aI601001021
aI362779971
aI42170658
aL2911594947L
aL2833147516L
aI245683175
aL2890085622L
aI442408530
aI1140256868
aI14136886
aI428333
aI285694823
aL2811220734L
aI1255104313
aI252847278
aL2282858514L
aL2573286602L
aL2488956074L
aL2601539556L
aI1263330980
aI121084615
aI18260386
aI930808560
aI51847300
aI1584500023
aL2403787108L
aI316469086
aI215610784
aI45105778
aI19833105
aI48343144
aI406616566
aL2405531310L
aI33955377
aL2435504030L
aI19988458
aI15897179
aI60429918
aL2289636296L
aL2863866860L
aI700211541
aL2344531388L
aL2722239676L
aL2405542560L
aI1918608625
aI42921095
aL2485647109L
aL2283506731L
aI564564892
aL2149877280L
aI155062108
aL2172423304L
aL2605497140L
aL2497440625L
aL2409011910L
aI1700583565
aL2538369996L
aI1490281285
aI709430142
aL2400017328L
aI109989550
aI769908276
aI112872946
aI233612712
aI521963876
aI34951296
aI878114606
aI115732025
aI1543571959
aI572957156
aI270079516
aL2293685887L
aI193855355
aI27988621
aI57756844
aI986118085
aI71758586
aI1551705920
aI92976847
aI512525484
aI1563773250
aI182876615
aI290158392
aI279585313
aI174071551
aI820031509
aI48854415
aI390450593
aI17578470
aI1724401
aI37555599
aI1162102843
aI20800915
aI22522178
aI20899023
aL2362286670L
aI391815569
aI168186079
aI201938601
aI227312102
aI185560357
aI1128700334
aL2350920446L
aL2358452148L
aL2279926520L
aI193380790
aL2324324168L
aL2339289103L
aI274233761
aI31891798
aI21572528
aL2336560186L
aL2357032238L
aL2363066929L
aI412362576
aI391038347
aI235157642
aI438739426
aI106718232
aI339039253
aI15971805
aI42890030
aL2216333869L
aI69350553
aI16668573
aI18369812
aI1046306480
aI64179519
aI32627702
aI597517321
aL2350937948L
aI76393793
aL2310145046L
aL2374459807L
aL2350569546L
aL2362277231L
aI255320060
aI140501867
aI346488304
aI174965200
aI743450113
aL2358400783L
aL2295004033L
aI1952264904
aI888903264
aI12454882
aI164072372
aL2341347170L
aI435092084
aI34966958
aI1115304062
aI47247213
aI437988886
aI19111192
aL2369378408L
aI65443143
aL2290175275L
aI286417660
aI216802143
aI311924325
aI487554830
aI1864707661
aL2291913408L
aI477364186
aI1838237678
aL2293059734L
aI30968774
aL2255366306L
aL2362227032L
aI18248953
aL2300360832L
aI38775722
aI15435676
aI282293702
aL2283987330L
aI16315143
aI427536509
aI34893641
aL2292215219L
aI143478337
aI1079770070
aI546400502
aI41457705
aL2270998235L
aL2302203804L
aI1372024922
aI729109956
aI991682558
aI370926069
aI390728521
aL2270841345L
aI1154278801
aI477960141
aI635173152
aI1278817098
aI1166582550
aL2303229818L
aI434696326
aI1358343787
aI984971822
aI25284314
aL2374416164L
aI49904324
aI623456010
aI267032117
aL2286796579L
aI1028628056
aL2306229732L
aI47476168
aL2379379430L
aI146469464
aL2281543194L
aI55308787
aI387389039
aI84312619
aL2198352780L
aI1278705115
aI35770453
aL2340158083L
aI18856867
aI79099132
aI470328256
aI244969675
aI352947624
aI134509040
aI1373402480
aI98522869
aI441123642
aI21033404
aI95361875
aI316805099
aI193377684
aI235778429
aI18215437
aI736299464
aL2280351684L
aI620701114
aI1525447230
aI228768266
aI755959
aI183284897
aI1891806212
aI263936580
aI15716419
aI28571999
aI155952299
aI384445331
aI31458684
aI23095461
aI297535770
aI583938358
aI253390262
aI19546277
aasS'followers'
p4
(lp5
(lp6
I90970076
aL3839714114L
aI20203285
aL3087548872L
aI188341419
aI69286601
aI47383148
aL3118453456L
aL2203759704L
aI1684635048
aI1192949160
aL3534486733L
aL3430885583L
aL2363964991L
aL2724745646L
aL3245682260L
aL3189115338L
aL3234734570L
aL3071078336L
aL3308330858L
aL2203746163L
aL3300116725L
aI22815781
aL3231941342L
aL3186928244L
aI274556710
aL3176835174L
aL3161679236L
aL2901208850L
aL3215579470L
aI270091895
aL2983286448L
aL3231960038L
aI1605519626
aL3297914543L
aL3263240701L
aI426103404
aI166040813
aL2817873212L
aI1110741942
aI769069735
aL3208334955L
aL3230518584L
aI394621025
aL2957588359L
aL3251851448L
aI422982642
aL3146648621L
aI382991619
aL3329235244L
aL3231191420L
aL3214142405L
aI1537185246
aI764587405
aL3158527494L
aL3177237320L
aL2273319734L
aL2199001590L
aI219496700
aI1322888335
aL2960338381L
aL2937483474L
aL3234853662L
aL2392705086L
aI952719090
aI420572123
aI1004871998
aI509461549
aI1666261482
aL2409933877L
aI109989550
aL2321466439L
aL2336560186L
aL3027543185L
aI610520192
aL2883020982L
aL3129763672L
aL2460066678L
aL2363891865L
aL2266309700L
aL2365863967L
aL2186751984L
aL2356853192L
aI252118452
aL2274706375L
aL2372537929L
aL2872796042L
aL3035883011L
aI451636774
aI25692368
aL2369283373L
aL2984945696L
aI561654065
aL2869708029L
aI250745369
aI178006333
aI30681076
aI1908608630
aI403171779
aI636239122
aL2888133735L
aI97486299
aL2432995394L
aL2937756028L
aI1077230648
aI611817117
aL2545420980L
aI373562248
aI1909010532
aI584146722
aI1223724236
aI362779971
aI601001021
aI42170658
aL2911594947L
aL2890085622L
aL2833147516L
aI442408530
aI215988907
aI1857328459
aL2860561356L
aL2674937833L
aI716044325
aI1909758506
aL2573286602L
aL2923628197L
aI1140256868
aL2912585938L
aL2878892031L
aI20700725
aI14136886
aL2830967807L
aL2866718345L
aI252847278
aL2417993377L
aL2325737977L
aI1244698170
aL2831153890L
aI300057701
aI95943762
aI285694823
aL2282858514L
aL2811220734L
aI29886563
aI1255104313
aI13131362
aI1286540352
aL2601539556L
aI326357389
aL2744819498L
aI121084615
aI930808560
aI51847300
aL2878648895L
aI19833105
aI215610784
aI45105778
aI48343144
aI406616566
aI331874505
aI1347042894
aL2435504030L
aI15897179
aL2172423304L
aL2863866860L
aI32627702
aI1918608625
aL2809601472L
aI700211541
aL2386122979L
aL2283506731L
aL2485647109L
aL2433523183L
aI564564892
aL2722239676L
aI1705766478
aL2149877280L
aI1869471378
aI155062108
aL2605497140L
aI1278817098
aI1358343787
aL2497440625L
aL2409011910L
aI1700583565
aL2538369996L
aI48854415
aI709430142
aI47476168
aI1963295312
aI163918249
aL2283987330L
aI769908276
aL2289636296L
aI1372024922
aL2405542560L
aL2400017328L
aL2350937948L
aI391815569
aI71758586
aL2317927760L
aI16315143
aI34951296
aI31891798
aI572957156
aL2279926520L
aL2344531388L
aI255320060
aI21033404
aI1864707661
aI60429918
aI1373402480
aI98522869
aL2280351684L
aasS'obj'
p7
ccopy_reg
_reconstructor
p8
(ctweepy.models
User
p9
c__builtin__
object
p10
Ntp11
Rp12
(dp13
S'follow_request_sent'
p14
NsS'has_extended_profile'
p15
I00
sS'profile_use_background_image'
p16
I01
sS'profile_sidebar_fill_color'
p17
VDDEEF6
p18
sS'id'
p19
L2236332594L
sS'verified'
p20
I00
sS'entities'
p21
(dp22
Vdescription
p23
(dp24
Vurls
p25
(lp26
sssS'profile_image_url_https'
p27
Vhttps://pbs.twimg.com/profile_images/599398393698353152/EpaK_b-j_normal.jpg
p28
sS'_json'
p29
(dp30
Vfollow_request_sent
p31
NsVhas_extended_profile
p32
I00
sVprofile_use_background_image
p33
I01
sVdefault_profile_image
p34
I00
sVid
p35
L2236332594L
sVprofile_background_image_url_https
p36
Vhttps://abs.twimg.com/images/themes/theme1/bg.png
p37
sVverified
p38
I00
sVprofile_text_color
p39
V333333
p40
sVprofile_image_url_https
p41
g28
sVprofile_sidebar_fill_color
p42
g18
sVentities
p43
g22
sVfollowers_count
p44
I214
sVprofile_sidebar_border_color
p45
VC0DEED
p46
sVid_str
p47
V2236332594
p48
sVprofile_background_color
p49
VC0DEED
p50
sVlisted_count
p51
I4
sVstatus
p52
(dp53
Vcontributors
p54
NsVtruncated
p55
I00
sVtext
p56
VRT @JC7109: #uniteblue #tcot #tgdn #wakeupAmerica https://t.co/Hegr1nHvbl
p57
sVin_reply_to_status_id
p58
Nsg35
L665988087357435904L
sVfavorite_count
p59
I0
sVsource
p60
V<a href="http://twitter.com/download/android" rel="nofollow">Twitter for Android</a>
p61
sVretweeted
p62
I00
sVcoordinates
p63
Nsg43
(dp64
Vsymbols
p65
(lp66
sVuser_mentions
p67
(lp68
(dp69
g35
I116545753
sVindices
p70
(lp71
I3
aI10
asg47
V116545753
p72
sVscreen_name
p73
VJC7109
p74
sVname
p75
VJ.
p76
sasVhashtags
p77
(lp78
(dp79
g70
(lp80
I12
aI22
asg56
Vuniteblue
p81
sa(dp82
g70
(lp83
I23
aI28
asg56
Vtcot
p84
sa(dp85
g70
(lp86
I29
aI34
asg56
Vtgdn
p87
sa(dp88
g70
(lp89
I35
aI49
asg56
VwakeupAmerica
p90
sasg25
(lp91
sVmedia
p92
(lp93
(dp94
Vsource_user_id
p95
I116545753
sVsource_status_id_str
p96
V665966903907786752
p97
sVexpanded_url
p98
Vhttp://twitter.com/JC7109/status/665966903907786752/photo/1
p99
sVdisplay_url
p100
Vpic.twitter.com/Hegr1nHvbl
p101
sVurl
p102
Vhttps://t.co/Hegr1nHvbl
p103
sVmedia_url_https
p104
Vhttps://pbs.twimg.com/media/CT39WsGW4AAMa-T.jpg
p105
sVsource_user_id_str
p106
V116545753
p107
sVsource_status_id
p108
L665966903907786752L
sg47
V665966886157475840
p109
sVsizes
p110
(dp111
Vlarge
p112
(dp113
Vh
p114
I960
sVresize
p115
Vfit
p116
sVw
p117
I960
ssVsmall
p118
(dp119
g114
I340
sg115
Vfit
p120
sg117
I340
ssVmedium
p121
(dp122
g114
I600
sg115
Vfit
p123
sg117
I600
ssVthumb
p124
(dp125
g114
I150
sg115
Vcrop
p126
sg117
I150
sssg70
(lp127
I50
aI73
asVtype
p128
Vphoto
p129
sg35
L665966886157475840L
sVmedia_url
p130
Vhttp://pbs.twimg.com/media/CT39WsGW4AAMa-T.jpg
p131
sassVin_reply_to_screen_name
p132
Nsg47
V665988087357435904
p133
sVretweet_count
p134
I17
sVin_reply_to_user_id
p135
NsVfavorited
p136
I00
sVretweeted_status
p137
(dp138
g54
Nsg55
I00
sg56
V#uniteblue #tcot #tgdn #wakeupAmerica https://t.co/Hegr1nHvbl
p139
sg58
Nsg35
L665966903907786752L
sg59
I7
sg60
V<a href="https://about.twitter.com/products/tweetdeck" rel="nofollow">TweetDeck</a>
p140
sg62
I00
sg63
Nsg43
(dp141
g65
(lp142
sg67
(lp143
sg77
(lp144
(dp145
g70
(lp146
I0
aI10
asg56
Vuniteblue
p147
sa(dp148
g70
(lp149
I11
aI16
asg56
Vtcot
p150
sa(dp151
g70
(lp152
I17
aI22
asg56
Vtgdn
p153
sa(dp154
g70
(lp155
I23
aI37
asg56
VwakeupAmerica
p156
sasg25
(lp157
sg92
(lp158
(dp159
g98
Vhttp://twitter.com/JC7109/status/665966903907786752/photo/1
p160
sg100
Vpic.twitter.com/Hegr1nHvbl
p161
sg102
Vhttps://t.co/Hegr1nHvbl
p162
sg104
Vhttps://pbs.twimg.com/media/CT39WsGW4AAMa-T.jpg
p163
sg47
V665966886157475840
p164
sg110
(dp165
g112
(dp166
g114
I960
sg115
Vfit
p167
sg117
I960
ssg118
(dp168
g114
I340
sg115
Vfit
p169
sg117
I340
ssg121
(dp170
g114
I600
sg115
Vfit
p171
sg117
I600
ssg124
(dp172
g114
I150
sg115
Vcrop
p173
sg117
I150
sssg70
(lp174
I38
aI61
asg128
Vphoto
p175
sg35
L665966886157475840L
sg130
Vhttp://pbs.twimg.com/media/CT39WsGW4AAMa-T.jpg
p176
sassg132
Nsg47
V665966903907786752
p177
sg134
I17
sg135
Nsg136
I00
sVgeo
p178
NsVin_reply_to_user_id_str
p179
NsVpossibly_sensitive
p180
I00
sVlang
p181
Vund
p182
sVcreated_at
p183
VSun Nov 15 18:57:37 +0000 2015
p184
sVin_reply_to_status_id_str
p185
NsVplace
p186
Nssg178
Nsg179
Nsg180
I00
sg181
Vund
p187
sg183
VSun Nov 15 20:21:48 +0000 2015
p188
sg185
Nsg186
NssVis_translation_enabled
p189
I00
sVutc_offset
p190
NsVstatuses_count
p191
I1085
sg23
V
p192
sVfriends_count
p193
I338
sVlocation
p194
g192
sVprofile_link_color
p195
V0084B4
p196
sVprofile_image_url
p197
Vhttp://pbs.twimg.com/profile_images/599398393698353152/EpaK_b-j_normal.jpg
p198
sVfollowing
p199
NsVgeo_enabled
p200
I00
sVprofile_banner_url
p201
Vhttps://pbs.twimg.com/profile_banners/2236332594/1410646241
p202
sVprofile_background_image_url
p203
Vhttp://abs.twimg.com/images/themes/theme1/bg.png
p204
sg73
VDankofSaints
p205
sg181
Ven
p206
sVprofile_background_tile
p207
I00
sVfavourites_count
p208
I414
sg75
Vslchemp
p209
sVnotifications
p210
Nsg102
Nsg183
VSun Dec 08 17:20:16 +0000 2013
p211
sVcontributors_enabled
p212
I00
sVtime_zone
p213
NsVprotected
p214
I00
sVdefault_profile
p215
I01
sVis_translator
p216
I00
ssS'contributors_enabled'
p217
I00
sS'profile_text_color'
p218
g40
sS'followers_count'
p219
I214
sS'profile_sidebar_border_color'
p220
g46
sS'id_str'
p221
g48
sS'default_profile_image'
p222
I00
sS'listed_count'
p223
I4
sS'status'
p224
g8
(ctweepy.models
Status
p225
g10
Ntp226
Rp227
(dp228
S'favorited'
p229
I00
sS'contributors'
p230
NsS'truncated'
p231
I00
sS'text'
p232
g57
sS'source_url'
p233
Vhttp://twitter.com/download/android
p234
sS'possibly_sensitive'
p235
I00
sS'in_reply_to_status_id'
p236
NsS'geo'
p237
Nsg19
L665988087357435904L
sS'favorite_count'
p238
I0
sS'lang'
p239
g187
sS'retweeted_status'
p240
g8
(g225
g10
Ntp241
Rp242
(dp243
g229
I00
sg230
Nsg231
I00
sg232
g139
sg233
Vhttps://about.twitter.com/products/tweetdeck
p244
sg235
I00
sg236
Nsg237
Nsg19
L665966903907786752L
sg238
I7
sg239
g182
sg21
g141
sS'created_at'
p245
cdatetime
datetime
p246
(S'\x07\xdf\x0b\x0f\x129%\x00\x00\x00'
p247
tp248
Rp249
sg29
g138
sS'coordinates'
p250
NsS'in_reply_to_user_id_str'
p251
NsS'source'
p252
VTweetDeck
p253
sS'in_reply_to_status_id_str'
p254
NsS'in_reply_to_screen_name'
p255
Nsg221
g177
sS'retweeted'
p256
I00
sS'place'
p257
NsS'retweet_count'
p258
I17
sS'in_reply_to_user_id'
p259
Nsbsg21
g64
sg245
g246
(S'\x07\xdf\x0b\x0f\x14\x150\x00\x00\x00'
p260
tp261
Rp262
sg29
g53
sg250
Nsg251
Nsg252
VTwitter for Android
p263
sg254
Nsg255
Nsg221
g133
sg256
I00
sg257
Nsg258
I17
sg259
NsbsS'is_translation_enabled'
p264
I00
sS'utc_offset'
p265
NsS'statuses_count'
p266
I1085
sS'description'
p267
g192
sS'friends_count'
p268
I338
sS'location'
p269
g192
sS'profile_link_color'
p270
g196
sS'profile_image_url'
p271
g198
sS'notifications'
p272
NsS'geo_enabled'
p273
I00
sS'profile_background_color'
p274
g50
sS'profile_banner_url'
p275
g202
sS'profile_background_image_url'
p276
g204
sS'screen_name'
p277
g205
sg239
g206
sg1
I00
sS'profile_background_tile'
p278
I00
sS'favourites_count'
p279
I414
sS'name'
p280
g209
sS'url'
p281
Nsg245
g246
(S'\x07\xdd\x0c\x08\x11\x14\x10\x00\x00\x00'
p282
tp283
Rp284
sS'profile_background_image_url_https'
p285
g37
sS'time_zone'
p286
NsS'protected'
p287
I00
sS'default_profile'
p288
I01
sS'is_translator'
p289
I00
sbs.