(dp0
S'following'
p1
(lp2
(lp3
I36550247
aI41651800
aI24410456
aI142839300
aI1135512301
aI236953420
aI375980238
aL2912072247L
aI21669980
aL3165817215L
aI580177658
aI705563120
aI15857971
aI32765534
aL2227396142L
aI14126376
aI64844802
aI1383966032
aL2803822165L
aI247857712
aI350194254
aI16888420
aI27511085
aI295
aI297836078
aI260578470
aI1222617536
aI1397481372
aI550663732
aI49663664
aI61342056
aI29748372
aI250758475
aI19739279
aI264370502
aI52166809
aI1182356192
aI1629336979
aI24020586
aI31447081
aI206338797
aL2363049998L
aI1362730236
aI14031032
aL2886999940L
aI19725644
aL2916305152L
aI20573960
aI343237375
aI83888782
aI34701524
aI7520262
aI15293504
aI14216123
aI43139414
aI16302242
aI182642157
aI790309974
aI18300968
aI37718217
aI430048955
aI582390700
aI15958614
aI475524030
aI205553183
aI98439400
aI37284991
aI18856867
aI16403943
aI203652149
aI568924984
aI33973843
aI126717954
aI1603818258
aI22867489
aI259817068
aI60113926
aI14886375
aI207617302
aI430841130
aI983655260
aI338330795
aI455824771
aI160625399
aI1473431
aI197869772
aI16228398
aI21917683
aI17910183
aI28571999
aI25163231
aI97530284
aI38476367
aI1605
aI183749519
aI18101713
aI1575775224
aI326745108
aI361270172
aI923263237
aI392447726
aL2960231085L
aI20636215
aI14130366
aI541253226
aI714051110
aI21810002
aI546187717
aI93529573
aI1373568355
aI40243607
aI961797541
aI300548556
aI286654612
aI15241557
aI23114836
aI1345580348
aI33846451
aI5252591
aI15180311
aI783763632
aI16002874
aI754500
aI230287527
aI14253109
aI346257282
aL2990551914L
aI298036114
aI25709609
aI1528558014
aI12866742
aI1084678801
aI7573792
aI16191793
aI16583846
aI27758918
aI67418441
aI20106852
aI633238141
aI1002706964
aI87284779
aI3108351
aL2445809510L
aI39288259
aL2453385626L
aI251253349
aI1210898160
aI22255654
aI211138726
aL2168736265L
aI33030256
aL2165208194L
aI69620713
aI230919253
aI304679484
aL3003813372L
aI1447092108
aI1532061
aL2305692510L
aI140912249
aI5746452
aI57098362
aI1229055031
aI153180731
aI253167239
aI15160573
aI126672013
aI9130522
aI109387470
aI1252224511
aI1668338150
aI22790881
aL2317412966L
aI1355061596
aI3840
aI63485337
aI252370778
aI22810429
aI408894288
aI580097412
aI204137620
aI29034000
aI263292498
aI35739495
aI857473345
aI586
aI863527548
aI19224439
aI19218763
aI99393348
aI1191612620
aI23131068
aI384445331
aI553713584
aL2715115656L
aI501389799
aI15008449
aI21419630
aI339750414
aI15485461
aI14276189
aI16313660
aI20710103
aI27937239
aL2313837474L
aI345504143
aL2412802074L
aI174385219
aI148055299
aI67924644
aI15222083
aI39879120
aI320276448
aI236526490
aI129942657
aI16334857
aI997040168
aI31353077
aI316389142
aI114818983
aI16017475
aI18255387
aL2403368770L
aI14044903
aI43123762
aI15836769
aI36431303
aI412490506
aI18858395
aI26280712
aI51772086
aL2500107144L
aI23083404
aI52522951
aI21142965
aI1470137869
aI15944436
aI175624200
aI920104904
aI1237411
aI770550
aI34042766
aI348659640
aI47786101
aI492532196
aI316723819
aI332617373
aI14802885
aI159124891
aI16242081
aI63857942
aL2290218200L
aI20571756
aI3475
aI14749070
aI28167086
aI54251435
aI185808487
aI94625872
aI774310591
aI112290748
aI483192121
aI232120274
aI16063378
aI33792634
aI9729502
aI59157393
aI16549997
aI126881128
aL2225873443L
aI14230772
aI14096763
aI259498996
aI12263542
aI850107536
aI818071
aI488171475
aI14837962
aI17195879
aI34176543
aI3713811
aI20
aI13
aI12
aI59414975
aI23234010
aI19255851
aI24742040
aI268479669
aI583938358
aI284278132
aI636923
aI18119839
aI9534522
aI22747624
aI1632193579
aI1797991
aI49736166
aI5943622
aI3291691
aI132961448
aI288574927
aI204005449
aI531707627
aI14200178
aI52968650
aI27592415
aI17104751
aI1636590253
aI24222556
aI250980843
aI5763262
aI839046553
aI44123487
aI247723476
aI19697415
aI1655353038
aI16953991
aI14231571
aI45266183
aI142376014
aI235022939
aI527526077
aI17560096
aI349389369
aI61579489
aI20173468
aI114782468
aI905798755
aI1534167900
aI16726035
aI63275199
aI222177693
aI22029004
aI401897781
aI66899992
aI16785424
aI24443284
aI263197731
aI15018214
aI6476742
aI1347071545
aI552796139
aI26819104
aI30924944
aI5935792
aI50670769
aI1482904093
aI44196397
aI18518601
aI3825931
aI15686959
aI14118292
aI250831586
aI75974281
aI381289719
aI50393960
aI1364930179
aI243442402
aI1330457336
aI1070929081
aI352947624
aI133424504
aI41180963
aI19012517
aI33104659
aI17367452
aI33098821
aI199640036
aI60308942
aI1023096199
aI1223502265
aI624413
aI17531532
aI19267390
aI27707080
aI52529896
aI1023072078
aI93957809
aI771525061
aI6385432
aI17503180
aI23573
aI231660649
aI1059194370
aI8496762
aI198575737
aI42712551
aI465024402
aI500704345
aI20442992
aI7296202
aI234059836
aI33163058
aI16457010
aI16146720
aI33096981
aI15407235
aI30345764
aI407538753
aI327484803
aI331042820
aI82418862
aI44401911
aI517945106
aI111787435
aI487192916
aI23235056
aI5988062
aI108396205
aI288452305
aI110213431
aI131255679
aI242423151
aI25521487
aI51837775
aI62760327
aI37677496
aasS'followers'
p4
(lp5
(lp6
I551940798
aL3983785093L
aL2992414321L
aI1583359764
aL4120078699L
aI219649656
aI201435526
aI318393064
aL3910421779L
aI14886375
aL3981708033L
aI956308656
aL2183913092L
aI117495450
aI618523751
aL3288466519L
aI218895548
aL3305558623L
aI1966253173
aL3499787661L
aI22867489
aL3382645158L
aL3245169908L
aL3305714846L
aI3840
aL2915214276L
aL3317089998L
aL3148949401L
aL2670836282L
aI790286910
aI1210898160
aI1668338150
aI168779525
aI19255851
aI808550016
aI14044903
aI52522951
aL2292287499L
aL2409506570L
aI484096835
aL2290218200L
aI465024402
aI1944846408
aI839046553
aI480508129
aI235022939
aI349389369
aI401897781
aI552796139
aI63275199
aI1454357270
aI1037106476
aI1070929081
aI17531532
aI1223502265
aI210825860
aI407538753
aI551648368
aI471272817
aI331042820
aI401213643
aI131255679
aI210419341
aI180463340
aI95420528
aI222831337
aasS'obj'
p7
ccopy_reg
_reconstructor
p8
(ctweepy.models
User
p9
c__builtin__
object
p10
Ntp11
Rp12
(dp13
S'follow_request_sent'
p14
NsS'has_extended_profile'
p15
I00
sS'profile_use_background_image'
p16
I01
sS'profile_sidebar_fill_color'
p17
VDAECF4
p18
sS'id'
p19
I224464169
sS'verified'
p20
I00
sS'entities'
p21
(dp22
Vdescription
p23
(dp24
Vurls
p25
(lp26
sssS'profile_image_url_https'
p27
Vhttps://pbs.twimg.com/profile_images/424936545733193728/FmtMBTs4_normal.jpeg
p28
sS'_json'
p29
(dp30
Vfollow_request_sent
p31
NsVhas_extended_profile
p32
I00
sVprofile_use_background_image
p33
I01
sVdefault_profile_image
p34
I00
sVid
p35
I224464169
sVprofile_background_image_url_https
p36
Vhttps://abs.twimg.com/images/themes/theme2/bg.gif
p37
sVverified
p38
I00
sVprofile_text_color
p39
V663B12
p40
sVprofile_image_url_https
p41
g28
sVprofile_sidebar_fill_color
p42
g18
sVentities
p43
g22
sVfollowers_count
p44
I66
sVprofile_sidebar_border_color
p45
VC6E2EE
p46
sVid_str
p47
V224464169
p48
sVprofile_background_color
p49
VC6E2EE
p50
sVlisted_count
p51
I7
sVstatus
p52
(dp53
Vlang
p54
Ven
p55
sVfavorited
p56
I00
sg43
(dp57
Vsymbols
p58
(lp59
sVuser_mentions
p60
(lp61
(dp62
g35
I14200178
sVindices
p63
(lp64
I0
aI10
asg47
V14200178
p65
sVscreen_name
p66
Velmayimbe
p67
sVname
p68
VUmberto Gonzalez
p69
sasVhashtags
p70
(lp71
sg25
(lp72
ssVcontributors
p73
NsVtruncated
p74
I00
sVtext
p75
V@elmayimbe agree. Weird that Bradley Cooper has shown up in Limitless.
p76
sVcreated_at
p77
VMon Nov 16 20:02:07 +0000 2015
p78
sVretweeted
p79
I00
sVin_reply_to_status_id_str
p80
V666344781321138176
p81
sVcoordinates
p82
NsVin_reply_to_user_id_str
p83
V14200178
p84
sVsource
p85
V<a href="http://twitter.com/download/iphone" rel="nofollow">Twitter for iPhone</a>
p86
sVin_reply_to_status_id
p87
L666344781321138176L
sVin_reply_to_screen_name
p88
Velmayimbe
p89
sg47
V666345524140908545
p90
sVplace
p91
NsVretweet_count
p92
I0
sVgeo
p93
Nsg35
L666345524140908545L
sVfavorite_count
p94
I0
sVin_reply_to_user_id
p95
I14200178
ssVis_translation_enabled
p96
I00
sVutc_offset
p97
I-25200
sVstatuses_count
p98
I3249
sg23
VOptions gambler, perma bull, and politically agnostic. I live in the wild west.
p99
sVfriends_count
p100
I418
sVlocation
p101
V
p102
sVprofile_link_color
p103
V1F98C7
p104
sVprofile_image_url
p105
Vhttp://pbs.twimg.com/profile_images/424936545733193728/FmtMBTs4_normal.jpeg
p106
sVfollowing
p107
NsVgeo_enabled
p108
I00
sVprofile_banner_url
p109
Vhttps://pbs.twimg.com/profile_banners/224464169/1382128280
p110
sVprofile_background_image_url
p111
Vhttp://abs.twimg.com/images/themes/theme2/bg.gif
p112
sg66
VRaoulFernando
p113
sg54
Ven
p114
sVprofile_background_tile
p115
I00
sVfavourites_count
p116
I2131
sg68
VRaul Flores
p117
sVnotifications
p118
NsVurl
p119
Nsg77
VThu Dec 09 02:26:51 +0000 2010
p120
sVcontributors_enabled
p121
I00
sVtime_zone
p122
VArizona
p123
sVprotected
p124
I00
sVdefault_profile
p125
I00
sVis_translator
p126
I00
ssS'contributors_enabled'
p127
I00
sS'profile_text_color'
p128
g40
sS'followers_count'
p129
I66
sS'profile_sidebar_border_color'
p130
g46
sS'id_str'
p131
g48
sS'default_profile_image'
p132
I00
sS'listed_count'
p133
I7
sS'status'
p134
g8
(ctweepy.models
Status
p135
g10
Ntp136
Rp137
(dp138
S'favorited'
p139
I00
sS'contributors'
p140
NsS'truncated'
p141
I00
sS'text'
p142
g76
sS'source_url'
p143
Vhttp://twitter.com/download/iphone
p144
sS'in_reply_to_status_id'
p145
L666344781321138176L
sS'geo'
p146
Nsg19
L666345524140908545L
sS'favorite_count'
p147
I0
sS'lang'
p148
g55
sg21
g57
sS'created_at'
p149
cdatetime
datetime
p150
(S'\x07\xdf\x0b\x10\x14\x02\x07\x00\x00\x00'
p151
tp152
Rp153
sg29
g53
sS'coordinates'
p154
NsS'in_reply_to_user_id_str'
p155
g84
sS'source'
p156
VTwitter for iPhone
p157
sS'in_reply_to_status_id_str'
p158
g81
sS'in_reply_to_screen_name'
p159
g89
sg131
g90
sS'retweeted'
p160
I00
sS'place'
p161
NsS'retweet_count'
p162
I0
sS'in_reply_to_user_id'
p163
I14200178
sbsS'is_translation_enabled'
p164
I00
sS'utc_offset'
p165
I-25200
sS'statuses_count'
p166
I3249
sS'description'
p167
g99
sS'friends_count'
p168
I418
sS'location'
p169
g102
sS'profile_link_color'
p170
g104
sS'profile_image_url'
p171
g106
sS'notifications'
p172
NsS'geo_enabled'
p173
I00
sS'profile_background_color'
p174
g50
sS'profile_banner_url'
p175
g110
sS'profile_background_image_url'
p176
g112
sS'screen_name'
p177
g113
sg148
g114
sg1
I00
sS'profile_background_tile'
p178
I00
sS'favourites_count'
p179
I2131
sS'name'
p180
g117
sS'url'
p181
Nsg149
g150
(S'\x07\xda\x0c\t\x02\x1a3\x00\x00\x00'
p182
tp183
Rp184
sS'profile_background_image_url_https'
p185
g37
sS'time_zone'
p186
g123
sS'protected'
p187
I00
sS'default_profile'
p188
I00
sS'is_translator'
p189
I00
sbs.