(dp0
S'following'
p1
(lp2
(lp3
I342491178
aI1557457213
aI170918394
aI1544385433
aI17889970
aL3087554734L
aI40099128
aI20563569
aI55395551
aI783275359
aI404056682
aI263812431
aL3307868683L
aI1976049024
aL3237197057L
aI39215566
aI545618159
aI61342056
aI338521549
aI17486629
aI56294394
aI441260402
aI113368136
aL2348697302L
aI114782468
aI71825673
aI356296224
aI324967625
aI491895214
aI383077253
aI375721095
aI1485052376
aI15915843
aI57166340
aL2813095044L
aL2715646770L
aI110781385
aI443292881
aI956308381
aI175543125
aI20006310
aI361259643
aI600378539
aI318764599
aI8287602
aI466333756
aI184881902
aI21394549
aI6730222
aI1546201075
aI1486142365
aI250758475
aI21232827
aI19739279
aL2236826372L
aI220386151
aI394385786
aI34713362
aI541253226
aI34837057
aI49663664
aI14165212
aI22522178
aI24590532
aI19131744
aI15130891
aI23898700
aI113678194
aI29854129
aI7520262
aI72907355
aI39801292
aI174767698
aI67088724
aI17523339
aI17549691
aI475524030
aI105353526
aI38053161
aI16359602
aI19079480
aI245991435
aI272125054
aasS'followers'
p4
(lp5
(lp6
I594105875
aL2389846375L
aI490599187
aI573038240
aL2260795585L
aI238448369
aL2207371004L
aL3302002712L
aL4024871747L
aL3395170581L
aL2157355981L
aI1875107652
aI114942055
aL2389718366L
aI2136001
aI1884628062
aI13387652
aI15812297
aI1557457213
aI40300931
aL3662506938L
aI220552625
aI137901322
aI30530416
aI1017917689
aL2677731368L
aI782851572
aL3817065201L
aI107646745
aI1216910791
aI1230803257
aI539737165
aI141453630
aL3279539900L
aI35784526
aL3290088266L
aI232285202
aL2339250878L
aI120672388
aI452202274
aL3414138322L
aI771666432
aI623477697
aL2848072954L
aI109163571
aI270984595
aI16829101
aL3061881845L
aI705746750
aI55395551
aI35000369
aI61141154
aL2330906353L
aL3207757084L
aL2803715233L
aI39944442
aI528677049
aI33893439
aI1490781439
aL3307868683L
aI72305470
aI35752572
aL3297914520L
aI330457394
aL2349086120L
aI1976049024
aI1536628400
aL3395592345L
aI1026512892
aL3298760562L
aI338532559
aI29028201
aL2984355108L
aI23435154
aI1972471298
aI370389754
aL2908633725L
aI294816350
aI575582187
aL2881512810L
aI60675818
aI250317700
aI188216680
aI236874240
aI238997255
aI76538200
aI792852684
aI81964433
aI404056682
aI215803776
aI15028365
aI1074873547
aL2994214657L
aI15224743
aI372020500
aI23368614
aL2915665733L
aI33495103
aI65466158
aI14121270
aL3191686526L
aL3240002437L
aL2254749702L
aI224450426
aI1074268982
aL3305932817L
aI55566605
aL3293007869L
aI340733588
aI92342279
aI124230632
aL3213003358L
aI1906434228
aI1382614020
aL2328402044L
aL3242328328L
aL3237197057L
aI1694311884
aL2305809769L
aI48548536
aI427615273
aL3168760989L
aI350371926
aI55777669
aI90758418
aI222842306
aI561715519
aL3153686139L
aI341856613
aI229243462
aI159404533
aI16826323
aI415210849
aI14624231
aL2936273911L
aI63452359
aI1514058864
aI423445395
aI1301126754
aI42338426
aI19053221
aI38615407
aI47133303
aI1265890346
aI150636899
aI72593091
aI20563569
aI1529917477
aI611817117
aI303531344
aL2965837352L
aL2419848084L
aL3032847874L
aI31194694
aI528545429
aI181709442
aI1689379837
aI1204724084
aI14886375
aL2998706760L
aI583660064
aI606434463
aI1636759074
aI707898738
aI32754740
aI20850597
aI39490193
aI171739789
aI515775974
aI1219301940
aL2961171227L
aL2831713827L
aL2293876146L
aI54664941
aI175411436
aI22513566
aL2289618368L
aI192759988
aL2265659066L
aL2525775614L
aI98045315
aI74216759
aI178130011
aI43950136
aL2348697302L
aL2952369562L
aI20453171
aI184881902
aI19131744
aI834343296
aI33441912
aI750695784
aI65685350
aL2851806915L
aI1111615586
aI89217333
aL2891352401L
aI805230144
aI1361163925
aI28147440
aL2924431226L
aI52744150
aI409616203
aI24732019
aI32362720
aI383077253
aI598556189
aI264308166
aL2904098999L
aI108384757
aI586127028
aL2876744782L
aI18770814
aI105680543
aI18521411
aI22426933
aI356296224
aI34464256
aI571928144
aI373875321
aL2465128316L
aI38053161
aI498383654
aI43554881
aI396929465
aI390376055
aI14515456
aI324967625
aI136693854
aI11076052
aI102579926
aI339498277
aI18452811
aI174767698
aL2836291815L
aI429604340
aI347871360
aL2462622998L
aI68501136
aI31662943
aI68689464
aI175543125
aL2801612144L
aI17841130
aI183472510
aL2822973875L
aI229128610
aL2718047459L
aI49542392
aI1485052376
aI366260012
aI70755249
aL2316977669L
aI214960891
aI192947451
aI26928566
aL2797799005L
aL2151443198L
aI381050083
aI49519788
aI276071972
aI386249288
aI57166340
aI21756670
aI1611593304
aI165533370
aI392386343
aI20997270
aI341955685
aI1244393550
aL2813095044L
aI71825673
aI14126694
aI274218971
aI441260402
aI522920774
aI29023294
aI19947650
aI368690668
aI1209423062
aI110781385
aL2715646770L
aI1639101859
aI17584193
aL2661367944L
aI105353526
aI253455304
aI443292881
aI216457349
aI53749754
aL2724536342L
aI1944518827
aL2519179052L
aI25850190
aL2696987484L
aI253006390
aI18992010
aI67088724
aI20006310
aI380519080
aI361259643
aI19600986
aI113368136
aI71888888
aI1486142365
aL2449960480L
aI248755278
aI17523339
aI1544330178
aI160798961
aI23003843
aL2499887964L
aI394385786
aI37148595
aI113678194
aI59143641
aI13963932
aI14561629
aI1009173906
aI392266039
aL2236826372L
aI15897179
aI1460503651
aI220386151
aasS'obj'
p7
ccopy_reg
_reconstructor
p8
(ctweepy.models
User
p9
c__builtin__
object
p10
Ntp11
Rp12
(dp13
S'follow_request_sent'
p14
I00
sS'has_extended_profile'
p15
I00
sS'profile_use_background_image'
p16
I01
sS'profile_sidebar_fill_color'
p17
VEFEFEF
p18
sS'id'
p19
L2298666626L
sS'verified'
p20
I00
sS'entities'
p21
(dp22
Vdescription
p23
(dp24
Vurls
p25
(lp26
sssS'profile_image_url_https'
p27
Vhttps://pbs.twimg.com/profile_images/424686621263294464/XBfnXZEy_normal.png
p28
sS'_json'
p29
(dp30
Vfollow_request_sent
p31
I00
sVhas_extended_profile
p32
I00
sVprofile_use_background_image
p33
I01
sVdefault_profile_image
p34
I00
sVid
p35
L2298666626L
sVprofile_background_image_url_https
p36
Vhttps://abs.twimg.com/images/themes/theme14/bg.gif
p37
sVverified
p38
I00
sVprofile_text_color
p39
V333333
p40
sVprofile_image_url_https
p41
g28
sVprofile_sidebar_fill_color
p42
g18
sVentities
p43
g22
sVfollowers_count
p44
I324
sVprofile_sidebar_border_color
p45
VEEEEEE
p46
sVid_str
p47
V2298666626
p48
sVprofile_background_color
p49
V131516
p50
sVlisted_count
p51
I27
sVstatus
p52
(dp53
Vcontributors
p54
NsVtruncated
p55
I00
sVtext
p56
VRT @cullenroche: One of the greatest strengths a person can have is knowing how little they actually know.
p57
sVin_reply_to_status_id
p58
Nsg35
L666264168115384328L
sVfavorite_count
p59
I0
sVsource
p60
V<a href="http://twitter.com" rel="nofollow">Twitter Web Client</a>
p61
sVretweeted
p62
I00
sVcoordinates
p63
Nsg43
(dp64
Vsymbols
p65
(lp66
sVuser_mentions
p67
(lp68
(dp69
g35
I22088714
sVindices
p70
(lp71
I3
aI15
asg47
V22088714
p72
sVscreen_name
p73
Vcullenroche
p74
sVname
p75
VCullen Roche
p76
sasVhashtags
p77
(lp78
sg25
(lp79
ssVin_reply_to_screen_name
p80
Nsg47
V666264168115384328
p81
sVretweet_count
p82
I29
sVin_reply_to_user_id
p83
NsVfavorited
p84
I00
sVretweeted_status
p85
(dp86
Vlang
p87
Ven
p88
sg84
I00
sg43
(dp89
g65
(lp90
sg67
(lp91
sg77
(lp92
sg25
(lp93
ssg54
Nsg55
I00
sg56
VOne of the greatest strengths a person can have is knowing how little they actually know.
p94
sVcreated_at
p95
VSun Nov 15 21:29:26 +0000 2015
p96
sg62
I00
sVin_reply_to_status_id_str
p97
Nsg63
NsVin_reply_to_user_id_str
p98
Nsg60
V<a href="https://about.twitter.com/products/tweetdeck" rel="nofollow">TweetDeck</a>
p99
sg58
Nsg80
Nsg47
V666005110082768896
p100
sVplace
p101
Nsg82
I29
sVgeo
p102
Nsg35
L666005110082768896L
sg59
I46
sg83
Nssg102
Nsg98
Nsg87
Ven
p103
sg95
VMon Nov 16 14:38:50 +0000 2015
p104
sg97
Nsg101
NssVis_translation_enabled
p105
I00
sVutc_offset
p106
I-18000
sVstatuses_count
p107
I4753
sg23
VCanslim, IBD, Trend Trader, Optimist. Lose your ego. No recommendations, just opinions & observations. A butterfly trying to create a tsunami ST - TwentyOne
p108
sVfriends_count
p109
I83
sVlocation
p110
V
p111
sVprofile_link_color
p112
V009999
p113
sVprofile_image_url
p114
Vhttp://pbs.twimg.com/profile_images/424686621263294464/XBfnXZEy_normal.png
p115
sVfollowing
p116
I00
sVgeo_enabled
p117
I00
sVprofile_banner_url
p118
Vhttps://pbs.twimg.com/profile_banners/2298666626/1398894438
p119
sVprofile_background_image_url
p120
Vhttp://abs.twimg.com/images/themes/theme14/bg.gif
p121
sg73
VTwentyOneTrader
p122
sg87
Ven
p123
sVprofile_background_tile
p124
I01
sVfavourites_count
p125
I499
sg75
VTwentyOne
p126
sVnotifications
p127
I00
sVurl
p128
Nsg95
VSat Jan 18 23:30:35 +0000 2014
p129
sVcontributors_enabled
p130
I00
sVtime_zone
p131
VEastern Time (US & Canada)
p132
sVprotected
p133
I00
sVdefault_profile
p134
I00
sVis_translator
p135
I00
ssS'contributors_enabled'
p136
I00
sS'profile_text_color'
p137
g40
sS'followers_count'
p138
I324
sS'profile_sidebar_border_color'
p139
g46
sS'id_str'
p140
g48
sS'default_profile_image'
p141
I00
sS'listed_count'
p142
I27
sS'status'
p143
g8
(ctweepy.models
Status
p144
g10
Ntp145
Rp146
(dp147
S'favorited'
p148
I00
sS'contributors'
p149
NsS'truncated'
p150
I00
sS'text'
p151
g57
sS'source_url'
p152
Vhttp://twitter.com
p153
sS'in_reply_to_status_id'
p154
NsS'geo'
p155
Nsg19
L666264168115384328L
sS'favorite_count'
p156
I0
sS'lang'
p157
g103
sS'retweeted_status'
p158
g8
(g144
g10
Ntp159
Rp160
(dp161
g148
I00
sg149
Nsg150
I00
sg151
g94
sg152
Vhttps://about.twitter.com/products/tweetdeck
p162
sg154
Nsg155
Nsg19
L666005110082768896L
sg156
I46
sg157
g88
sg21
g89
sS'created_at'
p163
cdatetime
datetime
p164
(S'\x07\xdf\x0b\x0f\x15\x1d\x1a\x00\x00\x00'
p165
tp166
Rp167
sg29
g86
sS'coordinates'
p168
NsS'in_reply_to_user_id_str'
p169
NsS'source'
p170
VTweetDeck
p171
sS'in_reply_to_status_id_str'
p172
NsS'in_reply_to_screen_name'
p173
Nsg140
g100
sS'retweeted'
p174
I00
sS'place'
p175
NsS'retweet_count'
p176
I29
sS'in_reply_to_user_id'
p177
Nsbsg21
g64
sg163
g164
(S'\x07\xdf\x0b\x10\x0e&2\x00\x00\x00'
p178
tp179
Rp180
sg29
g53
sg168
Nsg169
Nsg170
VTwitter Web Client
p181
sg172
Nsg173
Nsg140
g81
sg174
I00
sg175
Nsg176
I29
sg177
NsbsS'is_translation_enabled'
p182
I00
sS'utc_offset'
p183
I-18000
sS'statuses_count'
p184
I4753
sS'description'
p185
g108
sS'friends_count'
p186
I83
sS'location'
p187
g111
sS'profile_link_color'
p188
g113
sS'profile_image_url'
p189
g115
sS'notifications'
p190
I00
sS'geo_enabled'
p191
I00
sS'profile_background_color'
p192
g50
sS'profile_banner_url'
p193
g119
sS'profile_background_image_url'
p194
g121
sS'screen_name'
p195
g122
sg157
g123
sg1
I00
sS'profile_background_tile'
p196
I01
sS'favourites_count'
p197
I499
sS'name'
p198
g126
sS'url'
p199
Nsg163
g164
(S'\x07\xde\x01\x12\x17\x1e#\x00\x00\x00'
p200
tp201
Rp202
sS'profile_background_image_url_https'
p203
g37
sS'time_zone'
p204
g132
sS'protected'
p205
I00
sS'default_profile'
p206
I00
sS'is_translator'
p207
I00
sbs.