(dp0
S'following'
p1
(lp2
(lp3
I1491685098
aI51932290
aI184823423
aI52523659
aL3035804476L
aI192583349
aI958706214
aL2494896473L
aI15470276
aI35361443
aI255996385
aI209907837
aL3000604963L
aI547834727
aI1618666351
aI16630600
aI55561590
aI305221233
aI19717430
aI433664446
aI23390520
aI223589965
aI344752927
aL2295434528L
aI194346014
aI863003467
aL2962224874L
aI33689651
aI82415812
aI1093668242
aI391492257
aI49620233
aI1884013189
aI1190977808
aI1228537610
aL2278259810L
aI41338266
aI790062926
aI348772885
aI31546412
aI15971805
aI43475268
aI1553723150
aI1041050238
aI376154503
aI47887874
aI1941253760
aI280240345
aI1370906497
aI47114671
aI632341632
aI40099128
aI829538228
aI223534974
aI274233761
aI41458395
aI20800915
aI1177065859
aI1267775677
aI1484074369
aI104034095
aI1461820334
aI339039253
aI1330741110
aI636545451
aI735588145
aI62562916
aI770904320
aI24147760
aI212067078
aI820031509
aI1005466790
aI1033654686
aI37555599
aI416749415
aI243801041
aI380500399
aI84402174
aI56121651
aI174547154
aI84312619
aI112872946
aI57199916
aI102527566
aI169489285
aI102094857
aI244969675
aI29113916
aasS'followers'
p4
(lp5
(lp6
L2978546749L
aI74318860
aI261336370
aL3905518525L
aL4108346177L
aI78129351
aL2835490048L
aI425870454
aI1583359764
aL2860845668L
aI89963214
aL3214345499L
aL3278937975L
aL2850285097L
aL4010256739L
aI51932290
aI248260026
aI1673276558
aI16531917
aL2563474284L
aI71058846
aI425431918
aL3940102394L
aI433664446
aI14521881
aL3437848305L
aL3044464686L
aI1911189451
aL2435505893L
aL3413442681L
aL3409433439L
aL3394569273L
aI29781852
aL3035804476L
aI25748642
aL3435481157L
aL3214456469L
aI361602357
aL3330426192L
aL3213539539L
aL3213597091L
aL3437793833L
aI127967449
aL3213689594L
aL3436170646L
aL3214413873L
aL3437666753L
aL3730947142L
aL3301645243L
aL3485492116L
aL3218687468L
aL3284036308L
aI102797593
aL3279144982L
aL3279010324L
aL3026563894L
aL3213604627L
aL3214288073L
aI1858220328
aL3213629798L
aL3213692023L
aL3297001155L
aI207692824
aI1730249820
aI32071262
aL2816971618L
aI255363029
aI1713295099
aL3279036525L
aI162777509
aI1462240951
aI1682397852
aI21605092
aI32395417
aL3213762145L
aI626612323
aL2951650306L
aI438739426
aL2932904247L
aI488908283
aL3174192023L
aI38008025
aI388880660
aI21155531
aI1380766860
aL2969735579L
aL2209444242L
aL2315939062L
aL2820277581L
aI971129101
aL2190638618L
aL2370547480L
aI1618666351
aI872403990
aI120743106
aI1340624978
aI33711747
aL2192974494L
aL2314804225L
aI22298549
aL2236152487L
aL3331198361L
aI501848788
aL2715674286L
aI572033695
aI1898548820
aL3128810615L
aI39100999
aI215867423
aL2936410170L
aI926804953
aL2421582940L
aI598299551
aI218752033
aI65301471
aI42177759
aL2262883445L
aI211691778
aL3312065387L
aL3238969507L
aI14031032
aL2684257742L
aI741467216
aL2347481757L
aI41805976
aL2911510694L
aI494361823
aL3060303160L
aL2433200225L
aI733508593
aI89491245
aI231520118
aI518118148
aI1233362096
aL3294317091L
aI978452774
aI21674530
aI38722777
aL2341525668L
aL2783668379L
aI41836427
aI236549999
aI354204066
aL2517112130L
aI403664863
aI1615275096
aL2596325030L
aI8947912
aL2978746845L
aL3187400455L
aI40353409
aI290720535
aL2855542157L
aI1648506408
aI706966431
aI17456362
aI1084184383
aI79547213
aL2797064995L
aI374315292
aL3144063064L
aI64231857
aI21915909
aL2962224874L
aI49070495
aI728596292
aL3130059531L
aI495073584
aI16350956
aL2292701738L
aI1382781776
aI41308428
aL3030308663L
aL3062418077L
aI287885364
aL3034687258L
aL2436075539L
aI1069228003
aL2992752063L
aI161441898
aL3060991997L
aI1190977808
aI18321433
aL2991342631L
aL2369056889L
aI611817117
aL2245074780L
aL2754468482L
aI484647264
aL2895033159L
aI215043375
aL2922234899L
aI47433937
aI273275868
aL2712637668L
aL2361262828L
aI40659017
aL3002853330L
aI173920994
aI560715385
aI568174555
aL2991686892L
aI30967190
aI478772452
aI1354704283
aI16519380
aL2988742673L
aL2787893120L
aI861009342
aI95211245
aI283811983
aI187196936
aL2847060797L
aL2155962989L
aI489878607
aL2482407307L
aL2336908730L
aI276783390
aI39339618
aI714646687
aL2225920402L
aL2273659322L
aL2925186109L
aI1568197224
aI187296922
aI184993804
aI78926591
aL2753580101L
aI177732271
aI88816983
aI250317700
aI1706183262
aL2254021794L
aI487089304
aI327859187
aL2893129192L
aL2819978639L
aI552990338
aI616371649
aI1511806302
aL2895161638L
aI226498288
aI26907890
aI66915233
aI1436945384
aI1010019469
aI234631863
aI374071770
aL2465128316L
aI287532397
aI345672871
aI368625568
aL2555553103L
aI1281335977
aI36293963
aI634841391
aI1005466790
aI46047250
aI232845123
aI552326867
aI1327787400
aL2617251182L
aL2802076582L
aI21611409
aI211316225
aI206773656
aI84650836
aI1000860426
aL2598747459L
aI289311242
aI15897179
aI475806016
aI66975479
aI937363406
aI9681052
aI30820266
aL2508560065L
aI1639487029
aI292098928
aI1931600035
aI814803114
aI340741079
aL2652184321L
aI393559970
aI531525580
aI72187047
aI18257487
aI217128157
aI184620009
aI237150586
aI127244407
aI208799524
aI584344353
aI64918993
aL2290381626L
aI478061208
aI324558439
aI18720272
aI247788883
aL2623605970L
aI1927015632
aI770904320
aI287153379
aI1137170695
aI41110164
aI161536109
aI221810034
aI1596314089
aL2410494112L
aI239184121
aI33608286
aI77076754
aI252732212
aI170788540
aL2273695227L
aL2265013531L
aI1480913754
aI735588145
aI209802054
aI626716251
aI57716523
aI946900020
aI1952543785
aI836761622
aI23161106
aI16195727
aI128592428
aI1033654686
aI1684887114
aI45607709
aI1535431212
aI23616349
aI1395179923
aI121980741
aI956212646
aI1220317806
aI274083445
aI294851457
aI487063539
aI494377216
aI1036133910
aI421456971
aI131849629
aI148606502
aI190052100
aI537351590
aI182538977
aI419201890
aI750483007
aI531907438
aI475950891
aI16379894
aI555308989
aI104284098
aI631974136
aI380702136
aI54664941
aI17139109
aI429462802
aI546589273
aI177154444
aI398262257
aI60645117
aI98707539
aI67000429
aI277258420
aI37011735
aI105527748
aI224355276
aI84312619
aI17621674
aI314561984
aasS'obj'
p7
ccopy_reg
_reconstructor
p8
(ctweepy.models
User
p9
c__builtin__
object
p10
Ntp11
Rp12
(dp13
S'follow_request_sent'
p14
I00
sS'has_extended_profile'
p15
I00
sS'profile_use_background_image'
p16
I01
sS'profile_sidebar_fill_color'
p17
VF6FFD1
p18
sS'id'
p19
I234107458
sS'verified'
p20
I00
sS'entities'
p21
(dp22
Vdescription
p23
(dp24
Vurls
p25
(lp26
sssS'profile_image_url_https'
p27
Vhttps://pbs.twimg.com/profile_images/443275726503301120/sIakwI4s_normal.jpeg
p28
sS'_json'
p29
(dp30
Vfollow_request_sent
p31
I00
sVhas_extended_profile
p32
I00
sVprofile_use_background_image
p33
I01
sVdefault_profile_image
p34
I00
sVid
p35
I234107458
sVprofile_background_image_url_https
p36
Vhttps://abs.twimg.com/images/themes/theme19/bg.gif
p37
sVverified
p38
I00
sVprofile_text_color
p39
V333333
p40
sVprofile_image_url_https
p41
g28
sVprofile_sidebar_fill_color
p42
g18
sVentities
p43
g22
sVfollowers_count
p44
I372
sVprofile_sidebar_border_color
p45
VFFF8AD
p46
sVid_str
p47
V234107458
p48
sVprofile_background_color
p49
VFFF04D
p50
sVlisted_count
p51
I28
sVstatus
p52
(dp53
Vcontributors
p54
NsVtruncated
p55
I00
sVtext
p56
V13 people followed me and 4 people unfollowed me // automatically checked by https://t.co/le4QkP472H
p57
sVin_reply_to_status_id
p58
Nsg35
L666582751022350336L
sVfavorite_count
p59
I0
sVsource
p60
V<a href="http://fllwrs.com" rel="nofollow">fllwrs</a>
p61
sVretweeted
p62
I00
sVcoordinates
p63
Nsg43
(dp64
Vsymbols
p65
(lp66
sVuser_mentions
p67
(lp68
sVhashtags
p69
(lp70
sg25
(lp71
(dp72
Vurl
p73
Vhttps://t.co/le4QkP472H
p74
sVindices
p75
(lp76
I77
aI100
asVexpanded_url
p77
Vhttp://fllwrs.com
p78
sVdisplay_url
p79
Vfllwrs.com
p80
sassVin_reply_to_screen_name
p81
Nsg47
V666582751022350336
p82
sVretweet_count
p83
I0
sVin_reply_to_user_id
p84
NsVfavorited
p85
I00
sVgeo
p86
NsVin_reply_to_user_id_str
p87
NsVpossibly_sensitive
p88
I00
sVlang
p89
Ven
p90
sVcreated_at
p91
VTue Nov 17 11:44:47 +0000 2015
p92
sVin_reply_to_status_id_str
p93
NsVplace
p94
NssVis_translation_enabled
p95
I00
sVutc_offset
p96
I-18000
sVstatuses_count
p97
I5854
sg23
V23 year Pharma Commercialization. Data driven Pharma expertise w/ key roles in six successfully exited specialty pharma! Bio Investor 15 yrs.
p98
sVfriends_count
p99
I88
sVlocation
p100
VUSA
p101
sVprofile_link_color
p102
V0099CC
p103
sVprofile_image_url
p104
Vhttp://pbs.twimg.com/profile_images/443275726503301120/sIakwI4s_normal.jpeg
p105
sVfollowing
p106
I00
sVgeo_enabled
p107
I00
sVprofile_banner_url
p108
Vhttps://pbs.twimg.com/profile_banners/234107458/1394520143
p109
sVprofile_background_image_url
p110
Vhttp://abs.twimg.com/images/themes/theme19/bg.gif
p111
sVscreen_name
p112
VGoGoBio
p113
sg89
Ven
p114
sVprofile_background_tile
p115
I00
sVfavourites_count
p116
I759
sVname
p117
VGoGoBio
p118
sVnotifications
p119
I00
sg73
Nsg91
VTue Jan 04 21:33:27 +0000 2011
p120
sVcontributors_enabled
p121
I00
sVtime_zone
p122
VQuito
p123
sVprotected
p124
I00
sVdefault_profile
p125
I00
sVis_translator
p126
I00
ssS'contributors_enabled'
p127
I00
sS'profile_text_color'
p128
g40
sS'followers_count'
p129
I372
sS'profile_sidebar_border_color'
p130
g46
sS'id_str'
p131
g48
sS'default_profile_image'
p132
I00
sS'listed_count'
p133
I28
sS'status'
p134
g8
(ctweepy.models
Status
p135
g10
Ntp136
Rp137
(dp138
S'favorited'
p139
I00
sS'contributors'
p140
NsS'truncated'
p141
I00
sS'text'
p142
g57
sS'source_url'
p143
Vhttp://fllwrs.com
p144
sS'possibly_sensitive'
p145
I00
sS'in_reply_to_status_id'
p146
NsS'geo'
p147
Nsg19
L666582751022350336L
sS'favorite_count'
p148
I0
sS'lang'
p149
g90
sg21
g64
sS'created_at'
p150
cdatetime
datetime
p151
(S'\x07\xdf\x0b\x11\x0b,/\x00\x00\x00'
p152
tp153
Rp154
sg29
g53
sS'coordinates'
p155
NsS'in_reply_to_user_id_str'
p156
NsS'source'
p157
Vfllwrs
p158
sS'in_reply_to_status_id_str'
p159
NsS'in_reply_to_screen_name'
p160
Nsg131
g82
sS'retweeted'
p161
I00
sS'place'
p162
NsS'retweet_count'
p163
I0
sS'in_reply_to_user_id'
p164
NsbsS'is_translation_enabled'
p165
I00
sS'utc_offset'
p166
I-18000
sS'statuses_count'
p167
I5854
sS'description'
p168
g98
sS'friends_count'
p169
I88
sS'location'
p170
g101
sS'profile_link_color'
p171
g103
sS'profile_image_url'
p172
g105
sS'notifications'
p173
I00
sS'geo_enabled'
p174
I00
sS'profile_background_color'
p175
g50
sS'profile_banner_url'
p176
g109
sS'profile_background_image_url'
p177
g111
sS'screen_name'
p178
g113
sg149
g114
sg1
I00
sS'profile_background_tile'
p179
I00
sS'favourites_count'
p180
I759
sS'name'
p181
g118
sS'url'
p182
Nsg150
g151
(S'\x07\xdb\x01\x04\x15!\x1b\x00\x00\x00'
p183
tp184
Rp185
sS'profile_background_image_url_https'
p186
g37
sS'time_zone'
p187
g123
sS'protected'
p188
I00
sS'default_profile'
p189
I00
sS'is_translator'
p190
I00
sbs.