(dp0
S'following'
p1
(lp2
sS'followers'
p3
(lp4
(lp5
L3329828533L
aL3322141153L
aI1243167092
aL3214815553L
aI473562694
aI1924312855
aI24384195
aL3040681293L
aL4049553793L
aL4147237933L
aI1245545677
aI149939700
aI155991469
aL3278488339L
aI71895978
aI35785086
aL4190367919L
aL2348925452L
aL2560501196L
aI48514393
aI466130520
aI524571947
aL3382360792L
aI48486244
aI9555372
aL2638522264L
aL2396902122L
aL3651185301L
aI276551086
aI819440485
aI1924310023
aL2450102586L
aL3057847811L
aI1400272116
aL2833697057L
aL3125343793L
aL2443235262L
aI423323448
aL3389592525L
aI237621536
aL3090281978L
aI1229987138
aI345739003
aI396999574
aI436799344
aL2509375009L
aL2957721364L
aL3947918553L
aL3593730916L
aL3946564281L
aL3918077722L
aL3917932455L
aI523722160
aL3615637275L
aI234956680
aI848746200
aL2180870413L
aL4019432834L
aI311236291
aI325925520
aL3965601253L
aI18548136
aI491656120
aL3437315473L
aL3038460920L
aI16653812
aL3189800756L
aI261974427
aI1861822034
aI1861916791
aI1371367364
aL3947333397L
aL3947270356L
aL3945232397L
aL2599003902L
aL3976287207L
aL3971936561L
aL3434229172L
aL3073250357L
aL2233171476L
aL3018809793L
aL3307131068L
aL3946770635L
aI18000120
aL2395258519L
aI1667214625
aI924970663
aI1635591025
aL2662370076L
aI240526672
aI747873030
aL2398280310L
aL3662506938L
aL2372166100L
aI73009719
aL3882448277L
aI272141779
aL3024746257L
aL3188064038L
aI118846656
aL3434346681L
aL3411819892L
aL3753992116L
aI184943860
aI317005063
aL2837882056L
aI117988535
aI117926510
aI118354313
aL2314289604L
aL3732886635L
aI61518682
aI468103914
aL3111837451L
aI201501027
aL3750476301L
aL3420939854L
aI35784526
aL3739516997L
aI110293217
aL2972555345L
aI358753205
aL3689168067L
aI250462379
aI108607339
aI291511196
aI193822434
aI102797593
aL3011820468L
aL3315934221L
aL3432220992L
aL3070608574L
aI90631810
aI616371649
aI317562281
aI293240953
aI19347897
aL2444504669L
aL2507059284L
aL2343322249L
aI1057980468
aL2972225260L
aI221340267
aL3428985035L
aL2380905156L
aI20070979
aI470182458
aI273612070
aL2444104684L
aL3392646663L
aL2298811536L
aL3235772366L
aL3443056697L
aI126688984
aL2325449179L
aL3087738539L
aL3309232460L
aI23910445
aI24475346
aI340879384
aL3313002806L
aI333580438
aL2664130614L
aL2330801192L
aI1398703838
aI16334159
aI130244347
aL2818187550L
aI333388329
aI36894359
aL3312840739L
aI170814162
aI37667501
aI23999855
aI398720018
aI273075287
aI314615747
aL3305868996L
aI413704957
aI65236621
aI35359528
aL3243027921L
aL2648357839L
aL3391661200L
aI843242424
aI204181677
aI301142441
aI21014481
aI33015404
aI236623688
aI1934095376
aL2309563915L
aI742935218
aI49834096
aL2273119628L
aL3297194088L
aI60284267
aL3299871217L
aI263951526
aL2171111726L
aI1333461242
aL3293566154L
aI1228116126
aI729238562
aL3250068235L
aL3386558067L
aL3386260985L
aL2851614722L
aI838912808
aI821516286
aI1116086334
aI488904431
aI1420463797
aL3369118385L
aI1853262716
aI168257756
aL3021827632L
aI1864485751
aL3321553025L
aI1569225756
aL2986015338L
aL3237170731L
aI1845191160
aL2748480945L
aL2925829623L
aL2992585800L
aL3241888604L
aI597799971
aL2472872221L
aL2196837308L
aI1909384980
aL2317919850L
aL2385321504L
aI296331958
aL2482618160L
aI242480946
aL2885639245L
aI413734213
aL3306093707L
aI17165566
aL2817966517L
aL3258651930L
aI1531007624
aL3335167570L
aI470340641
aI266227773
aI987686478
aI17418123
aI522920774
aI528984919
aI1482419522
aI58099525
aL2381807282L
aL3336081405L
aI344778169
aI487270128
aI1033800722
aL2984464570L
aL2835496567L
aL3337170988L
aI498071678
aI285362838
aI32389968
aI444023903
aL3246893851L
aI23112245
aL3321222700L
aI1253123688
aI95696162
aL2883878790L
aI262468404
aL3241519856L
aI327728809
aL3187956895L
aI1344528985
aI977782442
aI1566647078
aL2611404072L
aL2927827158L
aI981236256
aL3068933499L
aL3154096965L
aI237346054
aI732172752
aI1472095021
aL3023218459L
aI284347049
aI395452373
aI19637960
aL2430730327L
aI341159601
aI1073849808
aL3241355823L
aI1233362096
aI345568667
aI175857285
aI31226459
aL2170018283L
aI1050059462
aL3194846497L
aL3220401883L
aI1419624721
aL3219619196L
aL2582945984L
aI390305405
aL3132629257L
aI1377974144
aI554290220
aI36049338
aI153876973
aI274464365
aI397430795
aI57241413
aL3188262614L
aI261067815
aL2995077892L
aL3043085583L
aI457594413
aI89381479
aI26824542
aI492248877
aL3185728742L
aL3184107485L
aI370234207
aI593877172
aL2571145477L
aI90758418
aI275376860
aL2344531388L
aI219075657
aI153452411
aI1157961200
aI490667934
aI121276998
aL3093012243L
aL3202265807L
aL3012561618L
aL3169249704L
aI1600891231
aI381543553
aL2346547340L
aI1129900796
aL2310585061L
aL2165676145L
aL3076018977L
aL3145904237L
aL3170663495L
aI1734052771
aI45245955
aI218974314
aL3004779262L
aL2781050528L
aL2342848920L
aL2424218279L
aL2242305241L
aI238522293
aI785477377
aI198869640
aI72332980
aL3121742122L
aL3116218064L
aL2491208618L
aL3071692706L
aI1475976896
aL2534446405L
aL2491445136L
aI60804967
aI1260212828
aI1260201392
aI1586838654
aI1260202237
aL3018394344L
aL2850084094L
aL2591796030L
aL2952421932L
aI17996917
aI221497409
aI493804255
aL2742426109L
aI1581782214
aL2997788563L
aI265539379
aL2532866358L
aL2874496262L
aI1428781052
aI1152640796
aL3033805095L
aL3098500213L
aI1286540352
aI18115961
aI903948823
aI516223799
aI1260271160
aI161368630
aI1260201445
aI1260199729
aI1260179900
aI1260179330
aI93317799
aI1444614408
aI806818530
aL2268543434L
aL2541589014L
aL3073478049L
aI89566280
aI15897179
aI24591683
aI776549989
aI104105529
aL2837617297L
aI187724250
aL3005599078L
aI43255512
aI1572825480
aL3065083689L
aI24052737
aL3065060260L
aL3064934625L
aI26045083
aL2816799062L
aI49654515
aI378715806
aI1734533858
aL3059890647L
aI161382699
aI887055006
aI308613787
aL2899752808L
aL2948879195L
aI287885364
aI453536184
aI1164047450
aL3044657531L
aI303531344
aI83294034
aI126731503
aL2533603202L
aI1888591784
aI1319076320
aI517223117
aI964641726
aL3022997306L
aI904968246
aI135610659
aI1267983270
aL3028939137L
aI1667535924
aI197833923
aI42464535
aI329167984
aL3003981136L
aL2377177347L
aI1086425125
aL2315534592L
aL2917930186L
aI250317700
aI737866058
aI611817117
aI1909086434
aL2554360830L
aI201400755
aI40811479
aasS'obj'
p6
ccopy_reg
_reconstructor
p7
(ctweepy.models
User
p8
c__builtin__
object
p9
Ntp10
Rp11
(dp12
S'follow_request_sent'
p13
NsS'has_extended_profile'
p14
I00
sS'profile_use_background_image'
p15
I01
sS'profile_sidebar_fill_color'
p16
VE6F6F9
p17
sS'id'
p18
L2342215530L
sS'verified'
p19
I00
sS'entities'
p20
(dp21
Vdescription
p22
(dp23
Vurls
p24
(lp25
sssS'profile_image_url_https'
p26
Vhttps://pbs.twimg.com/profile_images/544036492876591104/7QJIB-XK_normal.jpeg
p27
sS'_json'
p28
(dp29
Vfollow_request_sent
p30
NsVhas_extended_profile
p31
I00
sVprofile_use_background_image
p32
I01
sVdefault_profile_image
p33
I00
sVid
p34
L2342215530L
sVprofile_background_image_url_https
p35
Vhttps://abs.twimg.com/images/themes/theme17/bg.gif
p36
sVverified
p37
I00
sVprofile_text_color
p38
V333333
p39
sVprofile_image_url_https
p40
g27
sVprofile_sidebar_fill_color
p41
g17
sVentities
p42
g21
sVfollowers_count
p43
I463
sVprofile_sidebar_border_color
p44
VDBE9ED
p45
sVid_str
p46
V2342215530
p47
sVprofile_background_color
p48
VDBE9ED
p49
sVlisted_count
p50
I89
sVstatus
p51
(dp52
Vcontributors
p53
NsVtruncated
p54
I00
sVtext
p55
V$OCUL $CIG:\u000a\u000a5 Stocks Under Wall Street\u2019s Radar: Ocular Therapeutix, (NASDAQ \u2026:\u000a\u000ahttps://t.co/3rX3bh7ctG
p56
sVin_reply_to_status_id
p57
Nsg34
L666252162620596226L
sVfavorite_count
p58
I0
sVsource
p59
V<a href="http://www.newsflowing.com" rel="nofollow">NFIG</a>
p60
sVretweeted
p61
I00
sVcoordinates
p62
Nsg42
(dp63
Vsymbols
p64
(lp65
(dp66
Vindices
p67
(lp68
I0
aI5
asg55
VOCUL
p69
sa(dp70
g67
(lp71
I6
aI10
asg55
VCIG
p72
sasVuser_mentions
p73
(lp74
sVhashtags
p75
(lp76
sg24
(lp77
(dp78
Vurl
p79
Vhttps://t.co/3rX3bh7ctG
p80
sg67
(lp81
I81
aI104
asVexpanded_url
p82
Vhttp://StockNewsHour.com/ocul-cig-5-stocks-under-wall-streets-radar-ocular-therapeutix-nasdaq/
p83
sVdisplay_url
p84
VStockNewsHour.com/ocul-cig-5-sto\u2026
p85
sassVin_reply_to_screen_name
p86
Nsg46
V666252162620596226
p87
sVretweet_count
p88
I0
sVin_reply_to_user_id
p89
NsVfavorited
p90
I00
sVgeo
p91
NsVin_reply_to_user_id_str
p92
NsVpossibly_sensitive
p93
I00
sVlang
p94
Ven
p95
sVcreated_at
p96
VMon Nov 16 13:51:08 +0000 2015
p97
sVin_reply_to_status_id_str
p98
NsVplace
p99
NssVis_translation_enabled
p100
I00
sVutc_offset
p101
I-14400
sVstatuses_count
p102
I197290
sg22
V
p103
sVfriends_count
p104
I0
sVlocation
p105
g103
sVprofile_link_color
p106
VCC3366
p107
sVprofile_image_url
p108
Vhttp://pbs.twimg.com/profile_images/544036492876591104/7QJIB-XK_normal.jpeg
p109
sVfollowing
p110
NsVgeo_enabled
p111
I00
sVprofile_background_image_url
p112
Vhttp://abs.twimg.com/images/themes/theme17/bg.gif
p113
sVscreen_name
p114
Vnewswithvalue
p115
sg94
Ven
p116
sVprofile_background_tile
p117
I00
sVfavourites_count
p118
I0
sVname
p119
VBreaking News Now
p120
sVnotifications
p121
Nsg79
Nsg96
VThu Feb 13 16:14:12 +0000 2014
p122
sVcontributors_enabled
p123
I00
sVtime_zone
p124
VAtlantic Time (Canada)
p125
sVprotected
p126
I00
sVdefault_profile
p127
I00
sVis_translator
p128
I00
ssS'contributors_enabled'
p129
I00
sS'profile_text_color'
p130
g39
sS'followers_count'
p131
I463
sS'profile_sidebar_border_color'
p132
g45
sS'id_str'
p133
g47
sS'default_profile_image'
p134
I00
sS'listed_count'
p135
I89
sS'status'
p136
g7
(ctweepy.models
Status
p137
g9
Ntp138
Rp139
(dp140
S'favorited'
p141
I00
sS'contributors'
p142
NsS'truncated'
p143
I00
sS'text'
p144
V$OCUL $CIG:\u000a\u000a5 Stocks Under Wall Street\u2019s Radar: Ocular Therapeutix, (NASDAQ \u2026:\u000a\u000ahttps://t.co/3rX3bh7ctG
p145
sS'source_url'
p146
Vhttp://www.newsflowing.com
p147
sS'possibly_sensitive'
p148
I00
sS'in_reply_to_status_id'
p149
NsS'geo'
p150
Nsg18
L666252162620596226L
sS'favorite_count'
p151
I0
sS'lang'
p152
g95
sg20
g63
sS'created_at'
p153
cdatetime
datetime
p154
(S'\x07\xdf\x0b\x10\r3\x08\x00\x00\x00'
p155
tp156
Rp157
sg28
g52
sS'coordinates'
p158
NsS'in_reply_to_user_id_str'
p159
NsS'source'
p160
VNFIG
p161
sS'in_reply_to_status_id_str'
p162
NsS'in_reply_to_screen_name'
p163
Nsg133
g87
sS'retweeted'
p164
I00
sS'place'
p165
NsS'retweet_count'
p166
I0
sS'in_reply_to_user_id'
p167
NsbsS'is_translation_enabled'
p168
I00
sS'utc_offset'
p169
I-14400
sS'statuses_count'
p170
I197290
sS'description'
p171
g103
sS'friends_count'
p172
I0
sS'location'
p173
g103
sS'profile_link_color'
p174
g107
sS'profile_image_url'
p175
g109
sS'notifications'
p176
NsS'geo_enabled'
p177
I00
sS'profile_background_color'
p178
g49
sS'profile_background_image_url'
p179
g113
sS'screen_name'
p180
g115
sg152
g116
sg1
I00
sS'profile_background_tile'
p181
I00
sS'favourites_count'
p182
I0
sS'name'
p183
g120
sS'url'
p184
Nsg153
g154
(S'\x07\xde\x02\r\x10\x0e\x0c\x00\x00\x00'
p185
tp186
Rp187
sS'profile_background_image_url_https'
p188
g36
sS'time_zone'
p189
g125
sS'protected'
p190
I00
sS'default_profile'
p191
I00
sS'is_translator'
p192
I00
sbs.