(dp0
S'following'
p1
(lp2
sS'followers'
p3
(lp4
(lp5
L2906667804L
aI403392844
aI125757964
aL3327855570L
aL4186563074L
aI1582674716
aI446353849
aI176489385
aI397230348
aL2992414321L
aL2527973556L
aL4228548738L
aL3314229948L
aL2996027058L
aI473562694
aI1243222531
aI481175538
aL3046640950L
aI1924312855
aL3362515574L
aI1660419504
aL2902483699L
aI266420236
aI398416182
aI508028610
aL3870926553L
aI170814162
aL4147237933L
aL3551310979L
aI173654022
aL4190367919L
aL3522477673L
aI50228468
aL2799757448L
aI149932202
aI60566743
aI105013860
aL3906672555L
aI800931355
aI48486244
aI1521383012
aI1241817439
aI973526522
aL4141986560L
aL3627968296L
aI51054670
aI561492861
aL2560648614L
aI1924310023
aL3116218064L
aI480910481
aL3299963936L
aL2450102586L
aL2231056406L
aL3894840261L
aL2317294565L
aI287873887
aI396999574
aL3352167713L
aL4035831256L
aI979730251
aL3917969176L
aL3883704746L
aI487818318
aL3947918553L
aL3305738855L
aL3917932455L
aL3918077722L
aI14772617
aL3947270356L
aL3249124776L
aL2749698599L
aI424933019
aL2865417941L
aL2960280952L
aI1923926642
aL2234670046L
aL3327357133L
aL3995585485L
aI874684874
aI831314538
aL3409433439L
aI196969498
aL3221146965L
aI287349055
aI1393641206
aI335812034
aI240526672
aL2180870413L
aI23380335
aL3123897103L
aI1861916791
aI1371367364
aL3945232397L
aI400872094
aL2599003902L
aL3018809793L
aL3956165183L
aL3307131068L
aI1667214625
aL3935758936L
aL2662370076L
aI460559139
aI261885785
aL3910724722L
aI9555372
aL2236152487L
aI38829723
aL3869530168L
aL2657429448L
aL3882448277L
aI583123413
aL2408038189L
aI40988792
aI903850795
aI272141779
aI117598147
aL2992046881L
aI477390385
aI88030487
aL2362685280L
aL2314289604L
aL3759476176L
aL3111837451L
aI714413964
aI35784526
aL2972555345L
aI348377988
aL3413788203L
aI583390156
aL2887204842L
aL3432665068L
aI983595390
aI240922060
aI215523239
aL2861434869L
aI60014176
aL3362388111L
aI51701643
aL2380905156L
aI1153886502
aL2696021696L
aL2444104684L
aL3412838009L
aL2227306846L
aI1655962526
aL3061305713L
aL2590790454L
aI448837975
aL3261757092L
aL3215876815L
aI1173744218
aI322945169
aI1285949539
aL2444504669L
aL2781050528L
aL3313742095L
aL3315899818L
aI18548136
aL2155756220L
aI35359528
aI1543406868
aI1071778898
aL2309563915L
aI364919573
aI15312351
aI1635591025
aL3366624004L
aI1395054624
aI377376127
aI1103617460
aL3259080024L
aL3011820468L
aI1934095376
aL2171111726L
aL2472872221L
aL2851614722L
aI198113607
aI145841514
aL3281987406L
aI209959772
aI22676920
aI28508098
aL3378642239L
aI1845191160
aL2555545686L
aI49909375
aI405022806
aI36894359
aI42843140
aI57636665
aI17674939
aI1569225756
aI159828441
aI329888323
aI115059975
aL3360745871L
aL2743255203L
aI127967449
aI1578481489
aI1861822034
aL2196837308L
aL3261150500L
aL3261931988L
aL2910191258L
aI626934215
aI1228116126
aL3243802303L
aI1013916739
aI522920774
aL3233673608L
aI528984919
aI987686478
aI415562861
aL3335767757L
aL2358784585L
aI285362838
aI867092556
aI23742853
aL3325332039L
aI524538404
aI108717075
aI408785786
aI379649521
aI35922675
aL3073036044L
aL3318118235L
aL2801280973L
aI41929741
aI37637299
aL3307510042L
aL2579913354L
aL3231571808L
aI275115952
aL3308857072L
aI39100999
aL2731069732L
aL2822769166L
aI43395536
aI207361612
aL3148850126L
aL3160500300L
aL3301882996L
aI473337456
aI548857056
aI981236256
aI198869640
aL2885410336L
aI19103794
aI1902525966
aI18230536
aL3057821993L
aI1419624721
aI597799971
aL3040421671L
aI1872951936
aI554290220
aI29746309
aI60804967
aI57241413
aL3169249704L
aI17072544
aI546898749
aI492248877
aL2958534428L
aI262468404
aL3185728742L
aI341031417
aI515371010
aI18058561
aL2571145477L
aI422033173
aL3139484672L
aL3011428237L
aL3222792579L
aL2738243777L
aI1328023010
aI490667934
aL3097111391L
aI1067349001
aL2276476286L
aL3056128905L
aL3157040548L
aL3012561618L
aI398161168
aI112655644
aL2166492031L
aL2346547340L
aL2310585061L
aL2165676145L
aI805154172
aL2353820365L
aI90758418
aI1016174119
aI81019673
aI36982715
aL3001272125L
aI68305471
aI319164211
aL2356870417L
aL2817966517L
aI457099259
aL2853044743L
aI627124575
aI1482419522
aL2940159187L
aL3140723175L
aI16449946
aI1942642550
aI1281195463
aL2838950547L
aL3073273994L
aI24180209
aI22225662
aI1260296654
aI1260186684
aI70379882
aL2503313773L
aI161368630
aL2541961200L
aI158107603
aI248279296
aL3018394344L
aI87567131
aL2388182430L
aL2997788563L
aL2984379055L
aL2488662092L
aI69933730
aI265539379
aL2874496262L
aL2985013655L
aI250589513
aI1941431612
aI387900372
aL2154822053L
aI15077028
aI1393939705
aI1260286129
aI1260202237
aI1260179900
aI1260180086
aI1260179330
aI1185267170
aL3064317746L
aI1444614408
aI1679889355
aI473463895
aL2908046035L
aL2726742534L
aI1888591784
aI272005519
aL3073478049L
aI1129448604
aL3082283405L
aI1153895892
aL2987607550L
aL2540640847L
aI34578922
aL2533152163L
aL2980314022L
aI246037361
aL2339591153L
aL2985088676L
aI233258651
aL3045617883L
aL2541679982L
aL2241945737L
aL3065083689L
aL3065060260L
aL3064934625L
aI392958028
aL2856226029L
aL2832981087L
aI17977108
aI1734533858
aI370360406
aL2341152092L
aL2948879195L
aL2340707119L
aI303531344
aL2540673002L
aL3039837831L
aL2508712539L
aI21759987
aL3039702052L
aL2927469015L
aI1106951682
aL2999969571L
aL2261659524L
aI276334529
aL2776610207L
aI934486993
aI904968246
aI48004857
aI492447655
aI186553210
aI250317700
aL2917930186L
aI195535051
aL2873798257L
aI25553192
aI293129222
aI611817117
aL2918771477L
aI362773790
aI71920556
aI875809898
aI611684788
aI39002603
aL2370386160L
aI1012824518
aI551894180
aL2700934344L
aI567630335
aL2606646628L
aI119827312
aI297758851
aL2615360407L
aI796282933
aI709645730
aI303075840
aI1685709066
aI371849744
aI1419454813
aasS'obj'
p6
ccopy_reg
_reconstructor
p7
(ctweepy.models
User
p8
c__builtin__
object
p9
Ntp10
Rp11
(dp12
S'follow_request_sent'
p13
NsS'has_extended_profile'
p14
I00
sS'profile_use_background_image'
p15
I01
sS'profile_sidebar_fill_color'
p16
VDDFFCC
p17
sS'id'
p18
L2342763212L
sS'verified'
p19
I00
sS'entities'
p20
(dp21
Vdescription
p22
(dp23
Vurls
p24
(lp25
sssS'profile_image_url_https'
p26
Vhttps://pbs.twimg.com/profile_images/544036701056684032/FY2Xgs7b_normal.jpeg
p27
sS'_json'
p28
(dp29
Vfollow_request_sent
p30
NsVhas_extended_profile
p31
I00
sVprofile_use_background_image
p32
I01
sVdefault_profile_image
p33
I00
sVid
p34
L2342763212L
sVprofile_background_image_url_https
p35
Vhttps://abs.twimg.com/images/themes/theme16/bg.gif
p36
sVverified
p37
I00
sVprofile_text_color
p38
V333333
p39
sVprofile_image_url_https
p40
g27
sVprofile_sidebar_fill_color
p41
g17
sVentities
p42
g21
sVfollowers_count
p43
I425
sVprofile_sidebar_border_color
p44
VBDDCAD
p45
sVid_str
p46
V2342763212
p47
sVprofile_background_color
p48
V9AE4E8
p49
sVlisted_count
p50
I75
sVstatus
p51
(dp52
Vcontributors
p53
NsVtruncated
p54
I00
sVtext
p55
V$SNY:\u000a\u000aEuropean stocks Overview: Sanofi SA (ADR) (NYSE:SNY \u2026:\u000a\u000ahttps://t.co/hkgTUOJU82
p56
sVin_reply_to_status_id
p57
Nsg34
L666234518911762432L
sVfavorite_count
p58
I0
sVsource
p59
V<a href="http://www.newsflowing.com" rel="nofollow">NFIG</a>
p60
sVretweeted
p61
I00
sVcoordinates
p62
Nsg42
(dp63
Vsymbols
p64
(lp65
(dp66
Vindices
p67
(lp68
I0
aI4
asg55
VSNY
p69
sasVuser_mentions
p70
(lp71
sVhashtags
p72
(lp73
sg24
(lp74
(dp75
Vurl
p76
Vhttps://t.co/hkgTUOJU82
p77
sg67
(lp78
I63
aI86
asVexpanded_url
p79
Vhttp://StockNewsHour.com/sny-european-stocks-overview-sanofi-sa-adr-nysesny/
p80
sVdisplay_url
p81
VStockNewsHour.com/sny-european-s\u2026
p82
sassVin_reply_to_screen_name
p83
Nsg46
V666234518911762432
p84
sVretweet_count
p85
I0
sVin_reply_to_user_id
p86
NsVfavorited
p87
I00
sVgeo
p88
NsVin_reply_to_user_id_str
p89
NsVpossibly_sensitive
p90
I00
sVlang
p91
Vda
p92
sVcreated_at
p93
VMon Nov 16 12:41:02 +0000 2015
p94
sVin_reply_to_status_id_str
p95
NsVplace
p96
NssVis_translation_enabled
p97
I00
sVutc_offset
p98
I-14400
sVstatuses_count
p99
I198110
sg22
VNews as it happens
p100
sVfriends_count
p101
I0
sVlocation
p102
VUS
p103
sVprofile_link_color
p104
V0084B4
p105
sVprofile_image_url
p106
Vhttp://pbs.twimg.com/profile_images/544036701056684032/FY2Xgs7b_normal.jpeg
p107
sVfollowing
p108
NsVgeo_enabled
p109
I00
sVprofile_background_image_url
p110
Vhttp://abs.twimg.com/images/themes/theme16/bg.gif
p111
sVscreen_name
p112
Vnewswelldone
p113
sg91
Ven
p114
sVprofile_background_tile
p115
I00
sVfavourites_count
p116
I0
sVname
p117
VBreaking News
p118
sVnotifications
p119
Nsg76
Nsg93
VFri Feb 14 00:21:52 +0000 2014
p120
sVcontributors_enabled
p121
I00
sVtime_zone
p122
VAtlantic Time (Canada)
p123
sVprotected
p124
I00
sVdefault_profile
p125
I00
sVis_translator
p126
I00
ssS'contributors_enabled'
p127
I00
sS'profile_text_color'
p128
g39
sS'followers_count'
p129
I425
sS'profile_sidebar_border_color'
p130
g45
sS'id_str'
p131
g47
sS'default_profile_image'
p132
I00
sS'listed_count'
p133
I75
sS'status'
p134
g7
(ctweepy.models
Status
p135
g9
Ntp136
Rp137
(dp138
S'favorited'
p139
I00
sS'contributors'
p140
NsS'truncated'
p141
I00
sS'text'
p142
V$SNY:\u000a\u000aEuropean stocks Overview: Sanofi SA (ADR) (NYSE:SNY \u2026:\u000a\u000ahttps://t.co/hkgTUOJU82
p143
sS'source_url'
p144
Vhttp://www.newsflowing.com
p145
sS'possibly_sensitive'
p146
I00
sS'in_reply_to_status_id'
p147
NsS'geo'
p148
Nsg18
L666234518911762432L
sS'favorite_count'
p149
I0
sS'lang'
p150
g92
sg20
g63
sS'created_at'
p151
cdatetime
datetime
p152
(S'\x07\xdf\x0b\x10\x0c)\x02\x00\x00\x00'
p153
tp154
Rp155
sg28
g52
sS'coordinates'
p156
NsS'in_reply_to_user_id_str'
p157
NsS'source'
p158
VNFIG
p159
sS'in_reply_to_status_id_str'
p160
NsS'in_reply_to_screen_name'
p161
Nsg131
g84
sS'retweeted'
p162
I00
sS'place'
p163
NsS'retweet_count'
p164
I0
sS'in_reply_to_user_id'
p165
NsbsS'is_translation_enabled'
p166
I00
sS'utc_offset'
p167
I-14400
sS'statuses_count'
p168
I198110
sS'description'
p169
g100
sS'friends_count'
p170
I0
sS'location'
p171
g103
sS'profile_link_color'
p172
g105
sS'profile_image_url'
p173
g107
sS'notifications'
p174
NsS'geo_enabled'
p175
I00
sS'profile_background_color'
p176
g49
sS'profile_background_image_url'
p177
g111
sS'screen_name'
p178
g113
sg150
g114
sg1
I00
sS'profile_background_tile'
p179
I00
sS'favourites_count'
p180
I0
sS'name'
p181
g118
sS'url'
p182
Nsg151
g152
(S'\x07\xde\x02\x0e\x00\x154\x00\x00\x00'
p183
tp184
Rp185
sS'profile_background_image_url_https'
p186
g36
sS'time_zone'
p187
g123
sS'protected'
p188
I00
sS'default_profile'
p189
I00
sS'is_translator'
p190
I00
sbs.