(dp0
S'following'
p1
(lp2
sS'followers'
p3
(lp4
(lp5
L2821387060L
aL4130538674L
aL2726345108L
aL2342222708L
aL3821738592L
aL4150814553L
aI545772048
aI831630774
aI63452925
aI1904689014
aI581388367
aI396999574
aI26573545
aI489928172
aI262652488
aL2709919053L
aI60303402
aI167454651
aL2227005048L
aI105699361
aI1887248592
aI361602357
aI926008676
aI51718145
aI416786410
aI374186709
aL2314289604L
aI359923345
aI18548136
aI5404752
aI49600984
aL2972225260L
aL2837882056L
aL3929768139L
aL2512910989L
aI240526672
aI418089333
aI799224602
aI23274773
aL2662370076L
aI29861391
aI19371840
aL2395258519L
aI436707351
aI1727611316
aL2304122725L
aI1363308866
aL3221782987L
aI1857194826
aL2803715233L
aI21556388
aI116357060
aL2351846976L
aL3111837451L
aI1433462870
aI379649521
aI21435260
aL3646467079L
aI139930328
aI112940696
aI106212919
aI245814742
aL2972555345L
aL2680579453L
aI600221036
aI414038428
aL3432665068L
aL2999872049L
aI22695317
aI466831589
aI21379577
aI75079820
aL3301540820L
aI318226307
aI1382153222
aL2933888506L
aI25083276
aI129511449
aL2743255203L
aI54648210
aL2523807409L
aI321005507
aI108607339
aI534542878
aI102797593
aL2887204842L
aI517840629
aL3038350668L
aL2660702952L
aL2549726353L
aL3561252981L
aI48006033
aI25018488
aL3309232460L
aL2914776039L
aL2316727016L
aL2493750616L
aI93040876
aL2419651428L
aL2466423169L
aL2987057290L
aL2435505893L
aI26333635
aI841121060
aI60981749
aI626519918
aI233258651
aI306532721
aI25519194
aI14446838
aI23951571
aL2588179081L
aL3191061081L
aI18241477
aI419854395
aL2749039009L
aI575802875
aI1300430120
aI394674548
aI67394626
aL3322997327L
aI363890577
aI384510747
aI28999409
aL2471280174L
aL2402332680L
aI269485005
aI785976913
aI1130044046
aL2675095722L
aL3022256088L
aL2444104684L
aI17085375
aL2550297583L
aI126061295
aI554290220
aL3234051685L
aI223984925
aI45377391
aL3306104420L
aI79460834
aL2761178345L
aI67170957
aI531525580
aL3397966396L
aL3312136039L
aI92085423
aL2417812602L
aL3308655626L
aL3373323118L
aL2820227099L
aI23733287
aL2485450356L
aI1404958586
aL2233171476L
aL3245904676L
aI105212691
aI22298549
aI1571456736
aI981355261
aL2942145805L
aL2242298871L
aI378376311
aI301363956
aI65477424
aI304634480
aI1167296694
aI31193398
aI1286540352
aL2911025632L
aL3284980086L
aL2596384718L
aI881608580
aI601312716
aI42757527
aI297197603
aI26666812
aI499039227
aI502162799
aI32395417
aI275877314
aI107646745
aI567428866
aI62310798
aI198996137
aI1934095376
aI872954899
aL3108015141L
aL2874667952L
aL2472872221L
aL2898526274L
aL2988108479L
aI30820266
aI313474529
aI50904879
aI500166493
aI18041613
aI371947494
aI625833911
aI1845191160
aI67000429
aI97561587
aI271100570
aL3242042259L
aL2389811291L
aI590827582
aI1287370608
aI582231292
aL2530747105L
aL2791169333L
aI427615273
aL2769316162L
aI391689074
aI297984621
aI384000192
aI1373478020
aL3172928667L
aI163645599
aI185663478
aI1051076034
aI374619986
aI1618068565
aI16463404
aL2850084094L
aL3255494683L
aI422207602
aI91114089
aL2731069732L
aI823849369
aI332311864
aI308510904
aI190640678
aL3342799617L
aI296331958
aI151044005
aI769578506
aI215867423
aI19010961
aI244755814
aI148186622
aL2195107490L
aI1544847342
aI976846634
aI533972176
aL2994025951L
aL3229242288L
aI506870992
aI103776091
aI394869932
aI21611409
aL2616323312L
aL2887873879L
aI46690599
aI1902269354
aL2230439648L
aI119384261
aI17514210
aI261556251
aI1608954462
aI1233362096
aI419532531
aL2482527181L
aL2695728420L
aL2818187550L
aI202393942
aL3150133263L
aI364309280
aI1275929029
aL3068933499L
aL2342472029L
aI1655962526
aI19805021
aI737311736
aL2610350617L
aI79547213
aI19724230
aI211691778
aI600041771
aI1462240951
aI527916338
aI1125338300
aI327486408
aI1686677780
aI244635952
aI509311185
aI67921468
aI19304535
aL2341347170L
aL2966889492L
aI34784727
aL2330801192L
aI548857056
aI579988320
aI205944076
aI257489716
aI265520992
aL3229196660L
aL3152920558L
aI388011737
aI219501803
aI782030712
aI66975479
aI250317700
aI20800915
aL2805951170L
aL2594450293L
aI1963055882
aI72650262
aI133353420
aasS'obj'
p6
ccopy_reg
_reconstructor
p7
(ctweepy.models
User
p8
c__builtin__
object
p9
Ntp10
Rp11
(dp12
S'follow_request_sent'
p13
NsS'has_extended_profile'
p14
I00
sS'profile_use_background_image'
p15
I01
sS'profile_sidebar_fill_color'
p16
VF6FFD1
p17
sS'id'
p18
L2343862982L
sS'verified'
p19
I00
sS'entities'
p20
(dp21
Vdescription
p22
(dp23
Vurls
p24
(lp25
sssS'profile_image_url_https'
p26
Vhttps://pbs.twimg.com/profile_images/475757304042618880/GXfaDX___normal.jpeg
p27
sS'_json'
p28
(dp29
Vfollow_request_sent
p30
NsVhas_extended_profile
p31
I00
sVprofile_use_background_image
p32
I01
sVdefault_profile_image
p33
I00
sVid
p34
L2343862982L
sVprofile_background_image_url_https
p35
Vhttps://abs.twimg.com/images/themes/theme19/bg.gif
p36
sVverified
p37
I00
sVprofile_text_color
p38
V333333
p39
sVprofile_image_url_https
p40
g27
sVprofile_sidebar_fill_color
p41
g17
sVentities
p42
g21
sVfollowers_count
p43
I309
sVprofile_sidebar_border_color
p44
VFFF8AD
p45
sVid_str
p46
V2343862982
p47
sVprofile_background_color
p48
VFFF04D
p49
sVlisted_count
p50
I18
sVstatus
p51
(dp52
Vcontributors
p53
NsVtruncated
p54
I00
sVtext
p55
Vhttps://t.co/yPAR9LrSK6
p56
sVin_reply_to_status_id
p57
Nsg34
L666315050785873920L
sVfavorite_count
p58
I0
sVsource
p59
V<a href="http://lovelystocks.com" rel="nofollow">WatchTheFunds</a>
p60
sVretweeted
p61
I00
sVcoordinates
p62
Nsg42
(dp63
Vsymbols
p64
(lp65
sVuser_mentions
p66
(lp67
sVhashtags
p68
(lp69
sg24
(lp70
sVmedia
p71
(lp72
(dp73
Vexpanded_url
p74
Vhttp://twitter.com/WatchTheFunds/status/666315050785873920/photo/1
p75
sVdisplay_url
p76
Vpic.twitter.com/yPAR9LrSK6
p77
sVurl
p78
Vhttps://t.co/yPAR9LrSK6
p79
sVmedia_url_https
p80
Vhttps://pbs.twimg.com/media/CT86AiMWsAAFVdV.jpg
p81
sg46
V666315050727157760
p82
sVsizes
p83
(dp84
Vlarge
p85
(dp86
Vh
p87
I4
sVresize
p88
Vfit
p89
sVw
p90
I4
ssVsmall
p91
(dp92
g87
I4
sg88
Vfit
p93
sg90
I4
ssVmedium
p94
(dp95
g87
I4
sg88
Vfit
p96
sg90
I4
ssVthumb
p97
(dp98
g87
I4
sg88
Vcrop
p99
sg90
I4
sssVindices
p100
(lp101
I0
aI23
asVtype
p102
Vphoto
p103
sg34
L666315050727157760L
sVmedia_url
p104
Vhttp://pbs.twimg.com/media/CT86AiMWsAAFVdV.jpg
p105
sassVin_reply_to_screen_name
p106
Nsg46
V666315050785873920
p107
sVretweet_count
p108
I0
sVin_reply_to_user_id
p109
NsVfavorited
p110
I00
sVgeo
p111
NsVin_reply_to_user_id_str
p112
NsVpossibly_sensitive
p113
I00
sVlang
p114
Vund
p115
sVcreated_at
p116
VMon Nov 16 18:01:02 +0000 2015
p117
sVin_reply_to_status_id_str
p118
NsVplace
p119
NssVis_translation_enabled
p120
I00
sVutc_offset
p121
I-14400
sVstatuses_count
p122
I66419
sg22
V
p123
sVfriends_count
p124
I0
sVlocation
p125
g123
sVprofile_link_color
p126
V0099CC
p127
sVprofile_image_url
p128
Vhttp://pbs.twimg.com/profile_images/475757304042618880/GXfaDX___normal.jpeg
p129
sVfollowing
p130
NsVgeo_enabled
p131
I00
sVprofile_background_image_url
p132
Vhttp://abs.twimg.com/images/themes/theme19/bg.gif
p133
sVscreen_name
p134
VWatchTheFunds
p135
sg114
Ven
p136
sVprofile_background_tile
p137
I00
sVfavourites_count
p138
I0
sVname
p139
VWatchTheFunds
p140
sVnotifications
p141
Nsg78
Nsg116
VFri Feb 14 17:09:44 +0000 2014
p142
sVcontributors_enabled
p143
I00
sVtime_zone
p144
VAtlantic Time (Canada)
p145
sVprotected
p146
I00
sVdefault_profile
p147
I00
sVis_translator
p148
I00
ssS'contributors_enabled'
p149
I00
sS'profile_text_color'
p150
g39
sS'followers_count'
p151
I309
sS'profile_sidebar_border_color'
p152
g45
sS'id_str'
p153
g47
sS'default_profile_image'
p154
I00
sS'listed_count'
p155
I18
sS'status'
p156
g7
(ctweepy.models
Status
p157
g9
Ntp158
Rp159
(dp160
S'favorited'
p161
I00
sS'contributors'
p162
NsS'truncated'
p163
I00
sS'text'
p164
g56
sS'source_url'
p165
Vhttp://lovelystocks.com
p166
sS'possibly_sensitive'
p167
I00
sS'in_reply_to_status_id'
p168
NsS'geo'
p169
Nsg18
L666315050785873920L
sS'favorite_count'
p170
I0
sS'lang'
p171
g115
sg20
g63
sS'created_at'
p172
cdatetime
datetime
p173
(S'\x07\xdf\x0b\x10\x12\x01\x02\x00\x00\x00'
p174
tp175
Rp176
sg28
g52
sS'coordinates'
p177
NsS'in_reply_to_user_id_str'
p178
NsS'source'
p179
VWatchTheFunds
p180
sS'in_reply_to_status_id_str'
p181
NsS'in_reply_to_screen_name'
p182
Nsg153
g107
sS'retweeted'
p183
I00
sS'place'
p184
NsS'retweet_count'
p185
I0
sS'in_reply_to_user_id'
p186
NsbsS'is_translation_enabled'
p187
I00
sS'utc_offset'
p188
I-14400
sS'statuses_count'
p189
I66419
sS'description'
p190
g123
sS'friends_count'
p191
I0
sS'location'
p192
g123
sS'profile_link_color'
p193
g127
sS'profile_image_url'
p194
g129
sS'notifications'
p195
NsS'geo_enabled'
p196
I00
sS'profile_background_color'
p197
g49
sS'profile_background_image_url'
p198
g133
sS'screen_name'
p199
g135
sg171
g136
sg1
I00
sS'profile_background_tile'
p200
I00
sS'favourites_count'
p201
I0
sS'name'
p202
g140
sS'url'
p203
Nsg172
g173
(S'\x07\xde\x02\x0e\x11\t,\x00\x00\x00'
p204
tp205
Rp206
sS'profile_background_image_url_https'
p207
g36
sS'time_zone'
p208
g145
sS'protected'
p209
I00
sS'default_profile'
p210
I00
sS'is_translator'
p211
I00
sbs.