(dp0
S'following'
p1
(lp2
sS'followers'
p3
(lp4
(lp5
L2992414321L
aI181762378
aI233530413
aL2159322464L
aL4186372055L
aI981236256
aI1924312855
aI31442448
aI38847460
aL4141581863L
aI1884230797
aI326448418
aI949810698
aI1923926642
aI23380335
aL3038411484L
aL2211049622L
aL4032841407L
aL2886678820L
aI377605619
aI396999574
aI197466191
aL2819501723L
aL3947393835L
aI478061208
aL2807501394L
aI1887248592
aI325925520
aL3409433439L
aL2314289604L
aL2180870413L
aI1667214625
aI18548136
aL3165869263L
aI1339476738
aI79568509
aL2844137704L
aI219091416
aI472287245
aI105699361
aI504204962
aL3995615045L
aL3261057500L
aI1884628062
aI1861916791
aI52049251
aL3299963936L
aI803385745
aI14209505
aL2837882056L
aI142395411
aL2959505489L
aI1238620926
aL2662370076L
aL2585874848L
aI49037654
aL2852102916L
aI506384273
aL3272539993L
aL3487873877L
aI1894653319
aI554290220
aI174479899
aL3221782987L
aI222668289
aL3434346681L
aL2838637524L
aI117682044
aL2482580484L
aL2781050528L
aI1263007015
aI500307257
aI922963730
aI252050330
aI597799971
aL3640563914L
aL2491688016L
aI776769307
aL3006221859L
aL2309045877L
aL3595943114L
aL3301540820L
aI202415839
aL2743255203L
aL3609599783L
aI32622754
aL3249124776L
aI106212919
aI733607888
aL2395482374L
aL3498533774L
aI33556405
aL3565914497L
aI1491277236
aL3085904043L
aL2466423169L
aI14716660
aL3507528376L
aI23038757
aI80352329
aI18193185
aI50797793
aL2607663110L
aI99061345
aI785976913
aL3399474263L
aI1462240951
aI300426384
aL3068933499L
aL2342562720L
aL3316386487L
aL2713385423L
aI63367776
aL3339366580L
aL3378841035L
aI287039958
aI344793159
aI20817676
aL3290136309L
aI1618068565
aI258416313
aI20053741
aI1355609132
aI329362957
aI533794915
aL3004589051L
aL3291570051L
aL3382272905L
aL3233697104L
aI42757527
aL2986162709L
aI835974343
aL2600299502L
aL3284980086L
aL2294871512L
aI209052109
aI35359528
aI139886993
aL3298827084L
aI81019673
aL3279805063L
aI82062056
aL2961115240L
aL3354570304L
aI25519246
aI16355756
aI1475745116
aI700665773
aL2172157424L
aL3386859904L
aI28188774
aI35576230
aL2851614722L
aI101510886
aI600041771
aI33973126
aL2484316340L
aI5404752
aI50338744
aI14215968
aI182103541
aI1845191160
aL3273748363L
aI215699107
aI233723894
aL2875672601L
aL2230439648L
aI164789982
aI32437761
aI388579948
aI54945291
aI24942812
aL2881756018L
aI32196169
aI103035998
aI215833032
aL2953575550L
aI885964267
aL2164089107L
aI16463404
aL2395479877L
aL2979184978L
aI1955493762
aI232469707
aI190640678
aL2872087336L
aI514812193
aL2447334339L
aL3030737073L
aI1429446306
aI741519410
aI254351457
aI712995869
aI117628586
aL3047475074L
aI15798830
aI101137025
aL2579913354L
aI581529708
aI159796781
aL2817966517L
aI27395790
aI274622560
aI23979730
aI25404886
aL3319616145L
aI993142597
aI374619986
aI1275929029
aL2978750830L
aI497672334
aI324671163
aI50775018
aL3154096965L
aL2155756220L
aL2598747459L
aI136319486
aI198869640
aL2523154466L
aL3164967420L
aL2176963455L
aI20416465
aL3144458873L
aI229602880
aI19304535
aI22887734
aI38008025
aL2898526274L
aI36293963
aI348004037
aI21880032
aI1690219532
aI357076163
aI297190225
aI419622208
aI531525580
aI416846018
aI120672388
aI550405063
aI191814757
aL2163272683L
aL3256887425L
aI179376826
aI250317700
aI374260621
aL3169249704L
aI240028762
aI904968246
aI113148432
aI1395897594
aI273788198
aI1384556293
aI1529271854
aI229959024
aL3125356805L
aI1170925525
aI303531344
aL2471049920L
aI1452956138
aL2656800877L
aI170814162
aasS'obj'
p6
ccopy_reg
_reconstructor
p7
(ctweepy.models
User
p8
c__builtin__
object
p9
Ntp10
Rp11
(dp12
S'follow_request_sent'
p13
NsS'has_extended_profile'
p14
I00
sS'profile_use_background_image'
p15
I01
sS'profile_sidebar_fill_color'
p16
VF6FFD1
p17
sS'id'
p18
L2344623210L
sS'verified'
p19
I00
sS'entities'
p20
(dp21
Vdescription
p22
(dp23
Vurls
p24
(lp25
sssS'profile_image_url_https'
p26
Vhttps://pbs.twimg.com/profile_images/597618707721035778/xao5eh5P_normal.jpg
p27
sS'_json'
p28
(dp29
Vfollow_request_sent
p30
NsVhas_extended_profile
p31
I00
sVprofile_use_background_image
p32
I01
sVdefault_profile_image
p33
I00
sVid
p34
L2344623210L
sVprofile_background_image_url_https
p35
Vhttps://abs.twimg.com/images/themes/theme19/bg.gif
p36
sVverified
p37
I00
sVprofile_text_color
p38
V333333
p39
sVprofile_image_url_https
p40
g27
sVprofile_sidebar_fill_color
p41
g17
sVentities
p42
g21
sVfollowers_count
p43
I261
sVprofile_sidebar_border_color
p44
VFFF8AD
p45
sVid_str
p46
V2344623210
p47
sVprofile_background_color
p48
VFFF04D
p49
sVlisted_count
p50
I16
sVstatus
p51
(dp52
Vcontributors
p53
NsVtruncated
p54
I00
sVtext
p55
V$EQIX is rated BUY, 10.1% upside by Wall Street analysts based on average ratings/targets https://t.co/p6K0M4R2EX https://t.co/2tkMwjwxwk
p56
sVin_reply_to_status_id
p57
Nsg34
L666249619790237696L
sVfavorite_count
p58
I0
sVsource
p59
V<a href="http://investwithconf.blogspot.com" rel="nofollow">IWCE</a>
p60
sVretweeted
p61
I00
sVcoordinates
p62
Nsg42
(dp63
Vsymbols
p64
(lp65
(dp66
Vindices
p67
(lp68
I0
aI5
asg55
VEQIX
p69
sasVuser_mentions
p70
(lp71
sVhashtags
p72
(lp73
sg24
(lp74
(dp75
Vurl
p76
Vhttps://t.co/p6K0M4R2EX
p77
sg67
(lp78
I90
aI113
asVexpanded_url
p79
Vhttp://manyratings.com/EQIX
p80
sVdisplay_url
p81
Vmanyratings.com/EQIX
p82
sasVmedia
p83
(lp84
(dp85
g79
Vhttp://twitter.com/InvestWithConf/status/666249619790237696/photo/1
p86
sg81
Vpic.twitter.com/2tkMwjwxwk
p87
sg76
Vhttps://t.co/2tkMwjwxwk
p88
sVmedia_url_https
p89
Vhttps://pbs.twimg.com/media/CT7-f8vWUAEsClE.jpg
p90
sg46
V666249619731533825
p91
sVsizes
p92
(dp93
Vlarge
p94
(dp95
Vh
p96
I4
sVresize
p97
Vfit
p98
sVw
p99
I4
ssVsmall
p100
(dp101
g96
I4
sg97
Vfit
p102
sg99
I4
ssVmedium
p103
(dp104
g96
I4
sg97
Vfit
p105
sg99
I4
ssVthumb
p106
(dp107
g96
I4
sg97
Vcrop
p108
sg99
I4
sssg67
(lp109
I114
aI137
asVtype
p110
Vphoto
p111
sg34
L666249619731533825L
sVmedia_url
p112
Vhttp://pbs.twimg.com/media/CT7-f8vWUAEsClE.jpg
p113
sassVin_reply_to_screen_name
p114
Nsg46
V666249619790237696
p115
sVretweet_count
p116
I0
sVin_reply_to_user_id
p117
NsVfavorited
p118
I00
sVgeo
p119
NsVin_reply_to_user_id_str
p120
NsVpossibly_sensitive
p121
I00
sVlang
p122
Ven
p123
sVcreated_at
p124
VMon Nov 16 13:41:02 +0000 2015
p125
sVin_reply_to_status_id_str
p126
NsVplace
p127
NssVis_translation_enabled
p128
I00
sVutc_offset
p129
I-18000
sVstatuses_count
p130
I69313
sg22
V
p131
sVfriends_count
p132
I0
sVlocation
p133
g131
sVprofile_link_color
p134
V0099CC
p135
sVprofile_image_url
p136
Vhttp://pbs.twimg.com/profile_images/597618707721035778/xao5eh5P_normal.jpg
p137
sVfollowing
p138
NsVgeo_enabled
p139
I00
sVprofile_background_image_url
p140
Vhttp://abs.twimg.com/images/themes/theme19/bg.gif
p141
sVscreen_name
p142
VInvestWithConf
p143
sg122
Ven
p144
sVprofile_background_tile
p145
I00
sVfavourites_count
p146
I0
sVname
p147
VInvestWithConf
p148
sVnotifications
p149
Nsg76
Nsg124
VSat Feb 15 05:52:28 +0000 2014
p150
sVcontributors_enabled
p151
I00
sVtime_zone
p152
VEastern Time (US & Canada)
p153
sVprotected
p154
I00
sVdefault_profile
p155
I00
sVis_translator
p156
I00
ssS'contributors_enabled'
p157
I00
sS'profile_text_color'
p158
g39
sS'followers_count'
p159
I261
sS'profile_sidebar_border_color'
p160
g45
sS'id_str'
p161
g47
sS'default_profile_image'
p162
I00
sS'listed_count'
p163
I16
sS'status'
p164
g7
(ctweepy.models
Status
p165
g9
Ntp166
Rp167
(dp168
S'favorited'
p169
I00
sS'contributors'
p170
NsS'truncated'
p171
I00
sS'text'
p172
g56
sS'source_url'
p173
Vhttp://investwithconf.blogspot.com
p174
sS'possibly_sensitive'
p175
I00
sS'in_reply_to_status_id'
p176
NsS'geo'
p177
Nsg18
L666249619790237696L
sS'favorite_count'
p178
I0
sS'lang'
p179
g123
sg20
g63
sS'created_at'
p180
cdatetime
datetime
p181
(S'\x07\xdf\x0b\x10\r)\x02\x00\x00\x00'
p182
tp183
Rp184
sg28
g52
sS'coordinates'
p185
NsS'in_reply_to_user_id_str'
p186
NsS'source'
p187
VIWCE
p188
sS'in_reply_to_status_id_str'
p189
NsS'in_reply_to_screen_name'
p190
Nsg161
g115
sS'retweeted'
p191
I00
sS'place'
p192
NsS'retweet_count'
p193
I0
sS'in_reply_to_user_id'
p194
NsbsS'is_translation_enabled'
p195
I00
sS'utc_offset'
p196
I-18000
sS'statuses_count'
p197
I69313
sS'description'
p198
g131
sS'friends_count'
p199
I0
sS'location'
p200
g131
sS'profile_link_color'
p201
g135
sS'profile_image_url'
p202
g137
sS'notifications'
p203
NsS'geo_enabled'
p204
I00
sS'profile_background_color'
p205
g49
sS'profile_background_image_url'
p206
g141
sS'screen_name'
p207
g143
sg179
g144
sg1
I00
sS'profile_background_tile'
p208
I00
sS'favourites_count'
p209
I0
sS'name'
p210
g148
sS'url'
p211
Nsg180
g181
(S'\x07\xde\x02\x0f\x054\x1c\x00\x00\x00'
p212
tp213
Rp214
sS'profile_background_image_url_https'
p215
g36
sS'time_zone'
p216
g153
sS'protected'
p217
I00
sS'default_profile'
p218
I00
sS'is_translator'
p219
I00
sbs.