(dp0
S'following'
p1
(lp2
sS'followers'
p3
(lp4
(lp5
I297003050
aI322425835
aL4188142775L
aI610337941
aL4191499035L
aL3327855570L
aL4186563074L
aI1582674716
aI1674865572
aI86519478
aL2408038189L
aI8727682
aI270593063
aI1494377268
aI381982408
aL3072371605L
aI1924312855
aI1923879936
aI475906723
aI1378944344
aL4109697221L
aI392718842
aL2885454897L
aI171332537
aI108653258
aL3278802060L
aL4147237933L
aL4008485235L
aL4190367919L
aL2348925452L
aL3237663436L
aL3299708676L
aL2582379294L
aL2552441949L
aL3389592525L
aL3031804453L
aL4155513498L
aI48486244
aL3733014740L
aI398252964
aL2396902122L
aI191949072
aL4125113717L
aI276551086
aL2973296938L
aI176480156
aI1924310023
aL4116086795L
aI1400272116
aL3039175676L
aI1654232154
aL2450102586L
aI26217562
aI522776421
aL2989644309L
aI93798537
aI18315252
aL4032841407L
aL2881130992L
aI1923947209
aI183855455
aL4061394073L
aL3995055857L
aI783440136
aI396999574
aL3193860014L
aL3277489392L
aL2236152487L
aI35922675
aL3917932455L
aL3947918553L
aL3918077722L
aL3947393835L
aI1051076034
aI482171633
aI424933019
aL4048540702L
aL4000329688L
aL2960280952L
aI1949535726
aL2663391805L
aI17617767
aI340656708
aL2180870413L
aI1923926642
aI325925520
aI1674393037
aL3165869263L
aL3310626218L
aI1614490248
aL3299963936L
aI117704053
aI18548136
aL2935796612L
aI122999167
aL2957721364L
aI1371367364
aL2433200225L
aI108400832
aI15957929
aI579133826
aL3947270356L
aI1861822034
aI1861916791
aL3945232397L
aL3188582044L
aI49600984
aI76208996
aL2339492990L
aI964737036
aI1529917477
aL3018809793L
aI78312737
aL3956165183L
aL3307131068L
aI586476504
aL2837882056L
aI1667214625
aI198869640
aL2662370076L
aL3732886635L
aI564953773
aL3894545704L
aI176870517
aI9555372
aI707036708
aL3892471329L
aI73009719
aL3384754253L
aI569176608
aL3372377385L
aI280346260
aI134032023
aI29306841
aI919281907
aL3736584674L
aL3703162280L
aL3223974913L
aI317005063
aI922952971
aI914934800
aL2314289604L
aI117856799
aI117692484
aI41910513
aI50228468
aI21759987
aL3111837451L
aL3753992116L
aL2781050528L
aL2428788473L
aL2597008298L
aL2972555345L
aI504288218
aL3296582249L
aI348377988
aI105734066
aL3433532201L
aL3431509288L
aL3658595897L
aI215523239
aI23359324
aI108607339
aI583123413
aI291511196
aI54371561
aL2217762457L
aL3011820468L
aL2745767380L
aI212051447
aL2754095630L
aL3587873243L
aI40099038
aL3424380854L
aI436707351
aL3190477168L
aL3565914497L
aL2620218247L
aL3039463391L
aL3167244104L
aI18321433
aI317562281
aI1271652320
aL2444504669L
aL2433729504L
aL3373323118L
aI287486837
aL2380905156L
aI224341842
aI23219236
aI487721966
aL3392646663L
aL2932993913L
aI284103777
aL3443056697L
aI128198071
aI1948214132
aL2727665247L
aL3438142101L
aI101512207
aL3088079387L
aL3139505808L
aI77092719
aI305821203
aI568087409
aI453331412
aI360043956
aI299094578
aI554290220
aI31416461
aI266685301
aI333388329
aI36894359
aI42625593
aI269990132
aL3311675731L
aI17674939
aI413704957
aI522194134
aI1861049119
aI109088599
aI35359528
aI1654378777
aL3231044822L
aI1934095376
aL2309563915L
aI45415894
aL3120006449L
aL3299871217L
aI16942776
aI117966938
aL2382967604L
aI118117989
aI1462240951
aI1228116126
aI381031008
aL3389555835L
aI475089432
aL3250102472L
aL3249601548L
aI554288342
aI301142441
aL2851614722L
aI28643230
aI18193185
aI109107784
aL3378642239L
aL3273748363L
aL2881756018L
aI631253777
aL3363566884L
aL2973676666L
aL2817966517L
aL2905872314L
aL3141633336L
aI300937821
aL3249749588L
aL2686353036L
aL3250089164L
aI1321663508
aI382186666
aI48797303
aI1862432078
aL2935160773L
aI1195213951
aI1845191160
aI15855468
aI488904431
aI46787750
aL2675095722L
aI1148682692
aL2801334731L
aI1072643928
aL2567116184L
aL2726943239L
aI32415669
aL2992585800L
aL2783350253L
aI1380634038
aL2547365834L
aL2472872221L
aL3025722357L
aL3261043098L
aI93563372
aL3256301424L
aI1530388104
aI358336454
aL3335167570L
aI1244462341
aI522920774
aI528984919
aL3254242356L
aI17557915
aI987686478
aL2447503778L
aL3291303346L
aI209052109
aI24818476
aI236174136
aL3298181051L
aI1384281805
aL3062341986L
aL3243802303L
aL2596288916L
aI74635768
aI356270349
aI127967449
aI981236256
aI133156659
aL2866905989L
aL2808797253L
aI177436123
aI515152517
aL3319616145L
aL2614684003L
aI560400167
aL3222415339L
aL2830096608L
aL2883878790L
aL2865969418L
aL2511585096L
aL3268137058L
aI260692993
aI44565836
aL3011846898L
aI1401235820
aI473072119
aL3038920584L
aI170814162
aL2927827158L
aL2512910989L
aL3154096965L
aI1684052629
aI55418647
aI626519918
aL3221762206L
aI1926819872
aI477783945
aL3230367968L
aI733508593
aI597799971
aI105632110
aI69326646
aI1861003176
aI276186673
aL3222920383L
aL3040894993L
aL2898526274L
aI914357220
aI416846018
aL3092505707L
aI1543406868
aI19103794
aI175857285
aL3194846497L
aI603513936
aL3220401883L
aL2415853124L
aI1955513186
aL3018577738L
aI28917096
aI1419624721
aL3152504680L
aL3202257059L
aL2830663985L
aI194167613
aL2874609345L
aL2995030616L
aI1514042323
aL3188262614L
aI1067349001
aL2771519865L
aI101288079
aI492248877
aL3186864901L
aI29134482
aL3185728742L
aI593877172
aL3214826429L
aL3087105153L
aL2571145477L
aL3184107485L
aI285362838
aL2344531388L
aI175485707
aI121276998
aL2512518512L
aL2660969144L
aI23881851
aL3167075613L
aL3012561618L
aI201919494
aL2155314677L
aL3195500800L
aI584344353
aL3152565277L
aI18230536
aL2166492031L
aL3166010594L
aL2346547340L
aI341031417
aL2310585061L
aL3068933499L
aL2165676145L
aI463184101
aI770543136
aI180192248
aI90758418
aL3021807379L
aI17709568
aI1314862352
aL2820468068L
aI847706875
aL2390660095L
aI68485534
aL3020563900L
aI117010336
aI31440172
aL2766617696L
aI49178124
aL2283102224L
aI361555945
aL3071692706L
aI278688026
aI233693629
aL3121460908L
aI15897179
aL2536112359L
aI215901845
aL3082138464L
aL2532704923L
aL3115474991L
aL2776871539L
aL3018394344L
aL2997788563L
aL2842611602L
aL3112155856L
aL2984379055L
aL3105005328L
aL3072609968L
aL2493545984L
aL2952421932L
aI70429133
aI743531563
aL2867128625L
aL3065483747L
aI29281076
aI15213553
aL2533768722L
aI1654035020
aL3094225367L
aI1286540352
aL2922789949L
aI349103736
aI1260274386
aI1260260124
aL3084897326L
aI1260268639
aI161368630
aI1260199729
aI1260179900
aI1260179330
aI93317799
aI1444614408
aI130027972
aL3090756328L
aI28741399
aI373437908
aL3010837787L
aL2268543434L
aL2528005758L
aL2930283168L
aI15893046
aL3073478049L
aI227083794
aL3063346128L
aL3070210684L
aL2985088676L
aI26045083
aL3065083689L
aI1734533858
aL3065060260L
aL3064934625L
aI480063071
aI422993232
aL2444104684L
aI1942642550
aI49654515
aL2832981087L
aI849484596
aL3040075525L
aI467590341
aL2948879195L
aI729501906
aI33370951
aL2981977210L
aL2811850586L
aL2931486862L
aI1908996025
aL2741861624L
aI213111914
aI303531344
aI54234228
aI596733800
aL2944073299L
aL3022997306L
aI225909644
aL3010678595L
aL2999969571L
aI611817117
aL2300066311L
aI250317700
aI18225195
aL3020018441L
aI315766789
aI316285982
aI316410338
aI316348586
aI533586341
aI316431456
aI408926378
aI463100829
aasS'obj'
p6
ccopy_reg
_reconstructor
p7
(ctweepy.models
User
p8
c__builtin__
object
p9
Ntp10
Rp11
(dp12
S'follow_request_sent'
p13
NsS'has_extended_profile'
p14
I00
sS'profile_use_background_image'
p15
I01
sS'profile_sidebar_fill_color'
p16
VE3E2DE
p17
sS'id'
p18
L2344619544L
sS'verified'
p19
I00
sS'entities'
p20
(dp21
Vdescription
p22
(dp23
Vurls
p24
(lp25
sssS'profile_image_url_https'
p26
Vhttps://pbs.twimg.com/profile_images/562292381764952064/mVtp0UmJ_normal.jpeg
p27
sS'_json'
p28
(dp29
Vfollow_request_sent
p30
NsVhas_extended_profile
p31
I00
sVprofile_use_background_image
p32
I01
sVdefault_profile_image
p33
I00
sVid
p34
L2344619544L
sVprofile_background_image_url_https
p35
Vhttps://abs.twimg.com/images/themes/theme3/bg.gif
p36
sVverified
p37
I00
sVprofile_text_color
p38
V634047
p39
sVprofile_image_url_https
p40
g27
sVprofile_sidebar_fill_color
p41
g17
sVentities
p42
g21
sVfollowers_count
p43
I522
sVprofile_sidebar_border_color
p44
VD3D2CF
p45
sVid_str
p46
V2344619544
p47
sVprofile_background_color
p48
VEDECE9
p49
sVlisted_count
p50
I86
sVstatus
p51
(dp52
Vcontributors
p53
NsVtruncated
p54
I00
sVtext
p55
V$XLRN:\u000a\u000aCompany Shares of Acceleron Pharma Inc. (NASDAQ:XLRN) Drops \u2026:\u000a\u000ahttps://t.co/MjURSyJOcB
p56
sVin_reply_to_status_id
p57
Nsg34
L666252404829110272L
sVfavorite_count
p58
I0
sVsource
p59
V<a href="http://www.stocknewswires.com" rel="nofollow">StockNewsWires</a>
p60
sVretweeted
p61
I00
sVcoordinates
p62
Nsg42
(dp63
Vsymbols
p64
(lp65
(dp66
Vindices
p67
(lp68
I0
aI5
asg55
VXLRN
p69
sasVuser_mentions
p70
(lp71
sVhashtags
p72
(lp73
sg24
(lp74
(dp75
Vurl
p76
Vhttps://t.co/MjURSyJOcB
p77
sg67
(lp78
I72
aI95
asVexpanded_url
p79
Vhttp://StockNewsHour.com/xlrn-company-shares-of-acceleron-pharma-inc-nasdaqxlrn-drops-2/
p80
sVdisplay_url
p81
VStockNewsHour.com/xlrn-company-s\u2026
p82
sassVin_reply_to_screen_name
p83
Nsg46
V666252404829110272
p84
sVretweet_count
p85
I0
sVin_reply_to_user_id
p86
NsVfavorited
p87
I00
sVgeo
p88
NsVin_reply_to_user_id_str
p89
NsVpossibly_sensitive
p90
I00
sVlang
p91
Vtl
p92
sVcreated_at
p93
VMon Nov 16 13:52:06 +0000 2015
p94
sVin_reply_to_status_id_str
p95
NsVplace
p96
NssVis_translation_enabled
p97
I01
sVutc_offset
p98
I-18000
sVstatuses_count
p99
I186235
sg22
VNews about Stocks
p100
sVfriends_count
p101
I0
sVlocation
p102
VU.S.
p103
sVprofile_link_color
p104
V088253
p105
sVprofile_image_url
p106
Vhttp://pbs.twimg.com/profile_images/562292381764952064/mVtp0UmJ_normal.jpeg
p107
sVfollowing
p108
NsVgeo_enabled
p109
I00
sVprofile_background_image_url
p110
Vhttp://abs.twimg.com/images/themes/theme3/bg.gif
p111
sVscreen_name
p112
VNewsToDesk
p113
sg91
Ven
p114
sVprofile_background_tile
p115
I00
sVfavourites_count
p116
I0
sVname
p117
VBreakingStocksNews
p118
sVnotifications
p119
Nsg76
Nsg93
VSat Feb 15 05:49:10 +0000 2014
p120
sVcontributors_enabled
p121
I00
sVtime_zone
p122
VEastern Time (US & Canada)
p123
sVprotected
p124
I00
sVdefault_profile
p125
I00
sVis_translator
p126
I00
ssS'contributors_enabled'
p127
I00
sS'profile_text_color'
p128
g39
sS'followers_count'
p129
I522
sS'profile_sidebar_border_color'
p130
g45
sS'id_str'
p131
g47
sS'default_profile_image'
p132
I00
sS'listed_count'
p133
I86
sS'status'
p134
g7
(ctweepy.models
Status
p135
g9
Ntp136
Rp137
(dp138
S'favorited'
p139
I00
sS'contributors'
p140
NsS'truncated'
p141
I00
sS'text'
p142
V$XLRN:\u000a\u000aCompany Shares of Acceleron Pharma Inc. (NASDAQ:XLRN) Drops \u2026:\u000a\u000ahttps://t.co/MjURSyJOcB
p143
sS'source_url'
p144
Vhttp://www.stocknewswires.com
p145
sS'possibly_sensitive'
p146
I00
sS'in_reply_to_status_id'
p147
NsS'geo'
p148
Nsg18
L666252404829110272L
sS'favorite_count'
p149
I0
sS'lang'
p150
g92
sg20
g63
sS'created_at'
p151
cdatetime
datetime
p152
(S'\x07\xdf\x0b\x10\r4\x06\x00\x00\x00'
p153
tp154
Rp155
sg28
g52
sS'coordinates'
p156
NsS'in_reply_to_user_id_str'
p157
NsS'source'
p158
VStockNewsWires
p159
sS'in_reply_to_status_id_str'
p160
NsS'in_reply_to_screen_name'
p161
Nsg131
g84
sS'retweeted'
p162
I00
sS'place'
p163
NsS'retweet_count'
p164
I0
sS'in_reply_to_user_id'
p165
NsbsS'is_translation_enabled'
p166
I01
sS'utc_offset'
p167
I-18000
sS'statuses_count'
p168
I186235
sS'description'
p169
g100
sS'friends_count'
p170
I0
sS'location'
p171
g103
sS'profile_link_color'
p172
g105
sS'profile_image_url'
p173
g107
sS'notifications'
p174
NsS'geo_enabled'
p175
I00
sS'profile_background_color'
p176
g49
sS'profile_background_image_url'
p177
g111
sS'screen_name'
p178
g113
sg150
g114
sg1
I00
sS'profile_background_tile'
p179
I00
sS'favourites_count'
p180
I0
sS'name'
p181
g118
sS'url'
p182
Nsg151
g152
(S'\x07\xde\x02\x0f\x051\n\x00\x00\x00'
p183
tp184
Rp185
sS'profile_background_image_url_https'
p186
g36
sS'time_zone'
p187
g123
sS'protected'
p188
I00
sS'default_profile'
p189
I00
sS'is_translator'
p190
I00
sbs.