(dp0
S'following'
p1
(lp2
sS'followers'
p3
(lp4
(lp5
I46658506
aL4014400402L
aI1115940860
aL4198743499L
aI1904689014
aL3222431790L
aL2823436970L
aI477082303
aI289521559
aI1924310023
aI1923926642
aI209660639
aI423657016
aI411500669
aI396999574
aI140462220
aI234172416
aI81130574
aL3186161958L
aI317562281
aI353164916
aL2853469918L
aL2933929945L
aL3409433439L
aL3021827632L
aI26263794
aI377605619
aL2366625486L
aL2643780234L
aI19678152
aL3025117571L
aL3073478049L
aI554777853
aI924970663
aI1107834007
aI91890859
aI29194030
aL3309232460L
aI846877939
aL2626825055L
aI151468104
aI1275929029
aI1288770234
aI922952971
aL2220116796L
aI35784526
aL2314289604L
aL3253847058L
aL2284050152L
aI175554924
aI312709826
aL2387611368L
aL2378670373L
aL3621628275L
aL3006221859L
aL3328451769L
aI40300931
aI605316405
aI625384818
aL3439384893L
aL2972555345L
aL3241799768L
aI1670557368
aI35154420
aL2317681807L
aI741467216
aI98850164
aI436707351
aI554290220
aL3039463391L
aI1524309085
aI118276057
aI17085375
aI33456247
aL3373323118L
aI819667872
aL2901153277L
aL3313431387L
aL2380905156L
aI233258651
aI345219705
aI1308512629
aI569614744
aL2444104684L
aI490959219
aI170814162
aI346212770
aI77092719
aL3253720908L
aI306382029
aL2233171476L
aI162777509
aI861420990
aI1868067469
aI25241742
aI1517644448
aI99432487
aL3111023799L
aL3234051685L
aL2512910989L
aL3405443625L
aL2792275914L
aI1109353760
aI287039958
aL2434785769L
aI583953432
aI82622557
aL3393303160L
aI129511449
aI125488912
aI352994970
aL2924700281L
aL3001818064L
aL3299871217L
aI564966405
aL3237921639L
aI825818250
aI742031233
aL2366237078L
aI91114089
aL2912072247L
aL2851614722L
aL3310170639L
aI1084184383
aL2155201019L
aI306679843
aI1845191160
aL3377243073L
aI430204519
aL2693698584L
aL3366654597L
aI460672939
aL3297098199L
aL2164089107L
aL3309051153L
aL3235772366L
aI1072643928
aI981236256
aI336116161
aI422207602
aL3261931988L
aL3351531112L
aI90780137
aI35648000
aL2429345534L
aL3000236684L
aI403509471
aI210635711
aI292646175
aI1909489698
aI199746140
aI820534716
aI238651970
aI16999433
aL3041863823L
aI99751446
aL2818187550L
aI144252090
aI1465323240
aI1244393550
aI594879796
aI131678624
aI18887845
aI64657491
aL3154096965L
aI1643133476
aL2991807776L
aI333848935
aI237346054
aL3097483295L
aL2634777789L
aL3300815207L
aI1660419504
aI1314862352
aI37938219
aI1969645297
aI55334199
aI532594455
aL2898526274L
aL2922507431L
aI807715549
aL2255404411L
aL3074963729L
aL2523807409L
aL3044982033L
aI1020224328
aL2420055025L
aL2432446106L
aI222071051
aI597799971
aI1052177605
aI25292321
aI1708586318
aI20800915
aL3187956895L
aI194019157
aL2702924176L
aI1529271854
aI273728619
aI23487018
aI1711713978
aL2889779207L
aI1380766860
aI175857285
aI492248877
aI1962117006
aI29134482
aI198971659
aL3169249704L
aI490667934
aL2717635884L
aI1065931086
aI1894653319
aI187573537
aL3138646475L
aI972961
aI303531344
aI1265017476
aI170037226
aI133970935
aI249188813
aL3014066969L
aL3062731421L
aI311797682
aI333286362
aL2414260857L
aI1682397852
aL3145737682L
aL2940159187L
aI231078819
aI324671163
aI454986371
aI173378042
aI60804967
aI306341770
aL2390660095L
aL2945631777L
aL2859899621L
aI29050584
aI70429133
aI52287449
aI1536424206
aI272131238
aL2937621999L
aI93194555
aI73429838
aI27688058
aI341159601
aI382036965
aI282729924
aI38569170
aL3010837787L
aI1621841678
aI14610141
aL2725222747L
aI1260256195
aL2938981547L
aI453331412
aI67308514
aI388011737
aI1450977193
aI368468803
aI582231292
aI1069094443
aI25111829
aI189282155
aI1364856793
aL2557360434L
aI130027972
aL2948879195L
aI55983576
aL3044657531L
aL2741861624L
aL2733052645L
aI314784049
aI80170465
aL2329169839L
aI1617897110
aI50381253
aI234204403
aI90758418
aL2382517333L
aL2841233056L
aI95750009
aI142790061
aI247788883
aL2273512572L
aI121238688
aI302310286
aL2311682244L
aL2540328564L
aL2918920503L
aL3016554496L
aL2901765416L
aI467348526
aI492447655
aI223077403
aI17514210
aL2315534592L
aI121923370
aI219812971
aI488740638
aI62226476
aI738434402
aI491827933
aI797149178
aL2908633725L
aI28171554
aI221081866
aI1387182072
aL2170018283L
aI178425066
aL2720343778L
aI28791860
aI399111305
aL2420011614L
aI805731481
aI282128313
aI1232021796
aL2669315760L
aI136117615
aI159677880
aI441346271
aI327410634
aL2906394422L
aI29113991
aI219501803
aI35643668
aI250317700
aL2323971308L
aL2945903390L
aI49856687
aL2917930186L
aasS'obj'
p6
ccopy_reg
_reconstructor
p7
(ctweepy.models
User
p8
c__builtin__
object
p9
Ntp10
Rp11
(dp12
S'follow_request_sent'
p13
NsS'has_extended_profile'
p14
I00
sS'profile_use_background_image'
p15
I00
sS'profile_sidebar_fill_color'
p16
V000000
p17
sS'id'
p18
L2344420430L
sS'verified'
p19
I00
sS'entities'
p20
(dp21
Vdescription
p22
(dp23
Vurls
p24
(lp25
sssS'profile_image_url_https'
p26
Vhttps://pbs.twimg.com/profile_images/548481313670299648/XBAwS1Wn_normal.jpeg
p27
sS'_json'
p28
(dp29
Vfollow_request_sent
p30
NsVhas_extended_profile
p31
I00
sVprofile_use_background_image
p32
I00
sVdefault_profile_image
p33
I00
sVid
p34
L2344420430L
sVprofile_background_image_url_https
p35
Vhttps://abs.twimg.com/images/themes/theme8/bg.gif
p36
sVverified
p37
I00
sVprofile_text_color
p38
V000000
p39
sVprofile_image_url_https
p40
g27
sVprofile_sidebar_fill_color
p41
g17
sVentities
p42
g21
sVfollowers_count
p43
I333
sVprofile_sidebar_border_color
p44
V000000
p45
sVid_str
p46
V2344420430
p47
sVprofile_background_color
p48
V000000
p49
sVlisted_count
p50
I23
sVstatus
p51
(dp52
Vcontributors
p53
NsVtruncated
p54
I00
sVtext
p55
VNEW insider transaction on $EEFT reported a moment ago: https://t.co/8lPD01Keob
p56
sVin_reply_to_status_id
p57
Nsg34
L666252223513559040L
sVfavorite_count
p58
I0
sVsource
p59
V<a href="http://insideri.com" rel="nofollow">Insider Alerts</a>
p60
sVretweeted
p61
I00
sVcoordinates
p62
Nsg42
(dp63
Vsymbols
p64
(lp65
(dp66
Vindices
p67
(lp68
I27
aI32
asg55
VEEFT
p69
sasVuser_mentions
p70
(lp71
sVhashtags
p72
(lp73
sg24
(lp74
(dp75
Vurl
p76
Vhttps://t.co/8lPD01Keob
p77
sg67
(lp78
I56
aI79
asVexpanded_url
p79
Vhttp://insideri.com/1404138_000102919915000113_0001029199-15-000113
p80
sVdisplay_url
p81
Vinsideri.com/1404138_000102\u2026
p82
sassVin_reply_to_screen_name
p83
Nsg46
V666252223513559040
p84
sVretweet_count
p85
I0
sVin_reply_to_user_id
p86
NsVfavorited
p87
I00
sVgeo
p88
NsVin_reply_to_user_id_str
p89
NsVpossibly_sensitive
p90
I00
sVlang
p91
Ven
p92
sVcreated_at
p93
VMon Nov 16 13:51:23 +0000 2015
p94
sVin_reply_to_status_id_str
p95
NsVplace
p96
NssVis_translation_enabled
p97
I00
sVutc_offset
p98
I-18000
sVstatuses_count
p99
I58116
sg22
VFollow stock purchases and sales by insiders
p100
sVfriends_count
p101
I0
sVlocation
p102
VUnited States
p103
sVprofile_link_color
p104
V9266CC
p105
sVprofile_image_url
p106
Vhttp://pbs.twimg.com/profile_images/548481313670299648/XBAwS1Wn_normal.jpeg
p107
sVfollowing
p108
NsVgeo_enabled
p109
I00
sVprofile_background_image_url
p110
Vhttp://abs.twimg.com/images/themes/theme8/bg.gif
p111
sVscreen_name
p112
VInsiderAlertsIA
p113
sg91
Ven
p114
sVprofile_background_tile
p115
I00
sVfavourites_count
p116
I0
sVname
p117
VInsider Alerts
p118
sVnotifications
p119
Nsg76
Nsg93
VSat Feb 15 02:29:07 +0000 2014
p120
sVcontributors_enabled
p121
I00
sVtime_zone
p122
VEastern Time (US & Canada)
p123
sVprotected
p124
I00
sVdefault_profile
p125
I00
sVis_translator
p126
I00
ssS'contributors_enabled'
p127
I00
sS'profile_text_color'
p128
g39
sS'followers_count'
p129
I333
sS'profile_sidebar_border_color'
p130
g45
sS'id_str'
p131
g47
sS'default_profile_image'
p132
I00
sS'listed_count'
p133
I23
sS'status'
p134
g7
(ctweepy.models
Status
p135
g9
Ntp136
Rp137
(dp138
S'favorited'
p139
I00
sS'contributors'
p140
NsS'truncated'
p141
I00
sS'text'
p142
g56
sS'source_url'
p143
Vhttp://insideri.com
p144
sS'possibly_sensitive'
p145
I00
sS'in_reply_to_status_id'
p146
NsS'geo'
p147
Nsg18
L666252223513559040L
sS'favorite_count'
p148
I0
sS'lang'
p149
g92
sg20
g63
sS'created_at'
p150
cdatetime
datetime
p151
(S'\x07\xdf\x0b\x10\r3\x17\x00\x00\x00'
p152
tp153
Rp154
sg28
g52
sS'coordinates'
p155
NsS'in_reply_to_user_id_str'
p156
NsS'source'
p157
VInsider Alerts
p158
sS'in_reply_to_status_id_str'
p159
NsS'in_reply_to_screen_name'
p160
Nsg131
g84
sS'retweeted'
p161
I00
sS'place'
p162
NsS'retweet_count'
p163
I0
sS'in_reply_to_user_id'
p164
NsbsS'is_translation_enabled'
p165
I00
sS'utc_offset'
p166
I-18000
sS'statuses_count'
p167
I58116
sS'description'
p168
g100
sS'friends_count'
p169
I0
sS'location'
p170
g103
sS'profile_link_color'
p171
g105
sS'profile_image_url'
p172
g107
sS'notifications'
p173
NsS'geo_enabled'
p174
I00
sS'profile_background_color'
p175
g49
sS'profile_background_image_url'
p176
g111
sS'screen_name'
p177
g113
sg149
g114
sg1
I00
sS'profile_background_tile'
p178
I00
sS'favourites_count'
p179
I0
sS'name'
p180
g118
sS'url'
p181
Nsg150
g151
(S'\x07\xde\x02\x0f\x02\x1d\x07\x00\x00\x00'
p182
tp183
Rp184
sS'profile_background_image_url_https'
p185
g36
sS'time_zone'
p186
g123
sS'protected'
p187
I00
sS'default_profile'
p188
I00
sS'is_translator'
p189
I00
sbs.