(dp0
S'following'
p1
(lp2
(lp3
I705746750
aI209907837
aI16999433
aL2389718366L
aI57849762
aL3179906354L
aI73535824
aI7520262
aI80697114
aI62562916
aI326745108
aI714051110
aI375980238
aI160625399
aL2227396142L
aI263000823
aI72907355
aI15079601
aI65681636
aI52166809
aI297848618
aI196442145
aL3154923455L
aL2186813068L
aL2334614718L
aI30359797
aI17695167
aL2196092280L
aI545618159
aI430841130
aI41753918
aI299661515
aL2169414410L
aI788333744
aI799122090
aI70498392
aL2939652681L
aL2272207286L
aI87260739
aL2363536370L
aI44196397
aI72928001
aI250758475
aI124585235
aI224466293
aI110539278
aI278757304
aI1900274090
aI1059530150
aI29054610
aI617760963
aL2200605978L
aI19739279
aI1475988331
aI160298969
aI455824771
aI61342056
aI475524030
aI455366870
aI23206936
aI1377111804
aI174879361
aL2387150484L
aI43111757
aI403855355
aI51912109
aI20800915
aI40938160
aI188398607
aI236953420
aI87338236
aI443918542
aI209686320
aI55561590
aI157777596
aI31546412
aI37469211
aI12324522
aI874011066
aI190092133
aI102819479
aL2426471287L
aI69875528
aasS'followers'
p4
(lp5
(lp6
I24329353
aL3169167811L
aI224700084
aI242884991
aI221080504
aL2992982105L
aI1128342606
aI573319240
aI57849762
aI1583359764
aI1861663298
aL2860845668L
aI96524754
aI129277351
aI552228327
aL4195585038L
aI627765164
aI421331976
aL2820224721L
aL2938769872L
aI249124786
aI788333744
aI340933791
aL3238022057L
aI715389420
aI843469093
aI597799971
aL2159322464L
aI544459972
aL4024871747L
aL3989181629L
aI33648627
aI1670367829
aI223731739
aI1379536476
aI385159492
aI73535824
aL2930883803L
aL2827860489L
aI78129351
aI23129733
aI47757340
aL2361661062L
aI1668886808
aL2884541146L
aL2919956420L
aI1306432190
aI1733614676
aI633165901
aL2913023527L
aI600221036
aL3222765930L
aL2342343612L
aI618523751
aI517055706
aL3288466519L
aI156476814
aI488570950
aL3459608054L
aI486329356
aL3442524077L
aL2355678031L
aI147430702
aL3075665944L
aI99204929
aI58511368
aI1894691384
aL3306547933L
aI605643033
aL2875791339L
aI304805548
aI31369038
aL3281907458L
aL3168048617L
aI1435536728
aI74924764
aI278815671
aL3256853887L
aI16785290
aI126179361
aI155732166
aL2921163544L
aI15329939
aI70256115
aI184391585
aI202036569
aI35298789
aL2259142531L
aL2383930152L
aI360266101
aI499411395
aI137756431
aL2686353036L
aI22811945
aI763581612
aL3180078906L
aI196442145
aI145284657
aL2368561645L
aI107646745
aI300304430
aI552605764
aI105961149
aL3085758598L
aI517168840
aI264051058
aL2988414041L
aL2447439681L
aI303531344
aL2449312615L
aI55840566
aI472406134
aI278757304
aI27682567
aL3118345844L
aI516877203
aI37469211
aL3101996487L
aI43211514
aI1444614408
aL2430955074L
aI913617769
aL2544924330L
aI82258654
aL2908516568L
aI399817260
aI476340109
aI381506703
aL2512955301L
aL2903937198L
aI623477697
aI57091567
aL2574157186L
aI386364181
aI155313012
aI1702313690
aI61409825
aI305073442
aL2908505323L
aL2283796038L
aL2220488898L
aI825927403
aI453644637
aL2689391875L
aI17348069
aL2382686732L
aI1552289282
aI1861598107
aI458696318
aL3029183283L
aL2184936813L
aL2785328266L
aL2895932581L
aI42476656
aI244642839
aL2775645200L
aL2536033539L
aL2871118255L
aL2421174936L
aI479907414
aI61560150
aI29054610
aL2939652681L
aI1069646124
aI180843645
aI82363061
aI22341610
aI1620707084
aI1475988331
aL2174085157L
aL2288954016L
aI49173210
aI56632241
aI397343042
aL2917930186L
aI276293424
aI611817117
aI1377111804
aI23206936
aL2833054433L
aL2387150484L
aL2542178390L
aL2481274466L
aL2890110061L
aL2883878790L
aL2855222503L
aL2357240913L
aI87260739
aI15904172
aI1962543936
aI1487531984
aL2837394749L
aL2406403884L
aI193468721
aL2688163393L
aL2465128316L
aI62226476
aL2514540546L
aL2465030030L
aL2825834506L
aI43111757
aI188398607
aL2653263673L
aI174879361
aI249907007
aL2753470001L
aI248781629
aI314639384
aI473622032
aL2794447571L
aI87338236
aI393075804
aI1244393550
aL2739796232L
aI209686320
aI28917096
aI1539169226
aI183003784
aL2371129896L
aL2363536370L
aI22212126
aL2413576753L
aI252788639
aI389819070
aI874011066
aI12324522
aI906341204
aL2445388416L
aL2611687375L
aI1167632820
aI287426817
aI15897179
aI139526643
aI1773853729
aI115832964
aL2512830201L
aI340405550
aL2285446111L
aL2514292622L
aL2531640242L
aI787224260
aI56929299
aI1942901430
aL2429288503L
aL2492154314L
aI1326925110
aI1273298390
aI98429772
aL2432632758L
aI1090225106
aL2465366234L
aI924970663
aL2388692119L
aL2450172553L
aI238005989
aI52576766
aI196218576
aL2390964422L
aL2397967218L
aI168321591
aL2400017328L
aI145030451
aI164260173
aI43950136
aL2371256744L
aI69875528
aL2371400658L
aI13131362
aI388011737
aI260692993
aasS'obj'
p7
ccopy_reg
_reconstructor
p8
(ctweepy.models
User
p9
c__builtin__
object
p10
Ntp11
Rp12
(dp13
S'follow_request_sent'
p14
NsS'has_extended_profile'
p15
I00
sS'profile_use_background_image'
p16
I01
sS'profile_sidebar_fill_color'
p17
VDDEEF6
p18
sS'id'
p19
L2359918926L
sS'verified'
p20
I00
sS'entities'
p21
(dp22
Vdescription
p23
(dp24
Vurls
p25
(lp26
sssS'profile_image_url_https'
p27
Vhttps://pbs.twimg.com/profile_images/659150531013705729/E94r5Me3_normal.jpg
p28
sS'_json'
p29
(dp30
Vfollow_request_sent
p31
NsVhas_extended_profile
p32
I00
sVprofile_use_background_image
p33
I01
sVdefault_profile_image
p34
I00
sVid
p35
L2359918926L
sVprofile_background_image_url_https
p36
Vhttps://abs.twimg.com/images/themes/theme1/bg.png
p37
sVverified
p38
I00
sVprofile_text_color
p39
V333333
p40
sVprofile_image_url_https
p41
g28
sVprofile_sidebar_fill_color
p42
g18
sVentities
p43
g22
sVfollowers_count
p44
I271
sVprofile_sidebar_border_color
p45
VC0DEED
p46
sVid_str
p47
V2359918926
p48
sVprofile_background_color
p49
VC0DEED
p50
sVlisted_count
p51
I17
sVstatus
p52
(dp53
Vcontributors
p54
NsVtruncated
p55
I00
sVtext
p56
V$ORLY. Yup. 'nuff said. https://t.co/r2jMtnWI99
p57
sVin_reply_to_status_id
p58
Nsg35
L666314148494479360L
sVfavorite_count
p59
I0
sVsource
p60
V<a href="http://twitter.com" rel="nofollow">Twitter Web Client</a>
p61
sVretweeted
p62
I00
sVcoordinates
p63
Nsg43
(dp64
Vsymbols
p65
(lp66
(dp67
Vindices
p68
(lp69
I0
aI5
asg56
VORLY
p70
sasVuser_mentions
p71
(lp72
sVhashtags
p73
(lp74
sg25
(lp75
sVmedia
p76
(lp77
(dp78
Vexpanded_url
p79
Vhttp://twitter.com/NJZenTrader/status/666314148494479360/photo/1
p80
sVdisplay_url
p81
Vpic.twitter.com/r2jMtnWI99
p82
sVurl
p83
Vhttps://t.co/r2jMtnWI99
p84
sVmedia_url_https
p85
Vhttps://pbs.twimg.com/media/CT85L-wUcAA-kTY.png
p86
sg47
V666314147861131264
p87
sVsizes
p88
(dp89
Vlarge
p90
(dp91
Vh
p92
I728
sVresize
p93
Vfit
p94
sVw
p95
I1024
ssVsmall
p96
(dp97
g92
I241
sg93
Vfit
p98
sg95
I340
ssVmedium
p99
(dp100
g92
I426
sg93
Vfit
p101
sg95
I600
ssVthumb
p102
(dp103
g92
I150
sg93
Vcrop
p104
sg95
I150
sssg68
(lp105
I24
aI47
asVtype
p106
Vphoto
p107
sg35
L666314147861131264L
sVmedia_url
p108
Vhttp://pbs.twimg.com/media/CT85L-wUcAA-kTY.png
p109
sassVin_reply_to_screen_name
p110
Nsg47
V666314148494479360
p111
sVretweet_count
p112
I0
sVin_reply_to_user_id
p113
NsVfavorited
p114
I00
sVgeo
p115
NsVin_reply_to_user_id_str
p116
NsVpossibly_sensitive
p117
I00
sVlang
p118
Ven
p119
sVcreated_at
p120
VMon Nov 16 17:57:27 +0000 2015
p121
sVin_reply_to_status_id_str
p122
NsVplace
p123
(dp124
Vcountry_code
p125
VUS
p126
sg83
Vhttps://api.twitter.com/1.1/geo/id/65b4760a2b411e11.json
p127
sVcountry
p128
VUnited States
p129
sVplace_type
p130
Vadmin
p131
sVbounding_box
p132
(dp133
g106
VPolygon
p134
sg63
(lp135
(lp136
(lp137
F-75.563587
aF38.788657
aa(lp138
F-73.88506
aF38.788657
aa(lp139
F-73.88506
aF41.357424
aa(lp140
F-75.563587
aF41.357424
aaassVcontained_within
p141
(lp142
sVfull_name
p143
VNew Jersey, USA
p144
sVattributes
p145
(dp146
sg35
V65b4760a2b411e11
p147
sVname
p148
VNew Jersey
p149
sssVis_translation_enabled
p150
I00
sVutc_offset
p151
I-18000
sVstatuses_count
p152
I147
sg23
VStandard Disclaimer here....not investment advice...trade at own risk.....blah blah blah.
p153
sVfriends_count
p154
I83
sVlocation
p155
VNYC area
p156
sVprofile_link_color
p157
V0084B4
p158
sVprofile_image_url
p159
Vhttp://pbs.twimg.com/profile_images/659150531013705729/E94r5Me3_normal.jpg
p160
sVfollowing
p161
NsVgeo_enabled
p162
I01
sVprofile_background_image_url
p163
Vhttp://abs.twimg.com/images/themes/theme1/bg.png
p164
sVscreen_name
p165
VNJZenTrader
p166
sg118
Ven
p167
sVprofile_background_tile
p168
I00
sVfavourites_count
p169
I32
sg148
VZen Trader
p170
sVnotifications
p171
Nsg83
Nsg120
VMon Feb 24 19:10:39 +0000 2014
p172
sVcontributors_enabled
p173
I00
sVtime_zone
p174
VEastern Time (US & Canada)
p175
sVprotected
p176
I00
sVdefault_profile
p177
I01
sVis_translator
p178
I00
ssS'contributors_enabled'
p179
I00
sS'profile_text_color'
p180
g40
sS'followers_count'
p181
I271
sS'profile_sidebar_border_color'
p182
g46
sS'id_str'
p183
g48
sS'default_profile_image'
p184
I00
sS'listed_count'
p185
I17
sS'status'
p186
g8
(ctweepy.models
Status
p187
g10
Ntp188
Rp189
(dp190
S'favorited'
p191
I00
sS'contributors'
p192
NsS'truncated'
p193
I00
sS'text'
p194
g57
sS'source_url'
p195
Vhttp://twitter.com
p196
sS'possibly_sensitive'
p197
I00
sS'in_reply_to_status_id'
p198
NsS'geo'
p199
Nsg19
L666314148494479360L
sS'favorite_count'
p200
I0
sS'lang'
p201
g119
sg21
g64
sS'created_at'
p202
cdatetime
datetime
p203
(S'\x07\xdf\x0b\x10\x119\x1b\x00\x00\x00'
p204
tp205
Rp206
sg29
g53
sS'coordinates'
p207
NsS'in_reply_to_user_id_str'
p208
NsS'source'
p209
VTwitter Web Client
p210
sS'in_reply_to_status_id_str'
p211
NsS'in_reply_to_screen_name'
p212
Nsg183
g111
sS'retweeted'
p213
I00
sS'place'
p214
g8
(ctweepy.models
Place
p215
g10
Ntp216
Rp217
(dp218
S'country_code'
p219
g126
sS'url'
p220
g127
sS'country'
p221
g129
sS'place_type'
p222
g131
sS'bounding_box'
p223
g8
(ctweepy.models
BoundingBox
p224
g10
Ntp225
Rp226
(dp227
S'type'
p228
g134
sg207
g135
sbsS'contained_within'
p229
g8
(ctweepy.models
ResultSet
p230
c__builtin__
list
p231
(lp232
tp233
Rp234
(dp235
S'_since_id'
p236
NsS'_max_id'
p237
NsbsS'full_name'
p238
g144
sS'attributes'
p239
g146
sg19
g147
sS'name'
p240
g149
sbsS'retweet_count'
p241
I0
sS'in_reply_to_user_id'
p242
NsbsS'is_translation_enabled'
p243
I00
sS'utc_offset'
p244
I-18000
sS'statuses_count'
p245
I147
sS'description'
p246
g153
sS'friends_count'
p247
I83
sS'location'
p248
g156
sS'profile_link_color'
p249
g158
sS'profile_image_url'
p250
g160
sS'notifications'
p251
NsS'geo_enabled'
p252
I01
sS'profile_background_color'
p253
g50
sS'profile_background_image_url'
p254
g164
sS'screen_name'
p255
g166
sg201
g167
sg1
I00
sS'profile_background_tile'
p256
I00
sS'favourites_count'
p257
I32
sg240
g170
sg220
Nsg202
g203
(S"\x07\xde\x02\x18\x13\n'\x00\x00\x00"
p258
tp259
Rp260
sS'profile_background_image_url_https'
p261
g37
sS'time_zone'
p262
g175
sS'protected'
p263
I00
sS'default_profile'
p264
I01
sS'is_translator'
p265
I00
sbs.