(dp0
S'following'
p1
(lp2
(lp3
I118639285
aI1392940902
aI186439704
aI729440966
aI820379341
aI47678782
aL2428907830L
aI321567198
aI81947660
aI396294440
aL2273295432L
aI217368242
aI788311514
aI632341632
aI17393790
aI18162755
aI16201775
aI19618527
aI26270913
aI735536305
aI19010961
aI360196717
aI873399943
aL3426014292L
aL2520719083L
aL2973159191L
aI557966920
aI597480797
aI1308508879
aI1308541314
aI888831696
aI1592993646
aI67066114
aI112872946
aI344752927
aL3280850588L
aI18222378
aL3545684907L
aI17514875
aI359767703
aI12044602
aL3324896561L
aI166270127
aL3413442681L
aI183631390
aI14802885
aI1116786620
aI15792122
aI313285713
aI956578831
aL2922234899L
aL2936388978L
aI544307080
aL2785551645L
aI165788769
aI310357691
aL2275337142L
aL2181346825L
aI24261916
aI339306345
aI187354183
aI1138405094
aI40982362
aI1870136186
aI216299334
aI549706307
aI36078825
aI316193614
aL2440753004L
aL2707283114L
aL2986849300L
aL2415434406L
aI36704033
aI316443587
aI1283999683
aL3036921557L
aI71885806
aI89491245
aL2838356960L
aI565623412
aL2420011614L
aL2966010609L
aI72928001
aI764895330
aI27295244
aI14062554
aI233772709
aI362669400
aL2192030256L
aI37040959
aI243795494
aI18208219
aI615113627
aI15893046
aI321974233
aI1633631874
aI238343502
aI106526969
aI183358561
aI59645583
aI104284098
aI29881875
aI151551090
aI274233761
aI311099164
aI13171622
aI14617444
aI20187065
aI38530021
aI19495715
aI16227629
aI102754598
aI19717430
aI84312619
aI442298073
aI111054964
aI204366337
aL2902939926L
aI171135448
aI23227904
aI50458833
aI158951476
aI414096810
aI484966191
aL2251240022L
aI1115304062
aI248900032
aL2184725035L
aL2436375000L
aI377584252
aL2440437732L
aI221502712
aL2414251856L
aI1611543626
aL2462811616L
aI350059443
aI808261266
aI197282701
aI586767666
aI1902936516
aL2427897535L
aI1849056762
aI287714522
aL2194180626L
aI39337663
aI54253744
aL2381039936L
aI965231036
aI148031377
aI456937125
aI947043115
aI32627702
aI14179165
aI18170896
aI16668573
aI82762694
aI1004187666
aI20563800
aI36858028
aI64857767
aI1921609640
aI1700911370
aI1955367302
aI1205993845
aI1573693694
aL2210884015L
aL2298651181L
aL2341347170L
aI880532144
aI286417660
aI21769093
aI309977871
aI294287478
aI435092084
aL2363507684L
aL2423067178L
aL2357032238L
aI30216592
aI191076340
aL2391775315L
aI56868295
aL2342329416L
aL2340750439L
aI496449479
aI1880662680
aI1244981594
aL2358400783L
aI1128952327
aI1402765818
aL2327522774L
aL2259383122L
aasS'followers'
p4
(lp5
(lp6
L2472420998L
aL2901834985L
aI118639285
aL4086899777L
aI316438252
aI633799759
aI81947660
aI18081669
aL2273295432L
aI261080728
aL3198378139L
aL3380930375L
aL3689101221L
aI19010961
aI67066114
aL3956621303L
aI35784526
aL2847731391L
aI434507002
aL2902939926L
aL3281171438L
aL2482618160L
aL2936388978L
aL2922234899L
aI956578831
aL2686353036L
aL2483093335L
aL2341525668L
aI316193614
aL3012561618L
aL3036921557L
aI89491245
aL2415434406L
aI1069228003
aL3073478049L
aL3065083689L
aI976797445
aL3057827026L
aL3052830904L
aI316443587
aL2361655766L
aI1283999683
aI137836691
aL2838356960L
aL2420011614L
aL2836608100L
aI611817117
aI615113627
aI303531344
aL2458427743L
aL2398827498L
aI171135448
aL2194180626L
aL2458320343L
aI358731989
aI240981714
aL2429374536L
aL2427897535L
aI456937125
aI965231036
aL2400796212L
aI293620012
aL2363507684L
aL2327522774L
aasS'obj'
p7
ccopy_reg
_reconstructor
p8
(ctweepy.models
User
p9
c__builtin__
object
p10
Ntp11
Rp12
(dp13
S'follow_request_sent'
p14
NsS'has_extended_profile'
p15
I00
sS'profile_use_background_image'
p16
I01
sS'profile_sidebar_fill_color'
p17
VDDEEF6
p18
sS'id'
p19
L2364162177L
sS'verified'
p20
I00
sS'entities'
p21
(dp22
Vdescription
p23
(dp24
Vurls
p25
(lp26
sssS'profile_image_url_https'
p27
Vhttps://pbs.twimg.com/profile_images/520741220315070464/jdt1kK5Q_normal.jpeg
p28
sS'_json'
p29
(dp30
Vfollow_request_sent
p31
NsVhas_extended_profile
p32
I00
sVprofile_use_background_image
p33
I01
sVdefault_profile_image
p34
I00
sVid
p35
L2364162177L
sVprofile_background_image_url_https
p36
Vhttps://abs.twimg.com/images/themes/theme1/bg.png
p37
sVverified
p38
I00
sVprofile_text_color
p39
V333333
p40
sVprofile_image_url_https
p41
g28
sVprofile_sidebar_fill_color
p42
g18
sVentities
p43
g22
sVfollowers_count
p44
I64
sVprofile_sidebar_border_color
p45
VC0DEED
p46
sVid_str
p47
V2364162177
p48
sVprofile_background_color
p49
VC0DEED
p50
sVlisted_count
p51
I6
sVstatus
p52
(dp53
Vcontributors
p54
NsVtruncated
p55
I00
sVtext
p56
VRT @dhovekamp42: @TomSilver39 caution - there is very good reason why $ADAP Adaptimmune left MAGE-A3 in 2011/2013 and picked MAGE-A10
p57
sVin_reply_to_status_id
p58
Nsg35
L666063576759721984L
sVfavorite_count
p59
I0
sVsource
p60
V<a href="http://twitter.com/download/android" rel="nofollow">Twitter for Android</a>
p61
sVretweeted
p62
I00
sVcoordinates
p63
Nsg43
(dp64
Vsymbols
p65
(lp66
(dp67
Vindices
p68
(lp69
I70
aI75
asg56
VADAP
p70
sasVuser_mentions
p71
(lp72
(dp73
g35
I67066114
sg68
(lp74
I3
aI15
asg47
V67066114
p75
sVscreen_name
p76
Vdhovekamp42
p77
sVname
p78
VDieter Hovekamp
p79
sa(dp80
g35
I1330741110
sg68
(lp81
I17
aI29
asg47
V1330741110
p82
sg76
VTomSilver39
p83
sg78
VTom Silver
p84
sasVhashtags
p85
(lp86
sg25
(lp87
ssVin_reply_to_screen_name
p88
Nsg47
V666063576759721984
p89
sVretweet_count
p90
I1
sVin_reply_to_user_id
p91
NsVfavorited
p92
I00
sVretweeted_status
p93
(dp94
Vlang
p95
Ven
p96
sg92
I00
sg43
(dp97
g65
(lp98
(dp99
g68
(lp100
I53
aI58
asg56
VADAP
p101
sasg71
(lp102
(dp103
g35
I1330741110
sg68
(lp104
I0
aI12
asg47
V1330741110
p105
sg76
VTomSilver39
p106
sg78
VTom Silver
p107
sasg85
(lp108
sg25
(lp109
ssg54
Nsg55
I00
sg56
V@TomSilver39 caution - there is very good reason why $ADAP Adaptimmune left MAGE-A3 in 2011/2013 and picked MAGE-A10
p110
sVcreated_at
p111
VFri Nov 13 16:42:25 +0000 2015
p112
sg62
I00
sVin_reply_to_status_id_str
p113
V665202043708133377
p114
sg63
NsVin_reply_to_user_id_str
p115
V1330741110
p116
sg60
V<a href="http://twitter.com" rel="nofollow">Twitter Web Client</a>
p117
sg58
L665202043708133377L
sg88
VTomSilver39
p118
sg47
V665208105228230656
p119
sVplace
p120
Nsg90
I1
sVgeo
p121
Nsg35
L665208105228230656L
sg59
I0
sg91
I1330741110
ssg121
Nsg115
Nsg95
Ven
p122
sg111
VMon Nov 16 01:21:46 +0000 2015
p123
sg113
Nsg120
NssVis_translation_enabled
p124
I00
sVutc_offset
p125
NsVstatuses_count
p126
I862
sg23
V
p127
sVfriends_count
p128
I191
sVlocation
p129
g127
sVprofile_link_color
p130
V0084B4
p131
sVprofile_image_url
p132
Vhttp://pbs.twimg.com/profile_images/520741220315070464/jdt1kK5Q_normal.jpeg
p133
sVfollowing
p134
NsVgeo_enabled
p135
I01
sVprofile_background_image_url
p136
Vhttp://abs.twimg.com/images/themes/theme1/bg.png
p137
sg76
V56913a174ad0444
p138
sg95
Ven
p139
sVprofile_background_tile
p140
I00
sVfavourites_count
p141
I175
sg78
VThomas Anthony
p142
sVnotifications
p143
NsVurl
p144
Nsg111
VTue Feb 25 03:25:51 +0000 2014
p145
sVcontributors_enabled
p146
I00
sVtime_zone
p147
NsVprotected
p148
I00
sVdefault_profile
p149
I01
sVis_translator
p150
I00
ssS'contributors_enabled'
p151
I00
sS'profile_text_color'
p152
g40
sS'followers_count'
p153
I64
sS'profile_sidebar_border_color'
p154
g46
sS'id_str'
p155
g48
sS'default_profile_image'
p156
I00
sS'listed_count'
p157
I6
sS'status'
p158
g8
(ctweepy.models
Status
p159
g10
Ntp160
Rp161
(dp162
S'favorited'
p163
I00
sS'contributors'
p164
NsS'truncated'
p165
I00
sS'text'
p166
g57
sS'source_url'
p167
Vhttp://twitter.com/download/android
p168
sS'in_reply_to_status_id'
p169
NsS'geo'
p170
Nsg19
L666063576759721984L
sS'favorite_count'
p171
I0
sS'lang'
p172
g122
sS'retweeted_status'
p173
g8
(g159
g10
Ntp174
Rp175
(dp176
g163
I00
sg164
Nsg165
I00
sg166
g110
sg167
Vhttp://twitter.com
p177
sg169
L665202043708133377L
sg170
Nsg19
L665208105228230656L
sg171
I0
sg172
g96
sg21
g97
sS'created_at'
p178
cdatetime
datetime
p179
(S'\x07\xdf\x0b\r\x10*\x19\x00\x00\x00'
p180
tp181
Rp182
sg29
g94
sS'coordinates'
p183
NsS'in_reply_to_user_id_str'
p184
g116
sS'source'
p185
VTwitter Web Client
p186
sS'in_reply_to_status_id_str'
p187
g114
sS'in_reply_to_screen_name'
p188
g118
sg155
g119
sS'retweeted'
p189
I00
sS'place'
p190
NsS'retweet_count'
p191
I1
sS'in_reply_to_user_id'
p192
I1330741110
sbsg21
g64
sg178
g179
(S'\x07\xdf\x0b\x10\x01\x15.\x00\x00\x00'
p193
tp194
Rp195
sg29
g53
sg183
Nsg184
Nsg185
VTwitter for Android
p196
sg187
Nsg188
Nsg155
g89
sg189
I00
sg190
Nsg191
I1
sg192
NsbsS'is_translation_enabled'
p197
I00
sS'utc_offset'
p198
NsS'statuses_count'
p199
I862
sS'description'
p200
g127
sS'friends_count'
p201
I191
sS'location'
p202
g127
sS'profile_link_color'
p203
g131
sS'profile_image_url'
p204
g133
sS'notifications'
p205
NsS'geo_enabled'
p206
I01
sS'profile_background_color'
p207
g50
sS'profile_background_image_url'
p208
g137
sS'screen_name'
p209
g138
sg172
g139
sg1
I00
sS'profile_background_tile'
p210
I00
sS'favourites_count'
p211
I175
sS'name'
p212
g142
sS'url'
p213
Nsg178
g179
(S'\x07\xde\x02\x19\x03\x193\x00\x00\x00'
p214
tp215
Rp216
sS'profile_background_image_url_https'
p217
g37
sS'time_zone'
p218
NsS'protected'
p219
I00
sS'default_profile'
p220
I01
sS'is_translator'
p221
I00
sbs.