(dp0
S'following'
p1
(lp2
(lp3
I18228708
aI14803951
aI26765788
aI245872279
aI262316297
aI195109528
aI29748372
aI18034541
aI160625399
aI132940568
aI1470261637
aI62562916
aL2149877280L
aI25827743
aI271138078
aL2422703600L
aI35493761
aI1064700308
aI191461872
aI1001813990
aI214577856
aI136842204
aI147902687
aI202915788
aI7520262
aI21778898
aI97729358
aI168679374
aI236953420
aI632341632
aI56121651
aI16359602
aI24227424
aI130628277
aI16451932
aI455824771
aI61342056
aI52166809
aI21328656
aI17549691
aI36147275
aI14886375
aI84402174
aI97334517
aI82142636
aI166597717
aI65681636
aI17622474
aI15368728
aI169489285
aI44060322
aI15246621
aI624413
aI15110357
aI102527566
aI80083199
aI14216661
aI14216681
aI21037096
aI19790872
aasS'followers'
p4
(lp5
(lp6
L3369118823L
aI284360011
aL4178601435L
aI568427791
aI49657389
aI46691793
aL2817468704L
aI579988320
aI187896454
aI1446188694
aI37699456
aI48486244
aI1143680743
aI753647960
aI316082172
aI316448818
aL4061587888L
aL2899462071L
aI376722924
aL2942631153L
aL2194404500L
aL2905445482L
aI726987367
aL3062839989L
aL2331387967L
aI514099301
aI248260026
aL4088622448L
aI1065266671
aL3849442453L
aI218229086
aL3918077722L
aL3325820726L
aI16254259
aL3947413216L
aI469827997
aI32405455
aL2311427814L
aI87995272
aL3152421680L
aL2260795585L
aL2518742815L
aL2993456771L
aI15675684
aL2180870413L
aI229677708
aI408135489
aI517491615
aL3067519973L
aI219800346
aI301298025
aI14820253
aL3486163454L
aL3579409393L
aL3659289794L
aI1117687584
aL2914277965L
aI245456217
aI756190783
aL2838637524L
aL2405378612L
aI165285550
aI578319223
aI450067470
aI141453630
aL3611827753L
aI18403334
aI65710172
aI76408370
aI605138580
aI114942592
aL2300066043L
aL2660702952L
aI108141424
aL3468252974L
aL3152920558L
aL3097064624L
aL3151893433L
aI1462240951
aI66350704
aI24119612
aI1712077064
aL3330413428L
aL2868907819L
aI112853980
aL3191586841L
aL2927990857L
aL3342315495L
aI91364935
aI597799971
aI956382744
aL3429966850L
aL3312620905L
aI112543527
aI456647812
aI269083892
aI54087036
aI35359528
aI416695668
aI68689464
aI27725616
aI49184462
aL3193100816L
aL2884271597L
aL3299871217L
aL3102239880L
aI1571456736
aL2980234847L
aI31662943
aL2584862192L
aI599857955
aI86227920
aI12295702
aL2395955473L
aL2890655564L
aI1845191160
aI314061974
aI886503410
aI797149178
aI122126094
aI213347491
aI86350916
aL2710650806L
aL3342273797L
aI37852952
aL2579913354L
aI342547578
aI572033695
aL2479833672L
aL3289052716L
aL2322968462L
aI16998785
aL2416816807L
aI330516971
aI348018383
aI60705956
aI94046339
aI190831965
aL3348916907L
aI209052109
aL2634777789L
aI23368614
aI1032276320
aI369691396
aI456121878
aI146761618
aI16788257
aI539193424
aI711057236
aL2726943239L
aL2174041238L
aL2367246025L
aL2512910989L
aI1920410647
aI232104954
aL2363049998L
aI528249166
aL2502280038L
aL3297967324L
aL3000393455L
aI468040901
aI1462483207
aI32468088
aI6953072
aL3242328328L
aI492248877
aI272655563
aL2922234899L
aI178722308
aI123423476
aL3184107485L
aL3178948232L
aL3169249704L
aL2991780096L
aI242926155
aL2328402044L
aL2171412657L
aL2975433625L
aI44966928
aI733607888
aI17553541
aI190777222
aI531525580
aI288900610
aI1659767582
aI958564926
aI607638633
aL2570911593L
aL2957165426L
aI73418347
aL3018394344L
aI103776091
aL3073478049L
aL2318371555L
aL3076895801L
aL2939839209L
aI879376561
aL2364889134L
aI1046312670
aL2616448676L
aI331197359
aL2988742673L
aI90569740
aL2760862253L
aL2901175252L
aL2566500632L
aL3037641536L
aI831082747
aI422746034
aL2989418722L
aL3064934625L
aI303531344
aL2495154715L
aI525486677
aL2945316381L
aI355842075
aI613296424
aI921433320
aI306860395
aI11889992
aI84234175
aL3044911115L
aI232962529
aI475501069
aI231921282
aI41400945
aI87084346
aL2351112571L
aL2170281816L
aI270037521
aI41906009
aI19273569
aI70840759
aI566032356
aI102832865
aI20692009
aI17737049
aI256191160
aI412834411
aI1529917477
aL2820946487L
aI226957530
aL2395105374L
aL2924431226L
aL2419848084L
aL2463463452L
aI536893683
aL2234499834L
aI26914019
aL2670344802L
aI595680816
aI92607579
aI305543581
aL2316238519L
aI206802716
aI203001857
aI1275929029
aL2726876018L
aI239568324
aI506870992
aL2922115476L
aI115531317
aI22426933
aI270085863
aL2181511903L
aI91321449
aL2970401722L
aI70429133
aI234516403
aI564609436
aL2813095044L
aI247609940
aI611817117
aI174230987
aI62226476
aI1935969883
aI594211588
aL2303053614L
aI467594742
aL2319356544L
aI1678668888
aL2448846697L
aI25228314
aI1572825480
aL2830035005L
aI222183914
aI1851009096
aI25728663
aI41124850
aI250317700
aI782840209
aI283225167
aI1280495840
aI1340428375
aI96552398
aI26333635
aI1653831853
aI553099797
aI428727594
aI75982687
aI1237108867
aI56434934
aI32521134
aI1053318019
aL2885114729L
aI717780861
aI340037225
aI230942317
aI370234207
aI17423152
aI1482419522
aI1886788226
aI434574997
aI25839443
aI37091176
aI170929219
aI1924258981
aI44579520
aL2617618734L
aI483463180
aI370932992
aI106455271
aL2896832742L
aI151044005
aI22710787
aL2866122339L
aL2411430793L
aI1072955258
aI608984665
aI1402068650
aL2638147227L
aI461777869
aI239964928
aL2793376878L
aI17242381
aI161358028
aI247579378
aI103353003
aL2768339684L
aL2825834506L
aL2838630420L
aI1167632820
aI296021841
aI404969029
aI316381719
aI14886375
aI881608580
aL2149877280L
aI18834437
aI16829101
aI342800369
aI1663013922
aI297476051
aI1463567761
aI811126926
aI3924691
aL2644758155L
aI354222685
aI433413960
aI1955136079
aI30359797
aI24818270
aI105353526
aL2420871358L
aL2730904388L
aL2507724810L
aL2395594660L
aL2653015388L
aL2717153246L
aI142022154
aL2422703600L
aI255272112
aI17515683
aI869985108
aL2432659026L
aI35493761
aI86159491
aL2696189689L
aI102475286
aL2740669293L
aI32859563
aI119464234
aL2696193716L
aL2711989474L
aI578298434
aI71391768
aL2655041204L
aI113678194
aI106583530
aL2679326886L
aI36668920
aI287153379
aI158877679
aI20807070
aL2548302997L
aI16808958
aI743140639
aL2465030030L
aI19081498
aI50344501
aL2498013157L
aI166932628
aI197294490
aI60981749
aI191759257
aL2560298366L
aL2519680784L
aI601458931
aI1604707010
aI1349920183
aI398839185
aI1935423013
aI483202572
aI52050609
aL2329442605L
aI366193903
aL2512364737L
aI404290044
aI191461872
aI556557205
aI1412771047
aL2249460732L
aI41592518
aI17186782
aI437603468
aL2188305796L
aL2464768208L
aI809746734
aI85110629
aL2437339687L
aI63969804
aI418932226
aI23161106
aI19148898
aI65681636
aI243113284
aL2286524569L
aI18773427
aL2383861202L
aL2362022515L
aL2236520162L
aL2337985040L
aI359472508
aI399549969
aL2179294932L
aI956580518
aI1138463996
aI36209643
aI84632677
aI514873681
aI974738858
aI19274092
aL2282402046L
aI14102578
aL2356533319L
aI247788883
aI1098231001
aI210387163
aI1326659983
aL2162661002L
aI427465564
aI326392763
aI574047466
aI337267500
aI170725663
aI1011104233
aI1674951986
aI1355043804
aI15717762
aI268383244
aL2251008872L
aI299934891
aI31320513
aI57845676
aI37195921
aL2181369800L
aI1891451072
aI26531215
aI51943126
aI973150950
aI175962254
aL2228561718L
aI64319551
aI232325780
aI1031466589
aI132940568
aI383269108
aI22018290
aI1260310632
aI391815742
aI41296053
aI1483558254
aI539615809
aI300718395
aI73697100
aL2171665525L
aI873533648
aI904968246
aI1142071807
aI282564822
aI20557393
aI20409936
aI29402218
aI17375650
aI488848790
aI34082014
aI133811779
aI30290778
aI91816024
aI903395648
aI428286273
aI23963905
aI183271602
aI82763627
aI1620449059
aI338360362
aI178012194
aI261467074
aI1340548165
aI1572148164
aI495930499
aI59143641
aI495930583
aI526352708
aI16626082
aI1455442544
aI124678025
aI1486298989
aI211316225
aI1085203015
aI1647458185
aI221415923
aI871828321
aI13223812
aI372465113
aI1578177739
aI495928088
aI1148089962
aI495933318
aI495912137
aI503096485
aI495931641
aI495921513
aI341662880
aI495916144
aI22432588
aI379172971
aI37204701
aI44899315
aI427724284
aI49781768
aI1227935570
aI1316687029
aI44506190
aI549435082
aI30292664
aI90929077
aI15272121
aI706119139
aI1115793049
aI1267154887
aI40300931
aI130628277
aI159199019
aI52288216
aI1150064167
aI42638929
aI91710106
aI1084063802
aI817389482
aI246993260
aI36064729
aI170257310
aI968356472
aI489022370
aI71610097
aI237060541
aI441558918
aI922475551
aI975116011
aI135514292
aI314281991
aI995378850
aI339039253
aI112270261
aI40052030
aI281221601
aI17834220
aI32674236
aI264306244
aI41769211
aI95137429
aI121251533
aI582883991
aI60113926
aI263430512
aI620459686
aI573697546
aI102806514
aI375541220
aI617465073
aI48918876
aI360737813
aI29779093
aI97691098
aI309869369
aI83487650
aI390782789
aI433414538
aI551102170
aI404362061
aI557216330
aI256265689
aI121675018
aI547616659
aI456128909
aI49123166
aI553895125
aI553260034
aI126061511
aI547755190
aI534946771
aI50401603
aI269916222
aI17191514
aI487089304
aI327570132
aI463172801
aI16483885
aI438638599
aI306551075
aI273494315
aI45226605
aI399530637
aI405212468
aI389717372
aI36147275
aI378167128
aI192768387
aI142530795
aI109303294
aI23200697
aI113645486
aI273530682
aI217205727
aI21214977
aI84512767
aI25403918
aasS'obj'
p7
ccopy_reg
_reconstructor
p8
(ctweepy.models
User
p9
c__builtin__
object
p10
Ntp11
Rp12
(dp13
S'follow_request_sent'
p14
NsS'has_extended_profile'
p15
I00
sS'profile_use_background_image'
p16
I01
sS'profile_sidebar_fill_color'
p17
V252429
p18
sS'id'
p19
I23676481
sS'verified'
p20
I00
sS'entities'
p21
(dp22
Vdescription
p23
(dp24
Vurls
p25
(lp26
sssS'profile_image_url_https'
p27
Vhttps://pbs.twimg.com/profile_images/624261479332577281/zJsEGgiZ_normal.jpg
p28
sS'_json'
p29
(dp30
Vfollow_request_sent
p31
NsVhas_extended_profile
p32
I00
sVprofile_use_background_image
p33
I01
sVdefault_profile_image
p34
I00
sVid
p35
I23676481
sVprofile_background_image_url_https
p36
Vhttps://abs.twimg.com/images/themes/theme9/bg.gif
p37
sVverified
p38
I00
sVprofile_text_color
p39
V666666
p40
sVprofile_image_url_https
p41
g28
sVprofile_sidebar_fill_color
p42
g18
sVentities
p43
g22
sVfollowers_count
p44
I648
sVprofile_sidebar_border_color
p45
V181A1E
p46
sVid_str
p47
V23676481
p48
sVprofile_background_color
p49
V1A1B1F
p50
sVlisted_count
p51
I58
sVstatus
p52
(dp53
Vcontributors
p54
NsVtruncated
p55
I00
sVtext
p56
VClovis reopens, down 62% to 38.00 in PreM trading after FDA requests added data for Rociletinib $CLVS $AZN https://t.co/CF3QnMLwGj
p57
sVin_reply_to_status_id
p58
Nsg35
L666248042857689088L
sVfavorite_count
p59
I0
sVsource
p60
V<a href="http://stocktwits.com" rel="nofollow">StockTwits Web</a>
p61
sVretweeted
p62
I00
sVcoordinates
p63
Nsg43
(dp64
Vsymbols
p65
(lp66
(dp67
Vindices
p68
(lp69
I96
aI101
asg56
VCLVS
p70
sa(dp71
g68
(lp72
I102
aI106
asg56
VAZN
p73
sasVuser_mentions
p74
(lp75
sVhashtags
p76
(lp77
sg25
(lp78
(dp79
Vurl
p80
Vhttps://t.co/CF3QnMLwGj
p81
sg68
(lp82
I107
aI130
asVexpanded_url
p83
Vhttp://stks.co/j3Soi
p84
sVdisplay_url
p85
Vstks.co/j3Soi
p86
sassVin_reply_to_screen_name
p87
Nsg47
V666248042857689088
p88
sVretweet_count
p89
I0
sVin_reply_to_user_id
p90
NsVfavorited
p91
I00
sVgeo
p92
NsVin_reply_to_user_id_str
p93
NsVpossibly_sensitive
p94
I00
sVlang
p95
Ven
p96
sVcreated_at
p97
VMon Nov 16 13:34:46 +0000 2015
p98
sVin_reply_to_status_id_str
p99
NsVplace
p100
NssVis_translation_enabled
p101
I00
sVutc_offset
p102
I-25200
sVstatuses_count
p103
I27810
sg23
VAdventurer, Raconteur, A Man Passionate About Life!! Drawn To The Stock Markets Everyday! Student of Wall Street!
p104
sVfriends_count
p105
I60
sVlocation
p106
VCalgary, Alberta
p107
sVprofile_link_color
p108
V2FC2EF
p109
sVprofile_image_url
p110
Vhttp://pbs.twimg.com/profile_images/624261479332577281/zJsEGgiZ_normal.jpg
p111
sVfollowing
p112
NsVgeo_enabled
p113
I01
sVprofile_banner_url
p114
Vhttps://pbs.twimg.com/profile_banners/23676481/1446376913
p115
sVprofile_background_image_url
p116
Vhttp://abs.twimg.com/images/themes/theme9/bg.gif
p117
sVscreen_name
p118
Vsilverjet2
p119
sg95
Ven
p120
sVprofile_background_tile
p121
I00
sVfavourites_count
p122
I255
sVname
p123
VBen Silverberg
p124
sVnotifications
p125
Nsg80
Nsg97
VTue Mar 10 23:01:34 +0000 2009
p126
sVcontributors_enabled
p127
I00
sVtime_zone
p128
VMountain Time (US & Canada)
p129
sVprotected
p130
I00
sVdefault_profile
p131
I00
sVis_translator
p132
I00
ssS'contributors_enabled'
p133
I00
sS'profile_text_color'
p134
g40
sS'followers_count'
p135
I648
sS'profile_sidebar_border_color'
p136
g46
sS'id_str'
p137
g48
sS'default_profile_image'
p138
I00
sS'listed_count'
p139
I58
sS'status'
p140
g8
(ctweepy.models
Status
p141
g10
Ntp142
Rp143
(dp144
S'favorited'
p145
I00
sS'contributors'
p146
NsS'truncated'
p147
I00
sS'text'
p148
g57
sS'source_url'
p149
Vhttp://stocktwits.com
p150
sS'possibly_sensitive'
p151
I00
sS'in_reply_to_status_id'
p152
NsS'geo'
p153
Nsg19
L666248042857689088L
sS'favorite_count'
p154
I0
sS'lang'
p155
g96
sg21
g64
sS'created_at'
p156
cdatetime
datetime
p157
(S'\x07\xdf\x0b\x10\r".\x00\x00\x00'
p158
tp159
Rp160
sg29
g53
sS'coordinates'
p161
NsS'in_reply_to_user_id_str'
p162
NsS'source'
p163
VStockTwits Web
p164
sS'in_reply_to_status_id_str'
p165
NsS'in_reply_to_screen_name'
p166
Nsg137
g88
sS'retweeted'
p167
I00
sS'place'
p168
NsS'retweet_count'
p169
I0
sS'in_reply_to_user_id'
p170
NsbsS'is_translation_enabled'
p171
I00
sS'utc_offset'
p172
I-25200
sS'statuses_count'
p173
I27810
sS'description'
p174
g104
sS'friends_count'
p175
I60
sS'location'
p176
g107
sS'profile_link_color'
p177
g109
sS'profile_image_url'
p178
g111
sS'notifications'
p179
NsS'geo_enabled'
p180
I01
sS'profile_background_color'
p181
g50
sS'profile_banner_url'
p182
g115
sS'profile_background_image_url'
p183
g117
sS'screen_name'
p184
g119
sg155
g120
sg1
I00
sS'profile_background_tile'
p185
I00
sS'favourites_count'
p186
I255
sS'name'
p187
g124
sS'url'
p188
Nsg156
g157
(S'\x07\xd9\x03\n\x17\x01"\x00\x00\x00'
p189
tp190
Rp191
sS'profile_background_image_url_https'
p192
g37
sS'time_zone'
p193
g129
sS'protected'
p194
I00
sS'default_profile'
p195
I00
sS'is_translator'
p196
I00
sbs.