(dp0
S'following'
p1
(lp2
(lp3
I450178104
aL3416902665L
aL2206993352L
aI17764377
aI50185177
aI22143372
aI29189838
aL4118547318L
aL2303439312L
aL3160263882L
aI143017309
aI23690344
aI35094637
aI1636788846
aI14699772
aI184910040
aI14772687
aI816538
aI285387032
aI285978809
aL2293885094L
aL3880707793L
aI65691824
aI1180379185
aI340588958
aI80956258
aI24755505
aI15696616
aI19377464
aI21081963
aI14707290
aI97325701
aI17761344
aI46253974
aI325339560
aI14065981
aI279771595
aI18202441
aI244440903
aL2369126468L
aL2971808979L
aI16829977
aL2974099591L
aI996128581
aI29479564
aI133776198
aI413240343
aI128178316
aI282012623
aI132466949
aI15317044
aI15353894
aI15317362
aI184997446
aI18926223
aI14789144
aI7315022
aL2281044080L
aI108698830
aI24994219
aI60642052
aI27814665
aI168857946
aI278691695
aI14315150
aI155997273
aI20188834
aI149151866
aI1074187496
aI14791918
aI19659769
aI19336500
aI36376198
aI137737604
aL2215361732L
aI1576058876
aI180054247
aI121457843
aI20562637
aI22088714
aI375980238
aI332617373
aI14669951
aI17919972
aI466333756
aI166270127
aI201771384
aI201724739
aI183342218
aL3285786427L
aI19997064
aI31984670
aI33518610
aL2493439531L
aI89043072
aI29096132
aI212271431
aI551252344
aI203859927
aI155300737
aL2174110039L
aL2999658401L
aI23756134
aI22836731
aI32511724
aI41120676
aI18952948
aI22079148
aI14806871
aI24684184
aI1664138053
aI20265542
aI15364928
aI630604930
aI19191229
aL2999632161L
aI59870773
aI18863815
aI21133007
aI75916180
aI56758031
aI27951956
aI847123669
aI18725854
aI75647352
aL2745835731L
aL2472722514L
aI14453529
aI26105653
aI57098350
aI14998579
aI618380483
aI21428988
aI461427197
aI398105682
aI15976697
aI71027475
aI15450996
aI1367531
aI436121104
aI10168082
aI40533912
aI36696491
aI23562007
aL2559111110L
aI93529573
aL2804230904L
aI39897563
aI1364930179
aI198348697
aI14433891
aL3051662762L
aI21449622
aI73402979
aI21008297
aI20985527
aI348559702
aI26487169
aI281610530
aI223970563
aI56413858
aI709430142
aL2704486915L
aL2840168104L
aL2823184737L
aI344876746
aI237638155
aI16228398
aI37284991
aI17473062
aI219370252
aI61875147
aI192993192
aI15079601
aI1114920452
aI28349755
aI36968838
aL2355159979L
aL2296387666L
aI21323268
aI42961791
aI16004376
aI26574283
aI21778391
aI67358777
aI20449296
aI51241574
aI51082789
aI16726035
aI1534167900
aI19546277
aI205789121
aI14276189
aI15485441
aI16184358
aI35002876
aI29851021
aI26551204
aI29856819
aI25053299
aI621523
aI262970655
aI287798842
aI335822887
aI21787270
aI30818980
aI254111927
aI404422077
aI69620713
aI141350942
aI11856142
aI36403009
aI106498703
aI16732770
aI18639734
aI40972132
aI8559342
aI15110357
aI28140646
aI91478624
aI55237566
aI20402945
aI84444981
aI1643610522
aI23059499
aI17105436
aI2837841
aI14886375
aI15568127
aI14440142
aI18858395
aI23484039
aI49890140
aI31024319
aI16451932
aI624413
aI15281391
aI18364698
aI57443437
aI20570273
aI15828025
aI18224555
aI735337814
aI272125054
aI21328656
aI89225644
aI73479422
aL2214865398L
aI591273108
aI1849410066
aI1635431762
aI54803764
aI26811146
aI208728729
aI713305298
aI111493015
aI238663009
aI599663697
aI347629758
aI344383070
aI362735737
aI50941850
aasS'followers'
p4
(lp5
(lp6
L3416902665L
aI467066383
aL2906862160L
aL2846061576L
aI14079471
aL3551327352L
aI1583359764
aL2860845668L
aL2992414321L
aL3089038623L
aL3589539435L
aL3236719185L
aL4118547318L
aI50941850
aL3476181196L
aI861823069
aI143017309
aI255363029
aI93350299
aL3058344416L
aI285978809
aI89609660
aL3300888628L
aI996072554
aI198868302
aL3452473588L
aI58559649
aL2165676145L
aL3311888438L
aI14542502
aI141453630
aI21889122
aI361468994
aI17393362
aL2585475139L
aI99147325
aI60784269
aL3311012648L
aI297795505
aL3422117578L
aL2704486915L
aL3285786427L
aI1664138053
aL3003334061L
aI630604930
aI148186622
aI184153602
aI19191229
aL3247281526L
aI26081511
aL2895652726L
aL3180163759L
aL2950637439L
aI259056263
aI20773399
aI563418809
aI115786431
aI287885364
aL3051662762L
aL3018382540L
aI611817117
aL2401045405L
aI713997666
aI14886375
aL2736130324L
aL2845863449L
aL2869592867L
aI709430142
aL2867125639L
aI237638155
aI26811146
aI44031785
aL2588890392L
aI347629758
aI15167064
aI1114920452
aI37148595
aI362735737
aI344383070
aI1635431762
aI54803764
aI702297854
aI84444981
aI398258984
aasS'obj'
p7
ccopy_reg
_reconstructor
p8
(ctweepy.models
User
p9
c__builtin__
object
p10
Ntp11
Rp12
(dp13
S'follow_request_sent'
p14
I00
sS'has_extended_profile'
p15
I00
sS'profile_use_background_image'
p16
I01
sS'profile_sidebar_fill_color'
p17
VF6FFD1
p18
sS'id'
p19
L2368283112L
sS'verified'
p20
I00
sS'entities'
p21
(dp22
Vdescription
p23
(dp24
Vurls
p25
(lp26
sssS'profile_image_url_https'
p27
Vhttps://pbs.twimg.com/profile_images/656506808874373120/xeuD6HPO_normal.jpg
p28
sS'_json'
p29
(dp30
Vfollow_request_sent
p31
I00
sVhas_extended_profile
p32
I00
sVprofile_use_background_image
p33
I01
sVdefault_profile_image
p34
I00
sVid
p35
L2368283112L
sVprofile_background_image_url_https
p36
Vhttps://abs.twimg.com/images/themes/theme19/bg.gif
p37
sVverified
p38
I00
sVprofile_text_color
p39
V333333
p40
sVprofile_image_url_https
p41
g28
sVprofile_sidebar_fill_color
p42
g18
sVentities
p43
g22
sVfollowers_count
p44
I84
sVprofile_sidebar_border_color
p45
VFFF8AD
p46
sVid_str
p47
V2368283112
p48
sVprofile_background_color
p49
VFFF04D
p50
sVlisted_count
p51
I2
sVstatus
p52
(dp53
Vcontributors
p54
NsVtruncated
p55
I00
sVtext
p56
V$RFG $IWP Mid cap growth moved from Correction to Dip mode to day in the Deep Value ETF Portfolio. https://t.co/anyumW92VZ
p57
sVin_reply_to_status_id
p58
Nsg35
L666437283097145344L
sVfavorite_count
p59
I2
sVsource
p60
V<a href="http://stocktwits.com" rel="nofollow">StockTwits Web</a>
p61
sVretweeted
p62
I00
sVcoordinates
p63
Nsg43
(dp64
Vsymbols
p65
(lp66
(dp67
Vindices
p68
(lp69
I0
aI4
asg56
VRFG
p70
sa(dp71
g68
(lp72
I5
aI9
asg56
VIWP
p73
sasVuser_mentions
p74
(lp75
sVhashtags
p76
(lp77
sg25
(lp78
sVmedia
p79
(lp80
(dp81
Vexpanded_url
p82
Vhttp://twitter.com/MicahMcDonald8/status/666437283097145344/photo/1
p83
sVdisplay_url
p84
Vpic.twitter.com/anyumW92VZ
p85
sVurl
p86
Vhttps://t.co/anyumW92VZ
p87
sVmedia_url_https
p88
Vhttps://pbs.twimg.com/media/CT-pLVoVAAAhn7C.jpg
p89
sg47
V666437282124070912
p90
sVsizes
p91
(dp92
Vsmall
p93
(dp94
Vh
p95
I325
sVresize
p96
Vfit
p97
sVw
p98
I340
ssVlarge
p99
(dp100
g95
I848
sg96
Vfit
p101
sg98
I887
ssVmedium
p102
(dp103
g95
I573
sg96
Vfit
p104
sg98
I600
ssVthumb
p105
(dp106
g95
I150
sg96
Vcrop
p107
sg98
I150
sssg68
(lp108
I99
aI122
asVtype
p109
Vphoto
p110
sg35
L666437282124070912L
sVmedia_url
p111
Vhttp://pbs.twimg.com/media/CT-pLVoVAAAhn7C.jpg
p112
sassVin_reply_to_screen_name
p113
Nsg47
V666437283097145344
p114
sVretweet_count
p115
I0
sVin_reply_to_user_id
p116
NsVfavorited
p117
I00
sVgeo
p118
NsVin_reply_to_user_id_str
p119
NsVpossibly_sensitive
p120
I00
sVlang
p121
Ven
p122
sVcreated_at
p123
VTue Nov 17 02:06:44 +0000 2015
p124
sVin_reply_to_status_id_str
p125
NsVplace
p126
NssVis_translation_enabled
p127
I00
sVutc_offset
p128
NsVstatuses_count
p129
I782
sg23
V
p130
sVfriends_count
p131
I262
sVlocation
p132
VPalmer, AK
p133
sVprofile_link_color
p134
V0099CC
p135
sVprofile_image_url
p136
Vhttp://pbs.twimg.com/profile_images/656506808874373120/xeuD6HPO_normal.jpg
p137
sVfollowing
p138
I00
sVgeo_enabled
p139
I01
sVprofile_banner_url
p140
Vhttps://pbs.twimg.com/profile_banners/2368283112/1445358491
p141
sVprofile_background_image_url
p142
Vhttp://abs.twimg.com/images/themes/theme19/bg.gif
p143
sVscreen_name
p144
VMicahMcDonald8
p145
sg121
Ven
p146
sVprofile_background_tile
p147
I00
sVfavourites_count
p148
I930
sVname
p149
VMicah McDonald
p150
sVnotifications
p151
I00
sg86
Nsg123
VSun Mar 02 04:39:31 +0000 2014
p152
sVcontributors_enabled
p153
I00
sVtime_zone
p154
NsVprotected
p155
I00
sVdefault_profile
p156
I00
sVis_translator
p157
I00
ssS'contributors_enabled'
p158
I00
sS'profile_text_color'
p159
g40
sS'followers_count'
p160
I84
sS'profile_sidebar_border_color'
p161
g46
sS'id_str'
p162
g48
sS'default_profile_image'
p163
I00
sS'listed_count'
p164
I2
sS'status'
p165
g8
(ctweepy.models
Status
p166
g10
Ntp167
Rp168
(dp169
S'favorited'
p170
I00
sS'contributors'
p171
NsS'truncated'
p172
I00
sS'text'
p173
g57
sS'source_url'
p174
Vhttp://stocktwits.com
p175
sS'possibly_sensitive'
p176
I00
sS'in_reply_to_status_id'
p177
NsS'geo'
p178
Nsg19
L666437283097145344L
sS'favorite_count'
p179
I2
sS'lang'
p180
g122
sg21
g64
sS'created_at'
p181
cdatetime
datetime
p182
(S'\x07\xdf\x0b\x11\x02\x06,\x00\x00\x00'
p183
tp184
Rp185
sg29
g53
sS'coordinates'
p186
NsS'in_reply_to_user_id_str'
p187
NsS'source'
p188
VStockTwits Web
p189
sS'in_reply_to_status_id_str'
p190
NsS'in_reply_to_screen_name'
p191
Nsg162
g114
sS'retweeted'
p192
I00
sS'place'
p193
NsS'retweet_count'
p194
I0
sS'in_reply_to_user_id'
p195
NsbsS'is_translation_enabled'
p196
I00
sS'utc_offset'
p197
NsS'statuses_count'
p198
I782
sS'description'
p199
g130
sS'friends_count'
p200
I262
sS'location'
p201
g133
sS'profile_link_color'
p202
g135
sS'profile_image_url'
p203
g137
sS'notifications'
p204
I00
sS'geo_enabled'
p205
I01
sS'profile_background_color'
p206
g50
sS'profile_banner_url'
p207
g141
sS'profile_background_image_url'
p208
g143
sS'screen_name'
p209
g145
sg180
g146
sg1
I00
sS'profile_background_tile'
p210
I00
sS'favourites_count'
p211
I930
sS'name'
p212
g150
sS'url'
p213
Nsg181
g182
(S"\x07\xde\x03\x02\x04'\x1f\x00\x00\x00"
p214
tp215
Rp216
sS'profile_background_image_url_https'
p217
g37
sS'time_zone'
p218
NsS'protected'
p219
I00
sS'default_profile'
p220
I00
sS'is_translator'
p221
I00
sbs.