(dp0
S'following'
p1
(lp2
(lp3
I44060695
aI322786017
aI126102466
aL3109004444L
aL2767009994L
aL2935526660L
aL4103657834L
aI39922782
aI265062844
aI14583608
aI67436849
aI29756339
aI1481024432
aL3752167932L
aI1008151898
aI176638150
aI28560034
aI305398399
aI332900070
aI166399593
aI24083901
aI353519802
aI16303106
aI44707441
aI443215941
aI436292177
aI52551600
aI571083342
aI59471027
aL2316199825L
aI365084207
aI1351174944
aI138445784
aI265219530
aI436097237
aI14212076
aI40093832
aL2802170367L
aI488662829
aI475326624
aI122488117
aI18838558
aI1414873783
aI28406270
aL3434451977L
aI61306578
aI216776631
aI29442313
aI858750770
aI11348282
aI36823
aL3583264572L
aL3230046206L
aI600029236
aI613364257
aI294243234
aI275873671
aI16403943
aI36013747
aL3415505473L
aI307193856
aL2376042180L
aI151232686
aI285321572
aI482568610
aI382271636
aL3406170563L
aI18228898
aI161801527
aI29166305
aI17503591
aI163562125
aL2475139904L
aI307758523
aL2657019355L
aL2163076560L
aI197843269
aI761826344
aI24058116
aI1442458556
aI376502929
aL3232977031L
aI110195330
aI133448051
aI25041297
aI425320711
aI248829112
aI50323173
aL2532160808L
aI813286
aI17915334
aI261239594
aI271293319
aL2999826306L
aL2422665828L
aI197670008
aI43289545
aI609688553
aI41016696
aL3220642800L
aI12044602
aI21362008
aI19923144
aL2987620812L
aL3064358595L
aL2602708329L
aI1252861734
aL3300594994L
aL2293663334L
aL2861305726L
aI790080344
aI19697415
aI52070893
aI168644353
aI42603608
aI715752858
aI1554696571
aL2444484134L
aI1582341876
aI19362299
aI119135103
aI300482078
aI81172502
aI834876829
aI1646220163
aL2655541468L
aI1536791610
aI1205666185
aI15473958
aI310463188
aI123269736
aI19869393
aI19725644
aI37710752
aL2218756541L
aI838440067
aI137119280
aL2324564760L
aI96699263
aI221050514
aI46257156
aI156132825
aI325659975
aI183310940
aI165918713
aI205441601
aI17461978
aL2447612665L
aI133880286
aI75974281
aI158014897
aI374817050
aI295742272
aI121118692
aI215060612
aI16228398
aL2922266132L
aL3096906386L
aI301848534
aI24523660
aI505073529
aI48176112
aI214537859
aI269552973
aI88890284
aI191671519
aL2584213500L
aI128659616
aL3036915043L
aI615547619
aI51263592
aI968723022
aL2702332878L
aI1283834629
aI952667893
aL2997753096L
aI21952592
aI226257592
aI15521222
aI396048824
aI344538810
aI551473324
aI501211634
aI33732317
aI505312405
aI25101190
aI1273869571
aI37054472
aI218167872
aI101073062
aL3011396778L
aI133345893
aI344490152
aL2568614008L
aI355844545
aI406723698
aI1706263429
aL2178528342L
aL2653748623L
aL2959026542L
aI1571540390
aL2161580641L
aI91478624
aI1155660415
aI449847207
aI580097412
aI241382835
aI79758113
aI24342206
aI18371803
aI279321785
aI15888142
aI1936241744
aI387152150
aI174730301
aI245396123
aI85698132
aI87581622
aI132774626
aI1410511280
aI22467679
aI1700356009
aI69693040
aI137527834
aI26281970
aI214174332
aI1217308981
aI28245852
aI200350541
aI26074296
aI39548993
aI371539066
aI1076021629
aI47218790
aI69799377
aI7861312
aL2437160899L
aI1209342523
aI90506792
aL2753277746L
aI172882802
aI59644241
aI113212382
aI386056280
aL2907491977L
aI19425947
aI57483040
aI68791040
aI17910183
aI101928415
aI362720950
aI527526077
aI1609077709
aI262676288
aI24569175
aI250639062
aI26257166
aI43408626
aI39288259
aI116362700
aI486131583
aI36961631
aI329330631
aI46746458
aL2871485238L
aI53474039
aI416034750
aI573415146
aI131948686
aI251871321
aI138134695
aI232404656
aL2767466961L
aI141341662
aI90693080
aI383044849
aI302974524
aI49519447
aI818804066
aI282612351
aI244404296
aI224810036
aI42468577
aI178812809
aL2557037323L
aI31353077
aL2802325658L
aL2415268284L
aI237845487
aI602317143
aI428564201
aI426867175
aI300932757
aI24516804
aI59959530
aI59048820
aI41302071
aI1113167976
aI1554385148
aI56405314
aI325633686
aI589672047
aI15635604
aI30047168
aI237549687
aI618599880
aI136036360
aI184795298
aI499107151
aI744096096
aI252706576
aI455877709
aI26577824
aI148912664
aL2307514934L
aI183352603
aI329274566
aI391037985
aI47786101
aI100322679
aI180463340
aI101798589
aI1645711686
aI15224867
aI7831092
aI263429643
aI1446814296
aI40981798
aI35823837
aI197636903
aI116904515
aI486327172
aI246039622
aI453435902
aI1075808455
aI441185602
aI59774122
aI59256282
aI1880281963
aI561322592
aI261936443
aI268133312
aI19759749
aI25460615
aI710300755
aI54682125
aI21447363
aI92367751
aI1330457336
aI390804549
aI469294007
aI441951136
aI287603659
aI223622368
aI197034645
aI238346334
aI262794965
aI289969718
aI46957344
aI50393960
aI66618379
aI29713877
aI161223163
aI1019238758
aI185487499
aI255388236
aI3004231
aI6427882
aI19426551
aI44312605
aI22461427
aI21278412
aI23151437
aI16553826
aI472569648
aI19028953
aI24862710
aI231175831
aI166739404
aI18734310
aI17696167
aI311984667
aI375383001
aI25421094
aI166270127
aI52613032
aI165511377
aI256573865
aI6539592
aI34507480
aI562381032
aI17919972
aI502135911
aI250831586
aI19879313
aI20630639
aI65184105
aI224359740
aI27195114
aI73443014
aI6480682
aI50037051
aI90420314
aI101557033
aI115485051
aI59949396
aI102206775
aI19279990
aI113897988
aI227390518
aI53333861
aI13260322
aI127676247
aI117169843
aI117175394
aasS'followers'
p4
(lp5
(lp6
I414415556
aL3318215954L
aL3109004444L
aL3744957437L
aL2922392417L
aL3563135776L
aI425193903
aL3307494589L
aI36013747
aI305365893
aI292562880
aI223713323
aL2873425630L
aL2475139904L
aL3377302390L
aI263429643
aL3231743215L
aL3315461236L
aI1554696571
aL2444484134L
aL2293663334L
aL2655541468L
aL2372908880L
aL2324564760L
aI96699263
aL2951559824L
aI613364257
aI20948425
aI126979461
aL2882463283L
aI355844545
aI344490152
aI1571540390
aI449847207
aL2959026542L
aI250639062
aL2808361675L
aI1554385148
aL2653748623L
aL2178528342L
aI1446814296
aI1706263429
aI406723698
aasS'obj'
p7
ccopy_reg
_reconstructor
p8
(ctweepy.models
User
p9
c__builtin__
object
p10
Ntp11
Rp12
(dp13
S'follow_request_sent'
p14
NsS'has_extended_profile'
p15
I00
sS'profile_use_background_image'
p16
I01
sS'profile_sidebar_fill_color'
p17
VDDEEF6
p18
sS'id'
p19
I237428159
sS'verified'
p20
I00
sS'entities'
p21
(dp22
Vdescription
p23
(dp24
Vurls
p25
(lp26
sssS'profile_image_url_https'
p27
Vhttps://pbs.twimg.com/profile_images/642808082263703552/pqMVy5dW_normal.jpg
p28
sS'_json'
p29
(dp30
Vfollow_request_sent
p31
NsVhas_extended_profile
p32
I00
sVprofile_use_background_image
p33
I01
sVdefault_profile_image
p34
I00
sVid
p35
I237428159
sVprofile_background_image_url_https
p36
Vhttps://abs.twimg.com/images/themes/theme1/bg.png
p37
sVverified
p38
I00
sVprofile_text_color
p39
V333333
p40
sVprofile_image_url_https
p41
g28
sVprofile_sidebar_fill_color
p42
g18
sVentities
p43
g22
sVfollowers_count
p44
I43
sVprofile_sidebar_border_color
p45
VC0DEED
p46
sVid_str
p47
V237428159
p48
sVprofile_background_color
p49
VC0DEED
p50
sVlisted_count
p51
I2
sVstatus
p52
(dp53
Vcontributors
p54
NsVtruncated
p55
I00
sVtext
p56
VRT @rhbroncos: #dirtier.  Have a good night.  Good win https://t.co/bFEiP9sad7
p57
sVin_reply_to_status_id
p58
Nsg35
L666345574363324417L
sVfavorite_count
p59
I0
sVsource
p60
V<a href="http://twitter.com/download/android" rel="nofollow">Twitter for Android</a>
p61
sVretweeted
p62
I00
sVcoordinates
p63
Nsg43
(dp64
Vsymbols
p65
(lp66
sVuser_mentions
p67
(lp68
(dp69
g35
I338939341
sVindices
p70
(lp71
I3
aI13
asg47
V338939341
p72
sVscreen_name
p73
Vrhbroncos
p74
sVname
p75
VRyan hibbard
p76
sasVhashtags
p77
(lp78
(dp79
g70
(lp80
I15
aI23
asg56
Vdirtier
p81
sasg25
(lp82
sVmedia
p83
(lp84
(dp85
Vsource_user_id
p86
I338939341
sVsource_status_id_str
p87
V666042672948379648
p88
sVexpanded_url
p89
Vhttp://twitter.com/rhbroncos/status/666042672948379648/video/1
p90
sVdisplay_url
p91
Vpic.twitter.com/bFEiP9sad7
p92
sVurl
p93
Vhttps://t.co/bFEiP9sad7
p94
sVmedia_url_https
p95
Vhttps://pbs.twimg.com/ext_tw_video_thumb/666042639121301504/pu/img/YkBr4SUtXLH6JZb1.jpg
p96
sVsource_user_id_str
p97
V338939341
p98
sVsource_status_id
p99
L666042672948379648L
sg47
V666042639121301504
p100
sVsizes
p101
(dp102
Vsmall
p103
(dp104
Vh
p105
I191
sVresize
p106
Vfit
p107
sVw
p108
I340
ssVlarge
p109
(dp110
g105
I576
sg106
Vfit
p111
sg108
I1024
ssVmedium
p112
(dp113
g105
I338
sg106
Vfit
p114
sg108
I600
ssVthumb
p115
(dp116
g105
I150
sg106
Vcrop
p117
sg108
I150
sssg70
(lp118
I55
aI78
asVtype
p119
Vphoto
p120
sg35
L666042639121301504L
sVmedia_url
p121
Vhttp://pbs.twimg.com/ext_tw_video_thumb/666042639121301504/pu/img/YkBr4SUtXLH6JZb1.jpg
p122
sassVin_reply_to_screen_name
p123
Nsg47
V666345574363324417
p124
sVretweet_count
p125
I34
sVin_reply_to_user_id
p126
NsVfavorited
p127
I00
sVretweeted_status
p128
(dp129
g54
Nsg55
I00
sg56
V#dirtier.  Have a good night.  Good win https://t.co/bFEiP9sad7
p130
sg58
Nsg35
L666042672948379648L
sg59
I20
sg60
V<a href="http://twitter.com/download/iphone" rel="nofollow">Twitter for iPhone</a>
p131
sg62
I00
sg63
Nsg43
(dp132
g65
(lp133
sg67
(lp134
sg77
(lp135
(dp136
g70
(lp137
I0
aI8
asg56
Vdirtier
p138
sasg25
(lp139
sg83
(lp140
(dp141
g89
Vhttp://twitter.com/rhbroncos/status/666042672948379648/video/1
p142
sg91
Vpic.twitter.com/bFEiP9sad7
p143
sg93
Vhttps://t.co/bFEiP9sad7
p144
sg95
Vhttps://pbs.twimg.com/ext_tw_video_thumb/666042639121301504/pu/img/YkBr4SUtXLH6JZb1.jpg
p145
sg47
V666042639121301504
p146
sg101
(dp147
g103
(dp148
g105
I191
sg106
Vfit
p149
sg108
I340
ssg109
(dp150
g105
I576
sg106
Vfit
p151
sg108
I1024
ssg112
(dp152
g105
I338
sg106
Vfit
p153
sg108
I600
ssg115
(dp154
g105
I150
sg106
Vcrop
p155
sg108
I150
sssg70
(lp156
I40
aI63
asg119
Vphoto
p157
sg35
L666042639121301504L
sg121
Vhttp://pbs.twimg.com/ext_tw_video_thumb/666042639121301504/pu/img/YkBr4SUtXLH6JZb1.jpg
p158
sassg123
Nsg47
V666042672948379648
p159
sg125
I34
sg126
Nsg127
I00
sVgeo
p160
NsVin_reply_to_user_id_str
p161
NsVpossibly_sensitive
p162
I00
sVlang
p163
Ven
p164
sVcreated_at
p165
VSun Nov 15 23:58:42 +0000 2015
p166
sVin_reply_to_status_id_str
p167
NsVplace
p168
Nssg160
Nsg161
Nsg162
I00
sg163
Ven
p169
sg165
VMon Nov 16 20:02:19 +0000 2015
p170
sg167
Nsg168
NssVis_translation_enabled
p171
I00
sVutc_offset
p172
NsVstatuses_count
p173
I988
sg23
VSpurs and Broncos fan
p174
sVfriends_count
p175
I415
sVlocation
p176
VDenver,  CO
p177
sVprofile_link_color
p178
V0084B4
p179
sVprofile_image_url
p180
Vhttp://pbs.twimg.com/profile_images/642808082263703552/pqMVy5dW_normal.jpg
p181
sVfollowing
p182
NsVgeo_enabled
p183
I00
sVprofile_banner_url
p184
Vhttps://pbs.twimg.com/profile_banners/237428159/1442701241
p185
sVprofile_background_image_url
p186
Vhttp://abs.twimg.com/images/themes/theme1/bg.png
p187
sg73
Vdarkmag13
p188
sg163
Ven
p189
sVprofile_background_tile
p190
I00
sVfavourites_count
p191
I2937
sg75
VChuuby
p192
sVnotifications
p193
Nsg93
Nsg165
VWed Jan 12 20:38:49 +0000 2011
p194
sVcontributors_enabled
p195
I00
sVtime_zone
p196
NsVprotected
p197
I00
sVdefault_profile
p198
I01
sVis_translator
p199
I00
ssS'contributors_enabled'
p200
I00
sS'profile_text_color'
p201
g40
sS'followers_count'
p202
I43
sS'profile_sidebar_border_color'
p203
g46
sS'id_str'
p204
g48
sS'default_profile_image'
p205
I00
sS'listed_count'
p206
I2
sS'status'
p207
g8
(ctweepy.models
Status
p208
g10
Ntp209
Rp210
(dp211
S'favorited'
p212
I00
sS'contributors'
p213
NsS'truncated'
p214
I00
sS'text'
p215
g57
sS'source_url'
p216
Vhttp://twitter.com/download/android
p217
sS'possibly_sensitive'
p218
I00
sS'in_reply_to_status_id'
p219
NsS'geo'
p220
Nsg19
L666345574363324417L
sS'favorite_count'
p221
I0
sS'lang'
p222
g169
sS'retweeted_status'
p223
g8
(g208
g10
Ntp224
Rp225
(dp226
g212
I00
sg213
Nsg214
I00
sg215
g130
sg216
Vhttp://twitter.com/download/iphone
p227
sg218
I00
sg219
Nsg220
Nsg19
L666042672948379648L
sg221
I20
sg222
g164
sg21
g132
sS'created_at'
p228
cdatetime
datetime
p229
(S'\x07\xdf\x0b\x0f\x17:*\x00\x00\x00'
p230
tp231
Rp232
sg29
g129
sS'coordinates'
p233
NsS'in_reply_to_user_id_str'
p234
NsS'source'
p235
VTwitter for iPhone
p236
sS'in_reply_to_status_id_str'
p237
NsS'in_reply_to_screen_name'
p238
Nsg204
g159
sS'retweeted'
p239
I00
sS'place'
p240
NsS'retweet_count'
p241
I34
sS'in_reply_to_user_id'
p242
Nsbsg21
g64
sg228
g229
(S'\x07\xdf\x0b\x10\x14\x02\x13\x00\x00\x00'
p243
tp244
Rp245
sg29
g53
sg233
Nsg234
Nsg235
VTwitter for Android
p246
sg237
Nsg238
Nsg204
g124
sg239
I00
sg240
Nsg241
I34
sg242
NsbsS'is_translation_enabled'
p247
I00
sS'utc_offset'
p248
NsS'statuses_count'
p249
I988
sS'description'
p250
g174
sS'friends_count'
p251
I415
sS'location'
p252
g177
sS'profile_link_color'
p253
g179
sS'profile_image_url'
p254
g181
sS'notifications'
p255
NsS'geo_enabled'
p256
I00
sS'profile_background_color'
p257
g50
sS'profile_banner_url'
p258
g185
sS'profile_background_image_url'
p259
g187
sS'screen_name'
p260
g188
sg222
g189
sg1
I00
sS'profile_background_tile'
p261
I00
sS'favourites_count'
p262
I2937
sS'name'
p263
g192
sS'url'
p264
Nsg228
g229
(S'\x07\xdb\x01\x0c\x14&1\x00\x00\x00'
p265
tp266
Rp267
sS'profile_background_image_url_https'
p268
g37
sS'time_zone'
p269
NsS'protected'
p270
I00
sS'default_profile'
p271
I01
sS'is_translator'
p272
I00
sbs.