(dp0
S'following'
p1
(lp2
(lp3
L3432935417L
aL2445459474L
aL2746667072L
aL2893191361L
aL3177923674L
aI1689434408
aL2448728762L
aI34713362
aL2275337142L
aI42589787
aI47678782
aL2930422354L
aL3058186108L
aI47786101
aI14583400
aI44844961
aI1577720233
aI1673739764
aI36973999
aI414600500
aL2683803193L
aI14216123
aI1241635501
aI1278296695
aI821618390
aI72442349
aI145313421
aI28989776
aI1931179794
aL2426471287L
aL2607477037L
aI1306003812
aL2249432185L
aI51912109
aI26574283
aI44196397
aI262652488
aI55561590
aI47905384
aI1873589498
aI26410257
aI1928213371
aI14902429
aI34837057
aI1430796462
aI428333
aI227070376
aI292777349
aI1026308503
aI1308512629
aI21399152
aI245181129
aI286774989
aI31374456
aI820031509
aI60150406
aI168715580
aL2820875928L
aI15404576
aI18856867
aI27828974
aI443918542
aI52166809
aI19739279
aI27762318
aI112872946
aI486139568
aI29557958
aI1575204570
aI132643352
aI41458395
aI72907355
aI313714566
aL2296501071L
aI1209303486
aI190092133
aI317826655
aL2440753004L
aI1494243978
aL2363229181L
aI125209305
aI138404716
aI102527566
aI14276189
aI95089157
aI100592354
aI37555599
aI35404934
aI102094857
aI338091511
aI123713942
aI348772885
aI140912249
aI20449296
aI514997936
aI47247213
aI15428604
aI906797108
aI1143585361
aI955733059
aI884935388
aI963151118
aI241583523
aI1364930179
aI569542024
aI17573691
aI218022222
aI1534167900
aI296924721
aI1559356620
aI49620233
aI71295439
aI498166332
aI373102216
aI394642779
aI207630487
aL2295434528L
aI775319148
aI222954248
aI18433619
aI1431342590
aI514835972
aI1152105936
aI185310946
aI42703163
aI72928001
aL2652618224L
aI15896903
aI586734515
aI262144590
aI416311594
aI51349301
aI966726223
aI166597717
aI62562916
aI170428232
aI992182100
aI175792847
aI278035623
aI874438663
aI1694722513
aI949381904
aL2341525668L
aI15296897
aI236953420
aI17622474
aI84402174
aL2476746547L
aI99035833
aI121158213
aL2310145046L
aI244399525
aI131276801
aI805230144
aI15897179
aI11247222
aI609304305
aI23390520
aI15971805
aI1720338654
aI581221150
aI93733389
aI172023851
aI102819479
aI355727441
aI30818980
aI23059499
aI205183966
aL2161913370L
aL2347851524L
aI15281391
aI458989076
aI15130891
aL2165541642L
aL2317837263L
aI1346744082
aI1639603778
aI301471997
aI54586706
aI595184823
aL2409330439L
aI201891203
aI168679374
aI1928489815
aI1187422273
aI377991037
aI31546412
aI184726370
aI39085071
aI193838214
aI859705728
aI20636215
aI459447657
aI237591901
aL2259383122L
aI133483902
aI290326941
aI579077854
aI71760197
aI18481050
aL2179895676L
aI21434709
aI96682182
aI1328994019
aI14297693
aI61216389
aI18965567
aI18216128
aI324479237
aI59853587
aI144876165
aI18120133
aI376936946
aI609372856
aI1217108497
aI14886375
aI15485441
aI191645809
aI379172971
aI18639734
aI81157050
aasS'followers'
p4
(lp5
(lp6
I613610333
aL3028160926L
aL3409433439L
aI186083899
aI100767876
aL2445459474L
aL3236852800L
aL3299357675L
aI1873589498
aL2868907819L
aL3167244104L
aL2900662968L
aI18045082
aI563894406
aL2888968070L
aI373639619
aI1026512892
aI1531007624
aI592198666
aL2772010364L
aL3133558819L
aI712995869
aL3130191089L
aI259056263
aI287885364
aI1539164581
aL3028191174L
aL2423662182L
aI43554881
aL2965787457L
aL2950905753L
aL2912496057L
aI1926819872
aL2831153890L
aL2917925022L
aL2902416723L
aL2753440416L
aI300534170
aL2422634400L
aI1908945510
aI547606717
aL2731069732L
aL2820150157L
aI22581325
aI195480875
aI414600500
aL2838168953L
aI379172971
aI62226476
aL2783624920L
aL2653263673L
aL2465128316L
aL2371129896L
aI604536757
aI243547240
aI708305507
aL2534466382L
aL2179264351L
aI1908698252
aL2465030030L
aI36293963
aI440476811
aI538347533
aI949381904
aI874438663
aL2341525668L
aI805230144
aI15897179
aI121158213
aL2310145046L
aI244399525
aI131276801
aasS'obj'
p7
ccopy_reg
_reconstructor
p8
(ctweepy.models
User
p9
c__builtin__
object
p10
Ntp11
Rp12
(dp13
S'follow_request_sent'
p14
NsS'has_extended_profile'
p15
I00
sS'profile_use_background_image'
p16
I01
sS'profile_sidebar_fill_color'
p17
V95E8EC
p18
sS'id'
p19
L2400337061L
sS'verified'
p20
I00
sS'entities'
p21
(dp22
Vdescription
p23
(dp24
Vurls
p25
(lp26
sssS'profile_image_url_https'
p27
Vhttps://pbs.twimg.com/profile_images/518645007927214082/OonI2cfQ_normal.jpeg
p28
sS'_json'
p29
(dp30
Vfollow_request_sent
p31
NsVhas_extended_profile
p32
I00
sVprofile_use_background_image
p33
I01
sVdefault_profile_image
p34
I00
sVid
p35
L2400337061L
sVprofile_background_image_url_https
p36
Vhttps://abs.twimg.com/images/themes/theme4/bg.gif
p37
sVverified
p38
I00
sVprofile_text_color
p39
V3C3940
p40
sVprofile_image_url_https
p41
g28
sVprofile_sidebar_fill_color
p42
g18
sVentities
p43
g22
sVfollowers_count
p44
I72
sVprofile_sidebar_border_color
p45
VFFFFFF
p46
sVid_str
p47
V2400337061
p48
sVprofile_background_color
p49
V3B94D9
p50
sVlisted_count
p51
I6
sVstatus
p52
(dp53
Vcontributors
p54
NsVtruncated
p55
I00
sVtext
p56
V#BeatTheThirst+to+Party+in+Paradise+with+440+chinas+in+Mauritius!+Enter+now+ https://t.co/3vV8fo2LNq
p57
sVin_reply_to_status_id
p58
Nsg35
L665753640175542272L
sVfavorite_count
p59
I0
sVsource
p60
V<a href="http://twitter.com/download/iphone" rel="nofollow">Twitter for iPhone</a>
p61
sVretweeted
p62
I00
sVcoordinates
p63
Nsg43
(dp64
Vsymbols
p65
(lp66
sVuser_mentions
p67
(lp68
sVhashtags
p69
(lp70
(dp71
Vindices
p72
(lp73
I0
aI14
asg56
VBeatTheThirst
p74
sasg25
(lp75
(dp76
Vurl
p77
Vhttps://t.co/3vV8fo2LNq
p78
sg72
(lp79
I77
aI100
asVexpanded_url
p80
Vhttp://hunters.co.za/party-in-paradise
p81
sVdisplay_url
p82
Vhunters.co.za/party-in-parad\u2026
p83
sassVin_reply_to_screen_name
p84
Nsg47
V665753640175542272
p85
sVretweet_count
p86
I0
sVin_reply_to_user_id
p87
NsVfavorited
p88
I00
sVgeo
p89
NsVin_reply_to_user_id_str
p90
NsVpossibly_sensitive
p91
I00
sVlang
p92
Ven
p93
sVcreated_at
p94
VSun Nov 15 04:50:11 +0000 2015
p95
sVin_reply_to_status_id_str
p96
NsVplace
p97
NssVis_translation_enabled
p98
I00
sVutc_offset
p99
I7200
sVstatuses_count
p100
I715
sg23
VMy tweets are not a suggestion to trade or advice on how to trade. Follow your own plan. Put in the time and you will reap the rewards. I just love trading
p101
sVfriends_count
p102
I221
sVlocation
p103
V
p104
sVprofile_link_color
p105
VDD2E44
p106
sVprofile_image_url
p107
Vhttp://pbs.twimg.com/profile_images/518645007927214082/OonI2cfQ_normal.jpeg
p108
sVfollowing
p109
NsVgeo_enabled
p110
I00
sVprofile_banner_url
p111
Vhttps://pbs.twimg.com/profile_banners/2400337061/1394483365
p112
sVprofile_background_image_url
p113
Vhttp://abs.twimg.com/images/themes/theme4/bg.gif
p114
sVscreen_name
p115
VC_a_s_h_Trader
p116
sg92
Ven
p117
sVprofile_background_tile
p118
I00
sVfavourites_count
p119
I1
sVname
p120
VLea
p121
sVnotifications
p122
Nsg77
Nsg94
VMon Mar 10 20:27:55 +0000 2014
p123
sVcontributors_enabled
p124
I00
sVtime_zone
p125
VPretoria
p126
sVprotected
p127
I00
sVdefault_profile
p128
I00
sVis_translator
p129
I00
ssS'contributors_enabled'
p130
I00
sS'profile_text_color'
p131
g40
sS'followers_count'
p132
I72
sS'profile_sidebar_border_color'
p133
g46
sS'id_str'
p134
g48
sS'default_profile_image'
p135
I00
sS'listed_count'
p136
I6
sS'status'
p137
g8
(ctweepy.models
Status
p138
g10
Ntp139
Rp140
(dp141
S'favorited'
p142
I00
sS'contributors'
p143
NsS'truncated'
p144
I00
sS'text'
p145
g57
sS'source_url'
p146
Vhttp://twitter.com/download/iphone
p147
sS'possibly_sensitive'
p148
I00
sS'in_reply_to_status_id'
p149
NsS'geo'
p150
Nsg19
L665753640175542272L
sS'favorite_count'
p151
I0
sS'lang'
p152
g93
sg21
g64
sS'created_at'
p153
cdatetime
datetime
p154
(S'\x07\xdf\x0b\x0f\x042\x0b\x00\x00\x00'
p155
tp156
Rp157
sg29
g53
sS'coordinates'
p158
NsS'in_reply_to_user_id_str'
p159
NsS'source'
p160
VTwitter for iPhone
p161
sS'in_reply_to_status_id_str'
p162
NsS'in_reply_to_screen_name'
p163
Nsg134
g85
sS'retweeted'
p164
I00
sS'place'
p165
NsS'retweet_count'
p166
I0
sS'in_reply_to_user_id'
p167
NsbsS'is_translation_enabled'
p168
I00
sS'utc_offset'
p169
I7200
sS'statuses_count'
p170
I715
sS'description'
p171
g101
sS'friends_count'
p172
I221
sS'location'
p173
g104
sS'profile_link_color'
p174
g106
sS'profile_image_url'
p175
g108
sS'notifications'
p176
NsS'geo_enabled'
p177
I00
sS'profile_background_color'
p178
g50
sS'profile_banner_url'
p179
g112
sS'profile_background_image_url'
p180
g114
sS'screen_name'
p181
g116
sg152
g117
sg1
I00
sS'profile_background_tile'
p182
I00
sS'favourites_count'
p183
I1
sS'name'
p184
g121
sS'url'
p185
Nsg153
g154
(S'\x07\xde\x03\n\x14\x1b7\x00\x00\x00'
p186
tp187
Rp188
sS'profile_background_image_url_https'
p189
g37
sS'time_zone'
p190
g126
sS'protected'
p191
I00
sS'default_profile'
p192
I00
sS'is_translator'
p193
I00
sbs.