(dp0
S'following'
p1
(lp2
(lp3
I465167301
aI16704485
aI58888491
aI34907324
aI619451030
aI253039017
aI112516813
aI955970244
aL2153794590L
aI183164517
aI64575629
aL2203777700L
aI17796903
aL2535215301L
aI863671710
aI19544891
aI219370252
aI61875147
aL2964741371L
aL2416307101L
aI563310218
aL2670799316L
aL3374006374L
aI155114081
aL3430197382L
aL3709662859L
aL3995055857L
aI298437285
aL3473312841L
aI475255646
aI607470608
aI64939121
aI276395971
aI312769638
aI1046518009
aI735106172
aI564000560
aI266315980
aL2578240705L
aI39940842
aI3801141
aI19935055
aI483195215
aI250416435
aI1018162818
aI18185124
aI1969630836
aI1018072160
aI17463660
aL2437662536L
aI26688109
aI868691125
aI22411342
aI18143866
aL3308216432L
aI252368862
aI73986605
aL4047092056L
aI270986094
aI298218590
aI882520526
aI149571760
aI297635111
aI1473168026
aI213999754
aL2982870212L
aI1257120919
aI27785342
aL3849795793L
aI176295357
aL2455990297L
aI520043192
aL3520582814L
aL3414964767L
aL3355307745L
aL3785908159L
aL3883812792L
aL2863186827L
aL3916665017L
aL3191579869L
aI1360202605
aI66192170
aL3910579829L
aL3380723537L
aL3071982840L
aL3884582387L
aL2786386935L
aI242437232
aL2249335272L
aL3505871117L
aI1222548678
aI606085941
aL3232054130L
aI336053144
aL3830207714L
aL3235695006L
aI125718631
aI136136326
aL3274877503L
aL2726009174L
aL3321908822L
aI555395284
aL2151556788L
aL3406443952L
aL3189110000L
aL2863510100L
aL2456850254L
aI919945346
aL2531631266L
aL2463340369L
aI879254389
aI23326970
aL2455742520L
aL2375587675L
aL2753327919L
aL2736475643L
aI123983269
aL3248075691L
aL2419301089L
aL3287620676L
aL3579265396L
aL2457147852L
aL3482486052L
aL3529487833L
aI280636293
aI143520228
aL3402833609L
aL3286831274L
aL3468788475L
aL3816905068L
aL2578878851L
aL3578854576L
aL3381154425L
aL3256008170L
aL3438095134L
aL3343607174L
aL3731847973L
aI1869513535
aI10373972
aI15859268
aL3256237507L
aI40106170
aI16467450
aI40007205
aL3137978754L
aL3481456333L
aL3308282981L
aL3513380713L
aL3112014215L
aL3337883104L
aL2797746127L
aL2929021304L
aL3018316450L
aL3072132589L
aL2844102905L
aL3382766637L
aI1116986029
aI952384819
aL3429174485L
aI892396477
aL3459311423L
aI486026900
aI1265935032
aL2553090228L
aL2883817028L
aI1336576566
aL3008733169L
aI1959265334
aL3162865932L
aI1705766478
aI1074855973
aI88020659
aL2607601184L
aL3384341199L
aL3094435555L
aI146595788
aI16968683
aL3033215256L
aI19263524
aI76551401
aI487024869
aI18807633
aI38496126
aI117413330
aI22642871
aI771803846
aI259339555
aI120786761
aI780630456
aL3135985491L
aI26280006
aI15815424
aI29072106
aI8596022
aI15740524
aI14370358
aI14115587
aI17859282
aI17641457
aL3354968836L
aI703912028
aI16606208
aL3158130115L
aL2537708132L
aL2822596978L
aI1560600001
aL3132079912L
aL3529008617L
aI854274673
aI16934205
aI16126957
aI53925101
aL2370776592L
aI23135992
aI14454605
aI1623159312
aI21279340
aI8820652
aI19713521
aI1691499745
aI227418944
aI17918705
aI20566418
aI211888763
aI70461418
aI112201881
aI17129417
aL3040036532L
aL3245208767L
aI72298366
aI60349138
aL2994600661L
aL3234281262L
aL3510011420L
aI358095633
aL2800432201L
aI786796148
aI402479397
aI420633322
aI1958925151
aI315891651
aI1601083975
aI533316075
aL2457281790L
aI993056893
aI730913462
aL3583283895L
aI1867379599
aL2273086916L
aI1409128308
aL3273485820L
aI1726666747
aL3172051032L
aI962518568
aI86345095
aL2599961318L
aI1902207943
aL3248814726L
aI108215134
aL2302906700L
aL2921491763L
aI19301453
aL2987490327L
aI297504021
aL2889294638L
aL2599621902L
aL3305395543L
aI470438993
aL3406214945L
aL2669372780L
aL3248503582L
aL2675737656L
aL2551210278L
aI342321261
aI726513512
aL3219671622L
aL2957195931L
aL3262768746L
aI461427197
aI304505600
aL2281327304L
aL3011539269L
aL2803982027L
aL2151977851L
aL3238048754L
aL3413098053L
aL2257947510L
aL2812540705L
aI896402858
aL3287888444L
aI193121500
aI10252232
aL3302065984L
aL2651396521L
aL2528445582L
aL3266213636L
aI21793923
aI574253717
aL2478484267L
aL2579477766L
aI804538952
aL2988639443L
aL2796355865L
aL2340740664L
aL3060647132L
aL3081748731L
aL3027099779L
aL3317598621L
aI229965545
aI1608779282
aI876881251
aI1550837456
aI45105778
aI39571338
aL2287193455L
aL2554548324L
aI1958766265
aL3244446896L
aL3379119496L
aI192190047
aI1511996430
aL2514292004L
aL2730441114L
aL3391825738L
aI560294989
aI757341576
aI334984155
aL2239824188L
aI32468301
aI1373568355
aI29724302
aL3350045277L
aI50670769
aI355866075
aL3195673519L
aI49733573
aL3220710264L
aI558223071
aI1680683959
aI1473023792
aI16092398
aI455824771
aI73467177
aI733498692
aI498828225
aI196100793
aI26713728
aI414896015
aI515397711
aI349287204
aI580838121
aI39564953
aI30437192
aI114055221
aI19835520
aI406619965
aI474482583
aI20113996
aI542726415
aI75029151
aI16631644
aL2304454442L
aI243125115
aL2414501748L
aL3315181113L
aL3367920838L
aL2811645281L
aL3284754595L
aL2905088920L
aI41280268
aL3229556469L
aI182642157
aI20636215
aI197869772
aI232120274
aI34939208
aI20682659
aL2525906341L
aI1209991820
aI1528558014
aL2151247592L
aI49753604
aI93529573
aI97530284
aI302939702
aI31480072
aI452151127
aI22522178
aI16785424
aI16825716
aI358371266
aI1493915587
aI63781564
aI16669175
aI28938717
aI21792210
aI31984670
aI44196397
aI34273205
aI11740902
aL3007902665L
aI90502419
aL3157851440L
aI1057973035
aI26790251
aI1226302873
aI19036633
aI529767241
aL2548598250L
aI1025106169
aI147642635
aI14292717
aI15246621
aI455309376
aI1530787430
aL3350110492L
aL2377347865L
aI26705006
aI338154237
aL2704486915L
aL3015267778L
aL2884960378L
aL3111945077L
aI17790265
aL2957430882L
aL3063518275L
aL3038843250L
aL2873982841L
aL2956204705L
aL3258305611L
aI761043624
aL2524071852L
aI34890167
aI138137860
aL2844162087L
aL2639956476L
aL2305647614L
aI307264104
aI246651975
aI45835398
aL3068947392L
aI54073402
aI15736517
aI36109419
aL2916165145L
aL2328266888L
aI1929828301
aI96073308
aI227082774
aL2176998253L
aI21907474
aI47328167
aI18461261
aI245408641
aI18341423
aI868603896
aI274313155
aI156751243
aI1364930179
aI1064786978
aI15617099
aI1357846256
aI202698937
aI197485346
aL3046647781L
aL3192165546L
aI586747731
aI614438575
aI550250019
aI1311875396
aI17754258
aL3191842195L
aI15082395
aI1112631350
aI297564170
aI322080787
aL3098098031L
aI283608252
aI518681855
aL3068941788L
aI1537428901
aL3050428358L
aL3344248245L
aL2382674964L
aL2633403679L
aL3146417363L
aL3225017430L
aL2621086177L
aL3150969958L
aL2396257417L
aL3010837787L
aI20020339
aI58282343
aI250833168
aI250929610
aI564028178
aI1713077701
aI248279296
aI98176568
aI171550730
aI557318743
aI532515476
aI202377686
aL2485701732L
aI1436374802
aL2486367217L
aI858467832
aI811716426
aI117130303
aI91547631
aI160884263
aL2834976726L
aL3304873739L
aI294924788
aI39236043
aI193845439
aL2982267000L
aI284445042
aI869426070
aI1702644626
aI14255759
aI800331241
aI111479180
aI28314816
aI28439578
aI846464593
aI20268555
aI215515408
aI32250250
aI271050864
aL2827306651L
aI247374163
aI66204721
aI150826153
aI43590673
aI1288110853
aI983649158
aI45124014
aI76117791
aI1845191160
aI56902824
aI15483632
aI561066499
aL3321792957L
aI203859927
aL2912210963L
aI1652264233
aI455382335
aI1538186791
aL2392005572L
aI616628342
aI226930697
aI33763859
aI508357217
aI321529971
aL2402270816L
aI1517898000
aI266278566
aI739071625
aI42285201
aI534664434
aI981074610
aI49208244
aI223281275
aI18589072
aI168161721
aI381150124
aI392739061
aI334252464
aI116002902
aI16636140
aI245846253
aI19203885
aL2646409434L
aL2578418136L
aL3120066408L
aL2994654131L
aL2723696479L
aL3219799739L
aL3298377041L
aL3220331802L
aL3085669918L
aL3222291459L
aL2286097290L
aL3011831941L
aI1966253173
aL3065014343L
aL2995152472L
aL3065705547L
aL2988824547L
aL3052180284L
aL2885502398L
aL3002324953L
aL2919209688L
aL2711957173L
aL3099743674L
aL3069914864L
aL3111167063L
aL2953425273L
aL3192422588L
aL3145012705L
aL2432018156L
aL2738005682L
aL2811553944L
aL3301868369L
aL3104834649L
aL3195077237L
aI389867685
aL2812184099L
aI323138766
aI1955923566
aI946439490
aI489885437
aL3092828309L
aL2792773247L
aI1349382846
aI587776539
aI352005990
aL2898118440L
aL3226321752L
aI109200080
aL3248838772L
aL3299929893L
aI465831878
aI1164029497
aL2927960383L
aL2908663679L
aI229385617
aI14770715
aI1903890320
aL2977288260L
aI239176563
aI40108269
aI64074243
aI837407887
aI376953024
aL3238183951L
aL3047920063L
aI14645160
aL2590242073L
aI1530916794
aI6026072
aL2992414321L
aI25366350
aI243395349
aL2955318703L
aL2820629251L
aI22986054
aL2886560265L
aL2927488483L
aL2590325786L
aI28573703
aI92796244
aI907346244
aI148089228
aI1064714544
aI373452151
aI100767876
aL3146648621L
aL3307633101L
aL2167059254L
aL3225702809L
aI17881816
aI396834863
aI392410566
aL2882013788L
aL2805929238L
aL3221622116L
aL3232128110L
aL3229606442L
aL3234563899L
aI1347771014
aL2298500958L
aL3305855326L
aL3291185675L
aL3303949779L
aI1611708830
aI23368614
aL3000333467L
aI314694555
aL3302993254L
aI46499616
aL2535445292L
aL2878166306L
aI618128847
aL2444437262L
aI175638835
aL3038549166L
aL2910216895L
aI14986598
aI17774244
aI15281391
aI1697118660
aL3062127810L
aL3104990839L
aI609841269
aI87403396
aI509143692
aI297075373
aL3140887819L
aL2516029806L
aL2960200423L
aL3213496915L
aL3103350108L
aI472426245
aI977532660
aI1954293848
aL2899318001L
aL2532566396L
aI602499898
aL2539478572L
aI154191690
aL3223120218L
aL3222805514L
aL2806977264L
aL3221254818L
aL3247068989L
aI264696121
aI18949709
aI490651205
aI244643016
aL2667930169L
aI564676602
aL3031821904L
aL2904846354L
aI61023987
aI288281788
aI533762910
aL3249701602L
aL3149305591L
aI55947736
aI43010876
aI17540673
aI247861990
aI138157120
aI36274577
aL3197260052L
aI122142222
aI17676433
aI994245847
aL3086231934L
aL3169353883L
aI19997064
aL3254642543L
aI108021761
aI1268426268
aL2689694834L
aI21111448
aI564595075
aI18814734
aI606742709
aI70028131
aI28370881
aI499202674
aL3241774653L
aI37599351
aI1618402586
aL2513339424L
aL2328196453L
aL3129508695L
aI1377549686
aL3193631899L
aI963315643
aI567826551
aI14860259
aI1252825838
aL2761577487L
aL3105897589L
aI83894447
aI1054570712
aI1617907123
aI932657108
aI377480316
aI384069048
aI312392334
aL3145727734L
aI379314446
aL2718055023L
aI45906613
aL2825024896L
aL2984698112L
aI277211908
aL3101783748L
aL3241107429L
aI492248877
aI28971190
aI567616480
aI278673907
aL3184332956L
aL3239924349L
aI1548772068
aI288430647
aI34414425
aI338448134
aI1289738107
aI5799022
aL2797963762L
aL3183576409L
aL2442046026L
aL3182399478L
aL3170451039L
aL3184643803L
aL3128972697L
aL2970592346L
aI27397390
aI34537046
aI1718869428
aL3182789661L
aI168883105
aI546388446
aL3224794035L
aL3224697189L
aI76661851
aI15662486
aL3018809793L
aL3156513626L
aL2691777578L
aL3217695219L
aI848199253
aI43867397
aI11424872
aL3017742806L
aL3177456572L
aL3096438374L
aL2801280973L
aI166501881
aL2886678820L
aI497626218
aI317219097
aI92342279
aI33939824
aI1718489364
aL3012561618L
aI19003676
aL2781961901L
aI273514824
aL2660406840L
aI386269852
aI23637826
aI1728994934
aL3193818814L
aI211150550
aI712775252
aI133354367
aI272242974
aI1525145665
aL2180123947L
aI1909758506
aL3166098614L
aI212626374
aL2968256134L
aL2860923189L
aI570496267
aI240373702
aL2297280528L
aL3165389007L
aL2927932039L
aI626556628
aI5904042
aL2928784496L
aL3171512279L
aL3160180195L
aL2750365010L
aI118337178
aL3149032720L
aL3153813242L
aL2791824993L
aI15315204
aI316583133
aI18977450
aL3145154479L
aL3149612130L
aI38194101
aL3150086823L
aL2165171784L
aI315887594
aL3121242837L
aI383539131
aL2710303866L
aI1128700334
aI542788631
aI127613843
aL3148274274L
aL3148017450L
aL3147241615L
aI1326133188
aI326448893
aL2425953786L
aI931025072
aL2587477320L
aL3151589309L
aI166777730
aL3115139938L
aI443863659
aI9713802
aL2850483904L
aL2994771401L
aL3082781533L
aL2698421834L
aI14630744
aI1214989724
aL2154736986L
aI242755419
aI91146650
aL2334570114L
aL2985986987L
aI870927559
aI142079818
aL3139660404L
aL3139285682L
aI744212286
aI42562486
aI718212656
aI480219510
aL3010422596L
aI35382865
aL3131397854L
aI83035298
aI835529964
aL3084225748L
aI342568440
aI297604532
aI270592981
aL2911039074L
aI488940372
aL3131270221L
aI839877572
aL3107464080L
aL3122852922L
aI1540902782
aI106804211
aL3124334523L
aI430685734
aI64798468
aI280287605
aI1164880759
aI1382627982
aI47421441
aL3116280504L
aI471108758
aL3112190965L
aI522518631
aI45415894
aI257340563
aL2826683117L
aL2733325000L
aL2207645172L
aI31175481
aL3112305997L
aI1464473065
aL2965660835L
aI316247223
aL2912817584L
aL2790408925L
aL3081352216L
aI189690999
aI1496949854
aL2529961927L
aL3074061530L
aI259056263
aI56683226
aI32396334
aI1533840589
aI170411939
aL3081345050L
aL3111816657L
aI612423772
aL2950059586L
aL3108761529L
aL2963767631L
aI50344501
aL2781318668L
aL3080897930L
aL2781050528L
aI148268103
aI37215608
aL2733896814L
aL2987394058L
aL2957837847L
aI139373116
aI14216123
aI189901963
aL2876224978L
aL3042173895L
aL2944508337L
aL2393209027L
aI355570345
aI96584361
aL3088455464L
aI783912270
aI320524842
aL2330214788L
aI1948020342
aL3077870875L
aL3074472590L
aL2782741946L
aL2690693762L
aI1853092242
aL2409581528L
aL3080700483L
aI983368620
aI1901687076
aI308142636
aI97525080
aI973541394
aI151641455
aL3058855400L
aI622610307
aL2721304442L
aL3041143682L
aL2800726518L
aL2989707616L
aL2457394376L
aI1507639063
aI1598866891
aL3038208674L
aL3044159284L
aI14232141
aL2962183678L
aI1171804310
aL3023185002L
aL2911920971L
aI933525102
aI30648012
aI82062056
aI50119726
aI272065469
aI115939171
aL2461746907L
aI15814166
aL3024874424L
aI156781724
aL2852989639L
aI75049621
aI53689588
aI77777584
aI274537469
aL2315058284L
aI301744980
aI1200986130
aL2567153430L
aL2823975664L
aI17278975
aL2673760747L
aI34169185
aI1305054547
aI25173138
aI60419882
aL3021314001L
aL2982088181L
aL2741906342L
aI438682472
aI362093910
aI66519512
aI121654986
aI1944177338
aI150301441
aI316519659
aI969619548
aI262993890
aL3019813924L
aI1431443905
aI585390772
aI1138423621
aI14216924
aI1952076517
aL3000332775L
aL2720106800L
aI25414846
aL3010758706L
aI82121710
aI47336979
aI71603392
aI21154839
aI839518783
aI23799829
aI340288597
aL2997341162L
aI1950309330
aI1131555566
aI14311307
aI822044000
aL2808701624L
aL2612607522L
aI273232319
aL2709503730L
aL2461907034L
aL2445459474L
aL2988005793L
aI1268183557
aI136791161
aL2388474690L
aL2990320758L
aI1378053337
aL2433600366L
aI17768004
aL2490459883L
aL2987560400L
aL2982013384L
aL2983621878L
aI223348978
aI878385756
aI341663329
aI958733870
aL2326043804L
aL2608446166L
aL2981151811L
aI13137022
aI224778333
aI156940417
aL2350371451L
aI141748686
aI1429955264
aI310354977
aI70851957
aI102246979
aL2293034569L
aI79966812
aI1370869370
aI139102346
aI1530847501
aL2966035846L
aL2961389848L
aI20477352
aL2647222124L
aI68767471
aI611817117
aI16278142
aI114654152
aI607188140
aL2864279753L
aL2781284192L
aI24480870
aI314199487
aI188930892
aL2171648470L
aI41906009
aI805230144
aI159248611
aI18250490
aL2826111308L
aI888020401
aI18992010
aI105946058
aL2933882627L
aI16244529
aI264380745
aL2789601613L
aI40897130
aI252141839
aL2320404222L
aI1540100520
aL2654474978L
aL2541964602L
aL2926115783L
aI252371484
aL2159154530L
aI56131409
aL2816086794L
aL2392841370L
aI16460151
aI1399664286
aI584204619
aI1001192245
aL2828816495L
aI285843101
aL2819362954L
aL2451304967L
aI1948758541
aI61243585
aL2587280736L
aL2904098999L
aL2922170503L
aI64328896
aL2526809965L
aL2912303863L
aI178945850
aL2248963120L
aI547095036
aI48829629
aL2698912710L
aL2277330550L
aI27936739
aI29336037
aI32610024
aL2215191067L
aI16194080
aI74413966
aI244712325
aI20700725
aL2186856927L
aI1645705218
aL2200351706L
aI581987420
aI16987912
aI1383391782
aI20466819
aI36039343
aI8937632
aI399058210
aI18555126
aI44288173
aI43017099
aI454286909
aI14270627
aI99014196
aL2362057360L
aI425017328
aI425192466
aI330494206
aI43542245
aI603817508
aI546910345
aI207615325
aI420902189
aI15852044
aL2828964974L
aI21125275
aI15594158
aI40867956
aI331648405
aI245187800
aI313732949
aI321522383
aI22396075
aI35192440
aI216140526
aI24786192
aI227438139
aI378649195
aL2844514127L
aI111946208
aI481448296
aI19040057
aI1532159622
aI17972648
aI332658636
aI108174268
aI221595495
aI27450620
aI467082958
aI194434580
aI98290234
aI232940007
aI187562248
aL2625607312L
aI784071102
aI1379519768
aI436770737
aI274735484
aI162902236
aI468383797
aI20294170
aL2837658339L
aI1375790539
aI238294964
aL2633278765L
aI1059971
aI285650276
aI108390459
aI224873315
aI248945045
aL2656594800L
aI216502210
aL2608557701L
aI398888755
aI22444210
aL2497814167L
aI30360763
aI23622423
aI538208312
aI514837546
aL2152612894L
aI192963082
aL2397870085L
aI363836931
aI20323347
aI267908990
aI1061817883
aI26473092
aI1219689432
aI24557396
aI342523337
aI13313912
aI216968692
aI41980012
aL2340979046L
aI329454031
aI797166
aI1890422568
aI54738272
aI404908107
aI324901281
aI318806068
aI619645224
aI568744327
aI1674376698
aI45933208
aI441704746
aI1231908607
aI380328459
aL2812158797L
aI36041716
aI566534065
aI137953541
aI62985754
aI128958510
aL2318627354L
aI743892306
aI361344030
aI19937331
aI40183126
aI598479813
aL2310508036L
aI612736411
aI394013551
aI6843932
aI788320915
aI245509112
aI15185035
aI23188115
aI47963058
aI134616567
aL2230960259L
aI283179105
aI216509813
aI35542831
aI7939512
aI131859573
aI298564055
aI31496086
aI1711533198
aL2522689474L
aI48402937
aL2903203135L
aI18966371
aI371234597
aI835300243
aI193803066
aI9636172
aL2379700903L
aL2360831705L
aI196296812
aI1898961067
aI516253659
aI1229362393
aL2177692076L
aL2377676754L
aI579114403
aL2905091972L
aI53829677
aI546343638
aI40920101
aI40899610
aI175743717
aI1112887076
aI1960789190
aI324516366
aI1431182287
aL2904841291L
aI1947752124
aL2901028518L
aL2880336616L
aI703092174
aL2298599792L
aI323487376
aI485475104
aI115131431
aI10170982
aL2216285619L
aI1701813770
aI1166656939
aI328673299
aI253021980
aI1668647840
aL2700018842L
aL2179768435L
aL2805516332L
aI1581449490
aI1359980808
aL2681027586L
aI1265061120
aI989411646
aI44243203
aL2409789439L
aL2894144131L
aI373458126
aL2893415299L
aI43254072
aL2543866028L
aL2865547324L
aI57440214
aL2587680230L
aI170647444
aI1568747790
aL2739972932L
aL2168331208L
aI19506987
aI18111493
aI459051859
aI29130296
aL2836952343L
aI630326070
aI1638439164
aI593748767
aI1558870200
aI423588897
aL2230614920L
aI1879355582
aI943805894
aI234838774
aL2866743726L
aI97487983
aL2840252812L
aI250425339
aI79050220
aL2688031591L
aI809312
aL2713834759L
aL2799212862L
aI23776654
aI16904934
aL2480211367L
aI20228233
aI916204982
aI532374319
aI583383887
aI8680442
aI785887310
aI271066814
aI629573379
aI118269391
aI1010238912
aL2377013336L
aI597905589
aI223880931
aI1650879462
aI53434947
aI200515160
aI45642490
aI1895001812
aL2821057683L
aI116271809
aL2851847005L
aI1547503512
aI1398316004
aI83047099
aL2207715150L
aI1068886340
aI935693275
aL2666737873L
aL2568235537L
aI9681052
aL2798693331L
aL2302298804L
aI104424218
aI361733407
aI17386819
aL2360171593L
aI21690812
aI1487885785
aL2682663512L
aI1082865211
aL2610391793L
aL2699985241L
aI34035933
aL2364397537L
aI74484200
aL2568382842L
aL2263595983L
aI1051437492
aL2823746510L
aL2830000465L
aL2784446317L
aI305277457
aI450837205
aL2616980359L
aL2177533513L
aL2564289037L
aI1099740991
aL2361413834L
aI21535166
aI32135630
aL2802001490L
aL2511518101L
aI1102292911
aL2610300944L
aI208369777
aL2761711891L
aI1667447820
aI21392684
aL2579343674L
aI518410497
aL2810092230L
aI444940567
aI301578987
aI99561903
aI8071902
aL2343022050L
aI517808265
aL2806154838L
aI316670074
aL2777679216L
aL2687537033L
aL2493019890L
aI962662590
aL2674325750L
aI95943762
aI79213730
aL2333836694L
aL2545305139L
aI7630342
aI1510731678
aI57331300
aI1675827913
aI522794267
aI886882542
aI276220345
aI14574802
aI561655444
aI61608747
aL2202064120L
aL2572132080L
aI586635398
aI1069931480
aI30349066
aI312871730
aI1903142576
aI1634042664
aI103143089
aI105491141
aI359410806
aI137796394
aL2751750139L
aI1284257707
aL2415855931L
aL2313196626L
aL2737179210L
aL2731182591L
aI795932042
aI333672211
aI1947089696
aL2182799412L
aI1917163806
aI83004016
aI39995364
aL2218519298L
aI126783522
aI872423437
aI45930775
aI77725938
aL2370419636L
aI1604707010
aI588559501
aI209563367
aI820457726
aI26941928
aI20341998
aI1630255716
aI564705230
aI291661544
aI58525147
aL2473577568L
aI1669933141
aL2467702285L
aL2547921596L
aI24374097
aL2447341464L
aL2363004156L
aI14198769
aI29032037
aL2168904518L
aI921551695
aI188525525
aI1917684800
aI262749118
aI94984926
aI1560548948
aI57497901
aI148418872
aL2733118665L
aL2386445887L
aI17018005
aI1643159077
aI41417878
aI283616325
aI142396796
aI169634370
aI1643123766
aI145600904
aI15377115
aI21689176
aI15175819
aI2147401
aI14505871
aI101756062
aI784979538
aI30197540
aI1732624986
aI1400098081
aI544459972
aI48771393
aL2654916067L
aI615927039
aL2399728434L
aI123602264
aI15695513
aI58174695
aI32789366
aI378371206
aI225103893
aI51271929
aL2515746120L
aI31891798
aI64089693
aL2395268660L
aL2421943338L
aL2396051509L
aI50481214
aL2661389730L
aI280826651
aI20119344
aI16248319
aI15177871
aL2316901339L
aI321309883
aI258066975
aI357895797
aL2428604888L
aL2581663284L
aI511026754
aI349249164
aI1368959768
aL2563215865L
aI69526502
aL2447773698L
aI159111501
aI37877645
aI1673421552
aI54800576
aI36668920
aL2678073229L
aL2186630097L
aI71165327
aL2464039092L
aL2563303782L
aI387181116
aL2199824470L
aL2542781642L
aI71513606
aI443223357
aI1187793236
aI12601142
aL2412814124L
aI188013000
aI366812553
aI27291058
aI985186471
aI433137670
aI19053307
aI197464628
aI91942071
aI1239521989
aI1904593968
aI260340277
aI415890251
aI26391721
aI323918881
aI164386441
aI17536486
aL2668893469L
aI35767916
aL2325103278L
aI19478383
aI32187100
aI182521551
aI43977242
aI973705897
aI65582754
aL2284550540L
aI1725368329
aL2540852360L
aI49269819
aL2389208149L
aL2566200253L
aI910092864
aL2269915735L
aI831500821
aI282418609
aI431689234
aL2459745396L
aL2520504642L
aI15563449
aL2566782606L
aI562171576
aI517168840
aL2505126759L
aI100277835
aL2281321495L
aI139988522
aL2396489370L
aI444513211
aI1975778077
aI254611370
aI709430142
aL2662814337L
aI122084689
aL2598927391L
aL2163057708L
aI973710457
aI69080516
aI303965102
aI973546363
aL2611588590L
aL2235189276L
aL2385217021L
aI400964160
aI20854494
aI50294938
aL2613310459L
aI80728499
aL2151115525L
aI29015085
aI182184668
aL2552979565L
aI604281093
aI56293707
aI101107997
aI199097869
aL2488883942L
aL2399928514L
aI11108762
aI36375798
aI361980867
aI521733249
aI18936284
aL2572777560L
aI15645871
aI116766949
aI244769824
aL2641052619L
aI436795156
aI528807413
aI29024224
aI97383592
aI20515090
aI15274836
aI40798442
aI893710010
aL2384313595L
aL2384332080L
aL2401928594L
aL2430980629L
aI1543437272
aI69681766
aI578321883
aI102122113
aI568765221
aI571335050
aL2584720087L
aI136346386
aI625066162
aI71796971
aI33495086
aI1549189968
aI17538349
aL2358113832L
aI147499293
aI16275044
aI42135232
aI30249176
aL2583651986L
aL2450454150L
aL2626595445L
aI1694936220
aL2575110402L
aI377169470
aI11956192
aI399183625
aI973543363
aI115679415
aL2558346746L
aI226115922
aI132616802
aI248466381
aI1512267163
aI13339612
aL2558205630L
aI1515098156
aL2556502700L
aI973705207
aI1887009079
aI973714687
aL2484594583L
aI172860619
aI156761116
aI159282289
aL2495332741L
aI172836249
aI17486092
aL2421568998L
aI17393362
aI453548744
aI23318968
aI16027532
aI1633669044
aI256628776
aL2322941196L
aI406285939
aI740789400
aI55364253
aL2467924206L
aI31648183
aI622090612
aI1847209332
aL2371375765L
aI493609953
aI1870096807
aL2274698472L
aI1131349116
aI21001013
aL2408101196L
aI81195356
aL2510897581L
aI539541703
aL2326647137L
aL2510780409L
aL2357359778L
aL2197214029L
aL2215342812L
aL2499229069L
aI1049460835
aI473760147
aL2497045194L
aL2391432626L
aI36396364
aL2429288503L
aI11636352
aI61558281
aI553287053
aL2382560148L
aI49050047
aI548577333
aL2456801359L
aI259689332
aI139463483
aL2457540278L
aL2433268352L
aL2395596672L
aI1662175640
aI952230764
aI1538224236
aI519917075
aI232666084
aI453327099
aI362423374
aL2349801090L
aI400706268
aI14608284
aI20427949
aI207323988
aI1183685479
aI986106360
aL2345247236L
aI805415876
aL2309593464L
aI32896052
aL2195935375L
aI55166712
aI262891245
aL2296501071L
aL2386301736L
aI21354868
aI53565035
aI143218637
aL2149877280L
aL2414234928L
aL2439781206L
aI899944626
aI1442178204
aI1217773032
aI238524126
aI281050415
aI107646745
aL2206837615L
aL2187356088L
aI456177891
aI127967449
aL2318782166L
aI15932734
aI186468322
aI441970965
aL2345934080L
aI173115840
aI21233048
aI44217028
aL2456634960L
aL2259222409L
aL2307603415L
aI839740526
aL2457566034L
aI463100829
aI1412980236
aI209330315
aI103106691
aI16037008
aI1549705375
aI112874216
aL2448542214L
aI1233134340
aI23003843
aI73422571
aI33906521
aL2444460961L
aI1927831368
aI860037217
aI35120520
aI161128380
aI451490037
aI16548435
aI144927740
aI16127048
aI27702107
aI768900236
aL2263623228L
aI377149306
aI1093261778
aI560021456
aL2298871333L
aI1061291688
aL2486719727L
aI29243369
aI628859343
aI571228605
aL2419591040L
aL2411605056L
aI57715740
aL2247692821L
aL2375971488L
aL2431803428L
aI1523927052
aL2310111968L
aI1332929491
aL2294114401L
aL2362110421L
aI799529564
aL2257287968L
aI430943262
aI888149443
aI1645759519
aL2211867912L
aI773858041
aI1052684484
aI21567887
aI500923353
aI727796012
aI33964397
aL2388991652L
aI376993335
aI43111757
aL2338679082L
aI1028386544
aL2240684586L
aL2434929872L
aI575927490
aI1898649980
aI29488039
aI18408384
aI1393438172
aI398258984
aL2260848139L
aI1581413814
aI15689652
aI83704207
aI22150874
aL2191697336L
aI331787759
aI569209566
aI14626496
aI1542400573
aI49503964
aI627498274
aI1451169132
aI1544219917
aI60170739
aL2313902311L
aasS'followers'
p4
(lp5
(lp6
L3152546639L
aL2801546377L
aI34907324
aI882897529
aI16704485
aL2464933328L
aI55804786
aI272340773
aL2827109622L
aL2835383526L
aL3302715629L
aI10039022
aL2416307101L
aL3413442681L
aI849617886
aI1907938308
aI39972284
aI28889577
aL2819416834L
aI478878156
aL3652862425L
aI29964289
aI275678439
aL3239767856L
aI41453909
aL3319587413L
aI9461032
aI1687844646
aI31257471
aI895896277
aI863671710
aI35871249
aL2241631370L
aI609150188
aL3748278321L
aL2164172466L
aL2391151420L
aI1525689241
aL3149593591L
aL3300815185L
aL3983746634L
aL4127879895L
aI1858767018
aL4047092056L
aI1344373368
aL3373074856L
aL4168191094L
aI15245154
aL2945772628L
aL2748517662L
aI1346929950
aI1426318346
aL3066560798L
aL3962448017L
aI1969630836
aL2216502212L
aL4151235478L
aI25358132
aI872125404
aI543181566
aL3250173835L
aL3325672602L
aI33778988
aL2788180900L
aI434507877
aI234956680
aI19016892
aI487930423
aL2252065562L
aL2499930355L
aL2175102629L
aL3860870360L
aI82121710
aL2732644778L
aI3686081
aL4043973801L
aL2578240705L
aI18953266
aL2280976532L
aL4102675155L
aL4117898594L
aI266315980
aL2705805788L
aI483195215
aL2910639704L
aL3378854752L
aI1329438223
aL2855020357L
aL2437662536L
aI35524764
aI22298846
aI413955323
aL3352341729L
aL3702192981L
aI121439458
aI1949913636
aI756821281
aI580816177
aI65508463
aL2394624246L
aL2210619493L
aL2254160856L
aL2959332826L
aI520043192
aL3995055857L
aL4078705393L
aL2370776592L
aL3849795793L
aI521940159
aL3825314781L
aL4065942145L
aL3750623938L
aI201890105
aL3315218072L
aL4032419480L
aL3865732469L
aI45386712
aI1002822314
aI388306933
aI17326287
aL2199152462L
aI236178431
aL3910579829L
aI71050062
aI108489578
aL4017692242L
aL4038337233L
aI15863413
aL3939995893L
aI61560792
aI19713521
aL3071982840L
aL2393107628L
aL3612741198L
aI774086480
aL4009462035L
aI67327952
aL2619211730L
aI45632793
aL4042521022L
aI1257120919
aI242437232
aI16143440
aL3189110000L
aL2712801402L
aI774935316
aL3238677767L
aL4008182415L
aL3130723173L
aI1275758395
aL3505871117L
aI484665948
aI287215142
aL2555507269L
aL3251487501L
aL3884582387L
aL3830207714L
aI19927676
aL3395170581L
aI180954109
aL3235695006L
aL4000471337L
aL2537781000L
aI1390789068
aI801678416
aL2456850254L
aI1222548678
aI564460228
aL2277044311L
aI468475923
aI919206380
aI191244133
aI373385854
aI1228842024
aL3037545226L
aI19691332
aL3033223028L
aI31163181
aI1377875412
aI103961862
aL3246933177L
aL3988444516L
aL3123897103L
aI5092951
aI157110165
aL3321908822L
aL3830387838L
aI376722924
aL2554548324L
aI1245926706
aI547129620
aI481522085
aL3903192987L
aI125710982
aI918437988
aL3955875922L
aL3381154425L
aI252368862
aL3883812792L
aL3529487833L
aI772488438
aI879254389
aL3579265396L
aL3482486052L
aI459091687
aI143520228
aI995172852
aL3360629141L
aL3934023089L
aI122520941
aL3916665017L
aL3854273058L
aL3256008170L
aL3468788475L
aL3731847973L
aL2863510100L
aI1608075704
aL3816905068L
aI135488979
aI138099733
aI8820652
aL3158204060L
aI1176002924
aL3241234325L
aL3820494973L
aL2308957656L
aL3884993241L
aI122030129
aI386184219
aI141209349
aL3343607174L
aI24427227
aL3201146113L
aL3242384081L
aL3785908159L
aI99763265
aL2992153311L
aI38681013
aI45533190
aI44820876
aL3390605063L
aI558359697
aL2778058169L
aL3513380713L
aL3264845686L
aI50566229
aI84317798
aL2389154198L
aL3162865932L
aL3494434343L
aL3318364198L
aL2815960975L
aI24436600
aL2982870212L
aI117413330
aI161299018
aI703912028
aI882520526
aI19427242
aL3254600783L
aI96073308
aL3219974969L
aL3265436664L
aL3242793826L
aL3245208767L
aL3116436392L
aI713281064
aL2553090228L
aL3528256036L
aL2393200296L
aI726513512
aL3373064712L
aI299385432
aL3239099154L
aL3244848485L
aI1423589210
aI16968683
aL2941533395L
aI7807162
aL3169181164L
aL2294940620L
aL3354968836L
aI63728431
aL2391668444L
aI209136060
aL3307215779L
aL3260826182L
aL2457281790L
aI202637109
aL3100091952L
aL3634394413L
aI280062813
aI228962137
aI241185718
aI907247689
aL2895033159L
aL3306997026L
aL3694458495L
aL2817966517L
aI730913462
aI232392581
aI112201881
aI20264728
aL3676842556L
aL3586539553L
aI21760872
aL3111945077L
aI42227593
aI235094720
aL2187698858L
aI384329780
aI1491030080
aI411500669
aL2594194394L
aI1238372887
aL2765729481L
aI37130637
aI1902207943
aL3273485820L
aI15899108
aI124621935
aL3510011420L
aL2748085613L
aI184577691
aI280757744
aL2918203089L
aI184391585
aL3583283895L
aI1544543317
aL3317146507L
aL3529008617L
aL2957195931L
aL3494512514L
aL2946982314L
aI78401532
aL2258171617L
aL2348048564L
aI470438993
aI251366372
aI98176568
aI123890873
aI1072484450
aI114008399
aL3287888444L
aL3557067557L
aL2822379212L
aI254532265
aI1311875396
aL2569610544L
aL2432454086L
aI342321261
aL3531873557L
aL3426368113L
aL3424306572L
aL3420266600L
aI972333368
aL2180226764L
aI131276801
aL3177303368L
aI21972988
aL2344938772L
aI336075069
aL3302065984L
aL3410258549L
aI624533201
aL3196724996L
aL2975391482L
aI110307490
aI1684586388
aI620208825
aL3238048754L
aL3461031256L
aI765905275
aL2804754049L
aL3463056747L
aI402927973
aL3315412633L
aL3359709444L
aI312439805
aI1549460420
aL2891284661L
aI1664645918
aI74973339
aL3386945908L
aL2857916800L
aI48041690
aL2478484267L
aI10252232
aL3435597783L
aL3317598621L
aI45105778
aL2237330917L
aL3195077237L
aI30654717
aL2157141589L
aL3317498101L
aL2838637524L
aI86831754
aL3278642540L
aI456000222
aI1206242984
aI1246157036
aI1068553124
aL3405798119L
aI116154885
aL3428145520L
aI1873249016
aI313750447
aL3244446896L
aI348532299
aL3389592525L
aL3428065156L
aL3317006754L
aI175240270
aI1127626405
aI1909544570
aI243125115
aI109610251
aI234618280
aL3413098053L
aI981565855
aI505304607
aL3056899210L
aL3403230305L
aI558223071
aI135009248
aI739958510
aI418187527
aL2491819189L
aI133102592
aI99113408
aL3310419800L
aL2873802329L
aI1691584490
aI218486506
aI75029151
aI392726309
aI447537861
aL2856540383L
aI580838121
aL3405746158L
aL2377347865L
aL2766667329L
aI1422134394
aL2905088920L
aL3229556469L
aI41280268
aI19243598
aL3284613528L
aL3402826701L
aL3403865811L
aL3306185522L
aL3305421534L
aL3223309968L
aI937482673
aL3305911987L
aI1327210740
aL2353350343L
aI44684079
aI1635505644
aI352994970
aI1323045696
aI1721167374
aI251514995
aL3393780633L
aL3396435934L
aI628635550
aI569013399
aI40015441
aL3391825738L
aL3345845194L
aI41917812
aL3249525254L
aI529767241
aL2476453034L
aI94249961
aL3089775476L
aL2548598250L
aI89574528
aI590565822
aI1898856151
aL2160292088L
aI107922329
aL3295839986L
aL3295663105L
aL3293656669L
aI570154956
aI1393603976
aL3292769760L
aL2305647614L
aL3390493685L
aL2504016571L
aI252342314
aI337931230
aI147642635
aI1116986029
aL3372955156L
aL3384034570L
aL3284633640L
aL2301825719L
aI545951801
aI1511996430
aL3184637045L
aI1713077701
aI1092121327
aL2957430882L
aL2844162087L
aL3380476145L
aI138137860
aL3379018545L
aL2639956476L
aI229965545
aI475205834
aI273742985
aL3259446624L
aL2800432201L
aL3371888471L
aI307264104
aI20292821
aL3111167063L
aI97076063
aI56623782
aI213674372
aL2981104565L
aI18661261
aI358095633
aL3038843250L
aL3275624942L
aL3086155166L
aI198222526
aI1845191160
aI28622853
aI27420416
aI282183111
aI263026064
aL3225017430L
aL3367453899L
aL3216465843L
aL2238692762L
aI1064786978
aI397780216
aI71236467
aL2575449508L
aL3364796043L
aI27351818
aL3258305611L
aL3363413597L
aI179496811
aI286740616
aI567813759
aL3259568347L
aL2407724804L
aI570377908
aL2996440346L
aL3350110492L
aI281951052
aI135767303
aL2570187561L
aL3050428358L
aL3209898082L
aI1911443916
aI171550730
aL3010837787L
aI16728401
aL2533197776L
aI811716426
aI1579371308
aI26372230
aI91547631
aL3344792770L
aL3304873739L
aI885275016
aI269484702
aI460623305
aI20736756
aI266278566
aI738141876
aL3344248245L
aL2320678801L
aI1597397797
aI144382241
aI1215736393
aL3192422588L
aL3298377041L
aI112885234
aI215515408
aI1361698214
aI56902824
aL3219799739L
aI323138766
aL2723696479L
aL3222291459L
aI25412484
aI25589444
aI946439490
aL3056947008L
aI46112754
aL2812184099L
aL3255293539L
aI97399462
aI138248153
aL3253982034L
aI260269432
aI358750258
aI1906073791
aL3321792957L
aI1885804532
aI105700603
aI939351276
aL2942631153L
aL2337210172L
aI280636293
aL3335559503L
aL2358952322L
aL3332655448L
aI371098677
aI39543344
aL3008533566L
aL3244288688L
aL3327958841L
aL3106363282L
aL2445906751L
aI1191655566
aI1531710528
aL3220331802L
aI26885131
aI502873106
aL3219868446L
aI780668762
aI66131806
aI1897156740
aL3092828309L
aL2792773247L
aI1349382846
aI53468949
aI587776539
aL3239888077L
aI352005990
aL2898118440L
aL3226321752L
aI109200080
aL3299929893L
aI465831878
aI1164029497
aL2927960383L
aL2908663679L
aI14770715
aI1903890320
aL2977288260L
aI239176563
aI376953024
aI40108269
aI64074243
aI837407887
aL3238183951L
aL3047920063L
aL2590242073L
aI1530916794
aI6026072
aL2992414321L
aI25366350
aI243395349
aL2820629251L
aI22986054
aL2927488483L
aI907346244
aL2590325786L
aI28573703
aI92796244
aI148089228
aI373452151
aI100767876
aL3146648621L
aL3307633101L
aL2167059254L
aL3225702809L
aI17881816
aI396834863
aI392410566
aL2882013788L
aL3221622116L
aL3232128110L
aL3229606442L
aL3234563899L
aI1347771014
aL3291185675L
aL3303949779L
aI1611708830
aI23368614
aL3000333467L
aI314694555
aL3302993254L
aL2535445292L
aL2878166306L
aI618128847
aI175638835
aL3038549166L
aL2910216895L
aI14986598
aI15281391
aI1697118660
aL3062127810L
aL3104990839L
aI609841269
aI87403396
aI509143692
aI297075373
aL3140887819L
aL2516029806L
aL2960200423L
aL3213496915L
aL3103350108L
aI472426245
aI1954293848
aL2899318001L
aL2532566396L
aI602499898
aI592593832
aL2539478572L
aI154191690
aL3223120218L
aL3222805514L
aL2806977264L
aL3221254818L
aI264696121
aI355931032
aL2667930169L
aI244643016
aI564676602
aL3031821904L
aL2904846354L
aI61023987
aI288281788
aI533762910
aL3249701602L
aL3149305591L
aI55947736
aI36274577
aL3197260052L
aI122142222
aI994245847
aL3086231934L
aL3169353883L
aL3254642543L
aI108021761
aI1268426268
aL2689694834L
aI564595075
aI18814734
aI606742709
aI70028131
aI28370881
aI499202674
aL3241774653L
aI37599351
aI1618402586
aL2513339424L
aL2328196453L
aL3129508695L
aI1377549686
aL3193631899L
aI963315643
aI567826551
aI14860259
aI1252825838
aL2761577487L
aL3105897589L
aI83894447
aI932657108
aI377480316
aI384069048
aI249779000
aI312392334
aL3145727734L
aI379314446
aL2718055023L
aI45906613
aL2984698112L
aI277211908
aI490651205
aL3101783748L
aL3241107429L
aI492248877
aI567616480
aI28971190
aI278673907
aL3184332956L
aL3239924349L
aI1548772068
aI288430647
aI34414425
aI38500239
aI338448134
aI5799022
aL3170451039L
aL2797963762L
aL3183576409L
aL2442046026L
aL3182399478L
aL3184643803L
aL3128972697L
aL2970592346L
aI27397390
aI34537046
aI1718869428
aL3182789661L
aI102938760
aI168883105
aI546388446
aL3224794035L
aL3224697189L
aI76661851
aI15662486
aL3018809793L
aL3156513626L
aL2691777578L
aL3217695219L
aI848199253
aI43867397
aI11424872
aL3017742806L
aL3177456572L
aL3096438374L
aL2801280973L
aI166501881
aL2886678820L
aI497626218
aI317219097
aI92342279
aI33939824
aL3012561618L
aI19003676
aL2781961901L
aI273514824
aL2660406840L
aI386269852
aI23637826
aI1728994934
aL3193818814L
aI211150550
aI712775252
aI133354367
aI35428389
aI1525145665
aL2180123947L
aI272242974
aI1909758506
aL3166098614L
aI212626374
aI21111448
aL2968256134L
aL2422785331L
aL2860923189L
aI570496267
aI240373702
aL2297280528L
aL3165389007L
aL2927932039L
aI626556628
aI5904042
aL2928784496L
aL3171512279L
aL3160180195L
aL2750365010L
aI118337178
aL3149032720L
aL3153813242L
aL2791824993L
aI15315204
aI316583133
aI18977450
aL3145154479L
aL3149612130L
aI38194101
aL3150086823L
aL2165171784L
aI315887594
aL3121242837L
aI383539131
aL2710303866L
aI542788631
aI1128700334
aI127613843
aL3148274274L
aL3148017450L
aL3147241615L
aI1326133188
aI326448893
aL2425953786L
aI931025072
aL2587477320L
aL3151589309L
aI321779478
aI166777730
aL3115139938L
aI443863659
aI9713802
aL2994771401L
aL3082781533L
aL2698421834L
aI14630744
aI1214989724
aL2154736986L
aI91146650
aL2334570114L
aL2985986987L
aI870927559
aI142079818
aL3139660404L
aL3139285682L
aI744212286
aI718212656
aI480219510
aL3010422596L
aI42562486
aI35382865
aL3131397854L
aI83035298
aI835529964
aL3084225748L
aI186483721
aI342568440
aI297604532
aI270592981
aL2911039074L
aI488940372
aL3131270221L
aL3107464080L
aL3122852922L
aI1540902782
aI106804211
aL3124334523L
aI430685734
aI64798468
aI1164880759
aI280287605
aL2965660835L
aI14216123
aI1464473065
aL3112305997L
aI31175481
aL2733325000L
aL2207645172L
aI45415894
aI257340563
aL2826683117L
aI1382627982
aI47421441
aL3116280504L
aI471108758
aL3112190965L
aI316247223
aL2912817584L
aL2790408925L
aL3081352216L
aI189690999
aI1496949854
aL2529961927L
aL3074061530L
aI259056263
aI170411939
aI56683226
aI32396334
aI1533840589
aL3081345050L
aL3111816657L
aI612423772
aL2950059586L
aL3108761529L
aL2963767631L
aI50344501
aL2781318668L
aL3080897930L
aL2781050528L
aI148268103
aI37215608
aL2733896814L
aL2987394058L
aL2957837847L
aI139373116
aI189901963
aL2876224978L
aL3042173895L
aL3088455464L
aI96584361
aI355570345
aL2944508337L
aI320524842
aL2393209027L
aL2330214788L
aI1948020342
aL3077870875L
aL2782741946L
aL3074472590L
aL2690693762L
aI1853092242
aL2409581528L
aL3080700483L
aI983368620
aI1901687076
aI308142636
aI97525080
aI973541394
aI151641455
aL3058855400L
aI622610307
aL2721304442L
aL3041143682L
aL2800726518L
aL2989707616L
aL2457394376L
aI1507639063
aI1598866891
aL3038208674L
aI14232141
aL2962183678L
aI1171804310
aL3023185002L
aL2911920971L
aI933525102
aI50119726
aI82062056
aI272065469
aI891925176
aI319068691
aI115939171
aL2461746907L
aI15814166
aL3024874424L
aI156781724
aL2852989639L
aI30648012
aI75049621
aI53689588
aI77777584
aI274537469
aL2315058284L
aI301744980
aI1200986130
aL2567153430L
aL2823975664L
aI17278975
aL2673760747L
aI34169185
aI1305054547
aL3021314001L
aI25173138
aL2982088181L
aL2741906342L
aI438682472
aI362093910
aI66519512
aI121654986
aI1944177338
aI150301441
aI316519659
aI969619548
aI262993890
aL3019813924L
aI1431443905
aI585390772
aI1138423621
aI14216924
aI1952076517
aL2720106800L
aL3000332775L
aI25414846
aL3010758706L
aI47336979
aI839518783
aI23799829
aI340288597
aI65224093
aL2997341162L
aI1950309330
aI1131555566
aL2363029778L
aI822044000
aL2808701624L
aL2612607522L
aI273232319
aL2709503730L
aL2461907034L
aL2445459474L
aL2388474690L
aL2988005793L
aI136791161
aI1268183557
aL2990320758L
aI1378053337
aL2433600366L
aI17768004
aL2490459883L
aL2987560400L
aL2982013384L
aL2983621878L
aI223348978
aI878385756
aI341663329
aI958733870
aL2326043804L
aL2608446166L
aL2981151811L
aI13137022
aI224778333
aI156940417
aL2350371451L
aI141748686
aI1429955264
aI310354977
aI70851957
aI102246979
aL2293034569L
aI79966812
aI1370869370
aI18501431
aI1530847501
aL2966035846L
aL2961389848L
aI20477352
aL2647222124L
aI611817117
aI16278142
aI68767471
aI114654152
aI607188140
aL2864279753L
aL2171648470L
aL2781284192L
aI24480870
aI314199487
aI188930892
aI805230144
aI159248611
aL2826111308L
aI888020401
aI18992010
aI105946058
aL2933882627L
aI264380745
aI16244529
aI25625411
aL2789601613L
aI40897130
aI252141839
aL2320404222L
aI1540100520
aL2654474978L
aL2541964602L
aL2926115783L
aI252371484
aL2931456756L
aL2159154530L
aI56131409
aL2392841370L
aI16460151
aI584204619
aI1001192245
aL2828816495L
aI285843101
aL2819362954L
aL2451304967L
aI1948758541
aI783912270
aI61243585
aL2587280736L
aL2904098999L
aL2922170503L
aI64328896
aL2526809965L
aL2912303863L
aI178945850
aL2248963120L
aI48829629
aL2698912710L
aL2277330550L
aI27936739
aI29336037
aL2215191067L
aI74413966
aI20700725
aI16194080
aL2186856927L
aI244712325
aI1645705218
aL2200351706L
aI193803066
aI835300243
aI371234597
aI18966371
aL2903203135L
aI40899090
aI1711533198
aL2522689474L
aI48402937
aI31496086
aI131859573
aI298564055
aI7939512
aI35542831
aI216509813
aI283179105
aL2230960259L
aI134616567
aI47963058
aI23188115
aI15185035
aI788320915
aI6843932
aI1077484698
aI394013551
aI612736411
aL2310508036L
aI40183126
aI598479813
aI19937331
aI361344030
aI743892306
aL2318627354L
aI128958510
aI139102346
aI116925316
aI62985754
aI137953541
aI566534065
aI36041716
aI94046339
aL2812158797L
aI380328459
aI1231908607
aI441704746
aI45933208
aI1674376698
aI568744327
aI37406669
aI619645224
aI324901281
aI404908107
aI54738272
aI1890422568
aI797166
aI329454031
aL2340979046L
aI216968692
aI41980012
aI324512375
aI13313912
aI342523337
aI24557396
aI1219689432
aI26473092
aI1061817883
aI267908990
aI20323347
aL2397870085L
aI192963082
aL2152612894L
aI514837546
aI538208312
aI23622423
aI30360763
aL2497814167L
aI22444210
aI398888755
aL2608557701L
aI216502210
aI248945045
aI224873315
aI848226510
aI108390459
aI285650276
aI1059971
aL2633278765L
aI238294964
aI1375790539
aL2837658339L
aI20294170
aI468383797
aI32610024
aI162902236
aI274735484
aI436770737
aI1379519768
aI784071102
aL2625607312L
aI187562248
aI232940007
aI194434580
aI467082958
aI27450620
aI108174268
aI221595495
aI332658636
aI17972648
aI1532159622
aI167430158
aI19040057
aI481448296
aI111946208
aL2844514127L
aI378649195
aI227438139
aI24786192
aI703253041
aI216140526
aI35192440
aI22396075
aI321522383
aI373625664
aI313732949
aI245187800
aI331648405
aI40867956
aI15594158
aI21125275
aI306339614
aL2828964974L
aI15852044
aI420902189
aI207615325
aI546910345
aI581987420
aI603817508
aI43542245
aI330494206
aI425192466
aI425017328
aL2362057360L
aI99014196
aI14270627
aI454286909
aI43017099
aI44288173
aI14311307
aI18555126
aI399058210
aI8937632
aI36039343
aI59153101
aI38103358
aI20466819
aI190527099
aI1383391782
aI16987912
aI9636172
aL2379700903L
aL2360831705L
aI196296812
aI1898961067
aI516253659
aI1229362393
aL2177692076L
aL2377676754L
aI1399664286
aI579114403
aL2905091972L
aI53829677
aI546343638
aI40920101
aI40899610
aI175743717
aI1112887076
aI1960789190
aI324516366
aI1431182287
aL2904841291L
aI1947752124
aL2901028518L
aL2880336616L
aI703092174
aL2298599792L
aI323487376
aI485475104
aI115131431
aI10170982
aL2216285619L
aI1701813770
aI1166656939
aI328673299
aI253021980
aI1668647840
aL2700018842L
aL2179768435L
aL2805516332L
aI1581449490
aI1359980808
aL2681027586L
aI1265061120
aI989411646
aI44243203
aL2409789439L
aL2894144131L
aI373458126
aL2893415299L
aI43254072
aL2543866028L
aL2865547324L
aI57440214
aL2587680230L
aI170647444
aI93866724
aI1568747790
aL2739972932L
aI60419882
aL2168331208L
aI19506987
aI18111493
aI459051859
aI29130296
aL2836952343L
aI630326070
aI1638439164
aI593748767
aI1558870200
aI423588897
aL2230614920L
aI1879355582
aI943805894
aI234838774
aL2866743726L
aI97487983
aL2840252812L
aI250425339
aL2688031591L
aI79050220
aI809312
aL2713834759L
aL2799212862L
aI23776654
aI16904934
aL2480211367L
aI20228233
aI916204982
aI532374319
aI583383887
aI8680442
aI785887310
aI271066814
aI629573379
aI118269391
aI1010238912
aL2377013336L
aI597905589
aI223880931
aI1650879462
aI53434947
aI200515160
aI1895001812
aL2821057683L
aI45642490
aI116271809
aL2851847005L
aI1547503512
aI1398316004
aI83047099
aL2207715150L
aI1068886340
aI935693275
aL2666737873L
aL2568235537L
aI9681052
aL2798693331L
aL2302298804L
aI361733407
aI17386819
aI104424218
aL2360171593L
aI21690812
aI1487885785
aL2682663512L
aI1082865211
aL2610391793L
aL2699985241L
aI34035933
aL2364397537L
aL2568382842L
aL2263595983L
aI1051437492
aL2823746510L
aL2830000465L
aL2361413834L
aI21535166
aI32135630
aL2177533513L
aL2564289037L
aI1099740991
aL2784446317L
aI305277457
aI450837205
aL2616980359L
aL2802001490L
aL2511518101L
aI1102292911
aL2610300944L
aI489885437
aI208369777
aL2761711891L
aI1667447820
aI21392684
aL2579343674L
aI518410497
aL2810092230L
aI444940567
aI301578987
aI99561903
aI8071902
aL2343022050L
aI517808265
aL2806154838L
aI316670074
aL2777679216L
aL2687537033L
aL2493019890L
aI962662590
aL2674325750L
aI21154839
aI95943762
aI79213730
aL2333836694L
aL2545305139L
aI7630342
aI1510731678
aI57331300
aI1675827913
aI522794267
aI1694311884
aI886882542
aI14574802
aI276220345
aI561655444
aI61608747
aL2202064120L
aL2572132080L
aI586635398
aI1069931480
aI30349066
aI312871730
aI1903142576
aI1634042664
aI103143089
aI14855696
aI359410806
aI137796394
aL2751750139L
aI1284257707
aL2415855931L
aL2313196626L
aL2737179210L
aL2731182591L
aI795932042
aI333672211
aI1947089696
aL2182799412L
aI1917163806
aI83004016
aI39995364
aL2218519298L
aI126783522
aI45930775
aI872423437
aI77725938
aL2370419636L
aI1604707010
aI588559501
aI209563367
aI20341998
aI820457726
aI26941928
aI1630255716
aI564705230
aI291661544
aI58525147
aL2473577568L
aI1669933141
aL2467702285L
aL2547921596L
aI24374097
aL2447341464L
aL2363004156L
aI14198769
aL2168904518L
aI921551695
aI188525525
aI1917684800
aI262749118
aI94984926
aI1560548948
aI57497901
aI148418872
aL2733118665L
aL2386445887L
aI17018005
aI1643159077
aI41417878
aI283616325
aI142396796
aI169634370
aI1643123766
aI145600904
aI15377115
aI21689176
aI15175819
aI2147401
aI14505871
aI101756062
aI784979538
aI30197540
aI1732624986
aI1400098081
aL2399728434L
aI615927039
aI123602264
aI48771393
aL2654916067L
aI15695513
aI58174695
aI32789366
aI378371206
aI225103893
aI51271929
aL2515746120L
aI31891798
aI64089693
aL2395268660L
aL2421943338L
aL2396051509L
aI50481214
aL2661389730L
aI280826651
aI20119344
aI16248319
aI15177871
aL2316901339L
aI321309883
aI258066975
aI357895797
aL2428604888L
aL2581663284L
aI511026754
aI349249164
aI1368959768
aL2563215865L
aI69526502
aL2447773698L
aI159111501
aI37877645
aI1673421552
aI54800576
aL2678073229L
aL2186630097L
aI71165327
aL2464039092L
aL2563303782L
aI387181116
aL2199824470L
aL2542781642L
aI71513606
aI443223357
aI1187793236
aI36668920
aI12601142
aL2412814124L
aI188013000
aI366812553
aI27291058
aI985186471
aI433137670
aI19053307
aI197464628
aI91942071
aI1239521989
aI1904593968
aI260340277
aI415890251
aI26391721
aI323918881
aI164386441
aL2668893469L
aI35767916
aL2325103278L
aI19478383
aI32187100
aI182521551
aI43977242
aI973705897
aI65582754
aI1725368329
aL2540852360L
aL2284550540L
aI49269819
aL2389208149L
aL2566200253L
aL2269915735L
aI831500821
aI431689234
aL2459745396L
aL2520504642L
aI15563449
aL2566782606L
aI562171576
aI517168840
aL2505126759L
aI100277835
aL2281321495L
aI139988522
aL2396489370L
aI444513211
aI1975778077
aI254611370
aI282418609
aI709430142
aL2662814337L
aI122084689
aL2598927391L
aL2163057708L
aI973710457
aI69080516
aI303965102
aI973546363
aL2235189276L
aL2611588590L
aL2385217021L
aI400964160
aI20854494
aI50294938
aL2613310459L
aI80728499
aL2151115525L
aI182184668
aI29015085
aL2552979565L
aI604281093
aI56293707
aI101107997
aI199097869
aL2488883942L
aL2399928514L
aI11108762
aI36375798
aI361980867
aI521733249
aI18936284
aL2572777560L
aI116766949
aI15645871
aI244769824
aL2641052619L
aI436795156
aI528807413
aI29024224
aI97383592
aI20515090
aI15274836
aI40798442
aI893710010
aL2384313595L
aL2384332080L
aL2401928594L
aL2430980629L
aI1543437272
aI69681766
aI578321883
aI102122113
aI568765221
aI571335050
aL2584720087L
aI136346386
aI625066162
aI71796971
aI33495086
aI1549189968
aI17538349
aL2358113832L
aI147499293
aI16275044
aL2626595445L
aL2450454150L
aL2583651986L
aI30249176
aI42135232
aI1694936220
aL2575110402L
aI399183625
aI377169470
aI11956192
aI973543363
aI115679415
aL2558346746L
aI226115922
aI132616802
aI248466381
aI1515098156
aI1512267163
aI13339612
aL2558205630L
aL2556502700L
aI973705207
aI1887009079
aI973714687
aL2484594583L
aI172860619
aI159282289
aL2495332741L
aI172836249
aI17486092
aI453548744
aI17393362
aI16027532
aI1633669044
aL2421568998L
aI256628776
aL2322941196L
aI55364253
aI740789400
aI406285939
aL2467924206L
aL2371375765L
aI1847209332
aI493609953
aL2274698472L
aI1870096807
aI1131349116
aI21001013
aI23318968
aL2408101196L
aL2215342812L
aL2197214029L
aI81195356
aL2510897581L
aI539541703
aL2326647137L
aI1049460835
aL2499229069L
aL2497045194L
aI473760147
aL2391432626L
aL2429288503L
aI11636352
aI61558281
aI36396364
aI553287053
aI49050047
aL2382560148L
aI548577333
aI44029293
aL2456801359L
aI259689332
aI139463483
aL2457540278L
aL2510780409L
aL2433268352L
aL2395596672L
aI1662175640
aI952230764
aI1538224236
aI519917075
aI232666084
aI453327099
aI362423374
aI400706268
aI14608284
aL2349801090L
aI20427949
aI207323988
aI1183685479
aI986106360
aL2345247236L
aI805415876
aL2309593464L
aI32896052
aL2195935375L
aI55166712
aI262891245
aL2296501071L
aL2386301736L
aI21354868
aI53565035
aI143218637
aL2149877280L
aL2414234928L
aL2439781206L
aL2357359778L
aI899944626
aI1442178204
aI1217773032
aI238524126
aI281050415
aI107646745
aL2206837615L
aL2187356088L
aI456177891
aI60170739
aI1412980236
aI1927831368
aI463100829
aL2444460961L
aL2298871333L
aL2457566034L
aI35120520
aI33906521
aI1061291688
aI73422571
aI839740526
aI23003843
aI377149306
aL2263623228L
aI1028386544
aI1233134340
aI16127048
aL2448542214L
aI560021456
aL2411605056L
aI622090612
aI451490037
aI571228605
aI1523927052
aI161128380
aI112874216
aI1549705375
aI16037008
aI103106691
aI144927740
aI57715740
aI31648183
aL2307603415L
aL2259222409L
aL2456634960L
aI860037217
aI209330315
aI1332929491
aI44217028
aI628859343
aL2419591040L
aI773858041
aL2431803428L
aI29243369
aI15932734
aI173115840
aI727796012
aL2486719727L
aL2341370466L
aL2345934080L
aI768900236
aL2247692821L
aL2375971488L
aL2310111968L
aI16548435
aI1093261778
aI888149443
aI441970965
aL2362110421L
aL2257287968L
aI27702107
aL2294114401L
aI33964397
aI799529564
aI1581413814
aI21567887
aI1645759519
aI186468322
aL2318782166L
aI1052684484
aI127967449
aI500923353
aI376993335
aI14626496
aI43111757
aL2240684586L
aL2338679082L
aL2388991652L
aL2211867912L
aI627498274
aL2434929872L
aL2260848139L
aI1898649980
aI575927490
aI331787759
aI29488039
aI15689652
aI49503964
aI22150874
aI83704207
aL2191697336L
aI398258984
aI569209566
aI1542400573
aI1393438172
aI18408384
aI1451169132
aI1544219917
aL2313902311L
aasS'obj'
p7
ccopy_reg
_reconstructor
p8
(ctweepy.models
User
p9
c__builtin__
object
p10
Ntp11
Rp12
(dp13
S'follow_request_sent'
p14
I00
sS'has_extended_profile'
p15
I00
sS'profile_use_background_image'
p16
I01
sS'profile_sidebar_fill_color'
p17
VDDEEF6
p18
sS'id'
p19
L2421030156L
sS'verified'
p20
I00
sS'entities'
p21
(dp22
Vurl
p23
(dp24
Vurls
p25
(lp26
(dp27
g23
Vhttp://t.co/2RK5vDr0Ta
p28
sVindices
p29
(lp30
I0
aI22
asVexpanded_url
p31
Vhttp://www.suredividend.com/
p32
sVdisplay_url
p33
Vsuredividend.com
p34
sassVdescription
p35
(dp36
g25
(lp37
sssS'profile_image_url_https'
p38
Vhttps://pbs.twimg.com/profile_images/451100295884337152/xntOIrqW_normal.jpeg
p39
sS'_json'
p40
(dp41
Vfollow_request_sent
p42
I00
sVhas_extended_profile
p43
I00
sVprofile_use_background_image
p44
I01
sVdefault_profile_image
p45
I00
sVid
p46
L2421030156L
sVprofile_background_image_url_https
p47
Vhttps://pbs.twimg.com/profile_background_images/451103174464520193/6mhg63UU.jpeg
p48
sVverified
p49
I00
sVprofile_text_color
p50
V333333
p51
sVprofile_image_url_https
p52
g39
sVprofile_sidebar_fill_color
p53
g18
sVentities
p54
g22
sVfollowers_count
p55
I1991
sVprofile_sidebar_border_color
p56
VFFFFFF
p57
sVid_str
p58
V2421030156
p59
sVprofile_background_color
p60
V3F8471
p61
sVlisted_count
p62
I56
sVstatus
p63
(dp64
Vcontributors
p65
NsVtruncated
p66
I00
sVtext
p67
VInteresting Hormel Foods fact:\u000aEPS increased in 27 of last 30 years\u000a\u000aSee more about $HRL at:\u000ahttps://t.co/F1HXY3cv04
p68
sVin_reply_to_status_id
p69
Nsg46
L666611300664016896L
sVfavorite_count
p70
I0
sVsource
p71
V<a href="http://bufferapp.com" rel="nofollow">Buffer</a>
p72
sVretweeted
p73
I00
sVcoordinates
p74
Nsg54
(dp75
Vsymbols
p76
(lp77
(dp78
g29
(lp79
I84
aI88
asg67
VHRL
p80
sasVuser_mentions
p81
(lp82
sVhashtags
p83
(lp84
sg25
(lp85
(dp86
g23
Vhttps://t.co/F1HXY3cv04
p87
sg29
(lp88
I93
aI116
asg31
Vhttp://buff.ly/1kcYgSD
p89
sg33
Vbuff.ly/1kcYgSD
p90
sassVin_reply_to_screen_name
p91
Nsg58
V666611300664016896
p92
sVretweet_count
p93
I0
sVin_reply_to_user_id
p94
NsVfavorited
p95
I00
sVgeo
p96
NsVin_reply_to_user_id_str
p97
NsVpossibly_sensitive
p98
I00
sVlang
p99
Ven
p100
sVcreated_at
p101
VTue Nov 17 13:38:13 +0000 2015
p102
sVin_reply_to_status_id_str
p103
NsVplace
p104
NssVis_translation_enabled
p105
I00
sVutc_offset
p106
I-21600
sVstatuses_count
p107
I2409
sg35
VSure Dividend finds high quality dividend growth stocks for long-term investors with The 8 Rules of Dividend Investing.
p108
sVfriends_count
p109
I1986
sVlocation
p110
VTexas
p111
sVprofile_link_color
p112
VAAB6B2
p113
sVprofile_image_url
p114
Vhttp://pbs.twimg.com/profile_images/451100295884337152/xntOIrqW_normal.jpeg
p115
sVfollowing
p116
I00
sVgeo_enabled
p117
I00
sVprofile_banner_url
p118
Vhttps://pbs.twimg.com/profile_banners/2421030156/1398360618
p119
sVprofile_background_image_url
p120
Vhttp://pbs.twimg.com/profile_background_images/451103174464520193/6mhg63UU.jpeg
p121
sVscreen_name
p122
VSureDividend
p123
sg99
Ven
p124
sVprofile_background_tile
p125
I00
sVfavourites_count
p126
I81
sVname
p127
VBen Reynolds
p128
sVnotifications
p129
I00
sg23
Vhttp://t.co/2RK5vDr0Ta
p130
sg101
VMon Mar 31 20:28:19 +0000 2014
p131
sVcontributors_enabled
p132
I00
sVtime_zone
p133
VCentral Time (US & Canada)
p134
sVprotected
p135
I00
sVdefault_profile
p136
I00
sVis_translator
p137
I00
ssS'contributors_enabled'
p138
I00
sS'profile_text_color'
p139
g51
sS'followers_count'
p140
I1991
sS'profile_sidebar_border_color'
p141
g57
sS'id_str'
p142
g59
sS'default_profile_image'
p143
I00
sS'listed_count'
p144
I56
sS'status'
p145
g8
(ctweepy.models
Status
p146
g10
Ntp147
Rp148
(dp149
S'favorited'
p150
I00
sS'contributors'
p151
NsS'truncated'
p152
I00
sS'text'
p153
VInteresting Hormel Foods fact:\u000aEPS increased in 27 of last 30 years\u000a\u000aSee more about $HRL at:\u000ahttps://t.co/F1HXY3cv04
p154
sS'source_url'
p155
Vhttp://bufferapp.com
p156
sS'possibly_sensitive'
p157
I00
sS'in_reply_to_status_id'
p158
NsS'geo'
p159
Nsg19
L666611300664016896L
sS'favorite_count'
p160
I0
sS'lang'
p161
g100
sg21
g75
sS'created_at'
p162
cdatetime
datetime
p163
(S'\x07\xdf\x0b\x11\r&\r\x00\x00\x00'
p164
tp165
Rp166
sg40
g64
sS'coordinates'
p167
NsS'in_reply_to_user_id_str'
p168
NsS'source'
p169
VBuffer
p170
sS'in_reply_to_status_id_str'
p171
NsS'in_reply_to_screen_name'
p172
Nsg142
g92
sS'retweeted'
p173
I00
sS'place'
p174
NsS'retweet_count'
p175
I0
sS'in_reply_to_user_id'
p176
NsbsS'is_translation_enabled'
p177
I00
sS'utc_offset'
p178
I-21600
sS'statuses_count'
p179
I2409
sS'description'
p180
g108
sS'friends_count'
p181
I1986
sS'location'
p182
g111
sS'profile_link_color'
p183
g113
sS'profile_image_url'
p184
g115
sS'notifications'
p185
I00
sS'geo_enabled'
p186
I00
sS'profile_background_color'
p187
g61
sS'profile_banner_url'
p188
g119
sS'profile_background_image_url'
p189
g121
sS'screen_name'
p190
g123
sg161
g124
sg1
I00
sS'profile_background_tile'
p191
I00
sS'favourites_count'
p192
I81
sS'name'
p193
g128
sS'url'
p194
g130
sg162
g163
(S'\x07\xde\x03\x1f\x14\x1c\x13\x00\x00\x00'
p195
tp196
Rp197
sS'profile_background_image_url_https'
p198
g48
sS'time_zone'
p199
g134
sS'protected'
p200
I00
sS'default_profile'
p201
I00
sS'is_translator'
p202
I00
sbs.