(dp0
S'following'
p1
(lp2
(lp3
I18992010
aI486476991
aL3170663495L
aI23881645
aI480452921
aI622111302
aL2409554736L
aI709430142
aI14250809
aI1717291
aI1000591
aI7517052
aI951555816
aL2855633663L
aL2281642087L
aI21379577
aL2823428100L
aL2526314384L
aI324077186
aI16359602
aL2429516732L
aI1439131602
aI619775466
aI23676481
aI604871206
aL2216603104L
aI384116532
aI372497502
aI15498129
aI262653256
aI977822118
aI225071408
aI1925346716
aI167216567
aI18297586
aI120325121
aI34713362
aI3108351
aI5392522
aI742143
aI5988062
aI20402945
aI800972
aI18069591
aI12495812
aI14886375
aasS'followers'
p4
(lp5
(lp6
I424340222
aL2611265515L
aL2367226574L
aI349264062
aI1593848778
aI1098969895
aI621630494
aL4109685195L
aL4125689723L
aI70571000
aI163139002
aL2733052645L
aI127564683
aI203621245
aI449085482
aL4085376433L
aI452963282
aL4132397657L
aI48486244
aI16352470
aI218229086
aL4075778542L
aL3064230009L
aI433664446
aI302362333
aL2614618140L
aI23564390
aI1043664674
aL3276896485L
aI89312524
aI25239141
aL3309232460L
aI431145635
aI64842579
aL4012442417L
aI243061273
aI1323987834
aL3668092817L
aI753647960
aL2314289604L
aI77285985
aL3028256061L
aL3976357879L
aI1513488878
aL3685336515L
aI198869640
aI14772617
aI911318336
aI456341924
aI27725616
aI136920043
aL2864999296L
aL3319136443L
aI740802920
aL3866166254L
aI605138580
aL3820153714L
aL2662370076L
aI1117687584
aI1616185404
aL2178628141L
aI17561554
aI1581413814
aI298740122
aI1176002924
aI1038575556
aI588463085
aI280346260
aI141627910
aI456647812
aL2697969097L
aL2838637524L
aI414324817
aL3709788974L
aL2608987876L
aI19373243
aL2749689503L
aI33585862
aI1241817439
aI152144405
aL2351846976L
aI18655503
aL2381457498L
aI969317377
aL3235563915L
aL3485492116L
aI1571456736
aL2863199041L
aI15315204
aI21786196
aL2544098874L
aI228986228
aI978569594
aI1664807874
aI37626665
aI28798697
aL3152920558L
aI283252587
aL2272039227L
aI309901749
aL2523807409L
aL3507528376L
aI49538188
aL3492684623L
aL3437889585L
aI147881807
aI265122933
aL2761715796L
aL2768339684L
aI360330785
aI1967056220
aI218001988
aL2265524083L
aI348263213
aL2420774935L
aL3432993909L
aI1003102549
aI559940893
aL2753515041L
aL2156578408L
aI91114089
aI1923687282
aL3316187335L
aL3426119416L
aI58099525
aI154191690
aL3297495426L
aI248821490
aI733893548
aI96530392
aI35359528
aI15045793
aI92527712
aI274218971
aI178987678
aL2973632079L
aL3254524106L
aI234365083
aL3397600809L
aI344717568
aL3299871217L
aI435500176
aI445591476
aI6904812
aL2179084381L
aI17867952
aI466071331
aL2426889916L
aI720865261
aI1310819558
aI123080587
aI1692182894
aI328200599
aI20006310
aI42625593
aI38448277
aL2751257820L
aL3284574750L
aI520678678
aL2908633725L
aL2915952407L
aI1895699809
aL3354875225L
aL3380499813L
aL3075665944L
aI1410801090
aI395483063
aI1845191160
aI179626151
aL2406860047L
aI286055665
aI880850972
aI46099094
aI1305191262
aI269545756
aI1086871520
aI20680706
aL3272539993L
aI488587268
aI58990864
aI84926147
aL3246483205L
aL2987619584L
aI572298660
aL2882498617L
aL3266661871L
aI445196649
aI1032276320
aL2687827285L
aI1539194660
aI438772394
aL2316435869L
aL3085627927L
aI1957724317
aL3033087029L
aI1397962884
aI65238964
aL2754530456L
aI430376445
aI19046428
aL3241655621L
aL3231998629L
aI620913810
aI285362838
aL3229242288L
aI39835551
aL3325324991L
aL3298704652L
aI98167955
aL2938944359L
aI336268373
aI436392821
aL3096837242L
aI1893653617
aI1038038335
aI432797586
aL2991546292L
aL2192399227L
aI1370332508
aL3092515223L
aI306454747
aL2845776194L
aI19189285
aI38120979
aL3194724283L
aI397587258
aI23608407
aL2182850882L
aI22729126
aL3233796785L
aI840368034
aI110577655
aI427615273
aI314615747
aL3223319208L
aI34006043
aI468040901
aI798914238
aI54638487
aL3293227222L
aL3027669922L
aI880539740
aI87962403
aI1614086700
aI597799971
aI14886375
aI527305674
aI229876197
aL2248090669L
aI46004419
aI245294597
aI21969829
aL2474127336L
aL3185607888L
aI73127375
aI517840629
aI368631523
aI17553541
aI219844524
aI492248877
aI1347709050
aL2571145477L
aL2773591949L
aL2850254552L
aI211316225
aI1534769472
aI14387949
aI881608580
aI97983563
aI614521330
aL2936329068L
aL2312311087L
aI20133278
aL3031394369L
aL3012561618L
aI323811966
aI22804119
aI244214676
aL2212803482L
aI904968246
aL3170663495L
aI303531344
aI248927834
aI525993092
aI6313972
aI47247213
aL2509685182L
aL3152338888L
aL3060323513L
aI24052737
aI390946549
aI763008704
aL3141570191L
aL2942631153L
aI17855488
aL2424218279L
aI1849056762
aI67529561
aI230610057
aI137480512
aL3020352701L
aI15586536
aL2924276042L
aI155611737
aL3066335590L
aI91816024
aL3119486692L
aL3115025566L
aI937208143
aL2844067073L
aI142003022
aI81991982
aI32576401
aI520791914
aI34825610
aI785477377
aL3097944507L
aI356115416
aI81001553
aI1286540352
aI887743975
aL2948666369L
aI534767102
aL3018163077L
aL2833590852L
aL2400480938L
aI23953972
aL2234499834L
aI217159658
aL2776055819L
aI988844834
aI350989057
aL2430846618L
aL2955910459L
aL2405378612L
aI47499541
aI14181130
aI24057286
aI1546709503
aL2939839209L
aI287885364
aI35643668
aL2832981087L
aL2830974222L
aI22052792
aI19954521
aL2873586055L
aI23205091
aI386182580
aI16322927
aI257652150
aL2960124086L
aI591888435
aI524911866
aI344281872
aI18835276
aI169676997
aL2787361514L
aL3018635971L
aL2728646075L
aL2982013384L
aL3027458903L
aI297061487
aL2741742465L
aI23511286
aI133402065
aI195580843
aI315306053
aL2341347170L
aI478815597
aI171519580
aI162861278
aL2793036165L
aI136319558
aI915825637
aI61219678
aI333674559
aI874419354
aL2988434876L
aI374871615
aL2546555172L
aI9412572
aI33769277
aL2279206507L
aL2980206236L
aI129055885
aL2401899787L
aI1418946691
aI116570604
aL2680619310L
aI57452454
aI23992981
aI979253994
aI1445168174
aI800972
aI1587490159
aI124888622
aI389278053
aI362405684
aL2855140102L
aL2886999940L
aI565329611
aI825818250
aL2383861202L
aI1406887880
aI31369038
aI108141424
aL2942288951L
aL2815979137L
aI237481280
aI358167834
aI20069377
aL2448881998L
aL2613309558L
aI42748541
aI42137514
aI1275929029
aI204139070
aI36511815
aI21880032
aI250317700
aI96361062
aI569302303
aI213111914
aI45584673
aI16975907
aI634637068
aL2845552630L
aI569261545
aL2924777053L
aL2574157186L
aI101588305
aL2904098999L
aI275335940
aL2325424148L
aI72097799
aI52252883
aL2904841357L
aL2914045927L
aL2897116335L
aI23881645
aI269742622
aI842176969
aL2909469884L
aI480452921
aI558100763
aI742826664
aI30399948
aI1397616997
aI256821911
aI36293963
aI1897868282
aL2903638658L
aI40549205
aI178130011
aI15439229
aI165966063
aI200914600
aL2417993377L
aI709430142
aL2409554736L
aI622111302
aI21946400
aI318689332
aL2855633663L
aL2281642087L
aI21379577
aL2823428100L
aI324077186
aI740896050
aI135397526
aI23676481
aI93574154
aI604871206
aI372497502
aI28622119
aI361655469
aI1439131602
aI1925346716
aI225071408
aI262653256
aI18297586
aI12495812
aasS'obj'
p7
ccopy_reg
_reconstructor
p8
(ctweepy.models
User
p9
c__builtin__
object
p10
Ntp11
Rp12
(dp13
S'follow_request_sent'
p14
NsS'has_extended_profile'
p15
I00
sS'profile_use_background_image'
p16
I01
sS'profile_sidebar_fill_color'
p17
VDDEEF6
p18
sS'id'
p19
L2422703600L
sS'verified'
p20
I00
sS'entities'
p21
(dp22
Vurl
p23
(dp24
Vurls
p25
(lp26
(dp27
g23
Vhttp://t.co/ID5ktGHRcS
p28
sVindices
p29
(lp30
I0
aI22
asVexpanded_url
p31
Vhttp://www.SwingTradeBot.com
p32
sVdisplay_url
p33
VSwingTradeBot.com
p34
sassVdescription
p35
(dp36
g25
(lp37
sssS'profile_image_url_https'
p38
Vhttps://pbs.twimg.com/profile_images/512420545954979840/nf8LWtFD_normal.jpeg
p39
sS'_json'
p40
(dp41
Vfollow_request_sent
p42
NsVhas_extended_profile
p43
I00
sVprofile_use_background_image
p44
I01
sVdefault_profile_image
p45
I00
sVid
p46
L2422703600L
sVprofile_background_image_url_https
p47
Vhttps://abs.twimg.com/images/themes/theme1/bg.png
p48
sVverified
p49
I00
sVprofile_text_color
p50
V333333
p51
sVprofile_image_url_https
p52
g39
sVprofile_sidebar_fill_color
p53
g18
sVentities
p54
g22
sVfollowers_count
p55
I483
sVprofile_sidebar_border_color
p56
VC0DEED
p57
sVid_str
p58
V2422703600
p59
sVprofile_background_color
p60
VC0DEED
p61
sVlisted_count
p62
I28
sVstatus
p63
(dp64
Vcontributors
p65
NsVtruncated
p66
I00
sVtext
p67
VScan results - Expansion Pivot Sell Setup today: $HLT $EA $IMGN $LBTYK $LBTYA $ADXS ... https://t.co/Crn0uPxIda
p68
sVin_reply_to_status_id
p69
Nsg46
L666393087653093376L
sVfavorite_count
p70
I0
sVsource
p71
V<a href="http://swingtradebot.com/" rel="nofollow">SwingTradeBotDotCom</a>
p72
sVretweeted
p73
I00
sVcoordinates
p74
Nsg54
(dp75
Vsymbols
p76
(lp77
(dp78
g29
(lp79
I49
aI53
asg67
VHLT
p80
sa(dp81
g29
(lp82
I54
aI57
asg67
VEA
p83
sa(dp84
g29
(lp85
I58
aI63
asg67
VIMGN
p86
sa(dp87
g29
(lp88
I64
aI70
asg67
VLBTYK
p89
sa(dp90
g29
(lp91
I71
aI77
asg67
VLBTYA
p92
sa(dp93
g29
(lp94
I78
aI83
asg67
VADXS
p95
sasVuser_mentions
p96
(lp97
sVhashtags
p98
(lp99
sg25
(lp100
(dp101
g23
Vhttps://t.co/Crn0uPxIda
p102
sg29
(lp103
I88
aI111
asg31
Vhttp://swingtradebot.com/events/53/equities?selected_date=2015-11-16
p104
sg33
Vswingtradebot.com/events/53/equi\u2026
p105
sassVin_reply_to_screen_name
p106
Nsg58
V666393087653093376
p107
sVretweet_count
p108
I0
sVin_reply_to_user_id
p109
NsVfavorited
p110
I00
sVgeo
p111
NsVin_reply_to_user_id_str
p112
NsVpossibly_sensitive
p113
I00
sVlang
p114
Ven
p115
sVcreated_at
p116
VMon Nov 16 23:11:07 +0000 2015
p117
sVin_reply_to_status_id_str
p118
NsVplace
p119
NssVis_translation_enabled
p120
I00
sVutc_offset
p121
NsVstatuses_count
p122
I10571
sg35
VSwing Trade Bot was created to help you stay on top of the market. It helps you find entries as well as exits.
p123
sVfriends_count
p124
I46
sVlocation
p125
V
p126
sVprofile_link_color
p127
V0084B4
p128
sVprofile_image_url
p129
Vhttp://pbs.twimg.com/profile_images/512420545954979840/nf8LWtFD_normal.jpeg
p130
sVfollowing
p131
NsVgeo_enabled
p132
I00
sVprofile_background_image_url
p133
Vhttp://abs.twimg.com/images/themes/theme1/bg.png
p134
sVscreen_name
p135
VSwingTradeBot
p136
sg114
Ven
p137
sVprofile_background_tile
p138
I00
sVfavourites_count
p139
I21
sVname
p140
VSwingTradeBot
p141
sVnotifications
p142
Nsg23
Vhttp://t.co/ID5ktGHRcS
p143
sg116
VTue Apr 01 21:39:15 +0000 2014
p144
sVcontributors_enabled
p145
I00
sVtime_zone
p146
NsVprotected
p147
I00
sVdefault_profile
p148
I01
sVis_translator
p149
I00
ssS'contributors_enabled'
p150
I00
sS'profile_text_color'
p151
g51
sS'followers_count'
p152
I483
sS'profile_sidebar_border_color'
p153
g57
sS'id_str'
p154
g59
sS'default_profile_image'
p155
I00
sS'listed_count'
p156
I28
sS'status'
p157
g8
(ctweepy.models
Status
p158
g10
Ntp159
Rp160
(dp161
S'favorited'
p162
I00
sS'contributors'
p163
NsS'truncated'
p164
I00
sS'text'
p165
g68
sS'source_url'
p166
Vhttp://swingtradebot.com/
p167
sS'possibly_sensitive'
p168
I00
sS'in_reply_to_status_id'
p169
NsS'geo'
p170
Nsg19
L666393087653093376L
sS'favorite_count'
p171
I0
sS'lang'
p172
g115
sg21
g75
sS'created_at'
p173
cdatetime
datetime
p174
(S'\x07\xdf\x0b\x10\x17\x0b\x07\x00\x00\x00'
p175
tp176
Rp177
sg40
g64
sS'coordinates'
p178
NsS'in_reply_to_user_id_str'
p179
NsS'source'
p180
VSwingTradeBotDotCom
p181
sS'in_reply_to_status_id_str'
p182
NsS'in_reply_to_screen_name'
p183
Nsg154
g107
sS'retweeted'
p184
I00
sS'place'
p185
NsS'retweet_count'
p186
I0
sS'in_reply_to_user_id'
p187
NsbsS'is_translation_enabled'
p188
I00
sS'utc_offset'
p189
NsS'statuses_count'
p190
I10571
sS'description'
p191
g123
sS'friends_count'
p192
I46
sS'location'
p193
g126
sS'profile_link_color'
p194
g128
sS'profile_image_url'
p195
g130
sS'notifications'
p196
NsS'geo_enabled'
p197
I00
sS'profile_background_color'
p198
g61
sS'profile_background_image_url'
p199
g134
sS'screen_name'
p200
g136
sg172
g137
sg1
I00
sS'profile_background_tile'
p201
I00
sS'favourites_count'
p202
I21
sS'name'
p203
g141
sS'url'
p204
g143
sg173
g174
(S"\x07\xde\x04\x01\x15'\x0f\x00\x00\x00"
p205
tp206
Rp207
sS'profile_background_image_url_https'
p208
g48
sS'time_zone'
p209
NsS'protected'
p210
I00
sS'default_profile'
p211
I01
sS'is_translator'
p212
I00
sbs.