(dp0
S'following'
p1
(lp2
(lp3
I1924996693
aL3279056811L
aI123772619
aI120470151
aI377708593
aI1289495293
aL2183816041L
aI50243741
aI1536791610
aI239411196
aI507026258
aI271292659
aI5625972
aI18775362
aI364374684
aL2911000602L
aI54829997
aI468229219
aI31257292
aI54951339
aI166739404
aI1098875150
aI35509119
aL2172228237L
aI133880286
aI102364880
aI631618625
aI368973778
aI1621318627
aI433114839
aI433585845
aI499271809
aI743662538
aL2465097223L
aI60023642
aI40535534
aI40322623
aI314476480
aI289030003
aI250205792
aI1656509761
aL2409197628L
aI165832449
aI51996758
aI473099336
aL2495825948L
aI16004376
aI47993676
aI443216748
aI76934288
aL2755972186L
aI243742269
aI14763734
aI181395652
aI211583400
aI602323714
aI207633146
aI193908569
aI1370308412
aL2457174926L
aI19697415
aI863635406
aI129386394
aI1862432078
aL2190632757L
aL2556602405L
aL2238359502L
aI1687200684
aI278722542
aI18839785
aI130104041
aL2574232910L
aL2586138522L
aI187815786
aI388919421
aL2352562980L
aI38795060
aI287885364
aI32473894
aI46964510
aI48472976
aI85997632
aI88625281
aI57399689
aI89146039
aI90373305
aI99061494
aI100791055
aI101474491
aI103242279
aI155616711
aI155815961
aI214795206
aI451836992
aI2232581
aI34239734
aI75023823
aI1109570484
aI60047667
aL2382642890L
aL2385537276L
aI1237108867
aI1364729208
aL2745437097L
aL2566188325L
aI44404774
aL2789032640L
aI463100829
aI19405407
aI709430142
aI112057151
aL2354135946L
aI588397025
aL2445382852L
aI179330403
aI546355411
aL2484732544L
aI371969412
aI188199894
aI34837057
aL2413510962L
aI56304605
aI1649036233
aI254228322
aI14119412
aI125768921
aL2519254622L
aI575927490
aL2391775315L
aI14802885
aI14216123
aL2733002275L
aI608325855
aI581221150
aI57928790
aI56631494
aI183230911
aI546430284
aI304658938
aI10484562
aI586893699
aL2493653143L
aI17890396
aI1514674154
aI171572882
aI132520578
aI89447929
aI7563792
aI431429137
aI28665877
aI1308512629
aI78971620
aI82615175
aL2363229181L
aI21778391
aI20106796
aI171987009
aI511970896
aL2178679596L
aI143306758
aI29951362
aI38479920
aI42573217
aI14120922
aI594009101
aI586671909
aI468479147
aI34036028
aI436292177
aI443215941
aI18948541
aI26053643
aI113897988
aI6480682
aI424450965
aI43254421
aI26005889
aI55117855
aI115485051
aI90765991
aI25181711
aI425204306
aI19562228
aI259392555
aI407977463
aI39706984
aI318362368
aI44039298
aI15439395
aI15190884
aI54027989
aI90420314
aI69382909
aI70903729
aI15175553
aI51376979
aI90646796
aI10685262
aI15066271
aI42826708
aI50393960
aI24705126
aI37034483
aI26191233
aI61110182
aI51067201
aasS'followers'
p4
(lp5
(lp6
I15220930
aI118325742
aI1964598974
aI121218651
aI58800236
aL2945159577L
aL3064867071L
aL3777825854L
aL2881063456L
aL3088933611L
aL3399990311L
aL4147237933L
aI1638493381
aI90970076
aI316268049
aL2333714622L
aL3022408316L
aL3050130483L
aL3984267617L
aL3279056811L
aL4156455443L
aI316157014
aI1870123477
aL4179661392L
aI396999574
aI315802097
aI316122649
aL3733014740L
aI316352523
aL4121533515L
aI981236256
aL2679153780L
aL3117362596L
aI1051076034
aI310354165
aI210153565
aL2246560875L
aL2384024775L
aL3048150586L
aL3386657435L
aI1670698730
aI362721731
aI1924310023
aI1923926642
aL2148745149L
aI121158213
aI1297100576
aI485772084
aI329770518
aI29521136
aI976592376
aL2164632236L
aI1847308628
aL2599003902L
aI250317700
aL4059189147L
aL2930570791L
aI240922060
aI127967449
aL3917196824L
aI597799971
aL3312813108L
aI1246523395
aI1899574555
aI34567382
aI348892768
aI385159492
aL3521844133L
aL3030906803L
aL3762489021L
aI259649352
aI14119412
aI316162444
aL3351750519L
aI1861822034
aI123772619
aL2781050528L
aI15897179
aI41044925
aL2907935667L
aI167262097
aL3018809793L
aI122637940
aI74654303
aL3930329177L
aL3858689894L
aI383927121
aL3051052712L
aI316132577
aL3241356683L
aI476362131
aL3436305432L
aL2484513824L
aL2456193444L
aL3153287540L
aI363657737
aI631618625
aI197013079
aL3028191174L
aI203981879
aI1955493762
aL2172228237L
aI361875964
aL2928497281L
aI18209568
aL2755972186L
aI165832449
aI1099388384
aL2760598079L
aI1370308412
aI112057151
aI1649036233
aI709430142
aI575927490
aI463100829
aI608325855
aL2789032640L
aI44404774
aL2745437097L
aI1364729208
aI1237108867
aL2385537276L
aI171987009
aI511970896
aL2382642890L
aI60047667
aI64732374
aI193908569
aI75023823
aL2178679596L
aI1109570484
aI34239734
aI93140064
aI2232581
aI451836992
aI25181711
aI318362368
aI17137934
aI15190884
aI214795206
aI90646796
aI155815961
aI155616711
aI103242279
aI101474491
aI100791055
aI99061494
aI90373305
aI89146039
aI57399689
aI85997632
aI81815578
aI61110182
aI49340383
aI48472976
aI46964510
aI32473894
aasS'obj'
p7
ccopy_reg
_reconstructor
p8
(ctweepy.models
User
p9
c__builtin__
object
p10
Ntp11
Rp12
(dp13
S'follow_request_sent'
p14
I00
sS'has_extended_profile'
p15
I00
sS'profile_use_background_image'
p16
I01
sS'profile_sidebar_fill_color'
p17
VEFEFEF
p18
sS'id'
p19
I24567136
sS'verified'
p20
I00
sS'entities'
p21
(dp22
Vdescription
p23
(dp24
Vurls
p25
(lp26
sssS'profile_image_url_https'
p27
Vhttps://pbs.twimg.com/profile_images/501552496884854786/bMnEjT-u_normal.jpeg
p28
sS'_json'
p29
(dp30
Vfollow_request_sent
p31
I00
sVhas_extended_profile
p32
I00
sVprofile_use_background_image
p33
I01
sVdefault_profile_image
p34
I00
sVid
p35
I24567136
sVprofile_background_image_url_https
p36
Vhttps://abs.twimg.com/images/themes/theme14/bg.gif
p37
sVverified
p38
I00
sVprofile_text_color
p39
V333333
p40
sVprofile_image_url_https
p41
g28
sVprofile_sidebar_fill_color
p42
g18
sVentities
p43
g22
sVfollowers_count
p44
I155
sVprofile_sidebar_border_color
p45
VEEEEEE
p46
sVid_str
p47
V24567136
p48
sVprofile_background_color
p49
V131516
p50
sVlisted_count
p51
I85
sVstatus
p52
(dp53
Vcontributors
p54
NsVtruncated
p55
I00
sVtext
p56
V$YHOO $GOOGL $AAPL:\u000a\u000aParis Attacks Renew U.S. Call to Access Encrypted Communications:\u000a\u000ahttps://t.co/TuL6ouBPIJ \u2026\u2026 https://t.co/ytfo24R3Lv
p57
sVin_reply_to_status_id
p58
Nsg35
L666395392234422272L
sVfavorite_count
p59
I0
sVsource
p60
V<a href="http://ifttt.com" rel="nofollow">IFTTT</a>
p61
sVretweeted
p62
I00
sVcoordinates
p63
Nsg43
(dp64
Vsymbols
p65
(lp66
(dp67
Vindices
p68
(lp69
I0
aI5
asg56
VYHOO
p70
sa(dp71
g68
(lp72
I6
aI12
asg56
VGOOGL
p73
sa(dp74
g68
(lp75
I13
aI18
asg56
VAAPL
p76
sasVuser_mentions
p77
(lp78
sVhashtags
p79
(lp80
sg25
(lp81
(dp82
Vurl
p83
Vhttps://t.co/TuL6ouBPIJ
p84
sg68
(lp85
I88
aI111
asVexpanded_url
p86
Vhttp://StockNewsHour.com/yhoo-googl-aapl-paris-attacks-renew-u-s-call-to-access-encrypted-communications/
p87
sVdisplay_url
p88
VStockNewsHour.com/yhoo-googl-aap\u2026
p89
sa(dp90
g83
Vhttps://t.co/ytfo24R3Lv
p91
sg68
(lp92
I115
aI138
asg86
Vhttp://ift.tt/1clQiSw
p93
sg88
Vift.tt/1clQiSw
p94
sassVin_reply_to_screen_name
p95
Nsg47
V666395392234422272
p96
sVretweet_count
p97
I0
sVin_reply_to_user_id
p98
NsVfavorited
p99
I00
sVgeo
p100
NsVin_reply_to_user_id_str
p101
NsVpossibly_sensitive
p102
I00
sVlang
p103
Ven
p104
sVcreated_at
p105
VMon Nov 16 23:20:17 +0000 2015
p106
sVin_reply_to_status_id_str
p107
NsVplace
p108
NssVis_translation_enabled
p109
I00
sVutc_offset
p110
I-18000
sVstatuses_count
p111
I11714
sg23
VProfessional Smart Pants | Engineer | Kinda okay meh.. Stock Investor | Adventuristic
p112
sVfriends_count
p113
I206
sVlocation
p114
VWashington DC
p115
sVprofile_link_color
p116
V009999
p117
sVprofile_image_url
p118
Vhttp://pbs.twimg.com/profile_images/501552496884854786/bMnEjT-u_normal.jpeg
p119
sVfollowing
p120
I00
sVgeo_enabled
p121
I00
sVprofile_banner_url
p122
Vhttps://pbs.twimg.com/profile_banners/24567136/1411760333
p123
sVprofile_background_image_url
p124
Vhttp://abs.twimg.com/images/themes/theme14/bg.gif
p125
sVscreen_name
p126
Vkthirum1
p127
sg103
Ven
p128
sVprofile_background_tile
p129
I01
sVfavourites_count
p130
I377
sVname
p131
VKrishna
p132
sVnotifications
p133
I00
sg83
Nsg105
VSun Mar 15 19:00:21 +0000 2009
p134
sVcontributors_enabled
p135
I00
sVtime_zone
p136
VEastern Time (US & Canada)
p137
sVprotected
p138
I00
sVdefault_profile
p139
I00
sVis_translator
p140
I00
ssS'contributors_enabled'
p141
I00
sS'profile_text_color'
p142
g40
sS'followers_count'
p143
I155
sS'profile_sidebar_border_color'
p144
g46
sS'id_str'
p145
g48
sS'default_profile_image'
p146
I00
sS'listed_count'
p147
I85
sS'status'
p148
g8
(ctweepy.models
Status
p149
g10
Ntp150
Rp151
(dp152
S'favorited'
p153
I00
sS'contributors'
p154
NsS'truncated'
p155
I00
sS'text'
p156
V$YHOO $GOOGL $AAPL:\u000a\u000aParis Attacks Renew U.S. Call to Access Encrypted Communications:\u000a\u000ahttps://t.co/TuL6ouBPIJ \u2026\u2026 https://t.co/ytfo24R3Lv
p157
sS'source_url'
p158
Vhttp://ifttt.com
p159
sS'possibly_sensitive'
p160
I00
sS'in_reply_to_status_id'
p161
NsS'geo'
p162
Nsg19
L666395392234422272L
sS'favorite_count'
p163
I0
sS'lang'
p164
g104
sg21
g64
sS'created_at'
p165
cdatetime
datetime
p166
(S'\x07\xdf\x0b\x10\x17\x14\x11\x00\x00\x00'
p167
tp168
Rp169
sg29
g53
sS'coordinates'
p170
NsS'in_reply_to_user_id_str'
p171
NsS'source'
p172
VIFTTT
p173
sS'in_reply_to_status_id_str'
p174
NsS'in_reply_to_screen_name'
p175
Nsg145
g96
sS'retweeted'
p176
I00
sS'place'
p177
NsS'retweet_count'
p178
I0
sS'in_reply_to_user_id'
p179
NsbsS'is_translation_enabled'
p180
I00
sS'utc_offset'
p181
I-18000
sS'statuses_count'
p182
I11714
sS'description'
p183
g112
sS'friends_count'
p184
I206
sS'location'
p185
g115
sS'profile_link_color'
p186
g117
sS'profile_image_url'
p187
g119
sS'notifications'
p188
I00
sS'geo_enabled'
p189
I00
sS'profile_background_color'
p190
g50
sS'profile_banner_url'
p191
g123
sS'profile_background_image_url'
p192
g125
sS'screen_name'
p193
g127
sg164
g128
sg1
I00
sS'profile_background_tile'
p194
I01
sS'favourites_count'
p195
I377
sS'name'
p196
g132
sS'url'
p197
Nsg165
g166
(S'\x07\xd9\x03\x0f\x13\x00\x15\x00\x00\x00'
p198
tp199
Rp200
sS'profile_background_image_url_https'
p201
g37
sS'time_zone'
p202
g137
sS'protected'
p203
I00
sS'default_profile'
p204
I00
sS'is_translator'
p205
I00
sbs.