(dp0
S'following'
p1
(lp2
(lp3
I876550261
aI9555372
aI1583359764
aI1861663298
aI936560438
aI480680133
aI226850431
aL3254020358L
aI820026960
aL3324205583L
aI1037356788
aI1923947209
aL3050352081L
aL2801354423L
aI314471597
aI626706066
aI1056000750
aI59283983
aI62453193
aI310353335
aI141308046
aI1055051502
aI488367335
aI511637310
aL2197997773L
aI273984441
aI38075629
aI72910463
aI316423388
aI1656175616
aI392562986
aL2266354974L
aI125161682
aI696823
aI432769364
aI315520219
aI134953843
aI165111599
aI1849197601
aI1930866174
aI350936749
aI15933274
aI1909488014
aL2267701975L
aI131007677
aL2661495499L
aI77550995
aI1950025556
aI124682089
aI192963916
aI71070452
aL2479263582L
aI208750497
aL2661528901L
aI615501427
aI1669332806
aL2661488060L
aL2670123530L
aL2478247556L
aL2478284196L
aL2670163519L
aL2462816125L
aL2659972441L
aL2670116946L
aL2659960580L
aI1870049382
aI543874719
aI232212170
aL2479251678L
aL2659916216L
aL2670134521L
aL2477997038L
aL2468081898L
aI582232611
aL2478208446L
aL2478139537L
aL2273213838L
aL2659957669L
aL2478207613L
aL2478213457L
aL2657415733L
aL2478274458L
aL2287251151L
aL2670110269L
aL2660007751L
aL2269740691L
aL2670091698L
aL2478038719L
aL2478317269L
aL2478310268L
aL2659927032L
aL2478128263L
aL2479299643L
aL2468097332L
aL2661465686L
aL2479281452L
aL2462539501L
aL2659951243L
aL2661699606L
aL2478008502L
aL2478023318L
aL2657382734L
aL2660018113L
aL2473370719L
aL2479276327L
aI29066006
aL2478313849L
aL2479270962L
aI281570507
aL2478216811L
aL2479261572L
aL2479260056L
aI437573406
aL2478155581L
aL2479263188L
aL2478305305L
aL2478069727L
aI40848717
aL2468103956L
aL2478279439L
aL2478285307L
aL2478283946L
aL2478066259L
aL2477991595L
aL2477986224L
aL2478097844L
aL2478122862L
aL2468103534L
aL2265249223L
aasS'followers'
p4
(lp5
(lp6
I876550261
aI9555372
aL3937229602L
aI1583359764
aL3944869936L
aI1861663298
aI936560438
aI480680133
aL3241398826L
aI1037356788
aL2659927032L
aI1923947209
aI314471597
aI626706066
aL2918510561L
aL3036973742L
aI310353335
aI316423388
aI125161682
aI1849197601
aL2797825255L
aL2478310268L
aI134953843
aI315520219
aL2905716311L
aI165111599
aI1930866174
aI350936749
aL2479263188L
aI1909488014
aI131007677
aL2660007751L
aL2478283946L
aI77550995
aL2478285307L
aL2478066259L
aL2364037872L
aI192963916
aL2670134521L
aL2479270962L
aL2479260056L
aL2478155581L
aL2477997038L
aI208750497
aL2266354974L
aL2657382734L
aL2478317269L
aI1669332806
aI615501427
aL2265249223L
aL2478313849L
aL2478213457L
aL2670116946L
aL2478122862L
aL2660018113L
aL2659916216L
aL2478279439L
aL2478139537L
aL2468081898L
aI543874719
aI1870049382
aL2661465686L
aL2462539501L
aL2267701975L
aL2670163519L
aL2670091698L
aL2659957669L
aL2477986224L
aI582232611
aL2670110269L
aL2478207613L
aL2661528901L
aL2659951243L
aL2657415733L
aL2478069727L
aL2273213838L
aL2661699606L
aL2479261572L
aL2478274458L
aL2473370719L
aL2269740691L
aL2661495499L
aL2659972441L
aL2670123530L
aL2661488060L
aL2478284196L
aL2478008502L
aL2468103956L
aL2659960580L
aI29066006
aL2478097844L
aI281570507
aL2478208446L
aL2479276327L
aL2477991595L
aL2479263582L
aL2478305305L
aL2478216811L
aL2478128263L
aL2468097332L
aL2462816125L
aI40848717
aL2468103534L
aL2479281452L
aL2479251678L
aL2478247556L
aL2478023318L
aL2479299643L
aL2478038719L
aL2287251151L
aasS'obj'
p7
ccopy_reg
_reconstructor
p8
(ctweepy.models
User
p9
c__builtin__
object
p10
Ntp11
Rp12
(dp13
S'follow_request_sent'
p14
NsS'has_extended_profile'
p15
I00
sS'profile_use_background_image'
p16
I01
sS'profile_sidebar_fill_color'
p17
VDDEEF6
p18
sS'id'
p19
L2462770136L
sS'verified'
p20
I00
sS'entities'
p21
(dp22
Vdescription
p23
(dp24
Vurls
p25
(lp26
sssS'profile_image_url_https'
p27
Vhttps://abs.twimg.com/sticky/default_profile_images/default_profile_1_normal.png
p28
sS'_json'
p29
(dp30
Vfollow_request_sent
p31
NsVhas_extended_profile
p32
I00
sVprofile_use_background_image
p33
I01
sVdefault_profile_image
p34
I01
sVid
p35
L2462770136L
sVprofile_background_image_url_https
p36
Vhttps://abs.twimg.com/images/themes/theme1/bg.png
p37
sVverified
p38
I00
sVprofile_text_color
p39
V333333
p40
sVprofile_image_url_https
p41
g28
sVprofile_sidebar_fill_color
p42
g18
sVentities
p43
g22
sVfollowers_count
p44
I110
sVprofile_sidebar_border_color
p45
VC0DEED
p46
sVid_str
p47
V2462770136
p48
sVprofile_background_color
p49
VC0DEED
p50
sVlisted_count
p51
I38
sVstatus
p52
(dp53
Vcontributors
p54
NsVtruncated
p55
I00
sVtext
p56
VSign up for a Free Stock Alert for $LM https://t.co/0jX7YQgjjp  $$ #stock #investing
p57
sVin_reply_to_status_id
p58
Nsg35
L666500712004788224L
sVfavorite_count
p59
I0
sVsource
p60
V<a href="http://www.strategic-options.com" rel="nofollow">strategic_news</a>
p61
sVretweeted
p62
I00
sVcoordinates
p63
Nsg43
(dp64
Vsymbols
p65
(lp66
(dp67
Vindices
p68
(lp69
I35
aI38
asg56
VLM
p70
sasVuser_mentions
p71
(lp72
sVhashtags
p73
(lp74
(dp75
g68
(lp76
I67
aI73
asg56
Vstock
p77
sa(dp78
g68
(lp79
I74
aI84
asg56
Vinvesting
p80
sasg25
(lp81
(dp82
Vurl
p83
Vhttps://t.co/0jX7YQgjjp
p84
sg68
(lp85
I39
aI62
asVexpanded_url
p86
Vhttp://bit.ly/1kwUeoz
p87
sVdisplay_url
p88
Vbit.ly/1kwUeoz
p89
sassVin_reply_to_screen_name
p90
Nsg47
V666500712004788224
p91
sVretweet_count
p92
I0
sVin_reply_to_user_id
p93
NsVfavorited
p94
I00
sVgeo
p95
NsVin_reply_to_user_id_str
p96
NsVpossibly_sensitive
p97
I00
sVlang
p98
Ven
p99
sVcreated_at
p100
VTue Nov 17 06:18:47 +0000 2015
p101
sVin_reply_to_status_id_str
p102
NsVplace
p103
NssVis_translation_enabled
p104
I00
sVutc_offset
p105
NsVstatuses_count
p106
I2425
sg23
V
p107
sVfriends_count
p108
I129
sVlocation
p109
g107
sVprofile_link_color
p110
V0084B4
p111
sVprofile_image_url
p112
Vhttp://abs.twimg.com/sticky/default_profile_images/default_profile_1_normal.png
p113
sVfollowing
p114
NsVgeo_enabled
p115
I00
sVprofile_background_image_url
p116
Vhttp://abs.twimg.com/images/themes/theme1/bg.png
p117
sVscreen_name
p118
Vmonuevon
p119
sg98
Ven
p120
sVprofile_background_tile
p121
I00
sVfavourites_count
p122
I0
sVname
p123
Vmonu
p124
sVnotifications
p125
Nsg83
Nsg100
VFri Apr 25 06:13:21 +0000 2014
p126
sVcontributors_enabled
p127
I00
sVtime_zone
p128
NsVprotected
p129
I00
sVdefault_profile
p130
I01
sVis_translator
p131
I00
ssS'contributors_enabled'
p132
I00
sS'profile_text_color'
p133
g40
sS'followers_count'
p134
I110
sS'profile_sidebar_border_color'
p135
g46
sS'id_str'
p136
g48
sS'default_profile_image'
p137
I01
sS'listed_count'
p138
I38
sS'status'
p139
g8
(ctweepy.models
Status
p140
g10
Ntp141
Rp142
(dp143
S'favorited'
p144
I00
sS'contributors'
p145
NsS'truncated'
p146
I00
sS'text'
p147
g57
sS'source_url'
p148
Vhttp://www.strategic-options.com
p149
sS'possibly_sensitive'
p150
I00
sS'in_reply_to_status_id'
p151
NsS'geo'
p152
Nsg19
L666500712004788224L
sS'favorite_count'
p153
I0
sS'lang'
p154
g99
sg21
g64
sS'created_at'
p155
cdatetime
datetime
p156
(S'\x07\xdf\x0b\x11\x06\x12/\x00\x00\x00'
p157
tp158
Rp159
sg29
g53
sS'coordinates'
p160
NsS'in_reply_to_user_id_str'
p161
NsS'source'
p162
Vstrategic_news
p163
sS'in_reply_to_status_id_str'
p164
NsS'in_reply_to_screen_name'
p165
Nsg136
g91
sS'retweeted'
p166
I00
sS'place'
p167
NsS'retweet_count'
p168
I0
sS'in_reply_to_user_id'
p169
NsbsS'is_translation_enabled'
p170
I00
sS'utc_offset'
p171
NsS'statuses_count'
p172
I2425
sS'description'
p173
g107
sS'friends_count'
p174
I129
sS'location'
p175
g107
sS'profile_link_color'
p176
g111
sS'profile_image_url'
p177
g113
sS'notifications'
p178
NsS'geo_enabled'
p179
I00
sS'profile_background_color'
p180
g50
sS'profile_background_image_url'
p181
g117
sS'screen_name'
p182
g119
sg154
g120
sg1
I00
sS'profile_background_tile'
p183
I00
sS'favourites_count'
p184
I0
sS'name'
p185
g124
sS'url'
p186
Nsg155
g156
(S'\x07\xde\x04\x19\x06\r\x15\x00\x00\x00'
p187
tp188
Rp189
sS'profile_background_image_url_https'
p190
g37
sS'time_zone'
p191
NsS'protected'
p192
I00
sS'default_profile'
p193
I01
sS'is_translator'
p194
I00
sbs.