(dp0
S'following'
p1
(lp2
(lp3
I93913891
aI53210455
aI265245056
aI96682182
aI201891203
aL3402750063L
aI402738312
aL2664130614L
aI904039608
aI475524030
aI65681636
aI127967449
aI20704445
aI141453630
aI281204221
aL3382363841L
aI60113926
aI192749697
aI525713285
aL2231813953L
aI17790265
aI461607890
aI245181129
aL3176169479L
aI424832354
aL2934024822L
aL2646506552L
aI38325864
aI514835972
aI1223724236
aI196556837
aI126640430
aI557503653
aI20800915
aI103550181
aI14250809
aI16359602
aI1289738107
aI192759988
aI15246621
aL2660394662L
aI14916627
aL2341525668L
aI89491245
aI491827933
aL2208137936L
aI246134345
aI30359797
aI37599351
aI373102216
aL2800236201L
aI16827489
aI27990259
aL3304141385L
aL2678090893L
aI62977745
aI14054492
aI37918984
aI1470261637
aI497094379
aI389157954
aI285362838
aL3259240963L
aI1295959190
aI14468812
aI14216123
aI14115408
aI14292717
aI40099128
aI271211220
aL2330340402L
aI1098320611
aI306850457
aL2903843159L
aI39822256
aI144876165
aI1892564144
aL3238980293L
aI37555599
aI18856867
aI32706256
aI17080808
aI14788764
aI260473647
aI184881902
aI579400237
aI26236067
aI550663732
aI341593478
aL2967229294L
aI1676916738
aI51912109
aL2699087383L
aL2890616938L
aI331677065
aI148272213
aI97334517
aL2520719083L
aI1665576224
aI188398607
aI71824428
aL2448326774L
aL2303157007L
aL2216333869L
aI741147679
aL3065074336L
aL2231502417L
aL2161913370L
aL2426471287L
aL2420011614L
aI189788477
aL2981421573L
aI55561590
aI61216389
aL2827091268L
aI15971805
aI40586737
aL2310322662L
aI1202676188
aL2721672258L
aI890052456
aI37564410
aI14297693
aL2309346271L
aI54330245
aI517168840
aI21459600
aL2459000821L
aasS'followers'
p4
(lp5
(lp6
L3319587413L
aL3797946329L
aL2314289604L
aL3281959333L
aL3930897327L
aL2772202526L
aL2290523166L
aI521374230
aL3218209455L
aL4014400402L
aL4157415958L
aL4129790753L
aI425917134
aI54607899
aI17881816
aI252484028
aI182384817
aL2555692982L
aL2194834903L
aI53210455
aI538547125
aI265245056
aL3238980293L
aL2433589022L
aL3947358325L
aL4082739305L
aI65681636
aI179376826
aL4130570778L
aI270062834
aI1086425125
aL3405443625L
aI396999574
aL3947393835L
aL3354161234L
aL3883704746L
aL3267707773L
aL3947413216L
aL4057983219L
aL3190477758L
aI1115940860
aL3972891790L
aL3301185816L
aI41276816
aL3891014658L
aL2616353262L
aL3409433439L
aL2395258519L
aL3427050166L
aL2837882056L
aL2988742673L
aL2664130614L
aI344525852
aI165787706
aI92331639
aI56946066
aI402738312
aI19650903
aI151468104
aI904818788
aI200090023
aL3319660103L
aI1284545454
aI109355320
aI419667429
aL2992325613L
aL2815979137L
aL2857534997L
aI83749263
aI1670367829
aL2154227106L
aI289109783
aI356701473
aL3388556074L
aI127967449
aL3832285641L
aL3535919601L
aI131976908
aI956308381
aL3486163454L
aI60113926
aL3793936699L
aI395483063
aI240526672
aL3147528713L
aL3109195712L
aL3389088551L
aI1529917477
aI175857285
aI708455184
aI80117324
aL3010957745L
aI117741892
aI40300931
aI755234509
aL3030075693L
aL3382363841L
aI1046419182
aL3379280433L
aI76552984
aL3642755419L
aL3232146962L
aI141453630
aL3656820923L
aL3487921454L
aL3031942755L
aI120672388
aI169095109
aI140713076
aL2972555345L
aL2322698999L
aL2356227187L
aI468312367
aL2854871056L
aI478061208
aI123396055
aI34578922
aL3424142572L
aI100767876
aL3236788769L
aL2330801192L
aI40621299
aI157706504
aI21140391
aI351032649
aI110126964
aI619666750
aI418789040
aI13083302
aI192749697
aI27365207
aI325539039
aL2607611453L
aL2509817230L
aL2559043785L
aL3008852275L
aI381543553
aI525713285
aI111984921
aL3496751237L
aI344793159
aL3389994771L
aL2649512216L
aI20482353
aL3188860968L
aL2366237078L
aL2172423304L
aL3273325590L
aL3342358348L
aL3235772366L
aI370267007
aI66245952
aI108835321
aI58355984
aL2930787631L
aL2851024437L
aI1955493762
aL3105925647L
aI1075354038
aL2231813953L
aI1447305589
aL2956444112L
aI1299413348
aI167204529
aI88903278
aI1400215603
aL3394415884L
aL3290255580L
aI14602042
aL3284598924L
aL2945621043L
aL3293685062L
aI1645372082
aI17674939
aI557503653
aL2218554108L
aL2811409028L
aI52751752
aL3278210682L
aL2244882448L
aI353371694
aL3279889903L
aI438739426
aI1356764132
aL3278600922L
aI37599351
aL3256289923L
aL3304141385L
aI49909375
aI383927121
aI370012490
aL3259240963L
aI959420294
aL2330340402L
aI14468812
aL3351720195L
aI1531007624
aL3018911617L
aL2342479406L
aI22723455
aL3241831693L
aI110347833
aI17080808
aL2169576014L
aI25474332
aI32259774
aI41313000
aI1373724186
aI972843697
aL2765273006L
aI165986330
aL2851555575L
aL2715146462L
aL2792933317L
aL3045501973L
aL2321666078L
aL2936454841L
aL3064960395L
aL2995259958L
aL2489309209L
aL2495008712L
aI94717863
aI829813273
aL3092766023L
aL3158499547L
aL3195801830L
aL2463816464L
aL3193134475L
aL3220804866L
aI323942681
aL3234424123L
aL3217196792L
aL3217305656L
aI19852079
aL3237349758L
aL2952434217L
aL3333582017L
aL3248272340L
aI90537185
aL3333572165L
aL2957878537L
aL3122788009L
aL3248006760L
aL3332775795L
aL3332913561L
aL2335720688L
aL3304193986L
aL3333031745L
aL2465991066L
aL3237138442L
aL3292280115L
aI1262508229
aL3326833672L
aL3248902806L
aL3248306742L
aL3246172776L
aL3248989020L
aL3248169794L
aI46000561
aI1615275096
aL3074581416L
aI342773573
aI15897179
aL3060303160L
aL3221588396L
aL2890616938L
aL3120906103L
aI872319000
aL3301340698L
aI108336126
aI148962470
aI21436811
aL3202257059L
aI492248877
aL3187871209L
aI579934630
aL2302179199L
aL3081680575L
aI403784925
aI303531344
aI1216094017
aI250317700
aL2940159187L
aI515959186
aL3119436596L
aL2578770188L
aI221497409
aI1444614408
aL2282858514L
aI611817117
aL3073478049L
aL3065083689L
aI351188158
aL2939516856L
aL3065074336L
aL3058966145L
aI74860277
aL2346682380L
aL2420011614L
aI287885364
aL2981421573L
aL3017411689L
aI1305054547
aL3005774362L
aI444023903
aI864139724
aL2917925022L
aL2814910924L
aL2841703663L
aI890052456
aI207305939
aI31201761
aI1700531586
aL2309346271L
aI517168840
aasS'obj'
p7
ccopy_reg
_reconstructor
p8
(ctweepy.models
User
p9
c__builtin__
object
p10
Ntp11
Rp12
(dp13
S'follow_request_sent'
p14
NsS'has_extended_profile'
p15
I00
sS'profile_use_background_image'
p16
I01
sS'profile_sidebar_fill_color'
p17
VEFEFEF
p18
sS'id'
p19
L2463817879L
sS'verified'
p20
I00
sS'entities'
p21
(dp22
Vurl
p23
(dp24
Vurls
p25
(lp26
(dp27
g23
Vhttp://t.co/RCjaMN70ba
p28
sVindices
p29
(lp30
I0
aI22
asVexpanded_url
p31
Vhttp://stocktwits.com/aaronx
p32
sVdisplay_url
p33
Vstocktwits.com/aaronx
p34
sassVdescription
p35
(dp36
g25
(lp37
sssS'profile_image_url_https'
p38
Vhttps://pbs.twimg.com/profile_images/552334867338248192/tvmkB0u4_normal.jpeg
p39
sS'_json'
p40
(dp41
Vfollow_request_sent
p42
NsVhas_extended_profile
p43
I00
sVprofile_use_background_image
p44
I01
sVdefault_profile_image
p45
I00
sVid
p46
L2463817879L
sVprofile_background_image_url_https
p47
Vhttps://abs.twimg.com/images/themes/theme14/bg.gif
p48
sVverified
p49
I00
sVprofile_text_color
p50
V333333
p51
sVprofile_image_url_https
p52
g39
sVprofile_sidebar_fill_color
p53
g18
sVentities
p54
g22
sVfollowers_count
p55
I315
sVprofile_sidebar_border_color
p56
VFFFFFF
p57
sVid_str
p58
V2463817879
p59
sVprofile_background_color
p60
V131516
p61
sVlisted_count
p62
I21
sVstatus
p63
(dp64
Vcontributors
p65
NsVtruncated
p66
I00
sVtext
p67
V$XGTI clearly broke the uptrend and took a beating on last bullish PR... not watching is pos anymore... #stockcharts https://t.co/SnuhcH3Cn4
p68
sVin_reply_to_status_id
p69
Nsg46
L664466763984203778L
sVfavorite_count
p70
I0
sVsource
p71
V<a href="http://stocktwits.com" rel="nofollow">StockTwits Web</a>
p72
sVretweeted
p73
I00
sVcoordinates
p74
Nsg54
(dp75
Vsymbols
p76
(lp77
(dp78
g29
(lp79
I0
aI5
asg67
VXGTI
p80
sasVuser_mentions
p81
(lp82
sVhashtags
p83
(lp84
(dp85
g29
(lp86
I104
aI116
asg67
Vstockcharts
p87
sasg25
(lp88
sVmedia
p89
(lp90
(dp91
g31
Vhttp://twitter.com/AaronXtrades/status/664466763984203778/photo/1
p92
sg33
Vpic.twitter.com/SnuhcH3Cn4
p93
sg23
Vhttps://t.co/SnuhcH3Cn4
p94
sVmedia_url_https
p95
Vhttps://pbs.twimg.com/media/CTipACUUYAIvlN1.png
p96
sg58
V664466763124334594
p97
sVsizes
p98
(dp99
Vlarge
p100
(dp101
Vh
p102
I538
sVresize
p103
Vfit
p104
sVw
p105
I1024
ssVsmall
p106
(dp107
g102
I178
sg103
Vfit
p108
sg105
I340
ssVmedium
p109
(dp110
g102
I315
sg103
Vfit
p111
sg105
I600
ssVthumb
p112
(dp113
g102
I150
sg103
Vcrop
p114
sg105
I150
sssg29
(lp115
I117
aI140
asVtype
p116
Vphoto
p117
sg46
L664466763124334594L
sVmedia_url
p118
Vhttp://pbs.twimg.com/media/CTipACUUYAIvlN1.png
p119
sassVin_reply_to_screen_name
p120
Nsg58
V664466763984203778
p121
sVretweet_count
p122
I0
sVin_reply_to_user_id
p123
NsVfavorited
p124
I00
sVgeo
p125
NsVin_reply_to_user_id_str
p126
NsVpossibly_sensitive
p127
I00
sVlang
p128
Ven
p129
sVcreated_at
p130
VWed Nov 11 15:36:36 +0000 2015
p131
sVin_reply_to_status_id_str
p132
NsVplace
p133
NssVis_translation_enabled
p134
I00
sVutc_offset
p135
I-25200
sVstatuses_count
p136
I1662
sg35
V18 Day/Swing Trading Setups and watch-lists Technical Analysis / Risk management / #optiontrades #profits All my stock ideas are my planned trades. Do YOUR DD
p137
sVfriends_count
p138
I128
sVlocation
p139
VArizona, USA
p140
sVprofile_link_color
p141
V4A913C
p142
sVprofile_image_url
p143
Vhttp://pbs.twimg.com/profile_images/552334867338248192/tvmkB0u4_normal.jpeg
p144
sVfollowing
p145
NsVgeo_enabled
p146
I00
sVprofile_banner_url
p147
Vhttps://pbs.twimg.com/profile_banners/2463817879/1446505268
p148
sVprofile_background_image_url
p149
Vhttp://abs.twimg.com/images/themes/theme14/bg.gif
p150
sVscreen_name
p151
VAaronXtrades
p152
sg128
Ven
p153
sVprofile_background_tile
p154
I01
sVfavourites_count
p155
I917
sVname
p156
VAaronX
p157
sVnotifications
p158
Nsg23
Vhttp://t.co/RCjaMN70ba
p159
sg130
VSat Apr 26 00:04:12 +0000 2014
p160
sVcontributors_enabled
p161
I00
sVtime_zone
p162
VMountain Time (US & Canada)
p163
sVprotected
p164
I00
sVdefault_profile
p165
I00
sVis_translator
p166
I00
ssS'contributors_enabled'
p167
I00
sS'profile_text_color'
p168
g51
sS'followers_count'
p169
I315
sS'profile_sidebar_border_color'
p170
g57
sS'id_str'
p171
g59
sS'default_profile_image'
p172
I00
sS'listed_count'
p173
I21
sS'status'
p174
g8
(ctweepy.models
Status
p175
g10
Ntp176
Rp177
(dp178
S'favorited'
p179
I00
sS'contributors'
p180
NsS'truncated'
p181
I00
sS'text'
p182
g68
sS'source_url'
p183
Vhttp://stocktwits.com
p184
sS'possibly_sensitive'
p185
I00
sS'in_reply_to_status_id'
p186
NsS'geo'
p187
Nsg19
L664466763984203778L
sS'favorite_count'
p188
I0
sS'lang'
p189
g129
sg21
g75
sS'created_at'
p190
cdatetime
datetime
p191
(S'\x07\xdf\x0b\x0b\x0f$$\x00\x00\x00'
p192
tp193
Rp194
sg40
g64
sS'coordinates'
p195
NsS'in_reply_to_user_id_str'
p196
NsS'source'
p197
VStockTwits Web
p198
sS'in_reply_to_status_id_str'
p199
NsS'in_reply_to_screen_name'
p200
Nsg171
g121
sS'retweeted'
p201
I00
sS'place'
p202
NsS'retweet_count'
p203
I0
sS'in_reply_to_user_id'
p204
NsbsS'is_translation_enabled'
p205
I00
sS'utc_offset'
p206
I-25200
sS'statuses_count'
p207
I1662
sS'description'
p208
g137
sS'friends_count'
p209
I128
sS'location'
p210
g140
sS'profile_link_color'
p211
g142
sS'profile_image_url'
p212
g144
sS'notifications'
p213
NsS'geo_enabled'
p214
I00
sS'profile_background_color'
p215
g61
sS'profile_banner_url'
p216
g148
sS'profile_background_image_url'
p217
g150
sS'screen_name'
p218
g152
sg189
g153
sg1
I00
sS'profile_background_tile'
p219
I01
sS'favourites_count'
p220
I917
sS'name'
p221
g157
sS'url'
p222
g159
sg190
g191
(S'\x07\xde\x04\x1a\x00\x04\x0c\x00\x00\x00'
p223
tp224
Rp225
sS'profile_background_image_url_https'
p226
g48
sS'time_zone'
p227
g163
sS'protected'
p228
I00
sS'default_profile'
p229
I00
sS'is_translator'
p230
I00
sbs.