(dp0
S'following'
p1
(lp2
(lp3
I1003440223
aI29190547
aI25859410
aI1923947209
aI265779132
aI226637533
aI460564003
aI1861663298
aI42959303
aI593222868
aI22511115
aI352619090
aI79805058
aI59429275
aI96929712
aI390360720
aI350936749
aI617170776
aI1518672566
aI75918423
aI1382336750
aI1396726777
aI10870512
aI1927833115
aL3324205583L
aL3254020358L
aI357893482
aI318358959
aI83348090
aI91771076
aI5749642
aI626706066
aI569015256
aI820205892
aI316342372
aI1686020359
aI611862241
aI45235247
aI141308046
aL2197997773L
aI322116425
aI9102082
aI1217308981
aI83881443
aI317613164
aI1055051502
aI49733717
aI37364819
aI488367335
aL2801354423L
aI511637310
aI38075629
aL3050352081L
aI62453193
aI46081994
aI101107997
aI72910463
aI13031542
aI59283983
aI65023553
aI1433255430
aI432769364
aI80979157
aI696823
aI552792262
aI84273114
aI746873924
aI1930866174
aI15933274
aI125161682
aI1849197601
aI1856523530
aI278258054
aI281235442
aI820237818
aI331243059
aI1158856526
aI21926191
aI14375294
aI145294106
aL2659960580L
aI619526269
aI71070452
aL2462770136L
aL2661465686L
aL2661488060L
aL2478213457L
aI375015197
aL2670163519L
aL2660018113L
aL2478066259L
aL2479260056L
aL2660007751L
aL2468097332L
aL2670110269L
aL2478305305L
aL2477986224L
aL2479251678L
aI315525952
aL2661699606L
aL2273213838L
aL2269740691L
aL2478216811L
aL2479281452L
aL2478247556L
aL2670091698L
aL2479263188L
aL2478284196L
aL2479263582L
aL2659951243L
aL2670116946L
aL2468103956L
aL2657415733L
aL2657382734L
aL2659927032L
aI1950025556
aL2478128263L
aL2670134521L
aL2659957669L
aL2478008502L
aL2478285307L
aL2478279439L
aL2477991595L
aL2468103534L
aL2659916216L
aL2462539501L
aL2661528901L
aL2661495499L
aL2659972441L
aL2479276327L
aL2670123530L
aL2478310268L
aL2479299643L
aL2478023318L
aL2468081898L
aL2479261572L
aL2479270962L
aL2478155581L
aL2478122862L
aL2478139537L
aL2478207613L
aL2478283946L
aI289123445
aI14400622
aL2478038719L
aL2478208446L
aI41119424
aL2462816125L
aL2478313849L
aL2478274458L
aL2478069727L
aL2478317269L
aL2478097844L
aL2473370719L
aL2287251151L
aI437573406
aL2266354974L
aL2265249223L
aL2267701975L
aasS'followers'
p4
(lp5
(lp6
L2994203381L
aL4136796074L
aI1003440223
aL2860845668L
aI29190547
aI265779132
aI1923947209
aI226637533
aI1861663298
aL3972467000L
aL3943050749L
aL3689105905L
aI352619090
aI617170776
aI350936749
aI1396726777
aI1382336750
aL3796787320L
aI75918423
aI10870512
aI318358959
aI357893482
aL3418744313L
aI5749642
aL2233618927L
aI626706066
aL2454424604L
aI820205892
aL3356858249L
aI316342372
aL2885890954L
aL3045069553L
aI1686020359
aL3198711068L
aI611862241
aL3036973742L
aL2735251791L
aL2479270962L
aI322116425
aI9102082
aL3232726060L
aL2478069727L
aL3156816924L
aL2362546813L
aI83881443
aI317613164
aI49733717
aL2755923777L
aI101107997
aI46081994
aL2953155944L
aL2208112957L
aI13031542
aL2497110092L
aI125161682
aI1433255430
aL2478317269L
aI552792262
aL2797825255L
aL2534557704L
aI84273114
aI746873924
aL2890369099L
aL2905716311L
aL2150123534L
aI1930866174
aI281235442
aI278258054
aI1849197601
aI1158856526
aI331243059
aI820237818
aL2659927032L
aL2927301033L
aI21926191
aL2670123530L
aL2660007751L
aL2478139537L
aL2670091698L
aL2478207613L
aL2661528901L
aI14375294
aL2479251678L
aL2478284196L
aL2670116946L
aI145294106
aL2670134521L
aI619526269
aL2578891766L
aL2479263188L
aL2479276327L
aL2477986224L
aL2468097332L
aL2462539501L
aI375015197
aL2265249223L
aL2479260056L
aL2671252532L
aL2468103956L
aL2478310268L
aL2478023318L
aL2670163519L
aL2661488060L
aL2478216811L
aL2478155581L
aL2659960580L
aL2478208446L
aL2478122862L
aL2462770136L
aI315525952
aL2266354974L
aL2659916216L
aL2478283946L
aL2478066259L
aL2670110269L
aL2661495499L
aL2660018113L
aL2659972441L
aL2659957669L
aL2479263582L
aL2468081898L
aL2273213838L
aL2657382734L
aL2661699606L
aL2479261572L
aL2478305305L
aL2478279439L
aL2661465686L
aL2657415733L
aL2287251151L
aL2269740691L
aL2462816125L
aL2659951243L
aL2479281452L
aL2478247556L
aL2267701975L
aL2478097844L
aL2473370719L
aL2478313849L
aL2478128263L
aI289123445
aL2478213457L
aL2478038719L
aI41119424
aL2477991595L
aL2478274458L
aL2468103534L
aL2479299643L
aL2478285307L
aL2478008502L
aasS'obj'
p7
ccopy_reg
_reconstructor
p8
(ctweepy.models
User
p9
c__builtin__
object
p10
Ntp11
Rp12
(dp13
S'follow_request_sent'
p14
NsS'has_extended_profile'
p15
I00
sS'profile_use_background_image'
p16
I01
sS'profile_sidebar_fill_color'
p17
VDDEEF6
p18
sS'id'
p19
L2477997038L
sS'verified'
p20
I00
sS'entities'
p21
(dp22
Vdescription
p23
(dp24
Vurls
p25
(lp26
sssS'profile_image_url_https'
p27
Vhttps://pbs.twimg.com/profile_images/463224572498563072/gQkPZPmm_normal.jpeg
p28
sS'_json'
p29
(dp30
Vfollow_request_sent
p31
NsVhas_extended_profile
p32
I00
sVprofile_use_background_image
p33
I01
sVdefault_profile_image
p34
I00
sVid
p35
L2477997038L
sVprofile_background_image_url_https
p36
Vhttps://abs.twimg.com/images/themes/theme1/bg.png
p37
sVverified
p38
I00
sVprofile_text_color
p39
V333333
p40
sVprofile_image_url_https
p41
g28
sVprofile_sidebar_fill_color
p42
g18
sVentities
p43
g22
sVfollowers_count
p44
I150
sVprofile_sidebar_border_color
p45
VC0DEED
p46
sVid_str
p47
V2477997038
p48
sVprofile_background_color
p49
VC0DEED
p50
sVlisted_count
p51
I34
sVstatus
p52
(dp53
Vcontributors
p54
NsVtruncated
p55
I00
sVtext
p56
VSign up for a Free Stock Alert for $L https://t.co/VhuU6SJmSa  $$ #stock #investing
p57
sVin_reply_to_status_id
p58
Nsg35
L666498168922746880L
sVfavorite_count
p59
I0
sVsource
p60
V<a href="http://www.strategic-options.com" rel="nofollow">strategic_news</a>
p61
sVretweeted
p62
I00
sVcoordinates
p63
Nsg43
(dp64
Vsymbols
p65
(lp66
(dp67
Vindices
p68
(lp69
I35
aI37
asg56
VL
p70
sasVuser_mentions
p71
(lp72
sVhashtags
p73
(lp74
(dp75
g68
(lp76
I66
aI72
asg56
Vstock
p77
sa(dp78
g68
(lp79
I73
aI83
asg56
Vinvesting
p80
sasg25
(lp81
(dp82
Vurl
p83
Vhttps://t.co/VhuU6SJmSa
p84
sg68
(lp85
I38
aI61
asVexpanded_url
p86
Vhttp://bit.ly/1kVSVix
p87
sVdisplay_url
p88
Vbit.ly/1kVSVix
p89
sassVin_reply_to_screen_name
p90
Nsg47
V666498168922746880
p91
sVretweet_count
p92
I0
sVin_reply_to_user_id
p93
NsVfavorited
p94
I00
sVgeo
p95
NsVin_reply_to_user_id_str
p96
NsVpossibly_sensitive
p97
I00
sVlang
p98
Ven
p99
sVcreated_at
p100
VTue Nov 17 06:08:41 +0000 2015
p101
sVin_reply_to_status_id_str
p102
NsVplace
p103
NssVis_translation_enabled
p104
I00
sVutc_offset
p105
NsVstatuses_count
p106
I2422
sg23
V
p107
sVfriends_count
p108
I159
sVlocation
p109
g107
sVprofile_link_color
p110
V0084B4
p111
sVprofile_image_url
p112
Vhttp://pbs.twimg.com/profile_images/463224572498563072/gQkPZPmm_normal.jpeg
p113
sVfollowing
p114
NsVgeo_enabled
p115
I00
sVprofile_background_image_url
p116
Vhttp://abs.twimg.com/images/themes/theme1/bg.png
p117
sVscreen_name
p118
Vbilalgeorge25
p119
sg98
Ven
p120
sVprofile_background_tile
p121
I00
sVfavourites_count
p122
I0
sVname
p123
Vbilal george
p124
sVnotifications
p125
Nsg83
Nsg100
VMon May 05 07:50:44 +0000 2014
p126
sVcontributors_enabled
p127
I00
sVtime_zone
p128
NsVprotected
p129
I00
sVdefault_profile
p130
I01
sVis_translator
p131
I00
ssS'contributors_enabled'
p132
I00
sS'profile_text_color'
p133
g40
sS'followers_count'
p134
I150
sS'profile_sidebar_border_color'
p135
g46
sS'id_str'
p136
g48
sS'default_profile_image'
p137
I00
sS'listed_count'
p138
I34
sS'status'
p139
g8
(ctweepy.models
Status
p140
g10
Ntp141
Rp142
(dp143
S'favorited'
p144
I00
sS'contributors'
p145
NsS'truncated'
p146
I00
sS'text'
p147
g57
sS'source_url'
p148
Vhttp://www.strategic-options.com
p149
sS'possibly_sensitive'
p150
I00
sS'in_reply_to_status_id'
p151
NsS'geo'
p152
Nsg19
L666498168922746880L
sS'favorite_count'
p153
I0
sS'lang'
p154
g99
sg21
g64
sS'created_at'
p155
cdatetime
datetime
p156
(S'\x07\xdf\x0b\x11\x06\x08)\x00\x00\x00'
p157
tp158
Rp159
sg29
g53
sS'coordinates'
p160
NsS'in_reply_to_user_id_str'
p161
NsS'source'
p162
Vstrategic_news
p163
sS'in_reply_to_status_id_str'
p164
NsS'in_reply_to_screen_name'
p165
Nsg136
g91
sS'retweeted'
p166
I00
sS'place'
p167
NsS'retweet_count'
p168
I0
sS'in_reply_to_user_id'
p169
NsbsS'is_translation_enabled'
p170
I00
sS'utc_offset'
p171
NsS'statuses_count'
p172
I2422
sS'description'
p173
g107
sS'friends_count'
p174
I159
sS'location'
p175
g107
sS'profile_link_color'
p176
g111
sS'profile_image_url'
p177
g113
sS'notifications'
p178
NsS'geo_enabled'
p179
I00
sS'profile_background_color'
p180
g50
sS'profile_background_image_url'
p181
g117
sS'screen_name'
p182
g119
sg154
g120
sg1
I00
sS'profile_background_tile'
p183
I00
sS'favourites_count'
p184
I0
sS'name'
p185
g124
sS'url'
p186
Nsg155
g156
(S'\x07\xde\x05\x05\x072,\x00\x00\x00'
p187
tp188
Rp189
sS'profile_background_image_url_https'
p190
g37
sS'time_zone'
p191
NsS'protected'
p192
I00
sS'default_profile'
p193
I01
sS'is_translator'
p194
I00
sbs.