(dp0
S'following'
p1
(lp2
(lp3
I945208398
aI460564003
aI1583359764
aI53263853
aI1923947209
aI265779132
aI113422725
aI884344364
aI226637533
aI25859410
aI97098793
aI366406586
aI440185533
aI350936749
aI617170776
aI75918423
aI820026960
aI10870512
aI1518672566
aI41691452
aI226850431
aI1622790582
aI735106172
aL3324205583L
aI483195215
aI175419846
aI14539215
aI250416435
aI16607506
aL3254020358L
aI432769364
aI357893482
aI263036685
aI343283519
aI98480845
aI1382336750
aI1082865211
aI20743268
aI97487983
aI716651708
aI1949322637
aI29015085
aI320873824
aI588559501
aI1124373750
aI1686020359
aL2801354423L
aL2479261572L
aI398650097
aI59283983
aI9102082
aI238868533
aI60924007
aI1969630836
aI338096130
aI1486379629
aL2670134521L
aI1046954118
aI1055944441
aI14518588
aI626706066
aI552792262
aI1918718102
aI318403715
aI1617382412
aI125161682
aI72910463
aI133806972
aI15933274
aI141308046
aI62453193
aL2197997773L
aI268369883
aI197372250
aL3050352081L
aI260211905
aI38075629
aL2479299643L
aI48967505
aI80979157
aI139960419
aI46047640
aI198039504
aI696823
aI19935055
aI30249176
aI1930866174
aL2661699606L
aI316566245
aI81947660
aL2659916216L
aI1849197601
aI450815034
aI253019748
aL2659957669L
aL2670116946L
aI1375292017
aL2477997038L
aL2670163519L
aI14375294
aI273984441
aL2670123530L
aL2661495499L
aL2478310268L
aL2479263582L
aL2478247556L
aI25712530
aI17478928
aL2479281452L
aL2287251151L
aI820089192
aI278583986
aL2269740691L
aL2266354974L
aL2661465686L
aL2462816125L
aL2661488060L
aL2660018113L
aL2479263188L
aL2659960580L
aL2659951243L
aL2468103534L
aL2478155581L
aL2478066259L
aL2660007751L
aL2462770136L
aL2670110269L
aL2670091698L
aL2657415733L
aL2478038719L
aL2478305305L
aL2657382734L
aI1950025556
aL2478023318L
aL2478207613L
aI71070452
aL2478069727L
aL2478128263L
aI43782326
aL2661528901L
aL2479260056L
aL2478097844L
aL2478122862L
aL2273213838L
aL2659927032L
aL2477991595L
aL2468103956L
aI22267609
aL2473370719L
aL2478284196L
aL2659972441L
aL2478208446L
aL2478216811L
aL2478279439L
aL2462539501L
aI352999575
aL2478313849L
aL2265249223L
aI145294106
aL2478283946L
aL2478213457L
aL2477986224L
aL2478317269L
aL2479276327L
aL2478008502L
aL2468097332L
aL2468081898L
aL2478285307L
aL2479251678L
aL2479270962L
aL2267701975L
aL2478274458L
aI437573406
aasS'followers'
p4
(lp5
(lp6
I945208398
aL4170485595L
aL4211098158L
aL4170592594L
aL3266357965L
aL4211301013L
aL4170537011L
aL3047338844L
aL4188752592L
aI125161682
aL3733014740L
aL4136796074L
aI53263853
aI1583359764
aL4116366994L
aI265779132
aI1923947209
aL3785475022L
aI226637533
aI884344364
aI113422725
aI97098793
aI366406586
aL3943050749L
aL3933463409L
aL3898474036L
aI617170776
aI350936749
aI37346851
aI75918423
aL3294919125L
aL3672477200L
aI10870512
aL3304364114L
aI226850431
aL3551956153L
aI1622790582
aI735106172
aI483195215
aI175419846
aI16607506
aI250416435
aI14539215
aI357893482
aL2529674335L
aI263036685
aI343283519
aL3003472883L
aI578239539
aI1382336750
aL2233618927L
aI97487983
aI716651708
aI1949322637
aI320873824
aL2363885845L
aI588559501
aI1686020359
aI398650097
aL2918510561L
aL3169538905L
aL3198711068L
aI60924007
aI9102082
aI338096130
aI1969630836
aL2735251791L
aL2592530568L
aI626706066
aI14518588
aI1617382412
aI318403715
aI1918718102
aI552792262
aL3128153407L
aI1124373750
aI133806972
aL2957615747L
aI197372250
aI268369883
aI48967505
aI46047640
aI139960419
aL2351600774L
aI80979157
aI19935055
aI198039504
aL2913379897L
aI30249176
aL2982536109L
aL2905716311L
aI1930866174
aI316566245
aI1849197601
aI253019748
aL2927301033L
aI1375292017
aL2657382734L
aL2478247556L
aL2479260056L
aL2755923777L
aI14375294
aL2267701975L
aL2478207613L
aI17478928
aI25712530
aL2374856796L
aL2661495499L
aL2478213457L
aI278583986
aI820089192
aL2670116946L
aL2577359132L
aL2468097332L
aL2660018113L
aL2660007751L
aL2659916216L
aL2478155581L
aL2670091698L
aL2659960580L
aL2479263582L
aL2269740691L
aL2661699606L
aL2478208446L
aL2670163519L
aL2478317269L
aL2478305305L
aL2478097844L
aL2479263188L
aL2478122862L
aL2478069727L
aL2478023318L
aL2473370719L
aL2670110269L
aL2659957669L
aL2478283946L
aL2478008502L
aL2468103956L
aL2462770136L
aL2659972441L
aL2659951243L
aL2657415733L
aL2478066259L
aI43782326
aL2659927032L
aL2479251678L
aL2478310268L
aL2478285307L
aL2478279439L
aL2661465686L
aL2479261572L
aL2478274458L
aL2462539501L
aL2670134521L
aL2479281452L
aL2478313849L
aL2478284196L
aL2670123530L
aL2661528901L
aL2479276327L
aL2478216811L
aI22267609
aL2478128263L
aL2468103534L
aL2661488060L
aL2479270962L
aL2468081898L
aL2690938628L
aI352999575
aL2478038719L
aL2462816125L
aI145294106
aL2273213838L
aL2477997038L
aL2477986224L
aL2477991595L
aL2287251151L
aL2265249223L
aL2266354974L
aL2479299643L
aasS'obj'
p7
ccopy_reg
_reconstructor
p8
(ctweepy.models
User
p9
c__builtin__
object
p10
Ntp11
Rp12
(dp13
S'follow_request_sent'
p14
NsS'has_extended_profile'
p15
I00
sS'profile_use_background_image'
p16
I01
sS'profile_sidebar_fill_color'
p17
VDDEEF6
p18
sS'id'
p19
L2478139537L
sS'verified'
p20
I00
sS'entities'
p21
(dp22
Vdescription
p23
(dp24
Vurls
p25
(lp26
sssS'profile_image_url_https'
p27
Vhttps://pbs.twimg.com/profile_images/463258114456707072/fWKplVNm_normal.jpeg
p28
sS'_json'
p29
(dp30
Vfollow_request_sent
p31
NsVhas_extended_profile
p32
I00
sVprofile_use_background_image
p33
I01
sVdefault_profile_image
p34
I00
sVid
p35
L2478139537L
sVprofile_background_image_url_https
p36
Vhttps://abs.twimg.com/images/themes/theme1/bg.png
p37
sVverified
p38
I00
sVprofile_text_color
p39
V333333
p40
sVprofile_image_url_https
p41
g28
sVprofile_sidebar_fill_color
p42
g18
sVentities
p43
g22
sVfollowers_count
p44
I180
sVprofile_sidebar_border_color
p45
VC0DEED
p46
sVid_str
p47
V2478139537
p48
sVprofile_background_color
p49
VC0DEED
p50
sVlisted_count
p51
I29
sVstatus
p52
(dp53
Vcontributors
p54
NsVtruncated
p55
I00
sVtext
p56
VSign up for a Free Stock Alert for $VNO https://t.co/saJ6Wx9iYI  $$ #stock #investing
p57
sVin_reply_to_status_id
p58
Nsg35
L666501093380243456L
sVfavorite_count
p59
I0
sVsource
p60
V<a href="http://www.strategic-options.com" rel="nofollow">strategic_news</a>
p61
sVretweeted
p62
I00
sVcoordinates
p63
Nsg43
(dp64
Vsymbols
p65
(lp66
(dp67
Vindices
p68
(lp69
I35
aI39
asg56
VVNO
p70
sasVuser_mentions
p71
(lp72
sVhashtags
p73
(lp74
(dp75
g68
(lp76
I68
aI74
asg56
Vstock
p77
sa(dp78
g68
(lp79
I75
aI85
asg56
Vinvesting
p80
sasg25
(lp81
(dp82
Vurl
p83
Vhttps://t.co/saJ6Wx9iYI
p84
sg68
(lp85
I40
aI63
asVexpanded_url
p86
Vhttp://bit.ly/1SQ9PuD
p87
sVdisplay_url
p88
Vbit.ly/1SQ9PuD
p89
sassVin_reply_to_screen_name
p90
Nsg47
V666501093380243456
p91
sVretweet_count
p92
I0
sVin_reply_to_user_id
p93
NsVfavorited
p94
I00
sVgeo
p95
NsVin_reply_to_user_id_str
p96
NsVpossibly_sensitive
p97
I00
sVlang
p98
Ven
p99
sVcreated_at
p100
VTue Nov 17 06:20:18 +0000 2015
p101
sVin_reply_to_status_id_str
p102
NsVplace
p103
NssVis_translation_enabled
p104
I00
sVutc_offset
p105
NsVstatuses_count
p106
I2198
sg23
V
p107
sVfriends_count
p108
I173
sVlocation
p109
g107
sVprofile_link_color
p110
V0084B4
p111
sVprofile_image_url
p112
Vhttp://pbs.twimg.com/profile_images/463258114456707072/fWKplVNm_normal.jpeg
p113
sVfollowing
p114
NsVgeo_enabled
p115
I00
sVprofile_background_image_url
p116
Vhttp://abs.twimg.com/images/themes/theme1/bg.png
p117
sVscreen_name
p118
VRajnitk2012
p119
sg98
Ven
p120
sVprofile_background_tile
p121
I00
sVfavourites_count
p122
I0
sVname
p123
Vrajni
p124
sVnotifications
p125
Nsg83
Nsg100
VMon May 05 10:02:15 +0000 2014
p126
sVcontributors_enabled
p127
I00
sVtime_zone
p128
NsVprotected
p129
I00
sVdefault_profile
p130
I01
sVis_translator
p131
I00
ssS'contributors_enabled'
p132
I00
sS'profile_text_color'
p133
g40
sS'followers_count'
p134
I180
sS'profile_sidebar_border_color'
p135
g46
sS'id_str'
p136
g48
sS'default_profile_image'
p137
I00
sS'listed_count'
p138
I29
sS'status'
p139
g8
(ctweepy.models
Status
p140
g10
Ntp141
Rp142
(dp143
S'favorited'
p144
I00
sS'contributors'
p145
NsS'truncated'
p146
I00
sS'text'
p147
g57
sS'source_url'
p148
Vhttp://www.strategic-options.com
p149
sS'possibly_sensitive'
p150
I00
sS'in_reply_to_status_id'
p151
NsS'geo'
p152
Nsg19
L666501093380243456L
sS'favorite_count'
p153
I0
sS'lang'
p154
g99
sg21
g64
sS'created_at'
p155
cdatetime
datetime
p156
(S'\x07\xdf\x0b\x11\x06\x14\x12\x00\x00\x00'
p157
tp158
Rp159
sg29
g53
sS'coordinates'
p160
NsS'in_reply_to_user_id_str'
p161
NsS'source'
p162
Vstrategic_news
p163
sS'in_reply_to_status_id_str'
p164
NsS'in_reply_to_screen_name'
p165
Nsg136
g91
sS'retweeted'
p166
I00
sS'place'
p167
NsS'retweet_count'
p168
I0
sS'in_reply_to_user_id'
p169
NsbsS'is_translation_enabled'
p170
I00
sS'utc_offset'
p171
NsS'statuses_count'
p172
I2198
sS'description'
p173
g107
sS'friends_count'
p174
I173
sS'location'
p175
g107
sS'profile_link_color'
p176
g111
sS'profile_image_url'
p177
g113
sS'notifications'
p178
NsS'geo_enabled'
p179
I00
sS'profile_background_color'
p180
g50
sS'profile_background_image_url'
p181
g117
sS'screen_name'
p182
g119
sg154
g120
sg1
I00
sS'profile_background_tile'
p183
I00
sS'favourites_count'
p184
I0
sS'name'
p185
g124
sS'url'
p186
Nsg155
g156
(S'\x07\xde\x05\x05\n\x02\x0f\x00\x00\x00'
p187
tp188
Rp189
sS'profile_background_image_url_https'
p190
g37
sS'time_zone'
p191
NsS'protected'
p192
I00
sS'default_profile'
p193
I01
sS'is_translator'
p194
I00
sbs.