(dp0
S'following'
p1
(lp2
(lp3
I9555372
aI1583359764
aI342335287
aI1279624999
aI84562735
aI45875928
aI627765164
aI788333744
aI1289738107
aI350936749
aI409349725
aL3254020358L
aL3324205583L
aI343283519
aI1060400292
aI25273882
aI445074157
aI317126557
aL2801354423L
aI1923947209
aL2670116946L
aL2197997773L
aI192269796
aI59283983
aI1048145778
aI1036693716
aI15933274
aL2477997038L
aI626706066
aI1036661012
aI1057654208
aI62453193
aI92342279
aI611817117
aI253018040
aI38075629
aI1036469594
aI318074768
aI72910463
aL3050352081L
aI141308046
aI392562986
aI1246228315
aL2661488060L
aL2659960580L
aI1949322637
aI329801259
aI125161682
aI1930866174
aL2659927032L
aI1849197601
aI432769364
aL2478207613L
aI316480694
aI14375294
aL2670091698L
aL2479276327L
aI273984441
aL2479299643L
aL2657415733L
aI1870143788
aL2478097844L
aL2265249223L
aL2478155581L
aL2462770136L
aL2273213838L
aL2659916216L
aL2661528901L
aL2468081898L
aI19405407
aI71070452
aL2670110269L
aL2477991595L
aL2478279439L
aL2479263188L
aL2478313849L
aL2661495499L
aI1950025556
aL2657382734L
aL2267701975L
aL2478274458L
aL2468103956L
aL2478008502L
aI253007970
aI253007173
aL2478128263L
aL2661699606L
aL2478317269L
aL2670134521L
aI437573406
aL2478122862L
aL2478213457L
aL2269740691L
aL2478023318L
aL2478066259L
aL2670123530L
aL2659972441L
aL2478247556L
aL2478305305L
aL2478038719L
aL2478216811L
aL2468103534L
aL2660007751L
aL2478285307L
aL2659957669L
aL2660018113L
aL2479261572L
aL2479281452L
aL2670163519L
aL2659951243L
aL2462816125L
aL2478284196L
aL2661465686L
aL2477986224L
aL2478283946L
aL2478139537L
aL2479251678L
aI81195356
aI1870115742
aL2479260056L
aI1870172569
aL2462539501L
aL2473370719L
aL2478310268L
aL2468097332L
aL2478069727L
aL2287251151L
aL2478208446L
aL2479263582L
aL2266354974L
aasS'followers'
p4
(lp5
(lp6
L3174393298L
aL3904778679L
aI1583359764
aI1279624999
aI84562735
aI627765164
aI788333744
aI350936749
aL2529674335L
aI343283519
aI25273882
aI445074157
aI317126557
aL2881295311L
aI1923947209
aL3036973742L
aL3291136301L
aL2735251791L
aI626706066
aI253018040
aI611817117
aI318074768
aI125161682
aL2479263582L
aI329801259
aL2797825255L
aL2660018113L
aL2905716311L
aI1930866174
aL2938784475L
aL2660007751L
aI1849197601
aI316480694
aI14375294
aL2479260056L
aI1870143788
aL2267701975L
aL2468103956L
aL2266354974L
aL2478207613L
aL2479281452L
aL2478038719L
aI19405407
aL2661699606L
aL2661528901L
aL2661465686L
aL2468097332L
aL2265249223L
aL2608512432L
aL2670163519L
aL2478279439L
aL2659960580L
aL2657382734L
aL2479251678L
aL2478310268L
aL2273213838L
aI253007173
aI253007970
aL2659957669L
aL2473370719L
aL2468081898L
aL2462539501L
aL2661495499L
aL2478216811L
aL2478128263L
aL2468103534L
aL2670116946L
aL2659972441L
aL2657415733L
aL2479261572L
aL2479276327L
aL2478305305L
aL2478208446L
aL2478155581L
aL2670134521L
aL2670110269L
aL2659927032L
aL2478284196L
aL2659951243L
aL2479263188L
aL2478285307L
aL2478008502L
aL2659916216L
aL2478122862L
aL2478069727L
aL2477991595L
aL2670123530L
aL2661488060L
aL2478247556L
aL2477986224L
aL2670091698L
aL2462770136L
aL2478274458L
aL2269740691L
aL2478097844L
aL2477997038L
aI1870115742
aI81195356
aL2478213457L
aL2478066259L
aL2287251151L
aI1870172569
aL2462816125L
aL2478317269L
aL2478313849L
aL2478139537L
aL2478023318L
aL2479299643L
aL2478283946L
aasS'obj'
p7
ccopy_reg
_reconstructor
p8
(ctweepy.models
User
p9
c__builtin__
object
p10
Ntp11
Rp12
(dp13
S'follow_request_sent'
p14
NsS'has_extended_profile'
p15
I00
sS'profile_use_background_image'
p16
I01
sS'profile_sidebar_fill_color'
p17
VDDEEF6
p18
sS'id'
p19
L2479270962L
sS'verified'
p20
I00
sS'entities'
p21
(dp22
Vdescription
p23
(dp24
Vurls
p25
(lp26
sssS'profile_image_url_https'
p27
Vhttps://abs.twimg.com/sticky/default_profile_images/default_profile_0_normal.png
p28
sS'_json'
p29
(dp30
Vfollow_request_sent
p31
NsVhas_extended_profile
p32
I00
sVprofile_use_background_image
p33
I01
sVdefault_profile_image
p34
I01
sVid
p35
L2479270962L
sVprofile_background_image_url_https
p36
Vhttps://abs.twimg.com/images/themes/theme1/bg.png
p37
sVverified
p38
I00
sVprofile_text_color
p39
V333333
p40
sVprofile_image_url_https
p41
g28
sVprofile_sidebar_fill_color
p42
g18
sVentities
p43
g22
sVfollowers_count
p44
I109
sVprofile_sidebar_border_color
p45
VC0DEED
p46
sVid_str
p47
V2479270962
p48
sVprofile_background_color
p49
VC0DEED
p50
sVlisted_count
p51
I35
sVstatus
p52
(dp53
Vcontributors
p54
NsVtruncated
p55
I00
sVtext
p56
VSign up for a Free Stock Alert for $WYNN https://t.co/R6C9G11WX2  $$ #stock #investing
p57
sVin_reply_to_status_id
p58
Nsg35
L666500076152467456L
sVfavorite_count
p59
I0
sVsource
p60
V<a href="http://www.strategic-options.com" rel="nofollow">strategic_news</a>
p61
sVretweeted
p62
I00
sVcoordinates
p63
Nsg43
(dp64
Vsymbols
p65
(lp66
(dp67
Vindices
p68
(lp69
I35
aI40
asg56
VWYNN
p70
sasVuser_mentions
p71
(lp72
sVhashtags
p73
(lp74
(dp75
g68
(lp76
I69
aI75
asg56
Vstock
p77
sa(dp78
g68
(lp79
I76
aI86
asg56
Vinvesting
p80
sasg25
(lp81
(dp82
Vurl
p83
Vhttps://t.co/R6C9G11WX2
p84
sg68
(lp85
I41
aI64
asVexpanded_url
p86
Vhttp://bit.ly/1SQ9Qi6
p87
sVdisplay_url
p88
Vbit.ly/1SQ9Qi6
p89
sassVin_reply_to_screen_name
p90
Nsg47
V666500076152467456
p91
sVretweet_count
p92
I0
sVin_reply_to_user_id
p93
NsVfavorited
p94
I00
sVgeo
p95
NsVin_reply_to_user_id_str
p96
NsVpossibly_sensitive
p97
I00
sVlang
p98
Ven
p99
sVcreated_at
p100
VTue Nov 17 06:16:15 +0000 2015
p101
sVin_reply_to_status_id_str
p102
NsVplace
p103
NssVis_translation_enabled
p104
I00
sVutc_offset
p105
NsVstatuses_count
p106
I2329
sg23
V
p107
sVfriends_count
p108
I130
sVlocation
p109
g107
sVprofile_link_color
p110
V0084B4
p111
sVprofile_image_url
p112
Vhttp://abs.twimg.com/sticky/default_profile_images/default_profile_0_normal.png
p113
sVfollowing
p114
NsVgeo_enabled
p115
I00
sVprofile_background_image_url
p116
Vhttp://abs.twimg.com/images/themes/theme1/bg.png
p117
sVscreen_name
p118
Vpraveenk_p
p119
sg98
Ven
p120
sVprofile_background_tile
p121
I00
sVfavourites_count
p122
I0
sVname
p123
Vpraveenkumar@gmail.c
p124
sVnotifications
p125
Nsg83
Nsg100
VTue May 06 05:02:01 +0000 2014
p126
sVcontributors_enabled
p127
I00
sVtime_zone
p128
NsVprotected
p129
I00
sVdefault_profile
p130
I01
sVis_translator
p131
I00
ssS'contributors_enabled'
p132
I00
sS'profile_text_color'
p133
g40
sS'followers_count'
p134
I109
sS'profile_sidebar_border_color'
p135
g46
sS'id_str'
p136
g48
sS'default_profile_image'
p137
I01
sS'listed_count'
p138
I35
sS'status'
p139
g8
(ctweepy.models
Status
p140
g10
Ntp141
Rp142
(dp143
S'favorited'
p144
I00
sS'contributors'
p145
NsS'truncated'
p146
I00
sS'text'
p147
g57
sS'source_url'
p148
Vhttp://www.strategic-options.com
p149
sS'possibly_sensitive'
p150
I00
sS'in_reply_to_status_id'
p151
NsS'geo'
p152
Nsg19
L666500076152467456L
sS'favorite_count'
p153
I0
sS'lang'
p154
g99
sg21
g64
sS'created_at'
p155
cdatetime
datetime
p156
(S'\x07\xdf\x0b\x11\x06\x10\x0f\x00\x00\x00'
p157
tp158
Rp159
sg29
g53
sS'coordinates'
p160
NsS'in_reply_to_user_id_str'
p161
NsS'source'
p162
Vstrategic_news
p163
sS'in_reply_to_status_id_str'
p164
NsS'in_reply_to_screen_name'
p165
Nsg136
g91
sS'retweeted'
p166
I00
sS'place'
p167
NsS'retweet_count'
p168
I0
sS'in_reply_to_user_id'
p169
NsbsS'is_translation_enabled'
p170
I00
sS'utc_offset'
p171
NsS'statuses_count'
p172
I2329
sS'description'
p173
g107
sS'friends_count'
p174
I130
sS'location'
p175
g107
sS'profile_link_color'
p176
g111
sS'profile_image_url'
p177
g113
sS'notifications'
p178
NsS'geo_enabled'
p179
I00
sS'profile_background_color'
p180
g50
sS'profile_background_image_url'
p181
g117
sS'screen_name'
p182
g119
sg154
g120
sg1
I00
sS'profile_background_tile'
p183
I00
sS'favourites_count'
p184
I0
sS'name'
p185
g124
sS'url'
p186
Nsg155
g156
(S'\x07\xde\x05\x06\x05\x02\x01\x00\x00\x00'
p187
tp188
Rp189
sS'profile_background_image_url_https'
p190
g37
sS'time_zone'
p191
NsS'protected'
p192
I00
sS'default_profile'
p193
I01
sS'is_translator'
p194
I00
sbs.