(dp0
S'following'
p1
(lp2
(lp3
I23150360
aL2450948456L
aL3320029818L
aI134840422
aI948488467
aI21061460
aI402876893
aI409617637
aL2463277092L
aL2992414321L
aI820205892
aI1016065436
aL2463283153L
aL3313840060L
aI913114592
aI905960539
aL2888494182L
aL3180980998L
aL2732644778L
aI1393603976
aI280826651
aL2687891508L
aL3010386878L
aL2857452438L
aI16529873
aI1631531431
aL3154923455L
aI895615100
aI299364430
aI781319274
aI155998830
aL3395170581L
aI141453630
aL3382363841L
aI121158213
aI43111757
aI43010876
aI236953420
aL2704486915L
aL2802272246L
aI113084080
aI230111173
aI1705766478
aL3012483408L
aI1946314669
aI1233362096
aI198941291
aL2416974762L
aL2367661994L
aL3087724529L
aL2740115457L
aI42417984
aI534563976
aL2394624246L
aI47708973
aI302255972
aI402070746
aI150008368
aL2445459474L
aI439873015
aI100767876
aI1618641848
aI445568648
aI15377115
aI253351311
aL2346652446L
aI578453305
aL2825843719L
aI14238762
aL2171587139L
aI350256938
aL2986777776L
aI442035616
aI1281496315
aL2872138456L
aL3100645067L
aL3184637045L
aL3314169904L
aL3400457638L
aL3213750129L
aI788333744
aI29208414
aI1237445966
aI26493482
aI7153272
aI133675499
aI273402503
aI951416358
aI103924232
aI262684838
aL3333791873L
aL3394106188L
aI5416472
aI112696718
aL2252308742L
aL3222291459L
aL3081345050L
aL2934253866L
aI187871633
aL3299838832L
aL3427038507L
aL2788588083L
aL3293802296L
aI213455839
aL3272477064L
aI242469235
aI167802354
aasS'followers'
p4
(lp5
(lp6
I1958085248
aI577369988
aI880348268
aI597799971
aL3984399019L
aI33789593
aL2854814735L
aI211125180
aL3748238781L
aI400364870
aI135251922
aL2241401814L
aL3063301232L
aL3105740003L
aI1112967289
aL2411068242L
aL3405026375L
aL3222358997L
aI1350438097
aI259387703
aI869985108
aL2734976055L
aL2361661062L
aI29651794
aL4070558847L
aI82703923
aI1667214625
aL2180870413L
aI198869640
aL3883704746L
aL3409433439L
aL3690848661L
aI23274773
aL3810470233L
aI583390156
aI288251675
aL3975678015L
aL3028160926L
aL2869302790L
aI159223879
aI1367451606
aI1529917477
aI1281237642
aI1287444542
aL3302195785L
aI1077041924
aI604871206
aL3810537373L
aI52819606
aL2470197612L
aI1285949539
aL3609599783L
aL3241786790L
aL3571097118L
aL3152854929L
aL2419651428L
aL3523814716L
aL2782845331L
aI93420225
aI1117687584
aL3662599752L
aL3675278352L
aL3844580117L
aL3229142393L
aI1035869406
aI919281907
aI237883317
aL3356118914L
aL3803301083L
aL3379115890L
aI554290220
aL3551301672L
aL3280346918L
aI442195899
aI22292725
aL3352616025L
aL2178628141L
aL2453578782L
aI826037678
aI28041754
aI1705766478
aL3677270836L
aI22170451
aI66003821
aL3154923455L
aL2479766988L
aL3013241999L
aI139125768
aL3447312912L
aL3446852294L
aL2968301068L
aL2416974762L
aL2341525668L
aL3236749780L
aL2397893762L
aI1468232720
aI250317700
aL3232216366L
aL3457897220L
aL3480372078L
aI965812104
aL3480548713L
aL3480991573L
aL3480970932L
aL2855170383L
aL2450948456L
aL2321602086L
aI403598464
aI1153267992
aL3210527171L
aL2711332302L
aL3184637045L
aI148186622
aI113084080
aL3428684602L
aI141453630
aL2704486915L
aL2864524709L
aI486048874
aI1126919731
aL3320029818L
aL3421447753L
aI115921777
aI134840422
aI948488467
aI409617637
aI280826651
aI735560755
aL3249180246L
aL3395170581L
aI155998830
aI781319274
aI43111757
aI299364430
aL3476901613L
aL2201121968L
aI895615100
aI121158213
aI1631531431
aI16529873
aL2857452438L
aL3010386878L
aL3305558623L
aL2802272246L
aI47708973
aL2687891508L
aI1393603976
aL2732644778L
aL3180980998L
aL2888494182L
aI905960539
aI913114592
aL3313840060L
aL2463283153L
aI1016065436
aI820205892
aL2992414321L
aL2463277092L
aI402876893
aI384125284
aL2420921954L
aI604701612
aL3435706120L
aL3314610145L
aI150008368
aL3383239157L
aL3433944194L
aI359513176
aI21061460
aI1946314669
aL3384566187L
aI23341395
aI534563976
aI1375860338
aL2851614722L
aI230111173
aI402070746
aL3012483408L
aI1233362096
aI396218442
aI198941291
aL2740115457L
aL2367661994L
aI42417984
aL3522020243L
aL3087724529L
aL2394624246L
aI1618641848
aI302255972
aI701402984
aL3305714846L
aI439873015
aL2445459474L
aI445568648
aL3455845823L
aI15377115
aI1694936220
aL2171587139L
aI100767876
aI1546577725
aI7153272
aI578453305
aL3371707039L
aI1281496315
aL2825843719L
aI442035616
aI140371360
aI339839183
aI262684838
aI350256938
aL2986777776L
aL2872138456L
aI14238762
aL3100645067L
aL3400457638L
aL3314169904L
aL3213750129L
aI1237445966
aI29208414
aI26493482
aI788333744
aL3333791873L
aI5416472
aI951416358
aI253351311
aI112696718
aL3427038507L
aL3222291459L
aL3236074198L
aI133675499
aI103924232
aI273402503
aI187871633
aL3272477064L
aL3219903415L
aL3405798119L
aI1664026531
aL2346652446L
aL2220358122L
aI167802354
aI1319617610
aL2788588083L
aL3081345050L
aI242469235
aL3299838832L
aL3293802296L
aL2934253866L
aI213455839
aI548154196
aL3246072820L
aI34169840
aI825731240
aI544427471
aI96124700
aasS'obj'
p7
ccopy_reg
_reconstructor
p8
(ctweepy.models
User
p9
c__builtin__
object
p10
Ntp11
Rp12
(dp13
S'follow_request_sent'
p14
NsS'has_extended_profile'
p15
I00
sS'profile_use_background_image'
p16
I01
sS'profile_sidebar_fill_color'
p17
VC0DFEC
p18
sS'id'
p19
L2483973571L
sS'verified'
p20
I00
sS'entities'
p21
(dp22
Vurl
p23
(dp24
Vurls
p25
(lp26
(dp27
g23
Vhttp://t.co/01PVH3yExB
p28
sVindices
p29
(lp30
I0
aI22
asVexpanded_url
p31
Vhttp://www.psychtrade.com
p32
sVdisplay_url
p33
Vpsychtrade.com
p34
sassVdescription
p35
(dp36
g25
(lp37
sssS'profile_image_url_https'
p38
Vhttps://pbs.twimg.com/profile_images/489036923067850753/G9hLv29n_normal.png
p39
sS'_json'
p40
(dp41
Vfollow_request_sent
p42
NsVhas_extended_profile
p43
I00
sVprofile_use_background_image
p44
I01
sVdefault_profile_image
p45
I00
sVid
p46
L2483973571L
sVprofile_background_image_url_https
p47
Vhttps://abs.twimg.com/images/themes/theme15/bg.png
p48
sVverified
p49
I00
sVprofile_text_color
p50
V333333
p51
sVprofile_image_url_https
p52
g39
sVprofile_sidebar_fill_color
p53
g18
sVentities
p54
g22
sVfollowers_count
p55
I254
sVprofile_sidebar_border_color
p56
VA8C7F7
p57
sVid_str
p58
V2483973571
p59
sVprofile_background_color
p60
V022330
p61
sVlisted_count
p62
I11
sVstatus
p63
(dp64
Vcontributors
p65
NsVtruncated
p66
I00
sVtext
p67
VINFO: $AMG TRUST indicator (as seen by investors in News &amp; Social Media) marks stock as trustworthy. https://t.co/0RgUBh9etC
p68
sVin_reply_to_status_id
p69
Nsg46
L666271444456890368L
sVfavorite_count
p70
I0
sVsource
p71
V<a href="http://psychtrade.com/" rel="nofollow">PsychTrade bot</a>
p72
sVretweeted
p73
I00
sVcoordinates
p74
Nsg54
(dp75
Vsymbols
p76
(lp77
(dp78
g29
(lp79
I6
aI10
asg67
VAMG
p80
sasVuser_mentions
p81
(lp82
sVhashtags
p83
(lp84
sg25
(lp85
sVmedia
p86
(lp87
(dp88
g31
Vhttp://twitter.com/PsychTrade/status/666271444456890368/photo/1
p89
sg33
Vpic.twitter.com/0RgUBh9etC
p90
sg23
Vhttps://t.co/0RgUBh9etC
p91
sVmedia_url_https
p92
Vhttps://pbs.twimg.com/media/CT8SWTaWEAENBDj.png
p93
sg58
V666271444251316225
p94
sVsizes
p95
(dp96
Vlarge
p97
(dp98
Vh
p99
I700
sVresize
p100
Vfit
p101
sVw
p102
I1000
ssVsmall
p103
(dp104
g99
I237
sg100
Vfit
p105
sg102
I340
ssVmedium
p106
(dp107
g99
I420
sg100
Vfit
p108
sg102
I600
ssVthumb
p109
(dp110
g99
I150
sg100
Vcrop
p111
sg102
I150
sssg29
(lp112
I105
aI128
asVtype
p113
Vphoto
p114
sg46
L666271444251316225L
sVmedia_url
p115
Vhttp://pbs.twimg.com/media/CT8SWTaWEAENBDj.png
p116
sassVin_reply_to_screen_name
p117
Nsg58
V666271444456890368
p118
sVretweet_count
p119
I0
sVin_reply_to_user_id
p120
NsVfavorited
p121
I00
sVgeo
p122
NsVin_reply_to_user_id_str
p123
NsVpossibly_sensitive
p124
I00
sVlang
p125
Ven
p126
sVcreated_at
p127
VMon Nov 16 15:07:45 +0000 2015
p128
sVin_reply_to_status_id_str
p129
NsVplace
p130
NssVis_translation_enabled
p131
I00
sVutc_offset
p132
I-18000
sVstatuses_count
p133
I3681
sg35
VSee What The Market Thinks!\u000aBehavioral Market Analysis for Professional Traders.\u000aNews & Social Media Monitoring. Daily Psychological Insights for Investors.
p134
sVfriends_count
p135
I107
sVlocation
p136
VUS
p137
sVprofile_link_color
p138
V0084B4
p139
sVprofile_image_url
p140
Vhttp://pbs.twimg.com/profile_images/489036923067850753/G9hLv29n_normal.png
p141
sVfollowing
p142
NsVgeo_enabled
p143
I00
sVprofile_banner_url
p144
Vhttps://pbs.twimg.com/profile_banners/2483973571/1406636713
p145
sVprofile_background_image_url
p146
Vhttp://abs.twimg.com/images/themes/theme15/bg.png
p147
sVscreen_name
p148
VPsychTrade
p149
sg125
Ven
p150
sVprofile_background_tile
p151
I00
sVfavourites_count
p152
I0
sVname
p153
VPsych Trade
p154
sVnotifications
p155
Nsg23
Vhttp://t.co/01PVH3yExB
p156
sg127
VThu May 08 15:47:49 +0000 2014
p157
sVcontributors_enabled
p158
I00
sVtime_zone
p159
VEastern Time (US & Canada)
p160
sVprotected
p161
I00
sVdefault_profile
p162
I00
sVis_translator
p163
I00
ssS'contributors_enabled'
p164
I00
sS'profile_text_color'
p165
g51
sS'followers_count'
p166
I254
sS'profile_sidebar_border_color'
p167
g57
sS'id_str'
p168
g59
sS'default_profile_image'
p169
I00
sS'listed_count'
p170
I11
sS'status'
p171
g8
(ctweepy.models
Status
p172
g10
Ntp173
Rp174
(dp175
S'favorited'
p176
I00
sS'contributors'
p177
NsS'truncated'
p178
I00
sS'text'
p179
g68
sS'source_url'
p180
Vhttp://psychtrade.com/
p181
sS'possibly_sensitive'
p182
I00
sS'in_reply_to_status_id'
p183
NsS'geo'
p184
Nsg19
L666271444456890368L
sS'favorite_count'
p185
I0
sS'lang'
p186
g126
sg21
g75
sS'created_at'
p187
cdatetime
datetime
p188
(S'\x07\xdf\x0b\x10\x0f\x07-\x00\x00\x00'
p189
tp190
Rp191
sg40
g64
sS'coordinates'
p192
NsS'in_reply_to_user_id_str'
p193
NsS'source'
p194
VPsychTrade bot
p195
sS'in_reply_to_status_id_str'
p196
NsS'in_reply_to_screen_name'
p197
Nsg168
g118
sS'retweeted'
p198
I00
sS'place'
p199
NsS'retweet_count'
p200
I0
sS'in_reply_to_user_id'
p201
NsbsS'is_translation_enabled'
p202
I00
sS'utc_offset'
p203
I-18000
sS'statuses_count'
p204
I3681
sS'description'
p205
VSee What The Market Thinks!\u000aBehavioral Market Analysis for Professional Traders.\u000aNews & Social Media Monitoring. Daily Psychological Insights for Investors.
p206
sS'friends_count'
p207
I107
sS'location'
p208
g137
sS'profile_link_color'
p209
g139
sS'profile_image_url'
p210
g141
sS'notifications'
p211
NsS'geo_enabled'
p212
I00
sS'profile_background_color'
p213
g61
sS'profile_banner_url'
p214
g145
sS'profile_background_image_url'
p215
g147
sS'screen_name'
p216
g149
sg186
g150
sg1
I00
sS'profile_background_tile'
p217
I00
sS'favourites_count'
p218
I0
sS'name'
p219
g154
sS'url'
p220
g156
sg187
g188
(S'\x07\xde\x05\x08\x0f/1\x00\x00\x00'
p221
tp222
Rp223
sS'profile_background_image_url_https'
p224
g48
sS'time_zone'
p225
g160
sS'protected'
p226
I00
sS'default_profile'
p227
I00
sS'is_translator'
p228
I00
sbs.