(dp0
S'following'
p1
(lp2
(lp3
I19811190
aI844062990
aI31267919
aI25052051
aI16242081
aI129013195
aI210158817
aI14278978
aI3283901
aI14620362
aL2646235674L
aI14886375
aI7822742
aI14844272
aI193167461
aI16050554
aI781293
aI2569261
aI569413508
aI21328656
aI32709170
aI13348
aI1081
aI3840
aI14465607
aL2232300824L
aI978814999
aI311234209
aI13041
aI12831202
aI1330457336
aI13521702
aI17777789
aL2540665153L
aI6385432
aI29054405
aI13
aI20
aI42226885
aI2730791
aI94682674
aI168857946
aI113130846
aI183749519
aI44196397
aI14761795
aI15492359
aI10078
aI47539748
aI17297668
aI93957809
aI813286
aI22255654
aI50393960
aI12
aI17503180
aI37570179
aasS'followers'
p4
(lp5
(lp6
L2321789779L
aI1596059995
aI9555372
aI1694026214
aL2314289604L
aL3000236684L
aL2881130992L
aL3587837832L
aL2441935978L
aL3700098613L
aL2817966517L
aI198869640
aL2180870413L
aI1667214625
aL4006939912L
aL3073302127L
aI45562080
aL2841233056L
aL3397308257L
aL2837882056L
aI1643671244
aI422207602
aI1155086022
aL3891913336L
aI40014155
aI263359173
aI256836369
aI874302252
aL3337427494L
aI1467145945
aL3653266157L
aL3476901613L
aI17291444
aI24801537
aL2920254398L
aI555067319
aI449322789
aL3637075277L
aL3093823457L
aI1623323316
aL3491830887L
aI79188206
aL3192472682L
aI1545551100
aL2922822785L
aI28919018
aI70222801
aL3379425599L
aL2544575976L
aI1228090104
aI1174008438
aL3411671087L
aI268562537
aL3293398669L
aL2684184176L
aI1108260374
aI20750990
aL2847273268L
aL2545098687L
aL3309051153L
aL2781050528L
aI46244174
aL3401378877L
aI342601720
aI250317700
aI51336871
aL3158294575L
aL3394166878L
aI199964842
aI93465614
aL2935200078L
aI324994301
aI1894653319
aI1231756537
aI42562486
aL2595587727L
aL3233405483L
aL2308461457L
aL3254269142L
aI249480401
aL3358839059L
aI408785789
aI18684136
aI488278651
aI331755594
aI1579641343
aL3369740135L
aI617073994
aI1239147554
aI167232509
aL3337153336L
aL2756271902L
aL3332685418L
aI1634352224
aI126509842
aI401316403
aL3312528761L
aI344778169
aL2385321504L
aI438039577
aI285362838
aL3331814303L
aI51776106
aL2831727131L
aL3232480248L
aL3234805988L
aI769578506
aI402434981
aI377330000
aL2620218247L
aL3229826316L
aI626612323
aI117279344
aI1531525698
aI1638088291
aL3220072069L
aI85651667
aI492248877
aI31067314
aI287441095
aI497434575
aL3236735643L
aI1613752544
aI168857946
aI346072206
aI1118815166
aI459071753
aI162419093
aI25465666
aL3185607888L
aI14579415
aI59960815
aI14118179
aI214352581
aI35643668
aI75960143
aL3206956600L
aI54551885
aI53190879
aI501039344
aL2357309526L
aL3173362926L
aI915735512
aI342575378
aI629967576
aI863315184
aI114812571
aI133970935
aL2315487464L
aI18839295
aL3131320277L
aI430738001
aI30981458
aI389056397
aI303531344
aI16388578
aL2977716029L
aI18757582
aL3061667662L
aI1081
aI5662292
aI48145071
aI844062990
aL2945763483L
aL3122187429L
aI1870183668
aL2997788563L
aL2819501723L
aL2528005758L
aL3110160154L
aI67539092
aL3041582156L
aL3055864850L
aI16857735
aL3014523859L
aI887743975
aL2976865088L
aL2646235674L
aI27875398
aI18229276
aI858693414
aI354469488
aI343746547
aI1531628198
aI115088294
aI458547966
aL2341152092L
aI287885364
aI1598022187
aI1549366633
aI118158089
aL2883879117L
aI1581782214
aI1305228708
aI21694413
aI1021868479
aI98586663
aI14465607
aL2866563598L
aL2232300824L
aI560393093
aI867087384
aI257622444
aI124779106
aL2441915174L
aL2305140048L
aI30873863
aI102280060
aL2460768392L
aL2704556064L
aL2216519000L
aL2170613310L
aI14057492
aL2690698015L
aI14774804
aI1275929029
aI360196717
aI362405684
aI14992848
aL2753580101L
aL2893134987L
aI46029518
aL2916775848L
aI56988987
aI209354390
aI1896215124
aI611817117
aI192062297
aL2904098999L
aL2830139552L
aI147624108
aI308675403
aL2878820378L
aL2893336252L
aL2237079468L
aI569302303
aI364001509
aL2417993377L
aL2211743377L
aI1608442351
aI28095356
aI247065178
aI506029267
aI305198782
aL2845078228L
aI270369829
aI232963053
aL2889314461L
aI464029410
aI413476917
aI406748866
aI1692727952
aI1849056762
aI1371020640
aL2820946487L
aL2564267726L
aI465877189
aI17530908
aI98463429
aL2823428100L
aI48783009
aI1871806998
aI634661001
aL2435504030L
aI477609302
aI29043122
aI39916645
aI28720772
aL2261659524L
aI58999464
aI1068886340
aI1935438516
aI575582187
aI185012092
aI64351132
aI217159658
aI259493494
aI348551882
aL2608446166L
aI1392621313
aI409305918
aI31346151
aL2820746798L
aI235123254
aI1634042664
aI8430902
aL2505150566L
aI1321306663
aL2343757398L
aI588463085
aI539234779
aL2155227156L
aI255568007
aI54234228
aL2740172562L
aI81741768
aI21925211
aI540043434
aI1350694891
aL2442633026L
aI21544808
aI251499057
aI23851397
aI80702725
aL2600735286L
aI36668920
aI1319715690
aI17434486
aI630819906
aI538065716
aL2395105374L
aL2587235060L
aL2587240796L
aL2587230404L
aL2587233709L
aL2540665153L
aL2598747459L
aI51226805
aI33268930
aI231975215
aL2161815200L
aL2415399587L
aI500352766
aI247788883
aI18491428
aI1961064403
aL2409581528L
aL2493923694L
aI487776627
aL2293929590L
aI368434148
aI421903345
aI21117489
aI17777789
aasS'obj'
p7
ccopy_reg
_reconstructor
p8
(ctweepy.models
User
p9
c__builtin__
object
p10
Ntp11
Rp12
(dp13
S'follow_request_sent'
p14
I00
sS'has_extended_profile'
p15
I00
sS'profile_use_background_image'
p16
I01
sS'profile_sidebar_fill_color'
p17
VDDEEF6
p18
sS'id'
p19
L2491897104L
sS'verified'
p20
I00
sS'entities'
p21
(dp22
Vurl
p23
(dp24
Vurls
p25
(lp26
(dp27
g23
Vhttps://t.co/n10Nn8iGVx
p28
sVindices
p29
(lp30
I0
aI23
asVexpanded_url
p31
Vhttps://www.flashratings.com
p32
sVdisplay_url
p33
Vflashratings.com
p34
sassVdescription
p35
(dp36
g25
(lp37
sssS'profile_image_url_https'
p38
Vhttps://pbs.twimg.com/profile_images/525774056977489920/_sZKOqNr_normal.png
p39
sS'_json'
p40
(dp41
Vfollow_request_sent
p42
I00
sVhas_extended_profile
p43
I00
sVprofile_use_background_image
p44
I01
sVdefault_profile_image
p45
I00
sVid
p46
L2491897104L
sVprofile_background_image_url_https
p47
Vhttps://abs.twimg.com/images/themes/theme1/bg.png
p48
sVverified
p49
I00
sVprofile_text_color
p50
V333333
p51
sVprofile_image_url_https
p52
g39
sVprofile_sidebar_fill_color
p53
g18
sVentities
p54
g22
sVfollowers_count
p55
I334
sVprofile_sidebar_border_color
p56
VC0DEED
p57
sVid_str
p58
V2491897104
p59
sVprofile_background_color
p60
VC0DEED
p61
sVlisted_count
p62
I18
sVstatus
p63
(dp64
Vcontributors
p65
NsVtruncated
p66
I00
sVtext
p67
V5 Worst Analyst Rated Stocks in Last 7 Days: $DF $HP $ESVIF $WPRT $EVEP View all ratings here: https://t.co/c9pZ4QR5fM
p68
sVin_reply_to_status_id
p69
Nsg46
L666328363200442369L
sVfavorite_count
p70
I0
sVsource
p71
V<a href="http://twitter.com" rel="nofollow">Twitter Web Client</a>
p72
sVretweeted
p73
I00
sVcoordinates
p74
Nsg54
(dp75
Vsymbols
p76
(lp77
(dp78
g29
(lp79
I45
aI48
asg67
VDF
p80
sa(dp81
g29
(lp82
I49
aI52
asg67
VHP
p83
sa(dp84
g29
(lp85
I53
aI59
asg67
VESVIF
p86
sa(dp87
g29
(lp88
I60
aI65
asg67
VWPRT
p89
sa(dp90
g29
(lp91
I66
aI71
asg67
VEVEP
p92
sasVuser_mentions
p93
(lp94
sVhashtags
p95
(lp96
sg25
(lp97
(dp98
g23
Vhttps://t.co/c9pZ4QR5fM
p99
sg29
(lp100
I95
aI118
asg31
Vhttps://www.flashratings.com/stocks/worst_rated?t=7
p101
sg33
Vflashratings.com/stocks/worst_r\u2026
p102
sassVin_reply_to_screen_name
p103
Nsg58
V666328363200442369
p104
sVretweet_count
p105
I0
sVin_reply_to_user_id
p106
NsVfavorited
p107
I00
sVgeo
p108
NsVin_reply_to_user_id_str
p109
NsVpossibly_sensitive
p110
I00
sVlang
p111
Ven
p112
sVcreated_at
p113
VMon Nov 16 18:53:56 +0000 2015
p114
sVin_reply_to_status_id_str
p115
NsVplace
p116
NssVis_translation_enabled
p117
I00
sVutc_offset
p118
NsVstatuses_count
p119
I1441
sg35
V
p120
sVfriends_count
p121
I57
sVlocation
p122
VPalo Alto, CA
p123
sVprofile_link_color
p124
V1D4055
p125
sVprofile_image_url
p126
Vhttp://pbs.twimg.com/profile_images/525774056977489920/_sZKOqNr_normal.png
p127
sVfollowing
p128
I00
sVgeo_enabled
p129
I01
sVprofile_banner_url
p130
Vhttps://pbs.twimg.com/profile_banners/2491897104/1399951291
p131
sVprofile_background_image_url
p132
Vhttp://abs.twimg.com/images/themes/theme1/bg.png
p133
sVscreen_name
p134
VFlashRatings
p135
sg111
Ven
p136
sVprofile_background_tile
p137
I00
sVfavourites_count
p138
I14
sVname
p139
VFlashRatings
p140
sVnotifications
p141
I00
sg23
Vhttps://t.co/n10Nn8iGVx
p142
sg113
VMon May 12 20:03:37 +0000 2014
p143
sVcontributors_enabled
p144
I00
sVtime_zone
p145
NsVprotected
p146
I00
sVdefault_profile
p147
I00
sVis_translator
p148
I00
ssS'contributors_enabled'
p149
I00
sS'profile_text_color'
p150
g51
sS'followers_count'
p151
I334
sS'profile_sidebar_border_color'
p152
g57
sS'id_str'
p153
g59
sS'default_profile_image'
p154
I00
sS'listed_count'
p155
I18
sS'status'
p156
g8
(ctweepy.models
Status
p157
g10
Ntp158
Rp159
(dp160
S'favorited'
p161
I00
sS'contributors'
p162
NsS'truncated'
p163
I00
sS'text'
p164
g68
sS'source_url'
p165
Vhttp://twitter.com
p166
sS'possibly_sensitive'
p167
I00
sS'in_reply_to_status_id'
p168
NsS'geo'
p169
Nsg19
L666328363200442369L
sS'favorite_count'
p170
I0
sS'lang'
p171
g112
sg21
g75
sS'created_at'
p172
cdatetime
datetime
p173
(S'\x07\xdf\x0b\x10\x1258\x00\x00\x00'
p174
tp175
Rp176
sg40
g64
sS'coordinates'
p177
NsS'in_reply_to_user_id_str'
p178
NsS'source'
p179
VTwitter Web Client
p180
sS'in_reply_to_status_id_str'
p181
NsS'in_reply_to_screen_name'
p182
Nsg153
g104
sS'retweeted'
p183
I00
sS'place'
p184
NsS'retweet_count'
p185
I0
sS'in_reply_to_user_id'
p186
NsbsS'is_translation_enabled'
p187
I00
sS'utc_offset'
p188
NsS'statuses_count'
p189
I1441
sS'description'
p190
g120
sS'friends_count'
p191
I57
sS'location'
p192
g123
sS'profile_link_color'
p193
g125
sS'profile_image_url'
p194
g127
sS'notifications'
p195
I00
sS'geo_enabled'
p196
I01
sS'profile_background_color'
p197
g61
sS'profile_banner_url'
p198
g131
sS'profile_background_image_url'
p199
g133
sS'screen_name'
p200
g135
sg171
g136
sg1
I00
sS'profile_background_tile'
p201
I00
sS'favourites_count'
p202
I14
sS'name'
p203
g140
sS'url'
p204
g142
sg172
g173
(S'\x07\xde\x05\x0c\x14\x03%\x00\x00\x00'
p205
tp206
Rp207
sS'profile_background_image_url_https'
p208
g48
sS'time_zone'
p209
NsS'protected'
p210
I00
sS'default_profile'
p211
I00
sS'is_translator'
p212
I00
sbs.