(dp0
S'following'
p1
(lp2
(lp3
I295325513
aI34852878
aI1279746739
aI18925174
aI122565951
aI237019614
aI1171401
aI18741652
aI108376927
aI20172221
aI15537164
aI1162268034
aI465897557
aI42264358
aL3752278096L
aI36978283
aI47386875
aI15398165
aI6597892
aI1129558950
aI12794062
aI544778753
aI64800188
aI15765898
aI96682182
aI288982220
aL3279972204L
aL3386091143L
aI16518363
aI14802885
aL2396159701L
aI19664650
aL2747952128L
aI26523514
aL3186205728L
aI16228398
aI32002507
aI39275966
aI31869934
aI36728196
aI237591901
aI545618159
aI1376261370
aI212332850
aI38170974
aI1545994664
aI54502344
aI224359740
aI22475322
aI255388236
aI14216123
aI404422077
aI18326925
aI1951639321
aI24157123
aI20546736
aI1478353440
aI273752420
aI1067066472
aI19877186
aL2794752808L
aI1214430115
aL2573286602L
aI93477707
aI470292564
aI18949610
aI19785620
aI241239308
aI249090055
aI27650674
aI87984807
aI11630522
aI57016932
aI745640514
aI23184896
aL2330587177L
aI93727841
aI402948725
aL2746124047L
aL2306763750L
aI34191001
aI20445407
aI23003843
aI120242824
aI309313598
aI42641103
aL2560843575L
aI59949396
aI51676009
aI366365924
aI427797665
aI91375426
aI35404934
aI1478212410
aI17337857
aI191963550
aI524615064
aI58531658
aI39879120
aI14720523
aI27928803
aI50173087
aI100372245
aI22843337
aI486840302
aI18121373
aI43272765
aI153143831
aI153363070
aI26128503
aI164009893
aI15151228
aI86692458
aI82165951
aI89338596
aI467117137
aI193393159
aI343451653
aI1921114202
aI357036343
aI571025801
aI27045009
aI165944767
aI14466733
aI53140221
aI1621200505
aI1347071545
aI20565876
aI1534167900
aI174911419
aI342996314
aI66319302
aI1364930179
aI243442402
aI70498392
aI74051168
aI35915407
aI1318830680
aI117611534
aI125970114
aI624620754
aI70983710
aI222876742
aI110865231
aI398105054
aI1075137085
aI278386299
aI67574905
aI15809190
aI37615968
aI202797981
aI985485937
aI47825358
aI17791626
aI898301664
aI39085071
aI294919418
aI523917886
aI54019963
aI106725205
aI38476367
aI325539039
aI237433405
aI22708120
aI102499417
aI80223950
aI76950127
aI729270834
aI54664941
aI110539278
aI60398537
aI19988458
aI14816339
aI190398183
aI148052279
aI52166809
aI34713362
aI78971620
aI30043148
aI37555491
aI552053961
aI85332380
aI281849654
aI104646026
aI74231234
aI42026260
aI483682624
aI27793419
aI277596588
aI229590443
aI35535612
aI454779518
aI229023717
aI377202350
aI74520694
aI16751392
aI52319606
aI421537357
aI300338214
aI15536343
aI64337545
aI17257163
aI19739279
aI58337902
aI21048875
aI394259077
aI22522178
aI352947624
aI366328538
aI222867288
aI56054739
aI22988357
aI323013848
aI285124193
aI293018936
aI366392917
aI327484803
aI25941575
aI118593631
aI100592354
aI312701891
aI46599351
aI255870011
aI336858567
aI16371383
aI355845023
aI19891705
aI17512904
aI8524892
aI34639424
aI19224439
aI147564390
aI37284991
aI14708676
aI303863857
aI31580051
aI335747143
aI263000823
aI167738106
aI119797139
aI14117774
aI113711425
aI17549691
aI322143711
aI236953420
aI31969424
aI20464793
aI231175685
aI52802098
aI320462179
aI29241687
aI82711419
aI15368728
aI168679374
aI95089157
aI27990259
aI246434794
aI84402174
aI236955333
aI23926418
aI297472410
aI84221282
aI300034232
aI51912109
aI18840774
aI241991295
aI102116030
aI72907355
aI34837057
aI23630362
aI128564241
aI285877012
aI201039882
aI27878609
aI20080285
aI278876029
aI79037883
aI25954134
aI282072023
aI131344387
aI240406209
aI179033020
aI242167824
aI28861774
aI26326187
aI211602898
aI21415401
aI16846001
aI65611465
aI204115484
aI37090361
aI254727135
aI271954835
aI15763290
aI203794961
aI234531753
aI222328083
aI111020581
aI41188856
aI36507525
aI70223213
aI69469393
aI172511353
aI122225052
aI3108351
aI18909663
aI139180858
aI18127955
aI100870311
aI99704897
aI90551219
aI27902744
aI110144226
aI61295046
aI23193435
aI61500132
aI20462725
aI21436367
aI25614650
aI31148702
aI20103442
aI36078498
aI21990126
aI19575977
aI23046056
aI30287365
aI27941070
aI25479794
aI17056221
aasS'followers'
p4
(lp5
(lp6
L4108272159L
aL4120078699L
aL4157415958L
aL4180575314L
aL3412234392L
aL2470070724L
aL3319658149L
aL2315967278L
aL3380683738L
aI1380375433
aL2494987706L
aI1279746739
aI122565951
aI1457214456
aL3840977774L
aI1739960623
aI45415894
aL3188159190L
aI465897557
aL3752278096L
aL3645680054L
aI588559501
aL3280269872L
aL2178691566L
aL3424739116L
aL3394917671L
aI91483801
aL3220428355L
aI544778753
aL3307431384L
aL3386091143L
aL2747952128L
aI26523514
aL3186205728L
aL3192944934L
aL3235591681L
aL3060303160L
aI1706027426
aL2341525668L
aL3195760160L
aL2517112130L
aL3246514457L
aL3202427441L
aL3196341969L
aI24157123
aL3130191197L
aL2914650566L
aI339818114
aI280580813
aI392222409
aI576206566
aL3041029941L
aL3035602864L
aI1708437896
aL3027332759L
aI27045009
aI1478353440
aL3016103613L
aL2922115476L
aI1067066472
aI103044661
aI1214430115
aL2573286602L
aL2906364156L
aI93477707
aL2190754292L
aI18949610
aI19785620
aL2818981979L
aL2462850344L
aI1683832573
aL2799317231L
aL2839175635L
aL2562815582L
aI716044325
aI23184896
aL2789032640L
aI73484903
aI941626969
aI209661487
aI402948725
aL2746124047L
aI17791626
aL2306763750L
aI85332380
aI34191001
aI214736463
aL2591580974L
aI20445407
aI23003843
aI309313598
aI131160311
aI174113486
aL2560843575L
aI1654975046
aL2296961192L
aL2409661092L
aI43272765
aI1434386048
aI394175757
aL2372535208L
aI17904056
aI242607215
aL2329013632L
aI26410257
aI324099128
aL2246550811L
aI50173087
aI429366740
aI21759987
aI153143831
aI796638812
aL2226399092L
aI164009893
aI15151228
aI63870858
aI330369323
aI467117137
aI193393159
aI343451653
aI840361196
aI1921114202
aI47727185
aI571025801
aI1485773706
aI1638803018
aI1358426118
aI53140221
aI1621200505
aI14466733
aI256534534
aI35492750
aI174911419
aI19074830
aI1009173906
aI951874856
aI573610783
aI357036343
aI66319302
aI435139136
aI14708676
aI24749103
aI1318830680
aI1309261152
aI117611534
aI187089713
aI1283960334
aI1273771777
aI228557220
aI175474637
aI1253034223
aI1223031589
aI188605723
aI88337982
aI110865231
aI116580645
aI1075137085
aI817389482
aI745981110
aI67574905
aI202797981
aI636441598
aI281849654
aI987545462
aI985485937
aI24327771
aI868215091
aI523917886
aI475106163
aI859705728
aI339039253
aI41769211
aI22708120
aI44481898
aI128317839
aI430280075
aI527771254
aI80223950
aI264489310
aI621088607
aI729270834
aI537524410
aI715874960
aI520523646
aI617823291
aI633111349
aI237060541
aI74520694
aI629174968
aI212719477
aI454128469
aI572547831
aI37555491
aI524561372
aI552053961
aI531272335
aI74231234
aI14117774
aI237433405
aI203219567
aI190401781
aI376677367
aI46149673
aI37972327
aI42026260
aI430170892
aI480071031
aI35535612
aI454779518
aI238154060
aI229023717
aI336885266
aI419012838
aI421537357
aI64337545
aI413410662
aI399552733
aI399549866
aI343714187
aI58337902
aI396540943
aI393911117
aI231563228
aI394259077
aI71057180
aI233367952
aI170354243
aI366328538
aI263319941
aI14886375
aI367366715
aI22988357
aI323013848
aI285124193
aI293018936
aI239929563
aI241335853
aI366392917
aI25941575
aI118593631
aI311771616
aI255870011
aI31580051
aI336858567
aI356730983
aI355845023
aI221040403
aI260630189
aI288135927
aI170852263
aI347862382
aI34639424
aI342996314
aI119797139
aI147564390
aI329373266
aI26302432
aI303863857
aI336557706
aI128564241
aI335747143
aI113711425
aI167738106
aI24890911
aI190398183
aI322143711
aI33486942
aI257521117
aI31969424
aI20464793
aI231175685
aI52802098
aI320462179
aI300034232
aI278386299
aI306474754
aI297472410
aI309196559
aI246434794
aI306332435
aI222328083
aI303835812
aI23926418
aI70356556
aI277023592
aI81010249
aI84221282
aI285988457
aI18840774
aI40380506
aI208037540
aI23630362
aI193570421
aI285877012
aI236926189
aI119535834
aI201039882
aI27878609
aI20080285
aI79037883
aI25954134
aI282072023
aI235163763
aI21547530
aI14816339
aI26326187
aI211602898
aI16952769
aI16846001
aI65611465
aI21415401
aI204115484
aI37090361
aI28861774
aI15763290
aI271954835
aI203794961
aI242167824
aI179033020
aI254727135
aI241991295
aI21681921
aI240406209
aI234531753
aI25627008
aI111020581
aI41188856
aI36014015
aI188423555
aI131344387
aI69469393
aI172511353
aI169441302
aI16751392
aI139180858
aI100656186
aI100870311
aI110144226
aI117458610
aI99704897
aI27902744
aI90551219
aI61295046
aI89338596
aI23193435
aI87760159
aI81506239
aI52351424
aI20462725
aI57495165
aI39258595
aI49771532
aI49016992
aI39382298
aI21436367
aI38954838
aI30287365
aI20103442
aI21990126
aI27907548
aI36078498
aI34707218
aI33298808
aI20966529
aI26538388
aI27941070
aI17075147
aI21357654
aI25479794
aI17056221
aasS'obj'
p7
ccopy_reg
_reconstructor
p8
(ctweepy.models
User
p9
c__builtin__
object
p10
Ntp11
Rp12
(dp13
S'follow_request_sent'
p14
I00
sS'has_extended_profile'
p15
I00
sS'profile_use_background_image'
p16
I01
sS'profile_sidebar_fill_color'
p17
VEFEFEF
p18
sS'id'
p19
I25026867
sS'verified'
p20
I00
sS'entities'
p21
(dp22
Vurl
p23
(dp24
Vurls
p25
(lp26
(dp27
g23
Vhttp://t.co/cee3QtSB7f
p28
sVindices
p29
(lp30
I0
aI22
asVexpanded_url
p31
Vhttp://hecklerhouse.net
p32
sVdisplay_url
p33
Vhecklerhouse.net
p34
sassVdescription
p35
(dp36
g25
(lp37
sssS'profile_image_url_https'
p38
Vhttps://pbs.twimg.com/profile_images/559526956404707329/vusxkckP_normal.jpeg
p39
sS'_json'
p40
(dp41
Vfollow_request_sent
p42
I00
sVhas_extended_profile
p43
I00
sVprofile_use_background_image
p44
I01
sVdefault_profile_image
p45
I00
sVid
p46
I25026867
sVprofile_background_image_url_https
p47
Vhttps://pbs.twimg.com/profile_background_images/60840184/twitterbg.jpg
p48
sVverified
p49
I00
sVprofile_text_color
p50
V333333
p51
sVprofile_image_url_https
p52
g39
sVprofile_sidebar_fill_color
p53
g18
sVentities
p54
g22
sVfollowers_count
p55
I370
sVprofile_sidebar_border_color
p56
VEEEEEE
p57
sVid_str
p58
V25026867
p59
sVprofile_background_color
p60
V131516
p61
sVlisted_count
p62
I16
sVstatus
p63
(dp64
Vcontributors
p65
NsVtruncated
p66
I00
sVtext
p67
VRT @aenguscawley: better than tv https://t.co/YVQYVFOBSu
p68
sVin_reply_to_status_id
p69
Nsg46
L666351296832602112L
sVfavorite_count
p70
I0
sVsource
p71
V<a href="http://twitter.com" rel="nofollow">Twitter Web Client</a>
p72
sVretweeted
p73
I00
sVcoordinates
p74
Nsg54
(dp75
Vsymbols
p76
(lp77
sVuser_mentions
p78
(lp79
(dp80
g46
I20103442
sg29
(lp81
I3
aI16
asg58
V20103442
p82
sVscreen_name
p83
Vaenguscawley
p84
sVname
p85
Vaengus f. cawley
p86
sasVhashtags
p87
(lp88
sg25
(lp89
sVmedia
p90
(lp91
(dp92
Vsource_user_id
p93
I20103442
sVsource_status_id_str
p94
V666351227509207041
p95
sg31
Vhttp://twitter.com/aenguscawley/status/666351227509207041/photo/1
p96
sg33
Vpic.twitter.com/YVQYVFOBSu
p97
sg23
Vhttps://t.co/YVQYVFOBSu
p98
sVmedia_url_https
p99
Vhttps://pbs.twimg.com/media/CT9a3OIUEAAQkmF.jpg
p100
sVsource_user_id_str
p101
V20103442
p102
sVsource_status_id
p103
L666351227509207041L
sg58
V666351174606393344
p104
sVsizes
p105
(dp106
Vsmall
p107
(dp108
Vh
p109
I255
sVresize
p110
Vfit
p111
sVw
p112
I340
ssVlarge
p113
(dp114
g109
I768
sg110
Vfit
p115
sg112
I1024
ssVmedium
p116
(dp117
g109
I450
sg110
Vfit
p118
sg112
I600
ssVthumb
p119
(dp120
g109
I150
sg110
Vcrop
p121
sg112
I150
sssg29
(lp122
I33
aI56
asVtype
p123
Vphoto
p124
sg46
L666351174606393344L
sVmedia_url
p125
Vhttp://pbs.twimg.com/media/CT9a3OIUEAAQkmF.jpg
p126
sassVin_reply_to_screen_name
p127
Nsg58
V666351296832602112
p128
sVretweet_count
p129
I1
sVin_reply_to_user_id
p130
NsVfavorited
p131
I00
sVretweeted_status
p132
(dp133
g65
Nsg66
I00
sg67
Vbetter than tv https://t.co/YVQYVFOBSu
p134
sg69
Nsg46
L666351227509207041L
sg70
I1
sg71
V<a href="http://twitter.com/download/iphone" rel="nofollow">Twitter for iPhone</a>
p135
sg73
I00
sg74
Nsg54
(dp136
g76
(lp137
sg78
(lp138
sg87
(lp139
sg25
(lp140
sg90
(lp141
(dp142
g31
Vhttp://twitter.com/aenguscawley/status/666351227509207041/photo/1
p143
sg33
Vpic.twitter.com/YVQYVFOBSu
p144
sg23
Vhttps://t.co/YVQYVFOBSu
p145
sg99
Vhttps://pbs.twimg.com/media/CT9a3OIUEAAQkmF.jpg
p146
sg58
V666351174606393344
p147
sg105
(dp148
g107
(dp149
g109
I255
sg110
Vfit
p150
sg112
I340
ssg113
(dp151
g109
I768
sg110
Vfit
p152
sg112
I1024
ssg116
(dp153
g109
I450
sg110
Vfit
p154
sg112
I600
ssg119
(dp155
g109
I150
sg110
Vcrop
p156
sg112
I150
sssg29
(lp157
I15
aI38
asg123
Vphoto
p158
sg46
L666351174606393344L
sg125
Vhttp://pbs.twimg.com/media/CT9a3OIUEAAQkmF.jpg
p159
sassg127
Nsg58
V666351227509207041
p160
sg129
I1
sg130
Nsg131
I00
sVgeo
p161
NsVin_reply_to_user_id_str
p162
NsVpossibly_sensitive
p163
I00
sVlang
p164
Ven
p165
sVcreated_at
p166
VMon Nov 16 20:24:47 +0000 2015
p167
sVin_reply_to_status_id_str
p168
NsVplace
p169
(dp170
Vcountry_code
p171
VCA
p172
sg23
Vhttps://api.twitter.com/1.1/geo/id/1e5cb4d0509db554.json
p173
sVcountry
p174
VCanada
p175
sVplace_type
p176
Vcity
p177
sVbounding_box
p178
(dp179
g123
VPolygon
p180
sg74
(lp181
(lp182
(lp183
F-123.224273
aF49.1985402
aa(lp184
F-123.022947
aF49.1985402
aa(lp185
F-123.022947
aF49.316738
aa(lp186
F-123.224273
aF49.316738
aaassVcontained_within
p187
(lp188
sVfull_name
p189
VVancouver, British Columbia
p190
sVattributes
p191
(dp192
sg46
V1e5cb4d0509db554
p193
sg85
VVancouver
p194
sssg161
Nsg162
Nsg163
I00
sg164
Ven
p195
sg166
VMon Nov 16 20:25:04 +0000 2015
p196
sg168
Nsg169
NssVis_translation_enabled
p197
I00
sVutc_offset
p198
I-18000
sVstatuses_count
p199
I9111
sg35
VInuit // Trading equities, riding my snowboard, and playing musical instruments //
p200
sVfriends_count
p201
I329
sVlocation
p202
VEverywhere
p203
sVprofile_link_color
p204
V009999
p205
sVprofile_image_url
p206
Vhttp://pbs.twimg.com/profile_images/559526956404707329/vusxkckP_normal.jpeg
p207
sVfollowing
p208
I00
sVgeo_enabled
p209
I00
sVprofile_banner_url
p210
Vhttps://pbs.twimg.com/profile_banners/25026867/1403547836
p211
sVprofile_background_image_url
p212
Vhttp://pbs.twimg.com/profile_background_images/60840184/twitterbg.jpg
p213
sg83
Vhecklerhouse
p214
sg164
Ven
p215
sVprofile_background_tile
p216
I00
sVfavourites_count
p217
I1413
sg85
VHeckler Yessir
p218
sVnotifications
p219
I00
sg23
Vhttp://t.co/cee3QtSB7f
p220
sg166
VWed Mar 18 04:19:30 +0000 2009
p221
sVcontributors_enabled
p222
I00
sVtime_zone
p223
VEastern Time (US & Canada)
p224
sVprotected
p225
I00
sVdefault_profile
p226
I00
sVis_translator
p227
I00
ssS'contributors_enabled'
p228
I00
sS'profile_text_color'
p229
g51
sS'followers_count'
p230
I370
sS'profile_sidebar_border_color'
p231
g57
sS'id_str'
p232
g59
sS'default_profile_image'
p233
I00
sS'listed_count'
p234
I16
sS'status'
p235
g8
(ctweepy.models
Status
p236
g10
Ntp237
Rp238
(dp239
S'favorited'
p240
I00
sS'contributors'
p241
NsS'truncated'
p242
I00
sS'text'
p243
g68
sS'source_url'
p244
Vhttp://twitter.com
p245
sS'possibly_sensitive'
p246
I00
sS'in_reply_to_status_id'
p247
NsS'geo'
p248
Nsg19
L666351296832602112L
sS'favorite_count'
p249
I0
sS'lang'
p250
g195
sS'retweeted_status'
p251
g8
(g236
g10
Ntp252
Rp253
(dp254
g240
I00
sg241
Nsg242
I00
sg243
g134
sg244
Vhttp://twitter.com/download/iphone
p255
sg246
I00
sg247
Nsg248
Nsg19
L666351227509207041L
sg249
I1
sg250
g165
sg21
g136
sS'created_at'
p256
cdatetime
datetime
p257
(S'\x07\xdf\x0b\x10\x14\x18/\x00\x00\x00'
p258
tp259
Rp260
sg40
g133
sS'coordinates'
p261
NsS'in_reply_to_user_id_str'
p262
NsS'source'
p263
VTwitter for iPhone
p264
sS'in_reply_to_status_id_str'
p265
NsS'in_reply_to_screen_name'
p266
Nsg232
g160
sS'retweeted'
p267
I00
sS'place'
p268
g8
(ctweepy.models
Place
p269
g10
Ntp270
Rp271
(dp272
S'country_code'
p273
g172
sS'url'
p274
g173
sS'country'
p275
g175
sS'place_type'
p276
g177
sS'bounding_box'
p277
g8
(ctweepy.models
BoundingBox
p278
g10
Ntp279
Rp280
(dp281
S'type'
p282
g180
sg261
g181
sbsS'contained_within'
p283
g8
(ctweepy.models
ResultSet
p284
c__builtin__
list
p285
(lp286
tp287
Rp288
(dp289
S'_since_id'
p290
NsS'_max_id'
p291
NsbsS'full_name'
p292
g190
sS'attributes'
p293
g192
sg19
g193
sS'name'
p294
g194
sbsS'retweet_count'
p295
I1
sS'in_reply_to_user_id'
p296
Nsbsg21
g75
sg256
g257
(S'\x07\xdf\x0b\x10\x14\x19\x04\x00\x00\x00'
p297
tp298
Rp299
sg40
g64
sg261
Nsg262
Nsg263
VTwitter Web Client
p300
sg265
Nsg266
Nsg232
g128
sg267
I00
sg268
Nsg295
I1
sg296
NsbsS'is_translation_enabled'
p301
I00
sS'utc_offset'
p302
I-18000
sS'statuses_count'
p303
I9111
sS'description'
p304
g200
sS'friends_count'
p305
I329
sS'location'
p306
g203
sS'profile_link_color'
p307
g205
sS'profile_image_url'
p308
g207
sS'notifications'
p309
I00
sS'geo_enabled'
p310
I00
sS'profile_background_color'
p311
g61
sS'profile_banner_url'
p312
g211
sS'profile_background_image_url'
p313
g213
sS'screen_name'
p314
g214
sg250
g215
sg1
I00
sS'profile_background_tile'
p315
I00
sS'favourites_count'
p316
I1413
sg294
g218
sg274
g220
sg256
g257
(S'\x07\xd9\x03\x12\x04\x13\x1e\x00\x00\x00'
p317
tp318
Rp319
sS'profile_background_image_url_https'
p320
g48
sS'time_zone'
p321
g224
sS'protected'
p322
I00
sS'default_profile'
p323
I00
sS'is_translator'
p324
I00
sbs.