(dp0
S'following'
p1
(lp2
(lp3
I837534200
aL3426014292L
aI166938112
aL3132398951L
aI144708860
aI1089995593
aI31205213
aL3387662945L
aL2370604700L
aI16999433
aL3973549452L
aI264496980
aL3437267054L
aI89491245
aI433664446
aL2487957738L
aI132949732
aI50758087
aI1330741110
aI23544268
aL3029200185L
aI102754598
aI194137231
aI349491835
aI318023955
aI25290623
aI41458395
aI59949396
aL2752494235L
aI262359713
aI175409819
aI41602160
aL2842405026L
aI119807909
aI16451932
aI26141091
aI25073877
aI66544351
aI482658470
aI749952350
aL2234457918L
aL3184907296L
aI607467211
aI779229188
aL3301719952L
aL3140544930L
aI402469255
aI289311242
aI111054964
aI84312619
aI16460151
aI102689724
aI1965295705
aI1048879194
aI785935140
aL2482407307L
aL3035804476L
aL2415396042L
aL2926129144L
aI22175924
aI586189030
aI1708603771
aI1001726569
aI517222594
aI1301920176
aL2258893508L
aI166816694
aI368055938
aI1550967517
aI559118898
aI160625399
aI1132786314
aI51932290
aI65261162
aI597480797
aL2895359225L
aI274233761
aI17442457
aL2282010276L
aI1959914028
aI24201182
aL2867445928L
aI28489821
aI14361727
aI1621196761
aI462287315
aI233772709
aI204149161
aI18294275
aI18294197
aI21328656
aI16331010
aI216881337
aI770904320
aI214738845
aI1941253760
aL2738267581L
aL2651596849L
aL2359741130L
aL2398642405L
aI386616537
aI199110089
aI44060322
aI735588145
aI19939814
aI1438162062
aI17764377
aI1506550260
aI525821517
aI369583954
aL2828536458L
aL2544756307L
aI287413569
aI843112550
aI19380829
aI832471260
aI149760844
aL2690637547L
aL2378056412L
aI1665731966
aL2331273163L
aI1373402480
aI19877186
aI15508395
aI310463188
aI1538106134
aL2372798065L
aI102527566
aI91478624
aI1669575696
aL2377543434L
aL2364474715L
aI7144422
aI277230935
aI2467791
aL2422753567L
aI279598812
aI443215941
aI602397399
aL2381039936L
aI14829533
aI463069176
aL2250869149L
aI3108351
aI237845487
aI18369812
aI572225652
aI119372054
aI66590132
aI1268404226
aL2363192895L
aI18589250
aI28061932
aI28562317
aI632341632
aI820031509
aI14216123
aI158639291
aI20566850
aI196168350
aI305221233
aI412362576
aI744650100
aI1177065859
aI168186079
aI294053762
aI55117855
aI49663664
aI45539593
aI17828988
aI30364057
aI149590738
aI376154503
aI102094857
aI12056152
aI18208354
aI15981613
aI246481013
aasS'followers'
p4
(lp5
(lp6
I346763751
aL3064400474L
aI118376646
aL2617920385L
aL3304296724L
aI49796529
aI818993779
aI1107398995
aI190265084
aL2845596897L
aI244321682
aI32356384
aI166938112
aI887660666
aI60784269
aL3412167912L
aI487271718
aL3403954000L
aI42912883
aL2487957738L
aI1669131266
aI32627702
aI757946676
aL3920614221L
aL3281484279L
aL3384139461L
aL2408038189L
aL3236692623L
aI1170386876
aI1382153222
aL2178458570L
aL3688918636L
aL3249002581L
aI1545630956
aI834005522
aL3546245177L
aI289311242
aL3255318623L
aI537351590
aI302690890
aL3322191608L
aL2926129144L
aL3290730469L
aL3370410400L
aI349491835
aI192561559
aI318023955
aL2752494235L
aL3349441653L
aI37528064
aI119807909
aI205944076
aI1514874792
aI553866894
aI37763594
aI380784479
aI264496980
aI14153106
aI634841391
aI711057236
aI250317700
aI1613721859
aL3322171275L
aL2414734766L
aI1259343733
aL2935459082L
aI1233362096
aI23161106
aI1048879194
aL3035804476L
aI424529834
aI139404921
aI51932290
aI28489821
aI376154503
aL2951513400L
aI170814162
aI15897179
aL3012561618L
aL2376301907L
aI503633271
aI1009886558
aI24201182
aL3119470051L
aL2922234899L
aI233772709
aI232087439
aL2420011614L
aI58424917
aL2435505893L
aL2368267530L
aL3012599502L
aI1606855724
aL2361655766L
aL2783668379L
aI33942807
aL2398642405L
aL2928005893L
aL2911070687L
aL2917925022L
aI1669575696
aL2716990300L
aI368051933
aL2798617321L
aL2828536458L
aL2785400531L
aL2544756307L
aI738933182
aL2365875473L
aL2322427034L
aL2741363039L
aI330537540
aI57082483
aI1373402480
aI36293963
aL2455079965L
aI70164672
aI435084805
aL2377543434L
aI229308280
aI60407575
aI106533536
aL2407200081L
aI241306820
aI422349123
aI494675659
aI1428733476
aI1036648159
aI1430924886
aL2408019354L
aL2365555216L
aI304597194
aI1018182966
aL2413356012L
aL2250869149L
aI1273298390
aI32386123
aI17767006
aI224312540
aI813662455
aI822884701
aI1498757030
aL2438243657L
aL2439335188L
aL2429144274L
aL2400636938L
aI240373541
aL2381039936L
aI174965200
aI524525604
aL2335821942L
aL2336826736L
aI909102175
aI302121863
aL2412487410L
aL2408339976L
aI474428104
aI278131585
aI808261266
aI1221926641
aL2405548946L
aL2409726542L
aL2363293591L
aL2287377841L
aL2363507684L
aL2401214052L
aL2185041662L
aL2306880152L
aL2352224306L
aL2395136784L
aL2387820764L
aL2347405526L
aL2307056461L
aL2361478872L
aL2399460329L
aL2358645570L
aI457536893
aI286417660
aL2345968192L
aL2368103158L
aL2363192895L
aI286209122
aI1069228003
aL2314318148L
aI287426817
aL2358999630L
aL2282402046L
aI13131362
aI385414353
aL2327522774L
aI602397399
aI45539593
aI34610263
aI105217332
aL2317638313L
aI151524430
aI14902429
aI70218015
aL2323227033L
aI140149665
aI1682397852
aI288347087
aI1276496473
aI64888916
aI1260694844
aasS'obj'
p7
ccopy_reg
_reconstructor
p8
(ctweepy.models
User
p9
c__builtin__
object
p10
Ntp11
Rp12
(dp13
S'follow_request_sent'
p14
NsS'has_extended_profile'
p15
I00
sS'profile_use_background_image'
p16
I01
sS'profile_sidebar_fill_color'
p17
VDDEEF6
p18
sS'id'
p19
I251798063
sS'verified'
p20
I00
sS'entities'
p21
(dp22
Vdescription
p23
(dp24
Vurls
p25
(lp26
sssS'profile_image_url_https'
p27
Vhttps://pbs.twimg.com/profile_images/603747244878200832/Y8m5DNLA_normal.jpg
p28
sS'_json'
p29
(dp30
Vfollow_request_sent
p31
NsVhas_extended_profile
p32
I00
sVprofile_use_background_image
p33
I01
sVdefault_profile_image
p34
I00
sVid
p35
I251798063
sVprofile_background_image_url_https
p36
Vhttps://abs.twimg.com/images/themes/theme1/bg.png
p37
sVverified
p38
I00
sVprofile_text_color
p39
V333333
p40
sVprofile_image_url_https
p41
g28
sVprofile_sidebar_fill_color
p42
g18
sVentities
p43
g22
sVfollowers_count
p44
I205
sVprofile_sidebar_border_color
p45
VC0DEED
p46
sVid_str
p47
V251798063
p48
sVprofile_background_color
p49
VC0DEED
p50
sVlisted_count
p51
I11
sVstatus
p52
(dp53
Vcontributors
p54
NsVtruncated
p55
I00
sVtext
p56
VRT @tgtxdough: CS $ALDR mgt meeting Alder ALDR, Outperform, $50 Target Price) https://t.co/lVnIxSyAhQ
p57
sVin_reply_to_status_id
p58
Nsg35
L666476617997393920L
sVfavorite_count
p59
I0
sVsource
p60
V<a href="http://twitter.com/#!/download/ipad" rel="nofollow">Twitter for iPad</a>
p61
sVretweeted
p62
I00
sVcoordinates
p63
Nsg43
(dp64
Vsymbols
p65
(lp66
(dp67
Vindices
p68
(lp69
I18
aI23
asg56
VALDR
p70
sasVuser_mentions
p71
(lp72
(dp73
g35
L3426014292L
sg68
(lp74
I3
aI13
asg47
V3426014292
p75
sVscreen_name
p76
Vtgtxdough
p77
sVname
p78
Vdough
p79
sasVhashtags
p80
(lp81
sg25
(lp82
sVmedia
p83
(lp84
(dp85
Vsource_user_id
p86
L3426014292L
sVsource_status_id_str
p87
V666458664220405760
p88
sVexpanded_url
p89
Vhttp://twitter.com/tgtxdough/status/666458664220405760/photo/1
p90
sVdisplay_url
p91
Vpic.twitter.com/lVnIxSyAhQ
p92
sVurl
p93
Vhttps://t.co/lVnIxSyAhQ
p94
sVmedia_url_https
p95
Vhttps://pbs.twimg.com/media/CT-8mtzUkAEDTWu.jpg
p96
sVsource_user_id_str
p97
V3426014292
p98
sVsource_status_id
p99
L666458664220405760L
sg47
V666458643190026241
p100
sVsizes
p101
(dp102
Vsmall
p103
(dp104
Vh
p105
I191
sVresize
p106
Vfit
p107
sVw
p108
I340
ssVlarge
p109
(dp110
g105
I576
sg106
Vfit
p111
sg108
I1024
ssVmedium
p112
(dp113
g105
I337
sg106
Vfit
p114
sg108
I600
ssVthumb
p115
(dp116
g105
I150
sg106
Vcrop
p117
sg108
I150
sssg68
(lp118
I78
aI101
asVtype
p119
Vphoto
p120
sg35
L666458643190026241L
sVmedia_url
p121
Vhttp://pbs.twimg.com/media/CT-8mtzUkAEDTWu.jpg
p122
sassVin_reply_to_screen_name
p123
Nsg47
V666476617997393920
p124
sVretweet_count
p125
I1
sVin_reply_to_user_id
p126
NsVfavorited
p127
I00
sVretweeted_status
p128
(dp129
g54
Nsg55
I00
sg56
VCS $ALDR mgt meeting Alder ALDR, Outperform, $50 Target Price) https://t.co/lVnIxSyAhQ
p130
sg58
Nsg35
L666458664220405760L
sg59
I1
sg60
V<a href="http://twitter.com/download/iphone" rel="nofollow">Twitter for iPhone</a>
p131
sg62
I00
sg63
Nsg43
(dp132
g65
(lp133
(dp134
g68
(lp135
I3
aI8
asg56
VALDR
p136
sasg71
(lp137
sg80
(lp138
sg25
(lp139
sg83
(lp140
(dp141
g89
Vhttp://twitter.com/tgtxdough/status/666458664220405760/photo/1
p142
sg91
Vpic.twitter.com/lVnIxSyAhQ
p143
sg93
Vhttps://t.co/lVnIxSyAhQ
p144
sg95
Vhttps://pbs.twimg.com/media/CT-8mtzUkAEDTWu.jpg
p145
sg47
V666458643190026241
p146
sg101
(dp147
g103
(dp148
g105
I191
sg106
Vfit
p149
sg108
I340
ssg109
(dp150
g105
I576
sg106
Vfit
p151
sg108
I1024
ssg112
(dp152
g105
I337
sg106
Vfit
p153
sg108
I600
ssg115
(dp154
g105
I150
sg106
Vcrop
p155
sg108
I150
sssg68
(lp156
I63
aI86
asg119
Vphoto
p157
sg35
L666458643190026241L
sg121
Vhttp://pbs.twimg.com/media/CT-8mtzUkAEDTWu.jpg
p158
sassg123
Nsg47
V666458664220405760
p159
sg125
I1
sg126
Nsg127
I00
sVgeo
p160
NsVin_reply_to_user_id_str
p161
NsVpossibly_sensitive
p162
I00
sVlang
p163
Vda
p164
sVcreated_at
p165
VTue Nov 17 03:31:42 +0000 2015
p166
sVin_reply_to_status_id_str
p167
NsVplace
p168
Nssg160
Nsg161
Nsg162
I00
sg163
Vda
p169
sg165
VTue Nov 17 04:43:02 +0000 2015
p170
sg167
Nsg168
NssVis_translation_enabled
p171
I00
sVutc_offset
p172
NsVstatuses_count
p173
I5913
sg23
VJust opinions, info, entertainment, not advice.
p174
sVfriends_count
p175
I178
sVlocation
p176
V
p177
sVprofile_link_color
p178
V0084B4
p179
sVprofile_image_url
p180
Vhttp://pbs.twimg.com/profile_images/603747244878200832/Y8m5DNLA_normal.jpg
p181
sVfollowing
p182
NsVgeo_enabled
p183
I00
sVprofile_banner_url
p184
Vhttps://pbs.twimg.com/profile_banners/251798063/1436995675
p185
sVprofile_background_image_url
p186
Vhttp://abs.twimg.com/images/themes/theme1/bg.png
p187
sg76
V108dragonsx
p188
sg163
Ven
p189
sVprofile_background_tile
p190
I00
sVfavourites_count
p191
I3904
sg78
VOlaf Ray Benson
p192
sVnotifications
p193
Nsg93
Nsg165
VSun Feb 13 21:39:45 +0000 2011
p194
sVcontributors_enabled
p195
I00
sVtime_zone
p196
NsVprotected
p197
I00
sVdefault_profile
p198
I01
sVis_translator
p199
I00
ssS'contributors_enabled'
p200
I00
sS'profile_text_color'
p201
g40
sS'followers_count'
p202
I205
sS'profile_sidebar_border_color'
p203
g46
sS'id_str'
p204
g48
sS'default_profile_image'
p205
I00
sS'listed_count'
p206
I11
sS'status'
p207
g8
(ctweepy.models
Status
p208
g10
Ntp209
Rp210
(dp211
S'favorited'
p212
I00
sS'contributors'
p213
NsS'truncated'
p214
I00
sS'text'
p215
g57
sS'source_url'
p216
Vhttp://twitter.com/#!/download/ipad
p217
sS'possibly_sensitive'
p218
I00
sS'in_reply_to_status_id'
p219
NsS'geo'
p220
Nsg19
L666476617997393920L
sS'favorite_count'
p221
I0
sS'lang'
p222
g169
sS'retweeted_status'
p223
g8
(g208
g10
Ntp224
Rp225
(dp226
g212
I00
sg213
Nsg214
I00
sg215
g130
sg216
Vhttp://twitter.com/download/iphone
p227
sg218
I00
sg219
Nsg220
Nsg19
L666458664220405760L
sg221
I1
sg222
g164
sg21
g132
sS'created_at'
p228
cdatetime
datetime
p229
(S'\x07\xdf\x0b\x11\x03\x1f*\x00\x00\x00'
p230
tp231
Rp232
sg29
g129
sS'coordinates'
p233
NsS'in_reply_to_user_id_str'
p234
NsS'source'
p235
VTwitter for iPhone
p236
sS'in_reply_to_status_id_str'
p237
NsS'in_reply_to_screen_name'
p238
Nsg204
g159
sS'retweeted'
p239
I00
sS'place'
p240
NsS'retweet_count'
p241
I1
sS'in_reply_to_user_id'
p242
Nsbsg21
g64
sg228
g229
(S'\x07\xdf\x0b\x11\x04+\x02\x00\x00\x00'
p243
tp244
Rp245
sg29
g53
sg233
Nsg234
Nsg235
VTwitter for iPad
p246
sg237
Nsg238
Nsg204
g124
sg239
I00
sg240
Nsg241
I1
sg242
NsbsS'is_translation_enabled'
p247
I00
sS'utc_offset'
p248
NsS'statuses_count'
p249
I5913
sS'description'
p250
g174
sS'friends_count'
p251
I178
sS'location'
p252
g177
sS'profile_link_color'
p253
g179
sS'profile_image_url'
p254
g181
sS'notifications'
p255
NsS'geo_enabled'
p256
I00
sS'profile_background_color'
p257
g50
sS'profile_banner_url'
p258
g185
sS'profile_background_image_url'
p259
g187
sS'screen_name'
p260
g188
sg222
g189
sg1
I00
sS'profile_background_tile'
p261
I00
sS'favourites_count'
p262
I3904
sS'name'
p263
g192
sS'url'
p264
Nsg228
g229
(S"\x07\xdb\x02\r\x15'-\x00\x00\x00"
p265
tp266
Rp267
sS'profile_background_image_url_https'
p268
g37
sS'time_zone'
p269
NsS'protected'
p270
I00
sS'default_profile'
p271
I01
sS'is_translator'
p272
I00
sbs.