(dp0
S'following'
p1
(lp2
(lp3
L3413058154L
aI1198481
aI1968962180
aI5699
aI18300046
aI18427218
aI13834162
aI110929302
aI58524428
aI995576238
aI235205538
aI60880381
aI74851947
aI12784712
aI824157
aI1631140573
aI49672557
aI14289197
aI1877053902
aL2467914348L
aI16397306
aI47526275
aI17873275
aI354103
aI227399720
aI259498996
aI552053879
aI24590532
aI37820042
aI14424874
aI15535595
aI14173930
aI194784415
aI20707966
aI49279531
aI6043242
aI5449042
aI4898091
aI43710689
aI19934168
aI19796978
aI54473477
aI48939663
aI41909059
aI11659232
aI19983050
aI28460017
aI28175824
aI550168900
aI28443216
aI21687414
aL2832002916L
aI14276189
aI8732322
aI21427240
aI20894397
aI15223870
aI15416611
aI14160121
aI13851852
aI15717596
aI260022048
aI58484086
aI16055024
aI14101221
aI817288
aI581821518
aI305005427
aI76511168
aI33333620
aI5627542
aI79330780
aI42555311
aI15935628
aI18036280
aI97268285
aI1411841
aI18165661
aI250038860
aI1887626690
aI1140451
aI17759263
aI17893558
aI69123976
aI52247685
aL2543977261L
aI9866582
aI941376385
aI14173032
aI1598834540
aI792726103
aI41227280
aI250213000
aL2665084237L
aI14253109
aI25163231
aI7380362
aI1536791610
aI22412414
aI21917683
aI364474808
aI388234633
aI40864044
aI25189008
aI105252513
aI18216181
aI18883224
aI14320024
aI1335348374
aI317440203
aI23409407
aI20197152
aI176941932
aI890267965
aI15521021
aI83396915
aI6311942
aI17395814
aI9532402
aI15932855
aI79366215
aI16912892
aI8297532
aL2458844640L
aI17062849
aI156341661
aI15657261
aI19822465
aI44457688
aL2204090322L
aI14663698
aI11549712
aI170492152
aI16615842
aI461625333
aI443329412
aI329862308
aI101354384
aI18343801
aI267925827
aI459601671
aI457313
aI14828536
aI622663
aI710403
aI17909411
aI1152026371
aI12382582
aI191055490
aI84351228
aI847952845
aI18402494
aI15813069
aL3044111140L
aI609241466
aI17928145
aI28197235
aI17872594
aL3043828834L
aI25709609
aI158623030
aI69426451
aI337928690
aI193144020
aI109968678
aI82902417
aI12387072
aI164397041
aI20025220
aL2882961263L
aI15873841
aI19511752
aI73249341
aI236017119
aI34145908
aI16598957
aI149763
aI597768555
aI57734560
aI391560579
aI9483752
aI212053451
aI14886375
aI16306615
aI6041742
aI817268
aI381603450
aI25668050
aI24622734
aI691593
aI14497487
aI31422711
aI211208938
aI83047883
aI225847395
aI17892496
aI27046692
aI95273513
aI14577594
aI86158118
aI833071
aI305318105
aI35701040
aI26099938
aI51189551
aI73220348
aI9549942
aI67483908
aI131627183
aI475137184
aI27388221
aI104712573
aI22131705
aI52814770
aI23365046
aI21291492
aI249758564
aI58743
aI114361906
aI764842830
aI45556680
aI63141999
aI11113
aI227744268
aI192824559
aI25953115
aI21675256
aI31391594
aI15949242
aI75209239
aI16303076
aI66235118
aI16298073
aI1061821632
aI14835511
aI61306578
aI35739495
aI100531396
aI17289717
aI17125728
aI625748268
aI15180311
aI15810008
aI438021973
aI24682804
aI68816513
aI21164079
aI135758100
aI458966079
aI368947418
aL2151247592L
aI14179132
aL2777066209L
aI21518612
aI14182254
aI5943622
aI187993109
aI281279326
aI27070413
aI14601165
aI21771755
aI76347918
aI188343397
aI6642152
aI18388359
aI373564351
aI218503228
aI415815602
aI1596823453
aI323228464
aI38469445
aI50371114
aI17918338
aI1961333743
aI14535119
aI88952435
aI14208611
aI14787085
aI164769561
aI16124187
aI394635011
aI17837051
aI143651355
aI26819104
aI514613499
aI495357252
aI14097951
aI24421464
aI21879358
aI112441291
aI431907614
aI57356719
aI92639420
aI395452780
aI15865042
aI68739089
aI28406006
aI205073875
aI19046875
aI17640056
aI236953420
aI35499699
aI19771382
aI14626496
aI159568288
aI271993135
aI18453099
aI324388124
aI21576476
aI14085662
aI15109378
aI122685408
aI114782468
aI5768872
aI456887147
aI479793246
aI30913882
aI18772897
aI264834791
aI39199749
aI613781119
aI110331791
aI18608431
aI138293290
aI16228479
aI62963572
aI1935231600
aI365562746
aI37281592
aI105534413
aI148630141
aI18472833
aI30893732
aI76736871
aI117839245
aI454054756
aI34939208
aI2992751
aI23469766
aI148116121
aI16295749
aI4388251
aI6810242
aI29475191
aI50324367
aI174900655
aI343625164
aI1888246902
aI28349755
aI17527292
aI98734027
aI89843524
aI462605080
aI224180296
aI29344933
aI14597239
aI1175221
aI460470940
aL2209542872L
aI17601418
aL2260619350L
aI339024811
aI364779377
aI88283494
aI23262217
aI1516521758
aI17904829
aI14413544
aI14085740
aI1137491
aI20961635
aI15469101
aI317313362
aI19344258
aI12793062
aI14139811
aI14519041
aL2414264689L
aI142814558
aI53429839
aI1374411
aI24927996
aI376254166
aI485345615
aI13354102
aI23323149
aI15293504
aI531705241
aI21056978
aI575658149
aI8496762
aI28163914
aI14352928
aL2260145645L
aI277853976
aI18174520
aI14892330
aI267395430
aI21942241
aI18601763
aI917104146
aI412528833
aI17205434
aI48603907
aI14478614
aI961132338
aI30067105
aI22029004
aI163537857
aI159611254
aI18576477
aI66198455
aI140912249
aI39549428
aI21788515
aI306116656
aI48500651
aI16548119
aI44123487
aI1345580348
aI171567873
aI15003446
aI86343120
aI14230772
aI303806105
aI1044751
aI308215880
aI12221542
aI14188906
aL2236826372L
aI40243607
aI21254439
aI135515077
aI72389498
aI312752250
aI61875523
aI19638674
aI219229259
aI1236101
aI347318515
aI11103172
aI98920857
aI17661200
aI21012092
aI54356940
aI382788364
aI355866075
aI158070493
aI100399816
aI99008565
aL2260197309L
aI36823
aI18580432
aI15601924
aI28172926
aI101348982
aI294588244
aI491783634
aI90034304
aI7745472
aI23145378
aI27939638
aI137288990
aI368908881
aI652193
aI37723353
aI1881168794
aI376502929
aI16623443
aI12
aI16262188
aI400344850
aI47479824
aI51462013
aI7707062
aI97966078
aI481468399
aI104952689
aI106500748
aI327577091
aI19089116
aI14749759
aI26009167
aI28506038
aI596872866
aI21175969
aI1209991243
aI18943756
aI38502647
aI28289402
aI1396671
aI16026783
aI14616957
aI17033727
aI26757704
aI201753473
aI15827269
aI18011097
aI49330382
aI27941766
aI370815149
aI229139732
aI24985189
aI19564105
aI5252591
aI14789619
aI22684343
aI19729101
aI353623440
aI108432404
aI12480582
aI19478716
aI13
aI9637672
aI18149824
aI1603818258
aI16063762
aI22429979
aI1071419874
aI292576703
aI35757252
aI549499334
aI17446621
aI783214
aI716564185
aI15387839
aI18915795
aI14805740
aI14353392
aI265181005
aI1404590618
aI63202368
aI16408959
aI1769191
aI319238938
aI38880050
aI435028813
aI21834510
aI1636590253
aI16246929
aI125425853
aI75357513
aI18617717
aI19729115
aI106111147
aI1797991
aI48302030
aI426044697
aI75726609
aI598818721
aI130160106
aI140504125
aI1586501
aI18944486
aI18172909
aI251909478
aI19040598
aI90407034
aI28254715
aI21009948
aI151140821
aI44317593
aI303855276
aI2195241
aI14454645
aI19907538
aI498144170
aI75503
aI76133
aI14923268
aI160951141
aI817386
aI20474624
aI51643837
aI22696953
aI16319594
aI351832182
aI20097201
aI66369206
aI168679374
aI16912204
aI86328927
aI79923701
aI24266406
aI1394399438
aI30011100
aI137298309
aI898301664
aI92281665
aI35821442
aI95048311
aI24981492
aI13565472
aI80928773
aI37995402
aI1534167900
aI8962882
aI40086005
aI14412988
aI531426472
aI15750667
aI28167086
aI109926606
aI26285079
aI84617980
aI14934757
aI71244739
aI13146722
aI22221551
aI624762482
aI18223590
aI14115912
aI6385432
aI202003
aI31123305
aI20605481
aI9917652
aI106900380
aI1000262514
aI17265327
aI282789898
aI29054836
aI45708902
aI34713362
aI99846591
aI27029537
aI21312469
aI98992079
aI20095393
aI14668111
aI14857801
aI10545772
aI1327779535
aI18228075
aI15309384
aI23372997
aI6730222
aI174385219
aI28164923
aI325166727
aI80903194
aI1364930179
aI40532389
aI8070502
aI353344542
aI59019225
aI15763199
aI51241574
aI39403756
aI29374498
aI31178767
aI502281810
aI381865879
aI493533339
aI23365014
aI40232190
aI805276508
aI19113435
aI474549019
aI586
aI71340937
aI12263542
aI5763262
aI101487396
aI318171818
aI76824894
aI334926329
aI66492948
aI16244449
aI258885469
aI49943475
aI73194395
aI22843337
aI22522178
aI19195460
aI821557387
aI12193342
aI300378623
aI1045751
aI244169661
aI14591406
aI349859290
aI20402945
aI158825458
aI334079148
aI245909585
aI9505502
aI33999013
aI36294224
aI217210051
aI18558612
aI70111948
aI16120265
aI15119529
aI19430233
aI14096763
aI144552023
aI14245378
aI18143563
aI49637104
aI19063753
aI76097537
aI164400667
aI363450850
aI44470680
aI33076987
aI16020435
aI46489733
aI6509522
aI59603406
aI151191872
aI67607781
aI122792963
aI23892927
aI16831353
aI21907474
aI114602310
aI26597472
aI5845492
aI24216951
aI250345179
aI22300778
aI19787735
aI187965811
aI17703236
aI153495347
aI1775731
aI125400908
aI15118253
aI18080708
aI9089942
aI122704362
aI84708462
aI138831249
aI259604792
aI17400150
aI17349122
aI114599241
aI352947624
aI76773876
aI31399121
aI20275289
aI29560258
aI21752930
aI17035063
aI31080039
aI15944443
aI38936142
aI14992263
aI14129793
aI119920353
aI545532788
aI15829144
aI14802885
aI245407446
aI16573941
aI325100194
aI33792634
aI62624207
aI20345379
aI352419634
aI502053236
aI6141832
aI10255172
aI373598135
aI16386284
aI119491006
aI188829085
aI17816699
aI22810429
aI14258396
aI13475512
aI451586190
aI19613907
aI257923603
aI77304134
aI28625478
aI15601652
aI154016912
aI305224217
aI7433772
aI17383270
aI37557208
aI787799
aI15187243
aI101858272
aI19515598
aI373630984
aI16875871
aI247823511
aI43208586
aI110755266
aI11962952
aI300345401
aI278161486
aI18641695
aI9692022
aI14348157
aI15977633
aI44358989
aI39103115
aI26759755
aI52135523
aI20095865
aI14985228
aI26326911
aI16369150
aI24134103
aI164425558
aI253868737
aI12901522
aI56250500
aI37999041
aI27716402
aI30013010
aI27937612
aI37291805
aI144432548
aI14515799
aI59143038
aI15891430
aI37718165
aI17004139
aI20245775
aI75097340
aI61023448
aI17503180
aI18481050
aI177624460
aI19219421
aI12011422
aI111441302
aI121208305
aI16955870
aI14518765
aI36047098
aI16334857
aI15803250
aI168295477
aI30364057
aI16303106
aI44532454
aI18443606
aI9484732
aI27696993
aI16017475
aI23484039
aI18083797
aI16588095
aI16581604
aI73181712
aI11621822
aI19035424
aI16331450
aI20449296
aI18858395
aI8965112
aI3108351
aI14677919
aI858051
aI15087011
aI14075928
aI20778387
aI8936082
aI154646004
aI15396560
aI42167672
aI69041666
aI22680719
aI37719488
aI17004618
aI17006157
aI16399949
aI7450462
aI15842780
aI52797896
aI807095
aI24773177
aI32628749
aI16412255
aasS'followers'
p4
(lp5
(lp6
I14833599
aL4202583371L
aI91816024
aI320992456
aL2278050936L
aI320304923
aL2803739026L
aI371073244
aI32047535
aL4147182320L
aI349314830
aI41601337
aI271732971
aI930031506
aI29397755
aI25668444
aI50075104
aL2931641030L
aL4038374121L
aI18909605
aI18130000
aI395566840
aI848609269
aL4226239572L
aL3268387628L
aL2376952352L
aI9555372
aI292551431
aL4224489072L
aL3741613469L
aI869918281
aI1631570520
aI1906418779
aL4166883669L
aL2889314461L
aI366864587
aI311654967
aI977112482
aL2860845668L
aI17840243
aI1865621094
aI27645686
aI65210964
aL2442746521L
aI231928788
aI57660550
aI591331840
aI899191747
aI14699024
aI57444859
aI15089738
aI36995549
aI95507952
aI202716161
aL4190458470L
aI125356532
aL2952321039L
aI16176235
aI1198481
aI322380017
aI14335132
aI13951182
aI122706907
aI24055603
aI6883122
aI20246938
aL3165960300L
aL4149803854L
aL4174367359L
aI118879696
aI296539693
aL4142852415L
aL4158319166L
aL3810470233L
aI1678051022
aI215786508
aI32410378
aI1968962180
aI17511846
aL2563474284L
aL4055328256L
aI18300046
aI361772569
aI13834162
aI18427218
aI16199395
aI59850943
aI14074356
aL2148072384L
aI14563220
aL2303376817L
aI16189209
aI293607250
aI1376464746
aI32435247
aL3524425575L
aI4952301
aI88762664
aL4127196554L
aI18915446
aI3632
aL3634731016L
aI482311506
aI17758768
aI134142132
aI30466308
aI567513193
aI399125922
aI281277892
aL3029294513L
aL2242825573L
aI1156366519
aL3310594808L
aI31391558
aL2511234708L
aI101307620
aI14984913
aI16240558
aI58524428
aI15035816
aI7848802
aI565759365
aI593854588
aL3729513856L
aI199032337
aL2927865026L
aI995576238
aL3196164084L
aI222368322
aI80335915
aL3392226016L
aL3240396234L
aL4088666534L
aI372896512
aL3363941277L
aI39051115
aI20809522
aI372055505
aL4038768268L
aI564741817
aI332971856
aI65422882
aL2949608866L
aI140540706
aI235205538
aI60880381
aI12784712
aI46167213
aI346218662
aI33711747
aL2911572017L
aI26217562
aI106619760
aI1799261
aL2456905670L
aI15542781
aL3973087754L
aI36438846
aL4058095757L
aI362209280
aI250289744
aI506826583
aL3994009634L
aI43916848
aI197297633
aI411017105
aL4002845412L
aL3231946840L
aI14248594
aL3487725132L
aI14186393
aI7510942
aL3396415473L
aI19976980
aI104271807
aI1188054740
aI137890451
aI74315604
aI1148935274
aL4035669734L
aI379683613
aI824157
aI1628746748
aI787075596
aI372460791
aL2690143820L
aI361980867
aL3397882377L
aI551442334
aI338490203
aI1035675486
aL2579058158L
aI14346958
aL2996274528L
aI342942236
aI16556611
aL3150664416L
aI328400268
aL3920245774L
aI49672557
aI613648540
aL2395258519L
aI14278589
aI25242351
aL2436306917L
aI1084996981
aI179085653
aI15928665
aI180649341
aI197741040
aI11666812
aI1673302729
aL2372166100L
aI1511152068
aI13348
aI351238344
aI371377047
aI4828981
aI245172868
aL3908854127L
aL3170622094L
aI97719076
aI16583772
aL2914325260L
aI47526275
aI25694827
aL3823562777L
aI115718045
aI292606540
aI792795
aI17873275
aI31095945
aI190285391
aI4521581
aI485781189
aI143772190
aI301646306
aI176593677
aI265134331
aI227399720
aL3304978736L
aI354103
aL3903739038L
aI37593098
aL4000126169L
aL2715689509L
aI194784415
aL3903990144L
aI46122679
aL3435741659L
aL3242203720L
aI287219661
aI25147665
aI500626804
aL3383579352L
aI28366190
aI259498996
aI340644473
aI87098546
aI552053879
aI898130377
aL3000260752L
aI1339938846
aI532935822
aL3333324927L
aI461301869
aI38743751
aI182320162
aI20210607
aL2984296817L
aI701231556
aI548745107
aI20069552
aI211591543
aL2725346100L
aI701193162
aI142006553
aI28353766
aI134846089
aI1045289238
aI16399949
aI184014095
aI118999446
aI961797541
aL2831853020L
aL3252975472L
aI16570695
aL2386964490L
aI49148124
aI35559570
aI14993191
aI3707601
aI232510496
aL3946760669L
aL3944915063L
aI17422787
aI6181532
aI25474495
aI116506076
aI29181480
aI259741205
aI502496161
aL3420862233L
aI14424874
aL3845193674L
aL3244653257L
aL3545985801L
aI188889809
aL2342942984L
aI218496458
aL2556258031L
aI15461611
aI82264787
aL2459360084L
aL2911865585L
aI383952346
aI532581227
aI22376014
aI21164079
aI74189207
aI55360473
aI284699975
aI284683361
aL2432136488L
aL3245692515L
aI365145609
aI23222167
aL2889347759L
aL3569697382L
aI14173930
aI16319594
aI213849015
aL2651207785L
aI11113
aI20707966
aL3757870994L
aL3873146561L
aI30530416
aI153147548
aL3843098475L
aI27914146
aL3449120190L
aI99362902
aI317296828
aI99759748
aL3432531167L
aL3046994657L
aL3837074165L
aI464144325
aL3790030153L
aI251798248
aL3698587275L
aL3390413321L
aL3850999227L
aI23813044
aI200303625
aI49279531
aI7998392
aI6043242
aI15769870
aL3439375181L
aL3836672313L
aI73161934
aI18027722
aI308122184
aI43710689
aI203999063
aI49983774
aL2424218279L
aI19934168
aL3390739521L
aI19796978
aL3331641591L
aI66603424
aI41740308
aL2370864679L
aI558225686
aL3260211004L
aL3242691411L
aI15448368
aL3264677386L
aL3292030203L
aI35722778
aL3264705958L
aI318223379
aI17628255
aI283799411
aL3405614953L
aI54473477
aL3093652978L
aI1073740273
aI288000731
aI367420578
aL3345009793L
aI972256530
aL3242260918L
aL3254650533L
aI732019663
aL3648667346L
aI379928165
aI220161415
aI54994598
aI391722952
aI302035483
aI14076320
aL3734599282L
aI41909059
aL3242786577L
aI1684471004
aL2730586032L
aI11659232
aL3606222502L
aL3242276379L
aI1914940549
aI803449104
aL3098277783L
aI1053528558
aI470290058
aI103701687
aI14205040
aI1541885905
aI243900576
aL2980980327L
aI22378396
aI516584199
aI30667046
aI37202072
aI152126436
aL3679088717L
aI28460017
aI52947828
aI205813146
aI367438165
aL3021827632L
aL3321644430L
aL3571348880L
aL3604504216L
aI5952352
aL3584888236L
aL3555279853L
aL3631944555L
aI1999
aI16385117
aI161326708
aI1911409154
aI14161129
aI1338412452
aL2698426980L
aI14146934
aI1041064236
aL2881470213L
aL2415954397L
aL3603544816L
aI86137429
aI23654724
aL3549472575L
aL3356857252L
aI390201160
aL3525611860L
aI44491419
aL2397884560L
aL2950426162L
aI118354335
aI395580217
aL3211565931L
aI4801351
aI550168900
aI28443216
aI21687414
aL2326058826L
aL2409313752L
aI341578061
aI625391951
aL3044346069L
aL2832002916L
aL3291461730L
aI329689441
aL3007787807L
aL3358415201L
aL3387581116L
aI28992476
aI262322557
aI528489278
aI277634434
aI1852421292
aL2374238006L
aI14276189
aI8732322
aI2906321
aI711500484
aI1645115748
aI44322220
aI10201722
aL2774878370L
aL3396949280L
aI21427240
aI20894397
aI270812651
aI28686378
aI76842602
aI15486485
aI42417984
aL3431304395L
aI291880742
aI144416934
aI56404292
aI10082762
aI271643882
aI326973224
aL3113940374L
aL3362672052L
aI15223870
aI848058306
aL3452487317L
aI1070983952
aL3447843749L
aI1289361926
aI181419468
aL3311888438L
aI110522065
aI15416611
aL3168319440L
aL3343075692L
aL2858140119L
aI1378939418
aI499771067
aI64166586
aL2788397775L
aI14160121
aI848151979
aL2922451579L
aL3301241143L
aI22170704
aI19143278
aL3432228903L
aI171273754
aI21882251
aI13851852
aL2458116319L
aI291418287
aI244111986
aI239876125
aI21512917
aI9665302
aI15717596
aI48939663
aI7377622
aL3243313627L
aI14297098
aI256180824
aI44458277
aI111032677
aI159279277
aI44632897
aI17759315
aI827717329
aL3257488446L
aI1069936836
aI286934771
aI16673341
aI27496688
aI299733753
aI983401082
aL3235418137L
aI27339070
aL2542701631L
aI480629395
aL2345656039L
aI30100884
aL3259827458L
aI1256117942
aI68175137
aL2875640336L
aL2408935094L
aL2470224062L
aI409005839
aI1656100328
aI70219574
aI227675631
aL2694564780L
aI16941166
aI266121474
aL2613522331L
aI16249353
aI372942678
aI571265136
aI67340297
aI89296362
aI237009851
aL3312325333L
aI22315117
aI217489910
aI13482482
aI621713
aI1965364778
aL2645248236L
aI845235319
aL3149845353L
aI174953869
aL3034502442L
aL3310386494L
aI293079933
aI1200194118
aI597892114
aL3407559005L
aI87278889
aI719687314
aL2289618368L
aL3372195317L
aL2490186583L
aI111184917
aI239564881
aL2303820092L
aL3064026239L
aI14119372
aL3127499210L
aI152072425
aL2431290156L
aL2374538491L
aL3392347685L
aI26665847
aI5568612
aL2475012984L
aI1859811
aI256208700
aI14101221
aI218571357
aI331607167
aL3291177865L
aI626273869
aI301525197
aI24837438
aL2644079309L
aI817288
aL3054127950L
aL2391485851L
aI314061974
aI1370661
aI224198680
aL3302465964L
aI40967723
aI994980372
aI26250653
aI305005427
aI326378539
aI283345351
aI63195646
aI473458412
aL3393950362L
aL3121266004L
aL3198645263L
aL3394825931L
aL2458099370L
aI1643303280
aI1430799001
aI43590278
aL3393014434L
aI221138145
aI76511168
aI14285889
aI370027049
aI33333620
aL3297724254L
aI148856929
aL3190375199L
aL3004284106L
aI16763466
aL2235606024L
aI15207275
aI27699428
aI18294521
aI1359880878
aI1216592810
aL3241378812L
aL2694145362L
aL3290932183L
aI152785069
aL3290762456L
aI297207245
aI32855657
aI365817770
aL2460414888L
aL2614162872L
aI362725041
aI37945091
aL3044698820L
aL3386661688L
aI809442757
aI214774490
aL3279077204L
aI117128679
aL2651190312L
aI1470613260
aI40246652
aI15566450
aI78740452
aI79330780
aI42555311
aL3285340268L
aI1888059024
aI19459971
aI16252177
aI248913490
aL3382907781L
aL3381534791L
aL3138782257L
aL2903030876L
aI329795990
aI1444614408
aI14663698
aI377797114
aI1026998328
aI15935628
aI22684343
aI375158758
aL3363095074L
aI915544885
aI255319156
aL3219401048L
aI47191293
aL3254996040L
aI353254939
aI58579413
aI567241726
aI578076288
aI14511931
aI568609285
aL3278599046L
aI5449042
aI120966143
aI14132068
aI79922742
aI26792021
aI68251610
aI223060015
aI106266999
aI1954194570
aI459744473
aI25165065
aI23362744
aL3348836625L
aI254171664
aI16384746
aI1560693386
aL3273019820L
aI231679408
aI16550591
aI723980533
aI1303889694
aI89141655
aL2680796711L
aI46517939
aI505883374
aI18165661
aI400500963
aI566776238
aI506292870
aI971589338
aL2906369685L
aI4120961
aI20349555
aI315284244
aI250038860
aI394272935
aL3362890233L
aL3352929623L
aI291804487
aI59296265
aL2345756107L
aL3360109887L
aI1887626690
aL3200881577L
aI18004943
aL2841988368L
aI93521349
aI1140451
aL3056256942L
aI18962489
aI1214235649
aI265068917
aL2897423098L
aI885735217
aI17759263
aL3238649383L
aL3262706810L
aI1943629340
aI86158118
aI720159613
aL3289854148L
aL2748085613L
aL2690573545L
aI47327687
aI116174368
aI252683203
aI288362790
aL2311175365L
aI19802861
aL3345442954L
aI50228468
aI15308621
aL3288757701L
aI76222882
aI18009756
aI16072660
aI14579634
aL2546263537L
aI16298736
aI631501000
aL3344322393L
aI32936821
aI45431487
aI17893558
aI198591412
aI124637396
aL2475368160L
aI17396248
aI69123976
aI52247685
aI309469037
aI373698992
aI625906470
aL2543977261L
aI209568114
aI152970237
aL2425293421L
aL3338195783L
aI18418006
aI15468299
aI351830743
aL2864039888L
aL3229435742L
aI57123188
aL3112396497L
aI14195535
aI9866582
aL3314888321L
aI18858395
aL2409581528L
aI6581912
aI90835138
aI46782067
aI15535595
aI19722218
aI18205337
aI567119539
aL3321071008L
aL3243430861L
aI15091089
aL3040894993L
aL3244450328L
aI5294122
aI1469263356
aI101580109
aL2187530473L
aI52051341
aI10242
aI575641866
aI510616012
aI244984652
aI263715444
aI1369547347
aI910073227
aI213119979
aI22848850
aL3024469669L
aL2911695860L
aI49542761
aI829375640
aL2730236548L
aI192633618
aI89557663
aL3304446867L
aL3316332407L
aI874198921
aI964977703
aI157847958
aL2308545224L
aI1337798330
aL3319190554L
aI22539801
aI27897166
aL3317812173L
aI453501475
aI80577499
aI1598834540
aI43669619
aI814455
aI397782290
aI16482279
aI308847165
aL3309397810L
aL3256546882L
aL2186700722L
aI13572142
aL2759451554L
aI343361486
aL3309806199L
aL3308374773L
aL3237043832L
aI3478771
aL3213999925L
aI36117742
aL2876865543L
aL3234229364L
aI38386351
aL3233962069L
aL2817297183L
aI1707841208
aI123720651
aI89119794
aI33517121
aI389602055
aI90213294
aL2910958426L
aI373259910
aI611301130
aL3302863276L
aI296408094
aI620530422
aL2743789526L
aL2248299691L
aI13575452
aL3148772484L
aI290401069
aL3067076065L
aI515309259
aI280654172
aI88223772
aL3222506934L
aI792726103
aL3240009706L
aI350095265
aL3225794785L
aI64368752
aI18040878
aL3097620659L
aL3221756941L
aI19472801
aL2237987528L
aI15926016
aI611817117
aL3188262614L
aL3290760196L
aL3065060260L
aI302255972
aI41605985
aL2723245215L
aI1593960864
aI564759805
aI41227280
aI270922385
aI250213000
aI28130946
aI16355824
aI23317048
aI14115912
aI232925910
aL2898526274L
aL2231654796L
aI80249964
aL2972089007L
aI317336870
aL2693404599L
aI11534102
aI18622289
aI36232059
aI1382390526
aI216685712
aI161630996
aI17872613
aI26760014
aI28017869
aI391458597
aI606556238
aI252669902
aI84647108
aI1018083266
aI125784974
aI22807739
aL3239750111L
aI14253109
aI53339070
aL2284139618L
aI971113909
aI29229550
aI878647232
aI41589757
aI390823031
aI1732131944
aI27317161
aI423574278
aI42560645
aI100022008
aI58287253
aI25163231
aI334964337
aI22817263
aI467823914
aI110600815
aI1427562680
aL3184981215L
aI151272263
aI109709526
aI9673942
aI37220057
aI85459979
aI885611582
aI18446391
aI1347600404
aL2791855536L
aI7380362
aI308032584
aI346877637
aI32389456
aI53389392
aI182131918
aI59351766
aI741309114
aI25835921
aL2790655411L
aL3197689771L
aI1050565250
aL2971665338L
aL3196741356L
aI8120582
aI179556305
aL3195891020L
aI1364594047
aI75890136
aI18448279
aI443810476
aI163578980
aI102726812
aI22412414
aI1599033258
aI150905976
aI220933621
aI975116011
aI234413416
aI731046402
aI1045753789
aL3000054399L
aI18780713
aI15068983
aI39304350
aI364474808
aI255127533
aI182384908
aI69564853
aI1333461488
aI63854891
aI61687095
aI17481460
aI388234633
aI258031607
aI1620483110
aI8411032
aI782835385
aI46382014
aI70451992
aI20158190
aL3001048443L
aL2209542872L
aL2971593506L
aI17205434
aI371174322
aL3159710381L
aI180502648
aL3153686139L
aI1676915827
aI46179233
aI19543375
aI85936799
aI196244136
aI40887204
aL2402620500L
aL3186159566L
aL3237263589L
aI25189008
aI15368117
aI105252513
aI1099578782
aI457313
aI16397306
aI45715564
aL3233731665L
aL3181461547L
aI1028618852
aL3234749295L
aL2814676950L
aI260596900
aI1254490369
aL2950051142L
aI1449774690
aI14118179
aI15771297
aI168707850
aI39553598
aI492782326
aI18216181
aI229335837
aI39824565
aL2933718023L
aL3020048952L
aI17264182
aI560591804
aI372918371
aL3226606264L
aL3054627000L
aI19220158
aI879066744
aI213245511
aI145693132
aI18883224
aL3025102675L
aI1185296306
aI17802163
aI40411632
aI17192814
aI1688
aI108047888
aI53405871
aI629844555
aI439069910
aL2566267931L
aL2194862203L
aL3201313925L
aL2478944683L
aI124476550
aI621427512
aI291434412
aI16410919
aI37302503
aI215873471
aI921142236
aI20494600
aL3178305444L
aI256323652
aI206744032
aI57391755
aI781229
aL2990284983L
aI463462203
aI1717157737
aL3215295442L
aL2660969144L
aL2910403228L
aL3214629934L
aL3034716678L
aI853091294
aI176750958
aL3175345697L
aL2482607443L
aI24004512
aL3096438374L
aI706025250
aL3096644050L
aI14320024
aI25387735
aI317440203
aI16993112
aI15748436
aL3202265807L
aI351306556
aI20380715
aI1335348374
aI15112654
aI23409407
aI16783920
aI1531007624
aL3202338257L
aL2814737790L
aI1861003176
aI21826773
aI1011011594
aL2651352940L
aI42597509
aI17825243
aI131990331
aI1141388323
aL2370421612L
aI239470212
aI76679933
aI571959998
aI47822148
aI166483908
aI309037681
aI23879928
aL2597988794L
aI211477050
aI91140332
aL2965095640L
aI20260099
aI237546884
aI859909866
aL3046100226L
aI360887097
aL2766439541L
aI322156594
aI18130974
aL2222828497L
aI168482319
aL3171512279L
aI171688408
aL3188969014L
aI31495301
aI45430000
aI20197152
aL3119182926L
aI70755249
aI10252722
aL3179111985L
aI17810239
aI725577499
aL2982807021L
aI1384303218
aI1105078848
aI431423387
aI890267965
aI176941932
aI804333
aI35040862
aI20093837
aI143799782
aI284241195
aI581821518
aI621926291
aL3123371795L
aI1400170290
aI71078775
aI361263795
aI1532827464
aL2433292572L
aL3092539109L
aI1949320489
aI9549942
aL3168139683L
aI21907474
aI15521021
aL3107769897L
aL3115967497L
aI61057872
aI83396915
aI277529607
aI20961635
aI824220068
aI16244449
aI17915424
aL3149844985L
aL3136135574L
aI127615745
aL3144205961L
aL2980023169L
aL2507969876L
aI17395814
aI1530916794
aI148415631
aI775711256
aI6311942
aI55862103
aL2482461865L
aL3151743099L
aI18705078
aI74531093
aI15932855
aI466139630
aI18083786
aL3146381969L
aL2290728296L
aL3119381896L
aI79366215
aI15457693
aI1633612058
aI316808676
aL3115628134L
aI18574633
aI519542347
aI1151255586
aL3138769347L
aI1000027712
aI16912892
aI15346408
aI264339465
aL2657615914L
aI45442241
aI207689953
aI882628099
aI263139451
aI165480263
aI338360814
aI24836372
aI180075621
aL3140914996L
aI515364585
aI21882863
aI190655719
aI1515100902
aI18912172
aI471744948
aI8297532
aI39904321
aI181648461
aL2882220393L
aI44289533
aI21568468
aI244130845
aL3031746866L
aI60155066
aL3139077343L
aI128877703
aL3039372027L
aI124401722
aI156341661
aL2458844640L
aI17062849
aI14591406
aI533605818
aI96706740
aL2896341174L
aL3133973677L
aI436215503
aI1364196692
aI501438275
aI384047377
aI15657261
aL2511846964L
aI532428172
aI1510902366
aI562430911
aL3027189627L
aI472382082
aL2910863549L
aL2178241596L
aI54602691
aL2938660606L
aI1612464446
aI8701892
aL2475718743L
aI6353132
aI21924185
aL3120542628L
aL3121921149L
aI194267721
aL2444467578L
aI109615090
aI557791434
aI19822465
aI167060622
aL2790133566L
aL2814880482L
aI1187322217
aI183239622
aI14864105
aI44457688
aL2204090322L
aI26600128
aL3110388997L
aI253823729
aL3108003541L
aI258850836
aI358308139
aI16441638
aI161070767
aI534295491
aI191570537
aI20552442
aI23032984
aL3106849182L
aI596297849
aL2478093156L
aI40937847
aL3098353628L
aI71569758
aI220548689
aL3107991827L
aI20859174
aI17236302
aI68816513
aI1452587720
aL3102276482L
aI170492152
aL2985013655L
aI16615842
aL2882961263L
aI204422240
aL3091565711L
aI461625333
aI443329412
aL2391000950L
aL2456223144L
aL3097088510L
aI21429715
aL2720373876L
aI119839300
aL2828486268L
aL3061722290L
aI276334529
aL2990748551L
aL2427756554L
aL3096273608L
aL2176397499L
aI20080284
aI14388364
aI858051
aI17702451
aI1647596850
aI17558479
aI785078078
aI329862308
aI187991764
aI1621271
aL2403540953L
aI43271840
aI341326430
aI18343801
aI245219923
aI22374175
aI1963403180
aL3087165829L
aL3064377951L
aL3092091483L
aL3035461426L
aI71784403
aI33923443
aL2944080399L
aL2232898177L
aI83698845
aL3074360496L
aL2933716481L
aI267925827
aI1449742303
aI376851964
aL2347438777L
aL3071648408L
aI1545486530
aI15830248
aI70643434
aI8442372
aI16261338
aL3047697276L
aL2320773038L
aI459601671
aL2741900669L
aI1954329685
aI280596568
aI333286362
aL3070463301L
aI233724961
aL3044655773L
aI14828536
aI541881703
aI76348512
aI16207747
aI5633372
aI622663
aI6465172
aI14757110
aI408471317
aI17427487
aI24212465
aI169961377
aI16374313
aI12576412
aI296725761
aI10442762
aI42903114
aL3023612084L
aL2666892290L
aI537352468
aI24756147
aI110929302
aI515910782
aI710403
aI16861206
aI23242968
aI19670755
aI56624553
aL3060269614L
aI17909411
aL3059203505L
aI244508252
aI12382582
aI287885364
aI1152026371
aI59899437
aI386622133
aL2864579602L
aI1119893827
aI5610072
aI33857535
aI15485937
aI260943149
aI1878075182
aL3017236043L
aI29931129
aI106815480
aL2216382817L
aL2792937597L
aI1340264990
aI277179618
aI234761994
aI380544175
aI24611949
aI15813069
aI1099592846
aI847952845
aI16480903
aL3039836863L
aL3017294908L
aI471653659
aI99277795
aL2590831728L
aI462776185
aI1895985439
aL2797799005L
aI1080709279
aI495357252
aL2759789552L
aI50770039
aL3044111140L
aI1544693930
aI15586341
aI1392626274
aL2684253030L
aL2523251712L
aI6418922
aI591251994
aI14507915
aI582010468
aI574907056
aI16196929
aI609241466
aI385055636
aI17928145
aI28197235
aI20568371
aI17872594
aI20265706
aI633924423
aI836469859
aI65108820
aI7967632
aL3044900993L
aL2165767808L
aI228236916
aI8112142
aI1902262326
aL3024279919L
aI25054164
aL3043828834L
aL2463401462L
aL2467067828L
aI19080368
aL2995442550L
aL3042667894L
aL2909082737L
aL3033135023L
aI478973822
aL3022163844L
aL3039270531L
aI21338526
aI263728718
aL3020060935L
aL3006749416L
aL3019967407L
aL3019003477L
aI18224379
aI61223967
aI18768347
aL3029940765L
aI749430594
aI168139321
aI206687554
aI1470319040
aI14638983
aI25709609
aI1907548712
aI10099902
aI37227427
aL3025924300L
aI1106321251
aI13533782
aI421663115
aI525847196
aI10928832
aL2853284902L
aI15446942
aI32611067
aI28998043
aL3011542168L
aI49780983
aL3013640557L
aI95288244
aI92258293
aI158623030
aI459447657
aI23121787
aI293405623
aL2847346423L
aI28564725
aL3003838614L
aI1565048964
aI3840
aI83979864
aI817970
aI622073561
aL3020882315L
aI39334046
aI200219150
aI1311080460
aI26502095
aI925331586
aI16352043
aI53065480
aI124258969
aI1358009179
aI337928690
aL2923362918L
aI274886779
aL3007756615L
aI425753010
aL3018538060L
aI37953290
aI459831594
aI205558974
aI754998
aI164425558
aI373398388
aL2449447567L
aI512485830
aL3016220147L
aI283533519
aI9855162
aI251909478
aI249326493
aI261202107
aI264480124
aI24266406
aI30485471
aI301688918
aI126731503
aI109968678
aI15293504
aI6173842
aL2389576687L
aI23257344
aI82902417
aL2997770239L
aI495161037
aI49853
aL2247168778L
aL2440396500L
aI1304772680
aI35757252
aI193144020
aI1372746230
aL3012610233L
aL3003751811L
aI226260101
aI12387072
aI20173517
aI16478966
aI140263911
aI164397041
aL2327622235L
aI717698263
aL2283581142L
aI1161369558
aI37669450
aI449817764
aI162468723
aI28420170
aI19277284
aI486208962
aI325594003
aI40044902
aL2777425711L
aI81656841
aL2653606356L
aI15984351
aL2524126639L
aI453762663
aI41112209
aI48419694
aI415157309
aI292398016
aI288436132
aI1265773064
aI350325167
aL2953388560L
aI206793858
aI108525790
aI21268749
aI21925067
aI1319379823
aI73249341
aI19511752
aI236017119
aL3003975736L
aI1359361856
aI1601722286
aL2999656920L
aI546343664
aL2998879196L
aI31631018
aI342601720
aI393596432
aL2165265030L
aI23633168
aI63741685
aI376794577
aI850925436
aI27287649
aL2163370130L
aL2351112571L
aI6033382
aI21917683
aI77032491
aI509310462
aI103854123
aI17316885
aI525243450
aI161420694
aI103910844
aI286926082
aL2995000638L
aI1402035529
aL2788398967L
aI362551003
aI594860880
aI211583400
aI257352924
aI54369486
aI255535962
aI335522408
aL2260150651L
aL3000156515L
aL2998891853L
aL2995375437L
aI149763
aL2995259813L
aI14940255
aI391560579
aL2609618209L
aI326309905
aI299622349
aL2974403890L
aL2285270557L
aI1112514396
aI100023872
aI17495093
aL2867869221L
aI72314715
aI68360592
aL2922115476L
aI47264012
aL2353809380L
aI9483752
aI212053451
aI14886375
aL2991832830L
aL2990254600L
aI617853906
aL2574847262L
aI63334511
aI16306615
aL2425905482L
aI607559475
aI338563974
aI817268
aL2973710283L
aI381603450
aI16550102
aI178551727
aI494808056
aL2985154035L
aI27878344
aI213287062
aI25668050
aL2533088761L
aL2981747446L
aL2981176529L
aI63796828
aI225087170
aL2549165750L
aL2980473107L
aI5024061
aI24622734
aI79884324
aI376397887
aI21771755
aI17562108
aI635280518
aI691593
aI1131854401
aI130693588
aL2793062705L
aI262332918
aI14497487
aI21421552
aI146921842
aL2697434215L
aL2976246681L
aL2938508147L
aL2960796446L
aL2980297699L
aI149158005
aI597768555
aL2937167135L
aI1175221
aI211208938
aI348018383
aL2703702428L
aI222737634
aI83047883
aI225847395
aI18893338
aI4078421
aI233903944
aI18538681
aI743129544
aI16031154
aI14346116
aL2965465883L
aI47692340
aI462592535
aI14802885
aI17883984
aL2841860040L
aI20212609
aI15857750
aI424341257
aI17953755
aI282278619
aL2649542275L
aL2963272892L
aI35499699
aL2411326698L
aL2883603475L
aI1970220691
aL2335685759L
aI109928703
aI1445180912
aI57532274
aI17892496
aI707973899
aL2417396010L
aL2933180972L
aI14052200
aI1884903187
aL2838275548L
aL2892447208L
aI594746688
aL2878054005L
aI29375854
aI118395924
aI51897635
aI88636929
aL2889019225L
aL2960273059L
aI95273513
aL2961115240L
aL2960231085L
aI793091
aL2958244691L
aL2955192602L
aL2956917023L
aI325582985
aL2557295370L
aI16916617
aI145116061
aL2850050735L
aL2955126294L
aL2954846768L
aI80512662
aI33447166
aI1405873800
aI14577594
aI1007617236
aI346336692
aI16668397
aL2424069487L
aI793059
aI14708543
aI5399142
aI833071
aI1007041
aL2951178089L
aI163991278
aL2162291556L
aI876472562
aI1416515108
aI585364957
aI22760907
aL2598228822L
aI455077068
aI21524337
aI19891990
aI396154609
aI14134787
aI17666829
aL2253845336L
aI1518273864
aI26638125
aI213171836
aI33347579
aI188867014
aI253092736
aI298476763
aI59280832
aI15403454
aI617511186
aI61325823
aI1937708996
aI253704327
aL2214398562L
aI360109651
aI305318105
aI577055339
aI27172398
aI360210604
aL2447282831L
aI862812493
aI245348364
aI163537857
aI1528164594
aI23160985
aL2351893592L
aI1160553222
aI1350617468
aI33920505
aI113374461
aI56860255
aI422149146
aI1006896248
aL2949664215L
aI229112764
aL2949616930L
aI35701040
aI2889721
aL2939014217L
aL2947341957L
aI374404156
aL2609613630L
aI514613499
aI15949242
aI73220348
aI13342982
aI1769191
aL2382853022L
aL2941470809L
aL2940528838L
aI51189551
aI734691523
aL2928174379L
aI1516813712
aI25996330
aI390490598
aL2598426608L
aL2904263065L
aI1265791556
aI67483908
aI131627183
aI363390420
aI281566410
aI20428698
aI22249107
aI341282983
aI67082395
aI212343934
aI475137184
aI27388221
aI322327705
aI22131705
aL2928425621L
aI7859622
aL2914600845L
aI702117212
aL2923050963L
aI537339989
aI70514934
aL2203616058L
aI129823098
aI275809002
aL2248873920L
aI102255331
aI224464169
aI41792768
aI82516928
aI302021834
aI14378622
aI236334623
aI300297964
aI268036392
aI467016678
aI367933824
aI64820418
aI311706219
aI45351444
aI446611317
aI388097975
aI92129862
aI52814770
aL2529909884L
aI325822670
aI370757313
aI431721243
aI573778173
aI232325031
aI21291492
aI249758564
aI1489840663
aI1050966162
aL2314345037L
aI1276390664
aI587670921
aI925886418
aI78267588
aL2931283386L
aI19545932
aL2907951903L
aI566410022
aL2927037305L
aL2687151759L
aI36146661
aI459853476
aL2480085362L
aI370746217
aL2821594391L
aI66163413
aI370034389
aL2851517548L
aI187239744
aL2759034403L
aI601197312
aI1388360971
aL2904565510L
aL2922899344L
aI58743
aI19617848
aI428456738
aL2930075268L
aI1117157724
aL2786219271L
aL2880778630L
aL2543720516L
aI14601942
aI33956270
aI610766900
aI39466226
aL2904098999L
aL2912440215L
aL2911168161L
aL2921836788L
aL2904701787L
aI787897602
aI458966079
aI25804325
aI27939638
aI43570256
aI114361906
aI45556680
aI21674359
aI42518863
aI30525961
aL2910901267L
aI176184142
aI280422529
aI587811184
aI846439488
aI90721484
aI298577368
aL2890297088L
aI227744268
aI192824559
aI1469501107
aI138291987
aI21134925
aI1962824886
aI251823725
aI21675256
aL2895210885L
aL2850024464L
aI1962883214
aI21752930
aL2905664449L
aI37836873
aI403650264
aI15731648
aI349669650
aL2911043526L
aI48528754
aI19923293
aI316830397
aL2893275033L
aI66746743
aI389946569
aI272141779
aI16353823
aI80135659
aL2908817586L
aI308226281
aI1695359900
aL2882655952L
aI495904498
aI14305168
aI5508322
aL2906275560L
aL2905671278L
aL2886609029L
aI55062251
aI36086828
aL2706492523L
aI129078113
aI16303076
aL2884740651L
aI429945294
aI819880304
aL2588214769L
aI1424130516
aI60487132
aI210675239
aI116076835
aI109049773
aI228169246
aI260251512
aI518661877
aI66235118
aI1267588824
aI372955553
aI22194091
aL2694373117L
aI189012559
aI18504709
aI20982177
aI16298073
aI198502717
aI77301700
aI394075436
aI43432469
aL2317473696L
aL2850476873L
aI14835511
aI299776678
aI469680706
aI16853914
aI46326920
aI34738505
aI1319640757
aI89915031
aL2500301533L
aI525452668
aI30300044
aI119567074
aI538473099
aI46978096
aI61907691
aI152706582
aI150027746
aI21605600
aI230839138
aI14689215
aI587747731
aI983529264
aI86164252
aI527938391
aL2807938404L
aI224300003
aL2896842438L
aI48392114
aI815774040
aL2872292867L
aI462759644
aL2780796706L
aI295239192
aL2871797776L
aI33579983
aI100531396
aL2797071050L
aI54769209
aI1112393114
aI507669743
aI1340184788
aI31391594
aI181252508
aI17125728
aI474451376
aI62850214
aL2193134479L
aI1954173318
aL2864706864L
aI294767771
aL2866705872L
aI445811449
aI240928562
aI531291518
aL2890922066L
aI22576342
aI98703460
aI22708430
aI302483087
aI289155298
aI118511936
aI26726780
aI35041445
aL2863957955L
aL2864152023L
aI419581129
aI511032268
aI15412900
aI5943622
aI9194802
aL2835169287L
aL2773094022L
aI3349881
aL2872890554L
aI163992479
aI15810008
aI411778324
aI1104400440
aI40965404
aI32362583
aI264624022
aI360008071
aI300830185
aL2883322652L
aL2293323847L
aL2889013322L
aI438021973
aL2770913813L
aI259704449
aI17299427
aI1347007262
aL2888918257L
aL2519007301L
aL2888723275L
aL2190904789L
aI512502817
aI24682804
aL2165935526L
aI437041821
aI84284242
aL2843801960L
aI547126301
aL2678224681L
aI47591809
aI548410963
aI242166076
aL2836225703L
aI326259248
aI135758100
aL2883061170L
aI375813531
aI139584604
aI134389861
aI1014541610
aI276351334
aI1365691172
aI237421220
aI729490232
aI301244744
aI147808148
aI16839223
aI1024151702
aI29103862
aL2881611799L
aL2575066491L
aL2794752808L
aI52404351
aI317253682
aI162122796
aL2483299902L
aL2151247592L
aI507779388
aL2429522737L
aI478076406
aI151928407
aI1732939916
aI252877562
aL2564267726L
aL2843729157L
aI429286778
aL2876555354L
aI14179132
aI52235724
aI306611080
aI1246363056
aI156587545
aI191944822
aI327102440
aI351591959
aL2150935915L
aI49803349
aI22334332
aI22093804
aI359681960
aI110581612
aL2777066209L
aI128589089
aI1455010388
aL2805964270L
aI1878762438
aI491610512
aI340041416
aL2551253131L
aI21518612
aI1039081430
aL2838038500L
aI391559810
aI16162347
aL2830345876L
aI14182254
aI18036280
aI1380880813
aI52744223
aI20650147
aL2830746766L
aI253006913
aI5544932
aL2707435592L
aI431633179
aI809750376
aL2829416865L
aI193955867
aL2284275930L
aI143651355
aL2830974222L
aI278228091
aL2820024658L
aL2827940267L
aI14857438
aL2776023442L
aL2852633269L
aI231638599
aI501194958
aL2837217721L
aL2842696148L
aL2168888629L
aI38253937
aL2596615160L
aI432157277
aI1494295939
aL2820527431L
aI14572965
aI384224000
aI217102043
aI232024139
aI281279326
aI35331412
aI27070413
aI165258298
aI1205657306
aL2764417180L
aI310026931
aI86082931
aI58999464
aI365949960
aI507843900
aL2496292502L
aI8097992
aL2795751377L
aI30190522
aI194770060
aI14351178
aL2801800781L
aI877827049
aI228364410
aI202136389
aI62512351
aL2349371349L
aI32932964
aI524732919
aI609484527
aI186624817
aI117232280
aI416642011
aI72928001
aL2800522417L
aI577581799
aI508252642
aI20913244
aI21349221
aI37823252
aI262988083
aI87697041
aI1971646662
aI34756303
aI23436392
aI56409050
aL2836923386L
aI295807182
aI1583082842
aL2472291560L
aI24445606
aI76347918
aI5759952
aI716488542
aI379303138
aL2832157788L
aI724464349
aI211340745
aI1942597694
aI30898781
aI139271670
aL2280672578L
aL2786252043L
aI915973542
aL2330226182L
aI34026146
aI932339366
aI1575727592
aL2320812032L
aI20908549
aI21920026
aI6642152
aI14382523
aI50023392
aI438331701
aI14209062
aI373403727
aI16020567
aI98957204
aI151599201
aI30913882
aI11673662
aL2779038646L
aL2818520742L
aL2685992840L
aI109354009
aL2818270982L
aI423695887
aI214266765
aI373564351
aI15864640
aI605860298
aL2727071071L
aL2369091064L
aI236998725
aI77304134
aI1244719044
aL2321295800L
aI229457744
aI218503228
aI36384285
aI91690477
aL2809493738L
aI247990726
aI1877053902
aI415815602
aI242424392
aI388091876
aI163991910
aI24225716
aI1596823453
aI21893240
aI16425567
aI18516252
aI5129151
aI35195879
aI182791224
aI1845137424
aI31422711
aI509432945
aI64366492
aI541387078
aI323228464
aI624992397
aI16999577
aI38469445
aI13354102
aI1970452807
aI515875021
aI50371114
aL2301514867L
aI1177274443
aI1097515706
aL2748916656L
aI2853481
aI103925867
aI877170522
aI59850580
aI17918338
aI264347744
aL2361262828L
aI470492304
aL2393124373L
aL2168339825L
aL2392393064L
aI110170767
aL2740180966L
aI1016553810
aI704387467
aI94745498
aI379455730
aI58923840
aI27525335
aL2715990453L
aL2761293694L
aL2532074734L
aI1055630305
aI236145307
aI233026454
aI183886534
aI349893405
aI318200131
aL2501956501L
aI341881278
aI57154562
aI22838676
aI21222864
aI979634054
aI1585428626
aI1389497017
aI14535119
aI971679542
aL2230816316L
aI442107339
aI16071424
aL2153739613L
aL2309710650L
aL2789352096L
aI375224884
aI306525394
aI242104016
aL2787681384L
aL2536502833L
aI422198728
aL2400707779L
aI88952435
aI541904753
aI523804594
aL2607627218L
aI30626658
aI167469417
aI374599530
aL2456240694L
aI14787085
aL2743516209L
aI74424333
aL2347498935L
aI28882936
aI37385376
aI22260424
aI280070124
aI421522427
aL2659517563L
aI440268012
aI258425319
aI65553436
aI1541431537
aI79880662
aL2690462707L
aI1412056460
aI226741424
aI1132690304
aI36683745
aL2752874685L
aI36738600
aL2730584947L
aL2774642076L
aI952630182
aL2764924891L
aL2769117979L
aL2770634317L
aI30973340
aI270288969
aL2770002835L
aL2751141833L
aI311666057
aL2766767125L
aI1406374028
aL2763767899L
aI78458189
aI39890326
aI164769561
aL2761194306L
aI74012438
aI16365983
aI1249182444
aI68680931
aL2714343250L
aI505676242
aL2750558244L
aI192157851
aI1703589674
aI1091901936
aI57661722
aI280230168
aI361684968
aL2567017419L
aI46194503
aL2736300414L
aI373063215
aI110711694
aL2432549275L
aL2478361399L
aI14973483
aI1605907226
aL2730106798L
aI440337375
aL2735472920L
aI1400272626
aI17837051
aI14352430
aL2654312174L
aL2594585797L
aL2323721437L
aL2389844809L
aI1174480292
aL2730771804L
aL2742127875L
aI242333212
aL2352178974L
aI468492973
aI19136028
aL2741276507L
aI280099503
aL2726713646L
aI24773597
aL2725081074L
aL2725071175L
aI587050990
aI112441291
aL2194692799L
aI15291531
aI1050552247
aI43778783
aL2721124849L
aL2720970925L
aI435121433
aI351893585
aL2717653200L
aI1400291942
aI60322006
aL2715319086L
aI267365480
aI57356719
aL2712783656L
aI421450044
aI258372647
aI21788515
aI20025220
aI323475429
aL2478575203L
aI10165242
aI16392105
aI37927299
aI515959186
aI72630277
aI221259851
aI1485125844
aL2359237393L
aI1231100636
aL2707424114L
aI224846650
aL2695890097L
aI1393050360
aI35998351
aL2560250235L
aI301012638
aI1080658267
aI1277693468
aI154330058
aI144979799
aI410988596
aL2728083489L
aI395452780
aI1073795126
aL2703956360L
aI359403040
aL2700403958L
aI523706391
aI21477255
aI104510051
aI52797896
aI754556
aL2653492571L
aI461533178
aI185378842
aI15396464
aI21025692
aI1713055116
aI27281534
aI15288442
aI337888528
aI113397378
aI329913473
aI3777051
aI14995485
aI324077186
aL2695645412L
aL2695613868L
aL2695399590L
aI92718411
aI7918092
aL2323689523L
aL2729593323L
aI15553912
aI23824607
aI589714203
aI19768797
aI7426632
aI1662773784
aL2472936056L
aI21822231
aI3205
aL2691080156L
aI15865042
aI43571683
aI28406006
aI226511249
aL2688972301L
aI61505102
aI31466615
aI271993135
aI21576476
aL2493279841L
aL2686197102L
aL2488298821L
aI184391585
aI19771382
aL2680707456L
aL2724612189L
aI14626496
aI329657164
aI159568288
aI421013454
aI1375070450
aI18453099
aL2677345920L
aI329564476
aL2722441871L
aL2675485699L
aI324388124
aL2721572867L
aI273763469
aI318488345
aL2670144805L
aL2163902275L
aI1400272854
aI29364692
aI1400272848
aI588687483
aI14421539
aL2660694552L
aL2591328565L
aL2717218654L
aI514572711
aI60935398
aI103014561
aI14085662
aI420070186
aL2372334054L
aI104912681
aI126541383
aI132529058
aI1562755922
aL2173279784L
aI102348616
aL2571202459L
aI964641726
aI16314506
aI28324703
aL2715701663L
aI114782468
aI55239553
aL2651489521L
aI410562533
aI54359998
aI17664517
aL2546776014L
aI14134823
aI40333613
aL2412257030L
aI576781875
aI1208273809
aI509162636
aL2617357741L
aL2638914398L
aL2632440086L
aL2331940249L
aI240812994
aI318611585
aL2220488437L
aI800958630
aI2148071
aL2614744416L
aI431907614
aI264834791
aI18772897
aL2347534464L
aI39199749
aI456887147
aL2613525492L
aI57853713
aI602029222
aI73976285
aI19373282
aI466103931
aI74623447
aI118740979
aI208643006
aI20190551
aL2610052093L
aI1141086840
aL2397998419L
aI17640056
aL2572436338L
aI711757092
aL2478850196L
aL2585395388L
aL2602975975L
aI213260794
aI493862314
aI381546914
aL2565489504L
aI582389097
aI47403975
aI106401079
aI18768802
aI23145378
aL2593294992L
aI1481740124
aL2589678672L
aI405368774
aI74706549
aI387976114
aI1157923518
aI225857742
aI277518332
aI611426800
aI467553997
aL2588174108L
aI187747688
aL2373322756L
aI232178091
aL2586541969L
aI19562459
aI24789294
aI18608431
aI811473986
aI60485995
aI14566125
aL2557741545L
aI451876489
aI1935231600
aL2580968665L
aI344256357
aI365562746
aI199052119
aI292714338
aI419439535
aI1963958377
aI30721406
aL2576946163L
aL2574405517L
aI435633508
aI5627542
aI22244075
aI575556680
aI36460489
aI277809301
aI161428786
aI15139759
aI455824990
aL2575229484L
aI19272515
aI1222618369
aI263049574
aL2205030158L
aI32683147
aI148630141
aL2571284851L
aI1524854012
aI21879358
aL2566669814L
aI20991896
aI586124304
aI20391157
aL2567556462L
aI30893732
aI1849439216
aI432676297
aI76736871
aI1565684575
aI527728841
aI16912204
aI48730721
aI15204596
aI20729733
aL2602706956L
aI867235238
aI21012092
aL2520611292L
aL2561165666L
aI77596982
aI14243746
aL2559651948L
aI348189036
aI12193342
aL2353606192L
aI148116121
aI51226805
aL2493145884L
aL2592243891L
aL2590801209L
aI142167499
aI22691883
aI468790510
aI445020628
aI292841822
aI28162128
aL2548522818L
aL2584069007L
aI1646988068
aL2547118134L
aI233770491
aI84642699
aI245285995
aI196428302
aL2454315848L
aI30391166
aL2531107428L
aI262351933
aI22836731
aI22029004
aI204391425
aI210684204
aI91715441
aL2309463117L
aI6810242
aL2541554774L
aI17542041
aL2538416984L
aL2572378894L
aI575847718
aL2535163664L
aI29475191
aI119440282
aI774393817
aL2529989371L
aI182091040
aL2528520738L
aI174900655
aL2525849251L
aI50324367
aL2523238219L
aI366087555
aI559473160
aI716564185
aL2520844280L
aI343625164
aL2555772221L
aI10279542
aL2467914348L
aI16120265
aL2516189467L
aI22814282
aL2558743719L
aI58058023
aL2492185429L
aL2513695681L
aI462605080
aL2298805993L
aI12793062
aI165007196
aI509024343
aI17527292
aI338822602
aL2508671760L
aI336831243
aI89843524
aI22723241
aI1016101488
aI164690846
aL2398597182L
aL2508014642L
aL2497045194L
aL2507501346L
aI575658149
aL2504669047L
aI16417568
aI23892927
aI427325504
aL2499571585L
aI35867040
aI24944879
aI29344933
aI14597239
aI14010612
aI47442500
aI423683411
aI1108016496
aI17289717
aI15180311
aI18147501
aL2397514046L
aI405002095
aL2494250323L
aI1657287168
aI364779377
aL2493312259L
aI14413544
aI1711499347
aI6041742
aL2364570530L
aI217269599
aL2490358584L
aI88283494
aI479793246
aI131219865
aI27553316
aI23262217
aI16026783
aL2485491924L
aI14230772
aI49866766
aI14601165
aI13251042
aI31578769
aI18580432
aI17904829
aL2467254666L
aI4256871
aI105374966
aI138792735
aL2364689263L
aI233734110
aI27367378
aI1504273530
aI18197198
aI1005876068
aI26072030
aI28140646
aI40894219
aI1698076526
aI416036581
aI359535700
aI250483307
aI207864369
aL2480217193L
aI762663978
aI35638299
aI337443687
aI40824774
aI1533387092
aI439225838
aI739032685
aI82156784
aL2476129712L
aL2427406717L
aL2215968511L
aI14085740
aI118455583
aI601011938
aL2457763392L
aI590532537
aI484520837
aL2468635970L
aI1278852289
aL2469098714L
aI25553192
aL2335951495L
aI177257171
aI14392029
aI115991458
aL2451418698L
aI1137491
aI13351512
aL2305378238L
aI374530057
aI809183
aL2425301416L
aI238408183
aL2468318162L
aL2468307770L
aI420782555
aL2465244025L
aI621149873
aI953721872
aL2464382156L
aI15938356
aI584089269
aI23006776
aI132281466
aI19133160
aI53023065
aI1362230558
aI961132338
aI313387477
aI238601451
aI24304268
aL2462676402L
aL2342837875L
aL2336918940L
aI887742882
aI19344258
aI264255812
aI1542016741
aI19098835
aL2196997680L
aL2496489395L
aI815327970
aI523144954
aI5933862
aI22310284
aI1329417120
aL2460213110L
aI49260799
aI200097209
aL2459534845L
aI573095099
aI362893298
aI260230547
aI820258898
aI48442880
aI16450114
aI576504255
aI1880524585
aL2435396779L
aI495589422
aI381012330
aI238252349
aI873138522
aI113170258
aI54023557
aI17112369
aI36122045
aL2453722670L
aL2453713110L
aI53928910
aI43348975
aL2450909083L
aL2450591137L
aL2450537587L
aI54087036
aI200105677
aI29091888
aI1426091496
aL2448669114L
aI501816596
aI310429133
aI1934476723
aI18014227
aL2447058272L
aI1325294437
aI134566223
aI323024356
aI33341836
aI30959448
aL2375995446L
aI23760595
aI22193204
aL2442715650L
aI80586793
aI32415669
aI622118300
aI456461381
aI220445495
aL2483912962L
aI343409101
aI22072329
aI1828165153
aI36414756
aI258043201
aI5938252
aI947640870
aI119491006
aI32176424
aI312760813
aL2438611308L
aL2414264689L
aI613781119
aI19786404
aL2433672751L
aL2435480282L
aI38485881
aI39629032
aI15242170
aI413132584
aI79864638
aI538497114
aI606383011
aL2434118532L
aI378778745
aI542516431
aL2433744714L
aI120466897
aI15629821
aI28099792
aI160924991
aI16552577
aI53429839
aL2242982719L
aI1391503118
aI75209239
aI271731159
aI292730701
aI19760555
aL2410882762L
aI18856438
aI25857782
aL2432556984L
aL2432521142L
aL2431540590L
aI14478614
aL2430141680L
aL2429664420L
aL2429058967L
aI142814558
aL2423518315L
aL2153418072L
aI9092042
aL2383929511L
aI98317129
aI376254166
aL2423578207L
aI1888246902
aL2422787234L
aI1614245624
aL2422479013L
aI1360466474
aI485345615
aL2421385328L
aL2421223693L
aL2449792624L
aI711760399
aL2418067146L
aI605768473
aI281551285
aI18629674
aI604581420
aI213314133
aL2417284729L
aL2303849706L
aI942445345
aI71361295
aI418324266
aI140925844
aI225243896
aI270516244
aI117866657
aI1064517715
aI16615822
aI282974699
aL2398065703L
aI1458436838
aI1287790195
aI16598957
aL2182735717L
aL2413263943L
aI256105766
aL2412929090L
aL2376993762L
aL2398036020L
aL2411735018L
aI38978240
aI40243607
aI171017394
aI201798189
aL2409908383L
aI580017611
aI603060896
aI138554248
aI750958225
aI299159508
aL2322198599L
aI1417932925
aI277942388
aI19423486
aI205062580
aI423941826
aI874761379
aL2379105972L
aL2409609246L
aI14352928
aI280380959
aL2184613305L
aL2409242052L
aI544035893
aI173156072
aL2402243066L
aL2193005702L
aL2401044115L
aI415568526
aI353623440
aL2385650809L
aI277853976
aI254800209
aI89103249
aI144432548
aI1450964575
aI625426567
aL2392858784L
aL2392477224L
aL2391606560L
aI18174520
aI19006949
aI18601763
aI327484803
aI405568767
aI37706108
aI78970253
aL2167649318L
aL2406710957L
aI1400674346
aI267395430
aI21942241
aI18646135
aI917104146
aL2384263609L
aI412528833
aI9505502
aI700313725
aI1633384268
aI1344422430
aI518264933
aL2360428224L
aL2379077934L
aL2377536666L
aI44824888
aI1310354202
aL2376976666L
aL2330044195L
aI36452328
aI48603907
aI515507418
aL2372488423L
aL2372059304L
aI1696159178
aI1558507170
aI28363528
aI425237152
aL2370896857L
aI113548086
aI13014082
aI31053346
aI51472835
aL2369444107L
aL2361495109L
aL2367178070L
aI1439191662
aI315520146
aL2332834363L
aL2182636192L
aI288026435
aI105612954
aI70357593
aL2287506025L
aL2364616195L
aI313395080
aL2370408063L
aI1566275616
aI131630960
aI1184736264
aL2363816635L
aI47418732
aL2363485520L
aI114046710
aI57734560
aI15834002
aI785719819
aL2366976255L
aL2362027748L
aL2361775519L
aI138293290
aI43129233
aI586635398
aI14824802
aI20112201
aI159560190
aI1283273946
aI64127078
aI173704968
aI16164856
aI10325382
aL2347775923L
aI355866075
aL2359584535L
aI77076650
aL2358589368L
aI128964644
aI16031124
aI922624536
aL2355918660L
aI23015825
aL2157317060L
aL2355652728L
aI22720425
aI591156440
aI831485797
aL2354700493L
aL2354549917L
aI92268911
aL2353878068L
aI18472833
aI384805250
aL2351649632L
aL2210038985L
aI19306563
aI66198455
aI53131670
aL2350835934L
aI362536003
aI2195241
aI48005920
aI110853860
aI316764512
aL2348645197L
aI14523609
aL2323672644L
aL2235135901L
aI1665125166
aL2344998320L
aI64083835
aI1371182006
aI24264755
aI876563870
aI108021761
aL2317281246L
aI279083549
aI595245502
aI631396062
aI596704412
aI246794942
aI192612599
aI85388353
aI50908634
aI121206144
aI366089767
aI652193
aI426044697
aI39549428
aI135622752
aI306116656
aL2340835344L
aI563111649
aI14802907
aI22522178
aI55304925
aI1140162078
aI339024811
aL2337729380L
aL2328499927L
aL2336595094L
aI1345580348
aI118574609
aI86343120
aI17085087
aL2330179141L
aL2332025151L
aI15888634
aI716944926
aI336485058
aL2332878050L
aI150842805
aI1565751108
aI1880590356
aI1885555004
aI1885799144
aI1885790190
aI1919832145
aI1919811344
aI1919840779
aI1919820980
aL2230498867L
aI224516495
aI24646725
aI345553881
aI239888627
aI407766595
aI11957562
aI23323644
aI445696551
aI17029137
aL2310237852L
aI253234581
aI15036742
aI303806105
aI209634483
aI170143933
aL2329563234L
aI48500651
aI300106265
aL2326675995L
aL2329252706L
aI1263107664
aI22429979
aI44943147
aI25497961
aI74235308
aL2293828469L
aI236461254
aI333529496
aL2171438630L
aL2164786248L
aL2325398988L
aI788673
aI12221542
aL2253614269L
aI309656653
aL2326763587L
aL2326734300L
aL2326120794L
aL2236826372L
aI59151932
aI28792580
aL2311966940L
aI1052810408
aI28172926
aL2322739688L
aL2321669666L
aI23664556
aI48890349
aI1891950738
aI114590567
aI1797991
aI35899293
aI211316225
aI14763287
aI1878862956
aI15865896
aI1281615150
aI1063621722
aL2241048661L
aI188343397
aI88968217
aI49044100
aI60689036
aI21254439
aI192315964
aI66660205
aI1687942604
aL2316140856L
aI122186657
aI77595516
aI297102056
aI22193361
aI15508395
aI48235139
aL2314584048L
aI144225690
aL2313587916L
aI17394486
aI14866874
aI72389498
aI42968737
aL2309474467L
aI14738684
aI34058419
aI312752250
aI61875523
aL2308664191L
aL2308232977L
aL2307935822L
aI707185031
aI65466158
aI19638674
aL2201197497L
aL2297526010L
aI23967111
aL2303633742L
aI258539320
aI546061302
aI59638353
aI153514876
aL2252852442L
aI823089062
aL2241364915L
aI51266095
aL2305305991L
aI219229259
aL2305005774L
aI541137188
aL2293759286L
aL2281506001L
aI300195767
aI347318515
aL2301773408L
aL2288536701L
aL2301431778L
aI89772871
aI27504437
aI39856810
aL2298858146L
aL2300069090L
aL2300006444L
aL2299431594L
aL2299127996L
aI30783608
aI11103172
aI48377097
aL2296615807L
aL2295811723L
aI14934757
aI98920857
aI774310591
aI36414930
aI17661200
aI14789619
aI16679681
aI13525812
aL2291432880L
aI17897948
aI76699382
aI128438575
aI71176242
aI144665306
aI17842188
aL2287948488L
aL2287604040L
aL2274678592L
aI28167086
aI54356940
aI243850426
aI52264600
aI382788364
aI327339464
aI18723810
aI467954475
aI17579981
aL2283852792L
aL2283158244L
aL2265172463L
aL2244200432L
aI548735244
aI158070493
aL2279471647L
aI366626460
aI40761220
aI430997434
aI1326425750
aI220877830
aI347929438
aI1648930633
aL2278329054L
aI100399816
aI44444038
aL2262566799L
aL2276396844L
aL2276067992L
aI25859277
aI98734027
aL2274950636L
aI230577906
aI554681516
aI15601924
aI30443664
aL2272555950L
aI101348982
aI60110003
aI104740598
aI366147429
aI28289402
aI294588244
aI829525183
aI349685286
aL2267648377L
aI25552455
aI43230744
aI1406464646
aI22340494
aI292309920
aI93948539
aI451944658
aI16441758
aI68934583
aI18459899
aI1900851390
aI66387019
aI50658671
aL2243303245L
aI977067073
aI1365003668
aI30543915
aI47085622
aI35280486
aI1433799012
aI444693400
aL2262379280L
aI925337167
aL2260466496L
aL2260521068L
aI26660342
aI1436859348
aI1948066632
aI1469656538
aL2259652207L
aL2259564565L
aL2259431324L
aL2220272568L
aL2259314456L
aI105946558
aL2255815526L
aL2258157534L
aL2256735858L
aI60962945
aL2188668984L
aI1367018215
aL2237267312L
aI491783634
aI131929992
aL2253309740L
aI1898773530
aI17092656
aI259025037
aL2252571560L
aL2252387899L
aL2250196314L
aI596653026
aI50832877
aI36147643
aL2176799528L
aL2249141371L
aL2247749425L
aI453733787
aL2247209401L
aL2244851725L
aI370383958
aI24830678
aL2243218736L
aI683803
aL2168621790L
aI16623443
aL2148511479L
aI1385586290
aL2236453482L
aI137288990
aI558147080
aL2207975719L
aI1601999779
aI240313731
aI153045854
aI882108175
aI19705130
aI620114473
aL2229128996L
aI184216713
aI1463348978
aL2202392698L
aI1655816936
aI16262188
aI64256643
aI17375583
aI444562815
aL2225753046L
aI1532636960
aL2223378900L
aI47479824
aI1918818354
aI311010607
aL2221772473L
aL2221737037L
aL2220952849L
aI21727996
aI7707062
aI26757704
aI97966078
aI481468399
aI104952689
aI1346890644
aI8149632
aI49267635
aL2216532996L
aL2197253278L
aL2216161171L
aL2194611738L
aI493227218
aI191558607
aL2204411059L
aI398180605
aI632278432
aI62404274
aI1941974732
aL2210077219L
aL2209753802L
aL2209709064L
aI58559649
aL2196558487L
aI1915605283
aL2199906666L
aL2207865990L
aI595242208
aI14290415
aL2163983705L
aL2207408390L
aI349676012
aI56480896
aI106500748
aL2204570744L
aI180420408
aI19089116
aI252825643
aI14749759
aL2203551234L
aI1340051306
aL2181327415L
aL2203108280L
aL2202980174L
aI365945334
aL2201456168L
aI30735253
aI148838257
aI586032653
aI17221422
aI18058155
aL2194982790L
aI22472769
aI1363760246
aI764666840
aI5768872
aI16319078
aI180131570
aI596872866
aL2166780114L
aI21175969
aL2190511032L
aL2184717516L
aL2188873848L
aL2176929376L
aI1840617517
aL2175898259L
aL2178584526L
aI715778225
aL2185376694L
aI6036422
aI3881851
aI991318410
aI192436909
aI38502647
aI17464545
aL2180831604L
aL2179123722L
aI14616957
aI7433772
aL2178536378L
aL2178314324L
aL2169378905L
aI31656431
aL2167475694L
aL2176302193L
aI201753473
aI18011097
aI49330382
aL2172928069L
aI323987299
aL2166225887L
aI370815149
aI1862535978
aI1935876822
aI14096763
aI18087961
aI422699164
aI29755782
aI44917686
aL2166300308L
aI353344542
aI18036353
aI23365046
aI76824894
aI18636529
aI24985189
aI16310349
aI597027104
aL2161754720L
aI19195460
aL2161542996L
aI120958282
aL2158765165L
aI366029246
aI1546754881
aI40010148
aI1705616162
aL2159868409L
aL2159079746L
aL2157769512L
aI78169750
aL2155398602L
aL2154893192L
aI201963234
aI23093017
aI1904286404
aI297178707
aI44145319
aI21437924
aI8030292
aI13940392
aI14097951
aI96184837
aI1295492184
aI1408306464
aI191633906
aI104535621
aL2148904309L
aL2147992495L
aI25915690
aI19430233
aI7405912
aI8406952
aI17142193
aI14733894
aI419387406
aI81947708
aI1923330259
aI1972639351
aI1972459478
aI155517099
aI58700400
aI74430545
aI121841565
aI19478716
aI19040598
aI1966032972
aI9637672
aI470847338
aI46489733
aI1964841942
aI27815430
aI16195030
aI106709545
aI1963647625
aI453581882
aI716140558
aI18576477
aI1961210856
aI1071419874
aI1961057652
aI119920353
aI1960918278
aI16203323
aI292576703
aI1958699958
aI1958480239
aI21274390
aI260466784
aI218143973
aI66172538
aI17897981
aI1130961312
aI1544032898
aI16666005
aI531705241
aI17902930
aI229531396
aI1170028578
aI2732151
aI305117304
aI549499334
aI1447836697
aI25836665
aI25806649
aI27777926
aI989434656
aI216410940
aI8305232
aI41231330
aI1935210685
aI1934640372
aI1934480911
aI21188219
aI292758442
aI112542044
aI1927898792
aI590136775
aI21127834
aI41562052
aI1877681767
aI43962686
aI15432059
aI738388856
aI16331450
aI13349542
aI37842924
aI17746914
aI734893830
aI44317593
aI56250500
aI314718961
aI1618320054
aI249535878
aI55919026
aI327408907
aI1912941932
aI265181005
aI1912166346
aI1912150364
aI900157478
aI261360070
aI19729101
aI1438785408
aI393508741
aI1561131228
aI257562201
aI17526804
aI1902345900
aI38880050
aI229397793
aI24705575
aI466171931
aI435028813
aI76448221
aI21834510
aI569245453
aI20643299
aI1886279966
aI36670010
aI370211908
aI1882060651
aI134229520
aI125425853
aI176797329
aI80881866
aI74851947
aI117839245
aI1321231051
aI1869282002
aI389941640
aI13662722
aI347865571
aI1260271021
aI14275873
aI119084202
aI1735252399
aI19935511
aI1848957049
aI1317763201
aI18617717
aI1614125803
aI22923790
aI1613318912
aI442069641
aI1725922446
aI1568545676
aI302128211
aI964016305
aI43334517
aI1710257101
aI1708799113
aI1697427446
aI1703752614
aI1703077332
aI23469766
aI75726609
aI1692368456
aI741664123
aI27046692
aI85468411
aI1670698730
aI1139674141
aI598818721
aI1691840748
aI104712573
aI140504125
aI319238938
aI1217331296
aI1683795241
aI1683152648
aI28681356
aI368947418
aI266735521
aI18944486
aI285351337
aI300908287
aI1653203262
aI1666032751
aI18172909
aI1671745452
aI28254715
aI322756461
aI14439371
aI303855276
aI975468198
aI312266530
aI622628412
aI498144170
aI1666636356
aI200982982
aI1663196270
aI17104451
aI358557428
aI1658753414
aI19907538
aI75503
aI76133
aI636998432
aI14923268
aI274082878
aI1651759080
aI19776774
aI61646186
aI1037429725
aI144621489
aI8962882
aI563090911
aI17205277
aI131862090
aI426481358
aI25595427
aI53832621
aI75600786
aI60175380
aI39566371
aI17519831
aI1648760648
aI35777027
aI21271410
aI160951141
aI743477862
aI527158541
aI20474624
aI533466282
aI20095393
aI14966346
aI1415720539
aI22696953
aI540868557
aI1632824281
aI394635011
aI23621340
aI1543986246
aI1621822460
aI765467785
aI1009977692
aI1619910121
aI1615984140
aI20341962
aI19117804
aI23218068
aI212944792
aI1608651042
aI1607482454
aI1604574474
aI20461771
aI1605097898
aI119360413
aI16408959
aI1601002369
aI15126948
aI124638139
aI39103115
aI38647975
aI16539995
aI1468090664
aI58528442
aI162925433
aI156826659
aI72196084
aI173857641
aI1290885205
aI6259922
aI727527806
aI15223252
aI235128753
aI363242345
aI468116405
aI234892671
aI468411708
aI14228801
aI1447807170
aI793036376
aI1591895898
aI1356802022
aI1499050572
aI779451
aI15463435
aI63693545
aI260900316
aI156036434
aI38936142
aI371833592
aI474549019
aI362373208
aI326963270
aI303029239
aI1101887582
aI5695942
aI92281665
aI899571234
aI36178328
aI1558021158
aI1571835919
aI1571779063
aI13146722
aI137298309
aI243033375
aI17525171
aI150656075
aI89587925
aI22782543
aI35821442
aI27767714
aI1556718600
aI23395189
aI24981492
aI1366627285
aI1548597433
aI409322550
aI1245578742
aI634735245
aI114602310
aI17087210
aI14515799
aI37995402
aI14622152
aI1452155672
aI1543955731
aI381804307
aI1541503873
aI40086005
aI14412988
aI15304877
aI36382502
aI1220167638
aI244781586
aI460309636
aI1449774518
aI1526358907
aI531426472
aI1517980802
aI363845082
aI1518449869
aI619796390
aI1506575850
aI1513946604
aI373816916
aI1286780371
aI3108351
aI101354384
aI14172728
aI1268839711
aI109926606
aI16020435
aI1097220421
aI1411080164
aI343921967
aI1495025292
aI1491891590
aI26285079
aI84617980
aI1379189701
aI17341907
aI14857801
aI552347447
aI899589006
aI71244739
aI64809272
aI49847919
aI624762482
aI15894018
aI1474366464
aI18223590
aI31123305
aI1460014670
aI846462966
aI1450821768
aI1454754068
aI924365041
aI17265327
aI1450815060
aI9484732
aI29054836
aI51154105
aI243690582
aI45708902
aI1138327208
aI1443044892
aI69041666
aI15292528
aI1421541746
aI1418745348
aI60283817
aI1327779535
aI10075602
aI278600736
aI33616548
aI928003922
aI14995005
aI16886925
aI39403756
aI1411845458
aI1070929081
aI437937594
aI1403339160
aI299530725
aI603774971
aI28164923
aI1399569158
aI18140516
aI15600883
aI80903194
aI286357748
aI1397570562
aI8070502
aI291536010
aI15763199
aI29374498
aI1391130103
aI1390218043
aI177601187
aI31178767
aI381865879
aI493533339
aI23365014
aI40232190
aI1385754355
aI805276508
aI12263542
aI71340937
aI318171818
aI340327523
aI101487396
aI18207918
aI1378767710
aI317313362
aI1377966985
aI1372566824
aI1229009677
aI379400344
aI42388191
aI598077632
aI73194395
aI348557830
aI821557387
aI293748552
aI30233955
aI392936943
aI1317670176
aI1045751
aI1360404336
aI131989870
aI264490983
aI244169661
aI1332105229
aI16831353
aI1356918642
aI1356271387
aI105126441
aI52406844
aI1349462329
aI1284187441
aI19029306
aI1344300972
aI216799530
aI334079148
aI33999013
aI549710894
aI1337825569
aI13092002
aI34374572
aI22805681
aI43970862
aI1310607152
aI36294224
aI217210051
aI1128527264
aI144552023
aI24528558
aI18143563
aI260504942
aI261991881
aI546985151
aI1318305950
aI69260219
aI17400150
aI44187772
aI285784484
aI27660973
aI1299073705
aI942634890
aI1246462044
aI1274877626
aI14466268
aI37747072
aI14579415
aI19063753
aI76097537
aI34623892
aI1084561742
aI14139141
aI110412183
aI19349894
aI17675861
aI164400667
aI26009167
aI139048661
aI42861339
aI44470680
aI19576482
aI109594439
aI33076987
aI32410744
aI1074989143
aI763820954
aI22789966
aI20190369
aI558668655
aI14173032
aI15777821
aI6509522
aI67607781
aI151191872
aI47564983
aI17516049
aI852812539
aI361340346
aI187965811
aI5845492
aI1149758040
aI54830197
aI947858852
aI933188749
aI26597472
aI18161668
aI824315029
aI236978500
aI844741
aI33460299
aI1152471132
aI129029019
aI65381936
aI15119529
aI1149309560
aI74331100
aI86731762
aI45291450
aI267866954
aI1137084024
aI12340782
aI125668357
aI259072076
aI1023409790
aI34354668
aI28701389
aI245784511
aI22300778
aI545532788
aI17703236
aI857223402
aI101688719
aI383910785
aI939526790
aI125400908
aI535775254
aI153495347
aI103539813
aI870374809
aI1066381087
aI886183026
aI1014160614
aI609560380
aI3373791
aI893238469
aI84708462
aI38308475
aI30129482
aI30705924
aI22744258
aI38225369
aI884838289
aI18551719
aI15118253
aI31399121
aI953422548
aI27717630
aI9089942
aI18080708
aI903035844
aI122704362
aI860755621
aI622235485
aI870861788
aI334361158
aI458822559
aI388666121
aI93206508
aI16124187
aI575917095
aI131883678
aI373598135
aI138831249
aI879973310
aI274123503
aI28902096
aI259604792
aI801507288
aI21799929
aI475078630
aI55695753
aI858946448
aI20345379
aI335434968
aI745098144
aI854282220
aI282119072
aI93512693
aI312623680
aI112850579
aI564433840
aI17349122
aI15392550
aI59476180
aI396115735
aI106513682
aI16086628
aI159534114
aI106900380
aI17710112
aI17071336
aI114599241
aI16337977
aI16313788
aI29691628
aI455994588
aI140822072
aI599828678
aI766570963
aI21656554
aI76773876
aI44208504
aI775426939
aI195056760
aI70332589
aI95908609
aI727158122
aI19976046
aI126085203
aI20275289
aI630527524
aI106498703
aI29560258
aI17009336
aI731220242
aI17035063
aI466894956
aI298118398
aI737390412
aI735486338
aI240948594
aI15713458
aI14097020
aI703435243
aI16706252
aI15944443
aI553760006
aI581110557
aI14129793
aI14992263
aI16001939
aI14080610
aI325100194
aI10255172
aI502053236
aI22680719
aI243188478
aI62608532
aI628676797
aI16386284
aI21342715
aI375541220
aI49780891
aI7953662
aI188829085
aI237823345
aI90445381
aI17816699
aI22810429
aI14258396
aI18337564
aI19613907
aI13475512
aI484493960
aI500288547
aI257923603
aI5477012
aI272540464
aI14246001
aI787799
aI504452162
aI15647751
aI14412941
aI182211360
aI15601652
aI179922611
aI16527724
aI9152472
aI16745299
aI17851032
aI28215380
aI58484086
aI14222359
aI15456624
aI256117379
aI15999668
aI154016912
aI305224217
aI2899161
aI14400984
aI13365612
aI33658889
aI17392836
aI85343739
aI16807860
aI34589665
aI24364940
aI292394679
aI42751260
aI15435158
aI16338873
aI30235141
aI442160204
aI583800103
aI8206322
aI321583618
aI36448330
aI19219421
aI17383270
aI51781119
aI581943670
aI562249682
aI98493233
aI122557484
aI132988753
aI126964925
aI575650011
aI65387315
aI564741203
aI62642923
aI45373592
aI268445081
aI15187243
aI22990928
aI565548402
aI565123695
aI522498303
aI367614015
aI105240608
aI24650475
aI239455667
aI546173047
aI37557208
aI495205423
aI229272714
aI247823511
aI167490009
aI15208875
aI15514218
aI518019843
aI127260433
aI52408671
aI23899377
aI8965112
aI23283608
aI265754065
aI86331938
aI506735761
aI481869377
aI350955204
aI20890557
aI28874966
aI101858272
aI19515598
aI373630984
aI16875871
aI282534785
aI15357302
aI174272266
aI472389353
aI72323160
aI463759771
aI285535477
aI14390255
aI47656410
aI54654554
aI29100243
aI253657709
aI20549664
aI432411752
aI20458997
aI43208586
aI19784099
aI427134444
aI421052972
aI412998472
aI388744945
aI357749897
aI240485432
aI20611469
aI21886052
aI180556387
aI27954329
aI392298809
aI158866855
aI37156297
aI160566999
aI172616578
aI32628749
aI25568817
aI8169842
aI259777931
aI349130227
aI36658961
aI62963572
aI12901522
aI156694087
aI264635547
aI236719631
aI28859230
aI355365490
aI355459731
aI340575093
aI7517172
aI132577409
aI193846146
aI26790872
aI34455803
aI166333035
aI218416876
aI215639818
aI300905016
aI334789257
aI293153909
aI18443606
aI23970551
aI317225299
aI130176926
aI18992010
aI278161486
aI237764259
aI84864905
aI19410400
aI300345401
aI294628043
aI17494010
aI22262553
aI17616503
aI83128340
aI182756674
aI149593579
aI285424135
aI19778949
aI284739424
aI279730641
aI283224730
aI281706831
aI42167672
aI26788466
aI270990805
aI253128512
aI25693244
aI37719488
aI59165763
aI48903480
aI19002947
aI151137866
aI270286169
aI242329876
aI44358989
aI18791763
aI112816663
aI130742116
aI15731193
aI15943454
aI18794882
aI8420062
aI154278865
aI21719564
aI157875413
aI184845597
aI14289197
aI27937612
aI38655202
aI261127213
aI16412255
aI10280042
aI14437914
aI21769127
aI184548177
aI253726486
aI75097340
aI44532454
aI68108874
aI104257356
aI17393790
aI259858810
aI15514266
aI95984800
aI224798839
aI3648061
aI94001128
aI216798259
aI46201350
aI253868737
aI251685659
aI15842780
aasS'obj'
p7
ccopy_reg
_reconstructor
p8
(ctweepy.models
User
p9
c__builtin__
object
p10
Ntp11
Rp12
(dp13
S'follow_request_sent'
p14
I00
sS'has_extended_profile'
p15
I00
sS'profile_use_background_image'
p16
I01
sS'profile_sidebar_fill_color'
p17
VC9C9C9
p18
sS'id'
p19
I252370778
sS'verified'
p20
I01
sS'entities'
p21
(dp22
Vurl
p23
(dp24
Vurls
p25
(lp26
(dp27
g23
Vhttp://t.co/neSTlMrlCI
p28
sVindices
p29
(lp30
I0
aI22
asVexpanded_url
p31
Vhttp://on.wsj.com/1kXdd8i
p32
sVdisplay_url
p33
Von.wsj.com/1kXdd8i
p34
sassVdescription
p35
(dp36
g25
(lp37
sssS'profile_image_url_https'
p38
Vhttps://pbs.twimg.com/profile_images/430463006141468672/ymm83EnT_normal.jpeg
p39
sS'_json'
p40
(dp41
Vfollow_request_sent
p42
I00
sVhas_extended_profile
p43
I00
sVprofile_use_background_image
p44
I01
sVdefault_profile_image
p45
I00
sVid
p46
I252370778
sVprofile_background_image_url_https
p47
Vhttps://pbs.twimg.com/profile_background_images/225082649/x8056aabe5b1c3881c600f883e5b3299.png
p48
sVverified
p49
I01
sVprofile_text_color
p50
V1C1F23
p51
sVprofile_image_url_https
p52
g39
sVprofile_sidebar_fill_color
p53
g18
sVentities
p54
g22
sVfollowers_count
p55
I4794
sVprofile_sidebar_border_color
p56
VBFBFBF
p57
sVid_str
p58
V252370778
p59
sVprofile_background_color
p60
V07090B
p61
sVlisted_count
p62
I249
sVstatus
p63
(dp64
Vlang
p65
Ven
p66
sVfavorited
p67
I00
sg54
(dp68
Vsymbols
p69
(lp70
sVuser_mentions
p71
(lp72
(dp73
g46
I514613499
sg29
(lp74
I0
aI15
asg58
V514613499
p75
sVscreen_name
p76
VProfJeffJarvis
p77
sVname
p78
VScary PJJ 2016
p79
sasVhashtags
p80
(lp81
sg25
(lp82
ssVcontributors
p83
NsVtruncated
p84
I00
sVtext
p85
V@ProfJeffJarvis " limos don\u2019t talk, unlike hotel rooms" and Fridges!
p86
sVcreated_at
p87
VMon Nov 16 23:34:12 +0000 2015
p88
sVretweeted
p89
I00
sVin_reply_to_status_id_str
p90
V666398158382047232
p91
sVcoordinates
p92
NsVin_reply_to_user_id_str
p93
V514613499
p94
sVsource
p95
V<a href="https://about.twitter.com/products/tweetdeck" rel="nofollow">TweetDeck</a>
p96
sVin_reply_to_status_id
p97
L666398158382047232L
sVin_reply_to_screen_name
p98
VProfJeffJarvis
p99
sg58
V666398895275134978
p100
sVplace
p101
NsVretweet_count
p102
I0
sVgeo
p103
Nsg46
L666398895275134978L
sVfavorite_count
p104
I1
sVin_reply_to_user_id
p105
I514613499
ssVis_translation_enabled
p106
I00
sVutc_offset
p107
I-18000
sVstatuses_count
p108
I8790
sg35
VMedia, telecom & retail for Wall Street Journal's Heard on the Street; 'When in Rome, do as Miriam does'; 212-416-2679; miriam.gottfried@wsj.com
p109
sVfriends_count
p110
I880
sVlocation
p111
VNYC
p112
sVprofile_link_color
p113
VC34242
p114
sVprofile_image_url
p115
Vhttp://pbs.twimg.com/profile_images/430463006141468672/ymm83EnT_normal.jpeg
p116
sVfollowing
p117
I00
sVgeo_enabled
p118
I00
sVprofile_banner_url
p119
Vhttps://pbs.twimg.com/profile_banners/252370778/1382555654
p120
sVprofile_background_image_url
p121
Vhttp://pbs.twimg.com/profile_background_images/225082649/x8056aabe5b1c3881c600f883e5b3299.png
p122
sg76
Vmiriamgottfried
p123
sg65
Ven
p124
sVprofile_background_tile
p125
I01
sVfavourites_count
p126
I5450
sg78
VMiriam Gottfried
p127
sVnotifications
p128
I00
sg23
Vhttp://t.co/neSTlMrlCI
p129
sg87
VTue Feb 15 01:55:01 +0000 2011
p130
sVcontributors_enabled
p131
I00
sVtime_zone
p132
VEastern Time (US & Canada)
p133
sVprotected
p134
I00
sVdefault_profile
p135
I00
sVis_translator
p136
I00
ssS'contributors_enabled'
p137
I00
sS'profile_text_color'
p138
g51
sS'followers_count'
p139
I4794
sS'profile_sidebar_border_color'
p140
g57
sS'id_str'
p141
g59
sS'default_profile_image'
p142
I00
sS'listed_count'
p143
I249
sS'status'
p144
g8
(ctweepy.models
Status
p145
g10
Ntp146
Rp147
(dp148
S'favorited'
p149
I00
sS'contributors'
p150
NsS'truncated'
p151
I00
sS'text'
p152
g86
sS'source_url'
p153
Vhttps://about.twitter.com/products/tweetdeck
p154
sS'in_reply_to_status_id'
p155
L666398158382047232L
sS'geo'
p156
Nsg19
L666398895275134978L
sS'favorite_count'
p157
I1
sS'lang'
p158
g66
sg21
g68
sS'created_at'
p159
cdatetime
datetime
p160
(S'\x07\xdf\x0b\x10\x17"\x0c\x00\x00\x00'
p161
tp162
Rp163
sg40
g64
sS'coordinates'
p164
NsS'in_reply_to_user_id_str'
p165
g94
sS'source'
p166
VTweetDeck
p167
sS'in_reply_to_status_id_str'
p168
g91
sS'in_reply_to_screen_name'
p169
g99
sg141
g100
sS'retweeted'
p170
I00
sS'place'
p171
NsS'retweet_count'
p172
I0
sS'in_reply_to_user_id'
p173
I514613499
sbsS'is_translation_enabled'
p174
I00
sS'utc_offset'
p175
I-18000
sS'statuses_count'
p176
I8790
sS'description'
p177
g109
sS'friends_count'
p178
I880
sS'location'
p179
g112
sS'profile_link_color'
p180
g114
sS'profile_image_url'
p181
g116
sS'notifications'
p182
I00
sS'geo_enabled'
p183
I00
sS'profile_background_color'
p184
g61
sS'profile_banner_url'
p185
g120
sS'profile_background_image_url'
p186
g122
sS'screen_name'
p187
g123
sg158
g124
sg1
I00
sS'profile_background_tile'
p188
I01
sS'favourites_count'
p189
I5450
sS'name'
p190
g127
sS'url'
p191
g129
sg159
g160
(S'\x07\xdb\x02\x0f\x017\x01\x00\x00\x00'
p192
tp193
Rp194
sS'profile_background_image_url_https'
p195
g48
sS'time_zone'
p196
g133
sS'protected'
p197
I00
sS'default_profile'
p198
I00
sS'is_translator'
p199
I00
sbs.