(dp0
S'following'
p1
(lp2
(lp3
I759251
aI742143
aI1652541
aI428333
aI51241574
aI15138087
aasS'followers'
p4
(lp5
(lp6
L2612311915L
aI117920885
aI248856369
aL4186563074L
aI1582674716
aI250317700
aI117679884
aL3068641671L
aI35778964
aI295330659
aI473562694
aI597799971
aL2957596833L
aI1924312855
aL2860845668L
aI1861663298
aI98676606
aI1859428514
aI48514393
aL2781050528L
aL2799757448L
aI759695005
aL2450102586L
aI9555372
aI981236256
aI1583359764
aI229843846
aI449327830
aI1924316509
aI1924310023
aL4098716357L
aI388502811
aI1400272116
aL3018809793L
aI343264326
aI127967449
aL3431904743L
aI987686478
aI33292567
aI25600149
aI492248877
aL3186864901L
aI1716831366
aL2414495798L
aI54331527
aI115237355
aI1047324295
aL3065083689L
aI1260284636
aI1260262158
aI1260260124
aL2541589014L
aI1260257160
aI1260274004
aI1260227790
aI1260248167
aI1260201097
aI1260172470
aI1260190525
aI418746216
aI1444614408
aI1562454494
aI1069228003
aL3073478049L
aL3068579100L
aI867937051
aI473232019
aI64656814
aL3074242066L
aL3063346128L
aI104611058
aL2985088676L
aL3005719105L
aI716044325
aL3056014015L
aL2524767170L
aI431345358
aL3019124826L
aL2832981087L
aI24021544
aL3057680842L
aI805230144
aI27996064
aI344793159
aL3017849575L
aI14232408
aI485387897
aI35085422
aL3011820468L
aL3029863227L
aI1969645297
aI183604126
aL3011106974L
aL3010784120L
aI382580037
aI331100022
aL2167615590L
aI303223590
aI399776615
aL2985830802L
aI29310489
aI1971413005
aI345958803
aI762254293
aI1275929029
aI15893852
aL2259761579L
aI84965158
aL2978116091L
aI942188318
aL2875565213L
aL2332028507L
aL2899016185L
aI405075878
aI176310813
aI366069748
aL2964747207L
aI397353826
aL2951624661L
aI1723969848
aL2467279494L
aI1611417474
aI986118085
aI1902696246
aL2670457263L
aL2817852475L
aI55853069
aI1685868804
aI450381355
aL2711979499L
aI78170182
aL2904098999L
aI1562614952
aI1304726984
aL2830139552L
aI611817117
aI16985899
aL2306973602L
aL2831307177L
aI831082747
aL2901320381L
aL2718306188L
aL2857544273L
aL2890477909L
aL2912395063L
aL2894371700L
aL2910411996L
aI569302303
aI29392038
aL2533422487L
aL2805681330L
aI14111300
aI470309726
aI340683401
aI1146785276
aL2394644889L
aL2876491089L
aI211474964
aI35923007
aL2878591280L
aL2557677988L
aL2553826717L
aI139529657
aL2316083070L
aI33028184
aI928523641
aI1395600223
aI17218831
aI316287179
aL2822313820L
aI272141779
aL2256742002L
aI1390431854
aI253716230
aI263499224
aI1943520012
aL2871971635L
aL2222114406L
aL2867362597L
aI36293963
aL2687765011L
aL2755460209L
aI900053119
aI1687695949
aI1598022187
aL2657044632L
aI1167632820
aI140540706
aI150906781
aL2573412902L
aI204544989
aI390030334
aI881608580
aI259554796
aI741384151
aL2258840119L
aI351860071
aI1971963728
aL2767843208L
aI1635968258
aI1072905493
aI69187710
aL2816447358L
aI1430358654
aI113946795
aI474428104
aI1591287799
aL2650852027L
aI316038015
aL2817739634L
aI27219544
aI25212962
aI1123508761
aL2333985300L
aI73141191
aL2754939598L
aI1227458989
aI526941409
aI388011737
aI283826638
aI1201287032
aL2395258519L
aI1019032993
aI390749799
aL2603356759L
aI589254233
aI485844722
aI1634042664
aI1260179330
aI1260179900
aI125331311
aI469384100
aI1260240902
aI1244393550
aI91321449
aI127453562
aI1404958586
aI937208143
aL2274460473L
aI104079354
aI22860697
aI31526569
aL2740172562L
aL2258209889L
aL2738954042L
aL2634777789L
aL2161018567L
aI36308013
aI904968246
aI238039357
aI783512852
aI41276816
aI900357733
aI1018112461
aI703444772
aI1462240951
aI1934775949
aL2424364068L
aI16023435
aI67170957
aI1568421427
aI105548711
aI120939886
aI421121391
aL2484617029L
aI18292600
aI125488912
aI318217693
aI264638768
aI1376828191
aI1375296078
aL2451621096L
aI184391585
aI75012115
aI264347744
aI1896215124
aI1116145243
aL2649356107L
aL2505126759L
aI1318573878
aL2623979387L
aI1363688388
aI110778943
aL2457383286L
aL2400370016L
aL2575850515L
aI18892351
aL2574148741L
aI573331713
aL2637033347L
aL2364813896L
aL2638575557L
aL2638560051L
aL2620378642L
aL2637152969L
aL2619371986L
aL2619307383L
aL2619321543L
aL2619317999L
aI124779106
aI1670698730
aI307230882
aI428670278
aI1615623462
aL2574858337L
aL2620207287L
aL2620307903L
aL2620121931L
aI351072185
aI352359131
aL2618324375L
aL2618337904L
aL2618335414L
aL2618336272L
aL2618308047L
aL2618305431L
aL2618331448L
aL2618330656L
aL2618327464L
aL2618311937L
aL2618308091L
aL2618309285L
aL2618313808L
aL2618287935L
aL2618298419L
aI72572343
aL2615608149L
aI20053729
aL2610957533L
aL2355636918L
aL2487588065L
aL2505444105L
aL2473880759L
aI256836369
aI266385504
aI720821731
aI1433238841
aI1501701007
aL2477351321L
aL2427860541L
aL2480652880L
aL2424881747L
aL2479659173L
aL2479885947L
aL2434157877L
aL2484364121L
aL2424513659L
aL2442218308L
aL2421209069L
aL2418821777L
aL2433060707L
aL2424392325L
aL2417586461L
aL2496781425L
aL2472817911L
aL2422144649L
aL2415702628L
aL2414920282L
aL2479177528L
aL2479225804L
aL2495838027L
aL2416619189L
aL2479285342L
aL2473757519L
aL2472731333L
aL2437124079L
aL2423871857L
aL2469565493L
aL2421192401L
aL2423315627L
aL2479499265L
aL2480652664L
aL2434335821L
aI1193681952
aL2529027149L
aL2529006376L
aL2525318063L
aI1500293790
aL2529337997L
aL2528852759L
aL2529027887L
aL2528783609L
aL2525882278L
aL2528945722L
aL2529010025L
aL2528934538L
aL2529207879L
aL2525334010L
aL2528868214L
aL2529021095L
aL2525308390L
aL2528825867L
aL2529103953L
aL2526659146L
aL2528844657L
aL2475622418L
aL2224116099L
aI1525371200
aL2526659567L
aL2528893930L
aL2528816733L
aL2526388606L
aI1632665546
aI1513693008
aL2238168911L
aL2525302625L
aL2528950042L
aL2351506679L
aL2525217155L
aL2511642205L
aL2478903155L
aL2510977489L
aL2480362965L
aL2508155082L
aL2503209948L
aL2525277616L
aL2479744895L
aL2345001807L
aL2481564460L
aL2512416920L
aL2508562424L
aL2503161030L
aasS'obj'
p7
ccopy_reg
_reconstructor
p8
(ctweepy.models
User
p9
c__builtin__
object
p10
Ntp11
Rp12
(dp13
S'follow_request_sent'
p14
NsS'has_extended_profile'
p15
I00
sS'profile_use_background_image'
p16
I01
sS'profile_sidebar_fill_color'
p17
VDDEEF6
p18
sS'id'
p19
L2525892205L
sS'verified'
p20
I00
sS'entities'
p21
(dp22
Vurl
p23
(dp24
Vurls
p25
(lp26
(dp27
g23
Vhttp://t.co/oT0s8pX8T2
p28
sVindices
p29
(lp30
I0
aI22
asVexpanded_url
p31
Vhttp://www.intercooleronline.com
p32
sVdisplay_url
p33
Vintercooleronline.com
p34
sassVdescription
p35
(dp36
g25
(lp37
sssS'profile_image_url_https'
p38
Vhttps://pbs.twimg.com/profile_images/471038514675474432/wc-6YgXp_normal.jpeg
p39
sS'_json'
p40
(dp41
Vfollow_request_sent
p42
NsVhas_extended_profile
p43
I00
sVprofile_use_background_image
p44
I01
sVdefault_profile_image
p45
I00
sVid
p46
L2525892205L
sVprofile_background_image_url_https
p47
Vhttps://abs.twimg.com/images/themes/theme1/bg.png
p48
sVverified
p49
I00
sVprofile_text_color
p50
V333333
p51
sVprofile_image_url_https
p52
g39
sVprofile_sidebar_fill_color
p53
g18
sVentities
p54
g22
sVfollowers_count
p55
I422
sVprofile_sidebar_border_color
p56
VC0DEED
p57
sVid_str
p58
V2525892205
p59
sVprofile_background_color
p60
VC0DEED
p61
sVlisted_count
p62
I25
sVstatus
p63
(dp64
Vcontributors
p65
NsVtruncated
p66
I00
sVtext
p67
VMorningstar Assigns \u201cBB+\u201d Credit Rating to Wynn Resorts, Limited $WYNN https://t.co/vxlk6TThj3
p68
sVin_reply_to_status_id
p69
Nsg46
L666248749631602688L
sVfavorite_count
p70
I0
sVsource
p71
V<a href="http://ifttt.com" rel="nofollow">IFTTT</a>
p72
sVretweeted
p73
I00
sVcoordinates
p74
Nsg54
(dp75
Vsymbols
p76
(lp77
(dp78
g29
(lp79
I65
aI70
asg67
VWYNN
p80
sasVuser_mentions
p81
(lp82
sVhashtags
p83
(lp84
sg25
(lp85
(dp86
g23
Vhttps://t.co/vxlk6TThj3
p87
sg29
(lp88
I71
aI94
asg31
Vhttp://ift.tt/1RYWZcB
p89
sg33
Vift.tt/1RYWZcB
p90
sassVin_reply_to_screen_name
p91
Nsg58
V666248749631602688
p92
sVretweet_count
p93
I0
sVin_reply_to_user_id
p94
NsVfavorited
p95
I00
sVgeo
p96
NsVin_reply_to_user_id_str
p97
NsVpossibly_sensitive
p98
I00
sVlang
p99
Ven
p100
sVcreated_at
p101
VMon Nov 16 13:37:34 +0000 2015
p102
sVin_reply_to_status_id_str
p103
NsVplace
p104
NssVis_translation_enabled
p105
I00
sVutc_offset
p106
NsVstatuses_count
p107
I120806
sg35
V
p108
sVfriends_count
p109
I6
sVlocation
p110
VFlorida
p111
sVprofile_link_color
p112
V0084B4
p113
sVprofile_image_url
p114
Vhttp://pbs.twimg.com/profile_images/471038514675474432/wc-6YgXp_normal.jpeg
p115
sVfollowing
p116
NsVgeo_enabled
p117
I00
sVprofile_banner_url
p118
Vhttps://pbs.twimg.com/profile_banners/2525892205/1401139391
p119
sVprofile_background_image_url
p120
Vhttp://abs.twimg.com/images/themes/theme1/bg.png
p121
sVscreen_name
p122
Vintercooleronli
p123
sg99
Ven
p124
sVprofile_background_tile
p125
I00
sVfavourites_count
p126
I0
sVname
p127
VInterCooler
p128
sVnotifications
p129
Nsg23
Vhttp://t.co/oT0s8pX8T2
p130
sg101
VMon May 26 21:20:18 +0000 2014
p131
sVcontributors_enabled
p132
I00
sVtime_zone
p133
NsVprotected
p134
I00
sVdefault_profile
p135
I01
sVis_translator
p136
I00
ssS'contributors_enabled'
p137
I00
sS'profile_text_color'
p138
g51
sS'followers_count'
p139
I422
sS'profile_sidebar_border_color'
p140
g57
sS'id_str'
p141
g59
sS'default_profile_image'
p142
I00
sS'listed_count'
p143
I25
sS'status'
p144
g8
(ctweepy.models
Status
p145
g10
Ntp146
Rp147
(dp148
S'favorited'
p149
I00
sS'contributors'
p150
NsS'truncated'
p151
I00
sS'text'
p152
g68
sS'source_url'
p153
Vhttp://ifttt.com
p154
sS'possibly_sensitive'
p155
I00
sS'in_reply_to_status_id'
p156
NsS'geo'
p157
Nsg19
L666248749631602688L
sS'favorite_count'
p158
I0
sS'lang'
p159
g100
sg21
g75
sS'created_at'
p160
cdatetime
datetime
p161
(S'\x07\xdf\x0b\x10\r%"\x00\x00\x00'
p162
tp163
Rp164
sg40
g64
sS'coordinates'
p165
NsS'in_reply_to_user_id_str'
p166
NsS'source'
p167
VIFTTT
p168
sS'in_reply_to_status_id_str'
p169
NsS'in_reply_to_screen_name'
p170
Nsg141
g92
sS'retweeted'
p171
I00
sS'place'
p172
NsS'retweet_count'
p173
I0
sS'in_reply_to_user_id'
p174
NsbsS'is_translation_enabled'
p175
I00
sS'utc_offset'
p176
NsS'statuses_count'
p177
I120806
sS'description'
p178
g108
sS'friends_count'
p179
I6
sS'location'
p180
g111
sS'profile_link_color'
p181
g113
sS'profile_image_url'
p182
g115
sS'notifications'
p183
NsS'geo_enabled'
p184
I00
sS'profile_background_color'
p185
g61
sS'profile_banner_url'
p186
g119
sS'profile_background_image_url'
p187
g121
sS'screen_name'
p188
g123
sg159
g124
sg1
I00
sS'profile_background_tile'
p189
I00
sS'favourites_count'
p190
I0
sS'name'
p191
g128
sS'url'
p192
g130
sg160
g161
(S'\x07\xde\x05\x1a\x15\x14\x12\x00\x00\x00'
p193
tp194
Rp195
sS'profile_background_image_url_https'
p196
g48
sS'time_zone'
p197
NsS'protected'
p198
I00
sS'default_profile'
p199
I01
sS'is_translator'
p200
I00
sbs.