(dp0
S'following'
p1
(lp2
(lp3
L2774551355L
aL2557183339L
aI147998139
aL2195080038L
aI296514341
aL2841032723L
aI105413219
aL2831626602L
aI444938818
aL2303948004L
aL2812172217L
aI337968909
aL2563646022L
aI1081819903
aI142277840
aI20835456
aL2722882722L
aI18068073
aL2714279918L
aI1575973986
aI1256660550
aI62127693
aI1951994160
aI36001883
aL2599797398L
aL2286933728L
aI30864098
aI18257487
aI158941108
aL2572830134L
aI1543072628
aL2707537280L
aI365440183
aI271778688
aI1876410210
aI68425924
aI1377824935
aI873880164
aI377018034
aI31275580
aI1265125345
aI408100058
aL2592423223L
aI395250270
aI540750580
aL2675405208L
aI39198111
aL2419194756L
aI1447362248
aL2706080292L
aL2208585085L
aL2366296358L
aI627578922
aL2373446051L
aI382876858
aL2681831767L
aI20473329
aI114183107
aI37017261
aL2319298967L
aI1312204700
aI23022161
aL2296748726L
aI915796495
aI542840469
aI735280746
aI33109387
aL2651990378L
aL2340645799L
aL2691308660L
aI1711739342
aL2560899660L
aI488127983
aL2444352781L
aL2693405083L
aL2689282050L
aL2654708242L
aI525713285
aL2670535411L
aI1152984595
aI727193022
aL2354928007L
aI1369360440
aL2428055045L
aI1011941574
aI223887223
aI1318964966
aL2650008680L
aL2431447641L
aI440272274
aI15040988
aI26713042
aL2184665196L
aL2544728480L
aI100218359
aI53579217
aL2478548545L
aL2598526662L
aI1273532971
aI780469045
aL2686020266L
aI109512819
aI1258243938
aI16657786
aI26952935
aL2508784442L
aL2615528953L
aI15034155
aI1483185702
aI203024248
aL2615603630L
aL2667910046L
aI1003769130
aL2675274463L
aL2557963830L
aI228679953
aL2182969026L
aI184950588
aI475952696
aL2552330280L
aI266171036
aI541940527
aI1676756676
aI17638273
aI128847518
aI392469861
aI175906908
aI120332307
aI39957724
aI1316950460
aI86689374
aI79210652
aI63818960
aL2322935827L
aI24187104
aI42430180
aI60294741
aI195921210
aI470072149
aI317549874
aI35686657
aI18511391
aI29964759
aI722480312
aL2718663195L
aI815651436
aI43942229
aL2670968364L
aI154530823
aI983935002
aI1961122069
aI792198926
aI487308755
aL2668090308L
aI74724876
aI226256948
aL2666881376L
aL2525348117L
aL2717218337L
aL2258078502L
aL2159398820L
aI864000018
aL2570561827L
aI1673999324
aI1465483465
aL2555492936L
aL2666530434L
aI1197345576
aL2565636595L
aL2516548284L
aL2187117308L
aL2659475168L
aL2290395662L
aI564873087
aL2283115388L
aL2719577487L
aI1419965035
aI1732251638
aI1870053469
aI1140791539
aL2365631125L
aL2366134435L
aI144219653
aL2643458701L
aL2613431344L
aI634455657
aI299404666
aL2627573784L
aI174091791
aI44332532
aI28428838
aI169115069
aI263026031
aI157956169
aL2565439729L
aI135325668
aI327833243
aL2656797584L
aL2256003930L
aL2422806902L
aI84051650
aI22179619
aL2558463343L
aL2657978160L
aI339436580
aI139311025
aL2370717032L
aI169964031
aI114304418
aI532722457
aI15811749
aI463581555
aI318421688
aI1339382984
aI316786120
aI20468996
aL2363349235L
aL2656671792L
aI160358537
aI73953031
aI31076914
aL2648278166L
aL2482893991L
aI487118986
aI928520490
aL2393225203L
aI17433591
aI329598963
aL2653766898L
aI17835343
aI111583872
aL2646296754L
aI530839582
aL2653788222L
aL2640436159L
aI1490300052
aI966928603
aL2640043440L
aL2631500255L
aL2555242525L
aI1636317235
aI19645866
aI1565453804
aI25220418
aL2421236229L
aL2495727296L
aL2696289885L
aL2651814061L
aL2586283382L
aL2646540637L
aI557855355
aI117883265
aL2647525039L
aL2229891492L
aI66935500
aL2332099369L
aI17861991
aL2649597140L
aI1971013627
aL2371102609L
aI819701023
aL2702500437L
aI54669222
aL2589205423L
aL2595429379L
aI72764133
aI849328400
aI207048594
aI1146331
aL2544061105L
aI260182449
aI126515041
aL2283452474L
aL2332350522L
aI271531588
aL2443700412L
aI127195708
aI796574509
aI276234557
aI194962708
aL2380277628L
aI204385761
aL2434680655L
aI1950096493
aI1911303422
aI919864417
aI85739643
aL2571075786L
aI17565293
aI18942861
aI205558787
aL2320766444L
aI23463257
aI97340532
aL2539691300L
aI393147054
aI164274882
aI909287167
aL2187233760L
aI21229157
aI1663541358
aL2641783279L
aI532643012
aL2592134713L
aI35574246
aI1705234928
aL2602465345L
aI16993181
aL2327528100L
aI43056691
aI176372641
aL2162177626L
aI135540434
aI295528885
aI1239875148
aI14945250
aI1078030825
aI85884020
aL2287778433L
aL2597913606L
aL2616677946L
aL2571202459L
aI67956011
aI158940713
aI1517894166
aI56340831
aI116655954
aI256152123
aI567549527
aI425185949
aI385033487
aI497300307
aI88857139
aL2295334754L
aL2597545405L
aI1582674716
aI1523445181
aL2608133450L
aL2611864608L
aI72342284
aI400664702
aI72251250
aI479723245
aL2606247775L
aI831933140
aL2608590540L
aL2583856861L
aL2195164722L
aI40200683
aI47444682
aI408555400
aL2607888258L
aI287531586
aI459781893
aI1343041062
aL2586149184L
aI394209375
aI1593350862
aI18118024
aL2164736040L
aI1183887576
aL2599581392L
aI35795680
aL2386642381L
aI284124543
aI361681753
aI1322307116
aL2595597943L
aI608192319
aI52835309
aI1422126799
aL2611279974L
aI298199572
aI1852128427
aI129964269
aI27786357
aL2431812199L
aI15369494
aI855531504
aL2591257206L
aI606468976
aL2590607214L
aI27555264
aI42701544
aI1322467172
aL2597214601L
aI542936786
aL2552666815L
aI34765545
aL2656926034L
aI125014101
aI626435619
aI485173961
aI1925445428
aL2463413829L
aI51130851
aI1063752252
aI479102502
aI1271013866
aI152751463
aL2602031797L
aI1140341359
aL2234578842L
aI201331931
aI1057678213
aI1620962106
aL2272699164L
aI1363153292
aI15185621
aI106058159
aI1969439738
aI14787410
aI905772288
aL2212809691L
aI481596421
aI886747723
aI162540978
aI36350825
aI20808507
aI204633530
aL2279958188L
aL2243965574L
aI1399177513
aI208527185
aI17145553
aI260678593
aL2653701928L
aL2410493264L
aI881150815
aI1670252582
aI1564070150
aI546071423
aL2376544555L
aL2385014449L
aI144910421
aI84726219
aL2598417259L
aI566556008
aI708963753
aL2329785776L
aI51685977
aI188523295
aI616297042
aI180587156
aL2577756926L
aL2173925814L
aI1083536078
aI1069155829
aI1097041136
aI1176991920
aL2476834308L
aI1972254097
aL2595137598L
aI225925468
aI113446410
aI116578795
aL2323040006L
aL2328090591L
aL2331781479L
aL2320581355L
aI21360280
aL2342620233L
aI1332077702
aL2250146256L
aL2323843914L
aL2321484538L
aI287730945
aI20600715
aL2584305272L
aL2328288001L
aI567762634
aL2185832379L
aI1618364226
aI56721392
aI813285217
aI360790643
aI846201806
aI760428786
aI17897350
aI1382378318
aL2422443446L
aI146584479
aI1863667136
aI124254678
aI42640655
aL2569947968L
aI1073556834
aI38574970
aI603660185
aL2490334729L
aL2473556496L
aI635507681
aI241332406
aI956207372
aI309360105
aL2160942344L
aI30789784
aL2572972266L
aL2338630706L
aI61232074
aI1615273622
aI374743810
aI252409895
aL2534615442L
aI1638528679
aI38284349
aI297855695
aI1196924336
aI1643536627
aL2523404908L
aI357070701
aI401504533
aI18310594
aI25342583
aI898543087
aI24286710
aI243943831
aL2629011849L
aI31541303
aI1373414718
aL2479697150L
aI203873539
aI380732151
aI166420381
aL2391839132L
aI365314557
aI1881448603
aL2505667579L
aL2363273126L
aL2471183959L
aI859645872
aL2416565454L
aI383119910
aI272501540
aI41041371
aI329199972
aL2572756141L
aL2553004056L
aI331693001
aI226828258
aL2574614006L
aL2186498034L
aI68703804
aL2574012367L
aI1968635906
aI1584991532
aI422249409
aI1684275386
aI1016692321
aI278954905
aL2536587080L
aI1180865725
aI68415847
aL2574183925L
aI359445146
aI547250190
aI256934748
aI1484544793
aI1588569746
aI133784606
aI509699900
aI25274516
aI49745152
aI1059672860
aI133390286
aL2504470881L
aL2272394823L
aI15398178
aI1633524530
aI604120470
aI241861085
aL2544102854L
aI194180186
aL2550023336L
aL2380883804L
aL2295894933L
aI20576735
aI1400098081
aI404300631
aI127883506
aI47285398
aasS'followers'
p4
(lp5
(lp6
L4004861053L
aL4078994416L
aL3537564563L
aL2943589996L
aL3312667008L
aL3633641956L
aI33923443
aL2616677946L
aI28428838
aasS'obj'
p7
ccopy_reg
_reconstructor
p8
(ctweepy.models
User
p9
c__builtin__
object
p10
Ntp11
Rp12
(dp13
S'follow_request_sent'
p14
NsS'has_extended_profile'
p15
I00
sS'profile_use_background_image'
p16
I01
sS'profile_sidebar_fill_color'
p17
VDDEEF6
p18
sS'id'
p19
L2561736000L
sS'verified'
p20
I00
sS'entities'
p21
(dp22
Vdescription
p23
(dp24
Vurls
p25
(lp26
sssS'profile_image_url_https'
p27
Vhttps://pbs.twimg.com/profile_images/476776813004222464/B0oU_AdW_normal.jpeg
p28
sS'_json'
p29
(dp30
Vfollow_request_sent
p31
NsVhas_extended_profile
p32
I00
sVprofile_use_background_image
p33
I01
sVdefault_profile_image
p34
I00
sVid
p35
L2561736000L
sVprofile_background_image_url_https
p36
Vhttps://abs.twimg.com/images/themes/theme1/bg.png
p37
sVverified
p38
I00
sVprofile_text_color
p39
V333333
p40
sVprofile_image_url_https
p41
g28
sVprofile_sidebar_fill_color
p42
g18
sVentities
p43
g22
sVfollowers_count
p44
I9
sVprofile_sidebar_border_color
p45
VC0DEED
p46
sVid_str
p47
V2561736000
p48
sVprofile_background_color
p49
VC0DEED
p50
sVlisted_count
p51
I7
sVstatus
p52
(dp53
Vcontributors
p54
NsVtruncated
p55
I00
sVtext
p56
VRT @venicewavefest: \u2018Hide &amp;amp; Seek\u2019 by @roxiebardo https://t.co/iAP4SHNnG9
p57
sVin_reply_to_status_id
p58
Nsg35
L662383465040625666L
sVfavorite_count
p59
I0
sVsource
p60
V<a href="http://twitter.com" rel="nofollow">Twitter Web Client</a>
p61
sVretweeted
p62
I00
sVcoordinates
p63
Nsg43
(dp64
Vsymbols
p65
(lp66
sVuser_mentions
p67
(lp68
(dp69
g35
L3898164493L
sVindices
p70
(lp71
I3
aI18
asg47
V3898164493
p72
sVscreen_name
p73
Vvenicewavefest
p74
sVname
p75
VVWF Music
p76
sa(dp77
g35
I175262449
sg70
(lp78
I45
aI56
asg47
V175262449
p79
sg73
Vroxiebardo
p80
sg75
VRoxie Bardo
p81
sasVhashtags
p82
(lp83
sg25
(lp84
(dp85
Vurl
p86
Vhttps://t.co/iAP4SHNnG9
p87
sg70
(lp88
I57
aI80
asVexpanded_url
p89
Vhttps://soundcloud.com/roxie-bardo/hide-seek?utm_source=soundcloud&utm_campaign=share&utm_medium=twitter
p90
sVdisplay_url
p91
Vsoundcloud.com/roxie-bardo/hi\u2026
p92
sassVin_reply_to_screen_name
p93
Nsg47
V662383465040625666
p94
sVretweet_count
p95
I301
sVin_reply_to_user_id
p96
NsVfavorited
p97
I00
sVretweeted_status
p98
(dp99
g54
Nsg55
I00
sg56
V\u2018Hide &amp;amp; Seek\u2019 by @roxiebardo https://t.co/iAP4SHNnG9
p100
sg58
Nsg35
L661581247647354880L
sg59
I3
sg60
V<a href="http://twitter.com" rel="nofollow">Twitter Web Client</a>
p101
sg62
I00
sg63
Nsg43
(dp102
g65
(lp103
sg67
(lp104
(dp105
g35
I175262449
sg70
(lp106
I25
aI36
asg47
V175262449
p107
sg73
Vroxiebardo
p108
sg75
VRoxie Bardo
p109
sasg82
(lp110
sg25
(lp111
(dp112
g86
Vhttps://t.co/iAP4SHNnG9
p113
sg70
(lp114
I37
aI60
asg89
Vhttps://soundcloud.com/roxie-bardo/hide-seek?utm_source=soundcloud&utm_campaign=share&utm_medium=twitter
p115
sg91
Vsoundcloud.com/roxie-bardo/hi\u2026
p116
sassg93
Nsg47
V661581247647354880
p117
sg95
I301
sg96
Nsg97
I00
sVgeo
p118
NsVin_reply_to_user_id_str
p119
NsVpossibly_sensitive
p120
I00
sVlang
p121
Ven
p122
sVcreated_at
p123
VTue Nov 03 16:30:35 +0000 2015
p124
sVin_reply_to_status_id_str
p125
NsVplace
p126
Nssg118
Nsg119
Nsg120
I00
sg121
Ven
p127
sg123
VThu Nov 05 21:38:19 +0000 2015
p128
sg125
Nsg126
NssVis_translation_enabled
p129
I00
sVutc_offset
p130
NsVstatuses_count
p131
I2389
sg23
V
p132
sVfriends_count
p133
I581
sVlocation
p134
g132
sVprofile_link_color
p135
V0084B4
p136
sVprofile_image_url
p137
Vhttp://pbs.twimg.com/profile_images/476776813004222464/B0oU_AdW_normal.jpeg
p138
sVfollowing
p139
NsVgeo_enabled
p140
I00
sVprofile_background_image_url
p141
Vhttp://abs.twimg.com/images/themes/theme1/bg.png
p142
sg73
Vbatizhevskij_a
p143
sg121
Vru
p144
sVprofile_background_tile
p145
I00
sVfavourites_count
p146
I877
sg75
Vadam batizhevskij
p147
sVnotifications
p148
Nsg86
Nsg123
VWed Jun 11 17:23:40 +0000 2014
p149
sVcontributors_enabled
p150
I00
sVtime_zone
p151
NsVprotected
p152
I00
sVdefault_profile
p153
I01
sVis_translator
p154
I00
ssS'contributors_enabled'
p155
I00
sS'profile_text_color'
p156
g40
sS'followers_count'
p157
I9
sS'profile_sidebar_border_color'
p158
g46
sS'id_str'
p159
g48
sS'default_profile_image'
p160
I00
sS'listed_count'
p161
I7
sS'status'
p162
g8
(ctweepy.models
Status
p163
g10
Ntp164
Rp165
(dp166
S'favorited'
p167
I00
sS'contributors'
p168
NsS'truncated'
p169
I00
sS'text'
p170
g57
sS'source_url'
p171
Vhttp://twitter.com
p172
sS'possibly_sensitive'
p173
I00
sS'in_reply_to_status_id'
p174
NsS'geo'
p175
Nsg19
L662383465040625666L
sS'favorite_count'
p176
I0
sS'lang'
p177
g127
sS'retweeted_status'
p178
g8
(g163
g10
Ntp179
Rp180
(dp181
g167
I00
sg168
Nsg169
I00
sg170
g100
sg171
Vhttp://twitter.com
p182
sg173
I00
sg174
Nsg175
Nsg19
L661581247647354880L
sg176
I3
sg177
g122
sg21
g102
sS'created_at'
p183
cdatetime
datetime
p184
(S'\x07\xdf\x0b\x03\x10\x1e#\x00\x00\x00'
p185
tp186
Rp187
sg29
g99
sS'coordinates'
p188
NsS'in_reply_to_user_id_str'
p189
NsS'source'
p190
VTwitter Web Client
p191
sS'in_reply_to_status_id_str'
p192
NsS'in_reply_to_screen_name'
p193
Nsg159
g117
sS'retweeted'
p194
I00
sS'place'
p195
NsS'retweet_count'
p196
I301
sS'in_reply_to_user_id'
p197
Nsbsg21
g64
sg183
g184
(S'\x07\xdf\x0b\x05\x15&\x13\x00\x00\x00'
p198
tp199
Rp200
sg29
g53
sg188
Nsg189
Nsg190
VTwitter Web Client
p201
sg192
Nsg193
Nsg159
g94
sg194
I00
sg195
Nsg196
I301
sg197
NsbsS'is_translation_enabled'
p202
I00
sS'utc_offset'
p203
NsS'statuses_count'
p204
I2389
sS'description'
p205
g132
sS'friends_count'
p206
I581
sS'location'
p207
g132
sS'profile_link_color'
p208
g136
sS'profile_image_url'
p209
g138
sS'notifications'
p210
NsS'geo_enabled'
p211
I00
sS'profile_background_color'
p212
g50
sS'profile_background_image_url'
p213
g142
sS'screen_name'
p214
g143
sg177
g144
sg1
I00
sS'profile_background_tile'
p215
I00
sS'favourites_count'
p216
I877
sS'name'
p217
g147
sS'url'
p218
Nsg183
g184
(S'\x07\xde\x06\x0b\x11\x17(\x00\x00\x00'
p219
tp220
Rp221
sS'profile_background_image_url_https'
p222
g37
sS'time_zone'
p223
NsS'protected'
p224
I00
sS'default_profile'
p225
I01
sS'is_translator'
p226
I00
sbs.