(dp0
S'following'
p1
(lp2
(lp3
I1691181
aL2992367496L
aI617381538
aI821618390
aL3411388453L
aI1139857417
aL2936374685L
aI7520262
aI247857712
aL3298711484L
aI536593677
aL2251588049L
aL2607477037L
aI1027173822
aL2893191361L
aL3019290069L
aI18856867
aI297168625
aI1262364356
aI1656845317
aL2932892716L
aI246585278
aI52123263
aI582241407
aL3269580751L
aL2764841456L
aI414904961
aI1534167900
aI43475268
aL2826770398L
aL2413104151L
aI24147760
aI471378013
aL2448728762L
aI27828974
aI112872946
aL2946624364L
aL2371952437L
aL2295371424L
aI1539164581
aI168679374
aI12044602
aI127567372
aL2476046870L
aI134256935
aI25317426
aL2746667072L
aI38053161
aI25234311
aI274233761
aI564706156
aI142839300
aI523462279
aL2563924585L
aI1228235330
aI1928213371
aI1317807865
aI1328994019
aI49663664
aI459447657
aI236953420
aI237591901
aI15896903
aI60150406
aI47247213
aL2408023860L
aI17573691
aI1673739764
aI145313421
aI583552801
aI100592354
aI66746952
aI40099128
aI34837057
aI163648850
aI20486238
aI55561590
aI1450167168
aL2417993377L
aI375721095
aI21232827
aI18120133
aL2149877280L
aL2172423304L
aI273030371
aI322090544
aI403855355
aI317437245
aI84466455
aI983655260
aI133483902
aI15404576
aI44060322
aI467048306
aI458989076
aI46227914
aI775319148
aI586734515
aI579136745
aI218022222
aI17549691
aI37555599
aI201891203
aI27990259
aL2490171890L
aI443918542
aL2284218780L
aI102527566
aI102094857
aL2323888255L
aI1873589498
aI170428232
aI718182886
aI258028535
aI254207829
aI1931179794
aI62562916
aI59853587
aI193542064
aI37469211
aI15130891
aI1209303486
aI313714566
aI215128630
aL2336694942L
aI273786152
aI96682182
aL2409330439L
aI904810278
aI41458395
aI1689434408
aI514835972
aI193838214
aI35250074
aI262144590
aI132643352
aI190092133
aI102819479
aI49620233
aI253410257
aI18911440
aI43267963
aI115471142
aI15531635
aI29748372
aI545618159
aL2342591485L
aI14220705
aI46167275
aI103159011
aI31546412
aI1575204570
aI68604037
aI498166332
aI21447925
aI137419464
aI92184762
aI501511743
aI569542024
aI7517052
aI455824771
aI19111917
aI15971805
aI394642779
aI66975479
aI106498703
aI15281391
aI15568127
aI15110357
aI20402945
aI624413
aI16228398
aI66444123
aI112909007
aI14216123
aI14297693
aasS'followers'
p4
(lp5
(lp6
L2937952835L
aL4060623993L
aL2959809639L
aL4117441822L
aL4108231581L
aL4117430956L
aL2837169387L
aI95115004
aI75297153
aI1669534855
aI1360916118
aL3188178888L
aL3979726700L
aI607638633
aI1083563610
aL3158081880L
aL3874732888L
aI1233010442
aI224387007
aI43554881
aI794921328
aI317562281
aI196296812
aL3119814442L
aL2469832928L
aI43327512
aL2869788255L
aI1516667023
aI384354145
aL3390855777L
aL2689000488L
aL3245466404L
aI1668691892
aL3074519581L
aI25123726
aL3411388453L
aI1139857417
aL3444669974L
aL3234414777L
aL3834211823L
aI260898142
aI100767876
aL2942456615L
aL2286458227L
aI27358039
aI536593677
aL2896032581L
aL3271422313L
aL3019290069L
aL3578821754L
aI1027173822
aL3412617271L
aL2563924585L
aL2412852955L
aI1320385812
aL2855710079L
aL3298760562L
aI15412990
aL3269580751L
aI74924764
aL3224439745L
aL3252954546L
aI1719506780
aL2172348455L
aL2922314807L
aL2772167606L
aL2964287876L
aI63023559
aI425424159
aI471378013
aL3118931809L
aL3037641536L
aL2989418722L
aI287885364
aI514720100
aI1264282129
aL3028191174L
aI1539164581
aI31077414
aL2922115476L
aI399895499
aL2454124364L
aL2524217959L
aL2970710367L
aL2970127779L
aL2472016988L
aI120672388
aI24224332
aL2341525668L
aL2917945203L
aI468804791
aI451141297
aI14886375
aL2917925022L
aL2753440416L
aI253410257
aI126352674
aI1286540352
aI62226476
aL2149877280L
aI381307183
aL2533540607L
aL2408023860L
aL2806787947L
aL2623849649L
aI140540706
aI87059991
aI1167632820
aI718182886
aL2801016034L
aI323398062
aI273030371
aI37469211
aI1975566224
aL2765659033L
aI340405550
aI15897179
aL2172423304L
aI1228116126
aI421794008
aL2273212256L
aI107646745
aL2653263673L
aI519438789
aL2662370076L
aL2589568812L
aI1384775209
aI93561089
aI1972631497
aI855703436
aI522920774
aI232008636
aI284279515
aL2668257262L
aI115832964
aI501511743
aasS'obj'
p7
ccopy_reg
_reconstructor
p8
(ctweepy.models
User
p9
c__builtin__
object
p10
Ntp11
Rp12
(dp13
S'follow_request_sent'
p14
NsS'has_extended_profile'
p15
I00
sS'profile_use_background_image'
p16
I01
sS'profile_sidebar_fill_color'
p17
VDDEEF6
p18
sS'id'
p19
L2563956080L
sS'verified'
p20
I00
sS'entities'
p21
(dp22
Vdescription
p23
(dp24
Vurls
p25
(lp26
sssS'profile_image_url_https'
p27
Vhttps://pbs.twimg.com/profile_images/477177436212191232/mkN5pSAp_normal.jpeg
p28
sS'_json'
p29
(dp30
Vfollow_request_sent
p31
NsVhas_extended_profile
p32
I00
sVprofile_use_background_image
p33
I01
sVdefault_profile_image
p34
I00
sVid
p35
L2563956080L
sVprofile_background_image_url_https
p36
Vhttps://pbs.twimg.com/profile_background_images/567472032338558977/u6NESCcJ.jpeg
p37
sVverified
p38
I00
sVprofile_text_color
p39
V333333
p40
sVprofile_image_url_https
p41
g28
sVprofile_sidebar_fill_color
p42
g18
sVentities
p43
g22
sVfollowers_count
p44
I136
sVprofile_sidebar_border_color
p45
VC0DEED
p46
sVid_str
p47
V2563956080
p48
sVprofile_background_color
p49
VC0DEED
p50
sVlisted_count
p51
I7
sVstatus
p52
(dp53
Vcontributors
p54
NsVtruncated
p55
I00
sVtext
p56
V@SpartanStocks I need you &amp; the fams help. Pls vote for my gf @ https://t.co/VcdZdRBeBE "Ashley Hobbs". Pls retweet this. Thank You \U0001f64f\U0001f3fb
p57
sVin_reply_to_status_id
p58
Nsg35
L666326610543415296L
sVfavorite_count
p59
I1
sVsource
p60
V<a href="http://twitter.com/download/iphone" rel="nofollow">Twitter for iPhone</a>
p61
sVretweeted
p62
I00
sVcoordinates
p63
Nsg43
(dp64
Vsymbols
p65
(lp66
sVuser_mentions
p67
(lp68
(dp69
g35
I1027173822
sVindices
p70
(lp71
I0
aI14
asg47
V1027173822
p72
sVscreen_name
p73
VSpartanStocks
p74
sVname
p75
VSpartan Stocks
p76
sasVhashtags
p77
(lp78
sg25
(lp79
(dp80
Vurl
p81
Vhttps://t.co/VcdZdRBeBE
p82
sg70
(lp83
I68
aI91
asVexpanded_url
p84
Vhttp://www.bodybuilding.com/fun/spokesmodel-search.html
p85
sVdisplay_url
p86
Vbodybuilding.com/fun/spokesmode\u2026
p87
sassVin_reply_to_screen_name
p88
VSpartanStocks
p89
sg47
V666326610543415296
p90
sVretweet_count
p91
I0
sVin_reply_to_user_id
p92
I1027173822
sVfavorited
p93
I00
sVgeo
p94
NsVin_reply_to_user_id_str
p95
V1027173822
p96
sVpossibly_sensitive
p97
I00
sVlang
p98
Ven
p99
sVcreated_at
p100
VMon Nov 16 18:46:58 +0000 2015
p101
sVin_reply_to_status_id_str
p102
NsVplace
p103
NssVis_translation_enabled
p104
I00
sVutc_offset
p105
NsVstatuses_count
p106
I1524
sg23
VSTOCK & FOREX TRADER, REAL-ESTATE INVESTOR
p107
sVfriends_count
p108
I176
sVlocation
p109
V
p110
sVprofile_link_color
p111
V0084B4
p112
sVprofile_image_url
p113
Vhttp://pbs.twimg.com/profile_images/477177436212191232/mkN5pSAp_normal.jpeg
p114
sVfollowing
p115
NsVgeo_enabled
p116
I00
sVprofile_background_image_url
p117
Vhttp://pbs.twimg.com/profile_background_images/567472032338558977/u6NESCcJ.jpeg
p118
sg73
Vlarue510
p119
sg98
Ven
p120
sVprofile_background_tile
p121
I01
sVfavourites_count
p122
I494
sg75
VRJ LaRue
p123
sVnotifications
p124
Nsg81
Nsg100
VThu Jun 12 19:33:04 +0000 2014
p125
sVcontributors_enabled
p126
I00
sVtime_zone
p127
NsVprotected
p128
I00
sVdefault_profile
p129
I00
sVis_translator
p130
I00
ssS'contributors_enabled'
p131
I00
sS'profile_text_color'
p132
g40
sS'followers_count'
p133
I136
sS'profile_sidebar_border_color'
p134
g46
sS'id_str'
p135
g48
sS'default_profile_image'
p136
I00
sS'listed_count'
p137
I7
sS'status'
p138
g8
(ctweepy.models
Status
p139
g10
Ntp140
Rp141
(dp142
S'favorited'
p143
I00
sS'contributors'
p144
NsS'truncated'
p145
I00
sS'text'
p146
g57
sS'source_url'
p147
Vhttp://twitter.com/download/iphone
p148
sS'possibly_sensitive'
p149
I00
sS'in_reply_to_status_id'
p150
NsS'geo'
p151
Nsg19
L666326610543415296L
sS'favorite_count'
p152
I1
sS'lang'
p153
g99
sg21
g64
sS'created_at'
p154
cdatetime
datetime
p155
(S'\x07\xdf\x0b\x10\x12.:\x00\x00\x00'
p156
tp157
Rp158
sg29
g53
sS'coordinates'
p159
NsS'in_reply_to_user_id_str'
p160
g96
sS'source'
p161
VTwitter for iPhone
p162
sS'in_reply_to_status_id_str'
p163
NsS'in_reply_to_screen_name'
p164
g89
sg135
g90
sS'retweeted'
p165
I00
sS'place'
p166
NsS'retweet_count'
p167
I0
sS'in_reply_to_user_id'
p168
I1027173822
sbsS'is_translation_enabled'
p169
I00
sS'utc_offset'
p170
NsS'statuses_count'
p171
I1524
sS'description'
p172
g107
sS'friends_count'
p173
I176
sS'location'
p174
g110
sS'profile_link_color'
p175
g112
sS'profile_image_url'
p176
g114
sS'notifications'
p177
NsS'geo_enabled'
p178
I00
sS'profile_background_color'
p179
g50
sS'profile_background_image_url'
p180
g118
sS'screen_name'
p181
g119
sg153
g120
sg1
I00
sS'profile_background_tile'
p182
I01
sS'favourites_count'
p183
I494
sS'name'
p184
g123
sS'url'
p185
Nsg154
g155
(S'\x07\xde\x06\x0c\x13!\x04\x00\x00\x00'
p186
tp187
Rp188
sS'profile_background_image_url_https'
p189
g37
sS'time_zone'
p190
NsS'protected'
p191
I00
sS'default_profile'
p192
I00
sS'is_translator'
p193
I00
sbs.