(dp0
S'following'
p1
(lp2
sS'followers'
p3
(lp4
(lp5
L3883878732L
aL4225360934L
aI17517897
aI126416038
aI813514896
aI17241628
aL3082379768L
aL4175404154L
aL2450102586L
aI800931355
aI809868324
aL2396902122L
aL4061684112L
aL4133637635L
aI344181252
aI1924310023
aI1971963728
aI15854285
aI535837431
aL2314289604L
aL3413513643L
aI81130574
aI18548136
aL2884015680L
aI39312292
aI491656120
aL2295310706L
aI100650665
aL3433617911L
aL2948659810L
aL3847995917L
aI1543406868
aL2352195182L
aL3186962936L
aL2366625486L
aI105699361
aI16350956
aI155434960
aI346174655
aL3025117571L
aL2178628141L
aL2502402132L
aI167180752
aI235427202
aI479203342
aL2850141304L
aI83861742
aI573865370
aL3129921434L
aL2372251789L
aI501848788
aI1594631436
aI305894136
aL2434353704L
aI29803338
aL3744667992L
aI142099167
aI922952971
aI149999819
aI35784526
aI23860719
aI91114089
aL2220116796L
aI178012194
aL3325176115L
aL2487957738L
aI1532262810
aI312709826
aL3621628275L
aL3306248044L
aI1571456736
aL3446870842L
aL2232357104L
aI606868275
aI488349732
aI276089088
aI292119229
aI163355233
aL3430441965L
aI217403759
aI145382980
aI21140391
aI489878607
aI259753398
aL3047157103L
aL3323032047L
aI1308512629
aL3625784596L
aI29007844
aL2973826853L
aI731127054
aI17684018
aI219588831
aL2317681807L
aI441346271
aI118276057
aI890088571
aI348892768
aI17886845
aL3459249263L
aL2967878962L
aI363344188
aL3300815207L
aI104441571
aL2933888506L
aL3097883152L
aI208185348
aI823849369
aI1248225762
aL3309232460L
aI101512207
aI314784049
aL2598579056L
aI321819450
aI82361536
aI554290220
aI429600187
aL3291277551L
aL3313002806L
aI117120414
aI22072522
aI23487018
aL2801848590L
aL3245388668L
aL2830974222L
aI23643669
aI326973224
aI253863826
aI61342056
aI250942288
aI1894653319
aL2450849463L
aL2875860578L
aI188447423
aI1893653617
aI125488912
aL2754530456L
aI564966405
aL3295769898L
aL2898526274L
aI1116086334
aI252709012
aI72311906
aL2149545919L
aL2912072247L
aI127967449
aL3310170639L
aI138820530
aI17553044
aI69621882
aI1845191160
aL3377243073L
aI33186913
aI735536305
aI384408051
aL3056899210L
aL2969735579L
aI253915179
aL3193631024L
aI18022037
aI528984919
aI56576087
aI393684881
aI271518554
aL2535972461L
aL3309051153L
aI525507691
aL3020278072L
aL3319616145L
aI483143652
aL3034687258L
aI117010336
aL3154096965L
aI634960171
aI19304535
aL2955643976L
aI18055284
aL2361262828L
aI1969645297
aI977782442
aI727685460
aL2891053657L
aI175857285
aI80697114
aI40300931
aI1076559277
aI807715549
aL2255404411L
aL2248868418L
aL3194139554L
aL2317405889L
aI568609285
aL3039831408L
aI22080973
aI191779132
aI597799971
aL2274940483L
aL2926104064L
aI340879384
aI72937260
aI430319926
aI20800915
aL2670599713L
aL2321092208L
aI18077308
aI279500794
aL3174991389L
aI27217615
aL2418330518L
aI52704124
aI116584120
aI1141246050
aL3170663495L
aI1302133536
aL2866563598L
aL3004005305L
aI7806402
aL2950282834L
aI303531344
aI289311242
aL3150133263L
aI198941291
aI90758418
aL2286918126L
aI278688026
aI29746037
aL3062731421L
aI282297297
aL2669315760L
aI1292459204
aL2362840470L
aI396175814
aI338908517
aL2272735442L
aI451473427
aI354875016
aI48644136
aI1616185404
aI301363956
aL3128460606L
aI26768092
aL2283341563L
aI40353409
aI290720535
aL2388182430L
aI526672359
aI232285202
aL2528005758L
aI45109264
aI104611058
aL2634777789L
aL2150927341L
aI51768696
aL2937621999L
aI98542015
aL2982556529L
aI91629696
aI626934215
aI21854079
aL2535626321L
aI1719913338
aL2992752063L
aI21244847
aI611817117
aI310889596
aI1475745116
aL3068933499L
aI229548013
aL2259185185L
aI145363459
aI61570068
aL2948879195L
aI22052792
aL2547928930L
aI904968246
aI513161412
aI970756622
aI254615792
aI287267848
aI88384208
aI170166915
aI456937125
aI26576863
aL2311427814L
aI185035183
aI69022303
aL2420011614L
aI277122823
aI368175084
aI546172896
aI20190369
aI296351501
aI164015579
aI284607464
aL2771635046L
aI458970525
aI134489755
aI619375692
aL2695787300L
aI32395417
aI212948816
aI333286362
aI364035673
aL2958089550L
aI153284826
aI280386937
aI550272359
aL2982926589L
aL2270644075L
aL2463463452L
aI448126796
aI378722633
aI483202572
aI1529917477
aL2484316340L
aI735588145
aI531525580
aL2951624661L
aI1976978600
aL2933929774L
aL2920720174L
aI62536556
aI344793159
aI139404921
aL2885754047L
aI559920813
aI250317700
aL2916803750L
aL2533422487L
aL2332138171L
aI18381030
aL2923437480L
aI22348856
aL2904098999L
aI30820266
aI247788883
aI19157944
aI30782960
aL2846816151L
aI867092556
aI20416757
aI537007259
aL2737659606L
aL2702924176L
aI230196451
aI35643668
aI17611984
aI198128593
aI449128723
aI304431265
aI132998918
aI19010961
aI101103296
aI1050552247
aL2351076098L
aI15456556
aI178097493
aI22504990
aI110302086
aI1349920183
aI15936982
aI40761185
aL2339187074L
aI928879663
aI949192232
aasS'obj'
p6
ccopy_reg
_reconstructor
p7
(ctweepy.models
User
p8
c__builtin__
object
p9
Ntp10
Rp11
(dp12
S'follow_request_sent'
p13
NsS'has_extended_profile'
p14
I00
sS'profile_use_background_image'
p15
I01
sS'profile_sidebar_fill_color'
p16
VDDEEF6
p17
sS'id'
p18
L2564014766L
sS'verified'
p19
I00
sS'entities'
p20
(dp21
Vurl
p22
(dp23
Vurls
p24
(lp25
(dp26
g22
Vhttp://t.co/mywi3WjUvt
p27
sVindices
p28
(lp29
I0
aI22
asVexpanded_url
p30
Vhttp://www.jivedata.com
p31
sVdisplay_url
p32
Vjivedata.com
p33
sassVdescription
p34
(dp35
g24
(lp36
sssS'profile_image_url_https'
p37
Vhttps://pbs.twimg.com/profile_images/477184021772783617/oRIKewu3_normal.png
p38
sS'_json'
p39
(dp40
Vfollow_request_sent
p41
NsVhas_extended_profile
p42
I00
sVprofile_use_background_image
p43
I01
sVdefault_profile_image
p44
I00
sVid
p45
L2564014766L
sVprofile_background_image_url_https
p46
Vhttps://abs.twimg.com/images/themes/theme1/bg.png
p47
sVverified
p48
I00
sVprofile_text_color
p49
V333333
p50
sVprofile_image_url_https
p51
g38
sVprofile_sidebar_fill_color
p52
g17
sVentities
p53
g21
sVfollowers_count
p54
I365
sVprofile_sidebar_border_color
p55
VC0DEED
p56
sVid_str
p57
V2564014766
p58
sVprofile_background_color
p59
VC0DEED
p60
sVlisted_count
p61
I31
sVstatus
p62
(dp63
Vcontributors
p64
NsVtruncated
p65
I00
sVtext
p66
V$EEFT: Caponecchi Kevin J sold a net $135,674 in EURONET WORLDWIDE INC. https://t.co/LD5zQq4MFj
p67
sVin_reply_to_status_id
p68
Nsg45
L666252137542742016L
sVfavorite_count
p69
I0
sVsource
p70
V<a href="https://www.jivedata.com" rel="nofollow">jivedata insider filings</a>
p71
sVretweeted
p72
I00
sVcoordinates
p73
Nsg53
(dp74
Vsymbols
p75
(lp76
(dp77
g28
(lp78
I0
aI5
asg66
VEEFT
p79
sasVuser_mentions
p80
(lp81
sVhashtags
p82
(lp83
sg24
(lp84
(dp85
g22
Vhttps://t.co/LD5zQq4MFj
p86
sg28
(lp87
I72
aI95
asg30
Vhttp://www.jivedata.com/insiders/EEFT/
p88
sg32
Vjivedata.com/insiders/EEFT/
p89
sassVin_reply_to_screen_name
p90
Nsg57
V666252137542742016
p91
sVretweet_count
p92
I0
sVin_reply_to_user_id
p93
NsVfavorited
p94
I00
sVgeo
p95
NsVin_reply_to_user_id_str
p96
NsVpossibly_sensitive
p97
I00
sVlang
p98
Ven
p99
sVcreated_at
p100
VMon Nov 16 13:51:02 +0000 2015
p101
sVin_reply_to_status_id_str
p102
NsVplace
p103
NssVis_translation_enabled
p104
I00
sVutc_offset
p105
NsVstatuses_count
p106
I64311
sg34
VFinancial. Data. Done. Right. This is a real-time feed of all open-market insider transactions
p107
sVfriends_count
p108
I0
sVlocation
p109
VNew York, NY
p110
sVprofile_link_color
p111
V0084B4
p112
sVprofile_image_url
p113
Vhttp://pbs.twimg.com/profile_images/477184021772783617/oRIKewu3_normal.png
p114
sVfollowing
p115
NsVgeo_enabled
p116
I00
sVprofile_background_image_url
p117
Vhttp://abs.twimg.com/images/themes/theme1/bg.png
p118
sVscreen_name
p119
Vinsider_filings
p120
sg98
Ven
p121
sVprofile_background_tile
p122
I00
sVfavourites_count
p123
I0
sVname
p124
VInsider Filings
p125
sVnotifications
p126
Nsg22
Vhttp://t.co/mywi3WjUvt
p127
sg100
VThu Jun 12 20:19:36 +0000 2014
p128
sVcontributors_enabled
p129
I00
sVtime_zone
p130
NsVprotected
p131
I00
sVdefault_profile
p132
I01
sVis_translator
p133
I00
ssS'contributors_enabled'
p134
I00
sS'profile_text_color'
p135
g50
sS'followers_count'
p136
I365
sS'profile_sidebar_border_color'
p137
g56
sS'id_str'
p138
g58
sS'default_profile_image'
p139
I00
sS'listed_count'
p140
I31
sS'status'
p141
g7
(ctweepy.models
Status
p142
g9
Ntp143
Rp144
(dp145
S'favorited'
p146
I00
sS'contributors'
p147
NsS'truncated'
p148
I00
sS'text'
p149
g67
sS'source_url'
p150
Vhttps://www.jivedata.com
p151
sS'possibly_sensitive'
p152
I00
sS'in_reply_to_status_id'
p153
NsS'geo'
p154
Nsg18
L666252137542742016L
sS'favorite_count'
p155
I0
sS'lang'
p156
g99
sg20
g74
sS'created_at'
p157
cdatetime
datetime
p158
(S'\x07\xdf\x0b\x10\r3\x02\x00\x00\x00'
p159
tp160
Rp161
sg39
g63
sS'coordinates'
p162
NsS'in_reply_to_user_id_str'
p163
NsS'source'
p164
Vjivedata insider filings
p165
sS'in_reply_to_status_id_str'
p166
NsS'in_reply_to_screen_name'
p167
Nsg138
g91
sS'retweeted'
p168
I00
sS'place'
p169
NsS'retweet_count'
p170
I0
sS'in_reply_to_user_id'
p171
NsbsS'is_translation_enabled'
p172
I00
sS'utc_offset'
p173
NsS'statuses_count'
p174
I64311
sS'description'
p175
g107
sS'friends_count'
p176
I0
sS'location'
p177
g110
sS'profile_link_color'
p178
g112
sS'profile_image_url'
p179
g114
sS'notifications'
p180
NsS'geo_enabled'
p181
I00
sS'profile_background_color'
p182
g60
sS'profile_background_image_url'
p183
g118
sS'screen_name'
p184
g120
sg156
g121
sg1
I00
sS'profile_background_tile'
p185
I00
sS'favourites_count'
p186
I0
sS'name'
p187
g125
sS'url'
p188
g127
sg157
g158
(S'\x07\xde\x06\x0c\x14\x13$\x00\x00\x00'
p189
tp190
Rp191
sS'profile_background_image_url_https'
p192
g47
sS'time_zone'
p193
NsS'protected'
p194
I00
sS'default_profile'
p195
I01
sS'is_translator'
p196
I00
sbs.