(dp0
S'following'
p1
(lp2
(lp3
L2397075002L
aI16178342
aI1587490159
aL2544248082L
aI119376298
aL2150933922L
aI517392967
aI1423715634
aasS'followers'
p4
(lp5
(lp6
I595007178
aL4108364716L
aI1609906352
aI9555372
aI1009118263
aI120181792
aL4014400402L
aL4077721821L
aL4147237933L
aL3386578853L
aL3235999293L
aI1169633580
aL2960012916L
aL4190367919L
aI823112684
aI347627434
aI468051901
aL2345134497L
aL3627968296L
aL4041396623L
aL2811617036L
aI48486244
aL4124788343L
aI121656624
aL2531910115L
aL2239094148L
aL2408038189L
aI344422946
aL4080905296L
aL3975340934L
aL3917932455L
aL3883704746L
aL3947333397L
aI1360732196
aL3918077722L
aI325925520
aL3319136443L
aL2218854511L
aL2314289604L
aL2465027856L
aL4010917695L
aL2890762488L
aI265710257
aI1115940860
aL3857709497L
aL3944869936L
aI1556586613
aI104531473
aL3671254158L
aI250317700
aI317562281
aI488129247
aL3933841096L
aI1852696561
aL3433416431L
aL3862431622L
aI137444103
aL2686353036L
aL2474106172L
aL2972555345L
aL3699460273L
aI1339274430
aI58601305
aL2201908746L
aL3075060516L
aL3111837451L
aL3159953704L
aL3487921454L
aL2883878790L
aL3615148932L
aI583123413
aL3658513816L
aL2799617712L
aI216204145
aI108607339
aL3420233211L
aL2531582244L
aI259329796
aL2938358298L
aL3401395573L
aL3253847058L
aL3580514129L
aL3240565308L
aL3573224116L
aI297795505
aI116948313
aI597799971
aI111984921
aI624675361
aL3438817841L
aL2380905156L
aI160016024
aL3399474263L
aL2203556768L
aL3424803935L
aI1592204281
aL2362914415L
aI102064234
aI237109493
aI324122891
aI412750459
aI306382029
aI51776106
aL3146477819L
aL2265488803L
aI197031694
aI200174846
aL2330801192L
aI785003724
aI236741954
aI60284267
aL2817966517L
aI453580793
aL2781050528L
aI534250959
aI280982070
aL3282085993L
aL3373847224L
aI1845191160
aI421135570
aL3377675321L
aI41308428
aI477393501
aI101051504
aI1276007694
aL2383319357L
aI971129101
aI715229059
aL3358773916L
aL3354570304L
aL2866462978L
aL3258090918L
aL3059954334L
aL2465165569L
aL3124195515L
aL3251224551L
aI1948557174
aI588524657
aI285362838
aI1466569428
aL3300698853L
aI1442392237
aL3174741859L
aL3246157136L
aI37941633
aL2802035016L
aL2444242334L
aI1133394373
aL3246885495L
aI490876049
aL3095560312L
aL3248054699L
aI17072544
aI839203880
aI595537804
aI595612995
aI22852000
aL2163234938L
aI492248877
aI271542697
aL2995888255L
aL2317919850L
aI1346904660
aI169210909
aI252868312
aL3192523475L
aL3182720419L
aL3182614754L
aL3169249704L
aL3181233258L
aI258416313
aI222078754
aI838608722
aL2286454939L
aL3012561618L
aL2852902749L
aI522920774
aL3091398562L
aL3164184902L
aL2303262378L
aL3091779324L
aI617281590
aL3157577893L
aI390787059
aL3032755711L
aI279119882
aL3087583995L
aI526753965
aL2795561942L
aL2972629713L
aL3135301318L
aL3093211627L
aI1205553000
aL3129304349L
aL3110478092L
aL2997788563L
aI107646745
aI715729724
aL2985013655L
aI1444614408
aI1439471082
aL3092303800L
aI1260253268
aL2930152278L
aL2356107126L
aI310900919
aL3073478049L
aL2409780560L
aI24082975
aL3033209750L
aI152750814
aL3064934625L
aL2737607507L
aI556557205
aL2557461804L
aL3047688210L
aL2948879195L
aI156891100
aL2845776194L
aI22481585
aL3040075525L
aL2887130764L
aL2251851228L
aI199424937
aL2790129511L
aI1260215526
aL3018163077L
aI460233268
aI107222993
aL2949669981L
aL2988838710L
aL3035474061L
aL2930797037L
aI128471471
aL2893839468L
aI579188358
aL2929556900L
aI1106961240
aI239870233
aL2993829690L
aL3011852599L
aI1069775192
aI943325952
aL2371705674L
aL2772244483L
aI1056005894
aL3007698278L
aI1601453515
aI181019528
aI19732099
aI350682981
aL2885853376L
aI444023903
aI394442440
aL2431297238L
aL2401325269L
aL2652449558L
aL2249751139L
aL2918365475L
aI488740638
aL2894750280L
aI458602870
aI303531344
aL2950190445L
aI1848483000
aL2967299050L
aI129552490
aL2941768545L
aI346013984
aL2963992197L
aI275862077
aI243302527
aI512274818
aL2889401669L
aL2472016988L
aL2594856620L
aI805230144
aL2469832928L
aL2938404280L
aI1236653401
aL2433200225L
aI952166156
aL2953218476L
aI135889155
aL2275230932L
aI80836236
aL2935925992L
aL2907225628L
aI11706902
aL2941174372L
aI114927096
aL2176939197L
aL2830377906L
aL2933882627L
aI1074584683
aL2835739069L
aL2935418766L
aL2924598544L
aI495601261
aI931191356
aL2858538521L
aI737866058
aI350268851
aL2931992544L
aI223064330
aI1952932243
aI62226476
aL2582350077L
aI1712089789
aI293129222
aI1286540352
aI542261400
aL2309771683L
aL2840631348L
aI248757305
aI66590145
aI69503365
aL2753440416L
aL2904098999L
aI456647812
aI611817117
aL2876963253L
aL2838956089L
aI961510135
aI348629653
aI38540656
aL2691367561L
aI22688842
aI162498748
aI264308166
aI45315873
aL2898846280L
aI42034724
aI56026693
aI569302303
aL2281482564L
aI86024444
aL2744836451L
aL2912291497L
aI914470388
aI473463895
aI404275910
aI401221769
aI485741564
aI172004694
aL2855140102L
aL2419131854L
aL2197425579L
aI15897179
aI9059662
aI379172971
aI327486357
aL2731069732L
aI178615792
aL2758760590L
aL2785022222L
aL2219384574L
aI62663209
aL2859211475L
aI226827966
aI1250343434
aL2803027189L
aI18824894
aL2545420980L
aI1868872266
aL2840170467L
aL2406186192L
aI79021906
aL2444104684L
aI474428104
aI110454319
aI220744095
aI16178342
aL2803827168L
aL2794956086L
aI34451046
aI1167632820
aI236368741
aI274872769
aL2281114351L
aL2550263551L
aI82084504
aL2759405421L
aI313186866
aI1943040696
aI404627471
aL2309643170L
aI393075804
aL2312689556L
aL2312780527L
aI498503243
aI223793606
aL2401663189L
aL2596073852L
aL2790728354L
aI283660297
aI1163210948
aI1157852772
aI1260257136
aI1260279235
aI1260256994
aI1260260606
aI1260236394
aI1260254438
aI1260197640
aI1260206702
aI1260202237
aI1260181886
aI1260175986
aL2287537244L
aI1260242726
aI1260199729
aL2699400239L
aL2786337601L
aL2158167920L
aI38008025
aI430861913
aL2423842414L
aL2602446247L
aL2749138703L
aI360364328
aI1478652284
aI222155663
aI274105640
aL2652162721L
aL2397075002L
aL2214887401L
aL2530097074L
aI1976652788
aI94460048
aI469841589
aL2670442578L
aL2705570360L
aI247897274
aI1587490159
aL2150933922L
aI517392967
aI1423715634
aasS'obj'
p7
ccopy_reg
_reconstructor
p8
(ctweepy.models
User
p9
c__builtin__
object
p10
Ntp11
Rp12
(dp13
S'follow_request_sent'
p14
NsS'has_extended_profile'
p15
I00
sS'profile_use_background_image'
p16
I01
sS'profile_sidebar_fill_color'
p17
VDDEEF6
p18
sS'id'
p19
L2569229846L
sS'verified'
p20
I00
sS'entities'
p21
(dp22
Vurl
p23
(dp24
Vurls
p25
(lp26
(dp27
g23
Vhttp://t.co/Xo15cmI9Vr
p28
sVindices
p29
(lp30
I0
aI22
asVexpanded_url
p31
Vhttp://www.pennystockzone.com
p32
sVdisplay_url
p33
Vpennystockzone.com
p34
sassVdescription
p35
(dp36
g25
(lp37
sssS'profile_image_url_https'
p38
Vhttps://pbs.twimg.com/profile_images/478207019644493828/J1mIce0C_normal.png
p39
sS'_json'
p40
(dp41
Vfollow_request_sent
p42
NsVhas_extended_profile
p43
I00
sVprofile_use_background_image
p44
I01
sVdefault_profile_image
p45
I00
sVid
p46
L2569229846L
sVprofile_background_image_url_https
p47
Vhttps://abs.twimg.com/images/themes/theme1/bg.png
p48
sVverified
p49
I00
sVprofile_text_color
p50
V333333
p51
sVprofile_image_url_https
p52
g39
sVprofile_sidebar_fill_color
p53
g18
sVentities
p54
g22
sVfollowers_count
p55
I438
sVprofile_sidebar_border_color
p56
VC0DEED
p57
sVid_str
p58
V2569229846
p59
sVprofile_background_color
p60
VC0DEED
p61
sVlisted_count
p62
I76
sVstatus
p63
(dp64
Vcontributors
p65
NsVtruncated
p66
I00
sVtext
p67
Vhttps://t.co/IAmStIwrPq &lt;-- 3 hours of free video lessons from successful @profitly students! #stocks $GENE $LIVE $YHOO $FB
p68
sVin_reply_to_status_id
p69
Nsg46
L666320681475289088L
sVfavorite_count
p70
I0
sVsource
p71
V<a href="https://smqueue.com" rel="nofollow">smqueue</a>
p72
sVretweeted
p73
I00
sVcoordinates
p74
Nsg54
(dp75
Vsymbols
p76
(lp77
(dp78
g29
(lp79
I105
aI110
asg67
VGENE
p80
sa(dp81
g29
(lp82
I111
aI116
asg67
VLIVE
p83
sa(dp84
g29
(lp85
I117
aI122
asg67
VYHOO
p86
sa(dp87
g29
(lp88
I123
aI126
asg67
VFB
p89
sasVuser_mentions
p90
(lp91
(dp92
g46
I138404716
sg29
(lp93
I77
aI86
asg58
V138404716
p94
sVscreen_name
p95
Vprofitly
p96
sVname
p97
VProfit.ly
p98
sasVhashtags
p99
(lp100
(dp101
g29
(lp102
I97
aI104
asg67
Vstocks
p103
sasg25
(lp104
(dp105
g23
Vhttps://t.co/IAmStIwrPq
p106
sg29
(lp107
I0
aI23
asg31
Vhttp://smq.tc/1GEVAGR
p108
sg33
Vsmq.tc/1GEVAGR
p109
sassVin_reply_to_screen_name
p110
Nsg58
V666320681475289088
p111
sVretweet_count
p112
I0
sVin_reply_to_user_id
p113
NsVfavorited
p114
I00
sVgeo
p115
NsVin_reply_to_user_id_str
p116
NsVpossibly_sensitive
p117
I00
sVlang
p118
Ven
p119
sVcreated_at
p120
VMon Nov 16 18:23:24 +0000 2015
p121
sVin_reply_to_status_id_str
p122
NsVplace
p123
NssVis_translation_enabled
p124
I00
sVutc_offset
p125
NsVstatuses_count
p126
I30281
sg35
V
p127
sVfriends_count
p128
I8
sVlocation
p129
g127
sVprofile_link_color
p130
V0084B4
p131
sVprofile_image_url
p132
Vhttp://pbs.twimg.com/profile_images/478207019644493828/J1mIce0C_normal.png
p133
sVfollowing
p134
NsVgeo_enabled
p135
I00
sVprofile_background_image_url
p136
Vhttp://abs.twimg.com/images/themes/theme1/bg.png
p137
sg95
VSt0ckReviews
p138
sg118
Ven
p139
sVprofile_background_tile
p140
I00
sVfavourites_count
p141
I1
sg97
VPennyStock Zone
p142
sVnotifications
p143
Nsg23
Vhttp://t.co/Xo15cmI9Vr
p144
sg120
VSun Jun 15 15:45:33 +0000 2014
p145
sVcontributors_enabled
p146
I00
sVtime_zone
p147
NsVprotected
p148
I00
sVdefault_profile
p149
I01
sVis_translator
p150
I00
ssS'contributors_enabled'
p151
I00
sS'profile_text_color'
p152
g51
sS'followers_count'
p153
I438
sS'profile_sidebar_border_color'
p154
g57
sS'id_str'
p155
g59
sS'default_profile_image'
p156
I00
sS'listed_count'
p157
I76
sS'status'
p158
g8
(ctweepy.models
Status
p159
g10
Ntp160
Rp161
(dp162
S'favorited'
p163
I00
sS'contributors'
p164
NsS'truncated'
p165
I00
sS'text'
p166
g68
sS'source_url'
p167
Vhttps://smqueue.com
p168
sS'possibly_sensitive'
p169
I00
sS'in_reply_to_status_id'
p170
NsS'geo'
p171
Nsg19
L666320681475289088L
sS'favorite_count'
p172
I0
sS'lang'
p173
g119
sg21
g75
sS'created_at'
p174
cdatetime
datetime
p175
(S'\x07\xdf\x0b\x10\x12\x17\x18\x00\x00\x00'
p176
tp177
Rp178
sg40
g64
sS'coordinates'
p179
NsS'in_reply_to_user_id_str'
p180
NsS'source'
p181
Vsmqueue
p182
sS'in_reply_to_status_id_str'
p183
NsS'in_reply_to_screen_name'
p184
Nsg155
g111
sS'retweeted'
p185
I00
sS'place'
p186
NsS'retweet_count'
p187
I0
sS'in_reply_to_user_id'
p188
NsbsS'is_translation_enabled'
p189
I00
sS'utc_offset'
p190
NsS'statuses_count'
p191
I30281
sS'description'
p192
g127
sS'friends_count'
p193
I8
sS'location'
p194
g127
sS'profile_link_color'
p195
g131
sS'profile_image_url'
p196
g133
sS'notifications'
p197
NsS'geo_enabled'
p198
I00
sS'profile_background_color'
p199
g61
sS'profile_background_image_url'
p200
g137
sS'screen_name'
p201
g138
sg173
g139
sg1
I00
sS'profile_background_tile'
p202
I00
sS'favourites_count'
p203
I1
sS'name'
p204
g142
sS'url'
p205
g144
sg174
g175
(S'\x07\xde\x06\x0f\x0f-!\x00\x00\x00'
p206
tp207
Rp208
sS'profile_background_image_url_https'
p209
g48
sS'time_zone'
p210
NsS'protected'
p211
I00
sS'default_profile'
p212
I01
sS'is_translator'
p213
I00
sbs.