(dp0
S'following'
p1
(lp2
(lp3
I1167632820
aI7449842
aI2395801
aI26565946
aI14230524
aI21447363
aI79293791
aI44409004
aI20322929
aI31451582
aI428333
aI62545966
aI7563792
aasS'followers'
p4
(lp5
(lp6
L2290643119L
aI742412274
aL4236505632L
aI403000724
aL2737429380L
aL4186372055L
aL2884714684L
aL4147237933L
aI100089453
aL4175944874L
aL4052936114L
aL2732644778L
aL2992414321L
aL2871492744L
aI9555372
aI18061131
aL3229041865L
aL2306835946L
aI258553155
aL3041863823L
aL4032841407L
aI149583945
aI329130624
aL2389973078L
aL3090281978L
aI1583359764
aI132972153
aI52820770
aL2908441097L
aL2571538350L
aI1360732196
aI145207450
aL3944877897L
aL3249124776L
aI433159496
aI22804650
aI101269420
aL4003876347L
aI118766215
aI266226672
aI871316539
aI1400497351
aL3906807552L
aI32069612
aI262935830
aI576492100
aL2718229240L
aI1862030834
aI118846656
aL3242188868L
aL2662370076L
aI175857285
aI216090492
aL2837882056L
aI296827816
aL3392507643L
aL2924711361L
aL2496574266L
aI207355803
aL3544718248L
aL3655387937L
aL3237191408L
aI1694361308
aL3313742187L
aI568720375
aL3582575421L
aL3555003737L
aL2818397898L
aI346822265
aI47095449
aI632246258
aL2380905156L
aL3429993671L
aL2742092592L
aL3316714507L
aL3340173380L
aL3107915508L
aI88318161
aL3326367726L
aL2851024437L
aL3392828963L
aL2574157186L
aL2969912229L
aI300651978
aL3390069436L
aI34578922
aL3310849388L
aI401056306
aI1471176354
aI398956615
aI63184060
aI79320543
aL2300124877L
aL3296361901L
aI246485246
aL3383130177L
aL3239290189L
aI305372471
aL3268723104L
aI42055373
aI299364252
aI760226906
aL2540208716L
aL3042906140L
aI418435477
aL2494327626L
aL2800236201L
aI1379333928
aI212406525
aI469265197
aI71716311
aI24986238
aI1286540352
aI100096799
aI473072119
aI596981295
aI264141078
aI55272898
aI1406582977
aI1167632820
aI221457806
aL3240961586L
aL3144800240L
aI147800813
aI164052263
aI568174555
aL3058683225L
aL2974189739L
aI175486094
aL2724543372L
aI451169238
aI107226263
aI26336942
aI397010002
aI603707333
aL3189275047L
aI261686656
aL3244361163L
aL3189098221L
aI18971078
aI119627325
aL3139505808L
aI536152912
aL2508477474L
aL3201518788L
aI48431922
aI89571091
aL3057372052L
aL3161313265L
aI536457858
aI92868948
aI222195944
aL3191652551L
aL3085357746L
aI38726507
aI1152215906
aI54523023
aI192806697
aL2705570360L
aI1195258554
aL3092618254L
aL3056941041L
aI1043768240
aL2528005758L
aI103776091
aI23393709
aL2885639245L
aL3113595545L
aI560421694
aI14485476
aI107646745
aI369277470
aL2705743621L
aI353088489
aL2416860219L
aI527018393
aI611168019
aL2290696201L
aL2233318726L
aI493414434
aI154265684
aL2367294348L
aL3058571858L
aL2735840889L
aL2209373576L
aI790379724
aL2981965502L
aI192354340
aL3026999676L
aI1368105403
aL2937621999L
aL2268774903L
aI1544012515
aI17475489
aI265484284
aI300598805
aL2917692869L
aL2398631950L
aI1457276880
aL2979207501L
aI96555347
aL2813928335L
aI1151222965
aL2967454973L
aL2915925397L
aI1171378705
aL2867937758L
aI1236653401
aI478061208
aL2841233056L
aI1868807617
aI1136728951
aI1180725673
aI487089304
aI529602208
aI70452333
aI561422115
aL2866088439L
aI311508066
aI312004959
aL2730958418L
aI1108924453
aL2830563158L
aI41619843
aI493812979
aI435178716
aI1345660531
aI1452408337
aI352918306
aL2666099888L
aL2743143380L
aL2743137300L
aL2743114116L
aL2743136922L
aL2743167895L
aL2743134974L
aL2743109910L
aL2743106922L
aL2743162627L
aL2743086552L
aL2743089474L
aL2743115024L
aL2743072656L
aL2743112923L
aL2743047342L
aL2743087777L
aL2743031130L
aL2743043984L
aL2743018022L
aL2742987066L
aL2743042009L
aL2742978252L
aL2742982134L
aL2742979248L
aL2743033159L
aL2742972642L
aL2742970674L
aL2742944184L
aL2742958118L
aL2742924786L
aL2742949856L
aL2742899906L
aL2742935635L
aL2742926689L
aL2742898196L
aL2742831534L
aL2742886981L
aL2742851744L
aL2742878947L
aL2742860161L
aL2742802152L
aL2742820712L
aL2742855097L
aL2742784974L
aL2742786378L
aL2742809588L
aL2742835699L
aL2742832501L
aL2742777978L
aL2742811591L
aL2742763866L
aL2742747132L
aL2742747990L
aL2742741312L
aL2742798379L
aL2742754694L
aL2742725916L
aL2742751454L
aL2742747337L
aL2742705182L
aL2742730897L
aL2742667008L
aL2742722569L
aL2742665724L
aL2742720553L
aL2742654984L
aL2742674432L
aL2742673304L
aL2742673358L
aL2742696853L
aL2742696253L
aL2742664736L
aL2742666746L
aL2742631704L
aL2742683287L
aL2742686299L
aL2742685693L
aL2742651146L
aL2742646249L
aL2742669973L
aL2742637988L
aL2742625874L
aL2742618170L
aL2742614510L
aL2742643303L
aL2742646765L
aL2742582096L
aL2742614150L
aL2742637765L
aL2742637231L
aL2742637519L
aL2742571902L
aL2742599714L
aL2742604214L
aL2742571440L
aL2742626113L
aL2742565572L
aL2742584474L
aL2742613567L
aL2742572390L
aL2742568796L
aL2742557504L
aL2742525894L
aL2742524064L
aL2742569959L
aL2742543788L
aL2742521274L
aL2742510600L
aL2742505242L
aL2742557719L
aL2742501474L
aL2742499446L
aL2742552721L
aL2742519746L
aL2742546643L
aL2742518618L
aL2742546823L
aL2742515720L
aL2742488760L
aL2742510050L
aL2742534469L
aL2742497048L
aL2742529027L
aL2742525763L
aL2742508165L
aL2742480656L
aL2742506443L
aL2742506623L
aL2742449280L
aL2742450822L
aL2742443964L
aL2742500347L
aL2742447624L
aL2742499927L
aL2742470318L
aL2742444912L
aL2742468926L
aL2742495979L
aL2742456086L
aL2742472849L
aL2742441830L
aL2742443096L
aL2742416478L
aL2742472867L
aL2742469975L
aL2742413622L
aL2742442412L
aL2742413196L
aL2742442292L
aL2742469093L
aL2742448321L
aL2742381264L
aL2742412484L
aL2742439729L
aI124765545
aL2681535679L
aI56852378
aI47905384
aI24233461
aL2614157904L
aI189992038
aL2318088145L
aasS'obj'
p7
ccopy_reg
_reconstructor
p8
(ctweepy.models
User
p9
c__builtin__
object
p10
Ntp11
Rp12
(dp13
S'follow_request_sent'
p14
NsS'has_extended_profile'
p15
I00
sS'profile_use_background_image'
p16
I01
sS'profile_sidebar_fill_color'
p17
VDDEEF6
p18
sS'id'
p19
L2579745140L
sS'verified'
p20
I00
sS'entities'
p21
(dp22
Vurl
p23
(dp24
Vurls
p25
(lp26
(dp27
g23
Vhttp://t.co/nZQyRMOsld
p28
sVindices
p29
(lp30
I0
aI22
asVexpanded_url
p31
Vhttp://www.pennystocksuperstar.com
p32
sVdisplay_url
p33
Vpennystocksuperstar.com
p34
sassVdescription
p35
(dp36
g25
(lp37
(dp38
g23
Vhttp://t.co/1cwAueFems
p39
sg29
(lp40
I47
aI69
asg31
Vhttp://PennyStockSuperstar.com
p41
sg33
VPennyStockSuperstar.com
p42
sasssS'profile_image_url_https'
p43
Vhttps://pbs.twimg.com/profile_images/572041526625071104/EycZeUzY_normal.jpeg
p44
sS'_json'
p45
(dp46
Vfollow_request_sent
p47
NsVhas_extended_profile
p48
I00
sVprofile_use_background_image
p49
I01
sVdefault_profile_image
p50
I00
sVid
p51
L2579745140L
sVprofile_background_image_url_https
p52
Vhttps://abs.twimg.com/images/themes/theme1/bg.png
p53
sVverified
p54
I00
sVprofile_text_color
p55
V333333
p56
sVprofile_image_url_https
p57
g44
sVprofile_sidebar_fill_color
p58
g18
sVentities
p59
g22
sVfollowers_count
p60
I392
sVprofile_sidebar_border_color
p61
VC0DEED
p62
sVid_str
p63
V2579745140
p64
sVprofile_background_color
p65
VC0DEED
p66
sVlisted_count
p67
I11
sVstatus
p68
(dp69
Vcontributors
p70
NsVtruncated
p71
I00
sVtext
p72
Vhttps://t.co/kltyKJ2RKb Stocks in Play: $KERX $SID $MBT $AMDA $XOMA $RCAP $CENX $GLUU $SLM $PMCB $ACHN $KBLB $GERN
p73
sVin_reply_to_status_id
p74
Nsg51
L666019976931741696L
sVfavorite_count
p75
I0
sVsource
p76
V<a href="http://twitter.com" rel="nofollow">Twitter Web Client</a>
p77
sVretweeted
p78
I00
sVcoordinates
p79
Nsg59
(dp80
Vsymbols
p81
(lp82
(dp83
g29
(lp84
I40
aI45
asg72
VKERX
p85
sa(dp86
g29
(lp87
I46
aI50
asg72
VSID
p88
sa(dp89
g29
(lp90
I51
aI55
asg72
VMBT
p91
sa(dp92
g29
(lp93
I56
aI61
asg72
VAMDA
p94
sa(dp95
g29
(lp96
I62
aI67
asg72
VXOMA
p97
sa(dp98
g29
(lp99
I68
aI73
asg72
VRCAP
p100
sa(dp101
g29
(lp102
I74
aI79
asg72
VCENX
p103
sa(dp104
g29
(lp105
I80
aI85
asg72
VGLUU
p106
sa(dp107
g29
(lp108
I86
aI90
asg72
VSLM
p109
sa(dp110
g29
(lp111
I91
aI96
asg72
VPMCB
p112
sa(dp113
g29
(lp114
I97
aI102
asg72
VACHN
p115
sa(dp116
g29
(lp117
I103
aI108
asg72
VKBLB
p118
sa(dp119
g29
(lp120
I109
aI114
asg72
VGERN
p121
sasVuser_mentions
p122
(lp123
sVhashtags
p124
(lp125
sg25
(lp126
(dp127
g23
Vhttps://t.co/kltyKJ2RKb
p128
sg29
(lp129
I0
aI23
asg31
Vhttp://PennyStockSuperstar.com
p130
sg33
VPennyStockSuperstar.com
p131
sassVin_reply_to_screen_name
p132
Nsg63
V666019976931741696
p133
sVretweet_count
p134
I0
sVin_reply_to_user_id
p135
NsVfavorited
p136
I00
sVgeo
p137
NsVin_reply_to_user_id_str
p138
NsVpossibly_sensitive
p139
I00
sVlang
p140
Vin
p141
sVcreated_at
p142
VSun Nov 15 22:28:31 +0000 2015
p143
sVin_reply_to_status_id_str
p144
NsVplace
p145
NssVis_translation_enabled
p146
I00
sVutc_offset
p147
I-18000
sVstatuses_count
p148
I2338
sg35
VThe BEST Penny Stock Alerts, Tips & Advice. At http://t.co/1cwAueFems we believe penny stocks are better than traditional stocks.
p149
sVfriends_count
p150
I13
sVlocation
p151
V
p152
sVprofile_link_color
p153
V0084B4
p154
sVprofile_image_url
p155
Vhttp://pbs.twimg.com/profile_images/572041526625071104/EycZeUzY_normal.jpeg
p156
sVfollowing
p157
NsVgeo_enabled
p158
I00
sVprofile_banner_url
p159
Vhttps://pbs.twimg.com/profile_banners/2579745140/1425248721
p160
sVprofile_background_image_url
p161
Vhttp://abs.twimg.com/images/themes/theme1/bg.png
p162
sVscreen_name
p163
VPSSuperstar
p164
sg140
Ven
p165
sVprofile_background_tile
p166
I00
sVfavourites_count
p167
I0
sVname
p168
VPennyStockSuperstar
p169
sVnotifications
p170
Nsg23
Vhttp://t.co/nZQyRMOsld
p171
sg142
VSat Jun 21 03:41:33 +0000 2014
p172
sVcontributors_enabled
p173
I00
sVtime_zone
p174
VEastern Time (US & Canada)
p175
sVprotected
p176
I00
sVdefault_profile
p177
I01
sVis_translator
p178
I00
ssS'contributors_enabled'
p179
I00
sS'profile_text_color'
p180
g56
sS'followers_count'
p181
I392
sS'profile_sidebar_border_color'
p182
g62
sS'id_str'
p183
g64
sS'default_profile_image'
p184
I00
sS'listed_count'
p185
I11
sS'status'
p186
g8
(ctweepy.models
Status
p187
g10
Ntp188
Rp189
(dp190
S'favorited'
p191
I00
sS'contributors'
p192
NsS'truncated'
p193
I00
sS'text'
p194
g73
sS'source_url'
p195
Vhttp://twitter.com
p196
sS'possibly_sensitive'
p197
I00
sS'in_reply_to_status_id'
p198
NsS'geo'
p199
Nsg19
L666019976931741696L
sS'favorite_count'
p200
I0
sS'lang'
p201
g141
sg21
g80
sS'created_at'
p202
cdatetime
datetime
p203
(S'\x07\xdf\x0b\x0f\x16\x1c\x1f\x00\x00\x00'
p204
tp205
Rp206
sg45
g69
sS'coordinates'
p207
NsS'in_reply_to_user_id_str'
p208
NsS'source'
p209
VTwitter Web Client
p210
sS'in_reply_to_status_id_str'
p211
NsS'in_reply_to_screen_name'
p212
Nsg183
g133
sS'retweeted'
p213
I00
sS'place'
p214
NsS'retweet_count'
p215
I0
sS'in_reply_to_user_id'
p216
NsbsS'is_translation_enabled'
p217
I00
sS'utc_offset'
p218
I-18000
sS'statuses_count'
p219
I2338
sS'description'
p220
g149
sS'friends_count'
p221
I13
sS'location'
p222
g152
sS'profile_link_color'
p223
g154
sS'profile_image_url'
p224
g156
sS'notifications'
p225
NsS'geo_enabled'
p226
I00
sS'profile_background_color'
p227
g66
sS'profile_banner_url'
p228
g160
sS'profile_background_image_url'
p229
g162
sS'screen_name'
p230
g164
sg201
g165
sg1
I00
sS'profile_background_tile'
p231
I00
sS'favourites_count'
p232
I0
sS'name'
p233
g169
sS'url'
p234
g171
sg202
g203
(S'\x07\xde\x06\x15\x03)!\x00\x00\x00'
p235
tp236
Rp237
sS'profile_background_image_url_https'
p238
g53
sS'time_zone'
p239
g175
sS'protected'
p240
I00
sS'default_profile'
p241
I01
sS'is_translator'
p242
I00
sbs.