(dp0
S'following'
p1
(lp2
(lp3
I236953420
aI359299032
aI144400453
aI397041712
aI29657619
aI63222576
aI430664821
aI46470906
aL3273507296L
aI69620713
aL2172423304L
aI68119671
aL3154923455L
aI25709609
aI34681960
aI21183938
aI105189580
aI21799563
aI16955517
aI733086954
aI296924721
aI262763182
aI360111398
aI1266198420
aI34939208
aI289556231
aL2614040508L
aI472600930
aL2946300174L
aL2348783658L
aL3185038236L
aI106504911
aI25330246
aL3146648621L
aI19720395
aI59166197
aI33846451
aI27814665
aI60642052
aI194137231
aI434574997
aI22522178
aI14173032
aI19997064
aL2299898941L
aI18952948
aI78951456
aI989690640
aI6608082
aL2976682505L
aI153068585
aI622758577
aL2407515548L
aI33216611
aL3098988520L
aL2773951369L
aI91852037
aI14446488
aI1372459662
aI559118898
aI403598464
aL2407202768L
aI62562916
aI1015241814
aI1534167900
aI59157393
aI17006157
aI133806972
aI30818980
aI1475909736
aI1217773032
aI113280990
aI1389895872
aI24775410
aI168857946
aL2600389056L
aI726674845
aI14279577
aL2840319232L
aI1289738107
aI14836524
aI517168840
aL2709456114L
aI44060322
aL2334614718L
aI18639734
aL2514944702L
aL2594692296L
aL2188619364L
aI1510641314
aI32359921
aI18949452
aI1505996959
aL2456850254L
aL2482710715L
aL2249215112L
aI170366190
aI1963009717
aI49637104
aI293002392
aI213309585
aI334070804
aL2244340904L
aI28172926
aI19546277
aI11014272
aI28164923
aI35002876
aL2526429211L
aI960834355
aI1754641
aI252751061
aI109200080
aI819800
aI3819701
aI30261067
aI48041449
aI816653
aI21323268
aI14919644
aI3886711
aI27707080
aI241435654
aI33792634
aI274525432
aI6899022
aI391134528
aI20402945
aI13423622
aI1469603575
aI23059499
aI807095
aI26442406
aI3108351
aasS'followers'
p4
(lp5
(lp6
L3983728813L
aI552134921
aI545395851
aI26705006
aI21676980
aI819851174
aI279973454
aI33005567
aI996069888
aL2950835676L
aI144400453
aL3886002382L
aI46470906
aL2412042577L
aI200574299
aL3352167713L
aI286664139
aL2848202881L
aI68255975
aL2800986959L
aL3367767792L
aL3430033504L
aI223552933
aI68119671
aL3154923455L
aI70616478
aL2856540383L
aI1459065168
aI352994970
aL3303466135L
aI17670986
aI57145857
aI121920035
aI1375860338
aI2903461
aL2497781442L
aI317562281
aL3293916183L
aI303628045
aI1711713978
aI262763182
aI1262737645
aL2916313498L
aI245721011
aI14166395
aI789272275
aI32047535
aI108414213
aI492248877
aI553099797
aL3176628923L
aL3146648621L
aL2812380313L
aI194137231
aL3012561618L
aL3168580681L
aI78951456
aI16548435
aI138689195
aI415016917
aL2773951369L
aI91852037
aI6036422
aI48041449
aI1287118345
aI108103591
aI45426271
aL2407202768L
aL2999496218L
aI1125027133
aI1217773032
aI1389895872
aI133806972
aI80865759
aI726674845
aI465220907
aL2600389056L
aL2925278599L
aL2942163108L
aI113280990
aI517168840
aL2834058478L
aL2709456114L
aL2912496057L
aI127792300
aL2842086125L
aI1510641314
aI746089087
aL2456850254L
aL2901876498L
aL2159245831L
aI170366190
aI43672905
aI1963009717
aI213309585
aI72891284
aI1426818762
aI334070804
aI293002392
aI14542410
aI124779106
aI208783314
aL2526429211L
aI960834355
aL2380576963L
aI109200080
aI391134528
aasS'obj'
p7
ccopy_reg
_reconstructor
p8
(ctweepy.models
User
p9
c__builtin__
object
p10
Ntp11
Rp12
(dp13
S'follow_request_sent'
p14
I00
sS'has_extended_profile'
p15
I00
sS'profile_use_background_image'
p16
I00
sS'profile_sidebar_fill_color'
p17
V000000
p18
sS'id'
p19
L2585824092L
sS'verified'
p20
I00
sS'entities'
p21
(dp22
Vurl
p23
(dp24
Vurls
p25
(lp26
(dp27
g23
Vhttp://t.co/d9kkLYRqL3
p28
sVindices
p29
(lp30
I0
aI22
asVexpanded_url
p31
Vhttp://www.finrofca.com
p32
sVdisplay_url
p33
Vfinrofca.com
p34
sassVdescription
p35
(dp36
g25
(lp37
sssS'profile_image_url_https'
p38
Vhttps://pbs.twimg.com/profile_images/481443290978344963/NU4w_y73_normal.jpeg
p39
sS'_json'
p40
(dp41
Vfollow_request_sent
p42
I00
sVhas_extended_profile
p43
I00
sVprofile_use_background_image
p44
I00
sVdefault_profile_image
p45
I00
sVid
p46
L2585824092L
sVprofile_background_image_url_https
p47
Vhttps://abs.twimg.com/images/themes/theme1/bg.png
p48
sVverified
p49
I00
sVprofile_text_color
p50
V000000
p51
sVprofile_image_url_https
p52
g39
sVprofile_sidebar_fill_color
p53
g18
sVentities
p54
g22
sVfollowers_count
p55
I107
sVprofile_sidebar_border_color
p56
V000000
p57
sVid_str
p58
V2585824092
p59
sVprofile_background_color
p60
V000000
p61
sVlisted_count
p62
I16
sVstatus
p63
(dp64
Vcontributors
p65
NsVtruncated
p66
I00
sVtext
p67
VIs The Private Valuations Bubble Beginning To Burst? Check out my #Amigobulls article at https://t.co/VyLVH2KjJb $FB $BIDU $UBER #snapchat
p68
sVin_reply_to_status_id
p69
Nsg46
L665184157610467328L
sVfavorite_count
p70
I0
sVsource
p71
V<a href="http://twitter.com" rel="nofollow">Twitter Web Client</a>
p72
sVretweeted
p73
I00
sVcoordinates
p74
Nsg54
(dp75
Vsymbols
p76
(lp77
(dp78
g29
(lp79
I113
aI116
asg67
VFB
p80
sa(dp81
g29
(lp82
I117
aI122
asg67
VBIDU
p83
sa(dp84
g29
(lp85
I123
aI128
asg67
VUBER
p86
sasVuser_mentions
p87
(lp88
sVhashtags
p89
(lp90
(dp91
g29
(lp92
I66
aI77
asg67
VAmigobulls
p93
sa(dp94
g29
(lp95
I129
aI138
asg67
Vsnapchat
p96
sasg25
(lp97
(dp98
g23
Vhttps://t.co/VyLVH2KjJb
p99
sg29
(lp100
I89
aI112
asg31
Vhttp://bit.ly/1O73idf
p101
sg33
Vbit.ly/1O73idf
p102
sassVin_reply_to_screen_name
p103
Nsg58
V665184157610467328
p104
sVretweet_count
p105
I0
sVin_reply_to_user_id
p106
NsVfavorited
p107
I00
sVgeo
p108
NsVin_reply_to_user_id_str
p109
NsVpossibly_sensitive
p110
I00
sVlang
p111
Ven
p112
sVcreated_at
p113
VFri Nov 13 15:07:16 +0000 2015
p114
sVin_reply_to_status_id_str
p115
NsVplace
p116
NssVis_translation_enabled
p117
I00
sVutc_offset
p118
I7200
sVstatuses_count
p119
I530
sg35
VCEO and Equity Analyst at Finro. Covers privately held and publicly traded tech companies. Feel free to contact me via email at lior.ronen@finrofca.com or DM.
p120
sVfriends_count
p121
I134
sVlocation
p122
V
p123
sVprofile_link_color
p124
V3B94D9
p125
sVprofile_image_url
p126
Vhttp://pbs.twimg.com/profile_images/481443290978344963/NU4w_y73_normal.jpeg
p127
sVfollowing
p128
I00
sVgeo_enabled
p129
I00
sVprofile_banner_url
p130
Vhttps://pbs.twimg.com/profile_banners/2585824092/1434958683
p131
sVprofile_background_image_url
p132
Vhttp://abs.twimg.com/images/themes/theme1/bg.png
p133
sVscreen_name
p134
VLior_Ronen
p135
sg111
Ven
p136
sVprofile_background_tile
p137
I00
sVfavourites_count
p138
I76
sVname
p139
VLior Ronen
p140
sVnotifications
p141
I00
sg23
Vhttp://t.co/d9kkLYRqL3
p142
sg113
VTue Jun 24 14:16:03 +0000 2014
p143
sVcontributors_enabled
p144
I00
sVtime_zone
p145
VJerusalem
p146
sVprotected
p147
I00
sVdefault_profile
p148
I00
sVis_translator
p149
I00
ssS'contributors_enabled'
p150
I00
sS'profile_text_color'
p151
g51
sS'followers_count'
p152
I107
sS'profile_sidebar_border_color'
p153
g57
sS'id_str'
p154
g59
sS'default_profile_image'
p155
I00
sS'listed_count'
p156
I16
sS'status'
p157
g8
(ctweepy.models
Status
p158
g10
Ntp159
Rp160
(dp161
S'favorited'
p162
I00
sS'contributors'
p163
NsS'truncated'
p164
I00
sS'text'
p165
g68
sS'source_url'
p166
Vhttp://twitter.com
p167
sS'possibly_sensitive'
p168
I00
sS'in_reply_to_status_id'
p169
NsS'geo'
p170
Nsg19
L665184157610467328L
sS'favorite_count'
p171
I0
sS'lang'
p172
g112
sg21
g75
sS'created_at'
p173
cdatetime
datetime
p174
(S'\x07\xdf\x0b\r\x0f\x07\x10\x00\x00\x00'
p175
tp176
Rp177
sg40
g64
sS'coordinates'
p178
NsS'in_reply_to_user_id_str'
p179
NsS'source'
p180
VTwitter Web Client
p181
sS'in_reply_to_status_id_str'
p182
NsS'in_reply_to_screen_name'
p183
Nsg154
g104
sS'retweeted'
p184
I00
sS'place'
p185
NsS'retweet_count'
p186
I0
sS'in_reply_to_user_id'
p187
NsbsS'is_translation_enabled'
p188
I00
sS'utc_offset'
p189
I7200
sS'statuses_count'
p190
I530
sS'description'
p191
g120
sS'friends_count'
p192
I134
sS'location'
p193
g123
sS'profile_link_color'
p194
g125
sS'profile_image_url'
p195
g127
sS'notifications'
p196
I00
sS'geo_enabled'
p197
I00
sS'profile_background_color'
p198
g61
sS'profile_banner_url'
p199
g131
sS'profile_background_image_url'
p200
g133
sS'screen_name'
p201
g135
sg172
g136
sg1
I00
sS'profile_background_tile'
p202
I00
sS'favourites_count'
p203
I76
sS'name'
p204
g140
sS'url'
p205
g142
sg173
g174
(S'\x07\xde\x06\x18\x0e\x10\x03\x00\x00\x00'
p206
tp207
Rp208
sS'profile_background_image_url_https'
p209
g48
sS'time_zone'
p210
g146
sS'protected'
p211
I00
sS'default_profile'
p212
I00
sS'is_translator'
p213
I00
sbs.