(dp0
S'following'
p1
(lp2
(lp3
L2641406344L
aL2357133198L
aI147998139
aL2831626602L
aL2836956411L
aI444938818
aI174795008
aI24201536
aI14535306
aI155603048
aL2447159468L
aI90513300
aI19836290
aI84398972
aL2831027859L
aI74502224
aI334654285
aI18512778
aL2856195764L
aL2579909899L
aL2764742430L
aL2710079142L
aI19531577
aI1255055508
aI478126597
aL2860440686L
aL2359669877L
aI14431335
aL2513063370L
aI621251135
aI15817301
aL2783813343L
aI207490644
aL2828144092L
aL2412494910L
aI270418207
aL2772464174L
aI1654791204
aL2835879438L
aI80354338
aL2425439568L
aL2860415886L
aL2832416331L
aL2755987826L
aI392590243
aL2853477314L
aI347804908
aI1252761990
aL2507872824L
aL2819570907L
aL2328834075L
aL2220384829L
aI142277840
aI278860757
aL2286933728L
aL2385876978L
aL2572830134L
aL2676695107L
aL2707537280L
aI382141735
aI234440202
aI21463990
aI931144902
aI873880164
aI377018034
aI1468291921
aI408100058
aL2680059420L
aI1966756980
aL2419194756L
aI468423400
aI356351539
aL2706080292L
aI24626424
aI1476898136
aL2706212154L
aL2366296358L
aI1505034776
aI849328400
aI284805016
aI1951994160
aL2373446051L
aI1636317235
aI942390842
aI606407478
aI114183107
aI510342638
aI542840469
aI735280746
aL2320547791L
aL2691308660L
aI1711739342
aI290170851
aI26713042
aI30237798
aL2375669186L
aL2444352781L
aI1726520412
aL2694587880L
aI525713285
aI1152984595
aL2354928007L
aI520988333
aL2451913472L
aI19487886
aI1369360440
aI62360613
aI18807372
aI358701035
aL2709580096L
aL2683498868L
aL2543286565L
aL2677629997L
aI238507457
aL2544728480L
aI100218359
aI54066216
aL2572625041L
aI1166053044
aL2686020266L
aL2685390260L
aI1258243938
aL2495445295L
aI15717762
aL2508784442L
aI16657786
aI14616406
aI17601914
aI268850421
aI1517128472
aI360544017
aI21761627
aI1654010328
aL2667910046L
aL2654259266L
aI547663168
aL2182969026L
aL2663865414L
aI146584479
aL2666881376L
aL2184665196L
aI369725933
aL2552330280L
aI366485111
aI1309378242
aI47289494
aL2641221758L
aL2675274463L
aL2545251487L
aI128847518
aI392469861
aI175906908
aI143152060
aL2200957043L
aL2333552203L
aI359793610
aL2484927578L
aI92635931
aI1316950460
aI68476851
aI86689374
aL2560556563L
aI543874719
aL2370803844L
aI42430180
aI60294741
aL2315147609L
aI440272274
aI1195042550
aI187885062
aL2674771854L
aL2652217490L
aL2463350786L
aI22282182
aI17874926
aI22228725
aI33492443
aI373355183
aI466888447
aI25105804
aL2718663195L
aL2557963830L
aI71852724
aI154530823
aI784352246
aI486307695
aI597412933
aI497249600
aL2591518628L
aI1961122069
aL2187117308L
aL2668090308L
aI74724876
aI1670967312
aI51680649
aL2657190133L
aL2592563059L
aL2159398820L
aI15369494
aL2665553654L
aI57063269
aI27546916
aL2316136362L
aI1465483465
aI425928244
aI1197345576
aL2565636595L
aI322802999
aI30500021
aI219488642
aL2516548284L
aI226256948
aI985901700
aL2612975090L
aI129964269
aI23318841
aL2297998979L
aL2587469552L
aL2370591043L
aI91420024
aL2719577487L
aI541973128
aI1419965035
aI375217569
aI1732251638
aI1140791539
aL2365631125L
aI144219653
aI299404666
aI153860327
aL2470981772L
aI1634597353
aI263026031
aL2350275637L
aL2279210012L
aI81096462
aI78558305
aI1905401383
aI169115069
aI864000018
aL2236841582L
aI26174058
aL2646741601L
aL2558463343L
aI362416241
aI9150032
aI111583872
aL2659162369L
aL2658682692L
aI343534984
aI172201288
aL2543331593L
aI463581555
aL2657023148L
aI1142775523
aL2652738781L
aI737963094
aL2653830486L
aI160358537
aL2716274422L
aL2482893991L
aI153874047
aL2393225203L
aI1334718296
aI928520490
aI484322134
aI1969751814
aI68244938
aL2646296754L
aL2252032009L
aI712352391
aI1670726738
aL2653489884L
aL2614455222L
aI15356318
aI61507936
aL2652322208L
aL2631500255L
aL2555242525L
aI253769656
aI1565453804
aI438366309
aI26329255
aL2495727296L
aL2650973538L
aI22296361
aL2437414320L
aI326914272
aI1431629534
aI166266455
aI317860946
aI79626912
aL2579145127L
aL2512353144L
aI204385761
aI1109173051
aI862535828
aL2185832379L
aI66935500
aL2589919345L
aL2650963596L
aL2589205423L
aL2650824235L
aI47719657
aI1029400598
aI21318183
aL2298115249L
aI402394836
aI17861991
aL2371102609L
aL2565561578L
aI819701023
aI338530814
aL2595429379L
aI72764133
aL2195164722L
aI598986922
aI207048594
aL2155037797L
aI135325668
aL2332350522L
aI271531588
aI127195708
aI92048782
aI280186392
aI394975971
aL2434680655L
aL2635976551L
aI1635943718
aI919864417
aI71771202
aI26049841
aI17565293
aL2590219879L
aI18942861
aI859721910
aL2328090591L
aL2319496951L
aL2328288001L
aI1663541358
aI256460423
aI97340532
aL2308093136L
aL2539691300L
aI393147054
aI15753498
aI1917684800
aL2615435730L
aI1950725887
aI318424356
aI532643012
aL2409595592L
aI406932500
aL2592134713L
aI88284621
aL2708233288L
aI35574246
aI96095197
aI89937946
aI196210451
aI33962505
aI16993181
aI176372641
aI104230403
aL2520081450L
aI211085241
aI410818942
aL2505667579L
aL2597913606L
aI253537726
aI1582674716
aI325930319
aI276038746
aL2283452474L
aI1517894166
aI56340831
aI116655954
aI497300307
aL2571093972L
aL2519202007L
aL2295334754L
aL2597545405L
aL2514832340L
aL2591340896L
aL2608133450L
aL2361942464L
aL2598637357L
aI400664702
aI72251250
aI479723245
aL2642603393L
aI421897827
aL2327134884L
aL2606247775L
aL2609316858L
aI162540978
aI411057401
aI173283694
aI915002628
aI1327681459
aL2586149184L
aI88029067
aI394209375
aI1593350862
aL2187747047L
aI1183887576
aL2583856861L
aI1171114140
aI1322307116
aL2595597943L
aL2610180228L
aI267277891
aI52835309
aL2507555114L
aI465753424
aI1422126799
aI27786357
aI45111170
aL2431812199L
aI341202310
aL2608982510L
aL2532856152L
aL2591257206L
aI427289214
aL2459878801L
aI606468976
aI567762634
aI1534225038
aI27555264
aI1322467172
aL2597214601L
aI542936786
aI31541303
aL2338630706L
aL2552666815L
aI34765545
aI557855355
aI1658403386
aI250394083
aI626435619
aI278954905
aI1925445428
aI233486428
aI54845521
aI26175297
aI22786649
aI80380222
aL2602031797L
aI1140341359
aI201331931
aL2318809975L
aI270273470
aI428705580
aI37698213
aI101780614
aI568832213
aL2198071472L
aI226828258
aL2322935754L
aI1620962106
aL2272699164L
aI1363153292
aI15185621
aI106058159
aI1969439738
aI42701544
aI259472992
aI236375685
aI26018723
aI26756980
aI36350825
aI297855695
aI1018507656
aI204633530
aL2243965574L
aI112711490
aI1259406326
aI17145553
aI16091008
aI991954435
aI547250190
aL2376544555L
aI303684497
aL2385014449L
aI144910421
aL2588457878L
aI84726219
aI1618844821
aI216415382
aL2329785776L
aI390234756
aI616297042
aL2577756926L
aI457469489
aL2173925814L
aI1083536078
aI38574970
aI41041371
aI287483881
aL2656926034L
aI17897350
aL2504470881L
aI372362321
aI94669247
aL2595137598L
aI754064094
aI225925468
aI18310594
aI116578795
aL2647738606L
aI1239875148
aL2320581355L
aasS'followers'
p4
(lp5
(lp6
I1870273261
aI1870271708
aL3404437079L
aI235320641
aL3312667008L
aL3544180696L
aL2539577030L
aL3601829895L
aI35013598
aI54066216
aL3091496637L
aI700548623
aI325218106
aL2178408905L
aL2195164722L
aI1041706382
aI1140341359
aasS'obj'
p7
ccopy_reg
_reconstructor
p8
(ctweepy.models
User
p9
c__builtin__
object
p10
Ntp11
Rp12
(dp13
S'follow_request_sent'
p14
NsS'has_extended_profile'
p15
I00
sS'profile_use_background_image'
p16
I01
sS'profile_sidebar_fill_color'
p17
VDDEEF6
p18
sS'id'
p19
L2597562002L
sS'verified'
p20
I00
sS'entities'
p21
(dp22
Vdescription
p23
(dp24
Vurls
p25
(lp26
sssS'profile_image_url_https'
p27
Vhttps://pbs.twimg.com/profile_images/483872814823272448/u0gbHxey_normal.jpeg
p28
sS'_json'
p29
(dp30
Vfollow_request_sent
p31
NsVhas_extended_profile
p32
I00
sVprofile_use_background_image
p33
I01
sVdefault_profile_image
p34
I00
sVid
p35
L2597562002L
sVprofile_background_image_url_https
p36
Vhttps://abs.twimg.com/images/themes/theme1/bg.png
p37
sVverified
p38
I00
sVprofile_text_color
p39
V333333
p40
sVprofile_image_url_https
p41
g28
sVprofile_sidebar_fill_color
p42
g18
sVentities
p43
g22
sVfollowers_count
p44
I17
sVprofile_sidebar_border_color
p45
VC0DEED
p46
sVid_str
p47
V2597562002
p48
sVprofile_background_color
p49
VC0DEED
p50
sVlisted_count
p51
I10
sVstatus
p52
(dp53
Vcontributors
p54
NsVtruncated
p55
I00
sVtext
p56
VRT @venicewavefest: Louis king - HUMAN - Running Late by @theLouisKing  https://t.co/FPakmPuO3c
p57
sVin_reply_to_status_id
p58
Nsg35
L662382445136904192L
sVfavorite_count
p59
I0
sVsource
p60
V<a href="http://twitter.com" rel="nofollow">Twitter Web Client</a>
p61
sVretweeted
p62
I00
sVcoordinates
p63
Nsg43
(dp64
Vsymbols
p65
(lp66
sVuser_mentions
p67
(lp68
(dp69
g35
L3898164493L
sVindices
p70
(lp71
I3
aI18
asg47
V3898164493
p72
sVscreen_name
p73
Vvenicewavefest
p74
sVname
p75
VVWF Music
p76
sa(dp77
g35
I109908019
sg70
(lp78
I57
aI70
asg47
V109908019
p79
sg73
VtheLouisKing
p80
sg75
VLouis King
p81
sasVhashtags
p82
(lp83
sg25
(lp84
(dp85
Vurl
p86
Vhttps://t.co/FPakmPuO3c
p87
sg70
(lp88
I72
aI95
asVexpanded_url
p89
Vhttps://soundcloud.com/louisking/human
p90
sVdisplay_url
p91
Vsoundcloud.com/louisking/human
p92
sassVin_reply_to_screen_name
p93
Nsg47
V662382445136904192
p94
sVretweet_count
p95
I312
sVin_reply_to_user_id
p96
NsVfavorited
p97
I00
sVretweeted_status
p98
(dp99
g54
Nsg55
I00
sg56
VLouis king - HUMAN - Running Late by @theLouisKing  https://t.co/FPakmPuO3c
p100
sg58
Nsg35
L661972015662825472L
sg59
I6
sg60
V<a href="http://twitter.com/download/iphone" rel="nofollow">Twitter for iPhone</a>
p101
sg62
I00
sg63
Nsg43
(dp102
g65
(lp103
sg67
(lp104
(dp105
g35
I109908019
sg70
(lp106
I37
aI50
asg47
V109908019
p107
sg73
VtheLouisKing
p108
sg75
VLouis King
p109
sasg82
(lp110
sg25
(lp111
(dp112
g86
Vhttps://t.co/FPakmPuO3c
p113
sg70
(lp114
I52
aI75
asg89
Vhttps://soundcloud.com/louisking/human
p115
sg91
Vsoundcloud.com/louisking/human
p116
sassg93
Nsg47
V661972015662825472
p117
sg95
I312
sg96
Nsg97
I00
sVgeo
p118
NsVin_reply_to_user_id_str
p119
NsVpossibly_sensitive
p120
I00
sVlang
p121
Ven
p122
sVcreated_at
p123
VWed Nov 04 18:23:22 +0000 2015
p124
sVin_reply_to_status_id_str
p125
NsVplace
p126
Nssg118
Nsg119
Nsg120
I00
sg121
Ven
p127
sg123
VThu Nov 05 21:34:16 +0000 2015
p128
sg125
Nsg126
NssVis_translation_enabled
p129
I00
sVutc_offset
p130
NsVstatuses_count
p131
I4019
sg23
V
p132
sVfriends_count
p133
I512
sVlocation
p134
g132
sVprofile_link_color
p135
V0084B4
p136
sVprofile_image_url
p137
Vhttp://pbs.twimg.com/profile_images/483872814823272448/u0gbHxey_normal.jpeg
p138
sVfollowing
p139
NsVgeo_enabled
p140
I00
sVprofile_background_image_url
p141
Vhttp://abs.twimg.com/images/themes/theme1/bg.png
p142
sg73
Vkuchebo_s7768
p143
sg121
Vru
p144
sVprofile_background_tile
p145
I00
sVfavourites_count
p146
I1256
sg75
Vsydney kuchebo
p147
sVnotifications
p148
Nsg86
Nsg123
VTue Jul 01 07:20:38 +0000 2014
p149
sVcontributors_enabled
p150
I00
sVtime_zone
p151
NsVprotected
p152
I00
sVdefault_profile
p153
I01
sVis_translator
p154
I00
ssS'contributors_enabled'
p155
I00
sS'profile_text_color'
p156
g40
sS'followers_count'
p157
I17
sS'profile_sidebar_border_color'
p158
g46
sS'id_str'
p159
g48
sS'default_profile_image'
p160
I00
sS'listed_count'
p161
I10
sS'status'
p162
g8
(ctweepy.models
Status
p163
g10
Ntp164
Rp165
(dp166
S'favorited'
p167
I00
sS'contributors'
p168
NsS'truncated'
p169
I00
sS'text'
p170
g57
sS'source_url'
p171
Vhttp://twitter.com
p172
sS'possibly_sensitive'
p173
I00
sS'in_reply_to_status_id'
p174
NsS'geo'
p175
Nsg19
L662382445136904192L
sS'favorite_count'
p176
I0
sS'lang'
p177
g127
sS'retweeted_status'
p178
g8
(g163
g10
Ntp179
Rp180
(dp181
g167
I00
sg168
Nsg169
I00
sg170
g100
sg171
Vhttp://twitter.com/download/iphone
p182
sg173
I00
sg174
Nsg175
Nsg19
L661972015662825472L
sg176
I6
sg177
g122
sg21
g102
sS'created_at'
p183
cdatetime
datetime
p184
(S'\x07\xdf\x0b\x04\x12\x17\x16\x00\x00\x00'
p185
tp186
Rp187
sg29
g99
sS'coordinates'
p188
NsS'in_reply_to_user_id_str'
p189
NsS'source'
p190
VTwitter for iPhone
p191
sS'in_reply_to_status_id_str'
p192
NsS'in_reply_to_screen_name'
p193
Nsg159
g117
sS'retweeted'
p194
I00
sS'place'
p195
NsS'retweet_count'
p196
I312
sS'in_reply_to_user_id'
p197
Nsbsg21
g64
sg183
g184
(S'\x07\xdf\x0b\x05\x15"\x10\x00\x00\x00'
p198
tp199
Rp200
sg29
g53
sg188
Nsg189
Nsg190
VTwitter Web Client
p201
sg192
Nsg193
Nsg159
g94
sg194
I00
sg195
Nsg196
I312
sg197
NsbsS'is_translation_enabled'
p202
I00
sS'utc_offset'
p203
NsS'statuses_count'
p204
I4019
sS'description'
p205
g132
sS'friends_count'
p206
I512
sS'location'
p207
g132
sS'profile_link_color'
p208
g136
sS'profile_image_url'
p209
g138
sS'notifications'
p210
NsS'geo_enabled'
p211
I00
sS'profile_background_color'
p212
g50
sS'profile_background_image_url'
p213
g142
sS'screen_name'
p214
g143
sg177
g144
sg1
I00
sS'profile_background_tile'
p215
I00
sS'favourites_count'
p216
I1256
sS'name'
p217
g147
sS'url'
p218
Nsg183
g184
(S'\x07\xde\x07\x01\x07\x14&\x00\x00\x00'
p219
tp220
Rp221
sS'profile_background_image_url_https'
p222
g37
sS'time_zone'
p223
NsS'protected'
p224
I00
sS'default_profile'
p225
I01
sS'is_translator'
p226
I00
sbs.