(dp0
S'following'
p1
(lp2
(lp3
I354418265
aL2286933728L
aI431735731
aL2229976656L
aL2676519773L
aL2572830134L
aI271778688
aL2570014717L
aI68425924
aI1703009785
aI31275580
aI349774840
aI1924239336
aI1951994160
aI1904924503
aI1931331919
aI1375563632
aI1265125345
aI408100058
aI36415257
aI540750580
aI1852079359
aI29458878
aL2706080292L
aI24626424
aL2695044714L
aL2373446051L
aI1320948746
aL2731397727L
aI114183107
aL2483307072L
aI1540824900
aI60294855
aI152831766
aI542840469
aI15608083
aI735280746
aI76136090
aL2340645799L
aI43875890
aI278224987
aI212212089
aI860113350
aI1184284272
aL2691308660L
aI407181226
aI991750777
aL2375669186L
aL2560899660L
aI888521419
aI507309350
aL2693405083L
aI38699351
aL2625181298L
aI1152984595
aI68080316
aI244800486
aL2354928007L
aL2379687374L
aL2451913472L
aI19487886
aI1369360440
aI198428198
aI24633977
aL2561041711L
aL2678183562L
aI973716014
aI1066579406
aI456691499
aL2722499285L
aL2431447641L
aI440272274
aL2590238545L
aI15040988
aL2686020266L
aI26713042
aL2368527056L
aL2544728480L
aI53579217
aI49549493
aL2478548545L
aL2572625041L
aL2432830056L
aL2598526662L
aI221324970
aI92422547
aL2182969026L
aI1258243938
aI287531586
aI15717762
aI1483185702
aI952167139
aI957474006
aI360544017
aL2682689976L
aL2634836454L
aL2667910046L
aL2445582816L
aI1467031471
aL2366296358L
aL2557963830L
aI228679953
aL2587462604L
aL2675274463L
aI143181898
aL2184665196L
aL2570584575L
aL2552330280L
aI366485111
aI156667249
aI225925468
aL2683716570L
aI510840144
aI128847518
aI45232245
aI392469861
aI175906908
aL2659955006L
aI54526838
aL2333552629L
aL2365631125L
aI39957724
aI1316950460
aI86689374
aI96777357
aI995590147
aI63818960
aI543874719
aL2322935827L
aI24187104
aL2384427968L
aI42430180
aI318647235
aI1195042550
aI1461538860
aL2708587401L
aI195921210
aI143490268
aI1055558648
aL2463350786L
aI17874926
aI1107682382
aL2612411707L
aI29964759
aI1147330586
aL2513778132L
aL2672307570L
aI27821302
aL2718663195L
aL2341729783L
aI815651436
aL2670055668L
aI613589375
aI43942229
aL2670968364L
aI154530823
aI340835504
aI156420167
aI77078070
aI298988829
aI62124341
aL2187117308L
aL2570561827L
aL2668090308L
aL2525348117L
aI1305382992
aI402156828
aI1350994831
aI116655954
aI51919619
aI403776054
aI785159748
aI175384377
aI425928244
aI20858438
aL2358090175L
aL2666881376L
aI20576735
aL2659475168L
aI1197345576
aL2595597943L
aI226256948
aI9575262
aL2612975090L
aL2665733365L
aL2297998979L
aI1554308076
aI1062957812
aL2593284692L
aI375217569
aI1732251638
aL2544416988L
aI1140791539
aI204385761
aL2383132067L
aI164789629
aL2643458701L
aI308088777
aI299404666
aI51573279
aI1634597353
aI28428838
aL2329227986L
aI263026031
aL2270789437L
aL2565439729L
aI52154347
aI137811984
aL2661968402L
aL2256003930L
aL2422806902L
aI169115069
aI864000018
aI1961122069
aI125139922
aL2646741601L
aI1283753942
aL2558463343L
aI362416241
aL2659162369L
aL2512121120L
aI463581555
aL2340018630L
aI1142775523
aI423225715
aL2547009102L
aI284235479
aI44209472
aL2496174590L
aL2655023160L
aL2656568246L
aI160358537
aI1870053469
aI387204541
aI928520490
aI44332532
aL2482893991L
aI153874047
aL2546245272L
aI574413299
aI153860327
aI1602278077
aI17433591
aI185468180
aL2492293153L
aI1379462672
aI111583872
aL2646296754L
aL2715399489L
aI1558018844
aI530839582
aL2640436159L
aI80418292
aI1973110394
aI101795538
aI966928603
aL2640043440L
aL2308047248L
aL2631500255L
aI1636317235
aI449897213
aL2714256825L
aL2645420814L
aL2663942357L
aL2495727296L
aI713024076
aI995191
aI82049536
aI553084594
aL2437414320L
aI1469660306
aI326914272
aI166266455
aI1898247722
aI1683045271
aL2696289885L
aI61721620
aL2525420522L
aL2416007262L
aI66935500
aL2483825419L
aI575919094
aL2371102609L
aI819701023
aL2702500437L
aI746607332
aI225845423
aL2595429379L
aI598986922
aI207048594
aI260182449
aI632894984
aI480216435
aI271531588
aI127195708
aL2578668392L
aI276234557
aI200829360
aI394975971
aI232733146
aI919864417
aI85739643
aI572768485
aL2329785776L
aL2250146256L
aL2339137461L
aL2633161764L
aI144790862
aI34737026
aI23463257
aI97340532
aL2539691300L
aI393147054
aL2425695406L
aI293393370
aI481284459
aI1917684800
aI909287167
aL2187233760L
aI1663541358
aI532643012
aI134334536
aI1004495286
aL2592134713L
aI78558305
aI45677989
aL2162177626L
aI104230403
aI1635943718
aI295528885
aL2287778433L
aL2342789239L
aI1078030825
aL2519021376L
aI178006495
aL2597913606L
aI1582674716
aI325930319
aI276038746
aL2291199746L
aI56340831
aI884469666
aI497300307
aI843843073
aI243564826
aI1219773812
aL2597545405L
aL2591340896L
aI1523445181
aL2608133450L
aI1086973130
aL2610180228L
aI310018162
aI72342284
aI400664702
aI72251250
aI479723245
aI1475831970
aL2693106617L
aI20899020
aL2608590540L
aL2195164722L
aL2694388827L
aI915002628
aI1343041062
aI465436485
aI358435993
aI1183887576
aI596444703
aL2597131141L
aI284124543
aL2601329396L
aI42640655
aI329811287
aI267277891
aI52835309
aI465753424
aI1422126799
aI159642250
aL2608051195L
aL2441547390L
aI298199572
aI1852128427
aI425185949
aI27786357
aI45111170
aI15369494
aI398302673
aL2591257206L
aI606468976
aI587789939
aI38574970
aI27555264
aI42701544
aI1322467172
aL2597214601L
aI542936786
aI31541303
aL2338630706L
aL2552666815L
aI557855355
aI1039290348
aI250394083
aI626435619
aI278954905
aI146584479
aL2572972266L
aI1863667136
aL2226958414L
aL2600558784L
aI51130851
aI1063752252
aL2451726486L
aL2543286565L
aI230832374
aI100554109
aL2416565454L
aI22786649
aL2602031797L
aL2603750918L
aI1140341359
aL2548797019L
aL2234578842L
aI201331931
aI21588560
aI71094551
aI1278251886
aI226828258
aL2322935754L
aI1620962106
aI1363153292
aL2602710596L
aL2156821353L
aI15185621
aI106058159
aI14787410
aI745649737
aI259472992
aI481596421
aL2530038722L
aI162540978
aL2660632624L
aL2435635580L
aI297855695
aL2350411332L
aI204633530
aL2279958188L
aL2243965574L
aI1259406326
aI973602157
aI1711739342
aI254863343
aI171893387
aI881150815
aI287730945
aI547250190
aL2376544555L
aI303684497
aI1082828700
aL2385014449L
aL2381831497L
aI144910421
aL2588457878L
aI84726219
aI618402068
aI1618844821
aL2659853921L
aI54313458
aI1891291836
aI113631068
aL2532394022L
aI418034613
aI410507281
aL2597023699L
aI180587156
aL2577756926L
aI25841661
aI475303874
aI41041371
aI853632253
aL2656926034L
aL2476834308L
aI17897350
aL2504470881L
aI372362321
aI360158145
aI1097041136
aI94669247
aI1498345412
aL2595137598L
aI754064094
aI22988227
aI18310594
aI332568011
aI1239875148
aL2323040006L
aL2325939036L
aasS'followers'
p4
(lp5
(lp6
L3317380675L
aL3521403136L
aI174953869
aL3054950158L
aL2812711035L
aL3312667008L
aL3860377223L
aL2375187150L
aL2483307072L
aI28428838
aasS'obj'
p7
ccopy_reg
_reconstructor
p8
(ctweepy.models
User
p9
c__builtin__
object
p10
Ntp11
Rp12
(dp13
S'follow_request_sent'
p14
NsS'has_extended_profile'
p15
I00
sS'profile_use_background_image'
p16
I01
sS'profile_sidebar_fill_color'
p17
VDDEEF6
p18
sS'id'
p19
L2597528377L
sS'verified'
p20
I00
sS'entities'
p21
(dp22
Vdescription
p23
(dp24
Vurls
p25
(lp26
sssS'profile_image_url_https'
p27
Vhttps://pbs.twimg.com/profile_images/483859697108140032/byon0VNM_normal.jpeg
p28
sS'_json'
p29
(dp30
Vfollow_request_sent
p31
NsVhas_extended_profile
p32
I00
sVprofile_use_background_image
p33
I01
sVdefault_profile_image
p34
I00
sVid
p35
L2597528377L
sVprofile_background_image_url_https
p36
Vhttps://abs.twimg.com/images/themes/theme1/bg.png
p37
sVverified
p38
I00
sVprofile_text_color
p39
V333333
p40
sVprofile_image_url_https
p41
g28
sVprofile_sidebar_fill_color
p42
g18
sVentities
p43
g22
sVfollowers_count
p44
I10
sVprofile_sidebar_border_color
p45
VC0DEED
p46
sVid_str
p47
V2597528377
p48
sVprofile_background_color
p49
VC0DEED
p50
sVlisted_count
p51
I9
sVstatus
p52
(dp53
Vcontributors
p54
NsVtruncated
p55
I00
sVtext
p56
VRT @iTunesMusicTop: Taylen - Drive https://t.co/Te7U3rqjNS
p57
sVin_reply_to_status_id
p58
Nsg35
L661898455779012608L
sVfavorite_count
p59
I0
sVsource
p60
V<a href="http://twitter.com" rel="nofollow">Twitter Web Client</a>
p61
sVretweeted
p62
I00
sVcoordinates
p63
Nsg43
(dp64
Vsymbols
p65
(lp66
sVuser_mentions
p67
(lp68
(dp69
g35
L2935509226L
sVindices
p70
(lp71
I3
aI18
asg47
V2935509226
p72
sVscreen_name
p73
ViTunesMusicTop
p74
sVname
p75
VFresh Music Only!
p76
sasVhashtags
p77
(lp78
sg25
(lp79
(dp80
Vurl
p81
Vhttps://t.co/Te7U3rqjNS
p82
sg70
(lp83
I35
aI58
asVexpanded_url
p84
Vhttps://soundcloud.com/ceo-5-1/drive
p85
sVdisplay_url
p86
Vsoundcloud.com/ceo-5-1/drive
p87
sassVin_reply_to_screen_name
p88
Nsg47
V661898455779012608
p89
sVretweet_count
p90
I100
sVin_reply_to_user_id
p91
NsVfavorited
p92
I00
sVretweeted_status
p93
(dp94
g54
Nsg55
I00
sg56
VTaylen - Drive https://t.co/Te7U3rqjNS
p95
sg58
Nsg35
L661879069408157696L
sg59
I108
sg60
V<a href="https://about.twitter.com/products/tweetdeck" rel="nofollow">TweetDeck</a>
p96
sg62
I00
sg63
Nsg43
(dp97
g65
(lp98
sg67
(lp99
sg77
(lp100
sg25
(lp101
(dp102
g81
Vhttps://t.co/Te7U3rqjNS
p103
sg70
(lp104
I15
aI38
asg84
Vhttps://soundcloud.com/ceo-5-1/drive
p105
sg86
Vsoundcloud.com/ceo-5-1/drive
p106
sassg88
Nsg47
V661879069408157696
p107
sg90
I100
sg91
Nsg92
I00
sVgeo
p108
NsVin_reply_to_user_id_str
p109
NsVpossibly_sensitive
p110
I00
sVlang
p111
Ven
p112
sVcreated_at
p113
VWed Nov 04 12:14:01 +0000 2015
p114
sVin_reply_to_status_id_str
p115
NsVplace
p116
Nssg108
Nsg109
Nsg110
I00
sg111
Ven
p117
sg113
VWed Nov 04 13:31:03 +0000 2015
p118
sg115
Nsg116
NssVis_translation_enabled
p119
I00
sVutc_offset
p120
NsVstatuses_count
p121
I2427
sg23
V
p122
sVfriends_count
p123
I497
sVlocation
p124
g122
sVprofile_link_color
p125
V0084B4
p126
sVprofile_image_url
p127
Vhttp://pbs.twimg.com/profile_images/483859697108140032/byon0VNM_normal.jpeg
p128
sVfollowing
p129
NsVgeo_enabled
p130
I00
sVprofile_background_image_url
p131
Vhttp://abs.twimg.com/images/themes/theme1/bg.png
p132
sg73
Vlosilkin_a9110
p133
sg111
Vru
p134
sVprofile_background_tile
p135
I00
sVfavourites_count
p136
I911
sg75
Vamber losilkin
p137
sVnotifications
p138
Nsg81
Nsg113
VTue Jul 01 06:28:31 +0000 2014
p139
sVcontributors_enabled
p140
I00
sVtime_zone
p141
NsVprotected
p142
I00
sVdefault_profile
p143
I01
sVis_translator
p144
I00
ssS'contributors_enabled'
p145
I00
sS'profile_text_color'
p146
g40
sS'followers_count'
p147
I10
sS'profile_sidebar_border_color'
p148
g46
sS'id_str'
p149
g48
sS'default_profile_image'
p150
I00
sS'listed_count'
p151
I9
sS'status'
p152
g8
(ctweepy.models
Status
p153
g10
Ntp154
Rp155
(dp156
S'favorited'
p157
I00
sS'contributors'
p158
NsS'truncated'
p159
I00
sS'text'
p160
g57
sS'source_url'
p161
Vhttp://twitter.com
p162
sS'possibly_sensitive'
p163
I00
sS'in_reply_to_status_id'
p164
NsS'geo'
p165
Nsg19
L661898455779012608L
sS'favorite_count'
p166
I0
sS'lang'
p167
g117
sS'retweeted_status'
p168
g8
(g153
g10
Ntp169
Rp170
(dp171
g157
I00
sg158
Nsg159
I00
sg160
g95
sg161
Vhttps://about.twitter.com/products/tweetdeck
p172
sg163
I00
sg164
Nsg165
Nsg19
L661879069408157696L
sg166
I108
sg167
g112
sg21
g97
sS'created_at'
p173
cdatetime
datetime
p174
(S'\x07\xdf\x0b\x04\x0c\x0e\x01\x00\x00\x00'
p175
tp176
Rp177
sg29
g94
sS'coordinates'
p178
NsS'in_reply_to_user_id_str'
p179
NsS'source'
p180
VTweetDeck
p181
sS'in_reply_to_status_id_str'
p182
NsS'in_reply_to_screen_name'
p183
Nsg149
g107
sS'retweeted'
p184
I00
sS'place'
p185
NsS'retweet_count'
p186
I100
sS'in_reply_to_user_id'
p187
Nsbsg21
g64
sg173
g174
(S'\x07\xdf\x0b\x04\r\x1f\x03\x00\x00\x00'
p188
tp189
Rp190
sg29
g53
sg178
Nsg179
Nsg180
VTwitter Web Client
p191
sg182
Nsg183
Nsg149
g89
sg184
I00
sg185
Nsg186
I100
sg187
NsbsS'is_translation_enabled'
p192
I00
sS'utc_offset'
p193
NsS'statuses_count'
p194
I2427
sS'description'
p195
g122
sS'friends_count'
p196
I497
sS'location'
p197
g122
sS'profile_link_color'
p198
g126
sS'profile_image_url'
p199
g128
sS'notifications'
p200
NsS'geo_enabled'
p201
I00
sS'profile_background_color'
p202
g50
sS'profile_background_image_url'
p203
g132
sS'screen_name'
p204
g133
sg167
g134
sg1
I00
sS'profile_background_tile'
p205
I00
sS'favourites_count'
p206
I911
sS'name'
p207
g137
sS'url'
p208
Nsg173
g174
(S'\x07\xde\x07\x01\x06\x1c\x1f\x00\x00\x00'
p209
tp210
Rp211
sS'profile_background_image_url_https'
p212
g37
sS'time_zone'
p213
NsS'protected'
p214
I00
sS'default_profile'
p215
I01
sS'is_translator'
p216
I00
sbs.