(dp0
S'following'
p1
(lp2
(lp3
L2175574930L
aI174795008
aL2867177874L
aL2270923362L
aI14535306
aI155603048
aI605467206
aL2579909899L
aI84398972
aL2457009924L
aI334654285
aL2856513434L
aI21530483
aI1336945716
aI599902311
aI151565039
aL2835680891L
aI836559559
aI157352039
aL2834589905L
aL2462210083L
aL2505639177L
aI621574583
aI1255055508
aI1347092581
aI1142974122
aI14431335
aI621251135
aI951083936
aI1851971178
aI1205186658
aL2828144092L
aI270418207
aI80354338
aI53822165
aI833998765
aL2789487050L
aL2789766847L
aI445001521
aL2328834075L
aL2785491152L
aI1162401714
aL2797020075L
aL2677444532L
aI147998139
aI245627071
aL2220384829L
aL2834817831L
aI337968909
aL2728937544L
aL2722882722L
aI154530823
aL2233583126L
aI1951994160
aI36001883
aL2286933728L
aI18257487
aI24826682
aL2229976656L
aI158941108
aL2572830134L
aL2707537280L
aI22633005
aI234440202
aI3219081
aL2345712726L
aI377018034
aI31275580
aI1931301800
aI1468291921
aI870242101
aI618275125
aI36415257
aL2675405208L
aI24457979
aI956857736
aL2366296358L
aI1505034776
aI33109387
aL2694699818L
aI284805016
aI627578922
aL2373446051L
aL2688820110L
aI1636317235
aI19357045
aI1132553527
aI20473329
aL2694780044L
aI37017261
aL2483307072L
aI1071555128
aI60294855
aI1411688574
aI372563040
aL2693449776L
aI542840469
aI484910306
aI1355354036
aL2468540360L
aL2692561711L
aI241639290
aL2691308660L
aI1711739342
aI991750777
aI203508691
aL2693405083L
aL2659666404L
aI727193022
aL2354928007L
aI520988333
aL2472759031L
aI440151639
aL2451913472L
aI19487886
aI1369360440
aI475398127
aL2550874224L
aL2561041711L
aI1011941574
aI89399572
aI92913243
aI973716014
aI72286225
aI1229539088
aI1562824375
aI42430180
aI1377031160
aL2560899660L
aI241363566
aI1621628432
aL2544728480L
aI49339228
aI124668520
aL2482081074L
aL2572625041L
aL2182969026L
aI505903816
aI1166053044
aL2686020266L
aI1258243938
aL2495445295L
aI287531586
aI15717762
aI16657786
aI1695758540
aI14616406
aI957474006
aL2682689976L
aL2615603630L
aL2681113946L
aI1467031471
aI225925468
aI184950588
aL2557963830L
aI146584479
aI188125145
aL2184665196L
aI366485111
aL2641221758L
aI225464263
aI45232245
aI392469861
aI175906908
aI143152060
aI1305972001
aI168312157
aI23318841
aL2365631125L
aL2723763249L
aI359793610
aI277168782
aI39957724
aI410284783
aL2322935827L
aI1316950460
aI86689374
aL2573105908L
aI1548579037
aI1703091768
aI318288650
aI588364934
aI23699163
aI717675433
aI195921210
aI392164987
aI86352605
aL2463350786L
aI29964759
aI466888447
aI1586394805
aL2657452190L
aI1147330586
aI1959181724
aI43942229
aI313127249
aL2721185818L
aI1961122069
aI204384761
aL2618666149L
aI1628715492
aI1930967420
aI1321651513
aI1670967312
aI51680649
aI315663067
aI27457454
aL2665553654L
aL2659475168L
aI1632791899
aI15885485
aI1577706050
aI272387756
aL2666881376L
aI226256948
aI1390878144
aL2290395662L
aI1197345576
aL2597472933L
aL2587469552L
aL2494056751L
aI1140791539
aL2423427745L
aI199776410
aL2613431344L
aI423192556
aI634455657
aI299404666
aL2648936876L
aI1634597353
aI263026031
aI20987166
aL2235918050L
aL2610493975L
aL2525092208L
aL2552214343L
aI1663548470
aI42012778
aI231731466
aL2422806902L
aI169115069
aI864000018
aL2646712034L
aL2578767151L
aL2650390117L
aI125139922
aL2558463343L
aI9150032
aI842760488
aL2659162369L
aI343534984
aL2370717032L
aI169964031
aL2612211582L
aI44429717
aI25384119
aI1735537332
aL2512121120L
aI463581555
aL2340018630L
aI408770217
aL2547009102L
aI861452660
aI44209472
aI461559163
aL2382046645L
aI160358537
aI1870053469
aI216053478
aL2716274422L
aI153874047
aI487118986
aI928520490
aL2393225203L
aI1334718296
aI1379462672
aI111583872
aI36020107
aI1558018844
aI530839582
aL2589652734L
aI1670726738
aL2352711895L
aI1490300052
aI15356318
aI1829289794
aI966928603
aI24466879
aL2308047248L
aL2609791500L
aL2631500255L
aL2555242525L
aI289935688
aI589380809
aL2651451636L
aL2495727296L
aI144381131
aI50409671
aL2650973538L
aL2391473168L
aL2437414320L
aI1469660306
aI526425475
aI13924292
aI557855355
aL2651413904L
aL2575213650L
aI61721620
aL2525420522L
aI382540569
aI66935500
aL2651050045L
aI21318183
aL2611608062L
aI545783372
aI17861991
aL2674074123L
aL2696289885L
aL2371102609L
aI819701023
aI27235014
aI1611357583
aL2595429379L
aI826081068
aL2600706613L
aI598986922
aI207048594
aL2544061105L
aL2551033417L
aI480216435
aL2545742982L
aL2332350522L
aI271531588
aI127195708
aI1097041136
aL2578668392L
aI796574509
aI276234557
aI36958042
aI394975971
aL2599730912L
aL2213470975L
aL2566173560L
aI169609728
aL2235158028L
aI1911303422
aI919864417
aI85739643
aI572768485
aI118150339
aI18942861
aL2323843914L
aI97340532
aL2645420814L
aL2539691300L
aI415207583
aL2197126625L
aI481284459
aI484322134
aI318424356
aL2526305030L
aL2535102894L
aI1663541358
aI550239179
aI532643012
aI134334536
aL2592134713L
aL2708233288L
aI162705721
aI1004101656
aI1635943718
aL2293066927L
aL2574977136L
aI135325668
aI104230403
aI135540434
aI382350080
aI1078030825
aL2687843998L
aI1836326868
aL2692151805L
aL2597913606L
aI1489331316
aI1582674716
aI518986376
aL2282841356L
aL2616677946L
aI276038746
aL2571202459L
aI56340831
aI116655954
aI475303874
aI109906035
aI497300307
aI72342284
aI243564826
aL2302609886L
aL2519202007L
aL2295334754L
aL2597545405L
aL2591340896L
aI1523445181
aI1086973130
aL2608969106L
aI106142159
aI358418711
aI400664702
aI72251250
aL2613785131L
aI479723245
aL2608051195L
aL2609488773L
aI20899020
aL2606247775L
aL2608590540L
aL2195164722L
aI40200683
aI133390286
aI408555400
aL2284455746L
aI377503494
aI915002628
aI284423859
aI459781893
aI1343041062
aI465436485
aI394209375
aL2224374970L
aI223234065
aI147343718
aI284124543
aI45111170
aI1322307116
aL2595597943L
aL2610180228L
aL2284385215L
aL2610394218L
aL2593891230L
aI52835309
aI1422126799
aL2274900762L
aI385033487
aI141157155
aI15369494
aI27786357
aL2530890744L
aL2588096306L
aL2591257206L
aL2459878801L
aI27555264
aI1322467172
aL2597214601L
aI542936786
aI31541303
aL2338630706L
aL2552666815L
aL2656926034L
aL2488956398L
aI125014101
aI250394083
aL2272394823L
aI1925445428
aL2314952116L
aI54845521
aL2571419310L
aL2569533810L
aI479102502
aL2177335852L
aI846201806
aI382876858
aI279601059
aI152751463
aL2416565454L
aI909287167
aI1008165188
aI361105823
aI1140341359
aI201331931
aI81594412
aI58449443
aL2198071472L
aI226828258
aI93696238
aI1620962106
aI1363153292
aI215064057
aI15185621
aI42701544
aI14787410
aI905772288
aI745649737
aI26756980
aI162540978
aI297855695
aL2561369545L
aI20808507
aL2599374709L
aI204633530
aL2361618091L
aL2279958188L
aL2243965574L
aI1399177513
aI208527185
aI17145553
aL2257148010L
aL2594250668L
aI1564070150
aI287730945
aI547250190
aL2376544555L
aI303684497
aL2449621878L
aL2557687316L
aL2588457878L
aI84726219
aL2598417259L
aL2659853921L
aI566556008
aI708963753
aL2161852729L
aI389530342
aI113631068
aL2329785776L
aL2597963840L
aI132662280
aI188523295
aL2467974684L
aL2335672159L
aL2577756926L
aI1083536078
aI21360280
aL2363108149L
aI38574970
aI41041371
aI1176991920
aL2433727753L
aL2504470881L
aI139037886
aasS'followers'
p4
(lp5
(lp6
L2853744377L
aL3468323127L
aL3443849774L
aL2992729390L
aI635797090
aL2282841356L
aL2483307072L
aL2213470975L
aI761892660
aI241363566
aasS'obj'
p7
ccopy_reg
_reconstructor
p8
(ctweepy.models
User
p9
c__builtin__
object
p10
Ntp11
Rp12
(dp13
S'follow_request_sent'
p14
NsS'has_extended_profile'
p15
I00
sS'profile_use_background_image'
p16
I01
sS'profile_sidebar_fill_color'
p17
VDDEEF6
p18
sS'id'
p19
L2599273956L
sS'verified'
p20
I00
sS'entities'
p21
(dp22
Vdescription
p23
(dp24
Vurls
p25
(lp26
sssS'profile_image_url_https'
p27
Vhttps://pbs.twimg.com/profile_images/484227156398989313/6kC2Qy_v_normal.jpeg
p28
sS'_json'
p29
(dp30
Vfollow_request_sent
p31
NsVhas_extended_profile
p32
I00
sVprofile_use_background_image
p33
I01
sVdefault_profile_image
p34
I00
sVid
p35
L2599273956L
sVprofile_background_image_url_https
p36
Vhttps://abs.twimg.com/images/themes/theme1/bg.png
p37
sVverified
p38
I00
sVprofile_text_color
p39
V333333
p40
sVprofile_image_url_https
p41
g28
sVprofile_sidebar_fill_color
p42
g18
sVentities
p43
g22
sVfollowers_count
p44
I10
sVprofile_sidebar_border_color
p45
VC0DEED
p46
sVid_str
p47
V2599273956
p48
sVprofile_background_color
p49
VC0DEED
p50
sVlisted_count
p51
I9
sVstatus
p52
(dp53
Vcontributors
p54
NsVtruncated
p55
I00
sVtext
p56
VRT @mmmichaelkohler: Check out my Blog for more of this --&gt; https://t.co/x64DHYI8YW #Success #Motivation #Goals #Sales #Money #Business htt\u2026
p57
sVin_reply_to_status_id
p58
Nsg35
L661886986828054529L
sVfavorite_count
p59
I0
sVsource
p60
V<a href="http://twitter.com" rel="nofollow">Twitter Web Client</a>
p61
sVretweeted
p62
I00
sVcoordinates
p63
Nsg43
(dp64
Vsymbols
p65
(lp66
sVuser_mentions
p67
(lp68
(dp69
g35
L2848807153L
sVindices
p70
(lp71
I3
aI19
asg47
V2848807153
p72
sVscreen_name
p73
Vmmmichaelkohler
p74
sVname
p75
VMichael Koehler
p76
sasVhashtags
p77
(lp78
(dp79
g70
(lp80
I87
aI95
asg56
VSuccess
p81
sa(dp82
g70
(lp83
I96
aI107
asg56
VMotivation
p84
sa(dp85
g70
(lp86
I108
aI114
asg56
VGoals
p87
sa(dp88
g70
(lp89
I115
aI121
asg56
VSales
p90
sa(dp91
g70
(lp92
I122
aI128
asg56
VMoney
p93
sa(dp94
g70
(lp95
I129
aI138
asg56
VBusiness
p96
sasg25
(lp97
(dp98
Vurl
p99
Vhttps://t.co/x64DHYI8YW
p100
sg70
(lp101
I63
aI86
asVexpanded_url
p102
Vhttp://goo.gl/aLYIXG
p103
sVdisplay_url
p104
Vgoo.gl/aLYIXG
p105
sasVmedia
p106
(lp107
(dp108
Vsource_user_id
p109
L2848807153L
sVsource_status_id_str
p110
V661879857031311360
p111
sg102
Vhttp://twitter.com/mmmichaelkohler/status/661879857031311360/photo/1
p112
sg104
Vpic.twitter.com/wanekY82cV
p113
sg99
Vhttps://t.co/wanekY82cV
p114
sVmedia_url_https
p115
Vhttps://pbs.twimg.com/media/CS94OQoWUAAn8YJ.jpg
p116
sVsource_user_id_str
p117
V2848807153
p118
sVsource_status_id
p119
L661879857031311360L
sg47
V661879856624455680
p120
sVsizes
p121
(dp122
Vsmall
p123
(dp124
Vh
p125
I214
sVresize
p126
Vfit
p127
sVw
p128
I340
ssVlarge
p129
(dp130
g125
I328
sg126
Vfit
p131
sg128
I520
ssVmedium
p132
(dp133
g125
I328
sg126
Vfit
p134
sg128
I520
ssVthumb
p135
(dp136
g125
I150
sg126
Vcrop
p137
sg128
I150
sssg70
(lp138
I142
aI143
asVtype
p139
Vphoto
p140
sg35
L661879856624455680L
sVmedia_url
p141
Vhttp://pbs.twimg.com/media/CS94OQoWUAAn8YJ.jpg
p142
sassVin_reply_to_screen_name
p143
Nsg47
V661886986828054529
p144
sVretweet_count
p145
I603
sVin_reply_to_user_id
p146
NsVfavorited
p147
I00
sVretweeted_status
p148
(dp149
g54
Nsg55
I00
sg56
VCheck out my Blog for more of this --&gt; https://t.co/x64DHYI8YW #Success #Motivation #Goals #Sales #Money #Business https://t.co/wanekY82cV
p150
sg58
Nsg35
L661879857031311360L
sg59
I108
sg60
V<a href="https://www.socialoomph.com" rel="nofollow">SocialOomph</a>
p151
sg62
I00
sg63
Nsg43
(dp152
g65
(lp153
sg67
(lp154
sg77
(lp155
(dp156
g70
(lp157
I66
aI74
asg56
VSuccess
p158
sa(dp159
g70
(lp160
I75
aI86
asg56
VMotivation
p161
sa(dp162
g70
(lp163
I87
aI93
asg56
VGoals
p164
sa(dp165
g70
(lp166
I94
aI100
asg56
VSales
p167
sa(dp168
g70
(lp169
I101
aI107
asg56
VMoney
p170
sa(dp171
g70
(lp172
I108
aI117
asg56
VBusiness
p173
sasg25
(lp174
(dp175
g99
Vhttps://t.co/x64DHYI8YW
p176
sg70
(lp177
I42
aI65
asg102
Vhttp://goo.gl/aLYIXG
p178
sg104
Vgoo.gl/aLYIXG
p179
sasg106
(lp180
(dp181
g102
Vhttp://twitter.com/mmmichaelkohler/status/661879857031311360/photo/1
p182
sg104
Vpic.twitter.com/wanekY82cV
p183
sg99
Vhttps://t.co/wanekY82cV
p184
sg115
Vhttps://pbs.twimg.com/media/CS94OQoWUAAn8YJ.jpg
p185
sg47
V661879856624455680
p186
sg121
(dp187
g123
(dp188
g125
I214
sg126
Vfit
p189
sg128
I340
ssg129
(dp190
g125
I328
sg126
Vfit
p191
sg128
I520
ssg132
(dp192
g125
I328
sg126
Vfit
p193
sg128
I520
ssg135
(dp194
g125
I150
sg126
Vcrop
p195
sg128
I150
sssg70
(lp196
I118
aI141
asg139
Vphoto
p197
sg35
L661879856624455680L
sg141
Vhttp://pbs.twimg.com/media/CS94OQoWUAAn8YJ.jpg
p198
sassg143
Nsg47
V661879857031311360
p199
sg145
I603
sg146
Nsg147
I00
sVgeo
p200
NsVin_reply_to_user_id_str
p201
NsVpossibly_sensitive
p202
I00
sVlang
p203
Ven
p204
sVcreated_at
p205
VWed Nov 04 12:17:09 +0000 2015
p206
sVin_reply_to_status_id_str
p207
NsVplace
p208
Nssg200
Nsg201
Nsg202
I00
sg203
Ven
p209
sg205
VWed Nov 04 12:45:29 +0000 2015
p210
sg207
Nsg208
NssVis_translation_enabled
p211
I00
sVutc_offset
p212
NsVstatuses_count
p213
I1909
sg23
V
p214
sVfriends_count
p215
I538
sVlocation
p216
g214
sVprofile_link_color
p217
V0084B4
p218
sVprofile_image_url
p219
Vhttp://pbs.twimg.com/profile_images/484227156398989313/6kC2Qy_v_normal.jpeg
p220
sVfollowing
p221
NsVgeo_enabled
p222
I00
sVprofile_background_image_url
p223
Vhttp://abs.twimg.com/images/themes/theme1/bg.png
p224
sg73
Vuhlovskij_a304
p225
sg203
Vru
p226
sVprofile_background_tile
p227
I00
sVfavourites_count
p228
I625
sg75
Valexis uhlovskij
p229
sVnotifications
p230
Nsg99
Nsg205
VWed Jul 02 06:48:39 +0000 2014
p231
sVcontributors_enabled
p232
I00
sVtime_zone
p233
NsVprotected
p234
I00
sVdefault_profile
p235
I01
sVis_translator
p236
I00
ssS'contributors_enabled'
p237
I00
sS'profile_text_color'
p238
g40
sS'followers_count'
p239
I10
sS'profile_sidebar_border_color'
p240
g46
sS'id_str'
p241
g48
sS'default_profile_image'
p242
I00
sS'listed_count'
p243
I9
sS'status'
p244
g8
(ctweepy.models
Status
p245
g10
Ntp246
Rp247
(dp248
S'favorited'
p249
I00
sS'contributors'
p250
NsS'truncated'
p251
I00
sS'text'
p252
g57
sS'source_url'
p253
Vhttp://twitter.com
p254
sS'possibly_sensitive'
p255
I00
sS'in_reply_to_status_id'
p256
NsS'geo'
p257
Nsg19
L661886986828054529L
sS'favorite_count'
p258
I0
sS'lang'
p259
g209
sS'retweeted_status'
p260
g8
(g245
g10
Ntp261
Rp262
(dp263
g249
I00
sg250
Nsg251
I00
sg252
g150
sg253
Vhttps://www.socialoomph.com
p264
sg255
I00
sg256
Nsg257
Nsg19
L661879857031311360L
sg258
I108
sg259
g204
sg21
g152
sS'created_at'
p265
cdatetime
datetime
p266
(S'\x07\xdf\x0b\x04\x0c\x11\t\x00\x00\x00'
p267
tp268
Rp269
sg29
g149
sS'coordinates'
p270
NsS'in_reply_to_user_id_str'
p271
NsS'source'
p272
VSocialOomph
p273
sS'in_reply_to_status_id_str'
p274
NsS'in_reply_to_screen_name'
p275
Nsg241
g199
sS'retweeted'
p276
I00
sS'place'
p277
NsS'retweet_count'
p278
I603
sS'in_reply_to_user_id'
p279
Nsbsg21
g64
sg265
g266
(S'\x07\xdf\x0b\x04\x0c-\x1d\x00\x00\x00'
p280
tp281
Rp282
sg29
g53
sg270
Nsg271
Nsg272
VTwitter Web Client
p283
sg274
Nsg275
Nsg241
g144
sg276
I00
sg277
Nsg278
I603
sg279
NsbsS'is_translation_enabled'
p284
I00
sS'utc_offset'
p285
NsS'statuses_count'
p286
I1909
sS'description'
p287
g214
sS'friends_count'
p288
I538
sS'location'
p289
g214
sS'profile_link_color'
p290
g218
sS'profile_image_url'
p291
g220
sS'notifications'
p292
NsS'geo_enabled'
p293
I00
sS'profile_background_color'
p294
g50
sS'profile_background_image_url'
p295
g224
sS'screen_name'
p296
g225
sg259
g226
sg1
I00
sS'profile_background_tile'
p297
I00
sS'favourites_count'
p298
I625
sS'name'
p299
g229
sS'url'
p300
Nsg265
g266
(S"\x07\xde\x07\x02\x060'\x00\x00\x00"
p301
tp302
Rp303
sS'profile_background_image_url_https'
p304
g37
sS'time_zone'
p305
NsS'protected'
p306
I00
sS'default_profile'
p307
I01
sS'is_translator'
p308
I00
sbs.