(dp0
S'following'
p1
(lp2
(lp3
I544707567
aI36001883
aL2286933728L
aL2451913472L
aL2385876978L
aL2650931490L
aL2730103000L
aI18257487
aL2229976656L
aL2572830134L
aI271778688
aI1423372183
aI68425924
aI16831982
aI395311801
aI412440736
aL2707831716L
aI1541498162
aL2592391704L
aI1730067199
aI377018034
aL2699123269L
aI31275580
aI1931331919
aI1931301800
aI408100058
aI540750580
aI29458878
aL2366296358L
aL2694979891L
aI284805016
aL2373446051L
aL2369773182L
aL2701337196L
aL2681776794L
aI853490604
aL2228475781L
aL2693758988L
aI23022161
aI60294855
aI154530823
aI152831766
aI44467396
aI542840469
aI562133675
aI735143449
aL2566768518L
aL2320547791L
aI1184284272
aL2691308660L
aI290170851
aI1005293959
aL2694209948L
aI525713285
aL2485458836L
aI1152984595
aI257159929
aL2354928007L
aI520988333
aI1369360440
aI239029992
aL2676236498L
aL2597898523L
aI973716014
aI358701035
aI42430180
aI931198993
aL2560899660L
aL2688475214L
aL2544728480L
aI60447945
aL2687913199L
aL2687879756L
aI19357045
aL2572625041L
aL2598526662L
aI1273532971
aL2686020266L
aI1258243938
aI1621628432
aL2495445295L
aI162540978
aI16657786
aI15034155
aI26952935
aI1483185702
aI952167139
aL2615603630L
aL2182969026L
aI184950588
aI166434817
aL2666881376L
aL2184665196L
aL2570584575L
aL2552330280L
aL2561578864L
aI45232245
aI121364465
aL2365631125L
aI1924851775
aL2657616223L
aI39957724
aI134853277
aI410284783
aI1709689099
aI86689374
aI834508536
aI191175872
aI79210652
aI63818960
aL2362965162L
aI1316950460
aI591174145
aI54317567
aI170906943
aL2311550865L
aI195921210
aI392164987
aI17874926
aI29964759
aI412464138
aI19380365
aI163716677
aL2527107896L
aI27821302
aI1441675506
aL2718663195L
aL2341729783L
aL2671491883L
aL2557963830L
aI71852724
aI159022331
aI338705097
aL2434552859L
aI1961122069
aI61784607
aI1628715492
aL2258078502L
aI215090532
aI204385761
aL2668090308L
aI119976960
aL2273317284L
aI1465483465
aL2605651066L
aI74724876
aL2666530434L
aL2659475168L
aI1197345576
aL2565636595L
aI1577706050
aL2462301050L
aI30500021
aL2187117308L
aL2664297644L
aL2259392774L
aI959858318
aI129964269
aL2611904010L
aI564873087
aL2370591043L
aL2244563880L
aL2572168537L
aL2656805130L
aI1732251638
aI1140791539
aL2383132067L
aI9575262
aI26713042
aI634455657
aI364047381
aI174091791
aL2645586308L
aI50078104
aI190489021
aI1703376420
aI592441336
aI248871954
aI169115069
aL2329227986L
aI263026031
aL2610493975L
aI582517122
aI272825205
aI34577701
aL2595481597L
aI597047333
aL2650390117L
aL2352580390L
aL2659955006L
aL2558463343L
aL2657978160L
aI9150032
aI557855355
aL2659162369L
aL2370717032L
aI463581555
aI457745066
aI318421688
aI1142775523
aI14594290
aI408770217
aI1339382984
aL2655941234L
aI811765771
aL2655023160L
aI459330852
aL2656098608L
aI160358537
aI1870053469
aL2716274422L
aI849328400
aI44332532
aL2482893991L
aI153874047
aI738683473
aL2279654473L
aI42558679
aL2393225203L
aI1602278077
aI928520490
aI1969751814
aL2551840765L
aI58564747
aI111583872
aI530839582
aI36358595
aL2252032009L
aI259701844
aI925713366
aL2653489884L
aL2352711895L
aL2652322208L
aI84551845
aL2631500255L
aL2555242525L
aI1195045592
aI1636317235
aI1565453804
aI485173961
aI42449777
aL2519548609L
aL2646821083L
aL2437414320L
aI26967581
aI85880042
aL2650747422L
aI153860327
aI481596421
aL2512353144L
aL2575213650L
aI61721620
aI1109173051
aI864498666
aL2341162841L
aI744096242
aL2650820024L
aL2598134688L
aI553917289
aI135325668
aI1029400598
aI21318183
aI392469861
aL2674074123L
aI137846532
aL2371102609L
aI819701023
aL2702500437L
aI132693384
aL2595429379L
aI487118986
aI72764133
aI598986922
aL2484669638L
aI149878184
aI126515041
aI261294221
aI480216435
aI45855820
aI271531588
aI127195708
aI276234557
aI1911303422
aI71771202
aI1527698995
aL2342620233L
aI1663541358
aI28428838
aI34737026
aL2645420814L
aL2539691300L
aI532643012
aL2409595592L
aL2592134713L
aI71900977
aL2510878592L
aI226828258
aI1239875148
aI1577362050
aI80925742
aL2692151805L
aI312981517
aL2597913606L
aI51875789
aI1582674716
aL2307159169L
aI276038746
aL2283452474L
aI67956011
aI288160474
aI1534225038
aI1517894166
aI56340831
aI116655954
aI497300307
aL2295334754L
aL2597545405L
aL2571227281L
aL2591340896L
aI1523445181
aL2608133450L
aI538356846
aI71178851
aI393103355
aL2611864608L
aI182042611
aI310018162
aI567549527
aI72342284
aI858170240
aI358418711
aI400664702
aI72251250
aI479723245
aI1472816916
aL2606247775L
aI831933140
aL2608590540L
aL2195164722L
aI1019975521
aI41479279
aI40200683
aI47444682
aI287531586
aI915002628
aI1343041062
aL2586149184L
aI394209375
aL2446846928L
aI1183887576
aL2386642381L
aI361681753
aI1322307116
aL2595597943L
aI43754058
aL2593891230L
aL2612603941L
aI52835309
aL2596999836L
aI1422126799
aI893653075
aI27786357
aI204633530
aL2410830170L
aI45111170
aI15369494
aL2608982510L
aI758115408
aI926557609
aL2591257206L
aI1140341359
aI395837927
aI38574970
aI27555264
aI42701544
aI1322467172
aL2597214601L
aI542936786
aI31541303
aL2338630706L
aL2552666815L
aL2656926034L
aL2488956398L
aI125014101
aI250394083
aI626435619
aI278954905
aI1925445428
aI1863667136
aI297855695
aI41041371
aasS'followers'
p4
(lp5
(lp6
I488829795
aL2430918083L
aI19978588
aI428015450
aI1104367171
aI263778376
aasS'obj'
p7
ccopy_reg
_reconstructor
p8
(ctweepy.models
User
p9
c__builtin__
object
p10
Ntp11
Rp12
(dp13
S'follow_request_sent'
p14
NsS'has_extended_profile'
p15
I00
sS'profile_use_background_image'
p16
I01
sS'profile_sidebar_fill_color'
p17
VDDEEF6
p18
sS'id'
p19
L2606990298L
sS'verified'
p20
I00
sS'entities'
p21
(dp22
Vdescription
p23
(dp24
Vurls
p25
(lp26
sssS'profile_image_url_https'
p27
Vhttps://pbs.twimg.com/profile_images/485684084383834112/NZnw07t0_normal.jpeg
p28
sS'_json'
p29
(dp30
Vfollow_request_sent
p31
NsVhas_extended_profile
p32
I00
sVprofile_use_background_image
p33
I01
sVdefault_profile_image
p34
I00
sVid
p35
L2606990298L
sVprofile_background_image_url_https
p36
Vhttps://abs.twimg.com/images/themes/theme1/bg.png
p37
sVverified
p38
I00
sVprofile_text_color
p39
V333333
p40
sVprofile_image_url_https
p41
g28
sVprofile_sidebar_fill_color
p42
g18
sVentities
p43
g22
sVfollowers_count
p44
I6
sVprofile_sidebar_border_color
p45
VC0DEED
p46
sVid_str
p47
V2606990298
p48
sVprofile_background_color
p49
VC0DEED
p50
sVlisted_count
p51
I0
sVstatus
p52
(dp53
Vcontributors
p54
NsVtruncated
p55
I00
sVtext
p56
VRT @IAmFluxxy: #FaZe3Mill
p57
sVin_reply_to_status_id
p58
Nsg35
L662376289710526464L
sVfavorite_count
p59
I0
sVsource
p60
V<a href="http://twitter.com" rel="nofollow">Twitter Web Client</a>
p61
sVretweeted
p62
I00
sVcoordinates
p63
Nsg43
(dp64
Vsymbols
p65
(lp66
sVuser_mentions
p67
(lp68
(dp69
g35
L2181028905L
sVindices
p70
(lp71
I3
aI13
asg47
V2181028905
p72
sVscreen_name
p73
VIAmFluxxy
p74
sVname
p75
VFluxxy
p76
sasVhashtags
p77
(lp78
(dp79
g70
(lp80
I15
aI25
asg56
VFaZe3Mill
p81
sasg25
(lp82
ssVin_reply_to_screen_name
p83
Nsg47
V662376289710526464
p84
sVretweet_count
p85
I29
sVin_reply_to_user_id
p86
NsVfavorited
p87
I00
sVretweeted_status
p88
(dp89
Vlang
p90
Vund
p91
sg87
I00
sg43
(dp92
g65
(lp93
sg67
(lp94
sg77
(lp95
(dp96
g70
(lp97
I0
aI10
asg56
VFaZe3Mill
p98
sasg25
(lp99
ssg54
Nsg55
I00
sg56
V#FaZe3Mill
p100
sVcreated_at
p101
VWed Nov 04 20:13:47 +0000 2015
p102
sg62
I00
sVin_reply_to_status_id_str
p103
Nsg63
NsVin_reply_to_user_id_str
p104
Nsg60
V<a href="http://twitter.com/download/iphone" rel="nofollow">Twitter for iPhone</a>
p105
sg58
Nsg83
Nsg47
V661999805984583681
p106
sVplace
p107
Nsg85
I29
sVgeo
p108
Nsg35
L661999805984583681L
sg59
I0
sg86
Nssg108
Nsg104
Nsg90
Vund
p109
sg101
VThu Nov 05 21:09:48 +0000 2015
p110
sg103
Nsg107
NssVis_translation_enabled
p111
I00
sVutc_offset
p112
NsVstatuses_count
p113
I1422
sg23
V
p114
sVfriends_count
p115
I391
sVlocation
p116
g114
sVprofile_link_color
p117
V0084B4
p118
sVprofile_image_url
p119
Vhttp://pbs.twimg.com/profile_images/485684084383834112/NZnw07t0_normal.jpeg
p120
sVfollowing
p121
NsVgeo_enabled
p122
I00
sVprofile_background_image_url
p123
Vhttp://abs.twimg.com/images/themes/theme1/bg.png
p124
sg73
Vraptanov_a7928
p125
sg90
Vru
p126
sVprofile_background_tile
p127
I00
sVfavourites_count
p128
I466
sg75
Valex raptanov
p129
sVnotifications
p130
NsVurl
p131
Nsg101
VSun Jul 06 07:17:57 +0000 2014
p132
sVcontributors_enabled
p133
I00
sVtime_zone
p134
NsVprotected
p135
I00
sVdefault_profile
p136
I01
sVis_translator
p137
I00
ssS'contributors_enabled'
p138
I00
sS'profile_text_color'
p139
g40
sS'followers_count'
p140
I6
sS'profile_sidebar_border_color'
p141
g46
sS'id_str'
p142
g48
sS'default_profile_image'
p143
I00
sS'listed_count'
p144
I0
sS'status'
p145
g8
(ctweepy.models
Status
p146
g10
Ntp147
Rp148
(dp149
S'favorited'
p150
I00
sS'contributors'
p151
NsS'truncated'
p152
I00
sS'text'
p153
g57
sS'source_url'
p154
Vhttp://twitter.com
p155
sS'in_reply_to_status_id'
p156
NsS'geo'
p157
Nsg19
L662376289710526464L
sS'favorite_count'
p158
I0
sS'lang'
p159
g109
sS'retweeted_status'
p160
g8
(g146
g10
Ntp161
Rp162
(dp163
g150
I00
sg151
Nsg152
I00
sg153
g100
sg154
Vhttp://twitter.com/download/iphone
p164
sg156
Nsg157
Nsg19
L661999805984583681L
sg158
I0
sg159
g91
sg21
g92
sS'created_at'
p165
cdatetime
datetime
p166
(S'\x07\xdf\x0b\x04\x14\r/\x00\x00\x00'
p167
tp168
Rp169
sg29
g89
sS'coordinates'
p170
NsS'in_reply_to_user_id_str'
p171
NsS'source'
p172
VTwitter for iPhone
p173
sS'in_reply_to_status_id_str'
p174
NsS'in_reply_to_screen_name'
p175
Nsg142
g106
sS'retweeted'
p176
I00
sS'place'
p177
NsS'retweet_count'
p178
I29
sS'in_reply_to_user_id'
p179
Nsbsg21
g64
sg165
g166
(S'\x07\xdf\x0b\x05\x15\t0\x00\x00\x00'
p180
tp181
Rp182
sg29
g53
sg170
Nsg171
Nsg172
VTwitter Web Client
p183
sg174
Nsg175
Nsg142
g84
sg176
I00
sg177
Nsg178
I29
sg179
NsbsS'is_translation_enabled'
p184
I00
sS'utc_offset'
p185
NsS'statuses_count'
p186
I1422
sS'description'
p187
g114
sS'friends_count'
p188
I391
sS'location'
p189
g114
sS'profile_link_color'
p190
g118
sS'profile_image_url'
p191
g120
sS'notifications'
p192
NsS'geo_enabled'
p193
I00
sS'profile_background_color'
p194
g50
sS'profile_background_image_url'
p195
g124
sS'screen_name'
p196
g125
sg159
g126
sg1
I00
sS'profile_background_tile'
p197
I00
sS'favourites_count'
p198
I466
sS'name'
p199
g129
sS'url'
p200
Nsg165
g166
(S'\x07\xde\x07\x06\x07\x119\x00\x00\x00'
p201
tp202
Rp203
sS'profile_background_image_url_https'
p204
g37
sS'time_zone'
p205
NsS'protected'
p206
I00
sS'default_profile'
p207
I01
sS'is_translator'
p208
I00
sbs.