(dp0
S'following'
p1
(lp2
(lp3
I337968909
aI498282197
aI377407811
aI142277840
aL2728937544L
aI154530823
aL2566531213L
aI254798578
aI62127693
aI1951994160
aL2286933728L
aI955982712
aL2709500696L
aL2572830134L
aI1543072628
aI271778688
aL2707537280L
aI1377824935
aI735232200
aI524007660
aI377018034
aI1584753169
aI31275580
aI349774840
aI1912251697
aI1904924503
aI1931331919
aI870242101
aI408100058
aI36415257
aL2688376598L
aL2675405208L
aI1924703762
aI956857736
aL2366296358L
aL2484880916L
aI707307750
aI1636317235
aI1469660306
aI20473329
aL2694780044L
aI1610593988
aI33109387
aI452252545
aI735143449
aL2651990378L
aL2664091399L
aL2566768518L
aL2662909293L
aL2649230643L
aL2691308660L
aL2375669186L
aL2560899660L
aL2511420397L
aI18942861
aI224750262
aL2694209948L
aI620534733
aI1152984595
aI221618799
aL2354928007L
aI520988333
aI422725073
aL2451913472L
aI19487886
aI1369360440
aI1011941574
aI154403438
aI89399572
aL2687894059L
aI1928251969
aI91367739
aL2722499285L
aI711829894
aI440272274
aL2686020266L
aI26713042
aI42430180
aI238507457
aI141900085
aL2544728480L
aI100218359
aI49339228
aI701014194
aL2647532828L
aL2278100954L
aL2572625041L
aI92422547
aL2182969026L
aI1166053044
aI109512819
aI1258243938
aL2495445295L
aI16657786
aI26952935
aL2615603630L
aL2661656306L
aL2681113946L
aL2675274463L
aL2557963830L
aI228679953
aL2670214285L
aI184950588
aL2184665196L
aL2570584575L
aL2552330280L
aI366485111
aI1330105022
aL2587380152L
aI37685126
aI392469861
aI175906908
aI1647077383
aL2659955006L
aL2333550722L
aL2333549094L
aL2333544624L
aL2333544812L
aL2365631125L
aI359793610
aI889883832
aI834508536
aI543874719
aI226828258
aL2385416024L
aL2384401609L
aI1316950460
aI111155564
aI188921765
aL2674771854L
aI1557326286
aI86352605
aL2612411707L
aI29964759
aI501652403
aI129623065
aI1147330586
aI27821302
aI815651436
aI613589375
aL2670968364L
aL2669974333L
aI156420167
aI97992593
aL2716350797L
aI367911474
aI1961122069
aI1413451568
aL2666881376L
aI1670967312
aL2653007712L
aL2596492621L
aI1070063569
aL2159398820L
aI27457454
aI9575262
aI329525509
aL2668090308L
aI119976960
aI1345722644
aI785159748
aI1465483465
aL2459839860L
aI120325806
aL2565636595L
aI796574509
aI1577706050
aI272387756
aL2516548284L
aI22228725
aL2187117308L
aI44248272
aL2584216555L
aI1197345576
aL2149960655L
aL2297998979L
aI1554308076
aL2593284692L
aI348426957
aL2308174274L
aL2719577487L
aL2358551828L
aL2447303569L
aI1140791539
aL2659475168L
aI164789629
aI366100907
aL2609127086L
aI1703376420
aI592441336
aI1634597353
aI568422337
aI169115069
aL2329227986L
aI263026031
aL2436404257L
aI23689744
aL2256003930L
aL2422806902L
aI1905401383
aI84051650
aI1322307116
aI198787330
aL2558463343L
aI362416241
aL2657978160L
aI172201288
aL2659162369L
aL2658682692L
aI359790148
aL2543331593L
aI451900254
aI169964031
aL2692691351L
aI114304418
aI265187370
aI225925468
aI15811749
aI725902476
aL2512121120L
aI318421688
aL2592118471L
aI14594290
aI842760488
aI44209472
aI461559163
aI160358537
aL2482893991L
aI738683473
aI928520490
aL2575097382L
aI15110312
aL2613948074L
aI20698672
aI111583872
aL2646296754L
aL2640436159L
aI616073443
aI1670726738
aI956226097
aL2652322208L
aI1649401
aI24466879
aL2631500255L
aL2421236229L
aI50409671
aL2344244443L
aI24383226
aL2437414320L
aI26967581
aI166266455
aL2512353144L
aI35039961
aI1898247722
aI1683045271
aL2696289885L
aI61721620
aI862535828
aL2548180424L
aL2341162841L
aI66935500
aL2589919345L
aI250737990
aI585793386
aL2483825419L
aI1029400598
aI21318183
aI575919094
aL2674074123L
aL2649597140L
aL2371102609L
aL2565561578L
aI819701023
aI132693384
aI855510108
aI135917307
aL2595429379L
aI72764133
aL2600706613L
aI598986922
aI207048594
aI17433591
aI14608840
aI632894984
aI261294221
aL2332350522L
aI271531588
aI127195708
aI276234557
aI56302626
aI139966117
aL2593632253L
aI1911303422
aI1635943718
aI919864417
aI26049841
aI85739643
aL2323040006L
aL2328090591L
aL2250146256L
aL2339137461L
aI34737026
aI580000694
aI97340532
aL2308093136L
aI537090710
aL2535939986L
aI53366264
aI175721864
aI481284459
aI1917684800
aI1950725887
aI909287167
aL2535102894L
aL2187233760L
aI1663541358
aI532643012
aL2409595592L
aI1004495286
aL2592134713L
aL2311856905L
aI1475967510
aL2602465345L
aI43056691
aL2162177626L
aI382350080
aI288160474
aI481596421
aI1078030825
aI410818942
aL2217624931L
aI382890597
aI378732813
aL2597913606L
aI1582674716
aI325930319
aL2283452474L
aL2291199746L
aL2571202459L
aI56340831
aI94113019
aI843021139
aI116655954
aI132662280
aI256152123
aL2370558374L
aI497300307
aL2295334754L
aL2591340896L
aL2608133450L
aI538356846
aI439685665
aI72342284
aI358418711
aI400664702
aI479723245
aI1472816916
aL2606247775L
aL2608590540L
aI162540978
aL2195164722L
aI1517894166
aI408555400
aI287531586
aI1343041062
aI394209375
aI1183887576
aI223234065
aL2377540196L
aL2264136505L
aI42640655
aL2610180228L
aL2593891230L
aI52835309
aI1422126799
aL2608051195L
aL2606833010L
aI1513408896
aI1852128427
aI425185949
aI204633530
aI15369494
aI478347210
aI394176496
aI606468976
aL2506340571L
aI1140341359
aI38574970
aI27555264
aI42701544
aI1322467172
aL2597214601L
aI542936786
aI31541303
aL2338630706L
aL2552666815L
aL2656926034L
aI557855355
aI1039290348
aL2272394823L
aI485173961
aI1925445428
aI146584479
aI1863667136
aI297855695
aasS'followers'
p4
(lp5
(lp6
L2846159121L
aL3595815795L
aI174953869
aL3312667008L
aI298162238
aI369077292
aL3195064345L
aL3044872036L
aI1350517094
aL3332557235L
aL2548180424L
aasS'obj'
p7
ccopy_reg
_reconstructor
p8
(ctweepy.models
User
p9
c__builtin__
object
p10
Ntp11
Rp12
(dp13
S'follow_request_sent'
p14
NsS'has_extended_profile'
p15
I00
sS'profile_use_background_image'
p16
I01
sS'profile_sidebar_fill_color'
p17
VDDEEF6
p18
sS'id'
p19
L2606004242L
sS'verified'
p20
I00
sS'entities'
p21
(dp22
Vdescription
p23
(dp24
Vurls
p25
(lp26
sssS'profile_image_url_https'
p27
Vhttps://pbs.twimg.com/profile_images/485507727741820928/QkoMjxcY_normal.jpeg
p28
sS'_json'
p29
(dp30
Vfollow_request_sent
p31
NsVhas_extended_profile
p32
I00
sVprofile_use_background_image
p33
I01
sVdefault_profile_image
p34
I00
sVid
p35
L2606004242L
sVprofile_background_image_url_https
p36
Vhttps://abs.twimg.com/images/themes/theme1/bg.png
p37
sVverified
p38
I00
sVprofile_text_color
p39
V333333
p40
sVprofile_image_url_https
p41
g28
sVprofile_sidebar_fill_color
p42
g18
sVentities
p43
g22
sVfollowers_count
p44
I11
sVprofile_sidebar_border_color
p45
VC0DEED
p46
sVid_str
p47
V2606004242
p48
sVprofile_background_color
p49
VC0DEED
p50
sVlisted_count
p51
I3
sVstatus
p52
(dp53
Vcontributors
p54
NsVtruncated
p55
I00
sVtext
p56
VRT @Tdot_UCme: Ppl won't believe in your movement until it's moving..
p57
sVin_reply_to_status_id
p58
Nsg35
L661899120643317762L
sVfavorite_count
p59
I0
sVsource
p60
V<a href="http://twitter.com" rel="nofollow">Twitter Web Client</a>
p61
sVretweeted
p62
I00
sVcoordinates
p63
Nsg43
(dp64
Vsymbols
p65
(lp66
sVuser_mentions
p67
(lp68
(dp69
g35
L3712869557L
sVindices
p70
(lp71
I3
aI13
asg47
V3712869557
p72
sVscreen_name
p73
VTdot_UCme
p74
sVname
p75
VTdot useeme
p76
sasVhashtags
p77
(lp78
sg25
(lp79
ssVin_reply_to_screen_name
p80
Nsg47
V661899120643317762
p81
sVretweet_count
p82
I103
sVin_reply_to_user_id
p83
NsVfavorited
p84
I00
sVretweeted_status
p85
(dp86
Vlang
p87
Ven
p88
sg84
I00
sg43
(dp89
g65
(lp90
sg67
(lp91
sg77
(lp92
sg25
(lp93
ssg54
Nsg55
I00
sg56
VPpl won't believe in your movement until it's moving..
p94
sVcreated_at
p95
VWed Nov 04 12:38:21 +0000 2015
p96
sg62
I00
sVin_reply_to_status_id_str
p97
Nsg63
NsVin_reply_to_user_id_str
p98
Nsg60
V<a href="http://twitter.com/download/iphone" rel="nofollow">Twitter for iPhone</a>
p99
sg58
Nsg80
Nsg47
V661885189270970368
p100
sVplace
p101
Nsg82
I103
sVgeo
p102
Nsg35
L661885189270970368L
sg59
I1
sg83
Nssg102
Nsg98
Nsg87
Ven
p103
sg95
VWed Nov 04 13:33:42 +0000 2015
p104
sg97
Nsg101
NssVis_translation_enabled
p105
I00
sVutc_offset
p106
NsVstatuses_count
p107
I2255
sg23
V
p108
sVfriends_count
p109
I405
sVlocation
p110
g108
sVprofile_link_color
p111
V0084B4
p112
sVprofile_image_url
p113
Vhttp://pbs.twimg.com/profile_images/485507727741820928/QkoMjxcY_normal.jpeg
p114
sVfollowing
p115
NsVgeo_enabled
p116
I00
sVprofile_background_image_url
p117
Vhttp://abs.twimg.com/images/themes/theme1/bg.png
p118
sg73
Vzhelejcev_s537
p119
sg87
Vru
p120
sVprofile_background_tile
p121
I00
sVfavourites_count
p122
I900
sg75
Vsofia zhelejcev
p123
sVnotifications
p124
NsVurl
p125
Nsg95
VSat Jul 05 19:37:08 +0000 2014
p126
sVcontributors_enabled
p127
I00
sVtime_zone
p128
NsVprotected
p129
I00
sVdefault_profile
p130
I01
sVis_translator
p131
I00
ssS'contributors_enabled'
p132
I00
sS'profile_text_color'
p133
g40
sS'followers_count'
p134
I11
sS'profile_sidebar_border_color'
p135
g46
sS'id_str'
p136
g48
sS'default_profile_image'
p137
I00
sS'listed_count'
p138
I3
sS'status'
p139
g8
(ctweepy.models
Status
p140
g10
Ntp141
Rp142
(dp143
S'favorited'
p144
I00
sS'contributors'
p145
NsS'truncated'
p146
I00
sS'text'
p147
g57
sS'source_url'
p148
Vhttp://twitter.com
p149
sS'in_reply_to_status_id'
p150
NsS'geo'
p151
Nsg19
L661899120643317762L
sS'favorite_count'
p152
I0
sS'lang'
p153
g103
sS'retweeted_status'
p154
g8
(g140
g10
Ntp155
Rp156
(dp157
g144
I00
sg145
Nsg146
I00
sg147
g94
sg148
Vhttp://twitter.com/download/iphone
p158
sg150
Nsg151
Nsg19
L661885189270970368L
sg152
I1
sg153
g88
sg21
g89
sS'created_at'
p159
cdatetime
datetime
p160
(S'\x07\xdf\x0b\x04\x0c&\x15\x00\x00\x00'
p161
tp162
Rp163
sg29
g86
sS'coordinates'
p164
NsS'in_reply_to_user_id_str'
p165
NsS'source'
p166
VTwitter for iPhone
p167
sS'in_reply_to_status_id_str'
p168
NsS'in_reply_to_screen_name'
p169
Nsg136
g100
sS'retweeted'
p170
I00
sS'place'
p171
NsS'retweet_count'
p172
I103
sS'in_reply_to_user_id'
p173
Nsbsg21
g64
sg159
g160
(S'\x07\xdf\x0b\x04\r!*\x00\x00\x00'
p174
tp175
Rp176
sg29
g53
sg164
Nsg165
Nsg166
VTwitter Web Client
p177
sg168
Nsg169
Nsg136
g81
sg170
I00
sg171
Nsg172
I103
sg173
NsbsS'is_translation_enabled'
p178
I00
sS'utc_offset'
p179
NsS'statuses_count'
p180
I2255
sS'description'
p181
g108
sS'friends_count'
p182
I405
sS'location'
p183
g108
sS'profile_link_color'
p184
g112
sS'profile_image_url'
p185
g114
sS'notifications'
p186
NsS'geo_enabled'
p187
I00
sS'profile_background_color'
p188
g50
sS'profile_background_image_url'
p189
g118
sS'screen_name'
p190
g119
sg153
g120
sg1
I00
sS'profile_background_tile'
p191
I00
sS'favourites_count'
p192
I900
sS'name'
p193
g123
sS'url'
p194
Nsg159
g160
(S'\x07\xde\x07\x05\x13%\x08\x00\x00\x00'
p195
tp196
Rp197
sS'profile_background_image_url_https'
p198
g37
sS'time_zone'
p199
NsS'protected'
p200
I00
sS'default_profile'
p201
I01
sS'is_translator'
p202
I00
sbs.