(dp0
S'following'
p1
(lp2
(lp3
I418502214
aI1603422240
aL2839645769L
aL2868535988L
aI40297518
aI334654285
aL2153644982L
aI18512778
aI1636356710
aI1336971781
aI30138988
aL2505639177L
aL2579909899L
aL2837259532L
aI110544171
aI621251135
aI15817301
aI155603048
aL2783813343L
aI334819061
aI207490644
aL2562195138L
aL2828144092L
aL2574974089L
aI270418207
aI909831164
aL2848827662L
aL2835879438L
aI192919452
aL2661636438L
aI80354338
aI65629717
aI1915944276
aI392590243
aL2819972502L
aL2853477314L
aI347804908
aL2249098934L
aL2328834075L
aI372545341
aL2785491152L
aI387829389
aI245627071
aI19998622
aI82219035
aI1661255892
aL2578560158L
aI1574274019
aL2821416581L
aI485881472
aI133310558
aI343485402
aI1007862204
aL2713004593L
aL2825957577L
aL2830879294L
aL2831232226L
aI191429899
aI1852428158
aL2827839154L
aI137066643
aI60591419
aL2408796536L
aI136089483
aI392942637
aI210595874
aI288186280
aI280058256
aI166946877
aI297483687
aL2751788819L
aL2290261165L
aL2622278840L
aI1410748986
aI377588282
aL2828004067L
aI174651148
aL2637967242L
aI427798770
aL2450338628L
aI1299864133
aL2807621968L
aL2825880506L
aL2800942527L
aI1473715795
aI330751009
aL2360164606L
aI152682603
aL2844494336L
aL2376970230L
aI211151198
aI561642422
aI1330366183
aL2548048646L
aL2391549547L
aI377407811
aL2584585388L
aL2728937544L
aL2682670706L
aI1575973986
aI62127693
aL2525788938L
aL2725313403L
aI1951994160
aL2599797398L
aL2286933728L
aL2451913472L
aI1369360440
aI18257487
aL2229976656L
aL2572830134L
aL2707537280L
aI3219081
aI16831982
aI395311801
aI803890166
aL2707831716L
aL2592391704L
aL2225236208L
aI377018034
aI1584753169
aL2699123269L
aI31275580
aL2316250497L
aI1355357792
aI870242101
aI408100058
aI36415257
aI540750580
aL2706611600L
aI27355541
aI76136090
aL2366296358L
aL2704731914L
aI284805016
aL2373446051L
aI1636317235
aI1639325216
aL2731397727L
aI578326143
aI37017261
aI23022161
aI404432267
aL2483307072L
aI60294855
aI1411688574
aL2693449776L
aI882789932
aL2697713029L
aI735280746
aI735143449
aI595226718
aI860113350
aL2560899660L
aI1623755184
aL2294371048L
aI35631008
aI620534733
aI1152984595
aL2248254567L
aI244800486
aL2354928007L
aI520988333
aL2472759031L
aI19487886
aL2471584406L
aI1258899708
aI1964054569
aI627578922
aI91411273
aI89399572
aI1318964966
aI1869402187
aL2686020266L
aL2679122258L
aL2614059535L
aI26713042
aI42430180
aI53231972
aL2658854173L
aI238507457
aI1621628432
aI141900085
aL2544728480L
aI100218359
aI87299677
aL2610896418L
aI473055733
aL2572625041L
aL2576953388L
aI92422547
aI1273532971
aL2685390260L
aI1258243938
aL2495445295L
aI162540978
aI16657786
aI262038322
aI14616406
aI360544017
aL2681960792L
aI83254283
aI228679953
aL2587462604L
aL2666881376L
aL2184665196L
aI1521045409
aL2552330280L
aI47289494
aI392469861
aI175906908
aL2333548386L
aL2333544624L
aL2333545658L
aI23318841
aI39957724
aI86689374
aL2182969026L
aL2322935827L
aL2675352564L
aI226828258
aL2370869767L
aI1316950460
aI130748033
aI588364934
aI54317567
aI318647235
aI28912741
aL2311550865L
aL2652217490L
aI29964759
aI1147330586
aI922371654
aL2609646414L
aL2469268208L
aL2721171040L
aL2673040532L
aI13978432
aL2557963830L
aI159022331
aI1503504582
aI154530823
aL2669974333L
aL2653041642L
aI122163526
aI1961122069
aI65603461
aI1176757958
aI74724876
aI1321651513
aL2717218337L
aI1670967312
aI113120306
aI1709689099
aL2258078502L
aL2668663442L
aI1097041136
aI27457454
aL2637099828L
aI81594412
aL2668090308L
aL2639073198L
aI1345722644
aI785159748
aI1465483465
aL2294328471L
aI135325668
aI425928244
aI1197345576
aL2595597943L
aI272387756
aL2187117308L
aI9575262
aI226256948
aL2659475168L
aI112399711
aI564873087
aL2666594900L
aL2665733365L
aL2297998979L
aI1554308076
aI188125145
aL2587469552L
aL2370591043L
aI1419965035
aI1288720016
aI1732251638
aL2544416988L
aI1870053469
aI1140791539
aI144219653
aL2613431344L
aI634455657
aI1729333640
aI367543452
aI190489021
aI1634597353
aI169115069
aL2329227986L
aI263026031
aI89735243
aL2610493975L
aI137811984
aL2256003930L
aI42012778
aL2422806902L
aI864000018
aI198787330
aI457745066
aI63527402
aI40200769
aI125139922
aI1283753942
aL2558463343L
aI172201288
aL2659162369L
aI366100907
aI110138948
aI451900254
aI169964031
aI44429717
aL2247424668L
aI463581555
aI138187896
aL2346817105L
aI72529026
aI20468996
aI582125351
aL2382046645L
aI160358537
aL2595429379L
aI51343217
aI849328400
aL2482893991L
aI928520490
aI441487115
aI108341183
aI480969711
aI253769656
aI1679504244
aI15110312
aI57063269
aI1129532324
aI103605904
aI111583872
aI1729096530
aI36020107
aI107557629
aI187901528
aI268999749
aI925713366
aI391524032
aI1490300052
aI261470706
aL2651009024L
aI84551845
aL2555242525L
aI19645866
aI1565453804
aI41344511
aL2608174434L
aI15869814
aL2287778433L
aL2395168817L
aL2646247082L
aL2700919109L
aL2621528039L
aI24383226
aL2646540637L
aL2437414320L
aI1494251275
aI490995408
aI557855355
aL2579145127L
aI35039961
aL2696289885L
aI1625176387
aI369726705
aI1109173051
aI792434720
aI862535828
aL2416007262L
aI66935500
aL2651126569L
aL2650987188L
aI377640541
aL2650820024L
aI553917289
aI585793386
aL2483825419L
aI21318183
aL2611604774L
aI1112490181
aL2371102609L
aI819701023
aI338530814
aI746607332
aI1611357583
aL2600706613L
aI1146331
aI436074648
aI149878184
aI260182449
aI368477419
aI480216435
aL2545742982L
aI370886516
aL2332350522L
aI271531588
aI127195708
aI796574509
aI276234557
aL2473328880L
aI426055516
aL2235158028L
aI1635943718
aI919864417
aI71771202
aI18942861
aI205558787
aI90075800
aL2323040006L
aL2331781479L
aL2250146256L
aI1059672860
aI17861991
aI144790862
aL2578703834L
aL2422633490L
aI175721864
aL2430793495L
aI909287167
aL2187233760L
aI1663541358
aI218014978
aI42640655
aI532643012
aI134334536
aL2592134713L
aI960338964
aI1353479845
aI43056691
aI1239875148
aI1078030825
aL2266910358L
aI19658693
aI199776410
aL2597913606L
aI1582674716
aI135053252
aI325930319
aI103150136
aI56340831
aI116655954
aI425185949
aI497300307
aL2614985654L
aL2209497127L
aL2519202007L
aL2295334754L
aL2591340896L
aL2608133450L
aI1086973130
aI106142159
aI310018162
aI201685352
aI46575464
aI567549527
aL2571554986L
aI72342284
aI400664702
aI72251250
aL2693106617L
aI1412344868
aI14998125
aI421897827
aL2613785131L
aI831933140
aL2608590540L
aL2195164722L
aL2164252321L
aI287531586
aL2572553432L
aI1343041062
aI394209375
aI1593350862
aL2187747047L
aI1183887576
aL2583856861L
aL2599581392L
aL2393478553L
aI284124543
aI1322307116
aI22929346
aL2610180228L
aI329811287
aI267277891
aL2319271094L
aI52835309
aI1422126799
aI159642250
aI1195448107
aL2536845756L
aI385033487
aI204633530
aI15369494
aI27786357
aI606468976
aI1140341359
aI38574970
aI27555264
aI42701544
aI1322467172
aL2597214601L
aI542936786
aL2338630706L
aL2552666815L
aI84726219
aI587789939
aL2656926034L
aI1039290348
aI250394083
aI626435619
aI31541303
aI485173961
aI1925445428
aI146584479
aI297855695
aI41041371
aasS'followers'
p4
(lp5
(lp6
I22311903
aL3038756464L
aI19978588
aI91183313
aL3443849774L
aL2961431373L
aL2483307072L
aL2711514036L
aI22929346
aasS'obj'
p7
ccopy_reg
_reconstructor
p8
(ctweepy.models
User
p9
c__builtin__
object
p10
Ntp11
Rp12
(dp13
S'follow_request_sent'
p14
NsS'has_extended_profile'
p15
I00
sS'profile_use_background_image'
p16
I01
sS'profile_sidebar_fill_color'
p17
VDDEEF6
p18
sS'id'
p19
L2607015290L
sS'verified'
p20
I00
sS'entities'
p21
(dp22
Vdescription
p23
(dp24
Vurls
p25
(lp26
sssS'profile_image_url_https'
p27
Vhttps://pbs.twimg.com/profile_images/485684660676984833/jwVwZx_6_normal.jpeg
p28
sS'_json'
p29
(dp30
Vfollow_request_sent
p31
NsVhas_extended_profile
p32
I00
sVprofile_use_background_image
p33
I01
sVdefault_profile_image
p34
I00
sVid
p35
L2607015290L
sVprofile_background_image_url_https
p36
Vhttps://abs.twimg.com/images/themes/theme1/bg.png
p37
sVverified
p38
I00
sVprofile_text_color
p39
V333333
p40
sVprofile_image_url_https
p41
g28
sVprofile_sidebar_fill_color
p42
g18
sVentities
p43
g22
sVfollowers_count
p44
I9
sVprofile_sidebar_border_color
p45
VC0DEED
p46
sVid_str
p47
V2607015290
p48
sVprofile_background_color
p49
VC0DEED
p50
sVlisted_count
p51
I5
sVstatus
p52
(dp53
Vcontributors
p54
NsVtruncated
p55
I00
sVtext
p56
VRT @LexityWavez: @Red_Cree please tell me this was you http://t.co/JjpupwpDcY
p57
sVin_reply_to_status_id
p58
Nsg35
L661903676169134080L
sVfavorite_count
p59
I0
sVsource
p60
V<a href="http://twitter.com" rel="nofollow">Twitter Web Client</a>
p61
sVretweeted
p62
I00
sVcoordinates
p63
Nsg43
(dp64
Vsymbols
p65
(lp66
sVuser_mentions
p67
(lp68
(dp69
g35
L3371247779L
sVindices
p70
(lp71
I3
aI15
asg47
V3371247779
p72
sVscreen_name
p73
VLexityWavez
p74
sVname
p75
VLexity_Wavez
p76
sa(dp77
g35
I1568782699
sg70
(lp78
I17
aI26
asg47
V1568782699
p79
sg73
VRed_Cree
p80
sg75
VRed Cree - PS4
p81
sasVhashtags
p82
(lp83
sg25
(lp84
sVmedia
p85
(lp86
(dp87
Vsource_user_id
p88
L3371247779L
sVsource_status_id_str
p89
V655760066965032961
p90
sVexpanded_url
p91
Vhttp://twitter.com/LexityWavez/status/655760066965032961/photo/1
p92
sVdisplay_url
p93
Vpic.twitter.com/JjpupwpDcY
p94
sVurl
p95
Vhttp://t.co/JjpupwpDcY
p96
sVmedia_url_https
p97
Vhttps://pbs.twimg.com/media/CRm6S2MUcAMQrx-.jpg
p98
sVsource_user_id_str
p99
V3371247779
p100
sVsource_status_id
p101
L655760066965032961L
sg47
V655760053706715139
p102
sVsizes
p103
(dp104
Vsmall
p105
(dp106
Vh
p107
I255
sVresize
p108
Vfit
p109
sVw
p110
I340
ssVlarge
p111
(dp112
g107
I768
sg108
Vfit
p113
sg110
I1024
ssVmedium
p114
(dp115
g107
I450
sg108
Vfit
p116
sg110
I600
ssVthumb
p117
(dp118
g107
I150
sg108
Vcrop
p119
sg110
I150
sssg70
(lp120
I55
aI77
asVtype
p121
Vphoto
p122
sg35
L655760053706715139L
sVmedia_url
p123
Vhttp://pbs.twimg.com/media/CRm6S2MUcAMQrx-.jpg
p124
sassVin_reply_to_screen_name
p125
Nsg47
V661903676169134080
p126
sVretweet_count
p127
I111
sVin_reply_to_user_id
p128
NsVfavorited
p129
I00
sVretweeted_status
p130
(dp131
g54
Nsg55
I00
sg56
V@Red_Cree please tell me this was you http://t.co/JjpupwpDcY
p132
sg58
Nsg35
L655760066965032961L
sg59
I170
sg60
V<a href="http://twitter.com/download/iphone" rel="nofollow">Twitter for iPhone</a>
p133
sg62
I00
sg63
Nsg43
(dp134
g65
(lp135
sg67
(lp136
(dp137
g35
I1568782699
sg70
(lp138
I0
aI9
asg47
V1568782699
p139
sg73
VRed_Cree
p140
sg75
VRed Cree - PS4
p141
sasg82
(lp142
sg25
(lp143
sg85
(lp144
(dp145
g91
Vhttp://twitter.com/LexityWavez/status/655760066965032961/photo/1
p146
sg93
Vpic.twitter.com/JjpupwpDcY
p147
sg95
Vhttp://t.co/JjpupwpDcY
p148
sg97
Vhttps://pbs.twimg.com/media/CRm6S2MUcAMQrx-.jpg
p149
sg47
V655760053706715139
p150
sg103
(dp151
g105
(dp152
g107
I255
sg108
Vfit
p153
sg110
I340
ssg111
(dp154
g107
I768
sg108
Vfit
p155
sg110
I1024
ssg114
(dp156
g107
I450
sg108
Vfit
p157
sg110
I600
ssg117
(dp158
g107
I150
sg108
Vcrop
p159
sg110
I150
sssg70
(lp160
I38
aI60
asg121
Vphoto
p161
sg35
L655760053706715139L
sg123
Vhttp://pbs.twimg.com/media/CRm6S2MUcAMQrx-.jpg
p162
sassg125
VRed_Cree
p163
sg47
V655760066965032961
p164
sg127
I111
sg128
I1568782699
sg129
I00
sVgeo
p165
NsVin_reply_to_user_id_str
p166
V1568782699
p167
sVpossibly_sensitive
p168
I00
sVlang
p169
Ven
p170
sVcreated_at
p171
VSun Oct 18 14:59:18 +0000 2015
p172
sVin_reply_to_status_id_str
p173
NsVplace
p174
Nssg165
Nsg166
Nsg168
I00
sg169
Ven
p175
sg171
VWed Nov 04 13:51:48 +0000 2015
p176
sg173
Nsg174
NssVis_translation_enabled
p177
I00
sVutc_offset
p178
NsVstatuses_count
p179
I1757
sg23
V
p180
sVfriends_count
p181
I529
sVlocation
p182
g180
sVprofile_link_color
p183
V0084B4
p184
sVprofile_image_url
p185
Vhttp://pbs.twimg.com/profile_images/485684660676984833/jwVwZx_6_normal.jpeg
p186
sVfollowing
p187
NsVgeo_enabled
p188
I00
sVprofile_background_image_url
p189
Vhttp://abs.twimg.com/images/themes/theme1/bg.png
p190
sg73
Vhamovnikov_s44
p191
sg169
Vru
p192
sVprofile_background_tile
p193
I00
sVfavourites_count
p194
I610
sg75
Vsebastian hamovnikov
p195
sVnotifications
p196
Nsg95
Nsg171
VSun Jul 06 07:20:09 +0000 2014
p197
sVcontributors_enabled
p198
I00
sVtime_zone
p199
NsVprotected
p200
I00
sVdefault_profile
p201
I01
sVis_translator
p202
I00
ssS'contributors_enabled'
p203
I00
sS'profile_text_color'
p204
g40
sS'followers_count'
p205
I9
sS'profile_sidebar_border_color'
p206
g46
sS'id_str'
p207
g48
sS'default_profile_image'
p208
I00
sS'listed_count'
p209
I5
sS'status'
p210
g8
(ctweepy.models
Status
p211
g10
Ntp212
Rp213
(dp214
S'favorited'
p215
I00
sS'contributors'
p216
NsS'truncated'
p217
I00
sS'text'
p218
g57
sS'source_url'
p219
Vhttp://twitter.com
p220
sS'possibly_sensitive'
p221
I00
sS'in_reply_to_status_id'
p222
NsS'geo'
p223
Nsg19
L661903676169134080L
sS'favorite_count'
p224
I0
sS'lang'
p225
g175
sS'retweeted_status'
p226
g8
(g211
g10
Ntp227
Rp228
(dp229
g215
I00
sg216
Nsg217
I00
sg218
g132
sg219
Vhttp://twitter.com/download/iphone
p230
sg221
I00
sg222
Nsg223
Nsg19
L655760066965032961L
sg224
I170
sg225
g170
sg21
g134
sS'created_at'
p231
cdatetime
datetime
p232
(S'\x07\xdf\n\x12\x0e;\x12\x00\x00\x00'
p233
tp234
Rp235
sg29
g131
sS'coordinates'
p236
NsS'in_reply_to_user_id_str'
p237
g167
sS'source'
p238
VTwitter for iPhone
p239
sS'in_reply_to_status_id_str'
p240
NsS'in_reply_to_screen_name'
p241
g163
sg207
g164
sS'retweeted'
p242
I00
sS'place'
p243
NsS'retweet_count'
p244
I111
sS'in_reply_to_user_id'
p245
I1568782699
sbsg21
g64
sg231
g232
(S'\x07\xdf\x0b\x04\r30\x00\x00\x00'
p246
tp247
Rp248
sg29
g53
sg236
Nsg237
Nsg238
VTwitter Web Client
p249
sg240
Nsg241
Nsg207
g126
sg242
I00
sg243
Nsg244
I111
sg245
NsbsS'is_translation_enabled'
p250
I00
sS'utc_offset'
p251
NsS'statuses_count'
p252
I1757
sS'description'
p253
g180
sS'friends_count'
p254
I529
sS'location'
p255
g180
sS'profile_link_color'
p256
g184
sS'profile_image_url'
p257
g186
sS'notifications'
p258
NsS'geo_enabled'
p259
I00
sS'profile_background_color'
p260
g50
sS'profile_background_image_url'
p261
g190
sS'screen_name'
p262
g191
sg225
g192
sg1
I00
sS'profile_background_tile'
p263
I00
sS'favourites_count'
p264
I610
sS'name'
p265
g195
sS'url'
p266
Nsg231
g232
(S'\x07\xde\x07\x06\x07\x14\t\x00\x00\x00'
p267
tp268
Rp269
sS'profile_background_image_url_https'
p270
g37
sS'time_zone'
p271
NsS'protected'
p272
I00
sS'default_profile'
p273
I01
sS'is_translator'
p274
I00
sbs.