(dp0
S'following'
p1
(lp2
(lp3
L3315831155L
aL3899925915L
aI1676652944
aI26335241
aL4054643129L
aI70801452
aI42694642
aL4031679982L
aI253483316
aI583188753
aI1434222403
aI246206221
aL3988900785L
aL3059458588L
aL2362762537L
aI20928323
aI733217383
aL2262494057L
aL2795704888L
aI393601550
aL3123374926L
aI18021517
aL2815756866L
aI993056893
aI109064129
aI442650179
aI214153705
aI31253990
aI28943421
aI39619445
aL2951610388L
aI387247563
aI27614553
aL2515968704L
aI106444052
aI357492014
aI17613024
aL2741103136L
aI1182400009
aI103021562
aI28347963
aI126384736
aI43386507
aI24926740
aI29520332
aI248940090
aI18090786
aL3035804476L
aI87254077
aI1408509804
aI1469861180
aL3377152097L
aI41343930
aI860184308
aI430908830
aI143428730
aI1289069959
aI21661742
aI19583545
aL2450733893L
aI414767091
aI769398037
aL2435194891L
aL2703329278L
aL2374045507L
aI26476395
aI1205718840
aL2248771189L
aL3251648294L
aI18834912
aL3004214811L
aL2668753783L
aI18294197
aI74550079
aI748848103
aI400002857
aL2416916859L
aI22007731
aI337113398
aI118000554
aI361150095
aI447121494
aI239486127
aL3304442253L
aI34941915
aI14550448
aI255557335
aI96994334
aI36455168
aI160494890
aL2183065733L
aI1711239283
aI8161232
aI28215001
aL2877800385L
aL2320677344L
aI35855320
aI49736166
aI18060630
aL3176639849L
aI62033682
aI1381503060
aI228845995
aL2810985970L
aI211631057
aL2749302590L
aI70697124
aI79997785
aI18604355
aI146513211
aI295108382
aL2769531398L
aI223967414
aI632111815
aI52537669
aI21295652
aI580269594
aI22686454
aI91998974
aI129843570
aI15180315
aI301886019
aI140067152
aL2727072109L
aI196536375
aL3131711752L
aL2842821261L
aL2594956166L
aI453027230
aL2152654212L
aI555906652
aL2916524661L
aL2283807219L
aI593370001
aI978908012
aL2904338447L
aI102955736
aI427710747
aL2154387568L
aI148897099
aL2914016644L
aI317147446
aI776663796
aI1656069558
aI13649002
aI513067737
aL2864128707L
aL2870761420L
aI843790794
aI52354784
aL2384944496L
aL2427458012L
aL2555352817L
aI67646464
aI1001726569
aL2731811105L
aI567992977
aI915890360
aI83807755
aL2227058774L
aI196100793
aI580650468
aI879737982
aL2466897899L
aI716154254
aI20617167
aI873399943
aI1621451504
aL2394619537L
aL2285401634L
aL2291426329L
aI249813029
aI34249173
aL2653849631L
aL2728939522L
aI20804919
aI21579390
aI179149341
aI815966270
aL2152543052L
aI213065379
aI143764570
aI1428713738
aI897695490
aL2513624568L
aI471835353
aI1921328268
aI404122710
aI116193645
aL2321922501L
aL2208962950L
aI1856959248
aL2607426678L
aasS'followers'
p4
(lp5
(lp6
L4017599399L
aI1676652944
aI69232173
aL4111386137L
aI102955736
aI392258583
aL2534977796L
aI15693323
aL3248049676L
aI130803962
aL3899925915L
aL2328854937L
aL3123374926L
aI488601683
aL3035804476L
aI21998909
aL3434105368L
aI20039643
aL2741103136L
aI1943618677
aL2901547486L
aL2950875889L
aL2344919240L
aI879737982
aI404051361
aL3377152097L
aI222093692
aI74550079
aL2416916859L
aL2703329278L
aL2182438333L
aI191610647
aL2374045507L
aI1205718840
aI211631057
aI748848103
aI223967414
aI3141101
aL3312065387L
aL3304958859L
aI62271139
aI1963154750
aI337113398
aI118000554
aL2183065733L
aL2684257742L
aL3304442253L
aI1000501502
aL3244234815L
aI1921328268
aL2749302590L
aI1119746701
aL2769531398L
aI1270410014
aI295108382
aI140067152
aI301886019
aL3131711752L
aI36511622
aL2310446033L
aL2456545262L
aL2647318254L
aI582577888
aL2154313448L
aI196536375
aL2741916735L
aI249752986
aL2830139552L
aL2891796003L
aI965033460
aI1248499969
aL2831886950L
aL2794690227L
aI1673771592
aI437527105
aL2630770672L
aL2653849631L
aL2154387568L
aL2750739587L
aL2749472913L
aI397475594
aI1884309295
aI20804919
aasS'obj'
p7
ccopy_reg
_reconstructor
p8
(ctweepy.models
User
p9
c__builtin__
object
p10
Ntp11
Rp12
(dp13
S'follow_request_sent'
p14
I00
sS'has_extended_profile'
p15
I00
sS'profile_use_background_image'
p16
I01
sS'profile_sidebar_fill_color'
p17
VDDEEF6
p18
sS'id'
p19
L2609659686L
sS'verified'
p20
I00
sS'entities'
p21
(dp22
Vdescription
p23
(dp24
Vurls
p25
(lp26
sssS'profile_image_url_https'
p27
Vhttps://pbs.twimg.com/profile_images/605389195172036608/hkpcPV_I_normal.jpg
p28
sS'_json'
p29
(dp30
Vfollow_request_sent
p31
I00
sVhas_extended_profile
p32
I00
sVprofile_use_background_image
p33
I01
sVdefault_profile_image
p34
I00
sVid
p35
L2609659686L
sVprofile_background_image_url_https
p36
Vhttps://abs.twimg.com/images/themes/theme1/bg.png
p37
sVverified
p38
I00
sVprofile_text_color
p39
V333333
p40
sVprofile_image_url_https
p41
g28
sVprofile_sidebar_fill_color
p42
g18
sVentities
p43
g22
sVfollowers_count
p44
I83
sVprofile_sidebar_border_color
p45
VC0DEED
p46
sVid_str
p47
V2609659686
p48
sVprofile_background_color
p49
VC0DEED
p50
sVlisted_count
p51
I5
sVstatus
p52
(dp53
Vlang
p54
Ven
p55
sVfavorited
p56
I00
sg43
(dp57
Vsymbols
p58
(lp59
sVuser_mentions
p60
(lp61
(dp62
g35
L2362762537L
sVindices
p63
(lp64
I0
aI16
asg47
V2362762537
p65
sVscreen_name
p66
VTopTradersADVFN
p67
sVname
p68
VTopinfo
p69
sasVhashtags
p70
(lp71
sg25
(lp72
ssVcontributors
p73
NsVtruncated
p74
I00
sVtext
p75
V@TopTradersADVFN or just rest and take it easy! Don't work if you don't need to.
p76
sVcreated_at
p77
VThu Nov 12 22:17:01 +0000 2015
p78
sVretweeted
p79
I00
sVin_reply_to_status_id_str
p80
V664929558219653120
p81
sVcoordinates
p82
NsVin_reply_to_user_id_str
p83
V2362762537
p84
sVsource
p85
V<a href="http://twitter.com/download/iphone" rel="nofollow">Twitter for iPhone</a>
p86
sVin_reply_to_status_id
p87
L664929558219653120L
sVin_reply_to_screen_name
p88
VTopTradersADVFN
p89
sg47
V664929920745922560
p90
sVplace
p91
NsVretweet_count
p92
I0
sVgeo
p93
Nsg35
L664929920745922560L
sVfavorite_count
p94
I0
sVin_reply_to_user_id
p95
L2362762537L
ssVis_translation_enabled
p96
I00
sVutc_offset
p97
I-28800
sVstatuses_count
p98
I1167
sg23
V
p99
sVfriends_count
p100
I193
sVlocation
p101
g99
sVprofile_link_color
p102
V0084B4
p103
sVprofile_image_url
p104
Vhttp://pbs.twimg.com/profile_images/605389195172036608/hkpcPV_I_normal.jpg
p105
sVfollowing
p106
I00
sVgeo_enabled
p107
I00
sVprofile_background_image_url
p108
Vhttp://abs.twimg.com/images/themes/theme1/bg.png
p109
sg66
VScrumpy222
p110
sg54
Ven
p111
sVprofile_background_tile
p112
I00
sVfavourites_count
p113
I219
sg68
VDaveShare
p114
sVnotifications
p115
I00
sVurl
p116
Nsg77
VMon Jul 07 14:01:52 +0000 2014
p117
sVcontributors_enabled
p118
I00
sVtime_zone
p119
VPacific Time (US & Canada)
p120
sVprotected
p121
I00
sVdefault_profile
p122
I01
sVis_translator
p123
I00
ssS'contributors_enabled'
p124
I00
sS'profile_text_color'
p125
g40
sS'followers_count'
p126
I83
sS'profile_sidebar_border_color'
p127
g46
sS'id_str'
p128
g48
sS'default_profile_image'
p129
I00
sS'listed_count'
p130
I5
sS'status'
p131
g8
(ctweepy.models
Status
p132
g10
Ntp133
Rp134
(dp135
S'favorited'
p136
I00
sS'contributors'
p137
NsS'truncated'
p138
I00
sS'text'
p139
g76
sS'source_url'
p140
Vhttp://twitter.com/download/iphone
p141
sS'in_reply_to_status_id'
p142
L664929558219653120L
sS'geo'
p143
Nsg19
L664929920745922560L
sS'favorite_count'
p144
I0
sS'lang'
p145
g55
sg21
g57
sS'created_at'
p146
cdatetime
datetime
p147
(S'\x07\xdf\x0b\x0c\x16\x11\x01\x00\x00\x00'
p148
tp149
Rp150
sg29
g53
sS'coordinates'
p151
NsS'in_reply_to_user_id_str'
p152
g84
sS'source'
p153
VTwitter for iPhone
p154
sS'in_reply_to_status_id_str'
p155
g81
sS'in_reply_to_screen_name'
p156
g89
sg128
g90
sS'retweeted'
p157
I00
sS'place'
p158
NsS'retweet_count'
p159
I0
sS'in_reply_to_user_id'
p160
L2362762537L
sbsS'is_translation_enabled'
p161
I00
sS'utc_offset'
p162
I-28800
sS'statuses_count'
p163
I1167
sS'description'
p164
g99
sS'friends_count'
p165
I193
sS'location'
p166
g99
sS'profile_link_color'
p167
g103
sS'profile_image_url'
p168
g105
sS'notifications'
p169
I00
sS'geo_enabled'
p170
I00
sS'profile_background_color'
p171
g50
sS'profile_background_image_url'
p172
g109
sS'screen_name'
p173
g110
sg145
g111
sg1
I00
sS'profile_background_tile'
p174
I00
sS'favourites_count'
p175
I219
sS'name'
p176
g114
sS'url'
p177
Nsg146
g147
(S'\x07\xde\x07\x07\x0e\x014\x00\x00\x00'
p178
tp179
Rp180
sS'profile_background_image_url_https'
p181
g37
sS'time_zone'
p182
g120
sS'protected'
p183
I00
sS'default_profile'
p184
I01
sS'is_translator'
p185
I00
sbs.