(dp0
S'following'
p1
(lp2
(lp3
I135974769
aL2641406344L
aL2357133198L
aL2841046282L
aI147998139
aI105413219
aI231649708
aL2732481865L
aL2841397553L
aL2303948004L
aL2440243838L
aL2774687256L
aL2788310814L
aI41654273
aI138346266
aI278413976
aL2821416581L
aI343485402
aL2610985152L
aL2737740428L
aL2830879294L
aI1040430050
aI1852428158
aL2828144092L
aL2765874349L
aI60591419
aI41083076
aL2835724177L
aI777247537
aL2324375900L
aI46233375
aI166946877
aI1168493226
aI288428769
aI110240318
aI93239708
aI45133573
aL2557412970L
aI467419507
aL2823585861L
aI377588282
aI6476832
aI161697620
aI463163358
aI42475890
aI806810600
aI139319566
aL2778100373L
aL2450338628L
aI1299864133
aI1096976922
aL2814559895L
aI426635038
aL2825880506L
aI489156335
aI218515341
aL2450209980L
aI1330366183
aL2207850990L
aL2776475316L
aI142277840
aI263081056
aI172675920
aL2790426990L
aL2741696574L
aL2789263969L
aL2330802834L
aI162540978
aI337968909
aL2365992217L
aI349027628
aI87365353
aI59147927
aI707514301
aI1597744902
aI1355392652
aI1683669906
aI116498273
aI16657786
aL2657616223L
aI154530823
aI805460012
aI248763098
aI186882488
aL2754536904L
aI627303221
aI149165844
aI407611427
aL2776450358L
aI474638284
aL2762131693L
aI87412912
aL2728937544L
aI1319850361
aI18504752
aL2358202640L
aL2195164722L
aL2778293840L
aL2741604952L
aI201708187
aL2703658843L
aI1315070816
aI73724432
aI1903186206
aL2470338878L
aL2208779611L
aL2767967713L
aI1611357583
aL2453278908L
aL2381563662L
aI58316030
aL2515590894L
aI243524815
aI1254059719
aI1961448972
aL2266578811L
aL2740297622L
aL2549948641L
aI378776893
aI340181951
aL2763019843L
aI164305768
aI1978447399
aI439827315
aL2745384343L
aI380497008
aI40200683
aL2313580302L
aI282489947
aI813285217
aL2323049886L
aL2584585388L
aI817976694
aL2543286565L
aL2737828045L
aI473017148
aL2726062832L
aI1378865233
aI1654339098
aI1951994160
aI360869459
aI34321909
aI16838276
aI236636515
aL2738995059L
aI604593160
aI311342243
aI71178851
aI1086973130
aL2280730473L
aI1653676969
aI215151029
aI321970717
aI1020190998
aI356461659
aL2402147943L
aI400014805
aI487605970
aL2556497406L
aI23732332
aI92457245
aL2692313258L
aL2598495900L
aI1854251720
aL2290568647L
aL2731404576L
aL2676425660L
aI941240646
aI1465657616
aI199359691
aL2591281556L
aI590285184
aL2547826958L
aL2726352050L
aL2727698496L
aL2307569686L
aI468929493
aI387749276
aI45166539
aL2377596499L
aI575395689
aL2740179167L
aI443979329
aL2191179684L
aI455445236
aL2284455746L
aI28351859
aL2711608422L
aI431734647
aI1725162068
aL2725071852L
aL2738567116L
aL2568075804L
aL2560064220L
aI309719235
aI369611319
aL2723194134L
aI283473087
aI580358669
aL2347849507L
aL2639264672L
aL2608051195L
aI824016307
aL2654232069L
aI64859202
aL2659955006L
aL2641221758L
aI1369360440
aI309843655
aI213957431
aI386580960
aL2720256062L
aI377407811
aL2192846508L
aI1310372965
aL2438139916L
aI578326143
aL2320581355L
aL2321484538L
aL2339137461L
aI47881924
aI71545162
aI1341264145
aI216779155
aL2701325707L
aI1552037270
aL2706484902L
aI868859868
aL2698561140L
aL2386730596L
aI590446923
aI3219081
aI146584479
aI321135515
aL2329683510L
aL2329636210L
aI763479367
aI590235146
aI508769723
aI34100567
aI84430377
aI198329353
aI1711739342
aI133390286
aI330558410
aI731803549
aI152831766
aI1610593988
aI291503109
aI34737026
aL2707831716L
aL2543656910L
aL2376198084L
aI298199572
aL2321090622L
aI408100058
aL2711781750L
aI190993417
aI287531586
aI411057401
aI456198551
aI459781893
aI1343041062
aI394209375
aI358435993
aL2446846928L
aI18118024
aL2224374970L
aI1183887576
aI596444703
aI1873590523
aI1660926210
aI1322307116
aI42701544
aI803890166
aI42640655
aL2610180228L
aI1635703381
aI1413135955
aI52835309
aI1422126799
aI1195448107
aI1931095784
aI1841049343
aI385033487
aI27786357
aI204633530
aI15369494
aI27555264
aI1668398749
aI606468976
aI1140341359
aI38574970
aasS'followers'
p4
(lp5
(lp6
L4009112472L
aI316279772
aL3054950158L
aL3678525919L
aL3860377223L
aL3588643397L
aL2994519967L
aI1638091508
aI601902268
aL2517082856L
aL2329636210L
aL2547826958L
aasS'obj'
p7
ccopy_reg
_reconstructor
p8
(ctweepy.models
User
p9
c__builtin__
object
p10
Ntp11
Rp12
(dp13
S'follow_request_sent'
p14
NsS'has_extended_profile'
p15
I00
sS'profile_use_background_image'
p16
I01
sS'profile_sidebar_fill_color'
p17
VDDEEF6
p18
sS'id'
p19
L2610384980L
sS'verified'
p20
I00
sS'entities'
p21
(dp22
Vdescription
p23
(dp24
Vurls
p25
(lp26
sssS'profile_image_url_https'
p27
Vhttps://abs.twimg.com/sticky/default_profile_images/default_profile_0_normal.png
p28
sS'_json'
p29
(dp30
Vfollow_request_sent
p31
NsVhas_extended_profile
p32
I00
sVprofile_use_background_image
p33
I01
sVdefault_profile_image
p34
I01
sVid
p35
L2610384980L
sVprofile_background_image_url_https
p36
Vhttps://abs.twimg.com/images/themes/theme1/bg.png
p37
sVverified
p38
I00
sVprofile_text_color
p39
V333333
p40
sVprofile_image_url_https
p41
g28
sVprofile_sidebar_fill_color
p42
g18
sVentities
p43
g22
sVfollowers_count
p44
I12
sVprofile_sidebar_border_color
p45
VC0DEED
p46
sVid_str
p47
V2610384980
p48
sVprofile_background_color
p49
VC0DEED
p50
sVlisted_count
p51
I14
sVstatus
p52
(dp53
Vcontributors
p54
NsVtruncated
p55
I00
sVtext
p56
VRT @iTunesMusicTop: Pop Song (Audio) by @Hitarda https://t.co/ohnq5pxvp6
p57
sVin_reply_to_status_id
p58
Nsg35
L661895343861313536L
sVfavorite_count
p59
I0
sVsource
p60
V<a href="http://twitter.com" rel="nofollow">Twitter Web Client</a>
p61
sVretweeted
p62
I00
sVcoordinates
p63
Nsg43
(dp64
Vsymbols
p65
(lp66
sVuser_mentions
p67
(lp68
(dp69
g35
L2935509226L
sVindices
p70
(lp71
I3
aI18
asg47
V2935509226
p72
sVscreen_name
p73
ViTunesMusicTop
p74
sVname
p75
VFresh Music Only!
p76
sa(dp77
g35
I210856057
sg70
(lp78
I40
aI48
asg47
V210856057
p79
sg73
VHitarda
p80
sg75
VHitarda
p81
sasVhashtags
p82
(lp83
sg25
(lp84
(dp85
Vurl
p86
Vhttps://t.co/ohnq5pxvp6
p87
sg70
(lp88
I49
aI72
asVexpanded_url
p89
Vhttps://youtu.be/xt_tL6Q-Fpo
p90
sVdisplay_url
p91
Vyoutu.be/xt_tL6Q-Fpo
p92
sassVin_reply_to_screen_name
p93
Nsg47
V661895343861313536
p94
sVretweet_count
p95
I102
sVin_reply_to_user_id
p96
NsVfavorited
p97
I00
sVretweeted_status
p98
(dp99
g54
Nsg55
I00
sg56
VPop Song (Audio) by @Hitarda https://t.co/ohnq5pxvp6
p100
sg58
Nsg35
L661882741835759616L
sg59
I123
sg60
V<a href="https://about.twitter.com/products/tweetdeck" rel="nofollow">TweetDeck</a>
p101
sg62
I00
sg63
Nsg43
(dp102
g65
(lp103
sg67
(lp104
(dp105
g35
I210856057
sg70
(lp106
I20
aI28
asg47
V210856057
p107
sg73
VHitarda
p108
sg75
VHitarda
p109
sasg82
(lp110
sg25
(lp111
(dp112
g86
Vhttps://t.co/ohnq5pxvp6
p113
sg70
(lp114
I29
aI52
asg89
Vhttps://youtu.be/xt_tL6Q-Fpo
p115
sg91
Vyoutu.be/xt_tL6Q-Fpo
p116
sassg93
Nsg47
V661882741835759616
p117
sg95
I102
sg96
Nsg97
I00
sVgeo
p118
NsVin_reply_to_user_id_str
p119
NsVpossibly_sensitive
p120
I00
sVlang
p121
Ven
p122
sVcreated_at
p123
VWed Nov 04 12:28:37 +0000 2015
p124
sVin_reply_to_status_id_str
p125
NsVplace
p126
Nssg118
Nsg119
Nsg120
I00
sg121
Ven
p127
sg123
VWed Nov 04 13:18:42 +0000 2015
p128
sg125
Nsg126
NssVis_translation_enabled
p129
I00
sVutc_offset
p130
NsVstatuses_count
p131
I4522
sg23
V
p132
sVfriends_count
p133
I293
sVlocation
p134
g132
sVprofile_link_color
p135
V0084B4
p136
sVprofile_image_url
p137
Vhttp://abs.twimg.com/sticky/default_profile_images/default_profile_0_normal.png
p138
sVfollowing
p139
NsVgeo_enabled
p140
I00
sVprofile_background_image_url
p141
Vhttp://abs.twimg.com/images/themes/theme1/bg.png
p142
sg73
Vhesina_m7323
p143
sg121
Vru
p144
sVprofile_background_tile
p145
I00
sVfavourites_count
p146
I1321
sg75
Vmaya hesina
p147
sVnotifications
p148
Nsg86
Nsg123
VMon Jul 07 20:09:21 +0000 2014
p149
sVcontributors_enabled
p150
I00
sVtime_zone
p151
NsVprotected
p152
I00
sVdefault_profile
p153
I01
sVis_translator
p154
I00
ssS'contributors_enabled'
p155
I00
sS'profile_text_color'
p156
g40
sS'followers_count'
p157
I12
sS'profile_sidebar_border_color'
p158
g46
sS'id_str'
p159
g48
sS'default_profile_image'
p160
I01
sS'listed_count'
p161
I14
sS'status'
p162
g8
(ctweepy.models
Status
p163
g10
Ntp164
Rp165
(dp166
S'favorited'
p167
I00
sS'contributors'
p168
NsS'truncated'
p169
I00
sS'text'
p170
g57
sS'source_url'
p171
Vhttp://twitter.com
p172
sS'possibly_sensitive'
p173
I00
sS'in_reply_to_status_id'
p174
NsS'geo'
p175
Nsg19
L661895343861313536L
sS'favorite_count'
p176
I0
sS'lang'
p177
g127
sS'retweeted_status'
p178
g8
(g163
g10
Ntp179
Rp180
(dp181
g167
I00
sg168
Nsg169
I00
sg170
g100
sg171
Vhttps://about.twitter.com/products/tweetdeck
p182
sg173
I00
sg174
Nsg175
Nsg19
L661882741835759616L
sg176
I123
sg177
g122
sg21
g102
sS'created_at'
p183
cdatetime
datetime
p184
(S'\x07\xdf\x0b\x04\x0c\x1c%\x00\x00\x00'
p185
tp186
Rp187
sg29
g99
sS'coordinates'
p188
NsS'in_reply_to_user_id_str'
p189
NsS'source'
p190
VTweetDeck
p191
sS'in_reply_to_status_id_str'
p192
NsS'in_reply_to_screen_name'
p193
Nsg159
g117
sS'retweeted'
p194
I00
sS'place'
p195
NsS'retweet_count'
p196
I102
sS'in_reply_to_user_id'
p197
Nsbsg21
g64
sg183
g184
(S'\x07\xdf\x0b\x04\r\x12*\x00\x00\x00'
p198
tp199
Rp200
sg29
g53
sg188
Nsg189
Nsg190
VTwitter Web Client
p201
sg192
Nsg193
Nsg159
g94
sg194
I00
sg195
Nsg196
I102
sg197
NsbsS'is_translation_enabled'
p202
I00
sS'utc_offset'
p203
NsS'statuses_count'
p204
I4522
sS'description'
p205
g132
sS'friends_count'
p206
I293
sS'location'
p207
g132
sS'profile_link_color'
p208
g136
sS'profile_image_url'
p209
g138
sS'notifications'
p210
NsS'geo_enabled'
p211
I00
sS'profile_background_color'
p212
g50
sS'profile_background_image_url'
p213
g142
sS'screen_name'
p214
g143
sg177
g144
sg1
I00
sS'profile_background_tile'
p215
I00
sS'favourites_count'
p216
I1321
sS'name'
p217
g147
sS'url'
p218
Nsg183
g184
(S'\x07\xde\x07\x07\x14\t\x15\x00\x00\x00'
p219
tp220
Rp221
sS'profile_background_image_url_https'
p222
g37
sS'time_zone'
p223
NsS'protected'
p224
I00
sS'default_profile'
p225
I01
sS'is_translator'
p226
I00
sbs.