(dp0
S'following'
p1
(lp2
(lp3
I337968909
aI40200683
aL2314197530L
aI142277840
aI154530823
aI278860757
aI18068073
aL2438160103L
aL2197978502L
aI228990542
aI1251951229
aL2789263969L
aI22960461
aI83741904
aI1883213377
aI349660914
aI419003066
aI707514301
aI1597744902
aL2758750223L
aI31317551
aI133528928
aL2744478566L
aI21360280
aL2371355597L
aL2728937544L
aL2657616223L
aI805460012
aI1321388071
aI1114570009
aI248763098
aI1578317286
aI280175650
aI186882488
aI764052127
aL2694260598L
aI627303221
aI181984199
aI165803481
aL2685930805L
aI38499945
aL2443908583L
aI184439291
aL2776450358L
aI872938038
aI474638284
aL2762131693L
aI87412912
aI183731193
aI306736792
aI1319850361
aI595291666
aL2767967713L
aI455445236
aL2150893928L
aI1002627314
aI201708187
aI36477630
aI185204718
aL2208779611L
aI1611357583
aL2373398208L
aI296579557
aL2751726839L
aL2359542560L
aI1254059719
aL2200943198L
aL2759688373L
aL2769109934L
aL2744643001L
aI340181951
aL2763019843L
aI164305768
aI1348284475
aI439827315
aL2694743251L
aL2745384343L
aI380497008
aL2323049886L
aI958886749
aL2322999366L
aI447387038
aL2584585388L
aI122009091
aL2187592410L
aL2726062832L
aI234440202
aL2739781592L
aI53004765
aI473017148
aI1654339098
aL2729535944L
aI92457245
aI16838276
aI236636515
aL2738995059L
aI604593160
aL2280730473L
aI321970717
aI1020190998
aI356461659
aL2402147943L
aI487605970
aI358079011
aI895832586
aI1854251720
aL2598495900L
aI807053372
aI986500177
aI269931767
aI199359691
aI1510489374
aL2591281556L
aI460754121
aL2727698496L
aI516973275
aL2307569686L
aI468929493
aI442076938
aI66631346
aL2578872133L
aL2740179167L
aI1086973130
aI306051110
aI21569677
aL2722735394L
aI215151029
aI28351859
aI955933531
aI1725162068
aI118623177
aL2738567116L
aL2568075804L
aL2560064220L
aI594424144
aI1835000424
aI505222295
aI309719235
aL2647841718L
aI1896867624
aI712864873
aL2408278927L
aI32854001
aL2376198084L
aI19192646
aL2654232069L
aL2659955006L
aI242993214
aI27425218
aI215449460
aL2720256062L
aI377407811
aL2254396868L
aI43564214
aL2686101613L
aI437523529
aL2438139916L
aL2535077256L
aI125849761
aI68080316
aI1077186775
aL2319496951L
aI342206996
aI630893869
aL2162107370L
aI286043708
aI71545162
aI11911082
aI1552037270
aL2706484902L
aI1315046136
aI868859868
aL2221848747L
aL2386730596L
aI199776410
aI1962050106
aI146584479
aL2736007739L
aI590235146
aI121889306
aI1036713343
aI85964519
aL2366090810L
aI373401480
aI330558410
aL2379971325L
aI369611319
aI152831766
aI1610593988
aI291503109
aI34737026
aL2707831716L
aI375606952
aL2730523780L
aI298199572
aL2321090622L
aL2711781750L
aL2566531213L
aL2710362272L
aL2490420074L
aL2319234066L
aL2423993053L
aI62127693
aI1724480935
aI1951994160
aL2599797398L
aL2286933728L
aI955982712
aL2658633008L
aI1369360440
aI18257487
aI1393898413
aL2572830134L
aI365440183
aI589088975
aI271778688
aI395311801
aI735232200
aI377018034
aI1244958925
aI1912251697
aI1355357792
aI870242101
aI408100058
aI36415257
aL2704912783L
aL2596479854L
aI33109387
aL2675135029L
aI627578922
aL2373446051L
aI1343624156
aI1636317235
aL2701337196L
aI20473329
aL2483307072L
aI60294855
aI1411688574
aI1487870804
aI915796495
aI542840469
aI735143449
aL2340645799L
aL2662909293L
aL2275448672L
aI363582650
aI1184284272
aL2691308660L
aI1711739342
aI290170851
aL2320597728L
aI248948998
aI488127983
aI1270699333
aL2693405083L
aI525713285
aL2354928007L
aL2451913472L
aI809440435
aL2676236498L
aI1011941574
aI154403438
aI1066579406
aI391695251
aL2650008680L
aI440272274
aI1869402187
aI325929438
aL2686020266L
aI1562824375
aL2618666149L
aI1926898812
aI53231972
aL2560899660L
aI87299677
aL2687913199L
aI92422547
aI1273532971
aI505903816
aI1166053044
aL2288287814L
aI149072356
aI1258243938
aI16657786
aI15717762
aI14616406
aL2610976802L
aI1483185702
aI957474006
aI1517128472
aI35846865
aL2366296358L
aI1003769130
aL2681113946L
aL2681960792L
aI83254283
aL2557963830L
aL2184665196L
aL2552330280L
aI366485111
aL2182969026L
aL2545251487L
aI45232245
aL2608590540L
aI175906908
aL2200957043L
aL2333545658L
aI31541303
aL2365631125L
aI39957724
aI1316950460
aI68476851
aI86689374
aL2400759822L
aI156041116
aI41788498
aI1397306112
aI42430180
aI18292600
aI54317567
aI314850587
aI60294741
aI1557326286
aI67886373
aL2647114338L
aL2676066667L
aI1147330586
aI512433584
aL2670968364L
aL2649332256L
aI419119067
aI784352246
aI340835504
aL2653041642L
aI62124341
aI1961122069
aI61784607
aI487308755
aI204384761
aI1570535292
aI557821092
aL2717218337L
aI43796068
aI1305382992
aI1679771395
aI27457454
aL2659475168L
aI864000018
aL2601441752L
aL2639073198L
aI1465483465
aL2473328880L
aI1197345576
aI1577706050
aL2666881376L
aL2187117308L
aI226256948
aI985901700
aI1617785431
aL2507452112L
aL2149960655L
aI135325668
aL2666594900L
aI1554308076
aI9575262
aL2719577487L
aI456542048
aI541973128
aI459152855
aL2432830056L
aI1732251638
aI1870053469
aI1140791539
aI1097041136
aL2366134435L
aI144219653
aI26713042
aI1703376420
aI248871954
aI263026031
aL2718097486L
aL2350275637L
aL2565439729L
aL2610493975L
aI52154347
aI519873593
aL2256003930L
aL2422806902L
aI169115069
aL2325848245L
aL2650390117L
aL2646741601L
aL2558463343L
aI362416241
aL2657978160L
aI172201288
aL2659162369L
aL2658682692L
aI169964031
aI114664559
aI225925468
aI138187896
aI885888386
aI228449626
aL2648978077L
aI20468996
aI461559163
aI1469597498
aL2653830486L
aL2289890732L
aI160358537
aL2595429379L
aI849328400
aL2648278166L
aI44332532
aI72529026
aL2279654473L
aI928520490
aI26481436
aI297855695
aL2575097382L
aL2711177535L
aL2602484154L
aI111583872
aI33422992
aI530839582
aL2640436159L
aI15356318
aL2588309808L
aL2640043440L
aL2631500255L
aI253769656
aI19645866
aI768504769
aI1289927568
aI25220418
aL2586594937L
aI392469861
aL2652098006L
aL2651451636L
aI760494572
aI713024076
aL2696289885L
aL2437414320L
aI478775282
aI557855355
aI35039961
aI1683045271
aL2185832379L
aI382540569
aL2425843340L
aI21318183
aL2674074123L
aL2278100954L
aL2371102609L
aL2565561578L
aI819701023
aI135917307
aI72764133
aI826081068
aL2600706613L
aI17433591
aI396197933
aL2612300730L
aI149878184
aI260182449
aI368477419
aI480216435
aI123245453
aL2612634764L
aI271531588
aI127195708
aI796574509
aI276234557
aL2423304780L
aL2213470975L
aL2235158028L
aI564873087
aI919864417
aI71771202
aI18942861
aI205558787
aL2323040006L
aL2250146256L
aI144790862
aI97340532
aL2539691300L
aL2575213650L
aI53366264
aI1251289424
aI481284459
aI415742538
aI909287167
aL2187233760L
aI21229157
aI1663541358
aI532643012
aL2409595592L
aL2592134713L
aI17877444
aL2332350522L
aI1353479845
aI48993346
aI109289215
aI135540434
aL2604297013L
aI226828258
aI14945250
aI1078030825
aL2687843998L
aL2433534989L
aL2692151805L
aL2597913606L
aL2556002427L
aI345721178
aI56340831
aI116655954
aI132662280
aL2592251383L
aI497300307
aL2519181145L
aI1582674716
aI1523445181
aL2608133450L
aL2298609912L
aI106142159
aI310018162
aI72342284
aI10791832
aI400664702
aI72251250
aL2606247775L
aL2195164722L
aL2164252321L
aL2424331393L
aI1517894166
aI408555400
aI377503494
aI459781893
aI1343041062
aL2586149184L
aI394209375
aL2187747047L
aL2224374970L
aI129964269
aI1183887576
aL2583856861L
aI284124543
aL2264136505L
aI361681753
aI1322307116
aL2595597943L
aI42701544
aL2610180228L
aI267277891
aL2546607944L
aL2612603941L
aI162540978
aI52835309
aL2507555114L
aL2608051195L
aL2546542254L
aI1852128427
aI425185949
aI204633530
aI15369494
aI27555264
aI27786357
aL2591257206L
aI606468976
aI1140341359
aI587789939
aI133390286
aI38574970
aasS'followers'
p4
(lp5
(lp6
I316107227
aL4019734515L
aL3312667008L
aI1870042014
aI1870083338
aL2605690501L
aI881413796
aL2539577030L
aI1104367171
aI32789366
aI1350517094
aI589088975
aL2483307072L
aL2766776344L
aL2705318449L
aI519873593
aasS'obj'
p7
ccopy_reg
_reconstructor
p8
(ctweepy.models
User
p9
c__builtin__
object
p10
Ntp11
Rp12
(dp13
S'follow_request_sent'
p14
NsS'has_extended_profile'
p15
I00
sS'profile_use_background_image'
p16
I01
sS'profile_sidebar_fill_color'
p17
VDDEEF6
p18
sS'id'
p19
L2610371526L
sS'verified'
p20
I00
sS'entities'
p21
(dp22
Vdescription
p23
(dp24
Vurls
p25
(lp26
sssS'profile_image_url_https'
p27
Vhttps://pbs.twimg.com/profile_images/486241331920896001/mX-WTPEg_normal.jpeg
p28
sS'_json'
p29
(dp30
Vfollow_request_sent
p31
NsVhas_extended_profile
p32
I00
sVprofile_use_background_image
p33
I01
sVdefault_profile_image
p34
I00
sVid
p35
L2610371526L
sVprofile_background_image_url_https
p36
Vhttps://abs.twimg.com/images/themes/theme1/bg.png
p37
sVverified
p38
I00
sVprofile_text_color
p39
V333333
p40
sVprofile_image_url_https
p41
g28
sVprofile_sidebar_fill_color
p42
g18
sVentities
p43
g22
sVfollowers_count
p44
I16
sVprofile_sidebar_border_color
p45
VC0DEED
p46
sVid_str
p47
V2610371526
p48
sVprofile_background_color
p49
VC0DEED
p50
sVlisted_count
p51
I6
sVstatus
p52
(dp53
Vcontributors
p54
NsVtruncated
p55
I00
sVtext
p56
VRT @iTunesMusicTop: Tinashe - Player ft. Chris Brown https://t.co/my60ipr7G7
p57
sVin_reply_to_status_id
p58
Nsg35
L661893969102684160L
sVfavorite_count
p59
I0
sVsource
p60
V<a href="http://twitter.com" rel="nofollow">Twitter Web Client</a>
p61
sVretweeted
p62
I00
sVcoordinates
p63
Nsg43
(dp64
Vsymbols
p65
(lp66
sVuser_mentions
p67
(lp68
(dp69
g35
L2935509226L
sVindices
p70
(lp71
I3
aI18
asg47
V2935509226
p72
sVscreen_name
p73
ViTunesMusicTop
p74
sVname
p75
VFresh Music Only!
p76
sasVhashtags
p77
(lp78
sg25
(lp79
(dp80
Vurl
p81
Vhttps://t.co/my60ipr7G7
p82
sg70
(lp83
I53
aI76
asVexpanded_url
p84
Vhttps://youtu.be/IltwiyqKhEI
p85
sVdisplay_url
p86
Vyoutu.be/IltwiyqKhEI
p87
sassVin_reply_to_screen_name
p88
Nsg47
V661893969102684160
p89
sVretweet_count
p90
I106
sVin_reply_to_user_id
p91
NsVfavorited
p92
I00
sVretweeted_status
p93
(dp94
g54
Nsg55
I00
sg56
VTinashe - Player ft. Chris Brown https://t.co/my60ipr7G7
p95
sg58
Nsg35
L661883056425443328L
sg59
I101
sg60
V<a href="http://twitter.com" rel="nofollow">Twitter Web Client</a>
p96
sg62
I00
sg63
Nsg43
(dp97
g65
(lp98
sg67
(lp99
sg77
(lp100
sg25
(lp101
(dp102
g81
Vhttps://t.co/my60ipr7G7
p103
sg70
(lp104
I33
aI56
asg84
Vhttps://youtu.be/IltwiyqKhEI
p105
sg86
Vyoutu.be/IltwiyqKhEI
p106
sassg88
Nsg47
V661883056425443328
p107
sg90
I106
sg91
Nsg92
I00
sVgeo
p108
NsVin_reply_to_user_id_str
p109
NsVpossibly_sensitive
p110
I00
sVlang
p111
Ven
p112
sVcreated_at
p113
VWed Nov 04 12:29:52 +0000 2015
p114
sVin_reply_to_status_id_str
p115
NsVplace
p116
Nssg108
Nsg109
Nsg110
I00
sg111
Ven
p117
sg113
VWed Nov 04 13:13:14 +0000 2015
p118
sg115
Nsg116
NssVis_translation_enabled
p119
I00
sVutc_offset
p120
NsVstatuses_count
p121
I3103
sg23
V
p122
sVfriends_count
p123
I574
sVlocation
p124
g122
sVprofile_link_color
p125
V0084B4
p126
sVprofile_image_url
p127
Vhttp://pbs.twimg.com/profile_images/486241331920896001/mX-WTPEg_normal.jpeg
p128
sVfollowing
p129
NsVgeo_enabled
p130
I00
sVprofile_background_image_url
p131
Vhttp://abs.twimg.com/images/themes/theme1/bg.png
p132
sg73
Vrozumov_j1268
p133
sg111
Vru
p134
sVprofile_background_tile
p135
I00
sVfavourites_count
p136
I1063
sg75
Vjacob rozumov
p137
sVnotifications
p138
Nsg81
Nsg113
VMon Jul 07 20:12:16 +0000 2014
p139
sVcontributors_enabled
p140
I00
sVtime_zone
p141
NsVprotected
p142
I00
sVdefault_profile
p143
I01
sVis_translator
p144
I00
ssS'contributors_enabled'
p145
I00
sS'profile_text_color'
p146
g40
sS'followers_count'
p147
I16
sS'profile_sidebar_border_color'
p148
g46
sS'id_str'
p149
g48
sS'default_profile_image'
p150
I00
sS'listed_count'
p151
I6
sS'status'
p152
g8
(ctweepy.models
Status
p153
g10
Ntp154
Rp155
(dp156
S'favorited'
p157
I00
sS'contributors'
p158
NsS'truncated'
p159
I00
sS'text'
p160
g57
sS'source_url'
p161
Vhttp://twitter.com
p162
sS'possibly_sensitive'
p163
I00
sS'in_reply_to_status_id'
p164
NsS'geo'
p165
Nsg19
L661893969102684160L
sS'favorite_count'
p166
I0
sS'lang'
p167
g117
sS'retweeted_status'
p168
g8
(g153
g10
Ntp169
Rp170
(dp171
g157
I00
sg158
Nsg159
I00
sg160
g95
sg161
Vhttp://twitter.com
p172
sg163
I00
sg164
Nsg165
Nsg19
L661883056425443328L
sg166
I101
sg167
g112
sg21
g97
sS'created_at'
p173
cdatetime
datetime
p174
(S'\x07\xdf\x0b\x04\x0c\x1d4\x00\x00\x00'
p175
tp176
Rp177
sg29
g94
sS'coordinates'
p178
NsS'in_reply_to_user_id_str'
p179
NsS'source'
p180
VTwitter Web Client
p181
sS'in_reply_to_status_id_str'
p182
NsS'in_reply_to_screen_name'
p183
Nsg149
g107
sS'retweeted'
p184
I00
sS'place'
p185
NsS'retweet_count'
p186
I106
sS'in_reply_to_user_id'
p187
Nsbsg21
g64
sg173
g174
(S'\x07\xdf\x0b\x04\r\r\x0e\x00\x00\x00'
p188
tp189
Rp190
sg29
g53
sg178
Nsg179
Nsg180
VTwitter Web Client
p191
sg182
Nsg183
Nsg149
g89
sg184
I00
sg185
Nsg186
I106
sg187
NsbsS'is_translation_enabled'
p192
I00
sS'utc_offset'
p193
NsS'statuses_count'
p194
I3103
sS'description'
p195
g122
sS'friends_count'
p196
I574
sS'location'
p197
g122
sS'profile_link_color'
p198
g126
sS'profile_image_url'
p199
g128
sS'notifications'
p200
NsS'geo_enabled'
p201
I00
sS'profile_background_color'
p202
g50
sS'profile_background_image_url'
p203
g132
sS'screen_name'
p204
g133
sg167
g134
sg1
I00
sS'profile_background_tile'
p205
I00
sS'favourites_count'
p206
I1063
sS'name'
p207
g137
sS'url'
p208
Nsg173
g174
(S'\x07\xde\x07\x07\x14\x0c\x10\x00\x00\x00'
p209
tp210
Rp211
sS'profile_background_image_url_https'
p212
g37
sS'time_zone'
p213
NsS'protected'
p214
I00
sS'default_profile'
p215
I01
sS'is_translator'
p216
I00
sbs.