(dp0
S'following'
p1
(lp2
(lp3
I174795008
aL2833217831L
aI350983316
aL2270923362L
aL2839645769L
aL2868535988L
aI19836290
aI90513300
aI334654285
aI1636356710
aI21530483
aL2710079142L
aL2398242829L
aL2579909899L
aL2815598921L
aI621574583
aI1255055508
aI1347092581
aI1142974122
aI621251135
aL2783813343L
aI334819061
aI207490644
aL2828144092L
aL2412494910L
aI270418207
aI909831164
aL2425439568L
aL2860415886L
aL2520555228L
aL2853477314L
aI347804908
aL2832545680L
aL2328834075L
aI372545341
aI147998139
aI387829389
aI245627071
aI337968909
aI377407811
aI142277840
aL2722882722L
aI154530823
aI278860757
aI26395009
aI62127693
aL2525788938L
aI1951994160
aL2286933728L
aI955982712
aI1369360440
aL2229976656L
aL2572830134L
aL2676695107L
aL2707537280L
aI589088975
aI271778688
aI735232200
aI873880164
aI1541498162
aI524007660
aI1584753169
aI349774840
aI1931301800
aI1357504705
aI408100058
aI36415257
aI29458878
aL2706080292L
aI24626424
aL2366296358L
aI33109387
aL2695044714L
aL2373446051L
aL2689282644L
aI114183107
aL2228475781L
aI1273526455
aL2538144044L
aI391695251
aI600354818
aI449392415
aI152831766
aL2697619820L
aI780469045
aI1837182150
aI1355335356
aI1355354036
aI735143449
aL2614065504L
aL2566768518L
aI278224987
aL2320547791L
aI212212089
aI595226718
aI860113350
aL2691308660L
aI539248253
aI1711739342
aI26713042
aL2396690862L
aL2294371048L
aI1270699333
aI18942861
aL2693405083L
aI1152984595
aL2354928007L
aI520988333
aI422725073
aL2451913472L
aI809440435
aI24633977
aI470184862
aL2550874224L
aI92913243
aI711829894
aI31541303
aL2675274463L
aI440272274
aI325929438
aL2686020266L
aI42430180
aL2688475214L
aL2544728480L
aI100218359
aL2654779818L
aL2478548545L
aL2687906803L
aL2572625041L
aL2598526662L
aI92422547
aL2182969026L
aL2656252735L
aI1258243938
aI162540978
aI16657786
aI287531586
aI15717762
aI26952935
aI1483185702
aI1425948000
aI297832455
aI360544017
aL2615603630L
aL2661656306L
aL2667910046L
aL2557963830L
aI183664445
aI146584479
aL2666881376L
aL2184665196L
aI15369494
aL2552330280L
aI366485111
aI266171036
aI776843941
aL2683716570L
aI20289545
aI392469861
aI175906908
aL2333554063L
aL2333547278L
aI359793610
aI956497549
aI831914779
aI30789784
aI1316950460
aI86689374
aI79210652
aL2679521983L
aI226828258
aL2370846721L
aI130748033
aI588364934
aI314850587
aI60294741
aL2315147609L
aI23654314
aL2311550865L
aI14589921
aI213883469
aI318590321
aI22282182
aI317549874
aI248125903
aI18511391
aL2612686021L
aL2676066667L
aI412464138
aI1147330586
aI27821302
aI200508006
aI1959181724
aI13978432
aL2611713697L
aL2492533687L
aI298988829
aI1961122069
aI18292600
aL2618666149L
aI1670967312
aL2258078502L
aL2596492621L
aI1070063569
aL2159398820L
aI27457454
aI237448075
aL2666872230L
aI1115320327
aI344097985
aI62929741
aL2639073198L
aI57063269
aI320307810
aI175384377
aI1465483465
aI425928244
aI38542036
aI1197345576
aL2663403632L
aI120325806
aI796574509
aL2595597943L
aI1577706050
aI272387756
aI322802999
aI226256948
aL2659475168L
aI1191110196
aL2587469552L
aI864000018
aL2370591043L
aL2663242470L
aL2358551828L
aI1732251638
aI290888436
aI199776410
aI412667936
aL2613431344L
aI299404666
aI174091791
aL2645638819L
aL2329227986L
aI263026031
aI157956169
aL2565439729L
aI81096462
aI272825205
aI34577701
aL2256003930L
aI42012778
aL2422806902L
aI169115069
aI597047333
aI84051650
aI78924684
aI1322307116
aI198787330
aL2650390117L
aI529065257
aI1366290847
aL2717809126L
aI1558018844
aL2558463343L
aL2657978160L
aI172201288
aL2659162369L
aL2646236150L
aI343534984
aL2516335224L
aI451900254
aI359790148
aI169964031
aI532722457
aL2345886078L
aI457745066
aI463581555
aI318421688
aI160358537
aL2595429379L
aI1870053469
aL2482893991L
aI738683473
aI928520490
aI9575262
aI72764133
aI297855695
aI69421956
aI15110312
aI537352468
aI1969751814
aI1379462672
aI111583872
aI1729096530
aL2646296754L
aI530839582
aI582125351
aL2640436159L
aI1490300052
aI24466879
aL2308047248L
aL2631500255L
aL2555242525L
aI1636317235
aI768504769
aI25220418
aI22633005
aI760494572
aI148884827
aI144381131
aL2391473168L
aL2621528039L
aI83659701
aI219780437
aL2646821083L
aL2437414320L
aI1494251275
aI1431629534
aI317860946
aI557855355
aL2696289885L
aI117883265
aI23436748
aI792434720
aL2436840198L
aI862535828
aL2416007262L
aL2494970354L
aL2650963596L
aI553917289
aI135325668
aI1169781258
aL2371102609L
aI819701023
aI27235014
aI855510108
aI225845423
aL2195164722L
aI42701544
aI826081068
aL2283967157L
aL2600706613L
aI207048594
aI17433591
aI27784508
aI224006311
aI149878184
aI1334403949
aI632894984
aI1138258154
aI271531588
aI127195708
aI1354271149
aI200829360
aI276234557
aL2473328880L
aI194962708
aI1911303422
aI919864417
aL2320766444L
aI38574970
aI97340532
aL2645420814L
aL2606169330L
aL2539691300L
aI293393370
aI175721864
aI213367995
aL2616535910L
aI318424356
aL2187233760L
aI1663541358
aI52835309
aI532643012
aL2357600840L
aL2592134713L
aI1452680180
aL2332350522L
aI35574246
aI96095197
aL2586267931L
aI242812754
aI45677989
aL2700541678L
aL2489838097L
aI104230403
aI1801791
aI1239875148
aI635507681
aL2633711126L
aI1078030825
aI746308741
aI292207306
aL2468970162L
aL2390108239L
aL2692151805L
aI1097041136
aL2597913606L
aI1582674716
aI105880392
aI1402851451
aI236669355
aL2571202459L
aI67956011
aI1517894166
aI56340831
aI116655954
aI132662280
aI106263836
aI567549527
aI475303874
aI425185949
aI497300307
aL2519181145L
aL2295334754L
aL2597545405L
aL2608133450L
aI1086973130
aI71178851
aI72342284
aI358418711
aI37641241
aI400664702
aI72251250
aasS'followers'
p4
(lp5
(lp6
L3312667008L
aI298162238
aI369077292
aasS'obj'
p7
ccopy_reg
_reconstructor
p8
(ctweepy.models
User
p9
c__builtin__
object
p10
Ntp11
Rp12
(dp13
S'follow_request_sent'
p14
NsS'has_extended_profile'
p15
I00
sS'profile_use_background_image'
p16
I01
sS'profile_sidebar_fill_color'
p17
VDDEEF6
p18
sS'id'
p19
L2616126552L
sS'verified'
p20
I00
sS'entities'
p21
(dp22
Vdescription
p23
(dp24
Vurls
p25
(lp26
sssS'profile_image_url_https'
p27
Vhttps://pbs.twimg.com/profile_images/487340590032379904/1enl87L5_normal.jpeg
p28
sS'_json'
p29
(dp30
Vfollow_request_sent
p31
NsVhas_extended_profile
p32
I00
sVprofile_use_background_image
p33
I01
sVdefault_profile_image
p34
I00
sVid
p35
L2616126552L
sVprofile_background_image_url_https
p36
Vhttps://abs.twimg.com/images/themes/theme1/bg.png
p37
sVverified
p38
I00
sVprofile_text_color
p39
V333333
p40
sVprofile_image_url_https
p41
g28
sVprofile_sidebar_fill_color
p42
g18
sVentities
p43
g22
sVfollowers_count
p44
I3
sVprofile_sidebar_border_color
p45
VC0DEED
p46
sVid_str
p47
V2616126552
p48
sVprofile_background_color
p49
VC0DEED
p50
sVlisted_count
p51
I2
sVstatus
p52
(dp53
Vcontributors
p54
NsVtruncated
p55
I00
sVtext
p56
VRT @nehow: Free China Travel Guide http://t.co/KkcrnkeptC\u000a\u000a #Beijing #Shanghai #Guangzhou \u000a #Xian #Sanya #Guilin #Xiamen \u000a #Shenzhen #Hangz\u2026
p57
sVin_reply_to_status_id
p58
Nsg35
L661893570316673024L
sVfavorite_count
p59
I0
sVsource
p60
V<a href="http://twitter.com" rel="nofollow">Twitter Web Client</a>
p61
sVretweeted
p62
I00
sVcoordinates
p63
Nsg43
(dp64
Vsymbols
p65
(lp66
sVuser_mentions
p67
(lp68
(dp69
g35
L2805346094L
sVindices
p70
(lp71
I3
aI9
asg47
V2805346094
p72
sVscreen_name
p73
Vnehow
p74
sVname
p75
VNehow.com 
p76
sasVhashtags
p77
(lp78
(dp79
g70
(lp80
I60
aI68
asg56
VBeijing
p81
sa(dp82
g70
(lp83
I69
aI78
asg56
VShanghai
p84
sa(dp85
g70
(lp86
I79
aI89
asg56
VGuangzhou
p87
sa(dp88
g70
(lp89
I92
aI97
asg56
VXian
p90
sa(dp91
g70
(lp92
I98
aI104
asg56
VSanya
p93
sa(dp94
g70
(lp95
I105
aI112
asg56
VGuilin
p96
sa(dp97
g70
(lp98
I113
aI120
asg56
VXiamen
p99
sa(dp100
g70
(lp101
I123
aI132
asg56
VShenzhen
p102
sa(dp103
g70
(lp104
I133
aI140
asg56
VHangzhou
p105
sa(dp106
g70
(lp107
I139
aI140
asg56
VChengdu
p108
sasg25
(lp109
(dp110
Vurl
p111
Vhttp://t.co/KkcrnkeptC
p112
sg70
(lp113
I35
aI57
asVexpanded_url
p114
Vhttp://www.ChinaGuidebooks.com
p115
sVdisplay_url
p116
VChinaGuidebooks.com
p117
sassVin_reply_to_screen_name
p118
Nsg47
V661893570316673024
p119
sVretweet_count
p120
I4333
sVin_reply_to_user_id
p121
NsVfavorited
p122
I00
sVretweeted_status
p123
(dp124
g54
Nsg55
I00
sg56
VFree China Travel Guide http://t.co/KkcrnkeptC\u000a\u000a #Beijing #Shanghai #Guangzhou \u000a #Xian #Sanya #Guilin #Xiamen \u000a #Shenzhen #Hangzhou #Chengdu
p125
sg58
Nsg35
L617619571206324224L
sg59
I3331
sg60
V<a href="http://twitter.com" rel="nofollow">Twitter Web Client</a>
p126
sg62
I00
sg63
Nsg43
(dp127
g65
(lp128
sg67
(lp129
sg77
(lp130
(dp131
g70
(lp132
I49
aI57
asg56
VBeijing
p133
sa(dp134
g70
(lp135
I58
aI67
asg56
VShanghai
p136
sa(dp137
g70
(lp138
I68
aI78
asg56
VGuangzhou
p139
sa(dp140
g70
(lp141
I81
aI86
asg56
VXian
p142
sa(dp143
g70
(lp144
I87
aI93
asg56
VSanya
p145
sa(dp146
g70
(lp147
I94
aI101
asg56
VGuilin
p148
sa(dp149
g70
(lp150
I102
aI109
asg56
VXiamen
p151
sa(dp152
g70
(lp153
I112
aI121
asg56
VShenzhen
p154
sa(dp155
g70
(lp156
I122
aI131
asg56
VHangzhou
p157
sa(dp158
g70
(lp159
I132
aI140
asg56
VChengdu
p160
sasg25
(lp161
(dp162
g111
Vhttp://t.co/KkcrnkeptC
p163
sg70
(lp164
I24
aI46
asg114
Vhttp://www.ChinaGuidebooks.com
p165
sg116
VChinaGuidebooks.com
p166
sassg118
Nsg47
V617619571206324224
p167
sg120
I4333
sg121
Nsg122
I00
sVgeo
p168
NsVin_reply_to_user_id_str
p169
NsVpossibly_sensitive
p170
I00
sVlang
p171
Ven
p172
sVcreated_at
p173
VSun Jul 05 09:02:35 +0000 2015
p174
sVin_reply_to_status_id_str
p175
NsVplace
p176
Nssg168
Nsg169
Nsg170
I00
sg171
Ven
p177
sg173
VWed Nov 04 13:11:39 +0000 2015
p178
sg175
Nsg176
NssVis_translation_enabled
p179
I00
sVutc_offset
p180
NsVstatuses_count
p181
I1673
sg23
V
p182
sVfriends_count
p183
I424
sVlocation
p184
g182
sVprofile_link_color
p185
V0084B4
p186
sVprofile_image_url
p187
Vhttp://pbs.twimg.com/profile_images/487340590032379904/1enl87L5_normal.jpeg
p188
sVfollowing
p189
NsVgeo_enabled
p190
I00
sVprofile_background_image_url
p191
Vhttp://abs.twimg.com/images/themes/theme1/bg.png
p192
sg73
Vdudincev_e6407
p193
sg171
Vru
p194
sVprofile_background_tile
p195
I00
sVfavourites_count
p196
I564
sg75
Verin dudincev
p197
sVnotifications
p198
Nsg111
Nsg173
VThu Jul 10 21:00:18 +0000 2014
p199
sVcontributors_enabled
p200
I00
sVtime_zone
p201
NsVprotected
p202
I00
sVdefault_profile
p203
I01
sVis_translator
p204
I00
ssS'contributors_enabled'
p205
I00
sS'profile_text_color'
p206
g40
sS'followers_count'
p207
I3
sS'profile_sidebar_border_color'
p208
g46
sS'id_str'
p209
g48
sS'default_profile_image'
p210
I00
sS'listed_count'
p211
I2
sS'status'
p212
g8
(ctweepy.models
Status
p213
g10
Ntp214
Rp215
(dp216
S'favorited'
p217
I00
sS'contributors'
p218
NsS'truncated'
p219
I00
sS'text'
p220
VRT @nehow: Free China Travel Guide http://t.co/KkcrnkeptC\u000a\u000a #Beijing #Shanghai #Guangzhou \u000a #Xian #Sanya #Guilin #Xiamen \u000a #Shenzhen #Hangz\u2026
p221
sS'source_url'
p222
Vhttp://twitter.com
p223
sS'possibly_sensitive'
p224
I00
sS'in_reply_to_status_id'
p225
NsS'geo'
p226
Nsg19
L661893570316673024L
sS'favorite_count'
p227
I0
sS'lang'
p228
g177
sS'retweeted_status'
p229
g8
(g213
g10
Ntp230
Rp231
(dp232
g217
I00
sg218
Nsg219
I00
sg220
VFree China Travel Guide http://t.co/KkcrnkeptC\u000a\u000a #Beijing #Shanghai #Guangzhou \u000a #Xian #Sanya #Guilin #Xiamen \u000a #Shenzhen #Hangzhou #Chengdu
p233
sg222
Vhttp://twitter.com
p234
sg224
I00
sg225
Nsg226
Nsg19
L617619571206324224L
sg227
I3331
sg228
g172
sg21
g127
sS'created_at'
p235
cdatetime
datetime
p236
(S'\x07\xdf\x07\x05\t\x02#\x00\x00\x00'
p237
tp238
Rp239
sg29
g124
sS'coordinates'
p240
NsS'in_reply_to_user_id_str'
p241
NsS'source'
p242
VTwitter Web Client
p243
sS'in_reply_to_status_id_str'
p244
NsS'in_reply_to_screen_name'
p245
Nsg209
g167
sS'retweeted'
p246
I00
sS'place'
p247
NsS'retweet_count'
p248
I4333
sS'in_reply_to_user_id'
p249
Nsbsg21
g64
sg235
g236
(S"\x07\xdf\x0b\x04\r\x0b'\x00\x00\x00"
p250
tp251
Rp252
sg29
g53
sg240
Nsg241
Nsg242
VTwitter Web Client
p253
sg244
Nsg245
Nsg209
g119
sg246
I00
sg247
Nsg248
I4333
sg249
NsbsS'is_translation_enabled'
p254
I00
sS'utc_offset'
p255
NsS'statuses_count'
p256
I1673
sS'description'
p257
g182
sS'friends_count'
p258
I424
sS'location'
p259
g182
sS'profile_link_color'
p260
g186
sS'profile_image_url'
p261
g188
sS'notifications'
p262
NsS'geo_enabled'
p263
I00
sS'profile_background_color'
p264
g50
sS'profile_background_image_url'
p265
g192
sS'screen_name'
p266
g193
sg228
g194
sg1
I00
sS'profile_background_tile'
p267
I00
sS'favourites_count'
p268
I564
sS'name'
p269
g197
sS'url'
p270
Nsg235
g236
(S'\x07\xde\x07\n\x15\x00\x12\x00\x00\x00'
p271
tp272
Rp273
sS'profile_background_image_url_https'
p274
g37
sS'time_zone'
p275
NsS'protected'
p276
I00
sS'default_profile'
p277
I01
sS'is_translator'
p278
I00
sbs.