(dp0
S'following'
p1
(lp2
(lp3
I431734647
aI1028164080
aI118623177
aI1711739342
aI92457245
aI298199572
aL2568075804L
aL2560064220L
aI1183811556
aL2408278927L
aI1730928487
aI1321039597
aI23771507
aL2376198084L
aL2535346560L
aL2153656071L
aL2654232069L
aI864498666
aL2582761964L
aI64859202
aL2641221758L
aI1369360440
aI365440183
aI159866889
aL2720256062L
aI377407811
aL2371923408L
aI1636178868
aL2254396868L
aL2192846508L
aI235578480
aI1183887576
aL2295334754L
aI1463224512
aL2323040006L
aI342206996
aI286043708
aI47881924
aI71545162
aI100595492
aI216779155
aL2522015064L
aI1552037270
aI868859868
aI1600297608
aL2707831716L
aL2386730596L
aI22633005
aI68425924
aI931144902
aI803890166
aI524007660
aI1730067199
aI377018034
aI31275580
aI735281455
aI1357504705
aI1375563632
aI870242101
aI408100058
aI36415257
aL2208585085L
aL2366296358L
aI1505034776
aI1951994160
aI888521419
aL2373446051L
aL2731397727L
aI114183107
aI1411688574
aL2693449776L
aI915796495
aI152831766
aI882789932
aL2697619820L
aI76136090
aI735143449
aL2651990378L
aI278224987
aL2275448672L
aI363582650
aL2691308660L
aI290170851
aI203508691
aL2511420397L
aI18942861
aL2485458836L
aI1152984595
aI520988333
aI14389782
aI24633977
aI470184862
aI92913243
aI313068848
aI1011941574
aI254931115
aL2687894059L
aI15040988
aL2686020266L
aL2618666149L
aI43942229
aL2184665196L
aI162540978
aI238507457
aL2544728480L
aL2680829412L
aL2604648534L
aL2687879756L
aL2572625041L
aI92422547
aL2182969026L
aI16657786
aI15717762
aI26952935
aL2615528953L
aI297832455
aI1517128472
aL2675274463L
aI1467031471
aI225925468
aI1316950460
aL2557963830L
aI146584479
aI366485111
aI392469861
aI175906908
aL2333546100L
aI23318841
aL2365631125L
aI359793610
aI956497549
aL2492533687L
aI401494868
aI138063851
aI39957724
aI410284783
aI1709689099
aI86689374
aL2322935827L
aI226828258
aI130748033
aI54317567
aI42430180
aI143490268
aI382734518
aI67886373
aI318590321
aI22228725
aI501652403
aI412464138
aI19380365
aI27821302
aL2406380646L
aL2721171040L
aI815651436
aL2670968364L
aI154530823
aI784352246
aI156420167
aI298988829
aI61784607
aL2666881376L
aI492948827
aL2668663442L
aL2596492621L
aI215090532
aI1070063569
aI27457454
aI9575262
aI88062856
aI1938353665
aL2668090308L
aL2639073198L
aI403776054
aI785159748
aI1465483465
aL2459839860L
aL2659475168L
aI385801760
aI1197345576
aI796574509
aL2516548284L
aI226256948
aI557855355
aI959858318
aL2297998979L
aI1191110196
aL2370591043L
aL2718713471L
aL2719577487L
aI1419965035
aI1140791539
aL2383132067L
aI164789629
aI153860327
aL2613431344L
aI26713042
aI389911227
aI866649650
aI50078104
aI568422337
aI263026031
aL2270789437L
aL2565439729L
aL2171198304L
aI52154347
aI262401685
aI169115069
aL2325848245L
aI84051650
aI78924684
aI1322307116
aL2650390117L
aI1961122069
aL2646741601L
aI1558018844
aL2558463343L
aL2309236146L
aL2657978160L
aL2659162369L
aL2646236150L
aL2370717032L
aI169964031
aL2592129798L
aL2612211582L
aI44429717
aI114664559
aL2597913606L
aI463581555
aI318421688
aI1142775523
aI45345052
aI20468996
aL2363349235L
aL2656671792L
aL2656568246L
aI160358537
aL2595429379L
aI1870053469
aI928520490
aL2482893991L
aI297855695
aI322802999
aI1602278077
aL2551840765L
aI111583872
aI530839582
aL2714256825L
aI1670726738
aI136294305
aI32317209
aL2652322208L
aL2631500255L
aI1636317235
aL2495727296L
aL2287778433L
aL2696289885L
aL2700919109L
aL2586283382L
aL2437414320L
aI317860946
aI481596421
aI1625176387
aI712367556
aL2370142220L
aI1510306508
aI1724882515
aI66935500
aL2651126569L
aL2650987188L
aL2425843340L
aL2650820024L
aI21318183
aI575919094
aI1112490181
aL2371102609L
aL2565561578L
aI819701023
aI169609728
aL2195164722L
aI42701544
aL2602196138L
aI849328400
aI207048594
aI148884827
aI1146331
aI436074648
aI632894984
aI261294221
aI480216435
aI585155929
aI271531588
aL2451722408L
aI36958042
aL2593632253L
aL2434680655L
aL2213470975L
aI564873087
aI919864417
aI26049841
aI17565293
aL2590219879L
aL2328090591L
aL2325939036L
aL2250146256L
aL2339137461L
aI38574970
aI34737026
aI97340532
aL2539691300L
aL2197126625L
aI1251289424
aI909287167
aI18968138
aI1663541358
aI338438914
aL2641783279L
aI52835309
aI532643012
aL2592134713L
aI17877444
aI413041768
aI35574246
aI929983116
aI43056691
aI176372641
aI109289215
aI1078030825
aI495499376
aI85884020
aasS'followers'
p4
(lp5
(lp6
L4113279689L
aI19978588
aI595577834
aI595564318
aI35817608
aL2950557641L
aL3148397061L
aL3443849774L
aL2213470975L
aasS'obj'
p7
ccopy_reg
_reconstructor
p8
(ctweepy.models
User
p9
c__builtin__
object
p10
Ntp11
Rp12
(dp13
S'follow_request_sent'
p14
NsS'has_extended_profile'
p15
I00
sS'profile_use_background_image'
p16
I01
sS'profile_sidebar_fill_color'
p17
VDDEEF6
p18
sS'id'
p19
L2629591686L
sS'verified'
p20
I00
sS'entities'
p21
(dp22
Vdescription
p23
(dp24
Vurls
p25
(lp26
sssS'profile_image_url_https'
p27
Vhttps://pbs.twimg.com/profile_images/488052706154532864/feL6mLXQ_normal.jpeg
p28
sS'_json'
p29
(dp30
Vfollow_request_sent
p31
NsVhas_extended_profile
p32
I00
sVprofile_use_background_image
p33
I01
sVdefault_profile_image
p34
I00
sVid
p35
L2629591686L
sVprofile_background_image_url_https
p36
Vhttps://abs.twimg.com/images/themes/theme1/bg.png
p37
sVverified
p38
I00
sVprofile_text_color
p39
V333333
p40
sVprofile_image_url_https
p41
g28
sVprofile_sidebar_fill_color
p42
g18
sVentities
p43
g22
sVfollowers_count
p44
I9
sVprofile_sidebar_border_color
p45
VC0DEED
p46
sVid_str
p47
V2629591686
p48
sVprofile_background_color
p49
VC0DEED
p50
sVlisted_count
p51
I3
sVstatus
p52
(dp53
Vcontributors
p54
NsVtruncated
p55
I00
sVtext
p56
VRT @Tdot_UCme: Ppl won't believe in your movement until it's moving..
p57
sVin_reply_to_status_id
p58
Nsg35
L661899070919811073L
sVfavorite_count
p59
I0
sVsource
p60
V<a href="http://twitter.com" rel="nofollow">Twitter Web Client</a>
p61
sVretweeted
p62
I00
sVcoordinates
p63
Nsg43
(dp64
Vsymbols
p65
(lp66
sVuser_mentions
p67
(lp68
(dp69
g35
L3712869557L
sVindices
p70
(lp71
I3
aI13
asg47
V3712869557
p72
sVscreen_name
p73
VTdot_UCme
p74
sVname
p75
VTdot useeme
p76
sasVhashtags
p77
(lp78
sg25
(lp79
ssVin_reply_to_screen_name
p80
Nsg47
V661899070919811073
p81
sVretweet_count
p82
I103
sVin_reply_to_user_id
p83
NsVfavorited
p84
I00
sVretweeted_status
p85
(dp86
Vlang
p87
Ven
p88
sg84
I00
sg43
(dp89
g65
(lp90
sg67
(lp91
sg77
(lp92
sg25
(lp93
ssg54
Nsg55
I00
sg56
VPpl won't believe in your movement until it's moving..
p94
sVcreated_at
p95
VWed Nov 04 12:38:21 +0000 2015
p96
sg62
I00
sVin_reply_to_status_id_str
p97
Nsg63
NsVin_reply_to_user_id_str
p98
Nsg60
V<a href="http://twitter.com/download/iphone" rel="nofollow">Twitter for iPhone</a>
p99
sg58
Nsg80
Nsg47
V661885189270970368
p100
sVplace
p101
Nsg82
I103
sVgeo
p102
Nsg35
L661885189270970368L
sg59
I1
sg83
Nssg102
Nsg98
Nsg87
Ven
p103
sg95
VWed Nov 04 13:33:30 +0000 2015
p104
sg97
Nsg101
NssVis_translation_enabled
p105
I00
sVutc_offset
p106
NsVstatuses_count
p107
I2175
sg23
V
p108
sVfriends_count
p109
I330
sVlocation
p110
g108
sVprofile_link_color
p111
V0084B4
p112
sVprofile_image_url
p113
Vhttp://pbs.twimg.com/profile_images/488052706154532864/feL6mLXQ_normal.jpeg
p114
sVfollowing
p115
NsVgeo_enabled
p116
I00
sVprofile_background_image_url
p117
Vhttp://abs.twimg.com/images/themes/theme1/bg.png
p118
sg73
Vfrankfurt_a605
p119
sg87
Vru
p120
sVprofile_background_tile
p121
I00
sVfavourites_count
p122
I763
sg75
Vadam frankfurt
p123
sVnotifications
p124
NsVurl
p125
Nsg95
VSat Jul 12 20:10:00 +0000 2014
p126
sVcontributors_enabled
p127
I00
sVtime_zone
p128
NsVprotected
p129
I00
sVdefault_profile
p130
I01
sVis_translator
p131
I00
ssS'contributors_enabled'
p132
I00
sS'profile_text_color'
p133
g40
sS'followers_count'
p134
I9
sS'profile_sidebar_border_color'
p135
g46
sS'id_str'
p136
g48
sS'default_profile_image'
p137
I00
sS'listed_count'
p138
I3
sS'status'
p139
g8
(ctweepy.models
Status
p140
g10
Ntp141
Rp142
(dp143
S'favorited'
p144
I00
sS'contributors'
p145
NsS'truncated'
p146
I00
sS'text'
p147
g57
sS'source_url'
p148
Vhttp://twitter.com
p149
sS'in_reply_to_status_id'
p150
NsS'geo'
p151
Nsg19
L661899070919811073L
sS'favorite_count'
p152
I0
sS'lang'
p153
g103
sS'retweeted_status'
p154
g8
(g140
g10
Ntp155
Rp156
(dp157
g144
I00
sg145
Nsg146
I00
sg147
g94
sg148
Vhttp://twitter.com/download/iphone
p158
sg150
Nsg151
Nsg19
L661885189270970368L
sg152
I1
sg153
g88
sg21
g89
sS'created_at'
p159
cdatetime
datetime
p160
(S'\x07\xdf\x0b\x04\x0c&\x15\x00\x00\x00'
p161
tp162
Rp163
sg29
g86
sS'coordinates'
p164
NsS'in_reply_to_user_id_str'
p165
NsS'source'
p166
VTwitter for iPhone
p167
sS'in_reply_to_status_id_str'
p168
NsS'in_reply_to_screen_name'
p169
Nsg136
g100
sS'retweeted'
p170
I00
sS'place'
p171
NsS'retweet_count'
p172
I103
sS'in_reply_to_user_id'
p173
Nsbsg21
g64
sg159
g160
(S'\x07\xdf\x0b\x04\r!\x1e\x00\x00\x00'
p174
tp175
Rp176
sg29
g53
sg164
Nsg165
Nsg166
VTwitter Web Client
p177
sg168
Nsg169
Nsg136
g81
sg170
I00
sg171
Nsg172
I103
sg173
NsbsS'is_translation_enabled'
p178
I00
sS'utc_offset'
p179
NsS'statuses_count'
p180
I2175
sS'description'
p181
g108
sS'friends_count'
p182
I330
sS'location'
p183
g108
sS'profile_link_color'
p184
g112
sS'profile_image_url'
p185
g114
sS'notifications'
p186
NsS'geo_enabled'
p187
I00
sS'profile_background_color'
p188
g50
sS'profile_background_image_url'
p189
g118
sS'screen_name'
p190
g119
sg153
g120
sg1
I00
sS'profile_background_tile'
p191
I00
sS'favourites_count'
p192
I763
sS'name'
p193
g123
sS'url'
p194
Nsg159
g160
(S'\x07\xde\x07\x0c\x14\n\x00\x00\x00\x00'
p195
tp196
Rp197
sS'profile_background_image_url_https'
p198
g37
sS'time_zone'
p199
NsS'protected'
p200
I00
sS'default_profile'
p201
I01
sS'is_translator'
p202
I00
sbs.