(dp0
S'following'
p1
(lp2
(lp3
L2557183339L
aI147998139
aL2831626602L
aI1559973577
aI444938818
aL2303948004L
aL2820360223L
aL2230650251L
aI86208515
aI409309769
aI392942637
aI243484634
aL2774687256L
aL2821416581L
aL2822161984L
aI485881472
aL2680577468L
aI586549017
aL2827839154L
aI41481779
aL2539599125L
aI288186280
aI280058256
aI166946877
aL2795223195L
aL2780598760L
aL2751788819L
aI45133573
aL2788447711L
aL2557412970L
aL2823585861L
aI1314931488
aI1365510480
aI806890321
aI806810600
aI174651148
aL2778100373L
aI250919533
aL2801835409L
aL2532531409L
aI95196779
aI152682603
aL2813338559L
aL2450209980L
aI450805121
aI454592200
aL2209299949L
aI211151198
aI561642422
aI1330366183
aL2492940694L
aL2548048646L
aL2728937544L
aI142277840
aI154530823
aL2563646022L
aI89017213
aL2233583126L
aI1951994160
aI354418265
aL2286933728L
aL2451913472L
aI1097041136
aI18257487
aI275424713
aL2572830134L
aL2676695107L
aL2707537280L
aI234440202
aI271778688
aI735232200
aI412667936
aI1355357792
aI1375563632
aI444713414
aI969339846
aI618275125
aI408100058
aI36415257
aL2680059420L
aI1852079359
aI29458878
aI1447362248
aL2706435235L
aL2706080292L
aL2366296358L
aL2373446051L
aI1636317235
aI18968138
aL2701337196L
aL2418978690L
aL2483307072L
aI60294855
aI322802999
aI121364465
aI542840469
aI458703740
aI735280746
aI33109387
aI452252545
aL2662909293L
aI278224987
aI1945272390
aI241639290
aL2607803601L
aI1184284272
aL2691308660L
aI16794731
aI540750580
aI1711739342
aI26713042
aI888521419
aI174287049
aI232835092
aI1270699333
aI525713285
aI1152984595
aL2354928007L
aI520988333
aI391695251
aI1369360440
aI24633977
aI627578922
aI1011941574
aI223887223
aI204294770
aI1928251969
aI176700174
aI1869402187
aL2686020266L
aL2679122258L
aL2544728480L
aI100218359
aI53579217
aI87299677
aL2687913199L
aL2687906803L
aI23239561
aL2572625041L
aL2432830056L
aI92422547
aL2182969026L
aI1273532971
aI1166053044
aL2288287814L
aI149072356
aI780469045
aI1258243938
aL2495445295L
aI162540978
aI16657786
aI15717762
aI1483185702
aL2682689976L
aL2661656306L
aL2667910046L
aI1467031471
aI228679953
aI146584479
aL2184665196L
aI15369494
aL2552330280L
aI266171036
aL2675521650L
aI541940527
aL2641221758L
aI225464263
aI128847518
aL2654259266L
aI175906908
aI54526838
aL2333555209L
aL2333547090L
aI31541303
aI39957724
aI1316950460
aI86689374
aI79210652
aI96777357
aL2679648534L
aL2370909984L
aI226828258
aI130748033
aI42430180
aI318590321
aL2591772410L
aL2676066667L
aL2615964517L
aL2672307570L
aL2341729783L
aI815651436
aL2557963830L
aI32896052
aI43942229
aI486307695
aI62124341
aI1961122069
aI61784607
aL2187117308L
aI226256948
aL2618666149L
aI89299874
aL2258078502L
aI402156828
aI9575262
aL2601441752L
aL2669034566L
aI88062856
aI81594412
aL2639073198L
aI27546916
aI1465483465
aI425928244
aL2666881376L
aI1852975866
aI1197345576
aI120325806
aI796574509
aI213367995
aL2595597943L
aI30500021
aI44248272
aI557855355
aI19846821
aI30402965
aL2511524101L
aI129964269
aI564873087
aL2587469552L
aL2718713471L
aL2283115388L
aI455667745
aL2719577487L
aI541973128
aL2656805130L
aI1732251638
aI1140791539
aI366100907
aI299404666
aL2662211485L
aI263026031
aL2279210012L
aI135325668
aL2436404257L
aL2256003930L
aI42012778
aL2422806902L
aI1905401383
aI169115069
aI1322307116
aI40200769
aL2717809126L
aL2659988276L
aI37962229
aI1558018844
aL2558463343L
aL2309236146L
aI362416241
aL2659162369L
aL2658682692L
aI529004684
aI70806516
aL2597913606L
aL2512121120L
aI463581555
aL2714990693L
aI1142775523
aI40370554
aI284235479
aI20468996
aI44209472
aL2655023160L
aL2656671792L
aL2609629190L
aI160358537
aL2656342555L
aL2595429379L
aI1870053469
aI95589085
aL2279654473L
aI928520490
aI26481436
aI297855695
aL2575097382L
aI49152794
aI857016900
aI241290766
aI20698672
aI1379462672
aI111583872
aL2646296754L
aI36358595
aI259701844
aL2571167280L
aI1670726738
aI96234511
aL2640043440L
aI24466879
aI84551845
aL2631500255L
aL2555242525L
aI1074633152
aI392469861
aI148884827
aL2287778433L
aL2696289885L
aL2614447249L
aI26967581
aI85880042
aI102212758
aL2512353144L
aI1625176387
aI23436748
aI864498666
aL2647525039L
aI862535828
aL2548180424L
aL2589919345L
aL2425843340L
aL2483825419L
aI21318183
aI457745066
aI575919094
aI408843375
aI144118420
aL2647300380L
aL2649597140L
aL2371102609L
aI819701023
aI855510108
aL2195164722L
aI42701544
aL2600706613L
aI598986922
aI207048594
aL2484669638L
aI1577362050
aL2155037797L
aL2646315536L
aI271531588
aI127195708
aI92048782
aI276234557
aI1523954131
aI56302626
aI139966117
aL2511902456L
aI204385761
aL2434680655L
aI900648750
aI1635943718
aI919864417
aI71771202
aI26049841
aI85739643
aL2436713407L
aL2250146256L
aL2320766444L
aI38574970
aL2539691300L
aI481284459
aI524862961
aI480819245
aI909287167
aI318424356
aL2526305030L
aI1663541358
aI285500319
aI52835309
aI532643012
aL2592134713L
aI158019916
aL2511413875L
aI21466859
aL2453023073L
aL2520081450L
aI135540434
aI1239875148
aI1078030825
aL2586547261L
aL2519021376L
aL2687843998L
aasS'followers'
p4
(lp5
(lp6
L2944884544L
aL3312667008L
aL3528309136L
aL2649804294L
aL2483307072L
aL2195164722L
aI1467031471
aL2548180424L
aasS'obj'
p7
ccopy_reg
_reconstructor
p8
(ctweepy.models
User
p9
c__builtin__
object
p10
Ntp11
Rp12
(dp13
S'follow_request_sent'
p14
NsS'has_extended_profile'
p15
I00
sS'profile_use_background_image'
p16
I01
sS'profile_sidebar_fill_color'
p17
VDDEEF6
p18
sS'id'
p19
L2629739816L
sS'verified'
p20
I00
sS'entities'
p21
(dp22
Vdescription
p23
(dp24
Vurls
p25
(lp26
sssS'profile_image_url_https'
p27
Vhttps://pbs.twimg.com/profile_images/488054341559791617/khG_j_u6_normal.jpeg
p28
sS'_json'
p29
(dp30
Vfollow_request_sent
p31
NsVhas_extended_profile
p32
I00
sVprofile_use_background_image
p33
I01
sVdefault_profile_image
p34
I00
sVid
p35
L2629739816L
sVprofile_background_image_url_https
p36
Vhttps://abs.twimg.com/images/themes/theme1/bg.png
p37
sVverified
p38
I00
sVprofile_text_color
p39
V333333
p40
sVprofile_image_url_https
p41
g28
sVprofile_sidebar_fill_color
p42
g18
sVentities
p43
g22
sVfollowers_count
p44
I8
sVprofile_sidebar_border_color
p45
VC0DEED
p46
sVid_str
p47
V2629739816
p48
sVprofile_background_color
p49
VC0DEED
p50
sVlisted_count
p51
I3
sVstatus
p52
(dp53
Vcontributors
p54
NsVtruncated
p55
I00
sVtext
p56
VRT @iTunesMusicTop: Enya - So I Could Find My Way https://t.co/7l9V6imAnw
p57
sVin_reply_to_status_id
p58
Nsg35
L661892706529124352L
sVfavorite_count
p59
I0
sVsource
p60
V<a href="http://twitter.com" rel="nofollow">Twitter Web Client</a>
p61
sVretweeted
p62
I00
sVcoordinates
p63
Nsg43
(dp64
Vsymbols
p65
(lp66
sVuser_mentions
p67
(lp68
(dp69
g35
L2935509226L
sVindices
p70
(lp71
I3
aI18
asg47
V2935509226
p72
sVscreen_name
p73
ViTunesMusicTop
p74
sVname
p75
VFresh Music Only!
p76
sasVhashtags
p77
(lp78
sg25
(lp79
(dp80
Vurl
p81
Vhttps://t.co/7l9V6imAnw
p82
sg70
(lp83
I50
aI73
asVexpanded_url
p84
Vhttps://youtu.be/spVHV9VfY8w
p85
sVdisplay_url
p86
Vyoutu.be/spVHV9VfY8w
p87
sassVin_reply_to_screen_name
p88
Nsg47
V661892706529124352
p89
sVretweet_count
p90
I100
sVin_reply_to_user_id
p91
NsVfavorited
p92
I00
sVretweeted_status
p93
(dp94
g54
Nsg55
I00
sg56
VEnya - So I Could Find My Way https://t.co/7l9V6imAnw
p95
sg58
Nsg35
L661883135081250817L
sg59
I104
sg60
V<a href="http://twitter.com" rel="nofollow">Twitter Web Client</a>
p96
sg62
I00
sg63
Nsg43
(dp97
g65
(lp98
sg67
(lp99
sg77
(lp100
sg25
(lp101
(dp102
g81
Vhttps://t.co/7l9V6imAnw
p103
sg70
(lp104
I30
aI53
asg84
Vhttps://youtu.be/spVHV9VfY8w
p105
sg86
Vyoutu.be/spVHV9VfY8w
p106
sassg88
Nsg47
V661883135081250817
p107
sg90
I100
sg91
Nsg92
I00
sVgeo
p108
NsVin_reply_to_user_id_str
p109
NsVpossibly_sensitive
p110
I00
sVlang
p111
Ven
p112
sVcreated_at
p113
VWed Nov 04 12:30:11 +0000 2015
p114
sVin_reply_to_status_id_str
p115
NsVplace
p116
Nssg108
Nsg109
Nsg110
I00
sg111
Ven
p117
sg113
VWed Nov 04 13:08:13 +0000 2015
p118
sg115
Nsg116
NssVis_translation_enabled
p119
I00
sVutc_offset
p120
NsVstatuses_count
p121
I1840
sg23
V
p122
sVfriends_count
p123
I382
sVlocation
p124
g122
sVprofile_link_color
p125
V0084B4
p126
sVprofile_image_url
p127
Vhttp://pbs.twimg.com/profile_images/488054341559791617/khG_j_u6_normal.jpeg
p128
sVfollowing
p129
NsVgeo_enabled
p130
I00
sVprofile_background_image_url
p131
Vhttp://abs.twimg.com/images/themes/theme1/bg.png
p132
sg73
Vberzov_e6021
p133
sg111
Vru
p134
sVprofile_background_tile
p135
I00
sVfavourites_count
p136
I631
sg75
Vethan berzov
p137
sVnotifications
p138
Nsg81
Nsg113
VSat Jul 12 20:16:31 +0000 2014
p139
sVcontributors_enabled
p140
I00
sVtime_zone
p141
NsVprotected
p142
I00
sVdefault_profile
p143
I01
sVis_translator
p144
I00
ssS'contributors_enabled'
p145
I00
sS'profile_text_color'
p146
g40
sS'followers_count'
p147
I8
sS'profile_sidebar_border_color'
p148
g46
sS'id_str'
p149
g48
sS'default_profile_image'
p150
I00
sS'listed_count'
p151
I3
sS'status'
p152
g8
(ctweepy.models
Status
p153
g10
Ntp154
Rp155
(dp156
S'favorited'
p157
I00
sS'contributors'
p158
NsS'truncated'
p159
I00
sS'text'
p160
g57
sS'source_url'
p161
Vhttp://twitter.com
p162
sS'possibly_sensitive'
p163
I00
sS'in_reply_to_status_id'
p164
NsS'geo'
p165
Nsg19
L661892706529124352L
sS'favorite_count'
p166
I0
sS'lang'
p167
g117
sS'retweeted_status'
p168
g8
(g153
g10
Ntp169
Rp170
(dp171
g157
I00
sg158
Nsg159
I00
sg160
g95
sg161
Vhttp://twitter.com
p172
sg163
I00
sg164
Nsg165
Nsg19
L661883135081250817L
sg166
I104
sg167
g112
sg21
g97
sS'created_at'
p173
cdatetime
datetime
p174
(S'\x07\xdf\x0b\x04\x0c\x1e\x0b\x00\x00\x00'
p175
tp176
Rp177
sg29
g94
sS'coordinates'
p178
NsS'in_reply_to_user_id_str'
p179
NsS'source'
p180
VTwitter Web Client
p181
sS'in_reply_to_status_id_str'
p182
NsS'in_reply_to_screen_name'
p183
Nsg149
g107
sS'retweeted'
p184
I00
sS'place'
p185
NsS'retweet_count'
p186
I100
sS'in_reply_to_user_id'
p187
Nsbsg21
g64
sg173
g174
(S'\x07\xdf\x0b\x04\r\x08\r\x00\x00\x00'
p188
tp189
Rp190
sg29
g53
sg178
Nsg179
Nsg180
VTwitter Web Client
p191
sg182
Nsg183
Nsg149
g89
sg184
I00
sg185
Nsg186
I100
sg187
NsbsS'is_translation_enabled'
p192
I00
sS'utc_offset'
p193
NsS'statuses_count'
p194
I1840
sS'description'
p195
g122
sS'friends_count'
p196
I382
sS'location'
p197
g122
sS'profile_link_color'
p198
g126
sS'profile_image_url'
p199
g128
sS'notifications'
p200
NsS'geo_enabled'
p201
I00
sS'profile_background_color'
p202
g50
sS'profile_background_image_url'
p203
g132
sS'screen_name'
p204
g133
sg167
g134
sg1
I00
sS'profile_background_tile'
p205
I00
sS'favourites_count'
p206
I631
sS'name'
p207
g137
sS'url'
p208
Nsg173
g174
(S'\x07\xde\x07\x0c\x14\x10\x1f\x00\x00\x00'
p209
tp210
Rp211
sS'profile_background_image_url_https'
p212
g37
sS'time_zone'
p213
NsS'protected'
p214
I00
sS'default_profile'
p215
I01
sS'is_translator'
p216
I00
sbs.