(dp0
S'following'
p1
(lp2
(lp3
L2438160103L
aI1049162834
aL2541157494L
aI113747991
aI278860757
aL2741696574L
aI22960461
aI897156446
aI234689431
aI59147927
aL2717273886L
aI149977469
aI31317551
aI406516959
aL2722882722L
aL2371355597L
aI116498273
aI186882488
aI394975971
aI764052127
aL2694260598L
aI475734771
aI181984199
aI149165844
aL2685930805L
aI1904521428
aL2762131693L
aL2728937544L
aL2741327809L
aL2767967713L
aI455445236
aL2577168444L
aI201708187
aI1315070816
aI372362321
aI1253006348
aI492579793
aI185204718
aL2470338878L
aL2197099334L
aL2660646876L
aI1924580042
aL2751726839L
aI80309343
aL2699433314L
aL2364608858L
aI399011947
aL2740297622L
aL2549948641L
aI183731193
aI21812037
aI340181951
aL2251264301L
aI49108098
aL2763019843L
aI164305768
aI439827315
aL2458146608L
aI214953256
aI1129058617
aL2745384343L
aL2695626175L
aI1385371622
aL2706376363L
aI974487643
aL2323049886L
aL2416474021L
aI214707345
aI122009091
aI473017148
aL2739781592L
aI53004765
aI95701072
aI1654339098
aI360869459
aI34321909
aI16838276
aI236636515
aI71178851
aI1653676969
aI1617783366
aI321970717
aI20835456
aL2721845709L
aI356461659
aI1020190998
aI297904750
aI400014805
aI487605970
aI382890597
aI358079011
aI590285184
aL2598495900L
aI1854251720
aL2290568647L
aI807053372
aI1465657616
aI199359691
aI1510489374
aL2672729898L
aI220714700
aL2307569686L
aL2727698496L
aI442076938
aI468929493
aI1965326180
aL2740418003L
aI1086973130
aI310127685
aI306051110
aL2722735394L
aI6176772
aI215151029
aI870508843
aI28351859
aL2722249136L
aI431734647
aI1978447399
aL2262081440L
aL2738567116L
aI92457245
aI298199572
aI709812866
aL2560064220L
aI309719235
aL2616457181L
aI151965578
aI583105289
aL2726981009L
aL2703473502L
aL2546797939L
aL2376198084L
aL2639264672L
aL2153656071L
aI14285154
aI995267737
aI377407811
aL2254396868L
aI975763076
aI1186175017
aI1183887576
aI956226097
aL2323040006L
aL2342620233L
aL2250146256L
aL2319496951L
aL2328288001L
aL2611825700L
aI286043708
aL2707528130L
aI47881924
aI71545162
aI100595492
aI216779155
aL2701325707L
aI1552037270
aI868859868
aL2707831716L
aL2386730596L
aI590446923
aI1002752810
aI806415434
aI535519961
aI146584479
aI321135515
aI590235146
aI928144556
aI508769723
aI185288697
aI224395586
aL2647223886L
aL2458539979L
aL2674100683L
aI517119792
aL2713187132L
aL2657616223L
aI382876858
aL2379971325L
aI210630683
aI152831766
aI1610593988
aI291503109
aI253129670
aI34737026
aL2666594869L
aL2730523780L
aI189018042
aI1339425901
aL2321090622L
aI408100058
aL2711781750L
aI190993417
aI30618692
aI381880067
aI365440183
aL2286933728L
aI955982712
aL2451913472L
aI1369360440
aI158941108
aI275424713
aI1951994160
aL2572830134L
aI234440202
aI271778688
aI450229110
aI1256203806
aI377018034
aI1912251697
aI735281455
aL2704912783L
aI395250270
aI540750580
aI1966756980
aL2437466689L
aI468423400
aI178006495
aL2366296358L
aI42640655
aI888521419
aL2373446051L
aI1636317235
aI18968138
aL2703963990L
aL2731397727L
aL2228475781L
aI1411688574
aL2644061215L
aI44467396
aI23029453
aI33109387
aI735143449
aI313707747
aL2692561711L
aI212212089
aI1711739342
aI1005293959
aI488127983
aI18942861
aL2689282050L
aI525713285
aI20393230
aI1152984595
aI257159929
aI1459654753
aL2354928007L
aI19487886
aI465827508
aI14389782
aI24633977
aI627578922
aI204294770
aI472074067
aI358701035
aL2679122258L
aI42430180
aI38574970
aL2184665196L
aI136458588
aL2560899660L
aL2544728480L
aI53579217
aI701014194
aL2654779818L
aL2687913199L
aL2278100954L
aL2572625041L
aI92422547
aI1273532971
aI1166053044
aI594424144
aL2685390260L
aI1258243938
aL2495445295L
aI162540978
aI16657786
aI287531586
aL2682689976L
aL2661656306L
aL2182969026L
aI1848951512
aI15369494
aI84726219
aL2552330280L
aI366485111
aI541940527
aL2675274463L
aL2725450319L
aI510840144
aI20289545
aL2333551124L
aI120332307
aI1316950460
aI68476851
aI543874719
aL2485957286L
aI226828258
aI60294741
aL2315147609L
aI455742494
aI1195042550
aI1055558648
aL2380847599L
aI17874926
aI410818942
aI33492443
aI1147330586
aI897832681
aI27821302
aL2718663195L
aL2400071958L
aI815651436
aL2557963830L
aI43942229
aI154530823
aL2162141892L
aI62124341
aI1961122069
aI61784607
aI22429694
aI204384761
aI226256948
aL2666881376L
aI492948827
aL2258078502L
aI315663067
aI1305382992
aI149721560
aL2617265256L
aL2570561827L
aI27546916
aL2316136362L
aI320307810
aI1197345576
aI1577706050
aI121364465
aL2222623155L
aI219488642
aI22228725
aI241135890
aL2187117308L
aL2584585388L
aI42701544
aL2584216555L
aL2666594900L
aI1554308076
aI1191110196
aI91420024
aL2447303569L
aI607729831
aI1419965035
aI375217569
aI1732251638
aI1870053469
aI1140791539
aL2365631125L
aL2613431344L
aI26713042
aI589012047
aI366100907
aI513296407
aL2470981772L
aI592441336
aL2363349235L
aI568422337
aL2329227986L
aI263026031
aL2565439729L
aI582517122
aL2653116660L
aL2552214343L
aI52154347
aL2661968402L
aL2256003930L
aI169115069
aL2325848245L
aI864000018
aI74958092
aI475627990
aL2659955006L
aL2659988276L
aL2558463343L
aI362416241
aI111583872
aL2659162369L
aI110138948
aI359790148
aI169964031
aI114664559
aI153860327
aL2597913606L
aL2512121120L
aI463581555
aI14594290
aI408770217
aI1074633152
aI885888386
aI609150188
aI461559163
aL2655941234L
aI160358537
aI31076914
aL2482893991L
aI928520490
aI26481436
aI1532664223
aI297855695
aI480969711
aI17433591
aI15110312
aL2551840765L
aL2535612126L
aI36020107
aI33422992
aI1558018844
aL2640436159L
aI712352391
aI1670726738
aI1973110394
aL2653489884L
aL2604095432L
aI1490300052
aI32317209
aL2652322208L
aL2631500255L
aL2555242525L
aI1195045592
aL2588405865L
aI438366309
aL2608174434L
aL2700948123L
aL2196546632L
aL2696289885L
aL2651814061L
aI1455630289
aL2437414320L
aL2466326054L
aI1469660306
aI557855355
aL2579145127L
aL2512353144L
aI1898247722
aI1683045271
aI864498666
aI382540569
aI66935500
aL2650820024L
aI44376201
aI553917289
aL2650824235L
aI21318183
aL2611608062L
aI575919094
aI91380675
aL2371102609L
aI819701023
aI855510108
aL2595429379L
aI72764133
aI207048594
aI396197933
aI224006311
aI149878184
aL2648118709L
aI632894984
aL2608124497L
aL2332350522L
aI271531588
aI127195708
aI1097041136
aL2617104356L
aL2451722408L
aI796574509
aI276234557
aI194962708
aI18876464
aI1911303422
aI1635943718
aI919864417
aI71771202
aI26049841
aI85739643
aL2644515998L
aL2331781479L
aI144790862
aI175721864
aI213367995
aI1917684800
aI909287167
aI318424356
aL2526305030L
aL2535102894L
aL2187233760L
aI1663541358
aI338438914
aL2529977708L
aI52835309
aI532643012
aI1004495286
aL2592134713L
aI88284621
aI78558305
aL2572857854L
aI1004101656
aI196210451
aL2574977136L
aL2453023073L
aI104230403
aI14945250
aL2342789239L
aI1078030825
aI952167139
aI85884020
aasS'followers'
p4
(lp5
(lp6
I19978588
aL2524670696L
aL2810606343L
aI1104367171
aL3331321474L
aL2392188434L
aasS'obj'
p7
ccopy_reg
_reconstructor
p8
(ctweepy.models
User
p9
c__builtin__
object
p10
Ntp11
Rp12
(dp13
S'follow_request_sent'
p14
NsS'has_extended_profile'
p15
I00
sS'profile_use_background_image'
p16
I01
sS'profile_sidebar_fill_color'
p17
VDDEEF6
p18
sS'id'
p19
L2629696560L
sS'verified'
p20
I00
sS'entities'
p21
(dp22
Vdescription
p23
(dp24
Vurls
p25
(lp26
sssS'profile_image_url_https'
p27
Vhttps://pbs.twimg.com/profile_images/488054030539563008/b-UNG7uO_normal.jpeg
p28
sS'_json'
p29
(dp30
Vfollow_request_sent
p31
NsVhas_extended_profile
p32
I00
sVprofile_use_background_image
p33
I01
sVdefault_profile_image
p34
I00
sVid
p35
L2629696560L
sVprofile_background_image_url_https
p36
Vhttps://abs.twimg.com/images/themes/theme1/bg.png
p37
sVverified
p38
I00
sVprofile_text_color
p39
V333333
p40
sVprofile_image_url_https
p41
g28
sVprofile_sidebar_fill_color
p42
g18
sVentities
p43
g22
sVfollowers_count
p44
I6
sVprofile_sidebar_border_color
p45
VC0DEED
p46
sVid_str
p47
V2629696560
p48
sVprofile_background_color
p49
VC0DEED
p50
sVlisted_count
p51
I9
sVstatus
p52
(dp53
Vcontributors
p54
NsVtruncated
p55
I00
sVtext
p56
VRT @LexityWavez: @Red_Cree please tell me this was you http://t.co/JjpupwpDcY
p57
sVin_reply_to_status_id
p58
Nsg35
L661903922248871937L
sVfavorite_count
p59
I0
sVsource
p60
V<a href="http://twitter.com" rel="nofollow">Twitter Web Client</a>
p61
sVretweeted
p62
I00
sVcoordinates
p63
Nsg43
(dp64
Vsymbols
p65
(lp66
sVuser_mentions
p67
(lp68
(dp69
g35
L3371247779L
sVindices
p70
(lp71
I3
aI15
asg47
V3371247779
p72
sVscreen_name
p73
VLexityWavez
p74
sVname
p75
VLexity_Wavez
p76
sa(dp77
g35
I1568782699
sg70
(lp78
I17
aI26
asg47
V1568782699
p79
sg73
VRed_Cree
p80
sg75
VRed Cree - PS4
p81
sasVhashtags
p82
(lp83
sg25
(lp84
sVmedia
p85
(lp86
(dp87
Vsource_user_id
p88
L3371247779L
sVsource_status_id_str
p89
V655760066965032961
p90
sVexpanded_url
p91
Vhttp://twitter.com/LexityWavez/status/655760066965032961/photo/1
p92
sVdisplay_url
p93
Vpic.twitter.com/JjpupwpDcY
p94
sVurl
p95
Vhttp://t.co/JjpupwpDcY
p96
sVmedia_url_https
p97
Vhttps://pbs.twimg.com/media/CRm6S2MUcAMQrx-.jpg
p98
sVsource_user_id_str
p99
V3371247779
p100
sVsource_status_id
p101
L655760066965032961L
sg47
V655760053706715139
p102
sVsizes
p103
(dp104
Vsmall
p105
(dp106
Vh
p107
I255
sVresize
p108
Vfit
p109
sVw
p110
I340
ssVlarge
p111
(dp112
g107
I768
sg108
Vfit
p113
sg110
I1024
ssVmedium
p114
(dp115
g107
I450
sg108
Vfit
p116
sg110
I600
ssVthumb
p117
(dp118
g107
I150
sg108
Vcrop
p119
sg110
I150
sssg70
(lp120
I55
aI77
asVtype
p121
Vphoto
p122
sg35
L655760053706715139L
sVmedia_url
p123
Vhttp://pbs.twimg.com/media/CRm6S2MUcAMQrx-.jpg
p124
sassVin_reply_to_screen_name
p125
Nsg47
V661903922248871937
p126
sVretweet_count
p127
I111
sVin_reply_to_user_id
p128
NsVfavorited
p129
I00
sVretweeted_status
p130
(dp131
g54
Nsg55
I00
sg56
V@Red_Cree please tell me this was you http://t.co/JjpupwpDcY
p132
sg58
Nsg35
L655760066965032961L
sg59
I170
sg60
V<a href="http://twitter.com/download/iphone" rel="nofollow">Twitter for iPhone</a>
p133
sg62
I00
sg63
Nsg43
(dp134
g65
(lp135
sg67
(lp136
(dp137
g35
I1568782699
sg70
(lp138
I0
aI9
asg47
V1568782699
p139
sg73
VRed_Cree
p140
sg75
VRed Cree - PS4
p141
sasg82
(lp142
sg25
(lp143
sg85
(lp144
(dp145
g91
Vhttp://twitter.com/LexityWavez/status/655760066965032961/photo/1
p146
sg93
Vpic.twitter.com/JjpupwpDcY
p147
sg95
Vhttp://t.co/JjpupwpDcY
p148
sg97
Vhttps://pbs.twimg.com/media/CRm6S2MUcAMQrx-.jpg
p149
sg47
V655760053706715139
p150
sg103
(dp151
g105
(dp152
g107
I255
sg108
Vfit
p153
sg110
I340
ssg111
(dp154
g107
I768
sg108
Vfit
p155
sg110
I1024
ssg114
(dp156
g107
I450
sg108
Vfit
p157
sg110
I600
ssg117
(dp158
g107
I150
sg108
Vcrop
p159
sg110
I150
sssg70
(lp160
I38
aI60
asg121
Vphoto
p161
sg35
L655760053706715139L
sg123
Vhttp://pbs.twimg.com/media/CRm6S2MUcAMQrx-.jpg
p162
sassg125
VRed_Cree
p163
sg47
V655760066965032961
p164
sg127
I111
sg128
I1568782699
sg129
I00
sVgeo
p165
NsVin_reply_to_user_id_str
p166
V1568782699
p167
sVpossibly_sensitive
p168
I00
sVlang
p169
Ven
p170
sVcreated_at
p171
VSun Oct 18 14:59:18 +0000 2015
p172
sVin_reply_to_status_id_str
p173
NsVplace
p174
Nssg165
Nsg166
Nsg168
I00
sg169
Ven
p175
sg171
VWed Nov 04 13:52:47 +0000 2015
p176
sg173
Nsg174
NssVis_translation_enabled
p177
I00
sVutc_offset
p178
NsVstatuses_count
p179
I2304
sg23
V
p180
sVfriends_count
p181
I513
sVlocation
p182
g180
sVprofile_link_color
p183
V0084B4
p184
sVprofile_image_url
p185
Vhttp://pbs.twimg.com/profile_images/488054030539563008/b-UNG7uO_normal.jpeg
p186
sVfollowing
p187
NsVgeo_enabled
p188
I00
sVprofile_background_image_url
p189
Vhttp://abs.twimg.com/images/themes/theme1/bg.png
p190
sg73
Vdeplani_a1297
p191
sg169
Vru
p192
sVprofile_background_tile
p193
I00
sVfavourites_count
p194
I842
sg75
Vaaliyah deplani
p195
sVnotifications
p196
Nsg95
Nsg171
VSat Jul 12 20:15:16 +0000 2014
p197
sVcontributors_enabled
p198
I00
sVtime_zone
p199
NsVprotected
p200
I00
sVdefault_profile
p201
I01
sVis_translator
p202
I00
ssS'contributors_enabled'
p203
I00
sS'profile_text_color'
p204
g40
sS'followers_count'
p205
I6
sS'profile_sidebar_border_color'
p206
g46
sS'id_str'
p207
g48
sS'default_profile_image'
p208
I00
sS'listed_count'
p209
I9
sS'status'
p210
g8
(ctweepy.models
Status
p211
g10
Ntp212
Rp213
(dp214
S'favorited'
p215
I00
sS'contributors'
p216
NsS'truncated'
p217
I00
sS'text'
p218
g57
sS'source_url'
p219
Vhttp://twitter.com
p220
sS'possibly_sensitive'
p221
I00
sS'in_reply_to_status_id'
p222
NsS'geo'
p223
Nsg19
L661903922248871937L
sS'favorite_count'
p224
I0
sS'lang'
p225
g175
sS'retweeted_status'
p226
g8
(g211
g10
Ntp227
Rp228
(dp229
g215
I00
sg216
Nsg217
I00
sg218
g132
sg219
Vhttp://twitter.com/download/iphone
p230
sg221
I00
sg222
Nsg223
Nsg19
L655760066965032961L
sg224
I170
sg225
g170
sg21
g134
sS'created_at'
p231
cdatetime
datetime
p232
(S'\x07\xdf\n\x12\x0e;\x12\x00\x00\x00'
p233
tp234
Rp235
sg29
g131
sS'coordinates'
p236
NsS'in_reply_to_user_id_str'
p237
g167
sS'source'
p238
VTwitter for iPhone
p239
sS'in_reply_to_status_id_str'
p240
NsS'in_reply_to_screen_name'
p241
g163
sg207
g164
sS'retweeted'
p242
I00
sS'place'
p243
NsS'retweet_count'
p244
I111
sS'in_reply_to_user_id'
p245
I1568782699
sbsg21
g64
sg231
g232
(S'\x07\xdf\x0b\x04\r4/\x00\x00\x00'
p246
tp247
Rp248
sg29
g53
sg236
Nsg237
Nsg238
VTwitter Web Client
p249
sg240
Nsg241
Nsg207
g126
sg242
I00
sg243
Nsg244
I111
sg245
NsbsS'is_translation_enabled'
p250
I00
sS'utc_offset'
p251
NsS'statuses_count'
p252
I2304
sS'description'
p253
g180
sS'friends_count'
p254
I513
sS'location'
p255
g180
sS'profile_link_color'
p256
g184
sS'profile_image_url'
p257
g186
sS'notifications'
p258
NsS'geo_enabled'
p259
I00
sS'profile_background_color'
p260
g50
sS'profile_background_image_url'
p261
g190
sS'screen_name'
p262
g191
sg225
g192
sg1
I00
sS'profile_background_tile'
p263
I00
sS'favourites_count'
p264
I842
sS'name'
p265
g195
sS'url'
p266
Nsg231
g232
(S'\x07\xde\x07\x0c\x14\x0f\x10\x00\x00\x00'
p267
tp268
Rp269
sS'profile_background_image_url_https'
p270
g37
sS'time_zone'
p271
NsS'protected'
p272
I00
sS'default_profile'
p273
I01
sS'is_translator'
p274
I00
sbs.