(dp0
S'following'
p1
(lp2
(lp3
I337968909
aL2584585388L
aL2722882722L
aI278860757
aL2563646022L
aI254798578
aI36813354
aL2707692031L
aL2319234066L
aL2599797398L
aL2286933728L
aL2658633008L
aI1369360440
aL2572830134L
aI130748033
aL2707537280L
aI873880164
aI1703009785
aI377018034
aI31275580
aI408100058
aI76136090
aI1505034776
aI71019033
aL2675135029L
aL2695044714L
aI1951994160
aL2373446051L
aL2352711895L
aL2703963990L
aI382876858
aI21128302
aL2681831767L
aL2228475781L
aI404432267
aL2483307072L
aI372563040
aI340091739
aI152831766
aI16326346
aI542840469
aI735280746
aI33109387
aL2566768518L
aI860113350
aI30237798
aI1219839804
aL2546329783L
aL2693405083L
aL2659666404L
aI20393230
aI1152984595
aI244800486
aL2354928007L
aI520988333
aL2451913472L
aI19487886
aI1011941574
aI46579072
aL2678183562L
aI183632897
aL2722499285L
aL2281215506L
aL2686020266L
aI1562824375
aI26713042
aI42430180
aI166434817
aI985954832
aL2544728480L
aI87299677
aI701014194
aI18532220
aI473055733
aI951857539
aL2478548545L
aL2687906803L
aL2572625041L
aI92422547
aL2656252735L
aL2685390260L
aI1258243938
aI162540978
aI16657786
aI15717762
aI1425948000
aI957474006
aL2418558174L
aI360544017
aL2682689976L
aI24913755
aI183664445
aL2311550865L
aL2557963830L
aL2570584575L
aL2552330280L
aI366485111
aL2182969026L
aI18992077
aL2641221758L
aL2522738048L
aI244581236
aI392469861
aI19357045
aI175906908
aL2333552203L
aI359793610
aI42640655
aI1472907506
aI1316950460
aI86689374
aL2400759822L
aL2573105908L
aI146288374
aI543874719
aI37937799
aI226828258
aI170906943
aI1151232560
aI1195042550
aI28912741
aI14589921
aL2652217490L
aL2647114338L
aI1147330586
aI897832681
aI27821302
aL2673804174L
aI613589375
aI43942229
aI159022331
aI154530823
aI156420167
aI298988829
aL2721185818L
aI1961122069
aI290127943
aI22429694
aL2666881376L
aI557821092
aL2616151670L
aL2653007712L
aI1709689099
aI1097041136
aI27457454
aI864000018
aI15369494
aL2653506186L
aL2601441752L
aI870593784
aL2639073198L
aI403776054
aI245320217
aI164828278
aL2659475168L
aL2665493330L
aI1197345576
aI796574509
aI30500021
aI219488642
aL2388238206L
aI557855355
aI1390878144
aI38574970
aI112399711
aL2611904010L
aI564873087
aL2665733365L
aL2297998979L
aI1554308076
aL2587469552L
aL2244563880L
aL2719577487L
aL2540749243L
aI1732251638
aI1140791539
aI164789629
aI9575262
aI412667936
aI614619018
aI174091791
aI513296407
aI1905521
aL2470981772L
aI50078104
aI568422337
aI169115069
aI110138948
aL2329227986L
aI263026031
aL2565439729L
aI81096462
aL2432160856L
aL2256003930L
aI42012778
aI84051650
aI121364465
aI1322307116
aL2236841582L
aI198787330
aI529065257
aI1558018844
aL2558463343L
aI362416241
aL2657360708L
aL2659162369L
aL2646236150L
aI172201288
aI529004684
aI169964031
aL2592129798L
aI70806516
aI225925468
aL2597913606L
aI463581555
aL2714990693L
aI318421688
aL2592118471L
aI1142775523
aI936109100
aL2648978077L
aI20468996
aL2537494608L
aL2655023160L
aL2270680633L
aL2289890732L
aI160358537
aI31076914
aI928520490
aI72529026
aI95589085
aI24383226
aI297855695
aI1334718296
aI15110312
aI965932052
aL2653766898L
aI241290766
aI111583872
aI36020107
aI530839582
aI19515721
aI36358595
aI107557629
aL2252032009L
aL2653788222L
aL2589652734L
aI1973110394
aL2653489884L
aI15356318
aI61507936
aI33785499
aI309387009
aL2640043440L
aI24466879
aI1636317235
aI19645866
aI289935688
aI589380809
aI41344511
aI26329255
aI22633005
aL2495727296L
aI713024076
aI50409671
aI219780437
aL2437414320L
aI26967581
aI1431629534
aI490995408
aI481596421
aL2579145127L
aL2696289885L
aI23436748
aL2378444195L
aI382540569
aI368331239
aL2651050045L
aI1029400598
aI575919094
aI275041730
aL2649597140L
aL2371102609L
aL2565561578L
aI819701023
aL2595429379L
aI72764133
aL2195164722L
aI42701544
aL2184665196L
aL2155037797L
aI480216435
aI123245453
aL2545742982L
aL2612634764L
aI446466005
aI271531588
aI127195708
aI92048782
aI276234557
aI194962708
aI36958042
aI394975971
aL2610490742L
aL2434680655L
aL2457036763L
aL2599730912L
aI1950096493
aI919864417
aI26049841
aI17565293
aI18942861
aL2321427704L
aL2633161764L
aI17861991
aI34737026
aI97340532
aL2539691300L
aL2422633490L
aI213367995
aI1917684800
aI909287167
aL2526305030L
aL2187233760L
aI1663541358
aI52835309
aI550239179
aL2592134713L
aI598517487
aL2493910219L
aI35574246
aL2336854801L
aI437998527
aL2572857854L
aI1475967510
aI1353479845
aI1670726738
aL2458594088L
aL2489838097L
aI1635943718
aasS'followers'
p4
(lp5
(lp6
L2524670696L
aL3314973216L
aL2279708220L
aI62321238
aI33923443
aL2483307072L
aasS'obj'
p7
ccopy_reg
_reconstructor
p8
(ctweepy.models
User
p9
c__builtin__
object
p10
Ntp11
Rp12
(dp13
S'follow_request_sent'
p14
NsS'has_extended_profile'
p15
I00
sS'profile_use_background_image'
p16
I01
sS'profile_sidebar_fill_color'
p17
VDDEEF6
p18
sS'id'
p19
L2639603467L
sS'verified'
p20
I00
sS'entities'
p21
(dp22
Vdescription
p23
(dp24
Vurls
p25
(lp26
sssS'profile_image_url_https'
p27
Vhttps://pbs.twimg.com/profile_images/488422254020022275/UtbaGKMk_normal.jpeg
p28
sS'_json'
p29
(dp30
Vfollow_request_sent
p31
NsVhas_extended_profile
p32
I00
sVprofile_use_background_image
p33
I01
sVdefault_profile_image
p34
I00
sVid
p35
L2639603467L
sVprofile_background_image_url_https
p36
Vhttps://abs.twimg.com/images/themes/theme1/bg.png
p37
sVverified
p38
I00
sVprofile_text_color
p39
V333333
p40
sVprofile_image_url_https
p41
g28
sVprofile_sidebar_fill_color
p42
g18
sVentities
p43
g22
sVfollowers_count
p44
I6
sVprofile_sidebar_border_color
p45
VC0DEED
p46
sVid_str
p47
V2639603467
p48
sVprofile_background_color
p49
VC0DEED
p50
sVlisted_count
p51
I10
sVstatus
p52
(dp53
Vcontributors
p54
NsVtruncated
p55
I00
sVtext
p56
VRT @venicewavefest: Louis king - HUMAN - Running Late by @theLouisKing  https://t.co/FPakmPuO3c
p57
sVin_reply_to_status_id
p58
Nsg35
L662382408579334145L
sVfavorite_count
p59
I0
sVsource
p60
V<a href="http://twitter.com" rel="nofollow">Twitter Web Client</a>
p61
sVretweeted
p62
I00
sVcoordinates
p63
Nsg43
(dp64
Vsymbols
p65
(lp66
sVuser_mentions
p67
(lp68
(dp69
g35
L3898164493L
sVindices
p70
(lp71
I3
aI18
asg47
V3898164493
p72
sVscreen_name
p73
Vvenicewavefest
p74
sVname
p75
VVWF Music
p76
sa(dp77
g35
I109908019
sg70
(lp78
I57
aI70
asg47
V109908019
p79
sg73
VtheLouisKing
p80
sg75
VLouis King
p81
sasVhashtags
p82
(lp83
sg25
(lp84
(dp85
Vurl
p86
Vhttps://t.co/FPakmPuO3c
p87
sg70
(lp88
I72
aI95
asVexpanded_url
p89
Vhttps://soundcloud.com/louisking/human
p90
sVdisplay_url
p91
Vsoundcloud.com/louisking/human
p92
sassVin_reply_to_screen_name
p93
Nsg47
V662382408579334145
p94
sVretweet_count
p95
I312
sVin_reply_to_user_id
p96
NsVfavorited
p97
I00
sVretweeted_status
p98
(dp99
g54
Nsg55
I00
sg56
VLouis king - HUMAN - Running Late by @theLouisKing  https://t.co/FPakmPuO3c
p100
sg58
Nsg35
L661972015662825472L
sg59
I6
sg60
V<a href="http://twitter.com/download/iphone" rel="nofollow">Twitter for iPhone</a>
p101
sg62
I00
sg63
Nsg43
(dp102
g65
(lp103
sg67
(lp104
(dp105
g35
I109908019
sg70
(lp106
I37
aI50
asg47
V109908019
p107
sg73
VtheLouisKing
p108
sg75
VLouis King
p109
sasg82
(lp110
sg25
(lp111
(dp112
g86
Vhttps://t.co/FPakmPuO3c
p113
sg70
(lp114
I52
aI75
asg89
Vhttps://soundcloud.com/louisking/human
p115
sg91
Vsoundcloud.com/louisking/human
p116
sassg93
Nsg47
V661972015662825472
p117
sg95
I312
sg96
Nsg97
I00
sVgeo
p118
NsVin_reply_to_user_id_str
p119
NsVpossibly_sensitive
p120
I00
sVlang
p121
Ven
p122
sVcreated_at
p123
VWed Nov 04 18:23:22 +0000 2015
p124
sVin_reply_to_status_id_str
p125
NsVplace
p126
Nssg118
Nsg119
Nsg120
I00
sg121
Ven
p127
sg123
VThu Nov 05 21:34:07 +0000 2015
p128
sg125
Nsg126
NssVis_translation_enabled
p129
I00
sVutc_offset
p130
NsVstatuses_count
p131
I2068
sg23
V
p132
sVfriends_count
p133
I340
sVlocation
p134
g132
sVprofile_link_color
p135
V0084B4
p136
sVprofile_image_url
p137
Vhttp://pbs.twimg.com/profile_images/488422254020022275/UtbaGKMk_normal.jpeg
p138
sVfollowing
p139
NsVgeo_enabled
p140
I00
sVprofile_background_image_url
p141
Vhttp://abs.twimg.com/images/themes/theme1/bg.png
p142
sg73
Vmikasljan_l667
p143
sg121
Vru
p144
sVprofile_background_tile
p145
I00
sVfavourites_count
p146
I661
sg75
Vleah mikasljan
p147
sVnotifications
p148
Nsg86
Nsg123
VSun Jul 13 20:38:28 +0000 2014
p149
sVcontributors_enabled
p150
I00
sVtime_zone
p151
NsVprotected
p152
I00
sVdefault_profile
p153
I01
sVis_translator
p154
I00
ssS'contributors_enabled'
p155
I00
sS'profile_text_color'
p156
g40
sS'followers_count'
p157
I6
sS'profile_sidebar_border_color'
p158
g46
sS'id_str'
p159
g48
sS'default_profile_image'
p160
I00
sS'listed_count'
p161
I10
sS'status'
p162
g8
(ctweepy.models
Status
p163
g10
Ntp164
Rp165
(dp166
S'favorited'
p167
I00
sS'contributors'
p168
NsS'truncated'
p169
I00
sS'text'
p170
g57
sS'source_url'
p171
Vhttp://twitter.com
p172
sS'possibly_sensitive'
p173
I00
sS'in_reply_to_status_id'
p174
NsS'geo'
p175
Nsg19
L662382408579334145L
sS'favorite_count'
p176
I0
sS'lang'
p177
g127
sS'retweeted_status'
p178
g8
(g163
g10
Ntp179
Rp180
(dp181
g167
I00
sg168
Nsg169
I00
sg170
g100
sg171
Vhttp://twitter.com/download/iphone
p182
sg173
I00
sg174
Nsg175
Nsg19
L661972015662825472L
sg176
I6
sg177
g122
sg21
g102
sS'created_at'
p183
cdatetime
datetime
p184
(S'\x07\xdf\x0b\x04\x12\x17\x16\x00\x00\x00'
p185
tp186
Rp187
sg29
g99
sS'coordinates'
p188
NsS'in_reply_to_user_id_str'
p189
NsS'source'
p190
VTwitter for iPhone
p191
sS'in_reply_to_status_id_str'
p192
NsS'in_reply_to_screen_name'
p193
Nsg159
g117
sS'retweeted'
p194
I00
sS'place'
p195
NsS'retweet_count'
p196
I312
sS'in_reply_to_user_id'
p197
Nsbsg21
g64
sg183
g184
(S'\x07\xdf\x0b\x05\x15"\x07\x00\x00\x00'
p198
tp199
Rp200
sg29
g53
sg188
Nsg189
Nsg190
VTwitter Web Client
p201
sg192
Nsg193
Nsg159
g94
sg194
I00
sg195
Nsg196
I312
sg197
NsbsS'is_translation_enabled'
p202
I00
sS'utc_offset'
p203
NsS'statuses_count'
p204
I2068
sS'description'
p205
g132
sS'friends_count'
p206
I340
sS'location'
p207
g132
sS'profile_link_color'
p208
g136
sS'profile_image_url'
p209
g138
sS'notifications'
p210
NsS'geo_enabled'
p211
I00
sS'profile_background_color'
p212
g50
sS'profile_background_image_url'
p213
g142
sS'screen_name'
p214
g143
sg177
g144
sg1
I00
sS'profile_background_tile'
p215
I00
sS'favourites_count'
p216
I661
sS'name'
p217
g147
sS'url'
p218
Nsg183
g184
(S'\x07\xde\x07\r\x14&\x1c\x00\x00\x00'
p219
tp220
Rp221
sS'profile_background_image_url_https'
p222
g37
sS'time_zone'
p223
NsS'protected'
p224
I00
sS'default_profile'
p225
I01
sS'is_translator'
p226
I00
sbs.