(dp0
S'following'
p1
(lp2
(lp3
I1256660550
aI365440183
aL2286933728L
aL2572830134L
aI1369360440
aL2229976656L
aI158941108
aI130748033
aL2707537280L
aL2527023636L
aI873880164
aI1541498162
aI131091719
aI377018034
aI31275580
aI1924239336
aI1951994160
aI735281455
aI1904924503
aI1355357792
aL2675055043L
aI408100058
aI36415257
aL2706611600L
aL2706080292L
aI956857736
aL2694699818L
aI284805016
aL2373446051L
aI630454768
aI19357045
aI1469660306
aI144102413
aI20473329
aI40341260
aL2483307072L
aI60294855
aI205765265
aI542840469
aI33109387
aI111141904
aL2340645799L
aI43875890
aL2586283382L
aI249420175
aL2691308660L
aI1711739342
aI26713042
aI15567575
aI1152984595
aL2391658842L
aL2354928007L
aI19487886
aI1011941574
aI223887223
aI973716014
aI1196745294
aI1318964966
aI31541303
aL2675274463L
aL2590238545L
aI1869402187
aL2686020266L
aL2677629997L
aI42430180
aL2544728480L
aI27872081
aI18532220
aI473055733
aI49549493
aI359942946
aI23239561
aL2572625041L
aI1166053044
aL2684887490L
aI1258243938
aI1641312062
aI378484105
aI162540978
aI16657786
aI15717762
aL2610976802L
aL2682689976L
aL2366296358L
aI225925468
aL2639073198L
aI146584479
aL2666881376L
aL2184665196L
aL2552330280L
aI366485111
aI541940527
aL2545251487L
aI128847518
aI392469861
aI204385761
aL2608590540L
aI175906908
aL2428295648L
aL2333552629L
aI120332307
aI1316950460
aI266341052
aI86689374
aI79210652
aI1548579037
aI96777357
aL2322935827L
aI226828258
aI318288650
aI314850587
aI1195042550
aI187885062
aI470072149
aI67886373
aI17874926
aI1147330586
aL2672307570L
aI1959181724
aL2400071958L
aL2721171040L
aI815651436
aI13978432
aL2557963830L
aI512433584
aI613589375
aL2670968364L
aI154530823
aI1961122069
aI61784607
aI22429694
aI204384761
aL2570561827L
aI557821092
aI1930967420
aL2653007712L
aL2258078502L
aL2668663442L
aI1070063569
aI1679771395
aL2669369155L
aI864000018
aI15369494
aL2601441752L
aI237448075
aL2665553654L
aL2661708763L
aL2473328880L
aI1197345576
aL2595597943L
aI30500021
aL2516548284L
aI226256948
aL2458299200L
aL2584216555L
aL2290395662L
aL2297998979L
aL2587469552L
aL2308174274L
aI541973128
aI1288720016
aI1732251638
aI1140791539
aI544707567
aL2383132067L
aL2613431344L
aI49870911
aI364047381
aI1071577886
aL2431936201L
aI866649650
aL2363349235L
aI1634597353
aI568422337
aI28428838
aI263026031
aI22633005
aI20987166
aI81096462
aL2610493975L
aL2653116660L
aL2552214343L
aI1663548470
aL2256003930L
aI169115069
aI1322307116
aI198787330
aL2650390117L
aL2446096802L
aL2717809126L
aL2558463343L
aL2657978160L
aI111583872
aL2659162369L
aI1638657600
aI172201288
aI139311025
aL2370717032L
aI169964031
aI1621520887
aI70806516
aL2597913606L
aL2512121120L
aI463581555
aI138187896
aL2592118471L
aI1142775523
aI14594290
aL2652767935L
aL2289890732L
aI160358537
aI73953031
aL2595429379L
aI51343217
aL2716274422L
aL2482893991L
aI95589085
aI143181898
aI391524032
aI928520490
aL2589205423L
aI72529026
aI297855695
aL2393225203L
aI329598963
aI1679504244
aI1480292521
aL2646296754L
aI1641014888
aL2589652734L
aI1670726738
aI1973110394
aL2712822082L
aL2653489884L
aL2652322208L
aL2640043440L
aL2631500255L
aL2555242525L
aI1195045592
aI1636317235
aI19645866
aI768504769
aI25220418
aI183716630
aL2714256825L
aL2696289885L
aL2651734038L
aI553084594
aI1097041136
aI31235127
aI1455630289
aL2437414320L
aI1494251275
aI317860946
aI557855355
aI117883265
aI1109173051
aL2712816773L
aI792434720
aI864498666
aL2548180424L
aI382540569
aI66935500
aI377640541
aL2650963596L
aL2425843340L
aI44376201
aI21318183
aI575919094
aL2649597140L
aI1112490181
aL2371102609L
aL2565561578L
aI819701023
aI72764133
aL2195164722L
aI42701544
aL2283967157L
aI598986922
aI207048594
aI149878184
aI632894984
aL2603283108L
aI1002227035
aL2646315536L
aI271531588
aI127195708
aI796574509
aI276234557
aL2380277628L
aL2235158028L
aI39972597
aI564873087
aI1911303422
aI919864417
aI71771202
aI85739643
aL2571075786L
aI17565293
aI18942861
aI205558787
aL2329785776L
aL2323040006L
aI38574970
aI1663541358
aI281940682
aL2539691300L
aI53366264
aI481284459
aI1018255495
aI1389398869
aI52835309
aI532643012
aL2634186512L
aL2592134713L
aI35574246
aI89937946
aI1288063951
aI952167139
aI196210451
aI135325668
aI20159242
aI109289215
aL2611552746L
aI135540434
aI287730945
aI479721434
aasS'followers'
p4
(lp5
(lp6
L3404437079L
aL3312667008L
aL2539577030L
aI46191274
aL2483307072L
aL2548180424L
aasS'obj'
p7
ccopy_reg
_reconstructor
p8
(ctweepy.models
User
p9
c__builtin__
object
p10
Ntp11
Rp12
(dp13
S'follow_request_sent'
p14
NsS'has_extended_profile'
p15
I00
sS'profile_use_background_image'
p16
I01
sS'profile_sidebar_fill_color'
p17
VDDEEF6
p18
sS'id'
p19
L2639541942L
sS'verified'
p20
I00
sS'entities'
p21
(dp22
Vdescription
p23
(dp24
Vurls
p25
(lp26
sssS'profile_image_url_https'
p27
Vhttps://pbs.twimg.com/profile_images/488421481160790016/Z6mIah5R_normal.jpeg
p28
sS'_json'
p29
(dp30
Vfollow_request_sent
p31
NsVhas_extended_profile
p32
I00
sVprofile_use_background_image
p33
I01
sVdefault_profile_image
p34
I00
sVid
p35
L2639541942L
sVprofile_background_image_url_https
p36
Vhttps://abs.twimg.com/images/themes/theme1/bg.png
p37
sVverified
p38
I00
sVprofile_text_color
p39
V333333
p40
sVprofile_image_url_https
p41
g28
sVprofile_sidebar_fill_color
p42
g18
sVentities
p43
g22
sVfollowers_count
p44
I6
sVprofile_sidebar_border_color
p45
VC0DEED
p46
sVid_str
p47
V2639541942
p48
sVprofile_background_color
p49
VC0DEED
p50
sVlisted_count
p51
I3
sVstatus
p52
(dp53
Vcontributors
p54
NsVtruncated
p55
I00
sVtext
p56
VRT @naofumi0814: \u88ab\u5199\u4f53\u30fb\u30e2\u30c7\u30eb\u3055\u307e\u306e\u64ae\u5f71\u4f9d\u983c\u306f\u30a6\u30a7\u30d6\u30fb\u30b5\u30a4\u30c8\u304b\u3001Twitter\u304b\u3089\u3069\u3046\u305e \u000ahttps://t.co/m3RHiBSBu5\u000a\u000a#\u30e2\u30c7\u30eb\u52df\u96c6 \u000a#\u5199\u771f\u597d\u304d\u306a\u4eba\u3068\u7e4b\u304c\u308a\u305f\u3044 \u000a#\u5199\u771f\u64ae\u3063\u3066\u308b\u4eba\u3068\u7e4b\u304c\u308a\u305f\u3044 https://t.co/4HtjX48w\u2026
p57
sVin_reply_to_status_id
p58
Nsg35
L661887749994225664L
sVfavorite_count
p59
I0
sVsource
p60
V<a href="http://twitter.com" rel="nofollow">Twitter Web Client</a>
p61
sVretweeted
p62
I00
sVcoordinates
p63
Nsg43
(dp64
Vsymbols
p65
(lp66
sVuser_mentions
p67
(lp68
(dp69
g35
I417847713
sVindices
p70
(lp71
I3
aI15
asg47
V417847713
p72
sVscreen_name
p73
Vnaofumi0814
p74
sVname
p75
VNAO
p76
sasVhashtags
p77
(lp78
(dp79
g70
(lp80
I80
aI86
asg56
V\u30e2\u30c7\u30eb\u52df\u96c6
p81
sa(dp82
g70
(lp83
I88
aI101
asg56
V\u5199\u771f\u597d\u304d\u306a\u4eba\u3068\u7e4b\u304c\u308a\u305f\u3044
p84
sa(dp85
g70
(lp86
I103
aI117
asg56
V\u5199\u771f\u64ae\u3063\u3066\u308b\u4eba\u3068\u7e4b\u304c\u308a\u305f\u3044
p87
sasg25
(lp88
(dp89
Vurl
p90
Vhttps://t.co/m3RHiBSBu5
p91
sg70
(lp92
I55
aI78
asVexpanded_url
p93
Vhttp://yamada.pw/
p94
sVdisplay_url
p95
Vyamada.pw
p96
sasVmedia
p97
(lp98
(dp99
Vsource_user_id
p100
I417847713
sVsource_status_id_str
p101
V659603264967589888
p102
sg93
Vhttp://twitter.com/naofumi0814/status/659603264967589888/photo/1
p103
sg95
Vpic.twitter.com/4HtjX48wRP
p104
sg90
Vhttps://t.co/4HtjX48wRP
p105
sVmedia_url_https
p106
Vhttps://pbs.twimg.com/media/CSdhrFAUYAACQiD.jpg
p107
sVsource_user_id_str
p108
V417847713
p109
sVsource_status_id
p110
L659603264967589888L
sg47
V659603263138848768
p111
sVsizes
p112
(dp113
Vsmall
p114
(dp115
Vh
p116
I226
sVresize
p117
Vfit
p118
sVw
p119
I340
ssVlarge
p120
(dp121
g116
I682
sg117
Vfit
p122
sg119
I1024
ssVmedium
p123
(dp124
g116
I399
sg117
Vfit
p125
sg119
I600
ssVthumb
p126
(dp127
g116
I150
sg117
Vcrop
p128
sg119
I150
sssg70
(lp129
I118
aI140
asVtype
p130
Vphoto
p131
sg35
L659603263138848768L
sVmedia_url
p132
Vhttp://pbs.twimg.com/media/CSdhrFAUYAACQiD.jpg
p133
sassVin_reply_to_screen_name
p134
Nsg47
V661887749994225664
p135
sVretweet_count
p136
I501
sVin_reply_to_user_id
p137
NsVfavorited
p138
I00
sVretweeted_status
p139
(dp140
g54
Nsg55
I00
sg56
V\u88ab\u5199\u4f53\u30fb\u30e2\u30c7\u30eb\u3055\u307e\u306e\u64ae\u5f71\u4f9d\u983c\u306f\u30a6\u30a7\u30d6\u30fb\u30b5\u30a4\u30c8\u304b\u3001Twitter\u304b\u3089\u3069\u3046\u305e \u000ahttps://t.co/m3RHiBSBu5\u000a\u000a#\u30e2\u30c7\u30eb\u52df\u96c6 \u000a#\u5199\u771f\u597d\u304d\u306a\u4eba\u3068\u7e4b\u304c\u308a\u305f\u3044 \u000a#\u5199\u771f\u64ae\u3063\u3066\u308b\u4eba\u3068\u7e4b\u304c\u308a\u305f\u3044 https://t.co/4HtjX48wRP
p141
sg58
Nsg35
L659603264967589888L
sg59
I509
sg60
V<a href="http://twitter.com" rel="nofollow">Twitter Web Client</a>
p142
sg62
I00
sg63
Nsg43
(dp143
g65
(lp144
sg67
(lp145
sg77
(lp146
(dp147
g70
(lp148
I63
aI69
asg56
V\u30e2\u30c7\u30eb\u52df\u96c6
p149
sa(dp150
g70
(lp151
I71
aI84
asg56
V\u5199\u771f\u597d\u304d\u306a\u4eba\u3068\u7e4b\u304c\u308a\u305f\u3044
p152
sa(dp153
g70
(lp154
I86
aI100
asg56
V\u5199\u771f\u64ae\u3063\u3066\u308b\u4eba\u3068\u7e4b\u304c\u308a\u305f\u3044
p155
sasg25
(lp156
(dp157
g90
Vhttps://t.co/m3RHiBSBu5
p158
sg70
(lp159
I38
aI61
asg93
Vhttp://yamada.pw/
p160
sg95
Vyamada.pw
p161
sasg97
(lp162
(dp163
g93
Vhttp://twitter.com/naofumi0814/status/659603264967589888/photo/1
p164
sg95
Vpic.twitter.com/4HtjX48wRP
p165
sg90
Vhttps://t.co/4HtjX48wRP
p166
sg106
Vhttps://pbs.twimg.com/media/CSdhrFAUYAACQiD.jpg
p167
sg47
V659603263138848768
p168
sg112
(dp169
g114
(dp170
g116
I226
sg117
Vfit
p171
sg119
I340
ssg120
(dp172
g116
I682
sg117
Vfit
p173
sg119
I1024
ssg123
(dp174
g116
I399
sg117
Vfit
p175
sg119
I600
ssg126
(dp176
g116
I150
sg117
Vcrop
p177
sg119
I150
sssg70
(lp178
I101
aI124
asg130
Vphoto
p179
sg35
L659603263138848768L
sg132
Vhttp://pbs.twimg.com/media/CSdhrFAUYAACQiD.jpg
p180
sassg134
Nsg47
V659603264967589888
p181
sg136
I501
sg137
Nsg138
I00
sVgeo
p182
NsVin_reply_to_user_id_str
p183
NsVpossibly_sensitive
p184
I00
sVlang
p185
Vja
p186
sVcreated_at
p187
VThu Oct 29 05:30:47 +0000 2015
p188
sVin_reply_to_status_id_str
p189
NsVplace
p190
Nssg182
Nsg183
Nsg184
I00
sg185
Vja
p191
sg187
VWed Nov 04 12:48:31 +0000 2015
p192
sg189
Nsg190
NssVis_translation_enabled
p193
I00
sVutc_offset
p194
NsVstatuses_count
p195
I1538
sg23
V
p196
sVfriends_count
p197
I327
sVlocation
p198
g196
sVprofile_link_color
p199
V0084B4
p200
sVprofile_image_url
p201
Vhttp://pbs.twimg.com/profile_images/488421481160790016/Z6mIah5R_normal.jpeg
p202
sVfollowing
p203
NsVgeo_enabled
p204
I00
sVprofile_background_image_url
p205
Vhttp://abs.twimg.com/images/themes/theme1/bg.png
p206
sg73
Vgolashevich_a9
p207
sg185
Vru
p208
sVprofile_background_tile
p209
I00
sVfavourites_count
p210
I555
sg75
Vava golashevich
p211
sVnotifications
p212
Nsg90
Nsg187
VSun Jul 13 20:35:25 +0000 2014
p213
sVcontributors_enabled
p214
I00
sVtime_zone
p215
NsVprotected
p216
I00
sVdefault_profile
p217
I01
sVis_translator
p218
I00
ssS'contributors_enabled'
p219
I00
sS'profile_text_color'
p220
g40
sS'followers_count'
p221
I6
sS'profile_sidebar_border_color'
p222
g46
sS'id_str'
p223
g48
sS'default_profile_image'
p224
I00
sS'listed_count'
p225
I3
sS'status'
p226
g8
(ctweepy.models
Status
p227
g10
Ntp228
Rp229
(dp230
S'favorited'
p231
I00
sS'contributors'
p232
NsS'truncated'
p233
I00
sS'text'
p234
VRT @naofumi0814: \u88ab\u5199\u4f53\u30fb\u30e2\u30c7\u30eb\u3055\u307e\u306e\u64ae\u5f71\u4f9d\u983c\u306f\u30a6\u30a7\u30d6\u30fb\u30b5\u30a4\u30c8\u304b\u3001Twitter\u304b\u3089\u3069\u3046\u305e \u000ahttps://t.co/m3RHiBSBu5\u000a\u000a#\u30e2\u30c7\u30eb\u52df\u96c6 \u000a#\u5199\u771f\u597d\u304d\u306a\u4eba\u3068\u7e4b\u304c\u308a\u305f\u3044 \u000a#\u5199\u771f\u64ae\u3063\u3066\u308b\u4eba\u3068\u7e4b\u304c\u308a\u305f\u3044 https://t.co/4HtjX48w\u2026
p235
sS'source_url'
p236
Vhttp://twitter.com
p237
sS'possibly_sensitive'
p238
I00
sS'in_reply_to_status_id'
p239
NsS'geo'
p240
Nsg19
L661887749994225664L
sS'favorite_count'
p241
I0
sS'lang'
p242
g191
sS'retweeted_status'
p243
g8
(g227
g10
Ntp244
Rp245
(dp246
g231
I00
sg232
Nsg233
I00
sg234
V\u88ab\u5199\u4f53\u30fb\u30e2\u30c7\u30eb\u3055\u307e\u306e\u64ae\u5f71\u4f9d\u983c\u306f\u30a6\u30a7\u30d6\u30fb\u30b5\u30a4\u30c8\u304b\u3001Twitter\u304b\u3089\u3069\u3046\u305e \u000ahttps://t.co/m3RHiBSBu5\u000a\u000a#\u30e2\u30c7\u30eb\u52df\u96c6 \u000a#\u5199\u771f\u597d\u304d\u306a\u4eba\u3068\u7e4b\u304c\u308a\u305f\u3044 \u000a#\u5199\u771f\u64ae\u3063\u3066\u308b\u4eba\u3068\u7e4b\u304c\u308a\u305f\u3044 https://t.co/4HtjX48wRP
p247
sg236
Vhttp://twitter.com
p248
sg238
I00
sg239
Nsg240
Nsg19
L659603264967589888L
sg241
I509
sg242
g186
sg21
g143
sS'created_at'
p249
cdatetime
datetime
p250
(S'\x07\xdf\n\x1d\x05\x1e/\x00\x00\x00'
p251
tp252
Rp253
sg29
g140
sS'coordinates'
p254
NsS'in_reply_to_user_id_str'
p255
NsS'source'
p256
VTwitter Web Client
p257
sS'in_reply_to_status_id_str'
p258
NsS'in_reply_to_screen_name'
p259
Nsg223
g181
sS'retweeted'
p260
I00
sS'place'
p261
NsS'retweet_count'
p262
I501
sS'in_reply_to_user_id'
p263
Nsbsg21
g64
sg249
g250
(S'\x07\xdf\x0b\x04\x0c0\x1f\x00\x00\x00'
p264
tp265
Rp266
sg29
g53
sg254
Nsg255
Nsg256
VTwitter Web Client
p267
sg258
Nsg259
Nsg223
g135
sg260
I00
sg261
Nsg262
I501
sg263
NsbsS'is_translation_enabled'
p268
I00
sS'utc_offset'
p269
NsS'statuses_count'
p270
I1538
sS'description'
p271
g196
sS'friends_count'
p272
I327
sS'location'
p273
g196
sS'profile_link_color'
p274
g200
sS'profile_image_url'
p275
g202
sS'notifications'
p276
NsS'geo_enabled'
p277
I00
sS'profile_background_color'
p278
g50
sS'profile_background_image_url'
p279
g206
sS'screen_name'
p280
g207
sg242
g208
sg1
I00
sS'profile_background_tile'
p281
I00
sS'favourites_count'
p282
I555
sS'name'
p283
g211
sS'url'
p284
Nsg249
g250
(S'\x07\xde\x07\r\x14#\x19\x00\x00\x00'
p285
tp286
Rp287
sS'profile_background_image_url_https'
p288
g37
sS'time_zone'
p289
NsS'protected'
p290
I00
sS'default_profile'
p291
I01
sS'is_translator'
p292
I00
sbs.