(dp0
S'following'
p1
(lp2
(lp3
I154998800
aL2831626602L
aI1532703554
aI231649708
aL2870954618L
aI255757325
aI444938818
aL2303948004L
aI174795008
aI418502214
aL2852506555L
aI605467206
aL2868535988L
aI40297518
aI19836290
aL2831027859L
aL2868393325L
aI334654285
aL2153644982L
aI18512778
aI1921456364
aL2579909899L
aI18927075
aI621574583
aL2833984515L
aL2647659103L
aL2359669877L
aL2819256879L
aI621251135
aL2728701358L
aL2783813343L
aI207490644
aL2827839154L
aL2828144092L
aL2412494910L
aI270418207
aL2848827662L
aL2636933785L
aI1115658673
aL2832416331L
aL2755987826L
aI68698801
aI347804908
aL2826496994L
aI76736899
aI1252761990
aI245627071
aL2834817831L
aI86208515
aI409309769
aI41654273
aL2831623109L
aI28967199
aL2821416581L
aI626586201
aL2610985152L
aL2831781995L
aI1574274019
aL2830879294L
aI21473938
aI1667722482
aL2831232226L
aI1852428158
aI137066643
aI60591419
aI343485402
aL2751788819L
aI108250793
aI41481779
aI1513268550
aL2372271937L
aI210595874
aI1100660936
aI35960608
aI288186280
aL2290261165L
aL2622278840L
aI45133573
aI121514419
aI377588282
aI1314931488
aI287345680
aL2828004067L
aI42475890
aI806852858
aI806776754
aI806810600
aL2822365271L
aL2809476076L
aL2607795586L
aI250919533
aI364123722
aI1480465586
aI1473715795
aL2151982878L
aL2576717593L
aI718771428
aL2729815936L
aL2329636210L
aI787615440
aI1256660550
aI381880067
aI62127693
aI1973941016
aI1951994160
aI36001883
aL2286933728L
aL2451913472L
aL2658633008L
aI1369360440
aI158941108
aL2572830134L
aI1543072628
aL2707537280L
aI1308565855
aI1377824935
aI873880164
aI377018034
aI31275580
aI1924239336
aI735281455
aI1904924503
aI1357504705
aI1355357792
aI1375563632
aI408100058
aL2675405208L
aL2596479854L
aI24626424
aI275424713
aI190993417
aI284805016
aL2373446051L
aI1469660306
aL2703963990L
aI1639325216
aL2369773182L
aI114183107
aL2319298967L
aI510342638
aI404432267
aI372563040
aI143834772
aI542840469
aI735280746
aI33109387
aI1355354036
aL2614065504L
aL2320547791L
aI249420175
aI860113350
aI1184284272
aL2691308660L
aI1711739342
aI30237798
aL2560899660L
aI40824537
aL2312814889L
aI224750262
aI525713285
aL2485458836L
aI1152984595
aL2354928007L
aI520988333
aI19487886
aL2550874224L
aI627578922
aI1011941574
aI973716014
aI1196745294
aI711829894
aL2281215506L
aI1869402187
aL2686020266L
aI26713042
aL2544728480L
aI87299677
aL2687988204L
aL2647532828L
aL2654779818L
aI1385455640
aI221324970
aI218266424
aL2182969026L
aI1273532971
aL2656252735L
aI149072356
aI1258243938
aL2663865414L
aL2495445295L
aI162540978
aI16657786
aI1483185702
aL2668493790L
aL2615603630L
aL2661656306L
aL2634836454L
aL2681113946L
aL2675274463L
aI849328400
aI225925468
aL2557963830L
aI248871954
aL2184665196L
aI15369494
aL2552330280L
aI541940527
aI1676756676
aL2587380152L
aI20289545
aI392469861
aI322802999
aI175906908
aI1896867624
aI31541303
aI595936790
aI78558305
aI464534503
aI39957724
aI1316950460
aI1709689099
aI86689374
aI79210652
aL2560556563L
aI108804469
aI543874719
aL2485957286L
aI318288650
aI42430180
aL2287634682L
aI184950588
aL2311550865L
aL2424175189L
aL2652217490L
aI33492443
aL2672307570L
aI200508006
aL2406380646L
aL2718663195L
aI43942229
aI159022331
aI340835504
aI521004636
aI156420167
aI983935002
aL2653041642L
aI223781997
aL2721185818L
aI1961122069
aI61784607
aI65603461
aI1176757958
aI1848951512
aL2668090308L
aL2618666149L
aI215090532
aI1679771395
aL2639073198L
aL2244517057L
aL2666881376L
aL2659475168L
aI1197345576
aL2565636595L
aI1577706050
aI30500021
aI1172807389
aI112399711
aI129964269
aI169115069
aI135325668
aL2665733365L
aL2297998979L
aL2587469552L
aL2593284692L
aL2663242470L
aL2719577487L
aI251490141
aI1732251638
aI1140791539
aI140829518
aI290888436
aL2383132067L
aI164789629
aL2613431344L
aI634455657
aI299404666
aL2627573784L
aI364047381
aI174091791
aI12113962
aI1634597353
aI263026031
aI157956169
aL2525092208L
aI52154347
aI1663548470
aL2715792027L
aI327833243
aI259339015
aL2656323398L
aL2648100296L
aL2256003930L
aI56292835
aI1322307116
aL2650390117L
aL2558463343L
aL2309236146L
aL2615431526L
aI172201288
aL2659162369L
aL2658682692L
aI139311025
aL2370717032L
aL2543331593L
aL2612778943L
aL2597913606L
aI463581555
aI318421688
aI138187896
aI461559163
aI160358537
aL2595429379L
aI51343217
aI487118986
aI738683473
aI24383226
aI1532664223
aI297855695
aI87413308
aI1969751814
aI111583872
aI1729096530
aL2646296754L
aL2651760055L
aL2252032009L
aI259701844
aI925713366
aL2712822082L
aL2604095432L
aI966928603
aL2652322208L
aL2640043440L
aI1636317235
aI19645866
aI1486462028
aI760494572
aL2696289885L
aL2651814061L
aL2651734038L
aI553084594
aL2586283382L
aL2437414320L
aI48417283
aL2562114655L
aI557855355
aL2651413904L
aI1683045271
aI61721620
aI862535828
aL2416007262L
aL2573632572L
aL2425843340L
aI21318183
aL2611607479L
aI575919094
aL2371102609L
aI819701023
aI54669222
aI135917307
aI225845423
aL2195164722L
aI42701544
aI826081068
aI207048594
aI17433591
aI1002829532
aI436074648
aI169609728
aI44121600
aI149878184
aI632894984
aI126515041
aI480216435
aI271531588
aI127195708
aI796574509
aI194962708
aI17652303
aI394975971
aL2434680655L
aI39972597
aI1686589460
aI1911303422
aI919864417
aI71771202
aI17565293
aL2590219879L
aI18942861
aL2436713407L
aL2328090591L
aL2325939036L
aL2321116513L
aL2320766444L
aL2339137461L
aI38574970
aL2290483922L
aL2574379044L
aI164274882
aI175721864
aI1917684800
aI1377031160
aI1663541358
aI1389398869
aI133390286
aI52835309
aI532643012
aL2592134713L
aI35574246
aL2612883067L
aI437998527
aI1635943718
aI1307759328
aI1670726738
aL2458594088L
aI295528885
aI211085241
aI226828258
aI481596421
aasS'followers'
p4
(lp5
(lp6
L2955339780L
aL2742745998L
aL2539577030L
aI1104367171
aL2933251089L
aL2329636210L
aI1115658673
aI30500021
aasS'obj'
p7
ccopy_reg
_reconstructor
p8
(ctweepy.models
User
p9
c__builtin__
object
p10
Ntp11
Rp12
(dp13
S'follow_request_sent'
p14
NsS'has_extended_profile'
p15
I00
sS'profile_use_background_image'
p16
I01
sS'profile_sidebar_fill_color'
p17
VDDEEF6
p18
sS'id'
p19
L2639575910L
sS'verified'
p20
I00
sS'entities'
p21
(dp22
Vdescription
p23
(dp24
Vurls
p25
(lp26
sssS'profile_image_url_https'
p27
Vhttps://pbs.twimg.com/profile_images/488422019013177344/QgZ1Kbpl_normal.jpeg
p28
sS'_json'
p29
(dp30
Vfollow_request_sent
p31
NsVhas_extended_profile
p32
I00
sVprofile_use_background_image
p33
I01
sVdefault_profile_image
p34
I00
sVid
p35
L2639575910L
sVprofile_background_image_url_https
p36
Vhttps://abs.twimg.com/images/themes/theme1/bg.png
p37
sVverified
p38
I00
sVprofile_text_color
p39
V333333
p40
sVprofile_image_url_https
p41
g28
sVprofile_sidebar_fill_color
p42
g18
sVentities
p43
g22
sVfollowers_count
p44
I8
sVprofile_sidebar_border_color
p45
VC0DEED
p46
sVid_str
p47
V2639575910
p48
sVprofile_background_color
p49
VC0DEED
p50
sVlisted_count
p51
I13
sVstatus
p52
(dp53
Vcontributors
p54
NsVtruncated
p55
I00
sVtext
p56
VRT @Tdot_UCme: Ppl won't believe in your movement until it's moving..
p57
sVin_reply_to_status_id
p58
Nsg35
L661898270160117760L
sVfavorite_count
p59
I0
sVsource
p60
V<a href="http://twitter.com" rel="nofollow">Twitter Web Client</a>
p61
sVretweeted
p62
I00
sVcoordinates
p63
Nsg43
(dp64
Vsymbols
p65
(lp66
sVuser_mentions
p67
(lp68
(dp69
g35
L3712869557L
sVindices
p70
(lp71
I3
aI13
asg47
V3712869557
p72
sVscreen_name
p73
VTdot_UCme
p74
sVname
p75
VTdot useeme
p76
sasVhashtags
p77
(lp78
sg25
(lp79
ssVin_reply_to_screen_name
p80
Nsg47
V661898270160117760
p81
sVretweet_count
p82
I103
sVin_reply_to_user_id
p83
NsVfavorited
p84
I00
sVretweeted_status
p85
(dp86
Vlang
p87
Ven
p88
sg84
I00
sg43
(dp89
g65
(lp90
sg67
(lp91
sg77
(lp92
sg25
(lp93
ssg54
Nsg55
I00
sg56
VPpl won't believe in your movement until it's moving..
p94
sVcreated_at
p95
VWed Nov 04 12:38:21 +0000 2015
p96
sg62
I00
sVin_reply_to_status_id_str
p97
Nsg63
NsVin_reply_to_user_id_str
p98
Nsg60
V<a href="http://twitter.com/download/iphone" rel="nofollow">Twitter for iPhone</a>
p99
sg58
Nsg80
Nsg47
V661885189270970368
p100
sVplace
p101
Nsg82
I103
sVgeo
p102
Nsg35
L661885189270970368L
sg59
I1
sg83
Nssg102
Nsg98
Nsg87
Ven
p103
sg95
VWed Nov 04 13:30:19 +0000 2015
p104
sg97
Nsg101
NssVis_translation_enabled
p105
I00
sVutc_offset
p106
NsVstatuses_count
p107
I3244
sg23
V
p108
sVfriends_count
p109
I428
sVlocation
p110
g108
sVprofile_link_color
p111
V0084B4
p112
sVprofile_image_url
p113
Vhttp://pbs.twimg.com/profile_images/488422019013177344/QgZ1Kbpl_normal.jpeg
p114
sVfollowing
p115
NsVgeo_enabled
p116
I00
sVprofile_background_image_url
p117
Vhttp://abs.twimg.com/images/themes/theme1/bg.png
p118
sg73
Vgarajshin_m811
p119
sg87
Vru
p120
sVprofile_background_tile
p121
I00
sVfavourites_count
p122
I961
sg75
Vmackenzie garajshin
p123
sVnotifications
p124
NsVurl
p125
Nsg95
VSun Jul 13 20:37:31 +0000 2014
p126
sVcontributors_enabled
p127
I00
sVtime_zone
p128
NsVprotected
p129
I00
sVdefault_profile
p130
I01
sVis_translator
p131
I00
ssS'contributors_enabled'
p132
I00
sS'profile_text_color'
p133
g40
sS'followers_count'
p134
I8
sS'profile_sidebar_border_color'
p135
g46
sS'id_str'
p136
g48
sS'default_profile_image'
p137
I00
sS'listed_count'
p138
I13
sS'status'
p139
g8
(ctweepy.models
Status
p140
g10
Ntp141
Rp142
(dp143
S'favorited'
p144
I00
sS'contributors'
p145
NsS'truncated'
p146
I00
sS'text'
p147
g57
sS'source_url'
p148
Vhttp://twitter.com
p149
sS'in_reply_to_status_id'
p150
NsS'geo'
p151
Nsg19
L661898270160117760L
sS'favorite_count'
p152
I0
sS'lang'
p153
g103
sS'retweeted_status'
p154
g8
(g140
g10
Ntp155
Rp156
(dp157
g144
I00
sg145
Nsg146
I00
sg147
g94
sg148
Vhttp://twitter.com/download/iphone
p158
sg150
Nsg151
Nsg19
L661885189270970368L
sg152
I1
sg153
g88
sg21
g89
sS'created_at'
p159
cdatetime
datetime
p160
(S'\x07\xdf\x0b\x04\x0c&\x15\x00\x00\x00'
p161
tp162
Rp163
sg29
g86
sS'coordinates'
p164
NsS'in_reply_to_user_id_str'
p165
NsS'source'
p166
VTwitter for iPhone
p167
sS'in_reply_to_status_id_str'
p168
NsS'in_reply_to_screen_name'
p169
Nsg136
g100
sS'retweeted'
p170
I00
sS'place'
p171
NsS'retweet_count'
p172
I103
sS'in_reply_to_user_id'
p173
Nsbsg21
g64
sg159
g160
(S'\x07\xdf\x0b\x04\r\x1e\x13\x00\x00\x00'
p174
tp175
Rp176
sg29
g53
sg164
Nsg165
Nsg166
VTwitter Web Client
p177
sg168
Nsg169
Nsg136
g81
sg170
I00
sg171
Nsg172
I103
sg173
NsbsS'is_translation_enabled'
p178
I00
sS'utc_offset'
p179
NsS'statuses_count'
p180
I3244
sS'description'
p181
g108
sS'friends_count'
p182
I428
sS'location'
p183
g108
sS'profile_link_color'
p184
g112
sS'profile_image_url'
p185
g114
sS'notifications'
p186
NsS'geo_enabled'
p187
I00
sS'profile_background_color'
p188
g50
sS'profile_background_image_url'
p189
g118
sS'screen_name'
p190
g119
sg153
g120
sg1
I00
sS'profile_background_tile'
p191
I00
sS'favourites_count'
p192
I961
sS'name'
p193
g123
sS'url'
p194
Nsg159
g160
(S'\x07\xde\x07\r\x14%\x1f\x00\x00\x00'
p195
tp196
Rp197
sS'profile_background_image_url_https'
p198
g37
sS'time_zone'
p199
NsS'protected'
p200
I00
sS'default_profile'
p201
I01
sS'is_translator'
p202
I00
sbs.