(dp0
S'following'
p1
(lp2
(lp3
I1049162834
aI500747275
aI113747991
aI1930825303
aL2790426990L
aI710278115
aI22960461
aI222241154
aL2402487471L
aI15759914
aI59147927
aI707514301
aI1597744902
aI443306423
aI116498273
aI805460012
aI280175650
aI1578317286
aI186882488
aL2731841442L
aI618404306
aL2685930805L
aI356487475
aI15085116
aL2419268557L
aL2780550421L
aI872938038
aI474638284
aL2728937544L
aI1319850361
aL2333966515L
aI18504752
aL2741327809L
aI455445236
aL2195164722L
aI1002627314
aI1315070816
aL2753165993L
aI1847620891
aL2744094583L
aL2208779611L
aI300169312
aL2767967713L
aI1611357583
aI1494846284
aL2751726839L
aI1254059719
aI387541962
aL2313940644L
aI399011947
aL2740297622L
aL2744643001L
aI113040254
aL2326932349L
aI340181951
aL2763019843L
aI164305768
aL2694743251L
aL2745384343L
aL2192624426L
aI14366274
aL2311550865L
aI813285217
aL2527701944L
aI974487643
aI962530417
aL2323049886L
aL2748552019L
aI214707345
aL2737828045L
aL2187592410L
aI473017148
aI156405743
aI321970717
aI378776893
aI1914212378
aI360869459
aL2422771460L
aI895832586
aI236636515
aI320588750
aI604593160
aI311342243
aI71178851
aI1654339098
aI215151029
aI748218240
aL2715361843L
aI356461659
aI1020190998
aL2402147943L
aI400014805
aI1183887576
aL2556497406L
aI23732332
aI1854251720
aL2598495900L
aL2290568647L
aL2676425660L
aL2604082934L
aL2725898527L
aI408565007
aI1510489374
aI199359691
aL2672729898L
aL2549977573L
aI287475058
aL2727698496L
aL2307569686L
aI516973275
aI66631346
aI45166539
aL2723295348L
aI443979329
aL2310703867L
aI1086973130
aI273520563
aI306051110
aI498282197
aL2722735394L
aI28351859
aI586895073
aL2560064220L
aI431734647
aI1978447399
aI182846567
aI92457245
aI617592876
aI309719235
aL2408278927L
aI283473087
aL2376198084L
aI64859202
aI221195243
aI377407811
aI555313923
aI1413513043
aL2254396868L
aI186499866
aI975763076
aL2192846508L
aI86414029
aL2326353829L
aI437523529
aL2535077256L
aL2714086196L
aL2246174154L
aI342206996
aL2664810882L
aI554582733
aI47881924
aI71545162
aI1341264145
aI100595492
aL2385252026L
aI30617027
aI1552037270
aL2706484902L
aI859142737
aI868859868
aL2386730596L
aI590446923
aI1002752810
aI146584479
aI284326880
aI972115326
aI590235146
aI928144556
aI1150749445
aL2584585388L
aI121889306
aI1596593904
aI517119792
aL2657616223L
aI1499772787
aL2379971325L
aI922310448
aI152831766
aI1610593988
aI975776904
aI291503109
aI34737026
aL2543656910L
aI298199572
aL2321090622L
aI408100058
aL2518144407L
aL2711746267L
aL2711781750L
aL2694979891L
aI119409931
aI1256660550
aL2286933728L
aI1369360440
aL2599894633L
aL2676519773L
aI158941108
aL2572830134L
aL2707537280L
aL2527023636L
aI931144902
aI395311801
aI1377824935
aI873880164
aL2707831716L
aI377018034
aI56476609
aI1912251697
aI1931331919
aI1468291921
aI969339846
aI618275125
aI36415257
aL2592423223L
aI540750580
aI1852079359
aI29458878
aI1476898136
aI1951994160
aI888521419
aL2373446051L
aI81324949
aL2681776794L
aL2681762958L
aI20473329
aI114183107
aI853490604
aL2483307072L
aI60294855
aL2516282264L
aL2355448008L
aI294375090
aL2693449776L
aI449392415
aI390245359
aI780469045
aI542840469
aI735280746
aI76136090
aL2566768518L
aL2691308660L
aI1711739342
aI26713042
aL2375669186L
aL2327657353L
aI18942861
aI35631008
aL2472759031L
aI440151639
aL2451913472L
aI973716014
aL2321272140L
aL2543286565L
aI31541303
aL2675274463L
aL2590238545L
aL2679122258L
aL2560899660L
aL2544728480L
aI100218359
aL2572625041L
aI92422547
aL2182969026L
aI505903816
aI1166053044
aL2686020266L
aL2685390260L
aL2495445295L
aI162540978
aI16657786
aI15717762
aI360544017
aL2512570944L
aI131294896
aL2366296358L
aL2681960792L
aI83254283
aL2557963830L
aI133390286
aL2184665196L
aL2552330280L
aI366485111
aL2675521650L
aI225925468
aL2683716570L
aL2666498486L
aI175906908
aL2333548386L
aL2333543874L
aL2646286496L
aI359793610
aI138063851
aI1472907506
aI1316950460
aI62277543
aI68476851
aI1709689099
aI86689374
aI108804469
aI1335550484
aL2675352564L
aI41788498
aL2679648534L
aL2424289134L
aI1397306112
aI130748033
aI128595242
aL2650704313L
aL2391044571L
aL2654277452L
aI317549874
aI29964759
aI466888447
aI1147330586
aL2672307570L
aI362914850
aL2670968364L
aI1503504582
aI154530823
aI340835504
aI62124341
aI1961122069
aI61784607
aI1176757958
aI204384761
aL2666881376L
aI557821092
aI313447569
aL2258078502L
aI101750688
aI215090532
aL2491185534L
aI1959539928
aI15369494
aI237448075
aI149721560
aL2659475168L
aI17522602
aI1938353665
aL2668090308L
aI119976960
aL2639073198L
aI425928244
aI164828278
aI247017009
aI15885485
aI1197345576
aI796574509
aL2595597943L
aL2187117308L
aI1390878144
aI42701544
aI129964269
aL2297998979L
aL2587469552L
aL2548978488L
aI1732251638
aI1140791539
aL2383132067L
aI164789629
aI299404666
aL2627573784L
aI174091791
aL2648936876L
aL2470981772L
aL2645638819L
aI592441336
aI1634597353
aI169115069
aI263026031
aI1663548470
aI519873593
aI34577701
aI137811984
aL2648100296L
aL2256003930L
aI40507052
aI1905401383
aI84051650
aI1322307116
aI74958092
aL2650390117L
aI1366290847
aI40200769
aI26174058
aL2659988276L
aI1558018844
aL2558463343L
aI557855355
aL2659162369L
aI16952837
aI607159536
aL2516335224L
aI451900254
aI169964031
aI532722457
aL2247424668L
aI15811749
aL2597913606L
aI725902476
aI463581555
aI14594290
aI423225715
aI40370554
aI267331876
aL2617340257L
aI14181101
aL2653830486L
aI160358537
aL2595429379L
aI31076914
aI44332532
aI297855695
aI1679504244
aL2493676146L
aI15110312
aI111583872
aI1195357184
aL2646296754L
aL2431439947L
aI1129532324
aI1670726738
aI1973110394
aL2352711895L
aL2610151777L
aI101795538
aL2651009024L
aL2640043440L
aL2617566018L
aI1074633152
aI1636317235
aI438366309
aI26329255
aI23742744
aI392469861
aI144381131
aI50409671
aL2650973538L
aL2344244443L
aL2646540637L
aI1431629534
aI478775282
aL2651413904L
aI1683045271
aL2696289885L
aI61721620
aI117883265
aI23436748
aI1109173051
aI382540569
aI368331239
aI553917289
aI511164515
aI275041730
aI1112490181
aL2371102609L
aL2565561578L
aI819701023
aI855510108
aL2602196138L
aL2589205423L
aI207048594
aI17433591
aI261294221
aI368477419
aI40744793
aI375965846
aI135325668
aI370886516
aI271531588
aI1097041136
aL2578668392L
aI127195708
aI276234557
aI45770660
aI394975971
aI42546287
aI39972597
aI564873087
aI1635943718
aI919864417
aI71771202
aL2329785776L
aL2323040006L
aL2321116513L
aI38574970
aL2432830056L
aI1663541358
aL2449746761L
aI206394279
aL2539691300L
aI164274882
aI909287167
aI318424356
aI1389398869
aI52835309
aI532643012
aL2409595592L
aL2592134713L
aI1214118686
aI143844861
aI71900977
aI952167139
aL2210887194L
aI45677989
aI43056691
aI109289215
aL2162177626L
aL2453023073L
aI104230403
aL2520081450L
aL2604297013L
aL2287778433L
aasS'followers'
p4
(lp5
(lp6
L2605213552L
aI1650641881
aI615472512
aL2539577030L
aL2483307072L
aasS'obj'
p7
ccopy_reg
_reconstructor
p8
(ctweepy.models
User
p9
c__builtin__
object
p10
Ntp11
Rp12
(dp13
S'follow_request_sent'
p14
NsS'has_extended_profile'
p15
I00
sS'profile_use_background_image'
p16
I01
sS'profile_sidebar_fill_color'
p17
VDDEEF6
p18
sS'id'
p19
L2639550410L
sS'verified'
p20
I00
sS'entities'
p21
(dp22
Vdescription
p23
(dp24
Vurls
p25
(lp26
sssS'profile_image_url_https'
p27
Vhttps://pbs.twimg.com/profile_images/488421181477769216/daEJXkhe_normal.jpeg
p28
sS'_json'
p29
(dp30
Vfollow_request_sent
p31
NsVhas_extended_profile
p32
I00
sVprofile_use_background_image
p33
I01
sVdefault_profile_image
p34
I00
sVid
p35
L2639550410L
sVprofile_background_image_url_https
p36
Vhttps://abs.twimg.com/images/themes/theme1/bg.png
p37
sVverified
p38
I00
sVprofile_text_color
p39
V333333
p40
sVprofile_image_url_https
p41
g28
sVprofile_sidebar_fill_color
p42
g18
sVentities
p43
g22
sVfollowers_count
p44
I5
sVprofile_sidebar_border_color
p45
VC0DEED
p46
sVid_str
p47
V2639550410
p48
sVprofile_background_color
p49
VC0DEED
p50
sVlisted_count
p51
I7
sVstatus
p52
(dp53
Vcontributors
p54
NsVtruncated
p55
I00
sVtext
p56
VRT @Jno_Campaign: https://t.co/XhWHhrCe0L
p57
sVin_reply_to_status_id
p58
Nsg35
L661894946702688256L
sVfavorite_count
p59
I0
sVsource
p60
V<a href="http://twitter.com" rel="nofollow">Twitter Web Client</a>
p61
sVretweeted
p62
I00
sVcoordinates
p63
Nsg43
(dp64
Vsymbols
p65
(lp66
sVuser_mentions
p67
(lp68
(dp69
g35
L4059432053L
sVindices
p70
(lp71
I3
aI16
asg47
V4059432053
p72
sVscreen_name
p73
VJno_Campaign
p74
sVname
p75
VJNO
p76
sasVhashtags
p77
(lp78
sg25
(lp79
(dp80
Vurl
p81
Vhttps://t.co/XhWHhrCe0L
p82
sg70
(lp83
I18
aI41
asVexpanded_url
p84
Vhttps://spinrilla.com/mixtapes/jn0-s-o-y-c-part-2-mixtape
p85
sVdisplay_url
p86
Vspinrilla.com/mixtapes/jn0-s\u2026
p87
sassVin_reply_to_screen_name
p88
Nsg47
V661894946702688256
p89
sVretweet_count
p90
I1104
sVin_reply_to_user_id
p91
NsVfavorited
p92
I00
sVretweeted_status
p93
(dp94
g54
Nsg55
I00
sg56
Vhttps://t.co/XhWHhrCe0L
p95
sg58
Nsg35
L661861027806642176L
sg59
I1099
sg60
V<a href="http://twitter.com/download/iphone" rel="nofollow">Twitter for iPhone</a>
p96
sg62
I00
sg63
Nsg43
(dp97
g65
(lp98
sg67
(lp99
sg77
(lp100
sg25
(lp101
(dp102
g81
Vhttps://t.co/XhWHhrCe0L
p103
sg70
(lp104
I0
aI23
asg84
Vhttps://spinrilla.com/mixtapes/jn0-s-o-y-c-part-2-mixtape
p105
sg86
Vspinrilla.com/mixtapes/jn0-s\u2026
p106
sassg88
Nsg47
V661861027806642176
p107
sg90
I1104
sg91
Nsg92
I00
sVgeo
p108
NsVin_reply_to_user_id_str
p109
NsVpossibly_sensitive
p110
I00
sVlang
p111
Vund
p112
sVcreated_at
p113
VWed Nov 04 11:02:20 +0000 2015
p114
sVin_reply_to_status_id_str
p115
NsVplace
p116
Nssg108
Nsg109
Nsg110
I00
sg111
Vund
p117
sg113
VWed Nov 04 13:17:07 +0000 2015
p118
sg115
Nsg116
NssVis_translation_enabled
p119
I00
sVutc_offset
p120
NsVstatuses_count
p121
I2474
sg23
V
p122
sVfriends_count
p123
I513
sVlocation
p124
g122
sVprofile_link_color
p125
V0084B4
p126
sVprofile_image_url
p127
Vhttp://pbs.twimg.com/profile_images/488421181477769216/daEJXkhe_normal.jpeg
p128
sVfollowing
p129
NsVgeo_enabled
p130
I00
sVprofile_background_image_url
p131
Vhttp://abs.twimg.com/images/themes/theme1/bg.png
p132
sg73
Vtrofljanina_a5
p133
sg111
Vru
p134
sVprofile_background_tile
p135
I00
sVfavourites_count
p136
I910
sg75
Vashton trofljanina
p137
sVnotifications
p138
Nsg81
Nsg113
VSun Jul 13 20:34:12 +0000 2014
p139
sVcontributors_enabled
p140
I00
sVtime_zone
p141
NsVprotected
p142
I00
sVdefault_profile
p143
I01
sVis_translator
p144
I00
ssS'contributors_enabled'
p145
I00
sS'profile_text_color'
p146
g40
sS'followers_count'
p147
I5
sS'profile_sidebar_border_color'
p148
g46
sS'id_str'
p149
g48
sS'default_profile_image'
p150
I00
sS'listed_count'
p151
I7
sS'status'
p152
g8
(ctweepy.models
Status
p153
g10
Ntp154
Rp155
(dp156
S'favorited'
p157
I00
sS'contributors'
p158
NsS'truncated'
p159
I00
sS'text'
p160
g57
sS'source_url'
p161
Vhttp://twitter.com
p162
sS'possibly_sensitive'
p163
I00
sS'in_reply_to_status_id'
p164
NsS'geo'
p165
Nsg19
L661894946702688256L
sS'favorite_count'
p166
I0
sS'lang'
p167
g117
sS'retweeted_status'
p168
g8
(g153
g10
Ntp169
Rp170
(dp171
g157
I00
sg158
Nsg159
I00
sg160
g95
sg161
Vhttp://twitter.com/download/iphone
p172
sg163
I00
sg164
Nsg165
Nsg19
L661861027806642176L
sg166
I1099
sg167
g112
sg21
g97
sS'created_at'
p173
cdatetime
datetime
p174
(S'\x07\xdf\x0b\x04\x0b\x02\x14\x00\x00\x00'
p175
tp176
Rp177
sg29
g94
sS'coordinates'
p178
NsS'in_reply_to_user_id_str'
p179
NsS'source'
p180
VTwitter for iPhone
p181
sS'in_reply_to_status_id_str'
p182
NsS'in_reply_to_screen_name'
p183
Nsg149
g107
sS'retweeted'
p184
I00
sS'place'
p185
NsS'retweet_count'
p186
I1104
sS'in_reply_to_user_id'
p187
Nsbsg21
g64
sg173
g174
(S'\x07\xdf\x0b\x04\r\x11\x07\x00\x00\x00'
p188
tp189
Rp190
sg29
g53
sg178
Nsg179
Nsg180
VTwitter Web Client
p191
sg182
Nsg183
Nsg149
g89
sg184
I00
sg185
Nsg186
I1104
sg187
NsbsS'is_translation_enabled'
p192
I00
sS'utc_offset'
p193
NsS'statuses_count'
p194
I2474
sS'description'
p195
g122
sS'friends_count'
p196
I513
sS'location'
p197
g122
sS'profile_link_color'
p198
g126
sS'profile_image_url'
p199
g128
sS'notifications'
p200
NsS'geo_enabled'
p201
I00
sS'profile_background_color'
p202
g50
sS'profile_background_image_url'
p203
g132
sS'screen_name'
p204
g133
sg167
g134
sg1
I00
sS'profile_background_tile'
p205
I00
sS'favourites_count'
p206
I910
sS'name'
p207
g137
sS'url'
p208
Nsg173
g174
(S'\x07\xde\x07\r\x14"\x0c\x00\x00\x00'
p209
tp210
Rp211
sS'profile_background_image_url_https'
p212
g37
sS'time_zone'
p213
NsS'protected'
p214
I00
sS'default_profile'
p215
I01
sS'is_translator'
p216
I00
sbs.