(dp0
S'following'
p1
(lp2
(lp3
I278585572
aL2674903315L
aI803074838
aL2785275977L
aI1490001942
aI1066471309
aI843797761
aI1014618007
aL2890481033L
aI530835440
aI428903675
aI63669538
aL2767137662L
aI346461391
aI1690164174
aI206409535
aI1719586196
aI398747402
aL2902240972L
aL2886901133L
aI92440576
aI1453778239
aL2785212987L
aL2782011883L
aI39991220
aL2805132018L
aI1217980212
aL2731728452L
aL2714025972L
aI602686022
aL2898273617L
aL2900131486L
aI1917443466
aL2899763093L
aL2379661753L
aI302935867
aL2836831302L
aL2814965821L
aI482825711
aI1897963154
aL2848278047L
aL2816766902L
aL2814992517L
aL2858599781L
aI1533717738
aI957148195
aL2601646009L
aL2164819351L
aI1427429364
aL2907653653L
aI18942526
aI388410008
aI30618692
aI931781545
aL2233583126L
aL2284455746L
aL2658633008L
aI1036578944
aL2385876978L
aI18257487
aL2229976656L
aL2572830134L
aI1876410210
aL2345712726L
aI735232200
aL2707831716L
aI1256203806
aI377018034
aL2584585388L
aI31275580
aI1912251697
aI1931331919
aI1355357792
aI618275125
aI36415257
aL2596479854L
aL2706080292L
aL2366296358L
aI284805016
aI1951994160
aL2373446051L
aI19357045
aI461325139
aI862535828
aI942390842
aL2731397727L
aI114183107
aI37017261
aL2483307072L
aL2228475781L
aI154530823
aL2693449776L
aI143834772
aI735280746
aI452252545
aI735143449
aI11957562
aL2340645799L
aL2468540360L
aL2320547791L
aL2586283382L
aI78558305
aI363582650
aL2538258559L
aI1152984595
aI727193022
aL2354928007L
aI520988333
aL2451913472L
aI1369360440
aI393580972
aI1928251969
aI178366492
aI1869402187
aL2686020266L
aL2679122258L
aI42430180
aL2658854173L
aI162540978
aL2544728480L
aI87299677
aI14829016
aL2654779818L
aL2572625041L
aL2598526662L
aL2656252735L
aL2685390260L
aI1258243938
aL2663865414L
aI1002627314
aL2417118709L
aL2610976802L
aI16657786
aI14616406
aI1483185702
aI950397925
aI203024248
aI957474006
aI125769771
aL2675274463L
aI228679953
aL2185832379L
aL2182969026L
aI1316950460
aL2355448008L
aL2557963830L
aL2666881376L
aL2184665196L
aL2552330280L
aI225925468
aL2641221758L
aL2683716570L
aL2545251487L
aI37685126
aI20289545
aI1411688574
aI392469861
aI175906908
aL2659955006L
aL2428295648L
aI168312157
aL2529457904L
aL2333550296L
aL2333555209L
aI31541303
aL2365631125L
aI410284783
aI1709689099
aI86689374
aI79210652
aI226828258
aI248894406
aL2424175189L
aI753359276
aI33492443
aI373355183
aI29964759
aL2660372376L
aL2676066667L
aI424241794
aI613589375
aI43942229
aL2302609886L
aI204385761
aL2653033321L
aI97992593
aI122163526
aL2672540227L
aI44765882
aI253756767
aI1961122069
aI61784607
aL2618666149L
aI1670967312
aI1070063569
aI27457454
aI864000018
aI15369494
aL2669034566L
aI329525509
aL2668090308L
aI119976960
aL2639073198L
aI785159748
aL2444504016L
aL2659475168L
aI1197345576
aI120325806
aI1577706050
aI219488642
aL2663403632L
aI557855355
aI780469045
aI188125145
aL2665733365L
aL2297998979L
aL2377738586L
aL2587469552L
aL2593284692L
aL2244563880L
aI541973128
aL2432830056L
aI1732251638
aI1870053469
aI1140791539
aI140829518
aI544707567
aL2383132067L
aI164789629
aL2609127086L
aI26713042
aL2431936201L
aL2470981772L
aL2662211485L
aI248871954
aI169115069
aI263026031
aL2270789437L
aI81096462
aL2610493975L
aL2525325114L
aL2658528396L
aL2256003930L
aL2422806902L
aI84051650
aI1322307116
aI585776636
aI198787330
aL2650390117L
aI24669516
aI40200769
aI125139922
aL2646741601L
aL2659988276L
aL2581153754L
aL2558463343L
aL2603464796L
aI343534984
aI139311025
aL2597913606L
aI463581555
aI318421688
aI138187896
aI1142775523
aI45345052
aI316786120
aI20468996
aI44209472
aI609150188
aI461559163
aL2655010194L
aI160358537
aL2482893991L
aI928520490
aI441487115
aI297855695
aI1334718296
aI153860327
aI152626730
aI965932052
aL2551840765L
aI20698672
aI111583872
aL2715399489L
aI1558018844
aI530839582
aI107557629
aL2431439947L
aI1670726738
aI101795538
aI15356318
aL2640043440L
aL2617566018L
aI1074633152
aI1636317235
aI289935688
aI25220418
aI760494572
aL2421236229L
aL2495727296L
aL2437414320L
aI1431629534
aI85880042
aI102212758
aL2512353144L
aL2696289885L
aI1625176387
aI117883265
aI1109173051
aL2548180424L
aL2416007262L
aI66935500
aL2650820024L
aI250737990
aI44376201
aI511164515
aI21318183
aI1506841820
aL2674074123L
aL2222246305L
aL2371102609L
aL2588405865L
aI819701023
aI338530814
aI746607332
aI169609728
aL2595429379L
aI72764133
aL2195164722L
aI42701544
aI207048594
aL2484669638L
aL2565614094L
aL2544061105L
aI27784508
aI149878184
aL2332350522L
aI271531588
aI1097041136
aI127195708
aI276234557
aI575919094
aI194962708
aI394975971
aL2423304780L
aI919864417
aI17565293
aI18942861
aI96320954
aL2331781479L
aL2324338855L
aL2320581355L
aL2319496951L
aI38574970
aI97340532
aL2308093136L
aI1262171904
aI415207583
aI133449315
aI293393370
aI158883467
aI53366264
aI1917684800
aI1919845867
aI909287167
aI285500319
aI1663541358
aI1389398869
aI52835309
aI1873590523
aL2493406212L
aL2592134713L
aI35574246
aI36776434
aL2510878592L
aI43056691
aI1635943718
aI1239875148
aI635507681
aasS'followers'
p4
(lp5
(lp6
L3110345123L
aI1365093931
aL2539577030L
aL3295057068L
aL2451366710L
aL2483307072L
aL2548180424L
aasS'obj'
p7
ccopy_reg
_reconstructor
p8
(ctweepy.models
User
p9
c__builtin__
object
p10
Ntp11
Rp12
(dp13
S'follow_request_sent'
p14
NsS'has_extended_profile'
p15
I00
sS'profile_use_background_image'
p16
I01
sS'profile_sidebar_fill_color'
p17
VDDEEF6
p18
sS'id'
p19
L2639605213L
sS'verified'
p20
I00
sS'entities'
p21
(dp22
Vdescription
p23
(dp24
Vurls
p25
(lp26
sssS'profile_image_url_https'
p27
Vhttps://pbs.twimg.com/profile_images/488422237343477761/Kpgpr7qs_normal.jpeg
p28
sS'_json'
p29
(dp30
Vfollow_request_sent
p31
NsVhas_extended_profile
p32
I00
sVprofile_use_background_image
p33
I01
sVdefault_profile_image
p34
I00
sVid
p35
L2639605213L
sVprofile_background_image_url_https
p36
Vhttps://abs.twimg.com/images/themes/theme1/bg.png
p37
sVverified
p38
I00
sVprofile_text_color
p39
V333333
p40
sVprofile_image_url_https
p41
g28
sVprofile_sidebar_fill_color
p42
g18
sVentities
p43
g22
sVfollowers_count
p44
I7
sVprofile_sidebar_border_color
p45
VC0DEED
p46
sVid_str
p47
V2639605213
p48
sVprofile_background_color
p49
VC0DEED
p50
sVlisted_count
p51
I9
sVstatus
p52
(dp53
Vcontributors
p54
NsVtruncated
p55
I00
sVtext
p56
VRT @upmyprofile: UpMyProfile, Key to Success on Instagram\u000ahttps://t.co/IUC0KRnFvr\u000a#InstagramNews #UpMyProfile #buyrealinstagramlikes https:\u2026
p57
sVin_reply_to_status_id
p58
Nsg35
L661894784831897600L
sVfavorite_count
p59
I0
sVsource
p60
V<a href="http://twitter.com" rel="nofollow">Twitter Web Client</a>
p61
sVretweeted
p62
I00
sVcoordinates
p63
Nsg43
(dp64
Vsymbols
p65
(lp66
sVuser_mentions
p67
(lp68
(dp69
g35
L2394253423L
sVindices
p70
(lp71
I3
aI15
asg47
V2394253423
p72
sVscreen_name
p73
Vupmyprofile
p74
sVname
p75
VUpMyProfile
p76
sasVhashtags
p77
(lp78
(dp79
g70
(lp80
I82
aI96
asg56
VInstagramNews
p81
sa(dp82
g70
(lp83
I97
aI109
asg56
VUpMyProfile
p84
sa(dp85
g70
(lp86
I110
aI132
asg56
Vbuyrealinstagramlikes
p87
sasg25
(lp88
(dp89
Vurl
p90
Vhttps://t.co/IUC0KRnFvr
p91
sg70
(lp92
I58
aI81
asVexpanded_url
p93
Vhttp://www.upmyprofile.com/blog/upmyprofile-key-to-success-on-instagram/
p94
sVdisplay_url
p95
Vupmyprofile.com/blog/upmyprofi\u2026
p96
sasVmedia
p97
(lp98
(dp99
Vsource_user_id
p100
L2394253423L
sVsource_status_id_str
p101
V661887305637040128
p102
sg93
Vhttp://twitter.com/upmyprofile/status/661887305637040128/photo/1
p103
sg95
Vpic.twitter.com/rVyFGnn2NL
p104
sg90
Vhttps://t.co/rVyFGnn2NL
p105
sVmedia_url_https
p106
Vhttps://pbs.twimg.com/media/CS9-_xUWwAEYS2E.jpg
p107
sVsource_user_id_str
p108
V2394253423
p109
sVsource_status_id
p110
L661887305637040128L
sg47
V661887304282324993
p111
sVsizes
p112
(dp113
Vsmall
p114
(dp115
Vh
p116
I340
sVresize
p117
Vfit
p118
sVw
p119
I340
ssVlarge
p120
(dp121
g116
I500
sg117
Vfit
p122
sg119
I500
ssVmedium
p123
(dp124
g116
I500
sg117
Vfit
p125
sg119
I500
ssVthumb
p126
(dp127
g116
I150
sg117
Vcrop
p128
sg119
I150
sssg70
(lp129
I139
aI140
asVtype
p130
Vphoto
p131
sg35
L661887304282324993L
sVmedia_url
p132
Vhttp://pbs.twimg.com/media/CS9-_xUWwAEYS2E.jpg
p133
sassVin_reply_to_screen_name
p134
Nsg47
V661894784831897600
p135
sVretweet_count
p136
I106
sVin_reply_to_user_id
p137
NsVfavorited
p138
I00
sVretweeted_status
p139
(dp140
g54
Nsg55
I00
sg56
VUpMyProfile, Key to Success on Instagram\u000ahttps://t.co/IUC0KRnFvr\u000a#InstagramNews #UpMyProfile #buyrealinstagramlikes https://t.co/rVyFGnn2NL
p141
sg58
Nsg35
L661887305637040128L
sg59
I101
sg60
V<a href="http://twitter.com" rel="nofollow">Twitter Web Client</a>
p142
sg62
I00
sg63
Nsg43
(dp143
g65
(lp144
sg67
(lp145
sg77
(lp146
(dp147
g70
(lp148
I65
aI79
asg56
VInstagramNews
p149
sa(dp150
g70
(lp151
I80
aI92
asg56
VUpMyProfile
p152
sa(dp153
g70
(lp154
I93
aI115
asg56
Vbuyrealinstagramlikes
p155
sasg25
(lp156
(dp157
g90
Vhttps://t.co/IUC0KRnFvr
p158
sg70
(lp159
I41
aI64
asg93
Vhttp://www.upmyprofile.com/blog/upmyprofile-key-to-success-on-instagram/
p160
sg95
Vupmyprofile.com/blog/upmyprofi\u2026
p161
sasg97
(lp162
(dp163
g93
Vhttp://twitter.com/upmyprofile/status/661887305637040128/photo/1
p164
sg95
Vpic.twitter.com/rVyFGnn2NL
p165
sg90
Vhttps://t.co/rVyFGnn2NL
p166
sg106
Vhttps://pbs.twimg.com/media/CS9-_xUWwAEYS2E.jpg
p167
sg47
V661887304282324993
p168
sg112
(dp169
g114
(dp170
g116
I340
sg117
Vfit
p171
sg119
I340
ssg120
(dp172
g116
I500
sg117
Vfit
p173
sg119
I500
ssg123
(dp174
g116
I500
sg117
Vfit
p175
sg119
I500
ssg126
(dp176
g116
I150
sg117
Vcrop
p177
sg119
I150
sssg70
(lp178
I116
aI139
asg130
Vphoto
p179
sg35
L661887304282324993L
sg132
Vhttp://pbs.twimg.com/media/CS9-_xUWwAEYS2E.jpg
p180
sassg134
Nsg47
V661887305637040128
p181
sg136
I106
sg137
Nsg138
I00
sVgeo
p182
NsVin_reply_to_user_id_str
p183
NsVpossibly_sensitive
p184
I00
sVlang
p185
Ven
p186
sVcreated_at
p187
VWed Nov 04 12:46:45 +0000 2015
p188
sVin_reply_to_status_id_str
p189
NsVplace
p190
Nssg182
Nsg183
Nsg184
I00
sg185
Ven
p191
sg187
VWed Nov 04 13:16:28 +0000 2015
p192
sg189
Nsg190
NssVis_translation_enabled
p193
I00
sVutc_offset
p194
NsVstatuses_count
p195
I3296
sg23
V
p196
sVfriends_count
p197
I379
sVlocation
p198
g196
sVprofile_link_color
p199
V0084B4
p200
sVprofile_image_url
p201
Vhttp://pbs.twimg.com/profile_images/488422237343477761/Kpgpr7qs_normal.jpeg
p202
sVfollowing
p203
NsVgeo_enabled
p204
I00
sVprofile_background_image_url
p205
Vhttp://abs.twimg.com/images/themes/theme1/bg.png
p206
sg73
Vpedina_p8865
p207
sg185
Vru
p208
sVprofile_background_tile
p209
I00
sVfavourites_count
p210
I1338
sg75
Vpatrick pedina
p211
sVnotifications
p212
Nsg90
Nsg187
VSun Jul 13 20:38:25 +0000 2014
p213
sVcontributors_enabled
p214
I00
sVtime_zone
p215
NsVprotected
p216
I00
sVdefault_profile
p217
I01
sVis_translator
p218
I00
ssS'contributors_enabled'
p219
I00
sS'profile_text_color'
p220
g40
sS'followers_count'
p221
I7
sS'profile_sidebar_border_color'
p222
g46
sS'id_str'
p223
g48
sS'default_profile_image'
p224
I00
sS'listed_count'
p225
I9
sS'status'
p226
g8
(ctweepy.models
Status
p227
g10
Ntp228
Rp229
(dp230
S'favorited'
p231
I00
sS'contributors'
p232
NsS'truncated'
p233
I00
sS'text'
p234
VRT @upmyprofile: UpMyProfile, Key to Success on Instagram\u000ahttps://t.co/IUC0KRnFvr\u000a#InstagramNews #UpMyProfile #buyrealinstagramlikes https:\u2026
p235
sS'source_url'
p236
Vhttp://twitter.com
p237
sS'possibly_sensitive'
p238
I00
sS'in_reply_to_status_id'
p239
NsS'geo'
p240
Nsg19
L661894784831897600L
sS'favorite_count'
p241
I0
sS'lang'
p242
g191
sS'retweeted_status'
p243
g8
(g227
g10
Ntp244
Rp245
(dp246
g231
I00
sg232
Nsg233
I00
sg234
VUpMyProfile, Key to Success on Instagram\u000ahttps://t.co/IUC0KRnFvr\u000a#InstagramNews #UpMyProfile #buyrealinstagramlikes https://t.co/rVyFGnn2NL
p247
sg236
Vhttp://twitter.com
p248
sg238
I00
sg239
Nsg240
Nsg19
L661887305637040128L
sg241
I101
sg242
g186
sg21
g143
sS'created_at'
p249
cdatetime
datetime
p250
(S'\x07\xdf\x0b\x04\x0c.-\x00\x00\x00'
p251
tp252
Rp253
sg29
g140
sS'coordinates'
p254
NsS'in_reply_to_user_id_str'
p255
NsS'source'
p256
VTwitter Web Client
p257
sS'in_reply_to_status_id_str'
p258
NsS'in_reply_to_screen_name'
p259
Nsg223
g181
sS'retweeted'
p260
I00
sS'place'
p261
NsS'retweet_count'
p262
I106
sS'in_reply_to_user_id'
p263
Nsbsg21
g64
sg249
g250
(S'\x07\xdf\x0b\x04\r\x10\x1c\x00\x00\x00'
p264
tp265
Rp266
sg29
g53
sg254
Nsg255
Nsg256
VTwitter Web Client
p267
sg258
Nsg259
Nsg223
g135
sg260
I00
sg261
Nsg262
I106
sg263
NsbsS'is_translation_enabled'
p268
I00
sS'utc_offset'
p269
NsS'statuses_count'
p270
I3296
sS'description'
p271
g196
sS'friends_count'
p272
I379
sS'location'
p273
g196
sS'profile_link_color'
p274
g200
sS'profile_image_url'
p275
g202
sS'notifications'
p276
NsS'geo_enabled'
p277
I00
sS'profile_background_color'
p278
g50
sS'profile_background_image_url'
p279
g206
sS'screen_name'
p280
g207
sg242
g208
sg1
I00
sS'profile_background_tile'
p281
I00
sS'favourites_count'
p282
I1338
sS'name'
p283
g211
sS'url'
p284
Nsg249
g250
(S'\x07\xde\x07\r\x14&\x19\x00\x00\x00'
p285
tp286
Rp287
sS'profile_background_image_url_https'
p288
g37
sS'time_zone'
p289
NsS'protected'
p290
I00
sS'default_profile'
p291
I01
sS'is_translator'
p292
I00
sbs.