(dp0
S'following'
p1
(lp2
(lp3
I302545862
aI1438644655
aI571202103
aI83567424
aI17187338
aI124690469
aI377013442
aI583084442
aI1029063553
aI80024060
aI22095911
aI983655260
aL2791974008L
aI1923021481
aI131193450
aI16894283
aI1484632920
aL2808072651L
aI72894487
aL2581019786L
aI382636861
aI346183275
aL2296501071L
aI201891203
aI1386719893
aI36226441
aI17743274
aI1059530150
aI1566069020
aI182642157
aI397610743
aI254098644
aI156132825
aI42519612
aI204832963
aI21664245
aI39294671
aI416311594
aI18481050
aI341951124
aI202915788
aI123119378
aI1490281285
aL2391775315L
aL2259383122L
aI398105054
aI39085071
aI110539278
aI46227914
aI19079480
aI8287602
aI23221109
aI7557352
aI80697114
aI624413
aI337847812
aI21232827
aI1582853809
aI39853973
aI14292717
aI39264827
aI23344188
aI37284991
aI271211220
aI17049899
aI17841130
aI475524030
aI10165242
aL2334614718L
aI976608043
aI360737813
aI80554933
aI160298969
aI14173032
aI15485461
aI241789496
aI52166809
aI17500537
aI38053161
aI22522178
aI14905940
aI17643909
aI18856867
aI97334517
aI17780244
aI61342056
aI24227424
aI338532559
aI7520262
aI18034541
aI23400557
aI264671180
aI22264891
aI514835972
aI15210031
aI271138078
aI38476367
aI32778531
aI77383768
aI236915531
aI4120961
aI1222617536
aI8524892
aL2469210649L
aI82711419
aI190787319
aI17844280
aI809760
aI419733772
aI27922928
aI17549691
aI28571999
aI151280096
aI16888420
aI14378113
aI258819961
aI47087332
aI472634603
aI51963389
aI211194146
aI31835812
aI19739279
aI461212126
aI437742295
aI461452739
aI44060322
aI15368728
aI108036263
aI26583295
aI17622549
aI84365116
aI18571332
aI18052886
aI10202342
aI14117774
aI21810002
aI14165212
aI16515274
aI17790265
aI15246621
aI93913891
aI25827743
aasS'followers'
p4
(lp5
(lp6
I264113071
aI1253160421
aI1924310023
aI18578905
aL4098342854L
aL4067946317L
aI1273506308
aL2607663110L
aL3043171396L
aL3178615363L
aI162777509
aI289109783
aI427205410
aL3044738139L
aL2832647847L
aL2662370076L
aL3485492116L
aI345343418
aI573865370
aI29306841
aL2444062993L
aL3249124776L
aI437603468
aL3749603182L
aL3685052797L
aI247788883
aL2837882056L
aL3750557794L
aI1092377130
aL2781050528L
aI18287509
aI1904689014
aL2848072954L
aI1233362096
aI117834206
aL3548794395L
aI1529917477
aL2357039881L
aL3289853613L
aL3273325590L
aI544762448
aL3253720908L
aI18733251
aL2326180262L
aI38804313
aI389648302
aL3313742095L
aI23401517
aI1583483839
aL3299871217L
aL2463817879L
aI1631973516
aI332657899
aL3100556210L
aI361196291
aI131216518
aI369576401
aI1845191160
aL2579913354L
aI100671817
aL3342273797L
aL2882498617L
aI466722142
aI37907210
aL2519583824L
aI31369038
aL2434282090L
aI296552984
aI104391154
aI16381360
aI148186622
aL3146575442L
aI285362838
aI234365083
aL3331596177L
aL3092841731L
aL2820661193L
aL3325324991L
aI497194674
aL3222415339L
aL2490689094L
aI1157699802
aL3230720166L
aL3237921639L
aL2484513824L
aI1529271854
aI536457858
aL3199780906L
aL3228423113L
aL2366023544L
aI246668408
aI517168840
aL2690830410L
aI303531344
aL2186937014L
aL3091318521L
aI990996792
aL2896401414L
aI24224332
aI88557757
aI73517428
aI170719956
aI1356261860
aI565472675
aI474946879
aI570154956
aI120672388
aI361829058
aL2752150528L
aI63558740
aL2997788563L
aL3017534336L
aI184391585
aI20246258
aI220584388
aL3068988122L
aI65412876
aL2339480196L
aI248757305
aI189929204
aI1321042015
aI304610767
aI254228322
aI160298969
aI1029063553
aI115764293
aL2896920065L
aL2581019786L
aL3016884012L
aI16894283
aI1286540352
aL3028127301L
aI72105856
aL3006533568L
aI63757812
aI106291034
aI541956347
aL2821330855L
aI369132893
aI40401658
aL2234499834L
aI805230144
aL2302298804L
aL2986901786L
aL2977952868L
aL2296501071L
aI25239141
aL2893263672L
aI468804791
aI22534046
aI1847302273
aI17743274
aI611817117
aI16515274
aI1566069020
aI479821197
aI904968246
aI373875321
aI282408091
aI261630846
aI561422115
aL2575657495L
aI1411055653
aL2930532522L
aI203981879
aI1965988873
aL2893011991L
aI569302303
aI487089304
aL2923600363L
aI112448004
aI27323446
aI270798660
aL2917925022L
aL2918376912L
aL2915655456L
aI27769979
aL2260150651L
aL2753440416L
aI338532559
aL2871524108L
aL2903968728L
aI35643668
aL2881406265L
aI300534170
aI292497168
aL2344020773L
aL2573412902L
aI36293963
aI149297036
aI390079732
aI67720177
aI62226476
aL2315693286L
aL2863735747L
aI601182092
aI18846351
aL2794942827L
aL2835539214L
aL2786619365L
aL2435458328L
aI1244393550
aI488935222
aL2733375558L
aI158454257
aL2678577361L
aI269754485
aI556233577
aL2433930494L
aI23003750
aI745221985
aI474480658
aL2692359210L
aI134341319
aI14658383
aI341951124
aI421794008
aI1308893275
aL2727686858L
aI1228116126
aL2720457995L
aL2729219784L
aI361631618
aL2414611958L
aI142729107
aL2718237912L
aL2689365836L
aI1946727295
aL2534466382L
aI77383768
aI85368530
aL2256227755L
aI5528472
aI190777222
aI16124000
aI21198496
aI3195601
aI171670758
aasS'obj'
p7
ccopy_reg
_reconstructor
p8
(ctweepy.models
User
p9
c__builtin__
object
p10
Ntp11
Rp12
(dp13
S'follow_request_sent'
p14
NsS'has_extended_profile'
p15
I00
sS'profile_use_background_image'
p16
I01
sS'profile_sidebar_fill_color'
p17
VDDEEF6
p18
sS'id'
p19
L2646506552L
sS'verified'
p20
I00
sS'entities'
p21
(dp22
Vurl
p23
(dp24
Vurls
p25
(lp26
(dp27
g23
Vhttp://t.co/sgq7HeFgpz
p28
sVindices
p29
(lp30
I0
aI22
asVexpanded_url
p31
Vhttp://www.cyborgquant.com
p32
sVdisplay_url
p33
Vcyborgquant.com
p34
sassVdescription
p35
(dp36
g25
(lp37
(dp38
g23
Vhttp://t.co/9tbx5laeA0
p39
sg29
(lp40
I137
aI159
asg31
Vhttp://Cyborgquant.com
p41
sg33
VCyborgquant.com
p42
sasssS'profile_image_url_https'
p43
Vhttps://pbs.twimg.com/profile_images/488835795784970240/qyxPuthI_normal.png
p44
sS'_json'
p45
(dp46
Vfollow_request_sent
p47
NsVhas_extended_profile
p48
I00
sVprofile_use_background_image
p49
I01
sVdefault_profile_image
p50
I00
sVid
p51
L2646506552L
sVprofile_background_image_url_https
p52
Vhttps://abs.twimg.com/images/themes/theme1/bg.png
p53
sVverified
p54
I00
sVprofile_text_color
p55
V333333
p56
sVprofile_image_url_https
p57
g44
sVprofile_sidebar_fill_color
p58
g18
sVentities
p59
g22
sVfollowers_count
p60
I238
sVprofile_sidebar_border_color
p61
VC0DEED
p62
sVid_str
p63
V2646506552
p64
sVprofile_background_color
p65
VC0DEED
p66
sVlisted_count
p67
I19
sVstatus
p68
(dp69
Vlang
p70
Ven
p71
sVfavorited
p72
I00
sg59
(dp73
Vsymbols
p74
(lp75
(dp76
g29
(lp77
I47
aI52
asVtext
p78
VTISA
p79
sa(dp80
g29
(lp81
I54
aI58
asg78
VCCS
p82
sa(dp83
g29
(lp84
I60
aI65
asg78
VBSET
p85
sa(dp86
g29
(lp87
I67
aI71
asg78
VIMI
p88
sasVuser_mentions
p89
(lp90
sVhashtags
p91
(lp92
sg25
(lp93
ssVcontributors
p94
NsVtruncated
p95
I00
sg78
VStocks with strong head and shoulders pattern: $TISA, $CCS, $BSET, $IMI
p96
sVcreated_at
p97
VMon Nov 16 14:20:03 +0000 2015
p98
sVretweeted
p99
I00
sVin_reply_to_status_id_str
p100
NsVcoordinates
p101
NsVin_reply_to_user_id_str
p102
NsVsource
p103
V<a href="http://www.cyborgquant.com/" rel="nofollow">CyborgQuantData</a>
p104
sVin_reply_to_status_id
p105
NsVin_reply_to_screen_name
p106
Nsg63
V666259439255748608
p107
sVplace
p108
NsVretweet_count
p109
I0
sVgeo
p110
Nsg51
L666259439255748608L
sVfavorite_count
p111
I0
sVin_reply_to_user_id
p112
NssVis_translation_enabled
p113
I00
sVutc_offset
p114
NsVstatuses_count
p115
I7063
sg35
VAlgorithmic hedge trader, currently futures and commodites. Use my free position sizer and risk vs reward tool to improve your trading @ http://t.co/9tbx5laeA0
p116
sVfriends_count
p117
I142
sVlocation
p118
VOxford, England, UK
p119
sVprofile_link_color
p120
V032B36
p121
sVprofile_image_url
p122
Vhttp://pbs.twimg.com/profile_images/488835795784970240/qyxPuthI_normal.png
p123
sVfollowing
p124
NsVgeo_enabled
p125
I01
sVprofile_background_image_url
p126
Vhttp://abs.twimg.com/images/themes/theme1/bg.png
p127
sVscreen_name
p128
VCyborgQuant
p129
sg70
Ven
p130
sVprofile_background_tile
p131
I00
sVfavourites_count
p132
I39
sVname
p133
VChristopher Angus
p134
sVnotifications
p135
Nsg23
Vhttp://t.co/sgq7HeFgpz
p136
sg97
VMon Jul 14 23:18:51 +0000 2014
p137
sVcontributors_enabled
p138
I00
sVtime_zone
p139
NsVprotected
p140
I00
sVdefault_profile
p141
I00
sVis_translator
p142
I00
ssS'contributors_enabled'
p143
I00
sS'profile_text_color'
p144
g56
sS'followers_count'
p145
I238
sS'profile_sidebar_border_color'
p146
g62
sS'id_str'
p147
g64
sS'default_profile_image'
p148
I00
sS'listed_count'
p149
I19
sS'status'
p150
g8
(ctweepy.models
Status
p151
g10
Ntp152
Rp153
(dp154
S'favorited'
p155
I00
sS'contributors'
p156
NsS'truncated'
p157
I00
sS'text'
p158
g96
sS'source_url'
p159
Vhttp://www.cyborgquant.com/
p160
sS'in_reply_to_status_id'
p161
NsS'geo'
p162
Nsg19
L666259439255748608L
sS'favorite_count'
p163
I0
sS'lang'
p164
g71
sg21
g73
sS'created_at'
p165
cdatetime
datetime
p166
(S'\x07\xdf\x0b\x10\x0e\x14\x03\x00\x00\x00'
p167
tp168
Rp169
sg45
g69
sS'coordinates'
p170
NsS'in_reply_to_user_id_str'
p171
NsS'source'
p172
VCyborgQuantData
p173
sS'in_reply_to_status_id_str'
p174
NsS'in_reply_to_screen_name'
p175
Nsg147
g107
sS'retweeted'
p176
I00
sS'place'
p177
NsS'retweet_count'
p178
I0
sS'in_reply_to_user_id'
p179
NsbsS'is_translation_enabled'
p180
I00
sS'utc_offset'
p181
NsS'statuses_count'
p182
I7063
sS'description'
p183
g116
sS'friends_count'
p184
I142
sS'location'
p185
g119
sS'profile_link_color'
p186
g121
sS'profile_image_url'
p187
g123
sS'notifications'
p188
NsS'geo_enabled'
p189
I01
sS'profile_background_color'
p190
g66
sS'profile_background_image_url'
p191
g127
sS'screen_name'
p192
g129
sg164
g130
sg1
I00
sS'profile_background_tile'
p193
I00
sS'favourites_count'
p194
I39
sS'name'
p195
g134
sS'url'
p196
g136
sg165
g166
(S'\x07\xde\x07\x0e\x17\x123\x00\x00\x00'
p197
tp198
Rp199
sS'profile_background_image_url_https'
p200
g53
sS'time_zone'
p201
NsS'protected'
p202
I00
sS'default_profile'
p203
I00
sS'is_translator'
p204
I00
sbs.