(dp0
S'following'
p1
(lp2
(lp3
L2834817831L
aL2578560158L
aL2328834075L
aI86208515
aI1574274019
aL2729815936L
aL2774687256L
aL2821416581L
aI409309769
aL2438117395L
aI485881472
aI343485402
aI245627071
aL2737740428L
aI21473938
aL2765874349L
aL2751788819L
aL2408796536L
aI288186280
aI166946877
aI297483687
aL2494899156L
aI471838253
aL2622278840L
aI66632083
aL2557412970L
aI377588282
aL2677708831L
aL2480120514L
aL2854064064L
aI478126597
aL2778100373L
aI1096976922
aL2832596798L
aL2636748014L
aL2612971584L
aL2391838117L
aI152682603
aI450805121
aL2376970230L
aI454592200
aI1330366183
aL2307016994L
aI154530823
aL2717273886L
aI762572323
aL2541157494L
aL2790426990L
aI1251951229
aL2789263969L
aI22960461
aI162540978
aI133390286
aL2365992217L
aI1849740576
aI349660914
aL2402487471L
aL2716679089L
aI707514301
aL2739373080L
aI149977469
aI951689497
aL2783529212L
aL2371355597L
aL2657616223L
aI455445236
aI805460012
aL2263757359L
aI227691474
aI75154674
aI186882488
aL2563807608L
aI149165844
aL2563646022L
aL2443908583L
aI191015592
aL2728937544L
aL2307212204L
aI1319850361
aI147998139
aL2741327809L
aI595291666
aL2767967713L
aI966184543
aI201708187
aI21360280
aI1253006348
aL2208779611L
aI1611357583
aL2449410511L
aI594406774
aL2167925167L
aL2197099334L
aI399011947
aI16414434
aI152926713
aI378776893
aI183731193
aL2399376566L
aI21812037
aI340181951
aL2763019843L
aI164305768
aI93719349
aL2180378031L
aI439827315
aL2732386978L
aL2745384343L
aI380497008
aI272060467
aL2418978690L
aI813285217
aL2527701944L
aI974487643
aL2323049886L
aI958886749
aL2321090622L
aL2543286565L
aI122009091
aI473017148
aI784541286
aI53004765
aI1951994160
aI1943091906
aI178006495
aI240629853
aI236636515
aI1654339098
aI732677742
aI321970717
aI1020190998
aI356461659
aI71231774
aL2402147943L
aI1854251720
aI332568011
aI895832586
aI358079011
aI400014805
aL2692313258L
aL2598495900L
aL2676425660L
aI986500177
aL2615779092L
aI941240646
aI199359691
aL2575064701L
aI541804690
aL2727698496L
aL2307569686L
aI516973275
aI468929493
aI1965326180
aL2723295348L
aL2618863518L
aI1653431161
aI34737026
aL2573182340L
aI1086973130
aI145421896
aI1486880144
aI21569677
aL2722735394L
aI13969812
aI215151029
aI456960504
aI28351859
aI92457245
aL2711608422L
aI431734647
aL2262081440L
aI116498273
aI1711739342
aL2568075804L
aL2560064220L
aL2680854087L
aI309719235
aI298199572
aI1730928487
aL2366296358L
aL2703620364L
aL2608051195L
aL2153656071L
aI824016307
aL2582761964L
aL2641221758L
aL2720256062L
aL2313789050L
aI377407811
aL2371923408L
aL2192846508L
aI86414029
aL2326353829L
aI1040316242
aI1183887576
aI32982244
aL2284251792L
aI1077186775
aI909287167
aI554582733
aI286043708
aI547747578
aI47881924
aI11911082
aI216779155
aI1552037270
aI47897188
aI868859868
aL2707831716L
aL2386730596L
aL2614703659L
aI1002752810
aI1962050106
aI146584479
aI1837182150
aI1147330586
aasS'followers'
p4
(lp5
(lp6
L3312667008L
aI26250653
aI1104367171
aL3137023218L
aasS'obj'
p7
ccopy_reg
_reconstructor
p8
(ctweepy.models
User
p9
c__builtin__
object
p10
Ntp11
Rp12
(dp13
S'follow_request_sent'
p14
NsS'has_extended_profile'
p15
I00
sS'profile_use_background_image'
p16
I01
sS'profile_sidebar_fill_color'
p17
VDDEEF6
p18
sS'id'
p19
L2656235455L
sS'verified'
p20
I00
sS'entities'
p21
(dp22
Vdescription
p23
(dp24
Vurls
p25
(lp26
sssS'profile_image_url_https'
p27
Vhttps://pbs.twimg.com/profile_images/490047944251301888/OSe1VQYK_normal.jpeg
p28
sS'_json'
p29
(dp30
Vfollow_request_sent
p31
NsVhas_extended_profile
p32
I00
sVprofile_use_background_image
p33
I01
sVdefault_profile_image
p34
I00
sVid
p35
L2656235455L
sVprofile_background_image_url_https
p36
Vhttps://abs.twimg.com/images/themes/theme1/bg.png
p37
sVverified
p38
I00
sVprofile_text_color
p39
V333333
p40
sVprofile_image_url_https
p41
g28
sVprofile_sidebar_fill_color
p42
g18
sVentities
p43
g22
sVfollowers_count
p44
I4
sVprofile_sidebar_border_color
p45
VC0DEED
p46
sVid_str
p47
V2656235455
p48
sVprofile_background_color
p49
VC0DEED
p50
sVlisted_count
p51
I8
sVstatus
p52
(dp53
Vcontributors
p54
NsVtruncated
p55
I00
sVtext
p56
VRT @LexityWavez: @Red_Cree please tell me this was you http://t.co/JjpupwpDcY
p57
sVin_reply_to_status_id
p58
Nsg35
L661903718288392192L
sVfavorite_count
p59
I0
sVsource
p60
V<a href="http://twitter.com" rel="nofollow">Twitter Web Client</a>
p61
sVretweeted
p62
I00
sVcoordinates
p63
Nsg43
(dp64
Vsymbols
p65
(lp66
sVuser_mentions
p67
(lp68
(dp69
g35
L3371247779L
sVindices
p70
(lp71
I3
aI15
asg47
V3371247779
p72
sVscreen_name
p73
VLexityWavez
p74
sVname
p75
VLexity_Wavez
p76
sa(dp77
g35
I1568782699
sg70
(lp78
I17
aI26
asg47
V1568782699
p79
sg73
VRed_Cree
p80
sg75
VRed Cree - PS4
p81
sasVhashtags
p82
(lp83
sg25
(lp84
sVmedia
p85
(lp86
(dp87
Vsource_user_id
p88
L3371247779L
sVsource_status_id_str
p89
V655760066965032961
p90
sVexpanded_url
p91
Vhttp://twitter.com/LexityWavez/status/655760066965032961/photo/1
p92
sVdisplay_url
p93
Vpic.twitter.com/JjpupwpDcY
p94
sVurl
p95
Vhttp://t.co/JjpupwpDcY
p96
sVmedia_url_https
p97
Vhttps://pbs.twimg.com/media/CRm6S2MUcAMQrx-.jpg
p98
sVsource_user_id_str
p99
V3371247779
p100
sVsource_status_id
p101
L655760066965032961L
sg47
V655760053706715139
p102
sVsizes
p103
(dp104
Vsmall
p105
(dp106
Vh
p107
I255
sVresize
p108
Vfit
p109
sVw
p110
I340
ssVlarge
p111
(dp112
g107
I768
sg108
Vfit
p113
sg110
I1024
ssVmedium
p114
(dp115
g107
I450
sg108
Vfit
p116
sg110
I600
ssVthumb
p117
(dp118
g107
I150
sg108
Vcrop
p119
sg110
I150
sssg70
(lp120
I55
aI77
asVtype
p121
Vphoto
p122
sg35
L655760053706715139L
sVmedia_url
p123
Vhttp://pbs.twimg.com/media/CRm6S2MUcAMQrx-.jpg
p124
sassVin_reply_to_screen_name
p125
Nsg47
V661903718288392192
p126
sVretweet_count
p127
I111
sVin_reply_to_user_id
p128
NsVfavorited
p129
I00
sVretweeted_status
p130
(dp131
g54
Nsg55
I00
sg56
V@Red_Cree please tell me this was you http://t.co/JjpupwpDcY
p132
sg58
Nsg35
L655760066965032961L
sg59
I170
sg60
V<a href="http://twitter.com/download/iphone" rel="nofollow">Twitter for iPhone</a>
p133
sg62
I00
sg63
Nsg43
(dp134
g65
(lp135
sg67
(lp136
(dp137
g35
I1568782699
sg70
(lp138
I0
aI9
asg47
V1568782699
p139
sg73
VRed_Cree
p140
sg75
VRed Cree - PS4
p141
sasg82
(lp142
sg25
(lp143
sg85
(lp144
(dp145
g91
Vhttp://twitter.com/LexityWavez/status/655760066965032961/photo/1
p146
sg93
Vpic.twitter.com/JjpupwpDcY
p147
sg95
Vhttp://t.co/JjpupwpDcY
p148
sg97
Vhttps://pbs.twimg.com/media/CRm6S2MUcAMQrx-.jpg
p149
sg47
V655760053706715139
p150
sg103
(dp151
g105
(dp152
g107
I255
sg108
Vfit
p153
sg110
I340
ssg111
(dp154
g107
I768
sg108
Vfit
p155
sg110
I1024
ssg114
(dp156
g107
I450
sg108
Vfit
p157
sg110
I600
ssg117
(dp158
g107
I150
sg108
Vcrop
p159
sg110
I150
sssg70
(lp160
I38
aI60
asg121
Vphoto
p161
sg35
L655760053706715139L
sg123
Vhttp://pbs.twimg.com/media/CRm6S2MUcAMQrx-.jpg
p162
sassg125
VRed_Cree
p163
sg47
V655760066965032961
p164
sg127
I111
sg128
I1568782699
sg129
I00
sVgeo
p165
NsVin_reply_to_user_id_str
p166
V1568782699
p167
sVpossibly_sensitive
p168
I00
sVlang
p169
Ven
p170
sVcreated_at
p171
VSun Oct 18 14:59:18 +0000 2015
p172
sVin_reply_to_status_id_str
p173
NsVplace
p174
Nssg165
Nsg166
Nsg168
I00
sg169
Ven
p175
sg171
VWed Nov 04 13:51:58 +0000 2015
p176
sg173
Nsg174
NssVis_translation_enabled
p177
I00
sVutc_offset
p178
NsVstatuses_count
p179
I2216
sg23
V
p180
sVfriends_count
p181
I216
sVlocation
p182
g180
sVprofile_link_color
p183
V0084B4
p184
sVprofile_image_url
p185
Vhttp://pbs.twimg.com/profile_images/490047944251301888/OSe1VQYK_normal.jpeg
p186
sVfollowing
p187
NsVgeo_enabled
p188
I00
sVprofile_background_image_url
p189
Vhttp://abs.twimg.com/images/themes/theme1/bg.png
p190
sg73
Vlokareva_a1103
p191
sg169
Vru
p192
sVprofile_background_tile
p193
I00
sVfavourites_count
p194
I765
sg75
Varianna lokareva
p195
sVnotifications
p196
Nsg95
Nsg171
VFri Jul 18 08:18:21 +0000 2014
p197
sVcontributors_enabled
p198
I00
sVtime_zone
p199
NsVprotected
p200
I00
sVdefault_profile
p201
I01
sVis_translator
p202
I00
ssS'contributors_enabled'
p203
I00
sS'profile_text_color'
p204
g40
sS'followers_count'
p205
I4
sS'profile_sidebar_border_color'
p206
g46
sS'id_str'
p207
g48
sS'default_profile_image'
p208
I00
sS'listed_count'
p209
I8
sS'status'
p210
g8
(ctweepy.models
Status
p211
g10
Ntp212
Rp213
(dp214
S'favorited'
p215
I00
sS'contributors'
p216
NsS'truncated'
p217
I00
sS'text'
p218
g57
sS'source_url'
p219
Vhttp://twitter.com
p220
sS'possibly_sensitive'
p221
I00
sS'in_reply_to_status_id'
p222
NsS'geo'
p223
Nsg19
L661903718288392192L
sS'favorite_count'
p224
I0
sS'lang'
p225
g175
sS'retweeted_status'
p226
g8
(g211
g10
Ntp227
Rp228
(dp229
g215
I00
sg216
Nsg217
I00
sg218
g132
sg219
Vhttp://twitter.com/download/iphone
p230
sg221
I00
sg222
Nsg223
Nsg19
L655760066965032961L
sg224
I170
sg225
g170
sg21
g134
sS'created_at'
p231
cdatetime
datetime
p232
(S'\x07\xdf\n\x12\x0e;\x12\x00\x00\x00'
p233
tp234
Rp235
sg29
g131
sS'coordinates'
p236
NsS'in_reply_to_user_id_str'
p237
g167
sS'source'
p238
VTwitter for iPhone
p239
sS'in_reply_to_status_id_str'
p240
NsS'in_reply_to_screen_name'
p241
g163
sg207
g164
sS'retweeted'
p242
I00
sS'place'
p243
NsS'retweet_count'
p244
I111
sS'in_reply_to_user_id'
p245
I1568782699
sbsg21
g64
sg231
g232
(S'\x07\xdf\x0b\x04\r3:\x00\x00\x00'
p246
tp247
Rp248
sg29
g53
sg236
Nsg237
Nsg238
VTwitter Web Client
p249
sg240
Nsg241
Nsg207
g126
sg242
I00
sg243
Nsg244
I111
sg245
NsbsS'is_translation_enabled'
p250
I00
sS'utc_offset'
p251
NsS'statuses_count'
p252
I2216
sS'description'
p253
g180
sS'friends_count'
p254
I216
sS'location'
p255
g180
sS'profile_link_color'
p256
g184
sS'profile_image_url'
p257
g186
sS'notifications'
p258
NsS'geo_enabled'
p259
I00
sS'profile_background_color'
p260
g50
sS'profile_background_image_url'
p261
g190
sS'screen_name'
p262
g191
sg225
g192
sg1
I00
sS'profile_background_tile'
p263
I00
sS'favourites_count'
p264
I765
sS'name'
p265
g195
sS'url'
p266
Nsg231
g232
(S'\x07\xde\x07\x12\x08\x12\x15\x00\x00\x00'
p267
tp268
Rp269
sS'profile_background_image_url_https'
p270
g37
sS'time_zone'
p271
NsS'protected'
p272
I00
sS'default_profile'
p273
I01
sS'is_translator'
p274
I00
sbs.