(dp0
S'following'
p1
(lp2
(lp3
I86208515
aI409309769
aL2774687256L
aL2350344817L
aI278413976
aL2821416581L
aL2833772139L
aL2857806882L
aL2569702812L
aL2786251417L
aL2610985152L
aI1574274019
aI113040254
aL2751788819L
aI35686657
aL2765874349L
aI1715796506
aI1903562870
aI96555945
aL2557412970L
aI377588282
aI463163358
aL2228459934L
aL2828004067L
aI806890321
aI427798770
aL2450338628L
aL2577969026L
aL2825880506L
aI489156335
aL2810597777L
aL2450209980L
aL2827105986L
aI1256660550
aL2284455746L
aI354418265
aL2286933728L
aI955982712
aL2451913472L
aI1369360440
aL2408278927L
aI158941108
aL2572830134L
aI1543072628
aL2707537280L
aI365440183
aI774191172
aI382141735
aI1377824935
aL2707831716L
aL2592391704L
aI24626424
aI444713414
aI275424713
aI870242101
aI969339846
aI408100058
aI36415257
aI540750580
aI1852079359
aI29458878
aI1967231168
aL2366296358L
aI33109387
aL2695044714L
aL2373446051L
aI287730945
aL2352711895L
aL2656047919L
aI1469660306
aL2681776794L
aI578326143
aL2681831767L
aI853490604
aL2483307072L
aI68080316
aI372563040
aI44467396
aI780469045
aI542840469
aI562133675
aL2651990378L
aL2649230643L
aI507309350
aI18942861
aL2693405083L
aI525713285
aI20393230
aI1152984595
aL2354928007L
aI520988333
aL2471584406L
aL2485597124L
aI198428198
aL2722499285L
aI197147695
aI15040988
aL2686020266L
aI26713042
aL2544728480L
aL2613254438L
aI18532220
aL2572625041L
aL2432830056L
aI92422547
aI372704742
aI594424144
aI109512819
aI1258243938
aL2495445295L
aI162540978
aI15034155
aI287531586
aI26952935
aI16657786
aI1483185702
aI360544017
aL2661656306L
aL2667910046L
aL2675274463L
aL2654259266L
aI547663168
aL2557963830L
aL2182969026L
aL2184665196L
aI15369494
aL2552330280L
aI266171036
aI156667249
aI225925468
aI37685126
aI128847518
aI392469861
aI175906908
aI324228278
aL2333543874L
aL2365631125L
aI1316950460
aI86689374
aI156041116
aI543874719
aI42430180
aI15969220
aI60294741
aL2674771854L
aI1557326286
aI122114793
aI1107682382
aL2671343730L
aI29964759
aI15104704
aI1147330586
aI38832196
aL2718663195L
aL2478811886L
aL2649332256L
aI154530823
aI784352246
aI1912337588
aL2653041642L
aL2654101616L
aI1961122069
aI61784607
aI22429694
aL2668090308L
aI226256948
aL2666881376L
aL2618666149L
aI52835309
aI1663541358
aI89299874
aL2159398820L
aL2491185534L
aI1959539928
aI28383125
aI116655954
aL2653506186L
aI237448075
aI149721560
aL2669034566L
aL2639073198L
aI320307810
aI1465483465
aI425928244
aI277799201
aL2555492936L
aI30754713
aI164828278
aL2666530434L
aL2473328880L
aI1197345576
aI9575262
aI796574509
aL2595597943L
aL2516548284L
aL2187117308L
aL2659475168L
aI557855355
aL2665236637L
aI38574970
aI42701544
aI129964269
aI564873087
aL2665733365L
aI1554308076
aL2377738586L
aI1191110196
aL2587469552L
aL2548978488L
aI864000018
aL2370591043L
aI91420024
aL2719577487L
aI1419965035
aI459152855
aI1732251638
aI1870053469
aI1140791539
aI23318841
aL2383132067L
aI174091791
aL2431936201L
aI25444938
aI1703376420
aI1634597353
aI568422337
aI263026031
aI22633005
aL2565439729L
aL2472200557L
aI52154347
aL2432160856L
aI327833243
aL2651745590L
aI23689744
aL2256003930L
aI42012778
aI56292835
aL2422806902L
aI169115069
aI322802999
aI1322307116
aL2605469774L
aL2650390117L
aI125139922
aI1558018844
aL2558463343L
aL2309236146L
aL2657360708L
aL2659162369L
aI145704033
aL2597913606L
aI919288309
aI463581555
aI138187896
aI1142775523
aL2287494823L
aL2363349235L
aL2655941234L
aL2652813673L
aL2652767935L
aL2716571800L
aL2289890732L
aI160358537
aL2595429379L
aI849328400
aL2604095432L
aI738683473
aI26481436
aI297855695
aI792340418
aI928520490
aL2384119819L
aL2551840765L
aI111583872
aL2646296754L
aI25429533
aI1670726738
aI23771507
aI24466879
aL2631500255L
aL2555242525L
aI1636317235
aI1565453804
aI768504769
aI63233311
aasS'followers'
p4
(lp5
(lp6
L2776688914L
aI215664016
aL3017514664L
aL2483307072L
aasS'obj'
p7
ccopy_reg
_reconstructor
p8
(ctweepy.models
User
p9
c__builtin__
object
p10
Ntp11
Rp12
(dp13
S'follow_request_sent'
p14
NsS'has_extended_profile'
p15
I00
sS'profile_use_background_image'
p16
I01
sS'profile_sidebar_fill_color'
p17
VDDEEF6
p18
sS'id'
p19
L2656207070L
sS'verified'
p20
I00
sS'entities'
p21
(dp22
Vdescription
p23
(dp24
Vurls
p25
(lp26
sssS'profile_image_url_https'
p27
Vhttps://pbs.twimg.com/profile_images/490047425445240833/T6j97FWT_normal.jpeg
p28
sS'_json'
p29
(dp30
Vfollow_request_sent
p31
NsVhas_extended_profile
p32
I00
sVprofile_use_background_image
p33
I01
sVdefault_profile_image
p34
I00
sVid
p35
L2656207070L
sVprofile_background_image_url_https
p36
Vhttps://abs.twimg.com/images/themes/theme1/bg.png
p37
sVverified
p38
I00
sVprofile_text_color
p39
V333333
p40
sVprofile_image_url_https
p41
g28
sVprofile_sidebar_fill_color
p42
g18
sVentities
p43
g22
sVfollowers_count
p44
I4
sVprofile_sidebar_border_color
p45
VC0DEED
p46
sVid_str
p47
V2656207070
p48
sVprofile_background_color
p49
VC0DEED
p50
sVlisted_count
p51
I2
sVstatus
p52
(dp53
Vcontributors
p54
NsVtruncated
p55
I00
sVtext
p56
VRT @venicewavefest: \u2018Hide &amp;amp; Seek\u2019 by @roxiebardo https://t.co/iAP4SHNnG9
p57
sVin_reply_to_status_id
p58
Nsg35
L662382213145718784L
sVfavorite_count
p59
I0
sVsource
p60
V<a href="http://twitter.com" rel="nofollow">Twitter Web Client</a>
p61
sVretweeted
p62
I00
sVcoordinates
p63
Nsg43
(dp64
Vsymbols
p65
(lp66
sVuser_mentions
p67
(lp68
(dp69
g35
L3898164493L
sVindices
p70
(lp71
I3
aI18
asg47
V3898164493
p72
sVscreen_name
p73
Vvenicewavefest
p74
sVname
p75
VVWF Music
p76
sa(dp77
g35
I175262449
sg70
(lp78
I45
aI56
asg47
V175262449
p79
sg73
Vroxiebardo
p80
sg75
VRoxie Bardo
p81
sasVhashtags
p82
(lp83
sg25
(lp84
(dp85
Vurl
p86
Vhttps://t.co/iAP4SHNnG9
p87
sg70
(lp88
I57
aI80
asVexpanded_url
p89
Vhttps://soundcloud.com/roxie-bardo/hide-seek?utm_source=soundcloud&utm_campaign=share&utm_medium=twitter
p90
sVdisplay_url
p91
Vsoundcloud.com/roxie-bardo/hi\u2026
p92
sassVin_reply_to_screen_name
p93
Nsg47
V662382213145718784
p94
sVretweet_count
p95
I301
sVin_reply_to_user_id
p96
NsVfavorited
p97
I00
sVretweeted_status
p98
(dp99
g54
Nsg55
I00
sg56
V\u2018Hide &amp;amp; Seek\u2019 by @roxiebardo https://t.co/iAP4SHNnG9
p100
sg58
Nsg35
L661581247647354880L
sg59
I3
sg60
V<a href="http://twitter.com" rel="nofollow">Twitter Web Client</a>
p101
sg62
I00
sg63
Nsg43
(dp102
g65
(lp103
sg67
(lp104
(dp105
g35
I175262449
sg70
(lp106
I25
aI36
asg47
V175262449
p107
sg73
Vroxiebardo
p108
sg75
VRoxie Bardo
p109
sasg82
(lp110
sg25
(lp111
(dp112
g86
Vhttps://t.co/iAP4SHNnG9
p113
sg70
(lp114
I37
aI60
asg89
Vhttps://soundcloud.com/roxie-bardo/hide-seek?utm_source=soundcloud&utm_campaign=share&utm_medium=twitter
p115
sg91
Vsoundcloud.com/roxie-bardo/hi\u2026
p116
sassg93
Nsg47
V661581247647354880
p117
sg95
I301
sg96
Nsg97
I00
sVgeo
p118
NsVin_reply_to_user_id_str
p119
NsVpossibly_sensitive
p120
I00
sVlang
p121
Ven
p122
sVcreated_at
p123
VTue Nov 03 16:30:35 +0000 2015
p124
sVin_reply_to_status_id_str
p125
NsVplace
p126
Nssg118
Nsg119
Nsg120
I00
sg121
Ven
p127
sg123
VThu Nov 05 21:33:20 +0000 2015
p128
sg125
Nsg126
NssVis_translation_enabled
p129
I00
sVutc_offset
p130
NsVstatuses_count
p131
I1934
sg23
V
p132
sVfriends_count
p133
I286
sVlocation
p134
g132
sVprofile_link_color
p135
V0084B4
p136
sVprofile_image_url
p137
Vhttp://pbs.twimg.com/profile_images/490047425445240833/T6j97FWT_normal.jpeg
p138
sVfollowing
p139
NsVgeo_enabled
p140
I00
sVprofile_background_image_url
p141
Vhttp://abs.twimg.com/images/themes/theme1/bg.png
p142
sg73
Vshhehura_d1001
p143
sg121
Vru
p144
sVprofile_background_tile
p145
I00
sVfavourites_count
p146
I738
sg75
Vdiana shhehura
p147
sVnotifications
p148
Nsg86
Nsg123
VFri Jul 18 08:16:19 +0000 2014
p149
sVcontributors_enabled
p150
I00
sVtime_zone
p151
NsVprotected
p152
I00
sVdefault_profile
p153
I01
sVis_translator
p154
I00
ssS'contributors_enabled'
p155
I00
sS'profile_text_color'
p156
g40
sS'followers_count'
p157
I4
sS'profile_sidebar_border_color'
p158
g46
sS'id_str'
p159
g48
sS'default_profile_image'
p160
I00
sS'listed_count'
p161
I2
sS'status'
p162
g8
(ctweepy.models
Status
p163
g10
Ntp164
Rp165
(dp166
S'favorited'
p167
I00
sS'contributors'
p168
NsS'truncated'
p169
I00
sS'text'
p170
g57
sS'source_url'
p171
Vhttp://twitter.com
p172
sS'possibly_sensitive'
p173
I00
sS'in_reply_to_status_id'
p174
NsS'geo'
p175
Nsg19
L662382213145718784L
sS'favorite_count'
p176
I0
sS'lang'
p177
g127
sS'retweeted_status'
p178
g8
(g163
g10
Ntp179
Rp180
(dp181
g167
I00
sg168
Nsg169
I00
sg170
g100
sg171
Vhttp://twitter.com
p182
sg173
I00
sg174
Nsg175
Nsg19
L661581247647354880L
sg176
I3
sg177
g122
sg21
g102
sS'created_at'
p183
cdatetime
datetime
p184
(S'\x07\xdf\x0b\x03\x10\x1e#\x00\x00\x00'
p185
tp186
Rp187
sg29
g99
sS'coordinates'
p188
NsS'in_reply_to_user_id_str'
p189
NsS'source'
p190
VTwitter Web Client
p191
sS'in_reply_to_status_id_str'
p192
NsS'in_reply_to_screen_name'
p193
Nsg159
g117
sS'retweeted'
p194
I00
sS'place'
p195
NsS'retweet_count'
p196
I301
sS'in_reply_to_user_id'
p197
Nsbsg21
g64
sg183
g184
(S'\x07\xdf\x0b\x05\x15!\x14\x00\x00\x00'
p198
tp199
Rp200
sg29
g53
sg188
Nsg189
Nsg190
VTwitter Web Client
p201
sg192
Nsg193
Nsg159
g94
sg194
I00
sg195
Nsg196
I301
sg197
NsbsS'is_translation_enabled'
p202
I00
sS'utc_offset'
p203
NsS'statuses_count'
p204
I1934
sS'description'
p205
g132
sS'friends_count'
p206
I286
sS'location'
p207
g132
sS'profile_link_color'
p208
g136
sS'profile_image_url'
p209
g138
sS'notifications'
p210
NsS'geo_enabled'
p211
I00
sS'profile_background_color'
p212
g50
sS'profile_background_image_url'
p213
g142
sS'screen_name'
p214
g143
sg177
g144
sg1
I00
sS'profile_background_tile'
p215
I00
sS'favourites_count'
p216
I738
sS'name'
p217
g147
sS'url'
p218
Nsg183
g184
(S'\x07\xde\x07\x12\x08\x10\x13\x00\x00\x00'
p219
tp220
Rp221
sS'profile_background_image_url_https'
p222
g37
sS'time_zone'
p223
NsS'protected'
p224
I00
sS'default_profile'
p225
I01
sS'is_translator'
p226
I00
sbs.