(dp0
S'following'
p1
(lp2
(lp3
I89225644
aI15246621
aI54675700
aI49605610
aI203652149
aI1288498340
aI26217562
aL2330623136L
aI32011659
aL3065867565L
aI33923173
aI1558222058
aL3378940179L
aL3774374115L
aL3315134870L
aL2792828298L
aL2355032276L
aL2906862160L
aI48938064
aL2434657105L
aI34689766
aI9681052
aI31631018
aL3384393058L
aI84355003
aL2307828661L
aI202915788
aI21917683
aL3301617659L
aL2432059932L
aI1911154448
aI1493298541
aI353212877
aI57741304
aI19739279
aI37284991
aI552087109
aL3194464862L
aI556049139
aI1253382066
aL2321166747L
aI1536222733
aI1611593304
aI550663732
aL3320544693L
aI1584500023
aI83022693
aI228658503
aI420504449
aI252404664
aL2885532683L
aI25882361
aL2365743882L
aI250758475
aI44206486
aI157060031
aI702585281
aI21985176
aL2542690273L
aI272019676
aI60783724
aI891869581
aI60113926
aL3307367663L
aI21232827
aL2319600132L
aL2157007830L
aI18921643
aL2212982334L
aL2777101742L
aL3260637407L
aI81195356
aI32468301
aI1365750296
aI40328235
aI43718300
aI264996175
aI48752324
aI14250809
aI172493721
aI632880472
aI1729015129
aL2900641517L
aI109579862
aI19552414
aI489636881
aI104346374
aL2239240086L
aI51205137
aI85253884
aL2598162997L
aL3164538112L
aL3196552793L
aI331677065
aI14980721
aI65681636
aI297636555
aI40877721
aI29748372
aI178704349
aI324998545
aL2688524677L
aI81152309
aI284769217
aL2698128151L
aI87359044
aI1021328750
aI315545574
aI212090223
aI63163176
aI449263297
aI339910279
aI52456146
aI112516813
aI97334517
aI32002507
aI72907355
aI540922293
aI203223437
aI33216611
aL2203437643L
aL2710303866L
aI14232141
aI97161968
aI223281275
aI28719308
aI961589635
aL2748085613L
aI44674512
aI1314862352
aI18999708
aL2206993352L
aL2898560489L
aI274138710
aI41163722
aI23813710
aI368344521
aI24959746
aI197990600
aI1901653706
aI623848831
aI554110416
aI211394802
aI245872279
aI566576685
aL2412860226L
aI17660505
aI109350515
aI26765788
aI460375632
aI43324855
aL2667522060L
aL2927960383L
aL2673567397L
aI52166809
aI93913891
aL2904826569L
aI47839554
aL2203735422L
aI611817117
aI370274344
aI27996064
aI147409568
aL2394624246L
aI19374951
aI512183754
aI551791436
aI110454319
aI635911619
aI26491179
aI374538632
aI17373938
aI11735772
aL2406403884L
aI454157566
aI954285901
aI721237704
aI421794008
aI463100829
aI374835479
aL2752129684L
aI115875653
aI1380332467
aL2760192820L
aI70614145
aI94093955
aI860754608
aI18250490
aI1435915915
aI41514484
aI51674251
aI547150512
aI357114732
aI193919470
aI404422077
aI106498703
aI14216123
aI220203225
aI28571999
aI30041336
aI1528558014
aI28369153
aI235312627
aI21220021
aI109275091
aI25155013
aI25098482
aI1209854144
aI304909941
aI17006157
aI747504205
aI20106796
aL2165029862L
aI337847812
aI364323880
aI230736695
aI332617373
aI27707080
aI1364930179
aI14886375
aI193340491
aI25561260
aI50029388
aI1112572093
aI103042329
aI19392657
aI361809247
aI215671599
aasS'followers'
p4
(lp5
(lp6
L3029451197L
aI1393603976
aI43111757
aL4109685195L
aL4120078699L
aL4108272159L
aL2890616938L
aI462576191
aI84444981
aI1650497851
aL4142019881L
aI482523330
aI1098298597
aI1244051924
aI251514779
aI1288498340
aI44994356
aI26217562
aL3395170581L
aI553097578
aI1183838114
aL3022864514L
aL3188201196L
aL3866384957L
aI32011659
aI119206259
aL3378940179L
aI118090566
aL3315134870L
aL2355032276L
aL2906862160L
aI1584500023
aI48938064
aI27961367
aL3384393058L
aI31631018
aI84355003
aL2307828661L
aI353212877
aL2321166747L
aI1253382066
aL3308384622L
aL3307367663L
aI83022693
aI420504449
aI65623974
aI252404664
aI155351859
aI157060031
aL2885532683L
aI569496245
aI14638577
aL2330623136L
aI633835577
aI28798697
aL3257585968L
aI994490034
aI602039028
aL2275110710L
aL2542690273L
aL3290865076L
aL2212982334L
aL2777101742L
aI81195356
aI32468301
aI93846805
aL3315934221L
aL3296222805L
aI168140272
aI408147608
aI128267983
aI1716578083
aI770683328
aL3196552793L
aI634683307
aI1016438010
aL2698128151L
aI45805997
aL3235737075L
aI1629389666
aI251366372
aI284769217
aI212090223
aI287871082
aI81152309
aI52456146
aI323720964
aI15320696
aI18323740
aI130628277
aI259056263
aL2949223966L
aL2748085613L
aI937482673
aI1314862352
aL2744492632L
aL3073478049L
aL3065083689L
aI1444614408
aL2534568342L
aI386184819
aI64026225
aL2677508414L
aI287885364
aI23813710
aL2898560489L
aI315545574
aI1118828030
aI554110416
aI9422222
aI125187717
aL2412860226L
aI43324855
aL2667522060L
aL2673567397L
aL2927960383L
aI611817117
aI16829101
aI27996064
aL2899626580L
aL2904826569L
aL2904824187L
aL2394624246L
aL2917945203L
aL2886876454L
aL2909758264L
aI19374951
aI635911619
aL2753440416L
aI540043434
aI127967449
aL2799745203L
aI41514484
aI547150512
aI18250490
aI860754608
aI454157566
aI220203225
aI70614145
aI94093955
aL2760192820L
aI1380332467
aI115875653
aI463100829
aI374835479
aI721237704
aI421794008
aI954285901
aI898727486
aasS'obj'
p7
ccopy_reg
_reconstructor
p8
(ctweepy.models
User
p9
c__builtin__
object
p10
Ntp11
Rp12
(dp13
S'follow_request_sent'
p14
I00
sS'has_extended_profile'
p15
I00
sS'profile_use_background_image'
p16
I01
sS'profile_sidebar_fill_color'
p17
VDDEEF6
p18
sS'id'
p19
L2656655996L
sS'verified'
p20
I00
sS'entities'
p21
(dp22
Vdescription
p23
(dp24
Vurls
p25
(lp26
sssS'profile_image_url_https'
p27
Vhttps://pbs.twimg.com/profile_images/539954373833412608/sFtRVbfu_normal.jpeg
p28
sS'_json'
p29
(dp30
Vfollow_request_sent
p31
I00
sVhas_extended_profile
p32
I00
sVprofile_use_background_image
p33
I01
sVdefault_profile_image
p34
I00
sVid
p35
L2656655996L
sVprofile_background_image_url_https
p36
Vhttps://abs.twimg.com/images/themes/theme1/bg.png
p37
sVverified
p38
I00
sVprofile_text_color
p39
V333333
p40
sVprofile_image_url_https
p41
g28
sVprofile_sidebar_fill_color
p42
g18
sVentities
p43
g22
sVfollowers_count
p44
I149
sVprofile_sidebar_border_color
p45
VC0DEED
p46
sVid_str
p47
V2656655996
p48
sVprofile_background_color
p49
VC0DEED
p50
sVlisted_count
p51
I23
sVstatus
p52
(dp53
Vlang
p54
Ven
p55
sVfavorited
p56
I00
sg43
(dp57
Vsymbols
p58
(lp59
(dp60
Vindices
p61
(lp62
I53
aI59
asVtext
p63
VGIB.B
p64
sasVuser_mentions
p65
(lp66
sVhashtags
p67
(lp68
sg25
(lp69
ssVcontributors
p70
NsVtruncated
p71
I00
sg63
VCGI up 4% on 30% more volume. 80c from 52 week high. $GIB.B
p72
sVcreated_at
p73
VMon Nov 16 20:46:27 +0000 2015
p74
sVretweeted
p75
I00
sVin_reply_to_status_id_str
p76
NsVcoordinates
p77
NsVin_reply_to_user_id_str
p78
NsVsource
p79
V<a href="http://twitter.com" rel="nofollow">Twitter Web Client</a>
p80
sVin_reply_to_status_id
p81
NsVin_reply_to_screen_name
p82
Nsg47
V666356680045830144
p83
sVplace
p84
NsVretweet_count
p85
I1
sVgeo
p86
Nsg35
L666356680045830144L
sVfavorite_count
p87
I0
sVin_reply_to_user_id
p88
NssVis_translation_enabled
p89
I00
sVutc_offset
p90
NsVstatuses_count
p91
I1945
sg23
VProgrammer
p92
sVfriends_count
p93
I228
sVlocation
p94
V
p95
sVprofile_link_color
p96
V0084B4
p97
sVprofile_image_url
p98
Vhttp://pbs.twimg.com/profile_images/539954373833412608/sFtRVbfu_normal.jpeg
p99
sVfollowing
p100
I00
sVgeo_enabled
p101
I00
sVprofile_background_image_url
p102
Vhttp://abs.twimg.com/images/themes/theme1/bg.png
p103
sVscreen_name
p104
Vstockscoder
p105
sg54
Ven
p106
sVprofile_background_tile
p107
I00
sVfavourites_count
p108
I1163
sVname
p109
VTim Ely
p110
sVnotifications
p111
I00
sVurl
p112
Nsg73
VFri Jul 18 12:35:29 +0000 2014
p113
sVcontributors_enabled
p114
I00
sVtime_zone
p115
NsVprotected
p116
I00
sVdefault_profile
p117
I01
sVis_translator
p118
I00
ssS'contributors_enabled'
p119
I00
sS'profile_text_color'
p120
g40
sS'followers_count'
p121
I149
sS'profile_sidebar_border_color'
p122
g46
sS'id_str'
p123
g48
sS'default_profile_image'
p124
I00
sS'listed_count'
p125
I23
sS'status'
p126
g8
(ctweepy.models
Status
p127
g10
Ntp128
Rp129
(dp130
S'favorited'
p131
I00
sS'contributors'
p132
NsS'truncated'
p133
I00
sS'text'
p134
g72
sS'source_url'
p135
Vhttp://twitter.com
p136
sS'in_reply_to_status_id'
p137
NsS'geo'
p138
Nsg19
L666356680045830144L
sS'favorite_count'
p139
I0
sS'lang'
p140
g55
sg21
g57
sS'created_at'
p141
cdatetime
datetime
p142
(S'\x07\xdf\x0b\x10\x14.\x1b\x00\x00\x00'
p143
tp144
Rp145
sg29
g53
sS'coordinates'
p146
NsS'in_reply_to_user_id_str'
p147
NsS'source'
p148
VTwitter Web Client
p149
sS'in_reply_to_status_id_str'
p150
NsS'in_reply_to_screen_name'
p151
Nsg123
g83
sS'retweeted'
p152
I00
sS'place'
p153
NsS'retweet_count'
p154
I1
sS'in_reply_to_user_id'
p155
NsbsS'is_translation_enabled'
p156
I00
sS'utc_offset'
p157
NsS'statuses_count'
p158
I1945
sS'description'
p159
g92
sS'friends_count'
p160
I228
sS'location'
p161
g95
sS'profile_link_color'
p162
g97
sS'profile_image_url'
p163
g99
sS'notifications'
p164
I00
sS'geo_enabled'
p165
I00
sS'profile_background_color'
p166
g50
sS'profile_background_image_url'
p167
g103
sS'screen_name'
p168
g105
sg140
g106
sg1
I00
sS'profile_background_tile'
p169
I00
sS'favourites_count'
p170
I1163
sS'name'
p171
g110
sS'url'
p172
Nsg141
g142
(S'\x07\xde\x07\x12\x0c#\x1d\x00\x00\x00'
p173
tp174
Rp175
sS'profile_background_image_url_https'
p176
g37
sS'time_zone'
p177
NsS'protected'
p178
I00
sS'default_profile'
p179
I01
sS'is_translator'
p180
I00
sbs.