(dp0
S'following'
p1
(lp2
(lp3
I381880067
aI62127693
aI354418265
aL2286933728L
aL2658633008L
aI18257487
aL2229976656L
aL2572830134L
aL2241874068L
aI1377824935
aI735232200
aL2707831716L
aL2449753958L
aI1931331919
aI1265125345
aI408100058
aI36415257
aI394547397
aL2688376598L
aI1852079359
aI29458878
aL2706611600L
aL2706080292L
aI27355541
aI1476898136
aI1505034776
aI111141904
aL2694979891L
aI707307750
aL2675135029L
aI1951994160
aI627578922
aL2373446051L
aI18968138
aL2701337196L
aI114183107
aL2228475781L
aI404432267
aI62614672
aL2296748726L
aL2693449776L
aI780469045
aI542840469
aI735280746
aI33109387
aI735144828
aI76136090
aL2651990378L
aL2614065504L
aL2320547791L
aL2691308660L
aI290170851
aI30237798
aI407181226
aI888521419
aI18942861
aL2693405083L
aI224750262
aI298185162
aI1152984595
aI257159929
aL2354928007L
aI520988333
aL2451913472L
aI19487886
aI1369360440
aI198428198
aL2676236498L
aI1659662456
aI475398127
aI313068848
aI254931115
aI1066579406
aL2401215420L
aL2650008680L
aI31541303
aL2675274463L
aI1869402187
aL2686020266L
aI1562824375
aI215741597
aI26713042
aL2618666149L
aI42430180
aL2544728480L
aI49339228
aI27872081
aL2613254438L
aL2647532828L
aI19357045
aL2572625041L
aI92422547
aL2550199086L
aI594424144
aI1258243938
aI1641312062
aI162540978
aI16657786
aI15717762
aI1483185702
aI1517128472
aI1032775974
aI360544017
aL2681113946L
aL2557963830L
aL2184665196L
aI15369494
aL2552330280L
aL2182969026L
aI18992077
aI86096650
aL2587380152L
aI392469861
aI175906908
aL2659955006L
aL2682670560L
aL2333551124L
aL2333548334L
aL2333546100L
aL2333544812L
aL2365631125L
aL2492533687L
aI1316950460
aI86689374
aI834508536
aI369852156
aI543874719
aL2675352564L
aI41788498
aL2679648534L
aL2384154020L
aI226828258
aI318288650
aL2311550865L
aI17874926
aI317549874
aI373355183
aL2612411707L
aL2647114338L
aL2660372376L
aL2612794554L
aI1147330586
aI27821302
aI722480312
aL2469268208L
aI1959181724
aI815651436
aI44765882
aI62124341
aI1961122069
aI61784607
aI65603461
aI52835309
aI1663541358
aI1930967420
aI21360280
aI1670967312
aI1709689099
aL2596492621L
aL2652626220L
aI1070063569
aI864000018
aI9575262
aL2601441752L
aI237448075
aL2669034566L
aL2639073198L
aI1345722644
aI403776054
aI785159748
aL2294328471L
aI425928244
aI20858438
aI1467031471
aI74724876
aI437069865
aI15885485
aI385801760
aI1197345576
aL2650666206L
aI796574509
aI1577706050
aI30500021
aL2666881376L
aI87722721
aL2187117308L
aL2659475168L
aI985901700
aI38574970
aI42701544
aL2149960655L
aL2297998979L
aL2377738586L
aL2587469552L
aI91420024
aI399595035
aI459152855
aI1732251638
aL2544416988L
aI1140791539
aI164789629
aI435132623
aI634455657
aI299404666
aI478350759
aI1703376420
aL2657530400L
aI568422337
aL2329227986L
aI263026031
aL2270789437L
aL2565439729L
aL2610493975L
aI582517122
aI52154347
aI23689744
aL2256003930L
aI42012778
aI231731466
aL2422806902L
aI1905401383
aI169115069
aI84051650
aI322802999
aI1322307116
aL2273276184L
aL2650390117L
aI97706046
aL2646741601L
aL2659988276L
aI1558018844
aL2558463343L
aI362416241
aL2657978160L
aI557855355
aL2659162369L
aI339436580
aI169964031
aL2633747690L
aI145704033
aL2597913606L
aL2512121120L
aI463581555
aI1142775523
aL2281152673L
aL2655010194L
aI811765771
aL2716571800L
aL2653830486L
aI160358537
aL2595429379L
aI387204541
aI44332532
aI153874047
aI95589085
aI738683473
aI418251987
aI297855695
aI353297849
aI792340418
aI329598963
aI253769656
aI928520490
aI185468180
aL2493676146L
aL2551840765L
aI103605904
aL2535612126L
aI58564747
aI111583872
aL2646296754L
aL2651760055L
aL2640436159L
aI1670726738
aI15356318
aI61507936
aL2652322208L
aL2640043440L
aL2555242525L
aI1636317235
aI289935688
aI768504769
aasS'followers'
p4
(lp5
(lp6
I22311903
aL2886823913L
aL3312667008L
aL3528309136L
aI615472512
aI124949619
aL2902484570L
aI42701544
aasS'obj'
p7
ccopy_reg
_reconstructor
p8
(ctweepy.models
User
p9
c__builtin__
object
p10
Ntp11
Rp12
(dp13
S'follow_request_sent'
p14
NsS'has_extended_profile'
p15
I00
sS'profile_use_background_image'
p16
I01
sS'profile_sidebar_fill_color'
p17
VDDEEF6
p18
sS'id'
p19
L2656192068L
sS'verified'
p20
I00
sS'entities'
p21
(dp22
Vdescription
p23
(dp24
Vurls
p25
(lp26
sssS'profile_image_url_https'
p27
Vhttps://pbs.twimg.com/profile_images/490047612121128964/0am6U6LE_normal.jpeg
p28
sS'_json'
p29
(dp30
Vfollow_request_sent
p31
NsVhas_extended_profile
p32
I00
sVprofile_use_background_image
p33
I01
sVdefault_profile_image
p34
I00
sVid
p35
L2656192068L
sVprofile_background_image_url_https
p36
Vhttps://abs.twimg.com/images/themes/theme1/bg.png
p37
sVverified
p38
I00
sVprofile_text_color
p39
V333333
p40
sVprofile_image_url_https
p41
g28
sVprofile_sidebar_fill_color
p42
g18
sVentities
p43
g22
sVfollowers_count
p44
I8
sVprofile_sidebar_border_color
p45
VC0DEED
p46
sVid_str
p47
V2656192068
p48
sVprofile_background_color
p49
VC0DEED
p50
sVlisted_count
p51
I6
sVstatus
p52
(dp53
Vcontributors
p54
NsVtruncated
p55
I00
sVtext
p56
VRT @naofumi0814: \u88ab\u5199\u4f53\u30fb\u30e2\u30c7\u30eb\u3055\u307e\u306e\u64ae\u5f71\u4f9d\u983c\u306f\u30a6\u30a7\u30d6\u30fb\u30b5\u30a4\u30c8\u304b\u3001Twitter\u304b\u3089\u3069\u3046\u305e \u000ahttps://t.co/m3RHiBSBu5\u000a\u000a#\u30e2\u30c7\u30eb\u52df\u96c6 \u000a#\u5199\u771f\u597d\u304d\u306a\u4eba\u3068\u7e4b\u304c\u308a\u305f\u3044 \u000a#\u5199\u771f\u64ae\u3063\u3066\u308b\u4eba\u3068\u7e4b\u304c\u308a\u305f\u3044 https://t.co/4HtjX48w\u2026
p57
sVin_reply_to_status_id
p58
Nsg35
L661888545133563905L
sVfavorite_count
p59
I0
sVsource
p60
V<a href="http://twitter.com" rel="nofollow">Twitter Web Client</a>
p61
sVretweeted
p62
I00
sVcoordinates
p63
Nsg43
(dp64
Vsymbols
p65
(lp66
sVuser_mentions
p67
(lp68
(dp69
g35
I417847713
sVindices
p70
(lp71
I3
aI15
asg47
V417847713
p72
sVscreen_name
p73
Vnaofumi0814
p74
sVname
p75
VNAO
p76
sasVhashtags
p77
(lp78
(dp79
g70
(lp80
I80
aI86
asg56
V\u30e2\u30c7\u30eb\u52df\u96c6
p81
sa(dp82
g70
(lp83
I88
aI101
asg56
V\u5199\u771f\u597d\u304d\u306a\u4eba\u3068\u7e4b\u304c\u308a\u305f\u3044
p84
sa(dp85
g70
(lp86
I103
aI117
asg56
V\u5199\u771f\u64ae\u3063\u3066\u308b\u4eba\u3068\u7e4b\u304c\u308a\u305f\u3044
p87
sasg25
(lp88
(dp89
Vurl
p90
Vhttps://t.co/m3RHiBSBu5
p91
sg70
(lp92
I55
aI78
asVexpanded_url
p93
Vhttp://yamada.pw/
p94
sVdisplay_url
p95
Vyamada.pw
p96
sasVmedia
p97
(lp98
(dp99
Vsource_user_id
p100
I417847713
sVsource_status_id_str
p101
V659603264967589888
p102
sg93
Vhttp://twitter.com/naofumi0814/status/659603264967589888/photo/1
p103
sg95
Vpic.twitter.com/4HtjX48wRP
p104
sg90
Vhttps://t.co/4HtjX48wRP
p105
sVmedia_url_https
p106
Vhttps://pbs.twimg.com/media/CSdhrFAUYAACQiD.jpg
p107
sVsource_user_id_str
p108
V417847713
p109
sVsource_status_id
p110
L659603264967589888L
sg47
V659603263138848768
p111
sVsizes
p112
(dp113
Vsmall
p114
(dp115
Vh
p116
I226
sVresize
p117
Vfit
p118
sVw
p119
I340
ssVlarge
p120
(dp121
g116
I682
sg117
Vfit
p122
sg119
I1024
ssVmedium
p123
(dp124
g116
I399
sg117
Vfit
p125
sg119
I600
ssVthumb
p126
(dp127
g116
I150
sg117
Vcrop
p128
sg119
I150
sssg70
(lp129
I118
aI140
asVtype
p130
Vphoto
p131
sg35
L659603263138848768L
sVmedia_url
p132
Vhttp://pbs.twimg.com/media/CSdhrFAUYAACQiD.jpg
p133
sassVin_reply_to_screen_name
p134
Nsg47
V661888545133563905
p135
sVretweet_count
p136
I501
sVin_reply_to_user_id
p137
NsVfavorited
p138
I00
sVretweeted_status
p139
(dp140
g54
Nsg55
I00
sg56
V\u88ab\u5199\u4f53\u30fb\u30e2\u30c7\u30eb\u3055\u307e\u306e\u64ae\u5f71\u4f9d\u983c\u306f\u30a6\u30a7\u30d6\u30fb\u30b5\u30a4\u30c8\u304b\u3001Twitter\u304b\u3089\u3069\u3046\u305e \u000ahttps://t.co/m3RHiBSBu5\u000a\u000a#\u30e2\u30c7\u30eb\u52df\u96c6 \u000a#\u5199\u771f\u597d\u304d\u306a\u4eba\u3068\u7e4b\u304c\u308a\u305f\u3044 \u000a#\u5199\u771f\u64ae\u3063\u3066\u308b\u4eba\u3068\u7e4b\u304c\u308a\u305f\u3044 https://t.co/4HtjX48wRP
p141
sg58
Nsg35
L659603264967589888L
sg59
I509
sg60
V<a href="http://twitter.com" rel="nofollow">Twitter Web Client</a>
p142
sg62
I00
sg63
Nsg43
(dp143
g65
(lp144
sg67
(lp145
sg77
(lp146
(dp147
g70
(lp148
I63
aI69
asg56
V\u30e2\u30c7\u30eb\u52df\u96c6
p149
sa(dp150
g70
(lp151
I71
aI84
asg56
V\u5199\u771f\u597d\u304d\u306a\u4eba\u3068\u7e4b\u304c\u308a\u305f\u3044
p152
sa(dp153
g70
(lp154
I86
aI100
asg56
V\u5199\u771f\u64ae\u3063\u3066\u308b\u4eba\u3068\u7e4b\u304c\u308a\u305f\u3044
p155
sasg25
(lp156
(dp157
g90
Vhttps://t.co/m3RHiBSBu5
p158
sg70
(lp159
I38
aI61
asg93
Vhttp://yamada.pw/
p160
sg95
Vyamada.pw
p161
sasg97
(lp162
(dp163
g93
Vhttp://twitter.com/naofumi0814/status/659603264967589888/photo/1
p164
sg95
Vpic.twitter.com/4HtjX48wRP
p165
sg90
Vhttps://t.co/4HtjX48wRP
p166
sg106
Vhttps://pbs.twimg.com/media/CSdhrFAUYAACQiD.jpg
p167
sg47
V659603263138848768
p168
sg112
(dp169
g114
(dp170
g116
I226
sg117
Vfit
p171
sg119
I340
ssg120
(dp172
g116
I682
sg117
Vfit
p173
sg119
I1024
ssg123
(dp174
g116
I399
sg117
Vfit
p175
sg119
I600
ssg126
(dp176
g116
I150
sg117
Vcrop
p177
sg119
I150
sssg70
(lp178
I101
aI124
asg130
Vphoto
p179
sg35
L659603263138848768L
sg132
Vhttp://pbs.twimg.com/media/CSdhrFAUYAACQiD.jpg
p180
sassg134
Nsg47
V659603264967589888
p181
sg136
I501
sg137
Nsg138
I00
sVgeo
p182
NsVin_reply_to_user_id_str
p183
NsVpossibly_sensitive
p184
I00
sVlang
p185
Vja
p186
sVcreated_at
p187
VThu Oct 29 05:30:47 +0000 2015
p188
sVin_reply_to_status_id_str
p189
NsVplace
p190
Nssg182
Nsg183
Nsg184
I00
sg185
Vja
p191
sg187
VWed Nov 04 12:51:41 +0000 2015
p192
sg189
Nsg190
NssVis_translation_enabled
p193
I00
sVutc_offset
p194
NsVstatuses_count
p195
I1772
sg23
V
p196
sVfriends_count
p197
I282
sVlocation
p198
g196
sVprofile_link_color
p199
V0084B4
p200
sVprofile_image_url
p201
Vhttp://pbs.twimg.com/profile_images/490047612121128964/0am6U6LE_normal.jpeg
p202
sVfollowing
p203
NsVgeo_enabled
p204
I00
sVprofile_background_image_url
p205
Vhttp://abs.twimg.com/images/themes/theme1/bg.png
p206
sg73
Vpankiv_i468
p207
sg185
Vru
p208
sVprofile_background_tile
p209
I00
sVfavourites_count
p210
I580
sg75
Vian pankiv
p211
sVnotifications
p212
Nsg90
Nsg187
VFri Jul 18 08:17:03 +0000 2014
p213
sVcontributors_enabled
p214
I00
sVtime_zone
p215
NsVprotected
p216
I00
sVdefault_profile
p217
I01
sVis_translator
p218
I00
ssS'contributors_enabled'
p219
I00
sS'profile_text_color'
p220
g40
sS'followers_count'
p221
I8
sS'profile_sidebar_border_color'
p222
g46
sS'id_str'
p223
g48
sS'default_profile_image'
p224
I00
sS'listed_count'
p225
I6
sS'status'
p226
g8
(ctweepy.models
Status
p227
g10
Ntp228
Rp229
(dp230
S'favorited'
p231
I00
sS'contributors'
p232
NsS'truncated'
p233
I00
sS'text'
p234
VRT @naofumi0814: \u88ab\u5199\u4f53\u30fb\u30e2\u30c7\u30eb\u3055\u307e\u306e\u64ae\u5f71\u4f9d\u983c\u306f\u30a6\u30a7\u30d6\u30fb\u30b5\u30a4\u30c8\u304b\u3001Twitter\u304b\u3089\u3069\u3046\u305e \u000ahttps://t.co/m3RHiBSBu5\u000a\u000a#\u30e2\u30c7\u30eb\u52df\u96c6 \u000a#\u5199\u771f\u597d\u304d\u306a\u4eba\u3068\u7e4b\u304c\u308a\u305f\u3044 \u000a#\u5199\u771f\u64ae\u3063\u3066\u308b\u4eba\u3068\u7e4b\u304c\u308a\u305f\u3044 https://t.co/4HtjX48w\u2026
p235
sS'source_url'
p236
Vhttp://twitter.com
p237
sS'possibly_sensitive'
p238
I00
sS'in_reply_to_status_id'
p239
NsS'geo'
p240
Nsg19
L661888545133563905L
sS'favorite_count'
p241
I0
sS'lang'
p242
g191
sS'retweeted_status'
p243
g8
(g227
g10
Ntp244
Rp245
(dp246
g231
I00
sg232
Nsg233
I00
sg234
V\u88ab\u5199\u4f53\u30fb\u30e2\u30c7\u30eb\u3055\u307e\u306e\u64ae\u5f71\u4f9d\u983c\u306f\u30a6\u30a7\u30d6\u30fb\u30b5\u30a4\u30c8\u304b\u3001Twitter\u304b\u3089\u3069\u3046\u305e \u000ahttps://t.co/m3RHiBSBu5\u000a\u000a#\u30e2\u30c7\u30eb\u52df\u96c6 \u000a#\u5199\u771f\u597d\u304d\u306a\u4eba\u3068\u7e4b\u304c\u308a\u305f\u3044 \u000a#\u5199\u771f\u64ae\u3063\u3066\u308b\u4eba\u3068\u7e4b\u304c\u308a\u305f\u3044 https://t.co/4HtjX48wRP
p247
sg236
Vhttp://twitter.com
p248
sg238
I00
sg239
Nsg240
Nsg19
L659603264967589888L
sg241
I509
sg242
g186
sg21
g143
sS'created_at'
p249
cdatetime
datetime
p250
(S'\x07\xdf\n\x1d\x05\x1e/\x00\x00\x00'
p251
tp252
Rp253
sg29
g140
sS'coordinates'
p254
NsS'in_reply_to_user_id_str'
p255
NsS'source'
p256
VTwitter Web Client
p257
sS'in_reply_to_status_id_str'
p258
NsS'in_reply_to_screen_name'
p259
Nsg223
g181
sS'retweeted'
p260
I00
sS'place'
p261
NsS'retweet_count'
p262
I501
sS'in_reply_to_user_id'
p263
Nsbsg21
g64
sg249
g250
(S'\x07\xdf\x0b\x04\x0c3)\x00\x00\x00'
p264
tp265
Rp266
sg29
g53
sg254
Nsg255
Nsg256
VTwitter Web Client
p267
sg258
Nsg259
Nsg223
g135
sg260
I00
sg261
Nsg262
I501
sg263
NsbsS'is_translation_enabled'
p268
I00
sS'utc_offset'
p269
NsS'statuses_count'
p270
I1772
sS'description'
p271
g196
sS'friends_count'
p272
I282
sS'location'
p273
g196
sS'profile_link_color'
p274
g200
sS'profile_image_url'
p275
g202
sS'notifications'
p276
NsS'geo_enabled'
p277
I00
sS'profile_background_color'
p278
g50
sS'profile_background_image_url'
p279
g206
sS'screen_name'
p280
g207
sg242
g208
sg1
I00
sS'profile_background_tile'
p281
I00
sS'favourites_count'
p282
I580
sS'name'
p283
g211
sS'url'
p284
Nsg249
g250
(S'\x07\xde\x07\x12\x08\x11\x03\x00\x00\x00'
p285
tp286
Rp287
sS'profile_background_image_url_https'
p288
g37
sS'time_zone'
p289
NsS'protected'
p290
I00
sS'default_profile'
p291
I01
sS'is_translator'
p292
I00
sbs.