(dp0
S'following'
p1
(lp2
(lp3
I147998139
aI345315465
aL2840585403L
aL2841397553L
aL2656157522L
aI30618692
aI1256660550
aI62127693
aL2286933728L
aL2658633008L
aI1097041136
aL2599894633L
aI102827598
aI158941108
aL2572830134L
aI234440202
aI271778688
aI3219081
aI1636317235
aL2345712726L
aL2707831716L
aI1256203806
aI377018034
aI349774840
aL2730523780L
aI735281455
aI1468291921
aI369611319
aI408100058
aI540750580
aI29458878
aL2706080292L
aI27355541
aL2705263783L
aI1476898136
aI42640655
aI1951994160
aI627578922
aL2373446051L
aI81324949
aI862535828
aL2352711895L
aL2703963990L
aI1132553527
aI382890597
aL2701337196L
aI1540824900
aI60294855
aL2516282264L
aL2202578251L
aI542840469
aI735280746
aI33109387
aI1355354036
aI735143449
aL2662909293L
aL2468540360L
aI488127983
aI203508691
aI18942861
aI17906009
aL2625181298L
aL2347706298L
aI525713285
aI1152984595
aI520988333
aL2472759031L
aI19487886
aI1593858990
aI1369360440
aI14389782
aL2676236498L
aL2544584521L
aI154403438
aI1928251969
aL2534235938L
aI1869402187
aI325929438
aI1562824375
aI1964339148
aI215741597
aI428512286
aL2544728480L
aL2718342177L
aI53579217
aI87299677
aL2680829412L
aL2654779818L
aI359942946
aL2572625041L
aL2576953388L
aI18873087
aL2686020266L
aI1258243938
aI162540978
aI16657786
aI29458538
aI287531586
aI15717762
aI1483185702
aI612227354
aI1517128472
aI360544017
aI131294896
aI228679953
aI225925468
aI184950588
aI11145572
aI146584479
aI248871954
aL2184665196L
aL2552330280L
aI18992077
aI128847518
aL2200957043L
aL2333553313L
aL2333552629L
aI31541303
aI595936790
aI1316950460
aI86689374
aI733323500
aI543874719
aI1976075708
aL2374922910L
aI226828258
aI42430180
aI60294741
aI23654314
aI1195042550
aI382734518
aI17874926
aI317549874
aI1107682382
aI29964759
aI1147330586
aI897832681
aL2718663195L
aL2341729783L
aL2557963830L
aL2673804174L
aL2670968364L
aL2672569448L
aI156420167
aI44765882
aI1961122069
aI22429694
aI226256948
aL2666881376L
aI1570535292
aL2597913606L
aI52835309
aI1663541358
aI1670967312
aL2258078502L
aL2159398820L
aI27457454
aL2647489932L
aI15369494
aI237448075
aL2669034566L
aI1115320327
aL2659475168L
aL2639073198L
aL2662146608L
aL2666530434L
aL2473328880L
aL2665493330L
aI1197345576
aL2595597943L
aI1577706050
aL2187117308L
aI557855355
aI19846821
aI1172807389
aL2664871267L
aI30402965
aI38574970
aI42701544
aI129964269
aL2149960655L
aI877237645
aL2593284692L
aL2244563880L
aL2718713471L
aL2358551828L
aI541973128
aI1732251638
aI1140791539
aI164789629
aL2613431344L
aI26713042
aI299404666
aI1729333640
aI174091791
aL2645586308L
aI1071577886
aI389911227
aL2182394290L
aI1634597353
aI169115069
aI263026031
aL2565439729L
aL2472200557L
aI52154347
aL2658638442L
aL2256003930L
aL2325848245L
aI78924684
aI121364465
aI1322307116
aL2646712034L
aL2618666149L
aL2578767151L
aL2659955006L
aL2316406510L
aL2558463343L
aL2657978160L
aI172201288
aL2659162369L
aL2658682692L
aI1638657600
aI110138948
aI265187370
aI16368972
aL2512121120L
aI463581555
aI318421688
aI1339382984
aL2655023160L
aL2652767935L
aI459330852
aL2563689693L
aL2656568246L
aI160358537
aI73953031
aL2656098608L
aL2595429379L
aI31076914
aI928520490
aL2648278166L
aI135325668
aI1532664223
aI297855695
aI353297849
aL2493676146L
aI111583872
aI1729096530
aI530839582
aI1490729816
aL2252032009L
aI1954853574
aL2640436159L
aI25429533
aI925713366
aI1670726738
aL2546245272L
aI253769656
aI1565453804
aL2196546632L
aasS'followers'
p4
(lp5
(lp6
L4019734515L
aL3575798052L
aL2539577030L
aI1350517094
aasS'obj'
p7
ccopy_reg
_reconstructor
p8
(ctweepy.models
User
p9
c__builtin__
object
p10
Ntp11
Rp12
(dp13
S'follow_request_sent'
p14
NsS'has_extended_profile'
p15
I00
sS'profile_use_background_image'
p16
I01
sS'profile_sidebar_fill_color'
p17
VDDEEF6
p18
sS'id'
p19
L2656227907L
sS'verified'
p20
I00
sS'entities'
p21
(dp22
Vdescription
p23
(dp24
Vurls
p25
(lp26
sssS'profile_image_url_https'
p27
Vhttps://pbs.twimg.com/profile_images/490047426464477185/1t_BgxeE_normal.jpeg
p28
sS'_json'
p29
(dp30
Vfollow_request_sent
p31
NsVhas_extended_profile
p32
I00
sVprofile_use_background_image
p33
I01
sVdefault_profile_image
p34
I00
sVid
p35
L2656227907L
sVprofile_background_image_url_https
p36
Vhttps://abs.twimg.com/images/themes/theme1/bg.png
p37
sVverified
p38
I00
sVprofile_text_color
p39
V333333
p40
sVprofile_image_url_https
p41
g28
sVprofile_sidebar_fill_color
p42
g18
sVentities
p43
g22
sVfollowers_count
p44
I4
sVprofile_sidebar_border_color
p45
VC0DEED
p46
sVid_str
p47
V2656227907
p48
sVprofile_background_color
p49
VC0DEED
p50
sVlisted_count
p51
I2
sVstatus
p52
(dp53
Vcontributors
p54
NsVtruncated
p55
I00
sVtext
p56
VRT @venicewavefest: Louis king - HUMAN - Running Late by @theLouisKing  https://t.co/FPakmPuO3c
p57
sVin_reply_to_status_id
p58
Nsg35
L662380917512675329L
sVfavorite_count
p59
I0
sVsource
p60
V<a href="http://twitter.com" rel="nofollow">Twitter Web Client</a>
p61
sVretweeted
p62
I00
sVcoordinates
p63
Nsg43
(dp64
Vsymbols
p65
(lp66
sVuser_mentions
p67
(lp68
(dp69
g35
L3898164493L
sVindices
p70
(lp71
I3
aI18
asg47
V3898164493
p72
sVscreen_name
p73
Vvenicewavefest
p74
sVname
p75
VVWF Music
p76
sa(dp77
g35
I109908019
sg70
(lp78
I57
aI70
asg47
V109908019
p79
sg73
VtheLouisKing
p80
sg75
VLouis King
p81
sasVhashtags
p82
(lp83
sg25
(lp84
(dp85
Vurl
p86
Vhttps://t.co/FPakmPuO3c
p87
sg70
(lp88
I72
aI95
asVexpanded_url
p89
Vhttps://soundcloud.com/louisking/human
p90
sVdisplay_url
p91
Vsoundcloud.com/louisking/human
p92
sassVin_reply_to_screen_name
p93
Nsg47
V662380917512675329
p94
sVretweet_count
p95
I312
sVin_reply_to_user_id
p96
NsVfavorited
p97
I00
sVretweeted_status
p98
(dp99
g54
Nsg55
I00
sg56
VLouis king - HUMAN - Running Late by @theLouisKing  https://t.co/FPakmPuO3c
p100
sg58
Nsg35
L661972015662825472L
sg59
I6
sg60
V<a href="http://twitter.com/download/iphone" rel="nofollow">Twitter for iPhone</a>
p101
sg62
I00
sg63
Nsg43
(dp102
g65
(lp103
sg67
(lp104
(dp105
g35
I109908019
sg70
(lp106
I37
aI50
asg47
V109908019
p107
sg73
VtheLouisKing
p108
sg75
VLouis King
p109
sasg82
(lp110
sg25
(lp111
(dp112
g86
Vhttps://t.co/FPakmPuO3c
p113
sg70
(lp114
I52
aI75
asg89
Vhttps://soundcloud.com/louisking/human
p115
sg91
Vsoundcloud.com/louisking/human
p116
sassg93
Nsg47
V661972015662825472
p117
sg95
I312
sg96
Nsg97
I00
sVgeo
p118
NsVin_reply_to_user_id_str
p119
NsVpossibly_sensitive
p120
I00
sVlang
p121
Ven
p122
sVcreated_at
p123
VWed Nov 04 18:23:22 +0000 2015
p124
sVin_reply_to_status_id_str
p125
NsVplace
p126
Nssg118
Nsg119
Nsg120
I00
sg121
Ven
p127
sg123
VThu Nov 05 21:28:11 +0000 2015
p128
sg125
Nsg126
NssVis_translation_enabled
p129
I00
sVutc_offset
p130
NsVstatuses_count
p131
I2134
sg23
V
p132
sVfriends_count
p133
I260
sVlocation
p134
g132
sVprofile_link_color
p135
V0084B4
p136
sVprofile_image_url
p137
Vhttp://pbs.twimg.com/profile_images/490047426464477185/1t_BgxeE_normal.jpeg
p138
sVfollowing
p139
NsVgeo_enabled
p140
I00
sVprofile_background_image_url
p141
Vhttp://abs.twimg.com/images/themes/theme1/bg.png
p142
sg73
Vsaenko_c4370
p143
sg121
Vru
p144
sVprofile_background_tile
p145
I00
sVfavourites_count
p146
I724
sg75
Vcaleb saenko
p147
sVnotifications
p148
Nsg86
Nsg123
VFri Jul 18 08:16:20 +0000 2014
p149
sVcontributors_enabled
p150
I00
sVtime_zone
p151
NsVprotected
p152
I00
sVdefault_profile
p153
I01
sVis_translator
p154
I00
ssS'contributors_enabled'
p155
I00
sS'profile_text_color'
p156
g40
sS'followers_count'
p157
I4
sS'profile_sidebar_border_color'
p158
g46
sS'id_str'
p159
g48
sS'default_profile_image'
p160
I00
sS'listed_count'
p161
I2
sS'status'
p162
g8
(ctweepy.models
Status
p163
g10
Ntp164
Rp165
(dp166
S'favorited'
p167
I00
sS'contributors'
p168
NsS'truncated'
p169
I00
sS'text'
p170
g57
sS'source_url'
p171
Vhttp://twitter.com
p172
sS'possibly_sensitive'
p173
I00
sS'in_reply_to_status_id'
p174
NsS'geo'
p175
Nsg19
L662380917512675329L
sS'favorite_count'
p176
I0
sS'lang'
p177
g127
sS'retweeted_status'
p178
g8
(g163
g10
Ntp179
Rp180
(dp181
g167
I00
sg168
Nsg169
I00
sg170
g100
sg171
Vhttp://twitter.com/download/iphone
p182
sg173
I00
sg174
Nsg175
Nsg19
L661972015662825472L
sg176
I6
sg177
g122
sg21
g102
sS'created_at'
p183
cdatetime
datetime
p184
(S'\x07\xdf\x0b\x04\x12\x17\x16\x00\x00\x00'
p185
tp186
Rp187
sg29
g99
sS'coordinates'
p188
NsS'in_reply_to_user_id_str'
p189
NsS'source'
p190
VTwitter for iPhone
p191
sS'in_reply_to_status_id_str'
p192
NsS'in_reply_to_screen_name'
p193
Nsg159
g117
sS'retweeted'
p194
I00
sS'place'
p195
NsS'retweet_count'
p196
I312
sS'in_reply_to_user_id'
p197
Nsbsg21
g64
sg183
g184
(S'\x07\xdf\x0b\x05\x15\x1c\x0b\x00\x00\x00'
p198
tp199
Rp200
sg29
g53
sg188
Nsg189
Nsg190
VTwitter Web Client
p201
sg192
Nsg193
Nsg159
g94
sg194
I00
sg195
Nsg196
I312
sg197
NsbsS'is_translation_enabled'
p202
I00
sS'utc_offset'
p203
NsS'statuses_count'
p204
I2134
sS'description'
p205
g132
sS'friends_count'
p206
I260
sS'location'
p207
g132
sS'profile_link_color'
p208
g136
sS'profile_image_url'
p209
g138
sS'notifications'
p210
NsS'geo_enabled'
p211
I00
sS'profile_background_color'
p212
g50
sS'profile_background_image_url'
p213
g142
sS'screen_name'
p214
g143
sg177
g144
sg1
I00
sS'profile_background_tile'
p215
I00
sS'favourites_count'
p216
I724
sS'name'
p217
g147
sS'url'
p218
Nsg183
g184
(S'\x07\xde\x07\x12\x08\x10\x14\x00\x00\x00'
p219
tp220
Rp221
sS'profile_background_image_url_https'
p222
g37
sS'time_zone'
p223
NsS'protected'
p224
I00
sS'default_profile'
p225
I01
sS'is_translator'
p226
I00
sbs.