(dp0
S'following'
p1
(lp2
(lp3
L2710362272L
aL2490420074L
aL2582761964L
aI62127693
aL2725313403L
aI354418265
aL2286933728L
aI1369360440
aI1036578944
aI1097041136
aL2572830134L
aL2707537280L
aI1575973986
aI1377824935
aI303862998
aI1904924503
aI1357504705
aI1355357792
aI1375563632
aI36415257
aL2675405208L
aL2366296358L
aI33109387
aI284805016
aL2695044714L
aI888521419
aI1343624156
aI18968138
aI1469660306
aI37017261
aI144594898
aI1951994160
aL2483307072L
aI915796495
aI44467396
aL2202578251L
aL2697713029L
aI542840469
aI1610593988
aI562133675
aI735280746
aI484910306
aI735143449
aL2614065504L
aI43875890
aI278224987
aL2320547791L
aI241639290
aI249420175
aI860113350
aL2607803601L
aI1711739342
aI290170851
aI68080316
aI18942861
aI363582650
aI35631008
aI727193022
aL2451913472L
aI19487886
aI725983519
aL2676236498L
aI475398127
aI1011941574
aI440272274
aI15040988
aL2591518628L
aI1964339148
aI215741597
aI26713042
aI42430180
aI38574970
aL2184665196L
aI1052634799
aL2355448008L
aL2560899660L
aL2544728480L
aI87299677
aI1385455640
aL2572625041L
aI92422547
aI1273532971
aI372704742
aI40650496
aL2686020266L
aI1258243938
aL2495445295L
aI162540978
aI16657786
aI1702464199
aI1425948000
aI957474006
aL2418558174L
aL2661656306L
aI131294896
aI849328400
aI21761627
aI228679953
aI985240314
aI547663168
aL2557963830L
aL2311550865L
aI146584479
aL2666881376L
aI15369494
aL2552330280L
aI366485111
aI156667249
aI1676756676
aI225925468
aL2675274463L
aL2683716570L
aL2545251487L
aI37685126
aI128847518
aI392469861
aI175906908
aL2666498486L
aL2200957043L
aL2333547918L
aL2333548334L
aL2333547104L
aI31541303
aL2492533687L
aL2484927578L
aI92635931
aI889883832
aI1316950460
aI86689374
aI128781736
aI108804469
aL2182969026L
aI226828258
aI487308755
aI588364934
aI60294741
aL2315147609L
aI28912741
aI382876858
aL2591772410L
aI25105804
aI412464138
aI19380365
aL2672307570L
aI27821302
aL2718663195L
aL2341729783L
aI815651436
aI13978432
aI43942229
aI5416472
aI340835504
aI44765882
aI52835309
aI42701544
aI297855695
aI51680649
aI1679771395
aI1350994831
aL2659475168L
aI864000018
aI88062856
aL2617265256L
aI329525509
aL2639073198L
aI1345722644
aI197094474
aL2666530434L
aI1852975866
aI30500021
aI87722721
aL2388238206L
aI226256948
aI557855355
aL2665236637L
aL2664871267L
aI129964269
aI1197345576
aL2297998979L
aL2593284692L
aL2718713471L
aL2719577487L
aL2572168537L
aI1419965035
aI1732251638
aI1870053469
aI1140791539
aL2365631125L
aL2665170577L
aL2383132067L
aI144219653
aI164789629
aL2627573784L
aL2645638819L
aI1703376420
aI568422337
aL2329227986L
aI263026031
aL2565439729L
aL2256003930L
aL2422806902L
aI169115069
aI1322307116
aL2650390117L
aI1341930930
aL2558463343L
aL2309236146L
aL2237140363L
aI761197195
aI163530567
aI114304418
aL2612211582L
aI1668187830
aL2247424668L
aL2597913606L
aL2340018630L
aI138187896
aI1142775523
aI284235479
aL2648978077L
aI223960942
aI20468996
aL2652738781L
aL2655023160L
aI459330852
aI240201372
aL2656568246L
aL2653830486L
aI160358537
aL2595429379L
aL2648278166L
aI153874047
aI487118986
aL2279654473L
aI928520490
aI441487115
aI15110312
aL2458709864L
aL2492293153L
aI68244938
aI36020107
aI1283831179
aI1558018844
aI530839582
aI1490729816
aL2252032009L
aL2653788222L
aI1649401
aL2640043440L
aL2631500255L
aL2555242525L
aL2258213444L
aI1636317235
aI19645866
aL2586594937L
aI183716630
aL2645420814L
aasS'followers'
p4
(lp5
(lp6
L3385886950L
aL3119183524L
aL3678525919L
aL3312667008L
aL2539577030L
aL2426202571L
aL2483307072L
aI1283831179
aasS'obj'
p7
ccopy_reg
_reconstructor
p8
(ctweepy.models
User
p9
c__builtin__
object
p10
Ntp11
Rp12
(dp13
S'follow_request_sent'
p14
NsS'has_extended_profile'
p15
I00
sS'profile_use_background_image'
p16
I01
sS'profile_sidebar_fill_color'
p17
VDDEEF6
p18
sS'id'
p19
L2656231093L
sS'verified'
p20
I00
sS'entities'
p21
(dp22
Vdescription
p23
(dp24
Vurls
p25
(lp26
sssS'profile_image_url_https'
p27
Vhttps://pbs.twimg.com/profile_images/490047558949945344/RO3Svi97_normal.jpeg
p28
sS'_json'
p29
(dp30
Vfollow_request_sent
p31
NsVhas_extended_profile
p32
I00
sVprofile_use_background_image
p33
I01
sVdefault_profile_image
p34
I00
sVid
p35
L2656231093L
sVprofile_background_image_url_https
p36
Vhttps://abs.twimg.com/images/themes/theme1/bg.png
p37
sVverified
p38
I00
sVprofile_text_color
p39
V333333
p40
sVprofile_image_url_https
p41
g28
sVprofile_sidebar_fill_color
p42
g18
sVentities
p43
g22
sVfollowers_count
p44
I8
sVprofile_sidebar_border_color
p45
VC0DEED
p46
sVid_str
p47
V2656231093
p48
sVprofile_background_color
p49
VC0DEED
p50
sVlisted_count
p51
I3
sVstatus
p52
(dp53
Vcontributors
p54
NsVtruncated
p55
I00
sVtext
p56
VRT @sorakichi04111: \u4eca\u56de\u5b9f\u7e3e\u4f5c\u308b\u70ba\u30d0\u30a4\u30ca\u30ea\u30fc\u7528\u306e60\u79d2\u5c02\u7528\u306e\u30c4\u30fc\u30eb\u7121\u6599\u3067\u914d\u5e03\u3057\u305f\u3044\u3068\u601d\u3046\u306e\u3067\u3059\u304c\u6b32\u3057\u3044\u65b9DM\u304a\u9858\u3044\u3057\u307e\u3059\u3002\u000a\u5148\u77405\u540d\u3068\u3057\u307e\u3059
p57
sVin_reply_to_status_id
p58
Nsg35
L661897613499875328L
sVfavorite_count
p59
I0
sVsource
p60
V<a href="http://twitter.com" rel="nofollow">Twitter Web Client</a>
p61
sVretweeted
p62
I00
sVcoordinates
p63
Nsg43
(dp64
Vsymbols
p65
(lp66
sVuser_mentions
p67
(lp68
(dp69
g35
L4033860853L
sVindices
p70
(lp71
I3
aI18
asg47
V4033860853
p72
sVscreen_name
p73
Vsorakichi04111
p74
sVname
p75
V\u9234\u6728 \u5149\u4e00
p76
sasVhashtags
p77
(lp78
sg25
(lp79
ssVin_reply_to_screen_name
p80
Nsg47
V661897613499875328
p81
sVretweet_count
p82
I161
sVin_reply_to_user_id
p83
NsVfavorited
p84
I00
sVretweeted_status
p85
(dp86
Vlang
p87
Vja
p88
sg84
I00
sg43
(dp89
g65
(lp90
sg67
(lp91
sg77
(lp92
sg25
(lp93
ssg54
Nsg55
I00
sg56
V\u4eca\u56de\u5b9f\u7e3e\u4f5c\u308b\u70ba\u30d0\u30a4\u30ca\u30ea\u30fc\u7528\u306e60\u79d2\u5c02\u7528\u306e\u30c4\u30fc\u30eb\u7121\u6599\u3067\u914d\u5e03\u3057\u305f\u3044\u3068\u601d\u3046\u306e\u3067\u3059\u304c\u6b32\u3057\u3044\u65b9DM\u304a\u9858\u3044\u3057\u307e\u3059\u3002\u000a\u5148\u77405\u540d\u3068\u3057\u307e\u3059
p94
sVcreated_at
p95
VSun Nov 01 12:31:58 +0000 2015
p96
sg62
I00
sVin_reply_to_status_id_str
p97
Nsg63
NsVin_reply_to_user_id_str
p98
Nsg60
V<a href="http://twitter.com/download/iphone" rel="nofollow">Twitter for iPhone</a>
p99
sg58
Nsg80
Nsg47
V660796422107742209
p100
sVplace
p101
Nsg82
I161
sVgeo
p102
Nsg35
L660796422107742209L
sg59
I0
sg83
Nssg102
Nsg98
Nsg87
Vja
p103
sg95
VWed Nov 04 13:27:43 +0000 2015
p104
sg97
Nsg101
NssVis_translation_enabled
p105
I00
sVutc_offset
p106
NsVstatuses_count
p107
I1756
sg23
V
p108
sVfriends_count
p109
I257
sVlocation
p110
g108
sVprofile_link_color
p111
V0084B4
p112
sVprofile_image_url
p113
Vhttp://pbs.twimg.com/profile_images/490047558949945344/RO3Svi97_normal.jpeg
p114
sVfollowing
p115
NsVgeo_enabled
p116
I00
sVprofile_background_image_url
p117
Vhttp://abs.twimg.com/images/themes/theme1/bg.png
p118
sg73
Vkildeev_d6823
p119
sg87
Vru
p120
sVprofile_background_tile
p121
I00
sVfavourites_count
p122
I588
sg75
Vdavid kildeev
p123
sVnotifications
p124
NsVurl
p125
Nsg95
VFri Jul 18 08:16:51 +0000 2014
p126
sVcontributors_enabled
p127
I00
sVtime_zone
p128
NsVprotected
p129
I00
sVdefault_profile
p130
I01
sVis_translator
p131
I00
ssS'contributors_enabled'
p132
I00
sS'profile_text_color'
p133
g40
sS'followers_count'
p134
I8
sS'profile_sidebar_border_color'
p135
g46
sS'id_str'
p136
g48
sS'default_profile_image'
p137
I00
sS'listed_count'
p138
I3
sS'status'
p139
g8
(ctweepy.models
Status
p140
g10
Ntp141
Rp142
(dp143
S'favorited'
p144
I00
sS'contributors'
p145
NsS'truncated'
p146
I00
sS'text'
p147
VRT @sorakichi04111: \u4eca\u56de\u5b9f\u7e3e\u4f5c\u308b\u70ba\u30d0\u30a4\u30ca\u30ea\u30fc\u7528\u306e60\u79d2\u5c02\u7528\u306e\u30c4\u30fc\u30eb\u7121\u6599\u3067\u914d\u5e03\u3057\u305f\u3044\u3068\u601d\u3046\u306e\u3067\u3059\u304c\u6b32\u3057\u3044\u65b9DM\u304a\u9858\u3044\u3057\u307e\u3059\u3002\u000a\u5148\u77405\u540d\u3068\u3057\u307e\u3059
p148
sS'source_url'
p149
Vhttp://twitter.com
p150
sS'in_reply_to_status_id'
p151
NsS'geo'
p152
Nsg19
L661897613499875328L
sS'favorite_count'
p153
I0
sS'lang'
p154
g103
sS'retweeted_status'
p155
g8
(g140
g10
Ntp156
Rp157
(dp158
g144
I00
sg145
Nsg146
I00
sg147
V\u4eca\u56de\u5b9f\u7e3e\u4f5c\u308b\u70ba\u30d0\u30a4\u30ca\u30ea\u30fc\u7528\u306e60\u79d2\u5c02\u7528\u306e\u30c4\u30fc\u30eb\u7121\u6599\u3067\u914d\u5e03\u3057\u305f\u3044\u3068\u601d\u3046\u306e\u3067\u3059\u304c\u6b32\u3057\u3044\u65b9DM\u304a\u9858\u3044\u3057\u307e\u3059\u3002\u000a\u5148\u77405\u540d\u3068\u3057\u307e\u3059
p159
sg149
Vhttp://twitter.com/download/iphone
p160
sg151
Nsg152
Nsg19
L660796422107742209L
sg153
I0
sg154
g88
sg21
g89
sS'created_at'
p161
cdatetime
datetime
p162
(S'\x07\xdf\x0b\x01\x0c\x1f:\x00\x00\x00'
p163
tp164
Rp165
sg29
g86
sS'coordinates'
p166
NsS'in_reply_to_user_id_str'
p167
NsS'source'
p168
VTwitter for iPhone
p169
sS'in_reply_to_status_id_str'
p170
NsS'in_reply_to_screen_name'
p171
Nsg136
g100
sS'retweeted'
p172
I00
sS'place'
p173
NsS'retweet_count'
p174
I161
sS'in_reply_to_user_id'
p175
Nsbsg21
g64
sg161
g162
(S'\x07\xdf\x0b\x04\r\x1b+\x00\x00\x00'
p176
tp177
Rp178
sg29
g53
sg166
Nsg167
Nsg168
VTwitter Web Client
p179
sg170
Nsg171
Nsg136
g81
sg172
I00
sg173
Nsg174
I161
sg175
NsbsS'is_translation_enabled'
p180
I00
sS'utc_offset'
p181
NsS'statuses_count'
p182
I1756
sS'description'
p183
g108
sS'friends_count'
p184
I257
sS'location'
p185
g108
sS'profile_link_color'
p186
g112
sS'profile_image_url'
p187
g114
sS'notifications'
p188
NsS'geo_enabled'
p189
I00
sS'profile_background_color'
p190
g50
sS'profile_background_image_url'
p191
g118
sS'screen_name'
p192
g119
sg154
g120
sg1
I00
sS'profile_background_tile'
p193
I00
sS'favourites_count'
p194
I588
sS'name'
p195
g123
sS'url'
p196
Nsg161
g162
(S'\x07\xde\x07\x12\x08\x103\x00\x00\x00'
p197
tp198
Rp199
sS'profile_background_image_url_https'
p200
g37
sS'time_zone'
p201
NsS'protected'
p202
I00
sS'default_profile'
p203
I01
sS'is_translator'
p204
I00
sbs.