(dp0
S'following'
p1
(lp2
(lp3
I92457245
aL2309210107L
aL2568075804L
aI34737026
aI505222295
aL2647841718L
aI712864873
aI298199572
aI151965578
aL2517214189L
aI1183811556
aL2376198084L
aL2535346560L
aL2639264672L
aI14285154
aI19192646
aI817976694
aL2641221758L
aL2422039958L
aI377407811
aI1183887576
aL2426660859L
aL2438139916L
aI1863658147
aL2535077256L
aL2246174154L
aI956226097
aL2320581355L
aI167966535
aL2439601776L
aI286043708
aI1296975018
aI71545162
aI11911082
aI1341264145
aI100595492
aI216779155
aL2701325707L
aI1552037270
aI868859868
aL2386730596L
aL2367421698L
aI589088975
aI395311801
aI1377824935
aI873880164
aL2707831716L
aI1931331919
aI275424713
aI1468291921
aI618275125
aI36415257
aL2680059420L
aI540750580
aL2706080292L
aI1967231168
aL2366296358L
aI42640655
aL2675135029L
aI888521419
aL2373446051L
aI1636317235
aL2352711895L
aL2546551082L
aL2681831767L
aL2520543929L
aL2418978690L
aI23022161
aI1540824900
aI53958120
aI542840469
aI562133675
aI735280746
aI33109387
aI484910306
aL2566768518L
aI43875890
aL2468540360L
aL2275448672L
aL2320547791L
aI470461199
aL2691308660L
aI1711739342
aI290170851
aI26713042
aI40824537
aI48577241
aI15657318
aI525713285
aL2354928007L
aI520988333
aL2392669310L
aI239029992
aI223887223
aI973716014
aI197147695
aI440272274
aI78558305
aL2686020266L
aI42430180
aI20576735
aI944534113
aL2687913199L
aL2687879756L
aL2478548545L
aL2572625041L
aI92422547
aL2288287814L
aI16657786
aI29458538
aI287531586
aI15717762
aI297832455
aI1517128472
aL2681113946L
aL2587462604L
aL2185832379L
aL2182969026L
aI146584479
aL2184665196L
aL2552330280L
aI541940527
aL2675274463L
aL2683716570L
aI1868810112
aI563807084
aI392469861
aI322802999
aI175906908
aL2659955006L
aL2333554063L
aL2333552629L
aI31541303
aI359793610
aI39957724
aI7910122
aI178006495
aI410284783
aI1316950460
aI266341052
aI86689374
aI834508536
aL2322935827L
aI1151232560
aL2391044571L
aI28912741
aI187885062
aI392164987
aI33492443
aI18511391
aI226425413
aI13978432
aL2557963830L
aL2670968364L
aL2492533687L
aI154530823
aL2721185818L
aI1961122069
aL2170945137L
aI74724876
aI226256948
aL2715399489L
aI52835309
aI1663541358
aI1628715492
aL2717218337L
aI1670967312
aL2258078502L
aI1070063569
aI1679771395
aL2159398820L
aL2647489932L
aI237448075
aI27546916
aI175384377
aL2666881376L
aL2659475168L
aI1197345576
aI120325806
aI796574509
aL2664297644L
aL2665493330L
aI38574970
aI42701544
aL2584216555L
aI564873087
aL2297998979L
aI864000018
aL2719577487L
aI375217569
aL2494056751L
aI1732251638
aI1870053469
aI1140791539
aL2365631125L
aI306622888
aL2652486566L
aI144219653
aI1071577886
aI1255627416
aI866649650
aI50078104
aI592441336
aL2586245059L
aI248871954
aI568422337
aI169115069
aI263026031
aL2565439729L
aI89735243
aI52154347
aI153860327
aI23689744
aI137811984
aI262401685
aL2648100296L
aL2256003930L
aI56292835
aL2422806902L
aI597047333
aI84051650
aI78924684
aI1322307116
aL2650390117L
aL2659988276L
aL2558463343L
aI557855355
aI111583872
aL2659162369L
aL2658682692L
aI1638657600
aI139311025
aI216829889
aL2597913606L
aI463581555
aI284235479
aL2648978077L
aL2654311106L
aI609150188
aI1469597498
aL2656098608L
aI160358537
aL2595429379L
aI31076914
aL2716274422L
aI153874047
aI101795538
aL2546245272L
aI928520490
aI297855695
aI480969711
aL2652593742L
aL2431949616L
aL2646296754L
aI530839582
aI36358595
aL2640436159L
aI1670726738
aI484322134
aI1649401
aL2640043440L
aL2308047248L
aL2631500255L
aI768504769
aI589380809
aI25220418
aI1320455935
aL2645420814L
aasS'followers'
p4
(lp5
(lp6
L2986882366L
aL3054950158L
aI35817608
aL2539577030L
aL2912172267L
aL2911292823L
aasS'obj'
p7
ccopy_reg
_reconstructor
p8
(ctweepy.models
User
p9
c__builtin__
object
p10
Ntp11
Rp12
(dp13
S'follow_request_sent'
p14
NsS'has_extended_profile'
p15
I00
sS'profile_use_background_image'
p16
I01
sS'profile_sidebar_fill_color'
p17
VDDEEF6
p18
sS'id'
p19
L2656192986L
sS'verified'
p20
I00
sS'entities'
p21
(dp22
Vdescription
p23
(dp24
Vurls
p25
(lp26
sssS'profile_image_url_https'
p27
Vhttps://pbs.twimg.com/profile_images/490047658484969472/v5d-kOYv_normal.jpeg
p28
sS'_json'
p29
(dp30
Vfollow_request_sent
p31
NsVhas_extended_profile
p32
I00
sVprofile_use_background_image
p33
I01
sVdefault_profile_image
p34
I00
sVid
p35
L2656192986L
sVprofile_background_image_url_https
p36
Vhttps://abs.twimg.com/images/themes/theme1/bg.png
p37
sVverified
p38
I00
sVprofile_text_color
p39
V333333
p40
sVprofile_image_url_https
p41
g28
sVprofile_sidebar_fill_color
p42
g18
sVentities
p43
g22
sVfollowers_count
p44
I6
sVprofile_sidebar_border_color
p45
VC0DEED
p46
sVid_str
p47
V2656192986
p48
sVprofile_background_color
p49
VC0DEED
p50
sVlisted_count
p51
I12
sVstatus
p52
(dp53
Vcontributors
p54
NsVtruncated
p55
I00
sVtext
p56
VRT @upmyprofile: UpMyProfile, Key to Success on Instagram\u000ahttps://t.co/IUC0KRnFvr\u000a#InstagramNews #UpMyProfile #buyrealinstagramlikes https:\u2026
p57
sVin_reply_to_status_id
p58
Nsg35
L661895172406538240L
sVfavorite_count
p59
I0
sVsource
p60
V<a href="http://twitter.com" rel="nofollow">Twitter Web Client</a>
p61
sVretweeted
p62
I00
sVcoordinates
p63
Nsg43
(dp64
Vsymbols
p65
(lp66
sVuser_mentions
p67
(lp68
(dp69
g35
L2394253423L
sVindices
p70
(lp71
I3
aI15
asg47
V2394253423
p72
sVscreen_name
p73
Vupmyprofile
p74
sVname
p75
VUpMyProfile
p76
sasVhashtags
p77
(lp78
(dp79
g70
(lp80
I82
aI96
asg56
VInstagramNews
p81
sa(dp82
g70
(lp83
I97
aI109
asg56
VUpMyProfile
p84
sa(dp85
g70
(lp86
I110
aI132
asg56
Vbuyrealinstagramlikes
p87
sasg25
(lp88
(dp89
Vurl
p90
Vhttps://t.co/IUC0KRnFvr
p91
sg70
(lp92
I58
aI81
asVexpanded_url
p93
Vhttp://www.upmyprofile.com/blog/upmyprofile-key-to-success-on-instagram/
p94
sVdisplay_url
p95
Vupmyprofile.com/blog/upmyprofi\u2026
p96
sasVmedia
p97
(lp98
(dp99
Vsource_user_id
p100
L2394253423L
sVsource_status_id_str
p101
V661887305637040128
p102
sg93
Vhttp://twitter.com/upmyprofile/status/661887305637040128/photo/1
p103
sg95
Vpic.twitter.com/rVyFGnn2NL
p104
sg90
Vhttps://t.co/rVyFGnn2NL
p105
sVmedia_url_https
p106
Vhttps://pbs.twimg.com/media/CS9-_xUWwAEYS2E.jpg
p107
sVsource_user_id_str
p108
V2394253423
p109
sVsource_status_id
p110
L661887305637040128L
sg47
V661887304282324993
p111
sVsizes
p112
(dp113
Vsmall
p114
(dp115
Vh
p116
I340
sVresize
p117
Vfit
p118
sVw
p119
I340
ssVlarge
p120
(dp121
g116
I500
sg117
Vfit
p122
sg119
I500
ssVmedium
p123
(dp124
g116
I500
sg117
Vfit
p125
sg119
I500
ssVthumb
p126
(dp127
g116
I150
sg117
Vcrop
p128
sg119
I150
sssg70
(lp129
I139
aI140
asVtype
p130
Vphoto
p131
sg35
L661887304282324993L
sVmedia_url
p132
Vhttp://pbs.twimg.com/media/CS9-_xUWwAEYS2E.jpg
p133
sassVin_reply_to_screen_name
p134
Nsg47
V661895172406538240
p135
sVretweet_count
p136
I106
sVin_reply_to_user_id
p137
NsVfavorited
p138
I00
sVretweeted_status
p139
(dp140
g54
Nsg55
I00
sg56
VUpMyProfile, Key to Success on Instagram\u000ahttps://t.co/IUC0KRnFvr\u000a#InstagramNews #UpMyProfile #buyrealinstagramlikes https://t.co/rVyFGnn2NL
p141
sg58
Nsg35
L661887305637040128L
sg59
I101
sg60
V<a href="http://twitter.com" rel="nofollow">Twitter Web Client</a>
p142
sg62
I00
sg63
Nsg43
(dp143
g65
(lp144
sg67
(lp145
sg77
(lp146
(dp147
g70
(lp148
I65
aI79
asg56
VInstagramNews
p149
sa(dp150
g70
(lp151
I80
aI92
asg56
VUpMyProfile
p152
sa(dp153
g70
(lp154
I93
aI115
asg56
Vbuyrealinstagramlikes
p155
sasg25
(lp156
(dp157
g90
Vhttps://t.co/IUC0KRnFvr
p158
sg70
(lp159
I41
aI64
asg93
Vhttp://www.upmyprofile.com/blog/upmyprofile-key-to-success-on-instagram/
p160
sg95
Vupmyprofile.com/blog/upmyprofi\u2026
p161
sasg97
(lp162
(dp163
g93
Vhttp://twitter.com/upmyprofile/status/661887305637040128/photo/1
p164
sg95
Vpic.twitter.com/rVyFGnn2NL
p165
sg90
Vhttps://t.co/rVyFGnn2NL
p166
sg106
Vhttps://pbs.twimg.com/media/CS9-_xUWwAEYS2E.jpg
p167
sg47
V661887304282324993
p168
sg112
(dp169
g114
(dp170
g116
I340
sg117
Vfit
p171
sg119
I340
ssg120
(dp172
g116
I500
sg117
Vfit
p173
sg119
I500
ssg123
(dp174
g116
I500
sg117
Vfit
p175
sg119
I500
ssg126
(dp176
g116
I150
sg117
Vcrop
p177
sg119
I150
sssg70
(lp178
I116
aI139
asg130
Vphoto
p179
sg35
L661887304282324993L
sg132
Vhttp://pbs.twimg.com/media/CS9-_xUWwAEYS2E.jpg
p180
sassg134
Nsg47
V661887305637040128
p181
sg136
I106
sg137
Nsg138
I00
sVgeo
p182
NsVin_reply_to_user_id_str
p183
NsVpossibly_sensitive
p184
I00
sVlang
p185
Ven
p186
sVcreated_at
p187
VWed Nov 04 12:46:45 +0000 2015
p188
sVin_reply_to_status_id_str
p189
NsVplace
p190
Nssg182
Nsg183
Nsg184
I00
sg185
Ven
p191
sg187
VWed Nov 04 13:18:01 +0000 2015
p192
sg189
Nsg190
NssVis_translation_enabled
p193
I00
sVutc_offset
p194
NsVstatuses_count
p195
I1737
sg23
V
p196
sVfriends_count
p197
I268
sVlocation
p198
g196
sVprofile_link_color
p199
V0084B4
p200
sVprofile_image_url
p201
Vhttp://pbs.twimg.com/profile_images/490047658484969472/v5d-kOYv_normal.jpeg
p202
sVfollowing
p203
NsVgeo_enabled
p204
I00
sVprofile_background_image_url
p205
Vhttp://abs.twimg.com/images/themes/theme1/bg.png
p206
sg73
Vlintvarev_r688
p207
sg185
Vru
p208
sVprofile_background_tile
p209
I00
sVfavourites_count
p210
I613
sg75
Vrebecca lintvarev
p211
sVnotifications
p212
Nsg90
Nsg187
VFri Jul 18 08:17:13 +0000 2014
p213
sVcontributors_enabled
p214
I00
sVtime_zone
p215
NsVprotected
p216
I00
sVdefault_profile
p217
I01
sVis_translator
p218
I00
ssS'contributors_enabled'
p219
I00
sS'profile_text_color'
p220
g40
sS'followers_count'
p221
I6
sS'profile_sidebar_border_color'
p222
g46
sS'id_str'
p223
g48
sS'default_profile_image'
p224
I00
sS'listed_count'
p225
I12
sS'status'
p226
g8
(ctweepy.models
Status
p227
g10
Ntp228
Rp229
(dp230
S'favorited'
p231
I00
sS'contributors'
p232
NsS'truncated'
p233
I00
sS'text'
p234
VRT @upmyprofile: UpMyProfile, Key to Success on Instagram\u000ahttps://t.co/IUC0KRnFvr\u000a#InstagramNews #UpMyProfile #buyrealinstagramlikes https:\u2026
p235
sS'source_url'
p236
Vhttp://twitter.com
p237
sS'possibly_sensitive'
p238
I00
sS'in_reply_to_status_id'
p239
NsS'geo'
p240
Nsg19
L661895172406538240L
sS'favorite_count'
p241
I0
sS'lang'
p242
g191
sS'retweeted_status'
p243
g8
(g227
g10
Ntp244
Rp245
(dp246
g231
I00
sg232
Nsg233
I00
sg234
VUpMyProfile, Key to Success on Instagram\u000ahttps://t.co/IUC0KRnFvr\u000a#InstagramNews #UpMyProfile #buyrealinstagramlikes https://t.co/rVyFGnn2NL
p247
sg236
Vhttp://twitter.com
p248
sg238
I00
sg239
Nsg240
Nsg19
L661887305637040128L
sg241
I101
sg242
g186
sg21
g143
sS'created_at'
p249
cdatetime
datetime
p250
(S'\x07\xdf\x0b\x04\x0c.-\x00\x00\x00'
p251
tp252
Rp253
sg29
g140
sS'coordinates'
p254
NsS'in_reply_to_user_id_str'
p255
NsS'source'
p256
VTwitter Web Client
p257
sS'in_reply_to_status_id_str'
p258
NsS'in_reply_to_screen_name'
p259
Nsg223
g181
sS'retweeted'
p260
I00
sS'place'
p261
NsS'retweet_count'
p262
I106
sS'in_reply_to_user_id'
p263
Nsbsg21
g64
sg249
g250
(S'\x07\xdf\x0b\x04\r\x12\x01\x00\x00\x00'
p264
tp265
Rp266
sg29
g53
sg254
Nsg255
Nsg256
VTwitter Web Client
p267
sg258
Nsg259
Nsg223
g135
sg260
I00
sg261
Nsg262
I106
sg263
NsbsS'is_translation_enabled'
p268
I00
sS'utc_offset'
p269
NsS'statuses_count'
p270
I1737
sS'description'
p271
g196
sS'friends_count'
p272
I268
sS'location'
p273
g196
sS'profile_link_color'
p274
g200
sS'profile_image_url'
p275
g202
sS'notifications'
p276
NsS'geo_enabled'
p277
I00
sS'profile_background_color'
p278
g50
sS'profile_background_image_url'
p279
g206
sS'screen_name'
p280
g207
sg242
g208
sg1
I00
sS'profile_background_tile'
p281
I00
sS'favourites_count'
p282
I613
sS'name'
p283
g211
sS'url'
p284
Nsg249
g250
(S'\x07\xde\x07\x12\x08\x11\r\x00\x00\x00'
p285
tp286
Rp287
sS'profile_background_image_url_https'
p288
g37
sS'time_zone'
p289
NsS'protected'
p290
I00
sS'default_profile'
p291
I01
sS'is_translator'
p292
I00
sbs.