(dp0
S'following'
p1
(lp2
(lp3
I936560438
aI252748081
aI1003440223
aI1923947209
aI1617958825
aI486937798
aI1677747793
aI460564003
aI226637533
aI1861663298
aI1382336750
aI440185533
aI25859410
aI820026960
aI350936749
aI627765164
aI788333744
aI75918423
aI1289738107
aI10870512
aI1518672566
aI41691452
aI409349725
aL3254020358L
aL3324205583L
aI755716560
aI90295424
aI1927833115
aI1409259144
aI626706066
aI32135630
aI42959303
aI1686020359
aL3050352081L
aI141308046
aI15933274
aI715317523
aI121837009
aI285837868
aI1412168383
aI432769364
aI59283983
aL2197997773L
aI1055051502
aI505767885
aI1060061738
aI488367335
aI431659531
aI72910463
aL2801354423L
aI62453193
aI511637310
aI38075629
aI268369883
aI392562986
aI253663760
aI1849197601
aI193039602
aI15902088
aI36711363
aI25745371
aI59332589
aI316123751
aI125161682
aI1930866174
aI1909475401
aI934973809
aI273984441
aL2659957669L
aI487089304
aI228294900
aI316067602
aI19822143
aI14375294
aI709430142
aL2479263582L
aL2660018113L
aI400962072
aI898905920
aI15377115
aL2670116946L
aL2266354974L
aL2659972441L
aL2478313849L
aL2661528901L
aI40848717
aL2478069727L
aL2468081898L
aL2478305305L
aL2478283946L
aL2661699606L
aL2462539501L
aL2478285307L
aL2670091698L
aL2479260056L
aL2657382734L
aL2659916216L
aL2670134521L
aL2287251151L
aL2479263188L
aI1950025556
aL2670110269L
aL2478216811L
aL2473370719L
aI437573406
aL2478247556L
aL2478139537L
aL2479281452L
aL2478023318L
aL2659960580L
aL2660007751L
aL2478274458L
aL2670123530L
aL2479251678L
aL2670163519L
aL2477986224L
aL2478066259L
aL2478038719L
aL2273213838L
aL2462770136L
aL2267701975L
aL2479299643L
aL2479276327L
aL2478284196L
aL2478317269L
aL2478208446L
aL2659927032L
aL2479261572L
aL2478122862L
aL2661465686L
aL2478213457L
aL2265249223L
aL2479270962L
aL2468097332L
aL2478279439L
aL2478207613L
aL2269740691L
aL2478128263L
aL2661488060L
aL2478155581L
aL2661495499L
aL2477991595L
aL2657415733L
aL2468103956L
aI71070452
aL2478008502L
aL2478097844L
aL2462816125L
aL2477997038L
aL2478310268L
aL2468103534L
aasS'followers'
p4
(lp5
(lp6
L3134999706L
aI936560438
aL4136796074L
aL2994203381L
aI1003440223
aI1617958825
aI1923947209
aI486937798
aI1677747793
aI226637533
aI1382336750
aI1861663298
aL3943050749L
aL3933463409L
aI350936749
aI627765164
aL3762624153L
aI788333744
aI75918423
aL3152628843L
aL2540762589L
aL3311913061L
aL2432104717L
aL3796787320L
aL3773985927L
aI10870512
aL3551956153L
aL3505383258L
aI755716560
aI1927833115
aI626706066
aI32135630
aI1686020359
aL3198711068L
aL3133907638L
aI121837009
aI715317523
aI1412168383
aL3022936665L
aI285837868
aL3038358192L
aL2957615747L
aL3063003494L
aL3062743219L
aI431659531
aL2478207613L
aI268369883
aI125161682
aL2956006198L
aI253663760
aI1849197601
aL2478208446L
aL3004441742L
aL2478122862L
aI15902088
aI193039602
aI316123751
aI59332589
aI1930866174
aI1909475401
aL2267701975L
aI934973809
aI228294900
aI487089304
aL2479261572L
aI316067602
aL2670091698L
aI19822143
aL2266354974L
aL2478128263L
aI14375294
aL2659916216L
aL2468097332L
aL2661528901L
aL2878398288L
aI709430142
aL2478066259L
aL2819964345L
aL2479263188L
aL2269740691L
aI898905920
aL2661465686L
aL2479281452L
aL2670116946L
aL2661495499L
aL2660007751L
aL2478313849L
aL2478279439L
aL2273213838L
aL2670110269L
aL2478305305L
aL2478139537L
aL2468081898L
aI40848717
aL2659927032L
aL2479251678L
aL2478247556L
aL2440302457L
aL2479260056L
aL2478023318L
aL2477991595L
aL2478213457L
aL2468103956L
aL2462539501L
aL2661699606L
aL2479299643L
aL2478283946L
aL2478285307L
aL2478038719L
aL2659972441L
aL2478284196L
aL2477997038L
aL2670163519L
aL2659960580L
aL2657382734L
aL2479276327L
aL2478317269L
aL2478216811L
aL2478097844L
aL2478069727L
aL2473370719L
aL2265249223L
aL2479263582L
aL2478274458L
aL2478155581L
aL2477986224L
aL2468103534L
aL2659957669L
aL2657415733L
aL2479270962L
aL2462770136L
aL2670123530L
aL2670134521L
aL2661488060L
aL2660018113L
aL2478310268L
aL2478008502L
aL2462816125L
aL2287251151L
aasS'obj'
p7
ccopy_reg
_reconstructor
p8
(ctweepy.models
User
p9
c__builtin__
object
p10
Ntp11
Rp12
(dp13
S'follow_request_sent'
p14
NsS'has_extended_profile'
p15
I00
sS'profile_use_background_image'
p16
I01
sS'profile_sidebar_fill_color'
p17
VDDEEF6
p18
sS'id'
p19
L2659951243L
sS'verified'
p20
I00
sS'entities'
p21
(dp22
Vdescription
p23
(dp24
Vurls
p25
(lp26
sssS'profile_image_url_https'
p27
Vhttps://pbs.twimg.com/profile_images/490539921354928128/qvNfmj7-_normal.jpeg
p28
sS'_json'
p29
(dp30
Vfollow_request_sent
p31
NsVhas_extended_profile
p32
I00
sVprofile_use_background_image
p33
I01
sVdefault_profile_image
p34
I00
sVid
p35
L2659951243L
sVprofile_background_image_url_https
p36
Vhttps://abs.twimg.com/images/themes/theme1/bg.png
p37
sVverified
p38
I00
sVprofile_text_color
p39
V333333
p40
sVprofile_image_url_https
p41
g28
sVprofile_sidebar_fill_color
p42
g18
sVentities
p43
g22
sVfollowers_count
p44
I139
sVprofile_sidebar_border_color
p45
VC0DEED
p46
sVid_str
p47
V2659951243
p48
sVprofile_background_color
p49
VC0DEED
p50
sVlisted_count
p51
I54
sVstatus
p52
(dp53
Vcontributors
p54
NsVtruncated
p55
I00
sVtext
p56
VSign up for a Free Stock Alert for $EXPD https://t.co/V1jr9VDtaE  $$ #stock #investing
p57
sVin_reply_to_status_id
p58
Nsg35
L666498550113677312L
sVfavorite_count
p59
I0
sVsource
p60
V<a href="http://www.strategic-options.com" rel="nofollow">strategic_news</a>
p61
sVretweeted
p62
I00
sVcoordinates
p63
Nsg43
(dp64
Vsymbols
p65
(lp66
(dp67
Vindices
p68
(lp69
I35
aI40
asg56
VEXPD
p70
sasVuser_mentions
p71
(lp72
sVhashtags
p73
(lp74
(dp75
g68
(lp76
I69
aI75
asg56
Vstock
p77
sa(dp78
g68
(lp79
I76
aI86
asg56
Vinvesting
p80
sasg25
(lp81
(dp82
Vurl
p83
Vhttps://t.co/V1jr9VDtaE
p84
sg68
(lp85
I41
aI64
asVexpanded_url
p86
Vhttp://bit.ly/1SQ9A2x
p87
sVdisplay_url
p88
Vbit.ly/1SQ9A2x
p89
sassVin_reply_to_screen_name
p90
Nsg47
V666498550113677312
p91
sVretweet_count
p92
I0
sVin_reply_to_user_id
p93
NsVfavorited
p94
I00
sVgeo
p95
NsVin_reply_to_user_id_str
p96
NsVpossibly_sensitive
p97
I00
sVlang
p98
Ven
p99
sVcreated_at
p100
VTue Nov 17 06:10:11 +0000 2015
p101
sVin_reply_to_status_id_str
p102
NsVplace
p103
NssVis_translation_enabled
p104
I00
sVutc_offset
p105
NsVstatuses_count
p106
I1908
sg23
V
p107
sVfriends_count
p108
I151
sVlocation
p109
g107
sVprofile_link_color
p110
V0084B4
p111
sVprofile_image_url
p112
Vhttp://pbs.twimg.com/profile_images/490539921354928128/qvNfmj7-_normal.jpeg
p113
sVfollowing
p114
NsVgeo_enabled
p115
I00
sVprofile_background_image_url
p116
Vhttp://abs.twimg.com/images/themes/theme1/bg.png
p117
sVscreen_name
p118
Vavibera7
p119
sg98
Ven
p120
sVprofile_background_tile
p121
I00
sVfavourites_count
p122
I0
sVname
p123
Vavi.bera@gmail.com
p124
sVnotifications
p125
Nsg83
Nsg100
VSat Jul 19 16:52:14 +0000 2014
p126
sVcontributors_enabled
p127
I00
sVtime_zone
p128
NsVprotected
p129
I00
sVdefault_profile
p130
I01
sVis_translator
p131
I00
ssS'contributors_enabled'
p132
I00
sS'profile_text_color'
p133
g40
sS'followers_count'
p134
I139
sS'profile_sidebar_border_color'
p135
g46
sS'id_str'
p136
g48
sS'default_profile_image'
p137
I00
sS'listed_count'
p138
I54
sS'status'
p139
g8
(ctweepy.models
Status
p140
g10
Ntp141
Rp142
(dp143
S'favorited'
p144
I00
sS'contributors'
p145
NsS'truncated'
p146
I00
sS'text'
p147
g57
sS'source_url'
p148
Vhttp://www.strategic-options.com
p149
sS'possibly_sensitive'
p150
I00
sS'in_reply_to_status_id'
p151
NsS'geo'
p152
Nsg19
L666498550113677312L
sS'favorite_count'
p153
I0
sS'lang'
p154
g99
sg21
g64
sS'created_at'
p155
cdatetime
datetime
p156
(S'\x07\xdf\x0b\x11\x06\n\x0b\x00\x00\x00'
p157
tp158
Rp159
sg29
g53
sS'coordinates'
p160
NsS'in_reply_to_user_id_str'
p161
NsS'source'
p162
Vstrategic_news
p163
sS'in_reply_to_status_id_str'
p164
NsS'in_reply_to_screen_name'
p165
Nsg136
g91
sS'retweeted'
p166
I00
sS'place'
p167
NsS'retweet_count'
p168
I0
sS'in_reply_to_user_id'
p169
NsbsS'is_translation_enabled'
p170
I00
sS'utc_offset'
p171
NsS'statuses_count'
p172
I1908
sS'description'
p173
g107
sS'friends_count'
p174
I151
sS'location'
p175
g107
sS'profile_link_color'
p176
g111
sS'profile_image_url'
p177
g113
sS'notifications'
p178
NsS'geo_enabled'
p179
I00
sS'profile_background_color'
p180
g50
sS'profile_background_image_url'
p181
g117
sS'screen_name'
p182
g119
sg154
g120
sg1
I00
sS'profile_background_tile'
p183
I00
sS'favourites_count'
p184
I0
sS'name'
p185
g124
sS'url'
p186
Nsg155
g156
(S'\x07\xde\x07\x13\x104\x0e\x00\x00\x00'
p187
tp188
Rp189
sS'profile_background_image_url_https'
p190
g37
sS'time_zone'
p191
NsS'protected'
p192
I00
sS'default_profile'
p193
I01
sS'is_translator'
p194
I00
sbs.