(dp0
S'following'
p1
(lp2
(lp3
I86208515
aL2747080857L
aI1958017124
aL2774687256L
aL2821416581L
aI485881472
aI133310558
aI1327120908
aI343485402
aI245627071
aL2610985152L
aI1007528640
aI21473938
aI312450406
aI191429899
aI1852428158
aI41083076
aL2840119261L
aL2751788819L
aI35686657
aL2322361250L
aI1100660936
aI166946877
aI297483687
aL2290261165L
aL2829069893L
aL2622278840L
aI1715796506
aI1410748986
aI45133573
aL2557412970L
aI287345680
aI42475890
aI6476832
aI806890321
aI174651148
aL2822356432L
aI25240036
aI427798770
aL2450338628L
aL2801835409L
aL2532531409L
aI323925070
aL2825880506L
aI1480465586
aL2793849085L
aI1107841074
aL2810597777L
aL2360164606L
aL2844494336L
aL2450209980L
aI450805121
aI1330366183
aL2492940694L
aI836640894
aI142277840
aL2731131931L
aL2790426990L
aI1964415001
aL2600184013L
aI1525342994
aI22960461
aI337968909
aI575014349
aL2697797094L
aI349027628
aI15759914
aI707514301
aL2739373080L
aI443306423
aI31317551
aI365950753
aI1355392652
aL2371355597L
aL2767967713L
aI183731193
aL2657616223L
aI1321388071
aL2753165993L
aI890970050
aI185204718
aL2208779611L
aL2441335578L
aI300169312
aI951832939
aL2660599512L
aL2738589658L
aI80309343
aL2729310017L
aL2313940644L
aI399011947
aL2527701944L
aI21812037
aI340181951
aI19819302
aL2763019843L
aI164305768
aL2745384343L
aL2656472856L
aI813285217
aL2604082934L
aL2323049886L
aI447387038
aI106332067
aI348159021
aL2237465521L
aL2543286565L
aI214707345
aI38499945
aI473017148
aL2652278154L
aL2477748859L
aI1914212378
aI360869459
aL2741278157L
aI16838276
aI240629853
aI236636515
aI604593160
aI71178851
aL2699760139L
aI1654339098
aI1549582998
aI215151029
aI321970717
aL2721845709L
aI1000167871
aI356461659
aI1020190998
aL2377596499L
aI332568011
aI895832586
aL2556497406L
aI923692784
aL2692313258L
aL2598495900L
aI1854251720
aI986500177
aI1374268682
aI1510489374
aI941240646
aI199359691
aI590285184
aI864331958
aI460754121
aL2307569686L
aI468929493
aI442076938
aI1965326180
aL2176584506L
aI1086973130
aI455445236
aI310127685
aI306051110
aI21569677
aL2722735394L
aI1864293470
aI870508843
aI1674724531
aI28351859
aI586895073
aI92457245
aL2560064220L
aL2722249136L
aI377407811
aI431734647
aL2738567116L
aI1711739342
aI594424144
aI309719235
aL2616457181L
aI1281399733
aI1258096897
aL2535346560L
aI14285154
aI1267350379
aL2654232069L
aI309843655
aL2720256062L
aL2313789050L
aL2719899224L
aL2254396868L
aI235578480
aI1183887576
aL2284251792L
aI201302264
aI1463224512
aI1829289794
aI286043708
aI47881924
aI71545162
aI11911082
aI1341264145
aI216779155
aL2701325707L
aI246860269
aL2522015064L
aL2706484902L
aI868859868
aI1600297608
aL2221848747L
aL2386730596L
aL2614703659L
aI1002752810
aI146584479
aI284326880
aL2736007739L
aI234424150
aI972115326
aI590235146
aI928144556
aI1150749445
aL2366090810L
aL2710473432L
aI152831766
aI1610593988
aL2657826625L
aI291503109
aI34737026
aL2543656910L
aL2376198084L
aI298199572
aI1152042450
aL2321090622L
aL2711781750L
aI444713414
aL2656157522L
aL2710362272L
aL2319234066L
aI62127693
aI1724480935
aL2286933728L
aI1369360440
aI1036578944
aI1097041136
aI30864098
aL2229976656L
aI158941108
aL2694979891L
aL2572830134L
aI382141735
aI271778688
aI3219081
aI145421896
aI931144902
aI735232200
aI873880164
aI1703009785
aL2707831716L
aI377018034
aI31275580
aI735281455
aI1468291921
aI969339846
aI408100058
aI36415257
aL2596479854L
aI63052607
aL2705263783L
aL2366296358L
aI190993417
aL2694699818L
aL2373446051L
aI1636317235
aL2649436796L
aI1469660306
aI21128302
aL2369773182L
aL2483307072L
aI1951994160
aI121364465
aI16326346
aI542840469
aI15608083
aI735280746
aI735144828
aI1355354036
aI313707747
aL2662909293L
aI1945272390
aI860113350
aI26713042
aL2560899660L
aL2396690862L
aL2511420397L
aI18942861
aL2693405083L
aI17906009
aI525713285
aI1152984595
aL2354928007L
aI520988333
aI19487886
aI14389782
aL2683498868L
aI393570517
aL2675274463L
aI440272274
aI15040988
aL2686020266L
aI1964339148
aI38574970
aL2544728480L
aI100218359
aI944534113
aI473055733
aL2687913199L
aL2572625041L
aI372704742
aI1258243938
aL2495445295L
aI162540978
aI16657786
aI287531586
aI957474006
aI35846865
aL2615603630L
aL2667910046L
aI382890597
aL2182969026L
aL2666881376L
aL2184665196L
aI84726219
aL2552330280L
aI366485111
aI266171036
aI541940527
aL2641221758L
aL2545251487L
aI128847518
aI1411688574
aI392469861
aI175906908
aL2200957043L
aL2529457904L
aI169115069
aL2333544624L
aI595936790
aI39957724
aI410284783
aI527149757
aI30789784
aI1316950460
aI86689374
aI146288374
aL2485957286L
aI226828258
aL2385416024L
aI318288650
aI42430180
aI487308755
aI128595242
aI318647235
aL2391044571L
aL2315147609L
aI195921210
aI29964759
aL2660372376L
aI1147330586
aL2557963830L
aI23862413
aI43942229
aI154530823
aI340835504
aI1312699748
aL2721185818L
aI1961122069
aI61784607
aL2187117308L
aI204384761
aI226256948
aI557821092
aL2618666149L
aL2597913606L
aI52835309
aI42701544
aI557855355
aI297855695
aI1663541358
aI21360280
aI1670967312
aL2370874939L
aI581156218
aI188125145
aI366100907
aL2647489932L
aI864000018
aI116655954
aI15369494
aI1655043320
aL2666872230L
aI961742202
aI81594412
aL2639073198L
aL2662146608L
aI27546916
aI1465483465
aI74724876
aL2659475168L
aasS'followers'
p4
(lp5
(lp6
L2978615170L
aI174953869
aL3678525919L
aI45698227
aL3312667008L
aL2897756427L
aL3425194937L
aL3207854387L
aI351080122
aL2840119261L
aL2483307072L
aasS'obj'
p7
ccopy_reg
_reconstructor
p8
(ctweepy.models
User
p9
c__builtin__
object
p10
Ntp11
Rp12
(dp13
S'follow_request_sent'
p14
NsS'has_extended_profile'
p15
I00
sS'profile_use_background_image'
p16
I01
sS'profile_sidebar_fill_color'
p17
VDDEEF6
p18
sS'id'
p19
L2672887104L
sS'verified'
p20
I00
sS'entities'
p21
(dp22
Vdescription
p23
(dp24
Vurls
p25
(lp26
sssS'profile_image_url_https'
p27
Vhttps://pbs.twimg.com/profile_images/491868546561867776/yl_wAOIu_normal.jpeg
p28
sS'_json'
p29
(dp30
Vfollow_request_sent
p31
NsVhas_extended_profile
p32
I00
sVprofile_use_background_image
p33
I01
sVdefault_profile_image
p34
I00
sVid
p35
L2672887104L
sVprofile_background_image_url_https
p36
Vhttps://abs.twimg.com/images/themes/theme1/bg.png
p37
sVverified
p38
I00
sVprofile_text_color
p39
V333333
p40
sVprofile_image_url_https
p41
g28
sVprofile_sidebar_fill_color
p42
g18
sVentities
p43
g22
sVfollowers_count
p44
I11
sVprofile_sidebar_border_color
p45
VC0DEED
p46
sVid_str
p47
V2672887104
p48
sVprofile_background_color
p49
VC0DEED
p50
sVlisted_count
p51
I4
sVstatus
p52
(dp53
Vcontributors
p54
NsVtruncated
p55
I00
sVtext
p56
VRT @upmyprofile: UpMyProfile, Key to Success on Instagram\u000ahttps://t.co/IUC0KRnFvr\u000a#InstagramNews #UpMyProfile #buyrealinstagramlikes https:\u2026
p57
sVin_reply_to_status_id
p58
Nsg35
L661894906139549696L
sVfavorite_count
p59
I0
sVsource
p60
V<a href="http://twitter.com" rel="nofollow">Twitter Web Client</a>
p61
sVretweeted
p62
I00
sVcoordinates
p63
Nsg43
(dp64
Vsymbols
p65
(lp66
sVuser_mentions
p67
(lp68
(dp69
g35
L2394253423L
sVindices
p70
(lp71
I3
aI15
asg47
V2394253423
p72
sVscreen_name
p73
Vupmyprofile
p74
sVname
p75
VUpMyProfile
p76
sasVhashtags
p77
(lp78
(dp79
g70
(lp80
I82
aI96
asg56
VInstagramNews
p81
sa(dp82
g70
(lp83
I97
aI109
asg56
VUpMyProfile
p84
sa(dp85
g70
(lp86
I110
aI132
asg56
Vbuyrealinstagramlikes
p87
sasg25
(lp88
(dp89
Vurl
p90
Vhttps://t.co/IUC0KRnFvr
p91
sg70
(lp92
I58
aI81
asVexpanded_url
p93
Vhttp://www.upmyprofile.com/blog/upmyprofile-key-to-success-on-instagram/
p94
sVdisplay_url
p95
Vupmyprofile.com/blog/upmyprofi\u2026
p96
sasVmedia
p97
(lp98
(dp99
Vsource_user_id
p100
L2394253423L
sVsource_status_id_str
p101
V661887305637040128
p102
sg93
Vhttp://twitter.com/upmyprofile/status/661887305637040128/photo/1
p103
sg95
Vpic.twitter.com/rVyFGnn2NL
p104
sg90
Vhttps://t.co/rVyFGnn2NL
p105
sVmedia_url_https
p106
Vhttps://pbs.twimg.com/media/CS9-_xUWwAEYS2E.jpg
p107
sVsource_user_id_str
p108
V2394253423
p109
sVsource_status_id
p110
L661887305637040128L
sg47
V661887304282324993
p111
sVsizes
p112
(dp113
Vsmall
p114
(dp115
Vh
p116
I340
sVresize
p117
Vfit
p118
sVw
p119
I340
ssVlarge
p120
(dp121
g116
I500
sg117
Vfit
p122
sg119
I500
ssVmedium
p123
(dp124
g116
I500
sg117
Vfit
p125
sg119
I500
ssVthumb
p126
(dp127
g116
I150
sg117
Vcrop
p128
sg119
I150
sssg70
(lp129
I139
aI140
asVtype
p130
Vphoto
p131
sg35
L661887304282324993L
sVmedia_url
p132
Vhttp://pbs.twimg.com/media/CS9-_xUWwAEYS2E.jpg
p133
sassVin_reply_to_screen_name
p134
Nsg47
V661894906139549696
p135
sVretweet_count
p136
I106
sVin_reply_to_user_id
p137
NsVfavorited
p138
I00
sVretweeted_status
p139
(dp140
g54
Nsg55
I00
sg56
VUpMyProfile, Key to Success on Instagram\u000ahttps://t.co/IUC0KRnFvr\u000a#InstagramNews #UpMyProfile #buyrealinstagramlikes https://t.co/rVyFGnn2NL
p141
sg58
Nsg35
L661887305637040128L
sg59
I101
sg60
V<a href="http://twitter.com" rel="nofollow">Twitter Web Client</a>
p142
sg62
I00
sg63
Nsg43
(dp143
g65
(lp144
sg67
(lp145
sg77
(lp146
(dp147
g70
(lp148
I65
aI79
asg56
VInstagramNews
p149
sa(dp150
g70
(lp151
I80
aI92
asg56
VUpMyProfile
p152
sa(dp153
g70
(lp154
I93
aI115
asg56
Vbuyrealinstagramlikes
p155
sasg25
(lp156
(dp157
g90
Vhttps://t.co/IUC0KRnFvr
p158
sg70
(lp159
I41
aI64
asg93
Vhttp://www.upmyprofile.com/blog/upmyprofile-key-to-success-on-instagram/
p160
sg95
Vupmyprofile.com/blog/upmyprofi\u2026
p161
sasg97
(lp162
(dp163
g93
Vhttp://twitter.com/upmyprofile/status/661887305637040128/photo/1
p164
sg95
Vpic.twitter.com/rVyFGnn2NL
p165
sg90
Vhttps://t.co/rVyFGnn2NL
p166
sg106
Vhttps://pbs.twimg.com/media/CS9-_xUWwAEYS2E.jpg
p167
sg47
V661887304282324993
p168
sg112
(dp169
g114
(dp170
g116
I340
sg117
Vfit
p171
sg119
I340
ssg120
(dp172
g116
I500
sg117
Vfit
p173
sg119
I500
ssg123
(dp174
g116
I500
sg117
Vfit
p175
sg119
I500
ssg126
(dp176
g116
I150
sg117
Vcrop
p177
sg119
I150
sssg70
(lp178
I116
aI139
asg130
Vphoto
p179
sg35
L661887304282324993L
sg132
Vhttp://pbs.twimg.com/media/CS9-_xUWwAEYS2E.jpg
p180
sassg134
Nsg47
V661887305637040128
p181
sg136
I106
sg137
Nsg138
I00
sVgeo
p182
NsVin_reply_to_user_id_str
p183
NsVpossibly_sensitive
p184
I00
sVlang
p185
Ven
p186
sVcreated_at
p187
VWed Nov 04 12:46:45 +0000 2015
p188
sVin_reply_to_status_id_str
p189
NsVplace
p190
Nssg182
Nsg183
Nsg184
I00
sg185
Ven
p191
sg187
VWed Nov 04 13:16:57 +0000 2015
p192
sg189
Nsg190
NssVis_translation_enabled
p193
I00
sVutc_offset
p194
NsVstatuses_count
p195
I2370
sg23
V
p196
sVfriends_count
p197
I399
sVlocation
p198
g196
sVprofile_link_color
p199
V0084B4
p200
sVprofile_image_url
p201
Vhttp://pbs.twimg.com/profile_images/491868546561867776/yl_wAOIu_normal.jpeg
p202
sVfollowing
p203
NsVgeo_enabled
p204
I00
sVprofile_background_image_url
p205
Vhttp://abs.twimg.com/images/themes/theme1/bg.png
p206
sg73
Vosinov_b806
p207
sg185
Vru
p208
sVprofile_background_tile
p209
I00
sVfavourites_count
p210
I907
sg75
Vbailey osinov
p211
sVnotifications
p212
Nsg90
Nsg187
VWed Jul 23 08:52:48 +0000 2014
p213
sVcontributors_enabled
p214
I00
sVtime_zone
p215
NsVprotected
p216
I00
sVdefault_profile
p217
I01
sVis_translator
p218
I00
ssS'contributors_enabled'
p219
I00
sS'profile_text_color'
p220
g40
sS'followers_count'
p221
I11
sS'profile_sidebar_border_color'
p222
g46
sS'id_str'
p223
g48
sS'default_profile_image'
p224
I00
sS'listed_count'
p225
I4
sS'status'
p226
g8
(ctweepy.models
Status
p227
g10
Ntp228
Rp229
(dp230
S'favorited'
p231
I00
sS'contributors'
p232
NsS'truncated'
p233
I00
sS'text'
p234
VRT @upmyprofile: UpMyProfile, Key to Success on Instagram\u000ahttps://t.co/IUC0KRnFvr\u000a#InstagramNews #UpMyProfile #buyrealinstagramlikes https:\u2026
p235
sS'source_url'
p236
Vhttp://twitter.com
p237
sS'possibly_sensitive'
p238
I00
sS'in_reply_to_status_id'
p239
NsS'geo'
p240
Nsg19
L661894906139549696L
sS'favorite_count'
p241
I0
sS'lang'
p242
g191
sS'retweeted_status'
p243
g8
(g227
g10
Ntp244
Rp245
(dp246
g231
I00
sg232
Nsg233
I00
sg234
VUpMyProfile, Key to Success on Instagram\u000ahttps://t.co/IUC0KRnFvr\u000a#InstagramNews #UpMyProfile #buyrealinstagramlikes https://t.co/rVyFGnn2NL
p247
sg236
Vhttp://twitter.com
p248
sg238
I00
sg239
Nsg240
Nsg19
L661887305637040128L
sg241
I101
sg242
g186
sg21
g143
sS'created_at'
p249
cdatetime
datetime
p250
(S'\x07\xdf\x0b\x04\x0c.-\x00\x00\x00'
p251
tp252
Rp253
sg29
g140
sS'coordinates'
p254
NsS'in_reply_to_user_id_str'
p255
NsS'source'
p256
VTwitter Web Client
p257
sS'in_reply_to_status_id_str'
p258
NsS'in_reply_to_screen_name'
p259
Nsg223
g181
sS'retweeted'
p260
I00
sS'place'
p261
NsS'retweet_count'
p262
I106
sS'in_reply_to_user_id'
p263
Nsbsg21
g64
sg249
g250
(S'\x07\xdf\x0b\x04\r\x109\x00\x00\x00'
p264
tp265
Rp266
sg29
g53
sg254
Nsg255
Nsg256
VTwitter Web Client
p267
sg258
Nsg259
Nsg223
g135
sg260
I00
sg261
Nsg262
I106
sg263
NsbsS'is_translation_enabled'
p268
I00
sS'utc_offset'
p269
NsS'statuses_count'
p270
I2370
sS'description'
p271
g196
sS'friends_count'
p272
I399
sS'location'
p273
g196
sS'profile_link_color'
p274
g200
sS'profile_image_url'
p275
g202
sS'notifications'
p276
NsS'geo_enabled'
p277
I00
sS'profile_background_color'
p278
g50
sS'profile_background_image_url'
p279
g206
sS'screen_name'
p280
g207
sg242
g208
sg1
I00
sS'profile_background_tile'
p281
I00
sS'favourites_count'
p282
I907
sS'name'
p283
g211
sS'url'
p284
Nsg249
g250
(S'\x07\xde\x07\x17\x0840\x00\x00\x00'
p285
tp286
Rp287
sS'profile_background_image_url_https'
p288
g37
sS'time_zone'
p289
NsS'protected'
p290
I00
sS'default_profile'
p291
I01
sS'is_translator'
p292
I00
sbs.