(dp0
S'following'
p1
(lp2
(lp3
I1900025114
aI1885128386
aL3366047921L
aL3374756020L
aI193590927
aL2610464621L
aI367105503
aL3195244375L
aI189937269
aI594930584
aI342251338
aI15332302
aI2869531
aI136450598
aL3434102393L
aI567591046
aI16270432
aI33104659
aI633238141
aL2649955104L
aI25410160
aI1671674965
aI1118691
aI14526023
aL2521160826L
aL2626671050L
aI306023626
aI404763125
aL2525906341L
aL2364268663L
aL2298462277L
aI538548959
aL2471879203L
aI1627763208
aI21793923
aL2952673006L
aL2621611160L
aI573356661
aI741898266
aI68304632
aI281289020
aI23698291
aL3111141768L
aL2151247592L
aI908808302
aI1964084738
aI1581227546
aL2852710163L
aL2960231085L
aI472600930
aL2393135197L
aI1324138890
aL2177224099L
aI308996196
aL2702304586L
aI591784190
aI1665653426
aI1537728620
aI245702697
aI170143933
aL2367829524L
aI232120274
aL2184130699L
aI548747112
aI31186367
aI1648225694
aI104485726
aI33216611
aI14761656
aI1470028879
aI410374467
aI34939208
aI182806913
aI107016937
aI1370029363
aI587352593
aI387578938
aI108416566
aI552480400
aI475775089
aI17275194
aI951417726
aI1180084963
aI931859610
aI66126209
aI12182152
aI425959447
aI266171014
aI18301946
aI337999162
aI22984610
aI820534716
aI1563601933
aI896402858
aI1891089511
aI19292731
aI1971496015
aI122828450
aI392036106
aI913571004
aI261534254
aI138157120
aI367237250
aI20119344
aI247861990
aI267418268
aI532240590
aI21090600
aI595835824
aI50053190
aI702585281
aI97086408
aI565411133
aI562337760
aI562071621
aI110203902
aI510871334
aI250245427
aI120209971
aI172885731
aasS'followers'
p4
(lp5
(lp6
I1360916118
aL3937548333L
aI362469496
aI51038526
aL3244962598L
aI193590927
aI102326846
aI342251338
aI713512562
aI56623782
aI49325145
aI1180084963
aI550150853
aI944264750
aI637225691
aI170276074
aL2726345108L
aL2649955104L
aI238252349
aI180496148
aI44540101
aI1272124782
aL2952673006L
aI50784685
aL2489714732L
aL3470432840L
aL3564085395L
aI1451881896
aL2370902010L
aL3426575115L
aI45702033
aL3377997593L
aI1276523425
aI184769470
aL2393135197L
aI715966656
aI1701797185
aI1683654618
aI1550865056
aI586767925
aI782030712
aL2779038646L
aI376233044
aL2792924349L
aI565411133
aL2616916908L
aI1635318044
aI56410495
aL2423827507L
aI292474725
aI1665653426
aI17824295
aI547929042
aL2874337821L
aI1101391634
aI1639896948
aL2194490539L
aL2285373020L
aI229982112
aI480002469
aL2861581991L
aI110203902
aI394785783
aI931859610
aI1015995660
aI157613995
aI245702697
aI148373
aI170143933
aI1694311884
aI548747112
aI20428698
aI477852796
aL2771340415L
aI1965155760
aI745386888
aL2215511147L
aL2182845483L
aI488414769
aI1323055938
aL2434031640L
aI145128083
aL2160702289L
aL2731335471L
aI1617130244
aI1008467874
aI1427188734
aI838409509
aI562337760
aI591784190
aI1397961727
aI243432797
aI75748034
aL2358621787L
aL2680064737L
aL2335870220L
aI990132763
aL2539012105L
aL2635415654L
aL2574662599L
aL2417128296L
aI385978534
aI29762417
aL2154736986L
aI283668954
aI10443492
aI14761656
aI20119344
aI562071621
aI951417726
aI1370029363
aI107016937
aI66126209
aI1721475066
aasS'obj'
p7
ccopy_reg
_reconstructor
p8
(ctweepy.models
User
p9
c__builtin__
object
p10
Ntp11
Rp12
(dp13
S'follow_request_sent'
p14
I00
sS'has_extended_profile'
p15
I00
sS'profile_use_background_image'
p16
I01
sS'profile_sidebar_fill_color'
p17
VDDEEF6
p18
sS'id'
p19
L2675016158L
sS'verified'
p20
I00
sS'entities'
p21
(dp22
Vurl
p23
(dp24
Vurls
p25
(lp26
(dp27
g23
Vhttp://t.co/A3NbBC202o
p28
sVindices
p29
(lp30
I0
aI22
asVexpanded_url
p31
Vhttp://seekingalpha.com/user/13529982/profile
p32
sVdisplay_url
p33
Vseekingalpha.com/user/13529982/\u2026
p34
sassVdescription
p35
(dp36
g25
(lp37
sssS'profile_image_url_https'
p38
Vhttps://pbs.twimg.com/profile_images/492174047250092032/nLngAKqa_normal.jpeg
p39
sS'_json'
p40
(dp41
Vfollow_request_sent
p42
I00
sVhas_extended_profile
p43
I00
sVprofile_use_background_image
p44
I01
sVdefault_profile_image
p45
I00
sVid
p46
L2675016158L
sVprofile_background_image_url_https
p47
Vhttps://abs.twimg.com/images/themes/theme1/bg.png
p48
sVverified
p49
I00
sVprofile_text_color
p50
V333333
p51
sVprofile_image_url_https
p52
g39
sVprofile_sidebar_fill_color
p53
g18
sVentities
p54
g22
sVfollowers_count
p55
I114
sVprofile_sidebar_border_color
p56
VC0DEED
p57
sVid_str
p58
V2675016158
p59
sVprofile_background_color
p60
VC0DEED
p61
sVlisted_count
p62
I3
sVstatus
p63
(dp64
Vlang
p65
Ven
p66
sVfavorited
p67
I00
sg54
(dp68
Vsymbols
p69
(lp70
sVuser_mentions
p71
(lp72
(dp73
g46
I342251338
sg29
(lp74
I0
aI9
asg58
V342251338
p75
sVscreen_name
p76
VSkeleCap
p77
sVname
p78
VSkeletor Capital
p79
sasVhashtags
p80
(lp81
sg25
(lp82
ssVcontributors
p83
NsVtruncated
p84
I00
sVtext
p85
V@SkeleCap That's what I thought. I'll be looking forward to getting boat loads of LVNTA from below $40. That'd be fair. Right, market?
p86
sVcreated_at
p87
VThu Nov 12 12:38:01 +0000 2015
p88
sVretweeted
p89
I00
sVin_reply_to_status_id_str
p90
V664783440345174016
p91
sVcoordinates
p92
NsVin_reply_to_user_id_str
p93
V342251338
p94
sVsource
p95
V<a href="http://twitter.com" rel="nofollow">Twitter Web Client</a>
p96
sVin_reply_to_status_id
p97
L664783440345174016L
sVin_reply_to_screen_name
p98
VSkeleCap
p99
sg58
V664784209886728192
p100
sVplace
p101
NsVretweet_count
p102
I0
sVgeo
p103
Nsg46
L664784209886728192L
sVfavorite_count
p104
I0
sVin_reply_to_user_id
p105
I342251338
ssVis_translation_enabled
p106
I00
sVutc_offset
p107
I7200
sVstatuses_count
p108
I179
sg35
VLearning about businesses and valuations every day. If you know of an analyst/controller position, reach me here or email 60northinvestments@gmail.com
p109
sVfriends_count
p110
I120
sVlocation
p111
VHelsinki, Finland
p112
sVprofile_link_color
p113
V48BDE8
p114
sVprofile_image_url
p115
Vhttp://pbs.twimg.com/profile_images/492174047250092032/nLngAKqa_normal.jpeg
p116
sVfollowing
p117
I00
sVgeo_enabled
p118
I00
sVprofile_banner_url
p119
Vhttps://pbs.twimg.com/profile_banners/2675016158/1444908315
p120
sVprofile_background_image_url
p121
Vhttp://abs.twimg.com/images/themes/theme1/bg.png
p122
sg76
V60NorthInv
p123
sg65
Ven
p124
sVprofile_background_tile
p125
I00
sVfavourites_count
p126
I1
sg78
V60North Investments
p127
sVnotifications
p128
I00
sg23
Vhttp://t.co/A3NbBC202o
p129
sg87
VWed Jul 23 20:11:45 +0000 2014
p130
sVcontributors_enabled
p131
I00
sVtime_zone
p132
VHelsinki
p133
sVprotected
p134
I00
sVdefault_profile
p135
I00
sVis_translator
p136
I00
ssS'contributors_enabled'
p137
I00
sS'profile_text_color'
p138
g51
sS'followers_count'
p139
I114
sS'profile_sidebar_border_color'
p140
g57
sS'id_str'
p141
g59
sS'default_profile_image'
p142
I00
sS'listed_count'
p143
I3
sS'status'
p144
g8
(ctweepy.models
Status
p145
g10
Ntp146
Rp147
(dp148
S'favorited'
p149
I00
sS'contributors'
p150
NsS'truncated'
p151
I00
sS'text'
p152
g86
sS'source_url'
p153
Vhttp://twitter.com
p154
sS'in_reply_to_status_id'
p155
L664783440345174016L
sS'geo'
p156
Nsg19
L664784209886728192L
sS'favorite_count'
p157
I0
sS'lang'
p158
g66
sg21
g68
sS'created_at'
p159
cdatetime
datetime
p160
(S'\x07\xdf\x0b\x0c\x0c&\x01\x00\x00\x00'
p161
tp162
Rp163
sg40
g64
sS'coordinates'
p164
NsS'in_reply_to_user_id_str'
p165
g94
sS'source'
p166
VTwitter Web Client
p167
sS'in_reply_to_status_id_str'
p168
g91
sS'in_reply_to_screen_name'
p169
g99
sg141
g100
sS'retweeted'
p170
I00
sS'place'
p171
NsS'retweet_count'
p172
I0
sS'in_reply_to_user_id'
p173
I342251338
sbsS'is_translation_enabled'
p174
I00
sS'utc_offset'
p175
I7200
sS'statuses_count'
p176
I179
sS'description'
p177
g109
sS'friends_count'
p178
I120
sS'location'
p179
g112
sS'profile_link_color'
p180
g114
sS'profile_image_url'
p181
g116
sS'notifications'
p182
I00
sS'geo_enabled'
p183
I00
sS'profile_background_color'
p184
g61
sS'profile_banner_url'
p185
g120
sS'profile_background_image_url'
p186
g122
sS'screen_name'
p187
g123
sg158
g124
sg1
I00
sS'profile_background_tile'
p188
I00
sS'favourites_count'
p189
I1
sS'name'
p190
g127
sS'url'
p191
g129
sg159
g160
(S'\x07\xde\x07\x17\x14\x0b-\x00\x00\x00'
p192
tp193
Rp194
sS'profile_background_image_url_https'
p195
g48
sS'time_zone'
p196
g133
sS'protected'
p197
I00
sS'default_profile'
p198
I00
sS'is_translator'
p199
I00
sbs.