(dp0
S'following'
p1
(lp2
(lp3
I285738285
aI17105436
aL2850345055L
aL3304051157L
aL3157470617L
aL2984941067L
aL3127490255L
aI1152105936
aI820031509
aI1524309085
aI1041050238
aI1363221768
aL2964287876L
aL2992367496L
aL2225550241L
aL2341281566L
aI22411342
aI16941360
aI203652149
aI36041084
aI302545862
aI19143910
aI14165212
aI65681636
aI7836182
aI63512129
aI15079601
aI375980238
aI475524030
aI430841130
aI43111757
aI183279521
aI262144590
aI62562916
aI31546412
aI775319148
aI15896903
aI448461258
aI114782468
aL2353511190L
aI60113926
aI612135517
aI517392967
aI40909981
aI21669980
aL2462874699L
aI182642157
aI14173032
aI22088714
aI148272213
aI15485461
aI1869471378
aI49753604
aI108021761
aI26775476
aI37469211
aI55561590
aI34837057
aI163648850
aI209907837
aI254207829
aI65466158
aI23116875
aI258028535
aI27869848
aI40099128
aI19111917
aI72907355
aI17549691
aI16451485
aI400090211
aI52166809
aI122511616
aI246444102
aI37284991
aI144274618
aI1087194962
aI55354528
aI22522178
aI24227424
aI14096763
aI18856867
aI18378349
aI19739279
aI97334517
aI455824771
aI21232827
aI61342056
aI250758475
aI566061253
aI152700224
aI302122428
aI174887592
aI574829891
aI719260982
aI329838136
aI160625399
aL2518428508L
aI396927453
aI17093617
aasS'followers'
p4
(lp5
(lp6
L4129818237L
aL3399878710L
aI551940798
aI134565157
aI551844887
aI1337085834
aL4164924443L
aI127291257
aI1924312855
aL2360518555L
aI122151362
aL3249124776L
aL4040644397L
aL4147237933L
aL2315906174L
aI31442448
aI78854855
aI48486244
aL2576692186L
aL2850285097L
aL2557652040L
aL4120054337L
aL3156992972L
aI981236256
aI107842799
aL3400714323L
aI314039795
aI1924310023
aI26683168
aL4009460555L
aI390004304
aL2445061755L
aL3485492116L
aI536457858
aI15784451
aI135627855
aL3304653057L
aL3744197833L
aI581388367
aI27293335
aI233258651
aI1583359764
aI396999574
aL3729098141L
aL3268484708L
aI147723094
aI17218831
aI761771534
aI529298807
aI250317700
aI799224602
aI489022370
aI18640010
aI1587261793
aL2296842170L
aL2314289604L
aL4050216651L
aI1587490159
aI1870143224
aL3395170581L
aI198869640
aI1667214625
aL2180870413L
aL2936374685L
aL3855109574L
aL3070805257L
aI87049143
aI96555347
aI547736909
aI1861916791
aL2528598018L
aL2817966517L
aI72111052
aL2796763596L
aL2878820378L
aL3376730111L
aI196296812
aL3310770208L
aL2815979137L
aI320851976
aL3818334072L
aI45167319
aL3719945475L
aL3367936079L
aI253934972
aL3111837451L
aL3043999187L
aL3670023748L
aL3459498135L
aI543927894
aL3084277426L
aI267200534
aL3309232460L
aI613055715
aL3396435934L
aL3315136334L
aL3432575476L
aI86611666
aI1066618189
aL3221782987L
aL3105901015L
aL3255228304L
aI93040876
aI50194468
aL2800136617L
aI291845885
aL3413513643L
aL3234051685L
aI1180725673
aL2606436941L
aI279020836
aL2186937014L
aI405831845
aI35359528
aI583953432
aI33015404
aI133122951
aI881608580
aI13724562
aI1032276320
aI531983863
aI475480971
aI92085423
aI742935218
aI597517321
aL2884271597L
aI287942012
aL2644826761L
aI205148824
aL3301819572L
aL3299871217L
aI399439376
aI117751489
aI51797043
aI34578922
aI22826544
aL3051206104L
aI598306418
aI118345637
aL3237921639L
aI1403751019
aI20653505
aI365078513
aI374222920
aI80119761
aL3341702583L
aI117805023
aL2751257820L
aI64332627
aI42824207
aI2358531
aI470921608
aL2484316340L
aI130631210
aL3323728491L
aL3000236684L
aL2927243066L
aI1845191160
aI173450286
aI219767920
aI1437349118
aI165285550
aL2879846237L
aL2727098454L
aL2472872221L
aI37411102
aL3341003817L
aL2844298061L
aI285362838
aI175857285
aI741532704
aL3185728742L
aL3162911248L
aI406188384
aI490876049
aL2495951688L
aL2737831537L
aL2828612633L
aI33292567
aI258834156
aL2951888973L
aI133970935
aL3246719608L
aI391053970
aL3241975875L
aL2853453374L
aI492248877
aI895798982
aI1522200092
aL2686353036L
aI277258420
aL2996204000L
aI143288342
aL3171983570L
aL2845681750L
aI1109799180
aI34844235
aI300304430
aI44780090
aL2571145477L
aI1923536689
aL3119150283L
aL2590325786L
aI213119979
aL3098789859L
aL3208667673L
aI18992010
aL2321187901L
aI328522638
aL2885083769L
aI121786481
aL2355661518L
aL2342848920L
aL2414513168L
aI19025460
aI1044543002
aI349858877
aL2459660026L
aL3022797786L
aI104611058
aI1389493454
aL2867931987L
aL3012561618L
aL2885664948L
aL2495723221L
aI354006245
aI1871058674
aI1674428220
aI23359324
aI1426458769
aL2446601970L
aI69801298
aL2936724450L
aI303531344
aI37020617
aI272681969
aI1884907934
aI90758418
aI44890514
aI235188954
aL2986162709L
aI30674450
aI420385951
aI1489850455
aL3129950481L
aI1203823675
aI718212656
aI1662568597
aI622669824
aI22411342
aL3107802260L
aI208198514
aI120304348
aL2909543830L
aI768864698
aI1370841169
aI127712835
aI145480090
aI465034145
aL2440290961L
aI79449711
aI196335298
aL2241697287L
aI272499767
aL3060255993L
aL2890701232L
aL2904263065L
aI192676787
aI13471032
aL3019279975L
aI231577343
aI512812657
aI47247213
aI165642094
aL2852102916L
aI217159658
aI27772589
aI23564390
aI376405252
aI1260431083
aI202170932
aI231650317
aI1670557368
aI90570138
aL2355110670L
aI23200477
aL2209373576L
aI555517911
aI300338214
aL3031394369L
aI335432423
aL2419651428L
aI41400945
aI24801537
aI17529929
aI13730542
aI45488282
aI1670698730
aL3034658619L
aI126731503
aI956382744
aI43111757
aL2956444112L
aI119434519
aI713689280
aL3040470717L
aL3030856798L
aI103342452
aI737038729
aL3025822739L
aI29748138
aI1260128077
aL2549025908L
aI159648293
aI453331412
aL2488828777L
aI159209423
aI467947673
aL2785328266L
aI1546577725
aI1019032993
aL2800874294L
aI1935969883
aL2944073299L
aL2760837594L
aI509332745
aI555286055
aI46145437
aI335019921
aL3011757178L
aI1050059462
aI1251827257
aI759459846
aI1897439036
aL2715041826L
aL2373273025L
aI180975419
aI329240646
aI223298563
aI13954832
aI260959063
aI245294597
aI396927453
aI1110435644
aL2908633725L
aI449479596
aI565165635
aL2982148246L
aI492447655
aI245225812
aI1702482906
aI42778575
aL2932157110L
aI36089353
aL2893011991L
aL2912585938L
aI22348856
aL2866550146L
aL2548532478L
aI51226805
aI229869642
aI16829767
aI247788883
aL2894183136L
aI237183000
aL2833149947L
aL2424012739L
aI1291901557
aI36293963
aI1904689014
aI849473683
aI16744839
aL2400337061L
aI1109656447
aI287133968
aI1371020640
aL2858108300L
aI15555683
aI207108328
aL2820150157L
aI1950242234
aI122640060
aI896320820
aI149722419
aI1179487964
aL2853955970L
aI314281991
aI47602066
aL2788246319L
aI23390520
aI178130011
aI27827126
aI246583699
aI190910455
aL2354352613L
aI1510539757
aL2423299274L
aL2796286826L
aI61495738
aI392294261
aI16023435
aI219212754
aI336324228
aI76855210
aL2717153246L
aI711444113
aI128369982
aI17093617
aasS'obj'
p7
ccopy_reg
_reconstructor
p8
(ctweepy.models
User
p9
c__builtin__
object
p10
Ntp11
Rp12
(dp13
S'follow_request_sent'
p14
NsS'has_extended_profile'
p15
I00
sS'profile_use_background_image'
p16
I01
sS'profile_sidebar_fill_color'
p17
VDDEEF6
p18
sS'id'
p19
L2683803193L
sS'verified'
p20
I00
sS'entities'
p21
(dp22
Vurl
p23
(dp24
Vurls
p25
(lp26
(dp27
g23
Vhttp://t.co/TkVoSXCWAo
p28
sVindices
p29
(lp30
I0
aI22
asVexpanded_url
p31
Vhttp://StocksEarning.com
p32
sVdisplay_url
p33
VStocksEarning.com
p34
sassVdescription
p35
(dp36
g25
(lp37
sssS'profile_image_url_https'
p38
Vhttps://pbs.twimg.com/profile_images/493963538138804226/wKa0JIgx_normal.jpeg
p39
sS'_json'
p40
(dp41
Vfollow_request_sent
p42
NsVhas_extended_profile
p43
I00
sVprofile_use_background_image
p44
I01
sVdefault_profile_image
p45
I00
sVid
p46
L2683803193L
sVprofile_background_image_url_https
p47
Vhttps://abs.twimg.com/images/themes/theme1/bg.png
p48
sVverified
p49
I00
sVprofile_text_color
p50
V333333
p51
sVprofile_image_url_https
p52
g39
sVprofile_sidebar_fill_color
p53
g18
sVentities
p54
g22
sVfollowers_count
p55
I408
sVprofile_sidebar_border_color
p56
VC0DEED
p57
sVid_str
p58
V2683803193
p59
sVprofile_background_color
p60
VC0DEED
p61
sVlisted_count
p62
I29
sVstatus
p63
(dp64
Vcontributors
p65
NsVtruncated
p66
I00
sVtext
p67
V$SNN Reported Earnings on 10/29 Before Open. Since then, stock has dropped 7%. Check it out. https://t.co/vuq579Vpfl
p68
sVin_reply_to_status_id
p69
Nsg46
L665952883117043712L
sVfavorite_count
p70
I0
sVsource
p71
V<a href="http://www.hootsuite.com" rel="nofollow">Hootsuite</a>
p72
sVretweeted
p73
I00
sVcoordinates
p74
Nsg54
(dp75
Vsymbols
p76
(lp77
(dp78
g29
(lp79
I0
aI4
asg67
VSNN
p80
sasVuser_mentions
p81
(lp82
sVhashtags
p83
(lp84
sg25
(lp85
(dp86
g23
Vhttps://t.co/vuq579Vpfl
p87
sg29
(lp88
I93
aI116
asg31
Vhttp://ow.ly/UEmfJ
p89
sg33
Vow.ly/UEmfJ
p90
sassVin_reply_to_screen_name
p91
Nsg58
V665952883117043712
p92
sVretweet_count
p93
I0
sVin_reply_to_user_id
p94
NsVfavorited
p95
I00
sVgeo
p96
NsVin_reply_to_user_id_str
p97
NsVpossibly_sensitive
p98
I00
sVlang
p99
Ven
p100
sVcreated_at
p101
VSun Nov 15 18:01:54 +0000 2015
p102
sVin_reply_to_status_id_str
p103
NsVplace
p104
NssVis_translation_enabled
p105
I00
sVutc_offset
p106
NsVstatuses_count
p107
I39677
sg35
VFinancial services website dedicated to provide the research on Stocks Earnings by using our proprietary indicators. Do your own research. Tweets not advice.
p108
sVfriends_count
p109
I100
sVlocation
p110
VNew York, NY
p111
sVprofile_link_color
p112
V0084B4
p113
sVprofile_image_url
p114
Vhttp://pbs.twimg.com/profile_images/493963538138804226/wKa0JIgx_normal.jpeg
p115
sVfollowing
p116
NsVgeo_enabled
p117
I00
sVprofile_background_image_url
p118
Vhttp://abs.twimg.com/images/themes/theme1/bg.png
p119
sVscreen_name
p120
VStocksEarnings
p121
sg99
Ven
p122
sVprofile_background_tile
p123
I00
sVfavourites_count
p124
I6
sVname
p125
VStockEarnings.com
p126
sVnotifications
p127
Nsg23
Vhttp://t.co/TkVoSXCWAo
p128
sg101
VSun Jul 27 01:23:04 +0000 2014
p129
sVcontributors_enabled
p130
I00
sVtime_zone
p131
NsVprotected
p132
I00
sVdefault_profile
p133
I01
sVis_translator
p134
I00
ssS'contributors_enabled'
p135
I00
sS'profile_text_color'
p136
g51
sS'followers_count'
p137
I408
sS'profile_sidebar_border_color'
p138
g57
sS'id_str'
p139
g59
sS'default_profile_image'
p140
I00
sS'listed_count'
p141
I29
sS'status'
p142
g8
(ctweepy.models
Status
p143
g10
Ntp144
Rp145
(dp146
S'favorited'
p147
I00
sS'contributors'
p148
NsS'truncated'
p149
I00
sS'text'
p150
g68
sS'source_url'
p151
Vhttp://www.hootsuite.com
p152
sS'possibly_sensitive'
p153
I00
sS'in_reply_to_status_id'
p154
NsS'geo'
p155
Nsg19
L665952883117043712L
sS'favorite_count'
p156
I0
sS'lang'
p157
g100
sg21
g75
sS'created_at'
p158
cdatetime
datetime
p159
(S'\x07\xdf\x0b\x0f\x12\x016\x00\x00\x00'
p160
tp161
Rp162
sg40
g64
sS'coordinates'
p163
NsS'in_reply_to_user_id_str'
p164
NsS'source'
p165
VHootsuite
p166
sS'in_reply_to_status_id_str'
p167
NsS'in_reply_to_screen_name'
p168
Nsg139
g92
sS'retweeted'
p169
I00
sS'place'
p170
NsS'retweet_count'
p171
I0
sS'in_reply_to_user_id'
p172
NsbsS'is_translation_enabled'
p173
I00
sS'utc_offset'
p174
NsS'statuses_count'
p175
I39677
sS'description'
p176
g108
sS'friends_count'
p177
I100
sS'location'
p178
g111
sS'profile_link_color'
p179
g113
sS'profile_image_url'
p180
g115
sS'notifications'
p181
NsS'geo_enabled'
p182
I00
sS'profile_background_color'
p183
g61
sS'profile_background_image_url'
p184
g119
sS'screen_name'
p185
g121
sg157
g122
sg1
I00
sS'profile_background_tile'
p186
I00
sS'favourites_count'
p187
I6
sS'name'
p188
g126
sS'url'
p189
g128
sg158
g159
(S'\x07\xde\x07\x1b\x01\x17\x04\x00\x00\x00'
p190
tp191
Rp192
sS'profile_background_image_url_https'
p193
g48
sS'time_zone'
p194
NsS'protected'
p195
I00
sS'default_profile'
p196
I01
sS'is_translator'
p197
I00
sbs.