(dp0
S'following'
p1
(lp2
(lp3
I61875147
aI1088943625
aI15296897
aI16228398
aI799122090
aI36992781
aI6267922
aI430841130
aI31251832
aI84444981
aI38466491
aI15897179
aI404422077
aI106498703
aI16732770
aI1469603575
aI14216123
aI16184358
aL2447439734L
aL2334614718L
aI394642779
aI41109872
aI14293310
aI1367531
aI1652541
aI428333
aI16451932
aI20402945
aI17266725
aasS'followers'
p4
(lp5
(lp6
L3404492081L
aI53210455
aL3402625613L
aL4199427492L
aL2434329860L
aI238422999
aI250317700
aI421977419
aL3118807684L
aI23010028
aL3903074072L
aL3892874087L
aI35382747
aL3655590374L
aI1071644526
aL3605767153L
aL3232152461L
aL2481341197L
aI43400955
aL3516193573L
aI20231781
aI1154552390
aI738894097
aL3432624133L
aL3246827016L
aL3214535748L
aL3334961952L
aI121158587
aL3435930131L
aL3433721314L
aI37490024
aL3421134911L
aI1587847332
aL2680619310L
aI66901802
aL3397761880L
aI38429011
aI1206743924
aI542462454
aI19860115
aL3365060817L
aL3362398193L
aL3270171936L
aL2755113268L
aI47363695
aI236885096
aI1010327162
aL3342937665L
aL3342236435L
aI1278584654
aI90594531
aI42160603
aI86892787
aL3241558920L
aL2156019624L
aI15878956
aL2398732692L
aI39008962
aI27206460
aI34722959
aI444023903
aL2884914856L
aL3158069998L
aL3194138747L
aL2922234899L
aL3193667641L
aI18348776
aL3087181862L
aI138047457
aL2956873995L
aI1565900623
aI226959037
aI33840126
aI53654464
aL2194498958L
aI1435631024
aI1088943625
aI229933985
aI45573140
aI68942580
aI91321449
aL2895932581L
aL3234691906L
aL3182908428L
aI170461101
aL3007359618L
aL3213706577L
aL3177500696L
aI1396453302
aI822632192
aL3012561618L
aL3199780906L
aL2294183432L
aL2784676345L
aL3010673854L
aI1950061284
aI25205923
aI30235239
aI54638389
aI1394445210
aI1529917477
aI84456176
aL2452017042L
aI16008653
aL2545209289L
aI156101659
aL3140530422L
aI557061523
aI6267922
aI381729047
aI528894562
aI1962117006
aL2867629644L
aL2997788563L
aI1350536779
aI138059007
aI20246258
aI26036898
aI232068982
aI20732508
aI390478624
aL2546285381L
aL3013846006L
aI26333635
aL2936668420L
aL3053275999L
aL3052098613L
aI448689268
aI1000858687
aI1281496315
aL3000946259L
aL3034876879L
aL2322031675L
aL2395105374L
aL3039852429L
aL3004005305L
aI436711703
aI1967929759
aI132037862
aL2645489240L
aI20585514
aI52857046
aI18141980
aI1908985560
aI881682295
aL2426889916L
aL2961171227L
aI1556511792
aL2586028970L
aI92835843
aI14423956
aL2975213788L
aI612124707
aI50081937
aI259093015
aL2838025403L
aL2965790153L
aI36960342
aL2957242204L
aI15163254
aL2951543763L
aI1895699809
aI556425831
aI397269069
aI92779569
aI258153377
aL2161453590L
aL2343757398L
aI503580630
aI298207251
aL2920527927L
aL2908054720L
aL2927194910L
aL2435680560L
aI1959800358
aL2904098999L
aI493804255
aI601052301
aL2913107503L
aI417286915
aI38330581
aL2810819291L
aL2670638066L
aL2688869070L
aI224416319
aI29380089
aL2873238112L
aI1608442351
aI634336110
aI350575233
aI479821197
aI33695365
aL2889592429L
aI62226476
aI1492463035
aI388164245
aI820848655
aI1399467079
aL2268921914L
aL2186581735L
aL2809724280L
aI532795411
aI70304039
aI771477990
aL2214133202L
aI145349557
aI816047029
aI119931900
aI490563957
aL2557950056L
aI71562692
aI375231852
aI43122661
aI84444981
aI18045745
aI260791653
aI15904172
aI89630715
aI1499271708
aL2201402059L
aI1202485776
aL2341918375L
aI80867791
aL2825325380L
aI458156356
aI53862640
aI1244393550
aL2733375558L
aI559634960
aL2330639293L
aI15897179
aI152988703
aI248947399
aI29429828
aI38466491
aI709430142
aI30726583
aL2592555325L
aI125386971
aL2315022612L
aI632296843
aI582155447
aI89194276
aI67400684
aI1898500370
aI16975907
aI16578227
aI48418920
aI71065633
aI394642779
aI41109872
aL2433524338L
aL2495398338L
aasS'obj'
p7
ccopy_reg
_reconstructor
p8
(ctweepy.models
User
p9
c__builtin__
object
p10
Ntp11
Rp12
(dp13
S'follow_request_sent'
p14
I00
sS'has_extended_profile'
p15
I00
sS'profile_use_background_image'
p16
I01
sS'profile_sidebar_fill_color'
p17
VDDEEF6
p18
sS'id'
p19
L2701436990L
sS'verified'
p20
I00
sS'entities'
p21
(dp22
Vurl
p23
(dp24
Vurls
p25
(lp26
(dp27
g23
Vhttp://t.co/hmoD0jbJOU
p28
sVindices
p29
(lp30
I0
aI22
asVexpanded_url
p31
Vhttp://tomwillardtrading.com
p32
sVdisplay_url
p33
Vtomwillardtrading.com
p34
sassVdescription
p35
(dp36
g25
(lp37
sssS'profile_image_url_https'
p38
Vhttps://pbs.twimg.com/profile_images/495637857864654848/tErrsbjz_normal.jpeg
p39
sS'_json'
p40
(dp41
Vfollow_request_sent
p42
I00
sVhas_extended_profile
p43
I00
sVprofile_use_background_image
p44
I01
sVdefault_profile_image
p45
I00
sVid
p46
L2701436990L
sVprofile_background_image_url_https
p47
Vhttps://abs.twimg.com/images/themes/theme1/bg.png
p48
sVverified
p49
I00
sVprofile_text_color
p50
V333333
p51
sVprofile_image_url_https
p52
g39
sVprofile_sidebar_fill_color
p53
g18
sVentities
p54
g22
sVfollowers_count
p55
I253
sVprofile_sidebar_border_color
p56
VC0DEED
p57
sVid_str
p58
V2701436990
p59
sVprofile_background_color
p60
VC0DEED
p61
sVlisted_count
p62
I14
sVstatus
p63
(dp64
Vlang
p65
Ven
p66
sVfavorited
p67
I00
sg54
(dp68
Vsymbols
p69
(lp70
(dp71
g29
(lp72
I0
aI5
asVtext
p73
VNFLX
p74
sasVuser_mentions
p75
(lp76
sVhashtags
p77
(lp78
sg25
(lp79
ssVcontributors
p80
NsVtruncated
p81
I00
sg73
V$NFLX on a tear
p82
sVcreated_at
p83
VMon Nov 16 14:36:00 +0000 2015
p84
sVretweeted
p85
I00
sVin_reply_to_status_id_str
p86
NsVcoordinates
p87
NsVin_reply_to_user_id_str
p88
NsVsource
p89
V<a href="http://twitter.com" rel="nofollow">Twitter Web Client</a>
p90
sVin_reply_to_status_id
p91
NsVin_reply_to_screen_name
p92
Nsg58
V666263454584434688
p93
sVplace
p94
NsVretweet_count
p95
I0
sVgeo
p96
Nsg46
L666263454584434688L
sVfavorite_count
p97
I0
sVin_reply_to_user_id
p98
NssVis_translation_enabled
p99
I00
sVutc_offset
p100
I-25200
sVstatuses_count
p101
I2204
sg35
VDay Trader. Investor. Educator. Author. Peak Performance Psychology Coach. Life Success, Fulfillment and Happiness through a Useful Mental Approach.
p102
sVfriends_count
p103
I29
sVlocation
p104
VDenver, CO
p105
sVprofile_link_color
p106
V0084B4
p107
sVprofile_image_url
p108
Vhttp://pbs.twimg.com/profile_images/495637857864654848/tErrsbjz_normal.jpeg
p109
sVfollowing
p110
I00
sVgeo_enabled
p111
I00
sVprofile_background_image_url
p112
Vhttp://abs.twimg.com/images/themes/theme1/bg.png
p113
sVscreen_name
p114
VTomWillardTrdg
p115
sg65
Ven
p116
sVprofile_background_tile
p117
I00
sVfavourites_count
p118
I130
sVname
p119
VTom Willard
p120
sVnotifications
p121
I00
sg23
Vhttp://t.co/hmoD0jbJOU
p122
sg83
VSat Aug 02 18:23:47 +0000 2014
p123
sVcontributors_enabled
p124
I00
sVtime_zone
p125
VMountain Time (US & Canada)
p126
sVprotected
p127
I00
sVdefault_profile
p128
I01
sVis_translator
p129
I00
ssS'contributors_enabled'
p130
I00
sS'profile_text_color'
p131
g51
sS'followers_count'
p132
I253
sS'profile_sidebar_border_color'
p133
g57
sS'id_str'
p134
g59
sS'default_profile_image'
p135
I00
sS'listed_count'
p136
I14
sS'status'
p137
g8
(ctweepy.models
Status
p138
g10
Ntp139
Rp140
(dp141
S'favorited'
p142
I00
sS'contributors'
p143
NsS'truncated'
p144
I00
sS'text'
p145
g82
sS'source_url'
p146
Vhttp://twitter.com
p147
sS'in_reply_to_status_id'
p148
NsS'geo'
p149
Nsg19
L666263454584434688L
sS'favorite_count'
p150
I0
sS'lang'
p151
g66
sg21
g68
sS'created_at'
p152
cdatetime
datetime
p153
(S'\x07\xdf\x0b\x10\x0e$\x00\x00\x00\x00'
p154
tp155
Rp156
sg40
g64
sS'coordinates'
p157
NsS'in_reply_to_user_id_str'
p158
NsS'source'
p159
VTwitter Web Client
p160
sS'in_reply_to_status_id_str'
p161
NsS'in_reply_to_screen_name'
p162
Nsg134
g93
sS'retweeted'
p163
I00
sS'place'
p164
NsS'retweet_count'
p165
I0
sS'in_reply_to_user_id'
p166
NsbsS'is_translation_enabled'
p167
I00
sS'utc_offset'
p168
I-25200
sS'statuses_count'
p169
I2204
sS'description'
p170
g102
sS'friends_count'
p171
I29
sS'location'
p172
g105
sS'profile_link_color'
p173
g107
sS'profile_image_url'
p174
g109
sS'notifications'
p175
I00
sS'geo_enabled'
p176
I00
sS'profile_background_color'
p177
g61
sS'profile_background_image_url'
p178
g113
sS'screen_name'
p179
g115
sg151
g116
sg1
I00
sS'profile_background_tile'
p180
I00
sS'favourites_count'
p181
I130
sS'name'
p182
g120
sS'url'
p183
g122
sg152
g153
(S'\x07\xde\x08\x02\x12\x17/\x00\x00\x00'
p184
tp185
Rp186
sS'profile_background_image_url_https'
p187
g48
sS'time_zone'
p188
g126
sS'protected'
p189
I00
sS'default_profile'
p190
I01
sS'is_translator'
p191
I00
sbs.