(dp0
S'following'
p1
(lp2
(lp3
I67066114
aL4118566829L
aL3988900785L
aL3059458588L
aI22779605
aL3869836396L
aL3194238245L
aI22007731
aI87254077
aI442650179
aL3351106684L
aI118000554
aI18332190
aL3172783762L
aL2668753783L
aI1205718840
aI91998974
aI239486127
aI101712079
aL2412708432L
aI753850129
aI220426702
aI42501345
aI76351820
aI363532354
aI109064129
aI130778462
aI417992966
aI302110032
aI248940090
aI255557335
aI131378368
aI34941915
aI18294197
aI459091687
aI26759915
aI14442905
aI594030927
aI18249451
aI36761844
aI541995460
aL2528104688L
aI319029312
aI146513211
aI136288132
aI13649002
aI83909115
aI228845995
aI125331311
aI22490881
aI317147446
aL2435194891L
aI14700117
aL2809950477L
aI993056893
aI1201167972
aI513067737
aI60886384
aI136004952
aL2815756866L
aI128216887
aI25984418
aI523460275
aI28436760
aI1483935336
aI511577820
aI104621118
aI617258499
aI329600057
aI19657120
aI853551463
aI588507814
aI357492014
aI102706695
aI43901312
aI32450040
aI707381101
aI15563814
aI47678782
aI84347917
aI873399943
aI18021517
aI236421633
aI632111815
aI52537669
aL2384944496L
aI1260044826
aI368711188
aI55513153
aI102754598
aI243228907
aI845083159
aI97630788
aI54238179
aL2728972605L
aI843790794
aI1001726569
aI28215001
aasS'followers'
p4
(lp5
(lp6
L2589324798L
aI981236256
aL4118566829L
aL4001537181L
aI923930287
aI112620034
aL3224570597L
aI485071067
aL3428583053L
aL3194238245L
aL3869836396L
aL3092131109L
aI1856504228
aL3059458588L
aI50273588
aI409557471
aL3425549992L
aI624990213
aI777666992
aL3398100929L
aL3247066368L
aL3362016513L
aI417992966
aI87254077
aI442650179
aL3333987039L
aL3351106684L
aI236320949
aL2360227482L
aL3328031201L
aI485926503
aL2875821352L
aL3246320081L
aL2668753783L
aL3312065387L
aI1205718840
aI1104811490
aI438704271
aI414767091
aI41365130
aI25850803
aI248066068
aI118000554
aL3233973685L
aI1160171252
aI275277359
aI749207130
aI585976281
aI408759579
aI462465091
aI295595519
aI145608811
aL3304961441L
aL2684257742L
aI217528333
aL3304807156L
aI1702648586
aI163756339
aL2739980851L
aL3183287583L
aL3304442253L
aI1360254930
aI92078661
aI21433310
aI609276423
aI1187465287
aL2412708432L
aI1933688382
aI1861419626
aI896909406
aL3177506795L
aL3083696464L
aL3012561618L
aI25188157
aL3176019226L
aL2818928961L
aL3186792111L
aL2703329278L
aL2924725601L
aI289296301
aL3123542998L
aL2310446033L
aL3138266038L
aI537056764
aI303103056
aL3131676778L
aI482979928
aL2562476652L
aL3138090769L
aL3131711752L
aI735638184
aI271947229
aI338199768
aL2693210293L
aL3034622243L
aI198851318
aI260955156
aI95507393
aL3051843181L
aI463785547
aI349007816
aL2172521993L
aL2891796003L
aI541995460
aL3004214811L
aI19458958
aI17733415
aL3012628847L
aL3004115775L
aI810969654
aL2622355471L
aL2364111008L
aI302704001
aL2971158094L
aL2466897899L
aI249752986
aI57041595
aI317147446
aI57092533
aI415829543
aL2792739075L
aI36761844
aI459091687
aL2513624568L
aL2692557781L
aI77504355
aI449307443
aL2831886950L
aI362095423
aL2848536610L
aL2596723476L
aL2755711007L
aI28354649
aL2595794753L
aI318662407
aI616601088
aI15457568
aI529290523
aI202794893
aI323921956
aL2435194891L
aI537935776
aL2815409439L
aI196536375
aI291877196
aL2869449091L
aL2686528726L
aL2809950477L
aI29732871
aI1201167972
aI133053765
aI20604811
aL2809679235L
aI513067737
aL2227303720L
aL2789370939L
aI90485878
aI604310437
aI550398868
aL2343556634L
aL2741103136L
aL2646277263L
aL2774603589L
aL2814912049L
aI597466070
aL2481255127L
aI117356810
aI1344467106
aL2772131613L
aL2215619418L
aL2416916859L
aI877280323
aI288501460
aI270332586
aI12161622
aI416488065
aI262093040
aI570111263
aI1483935336
aL2556430081L
aI145781595
aI18193111
aL2465237597L
aL2750739587L
aI21387628
aI21209190
aI303092424
aI557940912
aI205262290
aI216098557
aI1178878207
aI87663001
aL2766103196L
aI428913725
aI591682728
aI211631057
aL2750014992L
aL2403098379L
aI78968862
aL2749302590L
aI102706695
aI104621118
aI1100888064
aI357492014
aI400553088
aI83881902
aI707381101
aL2337582459L
aL2730017232L
aL2741916735L
aL2741947487L
aI69232173
aL2396574314L
aI12150042
aI157381154
aI301886019
aI2485821
aI140067152
aI965033460
aI36511622
aI735425023
aI383628339
aI239048382
aI946602312
aL2609659686L
aL2741175448L
aI723805759
aL2727072109L
aI28215001
aI1387253791
aI350154779
aI54238179
aL2728972605L
aI417333609
aI216105371
aasS'obj'
p7
ccopy_reg
_reconstructor
p8
(ctweepy.models
User
p9
c__builtin__
object
p10
Ntp11
Rp12
(dp13
S'follow_request_sent'
p14
I00
sS'has_extended_profile'
p15
I00
sS'profile_use_background_image'
p16
I01
sS'profile_sidebar_fill_color'
p17
VDDEEF6
p18
sS'id'
p19
L2728939522L
sS'verified'
p20
I00
sS'entities'
p21
(dp22
Vurl
p23
(dp24
Vurls
p25
(lp26
(dp27
g23
Vhttp://t.co/MbzdX8C1OC
p28
sVindices
p29
(lp30
I0
aI22
asVexpanded_url
p31
Vhttp://www.scancell.co.uk
p32
sVdisplay_url
p33
Vscancell.co.uk
p34
sassVdescription
p35
(dp36
g25
(lp37
sssS'profile_image_url_https'
p38
Vhttps://pbs.twimg.com/profile_images/494487876714135552/8aGVIcBe_normal.jpeg
p39
sS'_json'
p40
(dp41
Vfollow_request_sent
p42
I00
sVhas_extended_profile
p43
I00
sVprofile_use_background_image
p44
I01
sVdefault_profile_image
p45
I00
sVid
p46
L2728939522L
sVprofile_background_image_url_https
p47
Vhttps://abs.twimg.com/images/themes/theme1/bg.png
p48
sVverified
p49
I00
sVprofile_text_color
p50
V333333
p51
sVprofile_image_url_https
p52
g39
sVprofile_sidebar_fill_color
p53
g18
sVentities
p54
g22
sVfollowers_count
p55
I235
sVprofile_sidebar_border_color
p56
VC0DEED
p57
sVid_str
p58
V2728939522
p59
sVprofile_background_color
p60
VC0DEED
p61
sVlisted_count
p62
I8
sVstatus
p63
(dp64
Vcontributors
p65
NsVtruncated
p66
I00
sVtext
p67
VRT @fsgimt: The new issue of #immunotherapy is now online! Access the full issue here: https://t.co/221O2BoO9f
p68
sVin_reply_to_status_id
p69
Nsg46
L666576429212172292L
sVfavorite_count
p70
I0
sVsource
p71
V<a href="http://twitter.com" rel="nofollow">Twitter Web Client</a>
p72
sVretweeted
p73
I00
sVcoordinates
p74
Nsg54
(dp75
Vsymbols
p76
(lp77
sVuser_mentions
p78
(lp79
(dp80
g46
L2668753783L
sg29
(lp81
I3
aI10
asg58
V2668753783
p82
sVscreen_name
p83
Vfsgimt
p84
sVname
p85
VImmunotherapy Jnl
p86
sasVhashtags
p87
(lp88
(dp89
g29
(lp90
I29
aI43
asg67
Vimmunotherapy
p91
sasg25
(lp92
(dp93
g23
Vhttps://t.co/221O2BoO9f
p94
sg29
(lp95
I87
aI110
asg31
Vhttp://bit.ly/1S0VBpO
p96
sg33
Vbit.ly/1S0VBpO
p97
sassVin_reply_to_screen_name
p98
Nsg58
V666576429212172292
p99
sVretweet_count
p100
I1
sVin_reply_to_user_id
p101
NsVfavorited
p102
I00
sVretweeted_status
p103
(dp104
g65
Nsg66
I00
sg67
VThe new issue of #immunotherapy is now online! Access the full issue here: https://t.co/221O2BoO9f
p105
sg69
Nsg46
L666570181850898432L
sg70
I0
sg71
V<a href="http://twitter.com" rel="nofollow">Twitter Web Client</a>
p106
sg73
I00
sg74
Nsg54
(dp107
g76
(lp108
sg78
(lp109
sg87
(lp110
(dp111
g29
(lp112
I17
aI31
asg67
Vimmunotherapy
p113
sasg25
(lp114
(dp115
g23
Vhttps://t.co/221O2BoO9f
p116
sg29
(lp117
I75
aI98
asg31
Vhttp://bit.ly/1S0VBpO
p118
sg33
Vbit.ly/1S0VBpO
p119
sassg98
Nsg58
V666570181850898432
p120
sg100
I1
sg101
Nsg102
I00
sVgeo
p121
NsVin_reply_to_user_id_str
p122
NsVpossibly_sensitive
p123
I00
sVlang
p124
Ven
p125
sVcreated_at
p126
VTue Nov 17 10:54:50 +0000 2015
p127
sVin_reply_to_status_id_str
p128
NsVplace
p129
Nssg121
Nsg122
Nsg123
I00
sg124
Ven
p130
sg126
VTue Nov 17 11:19:39 +0000 2015
p131
sg128
Nsg129
NssVis_translation_enabled
p132
I00
sVutc_offset
p133
NsVstatuses_count
p134
I262
sg35
VCEO of Scancell Holdings plc
p135
sVfriends_count
p136
I98
sVlocation
p137
V
p138
sVprofile_link_color
p139
V0084B4
p140
sVprofile_image_url
p141
Vhttp://pbs.twimg.com/profile_images/494487876714135552/8aGVIcBe_normal.jpeg
p142
sVfollowing
p143
I00
sVgeo_enabled
p144
I00
sVprofile_banner_url
p145
Vhttps://pbs.twimg.com/profile_banners/2728939522/1406730567
p146
sVprofile_background_image_url
p147
Vhttp://abs.twimg.com/images/themes/theme1/bg.png
p148
sg83
Vrmgoodfellow
p149
sg124
Ven
p150
sVprofile_background_tile
p151
I00
sVfavourites_count
p152
I18
sg85
VRichard Goodfellow
p153
sVnotifications
p154
I00
sg23
Vhttp://t.co/MbzdX8C1OC
p155
sg126
VWed Jul 30 10:24:42 +0000 2014
p156
sVcontributors_enabled
p157
I00
sVtime_zone
p158
NsVprotected
p159
I00
sVdefault_profile
p160
I01
sVis_translator
p161
I00
ssS'contributors_enabled'
p162
I00
sS'profile_text_color'
p163
g51
sS'followers_count'
p164
I235
sS'profile_sidebar_border_color'
p165
g57
sS'id_str'
p166
g59
sS'default_profile_image'
p167
I00
sS'listed_count'
p168
I8
sS'status'
p169
g8
(ctweepy.models
Status
p170
g10
Ntp171
Rp172
(dp173
S'favorited'
p174
I00
sS'contributors'
p175
NsS'truncated'
p176
I00
sS'text'
p177
g68
sS'source_url'
p178
Vhttp://twitter.com
p179
sS'possibly_sensitive'
p180
I00
sS'in_reply_to_status_id'
p181
NsS'geo'
p182
Nsg19
L666576429212172292L
sS'favorite_count'
p183
I0
sS'lang'
p184
g130
sS'retweeted_status'
p185
g8
(g170
g10
Ntp186
Rp187
(dp188
g174
I00
sg175
Nsg176
I00
sg177
g105
sg178
Vhttp://twitter.com
p189
sg180
I00
sg181
Nsg182
Nsg19
L666570181850898432L
sg183
I0
sg184
g125
sg21
g107
sS'created_at'
p190
cdatetime
datetime
p191
(S'\x07\xdf\x0b\x11\n62\x00\x00\x00'
p192
tp193
Rp194
sg40
g104
sS'coordinates'
p195
NsS'in_reply_to_user_id_str'
p196
NsS'source'
p197
VTwitter Web Client
p198
sS'in_reply_to_status_id_str'
p199
NsS'in_reply_to_screen_name'
p200
Nsg166
g120
sS'retweeted'
p201
I00
sS'place'
p202
NsS'retweet_count'
p203
I1
sS'in_reply_to_user_id'
p204
Nsbsg21
g75
sg190
g191
(S"\x07\xdf\x0b\x11\x0b\x13'\x00\x00\x00"
p205
tp206
Rp207
sg40
g64
sg195
Nsg196
Nsg197
VTwitter Web Client
p208
sg199
Nsg200
Nsg166
g99
sg201
I00
sg202
Nsg203
I1
sg204
NsbsS'is_translation_enabled'
p209
I00
sS'utc_offset'
p210
NsS'statuses_count'
p211
I262
sS'description'
p212
g135
sS'friends_count'
p213
I98
sS'location'
p214
g138
sS'profile_link_color'
p215
g140
sS'profile_image_url'
p216
g142
sS'notifications'
p217
I00
sS'geo_enabled'
p218
I00
sS'profile_background_color'
p219
g61
sS'profile_banner_url'
p220
g146
sS'profile_background_image_url'
p221
g148
sS'screen_name'
p222
g149
sg184
g150
sg1
I00
sS'profile_background_tile'
p223
I00
sS'favourites_count'
p224
I18
sS'name'
p225
g153
sS'url'
p226
g155
sg190
g191
(S'\x07\xde\x07\x1e\n\x18*\x00\x00\x00'
p227
tp228
Rp229
sS'profile_background_image_url_https'
p230
g48
sS'time_zone'
p231
NsS'protected'
p232
I00
sS'default_profile'
p233
I01
sS'is_translator'
p234
I00
sbs.