(dp0
S'following'
p1
(lp2
(lp3
L2987476872L
aI21158274
aI15846407
aI17348525
aasS'followers'
p4
(lp5
(lp6
L4239327374L
aI269083892
aI44297755
aI33648627
aI111937991
aL2444104684L
aL4147237933L
aL4175944874L
aI264234663
aL3404039290L
aL2452180884L
aL2306835946L
aL3627968296L
aI1067716489
aI48288049
aI1583359764
aL2675160769L
aL3131171895L
aI18618386
aI33374304
aI34684511
aL2883020982L
aL3364904379L
aI463365948
aL3108417284L
aI1074265044
aL3487921454L
aL3732886635L
aL2683677198L
aL2972555345L
aI36894359
aL2869315401L
aI1329180174
aL3347807848L
aL2664130614L
aL2713451719L
aI293239334
aI109088599
aL2605924003L
aI1286540352
aL3245643506L
aI785003724
aI1845191160
aI971129101
aL2472016988L
aL3185412102L
aI1531007624
aI395304712
aL3060828751L
aL3124195515L
aI41080718
aL3198054315L
aI175857285
aL2782668507L
aL3192255331L
aI1583233392
aI770904320
aL2995888255L
aI492248877
aL3239992227L
aL3186864901L
aI981236256
aL2964287876L
aI66912940
aL2165676145L
aI17219455
aL2275230932L
aL2412839299L
aI428754886
aI283338118
aI527018393
aL2383559084L
aI221497409
aL3113884874L
aL2997788563L
aI49757561
aI1444614408
aL3065083689L
aL3073478049L
aL2460540073L
aI170814162
aI1086931304
aI1099805934
aL2948879195L
aI44405690
aI874419354
aI1226087942
aI324532793
aI1123514138
aI1267606950
aL2695899913L
aI611817117
aL2960969662L
aI19148898
aL2690326619L
aI62226476
aI1972631497
aL2904098999L
aI24150300
aI738235310
aL2855140102L
aI478061208
aL2456636836L
aL2417993377L
aL2869479915L
aL2221945214L
aL2612970013L
aI1346043120
aI93313164
aI179597259
aL2453911254L
aL2743137300L
aL2743114116L
aL2743136922L
aL2743143380L
aL2743167895L
aL2743109910L
aL2743134974L
aL2743106922L
aL2743162627L
aL2743086552L
aL2743115024L
aL2743089474L
aL2743072656L
aL2743112923L
aL2743047342L
aL2743031130L
aL2743087777L
aL2743043984L
aL2743018022L
aL2743042009L
aL2742987066L
aL2742982134L
aL2742978252L
aL2742979248L
aL2743033159L
aL2742972642L
aL2742970674L
aL2742944184L
aL2742958118L
aL2742924786L
aL2742949856L
aL2742935635L
aL2742898196L
aL2742899906L
aL2742926689L
aL2742831534L
aL2742886981L
aL2742851744L
aL2742878947L
aL2742855097L
aL2742802152L
aL2742820712L
aL2742860161L
aL2742786378L
aL2742784974L
aL2742809588L
aL2742835699L
aL2742832501L
aL2742777978L
aL2742763866L
aL2742747132L
aL2742811591L
aL2742747990L
aL2742741312L
aL2742798379L
aL2742754694L
aL2742751454L
aL2742725916L
aL2742747337L
aL2742705182L
aL2742730897L
aL2742667008L
aL2742665724L
aL2742722569L
aL2742720553L
aL2742654984L
aL2742674432L
aL2742673304L
aL2742673358L
aL2742696253L
aL2742666746L
aL2742664736L
aL2742696853L
aL2742683287L
aL2742631704L
aL2742685693L
aL2742686299L
aL2742651146L
aL2742625874L
aL2742637988L
aL2742669973L
aL2742646249L
aL2742618170L
aL2742614510L
aL2742646765L
aL2742643303L
aL2742582096L
aL2742614150L
aL2742637231L
aL2742637519L
aL2742637765L
aL2742571902L
aL2742604214L
aL2742599714L
aL2742571440L
aL2742613567L
aL2742626113L
aL2742584474L
aL2742565572L
aL2742572390L
aL2742568796L
aL2742557504L
aL2742525894L
aL2742524064L
aL2742521274L
aL2742569959L
aL2742510600L
aL2742543788L
aL2742505242L
aL2742557719L
aL2742499446L
aL2742501474L
aL2742552721L
aL2742519746L
aL2742518618L
aL2742546823L
aL2742488760L
aL2742546643L
aL2742515720L
aL2742510050L
aL2742534469L
aL2742529027L
aL2742497048L
aL2742525763L
aL2742480656L
aL2742450822L
aL2742506443L
aL2742508165L
aL2742449280L
aL2742506623L
aL2742443964L
aL2742447624L
aL2742470318L
aL2742499927L
aL2742468926L
aL2742500347L
aL2742444912L
aL2742495979L
aL2742456086L
aL2742472867L
aL2742472849L
aL2742441830L
aL2742469975L
aL2742416478L
aL2742442292L
aL2742442412L
aL2742443096L
aL2742469093L
aL2742413622L
aL2742413196L
aL2742448321L
aL2742381264L
aL2742439729L
aL2742412484L
aasS'obj'
p7
ccopy_reg
_reconstructor
p8
(ctweepy.models
User
p9
c__builtin__
object
p10
Ntp11
Rp12
(dp13
S'follow_request_sent'
p14
I00
sS'has_extended_profile'
p15
I00
sS'profile_use_background_image'
p16
I01
sS'profile_sidebar_fill_color'
p17
VDDEEF6
p18
sS'id'
p19
L2751069308L
sS'verified'
p20
I00
sS'entities'
p21
(dp22
Vdescription
p23
(dp24
Vurls
p25
(lp26
sssS'profile_image_url_https'
p27
Vhttps://pbs.twimg.com/profile_images/503564272815730688/BG9aDK-d_normal.jpeg
p28
sS'_json'
p29
(dp30
Vfollow_request_sent
p31
I00
sVhas_extended_profile
p32
I00
sVprofile_use_background_image
p33
I01
sVdefault_profile_image
p34
I00
sVid
p35
L2751069308L
sVprofile_background_image_url_https
p36
Vhttps://abs.twimg.com/images/themes/theme1/bg.png
p37
sVverified
p38
I00
sVprofile_text_color
p39
V333333
p40
sVprofile_image_url_https
p41
g28
sVprofile_sidebar_fill_color
p42
g18
sVentities
p43
g22
sVfollowers_count
p44
I265
sVprofile_sidebar_border_color
p45
VC0DEED
p46
sVid_str
p47
V2751069308
p48
sVprofile_background_color
p49
VC0DEED
p50
sVlisted_count
p51
I8
sVstatus
p52
(dp53
Vcontributors
p54
NsVtruncated
p55
I00
sVtext
p56
VHighly consistent and profitable stock picks at https://t.co/fwYHfOEC00.  Free!!\u000a\u000aRelated: $HEMP $BBEP $SQNM $SAND $IMMU $LATX
p57
sVin_reply_to_status_id
p58
Nsg35
L666051474074521601L
sVfavorite_count
p59
I0
sVsource
p60
V<a href="http://twitter.com" rel="nofollow">Twitter Web Client</a>
p61
sVretweeted
p62
I00
sVcoordinates
p63
Nsg43
(dp64
Vsymbols
p65
(lp66
(dp67
Vindices
p68
(lp69
I91
aI96
asg56
VHEMP
p70
sa(dp71
g68
(lp72
I97
aI102
asg56
VBBEP
p73
sa(dp74
g68
(lp75
I103
aI108
asg56
VSQNM
p76
sa(dp77
g68
(lp78
I109
aI114
asg56
VSAND
p79
sa(dp80
g68
(lp81
I115
aI120
asg56
VIMMU
p82
sa(dp83
g68
(lp84
I121
aI126
asg56
VLATX
p85
sasVuser_mentions
p86
(lp87
sVhashtags
p88
(lp89
sg25
(lp90
(dp91
Vurl
p92
Vhttps://t.co/fwYHfOEC00
p93
sg68
(lp94
I48
aI71
asVexpanded_url
p95
Vhttp://PennyStockSuperstar.com/twitter
p96
sVdisplay_url
p97
VPennyStockSuperstar.com/twitter
p98
sassVin_reply_to_screen_name
p99
Nsg47
V666051474074521601
p100
sVretweet_count
p101
I0
sVin_reply_to_user_id
p102
NsVfavorited
p103
I00
sVgeo
p104
NsVin_reply_to_user_id_str
p105
NsVpossibly_sensitive
p106
I00
sVlang
p107
Ven
p108
sVcreated_at
p109
VMon Nov 16 00:33:40 +0000 2015
p110
sVin_reply_to_status_id_str
p111
NsVplace
p112
NssVis_translation_enabled
p113
I00
sVutc_offset
p114
NsVstatuses_count
p115
I9034
sg23
VSmall cap trader with big cap dreams.
p116
sVfriends_count
p117
I4
sVlocation
p118
V
p119
sVprofile_link_color
p120
V0084B4
p121
sVprofile_image_url
p122
Vhttp://pbs.twimg.com/profile_images/503564272815730688/BG9aDK-d_normal.jpeg
p123
sVfollowing
p124
I00
sVgeo_enabled
p125
I00
sVprofile_background_image_url
p126
Vhttp://abs.twimg.com/images/themes/theme1/bg.png
p127
sVscreen_name
p128
VMarkyMarkTrades
p129
sg107
Ven
p130
sVprofile_background_tile
p131
I00
sVfavourites_count
p132
I0
sVname
p133
VMark Trader
p134
sVnotifications
p135
I00
sg92
Nsg109
VThu Aug 21 02:27:57 +0000 2014
p136
sVcontributors_enabled
p137
I00
sVtime_zone
p138
NsVprotected
p139
I00
sVdefault_profile
p140
I01
sVis_translator
p141
I00
ssS'contributors_enabled'
p142
I00
sS'profile_text_color'
p143
g40
sS'followers_count'
p144
I265
sS'profile_sidebar_border_color'
p145
g46
sS'id_str'
p146
g48
sS'default_profile_image'
p147
I00
sS'listed_count'
p148
I8
sS'status'
p149
g8
(ctweepy.models
Status
p150
g10
Ntp151
Rp152
(dp153
S'favorited'
p154
I00
sS'contributors'
p155
NsS'truncated'
p156
I00
sS'text'
p157
VHighly consistent and profitable stock picks at https://t.co/fwYHfOEC00.  Free!!\u000a\u000aRelated: $HEMP $BBEP $SQNM $SAND $IMMU $LATX
p158
sS'source_url'
p159
Vhttp://twitter.com
p160
sS'possibly_sensitive'
p161
I00
sS'in_reply_to_status_id'
p162
NsS'geo'
p163
Nsg19
L666051474074521601L
sS'favorite_count'
p164
I0
sS'lang'
p165
g108
sg21
g64
sS'created_at'
p166
cdatetime
datetime
p167
(S'\x07\xdf\x0b\x10\x00!(\x00\x00\x00'
p168
tp169
Rp170
sg29
g53
sS'coordinates'
p171
NsS'in_reply_to_user_id_str'
p172
NsS'source'
p173
VTwitter Web Client
p174
sS'in_reply_to_status_id_str'
p175
NsS'in_reply_to_screen_name'
p176
Nsg146
g100
sS'retweeted'
p177
I00
sS'place'
p178
NsS'retweet_count'
p179
I0
sS'in_reply_to_user_id'
p180
NsbsS'is_translation_enabled'
p181
I00
sS'utc_offset'
p182
NsS'statuses_count'
p183
I9034
sS'description'
p184
g116
sS'friends_count'
p185
I4
sS'location'
p186
g119
sS'profile_link_color'
p187
g121
sS'profile_image_url'
p188
g123
sS'notifications'
p189
I00
sS'geo_enabled'
p190
I00
sS'profile_background_color'
p191
g50
sS'profile_background_image_url'
p192
g127
sS'screen_name'
p193
g129
sg165
g130
sg1
I00
sS'profile_background_tile'
p194
I00
sS'favourites_count'
p195
I0
sS'name'
p196
g134
sS'url'
p197
Nsg166
g167
(S'\x07\xde\x08\x15\x02\x1b9\x00\x00\x00'
p198
tp199
Rp200
sS'profile_background_image_url_https'
p201
g37
sS'time_zone'
p202
NsS'protected'
p203
I00
sS'default_profile'
p204
I01
sS'is_translator'
p205
I00
sbs.