(dp0
S'following'
p1
(lp2
(lp3
L2987476872L
aI372575989
aI1367531
aI15163466
aI14511951
aI7744592
aI3108351
aI612473
aI17918891
aI12133382
aI5392522
aI51241574
aI22685200
aI15164565
aI20109973
aI15012486
aI15675138
aI6017542
aI20608910
aI759251
aI20632528
aI18665800
aI14606079
aI807095
aI14293310
aI16129920
aI2467791
aI22587869
aI18764841
aI33514869
aI22411875
aI4970411
aI28785486
aI5988062
aI15224867
aI11518842
aI428333
aI14677919
aI2884771
aI21982720
aI69181624
aasS'followers'
p4
(lp5
(lp6
I186538014
aL2992414321L
aI1617897110
aI481738604
aL2282048738L
aI117103149
aI574166062
aI299239913
aL4147237933L
aI22929592
aI1583359764
aL2908441097L
aI120672388
aI33374304
aL2883020982L
aI223212967
aI987242611
aL3384430534L
aL3460239046L
aI580859145
aL2495245890L
aI403000724
aI1927015632
aL2972555345L
aL3487921454L
aL3434504926L
aI37529800
aL2910576817L
aL3191432871L
aI1845191160
aI192228063
aI1531007624
aL2470194937L
aL2900656715L
aI285362838
aI268048409
aL3036972383L
aI175857285
aI492248877
aL3116218064L
aI23079927
aI116967904
aI221497409
aI1482419522
aI76020041
aL3078230337L
aI1228116126
aI981236256
aI161368630
aL2338630416L
aL2462949077L
aI946533932
aI92643518
aL2241096895L
aI561736170
aL2945631777L
aL2576692186L
aI127855136
aL2444104684L
aI270887166
aI178615792
aL2948879195L
aI964641726
aI15080807
aL3044657531L
aI363344188
aI1286540352
aI276334529
aI995659656
aL2695899913L
aL2274706375L
aL2785328266L
aI62226476
aL2524217959L
aI185055283
aI487089304
aI418161734
aI69058258
aI569302303
aI503222076
aL2882485358L
aI1587490159
aI291845885
aI34578922
aI15897179
aI1345660531
aL2743143380L
aL2743137300L
aL2743114116L
aL2743136922L
aL2743167895L
aL2743134974L
aL2743106922L
aL2743109910L
aL2743162627L
aL2743089474L
aL2743115024L
aL2743086552L
aL2743072656L
aL2743112923L
aL2743047342L
aL2743087777L
aL2743031130L
aL2743043984L
aL2743018022L
aL2742987066L
aL2742982134L
aL2743042009L
aL2742978252L
aL2742979248L
aL2743033159L
aL2742972642L
aL2742970674L
aL2742944184L
aL2742958118L
aL2742924786L
aL2742949856L
aL2742935635L
aL2742898196L
aL2742899906L
aL2742926689L
aL2742831534L
aL2742886981L
aL2742851744L
aL2742878947L
aL2742860161L
aL2742820712L
aL2742855097L
aL2742802152L
aL2742784974L
aL2742786378L
aL2742809588L
aL2742835699L
aL2742832501L
aL2742777978L
aL2742763866L
aL2742811591L
aL2742747132L
aL2742747990L
aL2742741312L
aL2742798379L
aL2742754694L
aL2742751454L
aL2742725916L
aL2742747337L
aL2742705182L
aL2742730897L
aL2742667008L
aL2742722569L
aL2742665724L
aL2742720553L
aL2742654984L
aL2742674432L
aL2742673304L
aL2742673358L
aL2742696253L
aL2742696853L
aL2742666746L
aL2742664736L
aL2742686299L
aL2742683287L
aL2742631704L
aL2742685693L
aL2742651146L
aL2742637988L
aL2742625874L
aL2742646249L
aL2742669973L
aL2742618170L
aL2742643303L
aL2742614510L
aL2742582096L
aL2742646765L
aL2742614150L
aL2742637765L
aL2742637519L
aL2742604214L
aL2742637231L
aL2742571902L
aL2742571440L
aL2742599714L
aL2742626113L
aL2742613567L
aL2742584474L
aL2742565572L
aL2742572390L
aL2742568796L
aL2742524064L
aL2742557504L
aL2742525894L
aL2742521274L
aL2742569959L
aL2742510600L
aL2742543788L
aL2742505242L
aL2742501474L
aL2742499446L
aL2742557719L
aL2742552721L
aL2742519746L
aL2742518618L
aL2742546823L
aL2742488760L
aL2742546643L
aL2742515720L
aL2742510050L
aL2742534469L
aL2742497048L
aL2742529027L
aL2742525763L
aL2742480656L
aL2742450822L
aL2742508165L
aL2742506443L
aL2742449280L
aL2742447624L
aL2742443964L
aL2742506623L
aL2742499927L
aL2742470318L
aL2742468926L
aL2742444912L
aL2742500347L
aL2742495979L
aL2742456086L
aL2742472867L
aL2742472849L
aL2742443096L
aL2742442412L
aL2742469975L
aL2742413622L
aL2742416478L
aL2742469093L
aL2742441830L
aL2742442292L
aL2742413196L
aL2742448321L
aL2742439729L
aL2742412484L
aL2742381264L
aasS'obj'
p7
ccopy_reg
_reconstructor
p8
(ctweepy.models
User
p9
c__builtin__
object
p10
Ntp11
Rp12
(dp13
S'follow_request_sent'
p14
NsS'has_extended_profile'
p15
I00
sS'profile_use_background_image'
p16
I01
sS'profile_sidebar_fill_color'
p17
VDDEEF6
p18
sS'id'
p19
L2751024888L
sS'verified'
p20
I00
sS'entities'
p21
(dp22
Vdescription
p23
(dp24
Vurls
p25
(lp26
sssS'profile_image_url_https'
p27
Vhttps://pbs.twimg.com/profile_images/502278588385595392/S8FE8XJO_normal.jpeg
p28
sS'_json'
p29
(dp30
Vfollow_request_sent
p31
NsVhas_extended_profile
p32
I00
sVprofile_use_background_image
p33
I01
sVdefault_profile_image
p34
I00
sVid
p35
L2751024888L
sVprofile_background_image_url_https
p36
Vhttps://abs.twimg.com/images/themes/theme1/bg.png
p37
sVverified
p38
I00
sVprofile_text_color
p39
V333333
p40
sVprofile_image_url_https
p41
g28
sVprofile_sidebar_fill_color
p42
g18
sVentities
p43
g22
sVfollowers_count
p44
I240
sVprofile_sidebar_border_color
p45
VC0DEED
p46
sVid_str
p47
V2751024888
p48
sVprofile_background_color
p49
VC0DEED
p50
sVlisted_count
p51
I3
sVstatus
p52
(dp53
Vcontributors
p54
NsVtruncated
p55
I00
sVtext
p56
Vhttps://t.co/APzP66vnr4 IN PLAY: $GALE $CPE $MEMP $OXIS $PDLI $MUX $BVN $AMDA $HLX $LLBO $CABN $SGYP $HERO $ERF
p57
sVin_reply_to_status_id
p58
Nsg35
L666019501394149376L
sVfavorite_count
p59
I0
sVsource
p60
V<a href="http://twitter.com" rel="nofollow">Twitter Web Client</a>
p61
sVretweeted
p62
I00
sVcoordinates
p63
Nsg43
(dp64
Vsymbols
p65
(lp66
(dp67
Vindices
p68
(lp69
I33
aI38
asg56
VGALE
p70
sa(dp71
g68
(lp72
I39
aI43
asg56
VCPE
p73
sa(dp74
g68
(lp75
I44
aI49
asg56
VMEMP
p76
sa(dp77
g68
(lp78
I50
aI55
asg56
VOXIS
p79
sa(dp80
g68
(lp81
I56
aI61
asg56
VPDLI
p82
sa(dp83
g68
(lp84
I62
aI66
asg56
VMUX
p85
sa(dp86
g68
(lp87
I67
aI71
asg56
VBVN
p88
sa(dp89
g68
(lp90
I72
aI77
asg56
VAMDA
p91
sa(dp92
g68
(lp93
I78
aI82
asg56
VHLX
p94
sa(dp95
g68
(lp96
I83
aI88
asg56
VLLBO
p97
sa(dp98
g68
(lp99
I89
aI94
asg56
VCABN
p100
sa(dp101
g68
(lp102
I95
aI100
asg56
VSGYP
p103
sa(dp104
g68
(lp105
I101
aI106
asg56
VHERO
p106
sa(dp107
g68
(lp108
I107
aI111
asg56
VERF
p109
sasVuser_mentions
p110
(lp111
sVhashtags
p112
(lp113
sg25
(lp114
(dp115
Vurl
p116
Vhttps://t.co/APzP66vnr4
p117
sg68
(lp118
I0
aI23
asVexpanded_url
p119
Vhttp://PennyStockSuperstar.com
p120
sVdisplay_url
p121
VPennyStockSuperstar.com
p122
sassVin_reply_to_screen_name
p123
Nsg47
V666019501394149376
p124
sVretweet_count
p125
I0
sVin_reply_to_user_id
p126
NsVfavorited
p127
I00
sVgeo
p128
NsVin_reply_to_user_id_str
p129
NsVpossibly_sensitive
p130
I00
sVlang
p131
Vtl
p132
sVcreated_at
p133
VSun Nov 15 22:26:37 +0000 2015
p134
sVin_reply_to_status_id_str
p135
NsVplace
p136
NssVis_translation_enabled
p137
I00
sVutc_offset
p138
NsVstatuses_count
p139
I7275
sg23
VOTC trader and investor
p140
sVfriends_count
p141
I41
sVlocation
p142
VNew York
p143
sVprofile_link_color
p144
V0084B4
p145
sVprofile_image_url
p146
Vhttp://pbs.twimg.com/profile_images/502278588385595392/S8FE8XJO_normal.jpeg
p147
sVfollowing
p148
NsVgeo_enabled
p149
I00
sVprofile_background_image_url
p150
Vhttp://abs.twimg.com/images/themes/theme1/bg.png
p151
sVscreen_name
p152
VOTCtraderDave
p153
sg131
Ven
p154
sVprofile_background_tile
p155
I00
sVfavourites_count
p156
I0
sVname
p157
VGreg David
p158
sVnotifications
p159
Nsg116
Nsg133
VThu Aug 21 02:16:43 +0000 2014
p160
sVcontributors_enabled
p161
I00
sVtime_zone
p162
NsVprotected
p163
I00
sVdefault_profile
p164
I01
sVis_translator
p165
I00
ssS'contributors_enabled'
p166
I00
sS'profile_text_color'
p167
g40
sS'followers_count'
p168
I240
sS'profile_sidebar_border_color'
p169
g46
sS'id_str'
p170
g48
sS'default_profile_image'
p171
I00
sS'listed_count'
p172
I3
sS'status'
p173
g8
(ctweepy.models
Status
p174
g10
Ntp175
Rp176
(dp177
S'favorited'
p178
I00
sS'contributors'
p179
NsS'truncated'
p180
I00
sS'text'
p181
g57
sS'source_url'
p182
Vhttp://twitter.com
p183
sS'possibly_sensitive'
p184
I00
sS'in_reply_to_status_id'
p185
NsS'geo'
p186
Nsg19
L666019501394149376L
sS'favorite_count'
p187
I0
sS'lang'
p188
g132
sg21
g64
sS'created_at'
p189
cdatetime
datetime
p190
(S'\x07\xdf\x0b\x0f\x16\x1a%\x00\x00\x00'
p191
tp192
Rp193
sg29
g53
sS'coordinates'
p194
NsS'in_reply_to_user_id_str'
p195
NsS'source'
p196
VTwitter Web Client
p197
sS'in_reply_to_status_id_str'
p198
NsS'in_reply_to_screen_name'
p199
Nsg170
g124
sS'retweeted'
p200
I00
sS'place'
p201
NsS'retweet_count'
p202
I0
sS'in_reply_to_user_id'
p203
NsbsS'is_translation_enabled'
p204
I00
sS'utc_offset'
p205
NsS'statuses_count'
p206
I7275
sS'description'
p207
g140
sS'friends_count'
p208
I41
sS'location'
p209
g143
sS'profile_link_color'
p210
g145
sS'profile_image_url'
p211
g147
sS'notifications'
p212
NsS'geo_enabled'
p213
I00
sS'profile_background_color'
p214
g50
sS'profile_background_image_url'
p215
g151
sS'screen_name'
p216
g153
sg188
g154
sg1
I00
sS'profile_background_tile'
p217
I00
sS'favourites_count'
p218
I0
sS'name'
p219
g158
sS'url'
p220
Nsg189
g190
(S'\x07\xde\x08\x15\x02\x10+\x00\x00\x00'
p221
tp222
Rp223
sS'profile_background_image_url_https'
p224
g37
sS'time_zone'
p225
NsS'protected'
p226
I00
sS'default_profile'
p227
I01
sS'is_translator'
p228
I00
sbs.