(dp0
S'following'
p1
(lp2
(lp3
I323003569
aI16629560
aI33973843
aL3429949760L
aI297848618
aI215068830
aI22264891
aI253168011
aI29854129
aI207617302
aL3066075088L
aL2329070037L
aL2341281566L
aL2683803193L
aI72928001
aI15296897
aI52210566
aL2181281054L
aL2796938558L
aI61661638
aL2920258887L
aL2348716116L
aL2743641378L
aL2422703600L
aI259468875
aL2464284763L
aI301363956
aI150094848
aI166569708
aL2715894908L
aI147902687
aI1633729740
aI314247342
aI219434223
aI21232827
aI18378349
aL2447967798L
aL2694667118L
aI89491245
aI1241940475
aI15100767
aI75139209
aL2319600132L
aL2900363608L
aI432521961
aL2710561359L
aI24647967
aI18560146
aI212531237
aI19739279
aI302545862
aI97334517
aI24227424
aI545618159
aI82142636
aI622111302
aI23799829
aI14031032
aL2581019786L
aI82143051
aI16841829
aI202915788
aI38053161
aI367235898
aI18944615
aI476337209
aI87508671
aI26583295
aI23074277
aI346255213
aI229143589
aI517392967
aI246134345
aL3225702809L
aI18571616
aL2278983768L
aL2394624246L
aI341346597
aI1203866802
aI299752106
aL2590936533L
aI1496987209
aI1149751
aL2645498582L
aI246123259
aI29580146
aL2439520662L
aI1423559810
aI46156858
aI1044217464
aI37558621
aI38845166
aI110506924
aL2358026140L
aI359437507
aI33115930
aL2157291550L
aI7520262
aI250758475
aI49753604
aI110302086
aI22522178
aI93529573
aI1473431
aI1238963887
aI18856867
aI60113926
aI375980238
aI338330795
aI65466158
aI21271771
aI64657863
aI31001654
aI1484632920
aI15246621
aI97530284
aI1413027896
aI373598135
aI84365116
aI38476367
aI14297693
aI151326877
aI16831557
aI11247222
aI203652149
aI350189549
aL2395144284L
aI59363362
aL2697470294L
aI14367337
aI452566346
aL2800532344L
aI120146232
aL2805929238L
aI203631209
aI523646990
aI135581953
aI70350567
aI493988146
aI30610698
aI127967449
aI108865752
aI14104316
aI15130891
aL2196389422L
aI53215424
aI52166809
aI273984441
aI23221109
aI19651092
aI19988458
aI16359602
aI455824771
aI241453438
aI526065374
aI65681636
aI224466293
aI1869471378
aL2802272246L
aI79666388
aI394992814
aI24160816
aI77871144
aL2411597653L
aI1282327866
aL3031711907L
aL2495245111L
aI627882130
aL2411068242L
aI183178263
aI40379243
aI206734499
aI1418745782
aL2200708062L
aL2840335869L
aI43171999
aI1545981176
aL2912541034L
aI283811983
aL2945631777L
aI23097068
aI14886375
aI24150300
aI10165242
aI19560393
aI338091243
aasS'followers'
p4
(lp5
(lp6
L3983557158L
aI1569225756
aL2906862160L
aI100767876
aI1423559810
aL3812844499L
aI396999574
aL3869166083L
aI1879173900
aL2778128384L
aL3251139068L
aL3118003486L
aL2832647847L
aI1020054625
aL2764971561L
aI99147325
aL3280997700L
aL3734224828L
aL3636807435L
aI316625084
aI316628274
aI316600438
aI316602904
aL3648026484L
aL3727548975L
aL3544379172L
aL3521874373L
aL3066075088L
aL2754857585L
aL2534761215L
aI120146232
aL2841981775L
aL3298081650L
aL3296029874L
aI801581689
aL2581019786L
aL3337366373L
aI346255213
aI516447802
aI517392967
aL2394624246L
aI19833105
aI110506924
aI379685317
aL3216576130L
aI50524073
aL2411068242L
aI627882130
aL2805929238L
aI14104316
aI22411342
aL2802272246L
aI429585322
aI442035616
aL2881463909L
aI445070166
aI28001696
aL2841233056L
aL2200708062L
aL2840335869L
aI43171999
aI287885364
aL2416630842L
aL2945631777L
aI190052100
aI283811983
aI925476434
aI1681353590
aL2912541034L
aI1556882588
aL2786401907L
aasS'obj'
p7
ccopy_reg
_reconstructor
p8
(ctweepy.models
User
p9
c__builtin__
object
p10
Ntp11
Rp12
(dp13
S'follow_request_sent'
p14
NsS'has_extended_profile'
p15
I00
sS'profile_use_background_image'
p16
I01
sS'profile_sidebar_fill_color'
p17
VDDEEF6
p18
sS'id'
p19
L2751257820L
sS'verified'
p20
I00
sS'entities'
p21
(dp22
Vurl
p23
(dp24
Vurls
p25
(lp26
(dp27
g23
Vhttp://t.co/yYezan3Zjx
p28
sVindices
p29
(lp30
I0
aI22
asVexpanded_url
p31
Vhttp://www.triggeroftheday.com
p32
sVdisplay_url
p33
Vtriggeroftheday.com
p34
sassVdescription
p35
(dp36
g25
(lp37
sssS'profile_image_url_https'
p38
Vhttps://pbs.twimg.com/profile_images/622274483479416832/cwokIWkC_normal.png
p39
sS'_json'
p40
(dp41
Vfollow_request_sent
p42
NsVhas_extended_profile
p43
I00
sVprofile_use_background_image
p44
I01
sVdefault_profile_image
p45
I00
sVid
p46
L2751257820L
sVprofile_background_image_url_https
p47
Vhttps://abs.twimg.com/images/themes/theme1/bg.png
p48
sVverified
p49
I00
sVprofile_text_color
p50
V333333
p51
sVprofile_image_url_https
p52
g39
sVprofile_sidebar_fill_color
p53
g18
sVentities
p54
g22
sVfollowers_count
p55
I71
sVprofile_sidebar_border_color
p56
VC0DEED
p57
sVid_str
p58
V2751257820
p59
sVprofile_background_color
p60
VC0DEED
p61
sVlisted_count
p62
I0
sVstatus
p63
(dp64
Vcontributors
p65
NsVtruncated
p66
I00
sVtext
p67
V$CWST is our Long Trigger of the Day. Play our daily Android challenge https://t.co/oLtMN2jcW5
p68
sVin_reply_to_status_id
p69
Nsg46
L666022781612654596L
sVfavorite_count
p70
I0
sVsource
p71
V<a href="http://mobile.twitter.com" rel="nofollow">Mobile Web</a>
p72
sVretweeted
p73
I00
sVcoordinates
p74
Nsg54
(dp75
Vsymbols
p76
(lp77
(dp78
g29
(lp79
I0
aI5
asg67
VCWST
p80
sasVuser_mentions
p81
(lp82
sVhashtags
p83
(lp84
sg25
(lp85
(dp86
g23
Vhttps://t.co/oLtMN2jcW5
p87
sg29
(lp88
I71
aI94
asg31
Vhttps://goo.gl/iPCrNb
p89
sg33
Vgoo.gl/iPCrNb
p90
sassVin_reply_to_screen_name
p91
Nsg58
V666022781612654596
p92
sVretweet_count
p93
I0
sVin_reply_to_user_id
p94
NsVfavorited
p95
I00
sVgeo
p96
NsVin_reply_to_user_id_str
p97
NsVpossibly_sensitive
p98
I00
sVlang
p99
Ven
p100
sVcreated_at
p101
VSun Nov 15 22:39:39 +0000 2015
p102
sVin_reply_to_status_id_str
p103
NsVplace
p104
NssVis_translation_enabled
p105
I00
sVutc_offset
p106
NsVstatuses_count
p107
I437
sg35
VTechnical analysis of NASDAQ stocks and daily stock picks.
p108
sVfriends_count
p109
I186
sVlocation
p110
VNew York, NY
p111
sVprofile_link_color
p112
V0084B4
p113
sVprofile_image_url
p114
Vhttp://pbs.twimg.com/profile_images/622274483479416832/cwokIWkC_normal.png
p115
sVfollowing
p116
NsVgeo_enabled
p117
I00
sVprofile_banner_url
p118
Vhttps://pbs.twimg.com/profile_banners/2751257820/1437196797
p119
sVprofile_background_image_url
p120
Vhttp://abs.twimg.com/images/themes/theme1/bg.png
p121
sVscreen_name
p122
VTriggerOfTheDay
p123
sg99
Ven
p124
sVprofile_background_tile
p125
I00
sVfavourites_count
p126
I0
sVname
p127
VTriggerOfTheDay.com
p128
sVnotifications
p129
Nsg23
Vhttp://t.co/yYezan3Zjx
p130
sg101
VThu Aug 21 04:29:44 +0000 2014
p131
sVcontributors_enabled
p132
I00
sVtime_zone
p133
NsVprotected
p134
I00
sVdefault_profile
p135
I01
sVis_translator
p136
I00
ssS'contributors_enabled'
p137
I00
sS'profile_text_color'
p138
g51
sS'followers_count'
p139
I71
sS'profile_sidebar_border_color'
p140
g57
sS'id_str'
p141
g59
sS'default_profile_image'
p142
I00
sS'listed_count'
p143
I0
sS'status'
p144
g8
(ctweepy.models
Status
p145
g10
Ntp146
Rp147
(dp148
S'favorited'
p149
I00
sS'contributors'
p150
NsS'truncated'
p151
I00
sS'text'
p152
g68
sS'source_url'
p153
Vhttp://mobile.twitter.com
p154
sS'possibly_sensitive'
p155
I00
sS'in_reply_to_status_id'
p156
NsS'geo'
p157
Nsg19
L666022781612654596L
sS'favorite_count'
p158
I0
sS'lang'
p159
g100
sg21
g75
sS'created_at'
p160
cdatetime
datetime
p161
(S"\x07\xdf\x0b\x0f\x16''\x00\x00\x00"
p162
tp163
Rp164
sg40
g64
sS'coordinates'
p165
NsS'in_reply_to_user_id_str'
p166
NsS'source'
p167
VMobile Web
p168
sS'in_reply_to_status_id_str'
p169
NsS'in_reply_to_screen_name'
p170
Nsg141
g92
sS'retweeted'
p171
I00
sS'place'
p172
NsS'retweet_count'
p173
I0
sS'in_reply_to_user_id'
p174
NsbsS'is_translation_enabled'
p175
I00
sS'utc_offset'
p176
NsS'statuses_count'
p177
I437
sS'description'
p178
g108
sS'friends_count'
p179
I186
sS'location'
p180
g111
sS'profile_link_color'
p181
g113
sS'profile_image_url'
p182
g115
sS'notifications'
p183
NsS'geo_enabled'
p184
I00
sS'profile_background_color'
p185
g61
sS'profile_banner_url'
p186
g119
sS'profile_background_image_url'
p187
g121
sS'screen_name'
p188
g123
sg159
g124
sg1
I00
sS'profile_background_tile'
p189
I00
sS'favourites_count'
p190
I0
sS'name'
p191
g128
sS'url'
p192
g130
sg160
g161
(S'\x07\xde\x08\x15\x04\x1d,\x00\x00\x00'
p193
tp194
Rp195
sS'profile_background_image_url_https'
p196
g48
sS'time_zone'
p197
NsS'protected'
p198
I00
sS'default_profile'
p199
I01
sS'is_translator'
p200
I00
sbs.