(dp0
S'following'
p1
(lp2
(lp3
L2987476872L
aasS'followers'
p4
(lp5
(lp6
I246645857
aL2214273115L
aI31302346
aI21280286
aL4239327374L
aI625360914
aL4186372055L
aI632553933
aI382305957
aL2252012732L
aI1443082112
aL3282607718L
aL3627968296L
aL3404039290L
aL2576692186L
aL4147237933L
aL4009317134L
aL4121533515L
aL2444104684L
aI604406119
aI1067716489
aI329130624
aL3090281978L
aI1583359764
aI190017559
aI258224434
aL2908441097L
aI310433836
aI261005672
aI848746200
aI1854254738
aI220227925
aL3728892258L
aI249000344
aL2420541194L
aL3599939655L
aI66382193
aI18618386
aI33374304
aI104531473
aL2218854511L
aL3853928412L
aL2883020982L
aL3039761458L
aL2306835946L
aI48288049
aL3384754253L
aL2445064535L
aI926076864
aL2314289604L
aL2972555345L
aI36894359
aI241401100
aL2380905156L
aL2869315401L
aL2871492744L
aI134169392
aI292043025
aL2985968904L
aI28842883
aI109088599
aI288251490
aI1617897110
aL3397142387L
aI379649521
aI785003724
aL2512910989L
aL2452729033L
aI1045123122
aI175080651
aL2151863106L
aI1723401648
aL3148653187L
aI625153486
aL2627800127L
aI1845191160
aI70252953
aL3127320099L
aI971129101
aL3269687162L
aL2794397342L
aI1578481489
aI981236256
aI43016828
aL3258091952L
aI175857285
aL3184650312L
aL3246307430L
aI43008855
aI422746267
aI259517435
aI1281949914
aI147800813
aL2194692799L
aI30235239
aI293239334
aI626612323
aI88046126
aI161368630
aL2954539047L
aL3018394344L
aL2997788563L
aI473463895
aI75265031
aI49757561
aI189139005
aI735231157
aI406616539
aI1260336230
aI1260319494
aI1260334334
aI1260317604
aI1260332672
aI1260337003
aI1260330866
aI1260335287
aI1260333433
aI1260321398
aI1260320900
aI1260303024
aI1260302676
aI1260323461
aI1260298086
aI1444614408
aI310493272
aL3086961136L
aL2917972925L
aL2563632655L
aI533972176
aI1171116402
aI1101781921
aI1260401629
aI1260354354
aI1260351846
aI1260215526
aI234956680
aL3073478049L
aI1260349722
aI1260341420
aL2462949077L
aI222078754
aL3064934625L
aL3065083689L
aL3065060260L
aI1093586869
aL2405539021L
aL3058031098L
aL3037600610L
aI1096947139
aI1004709319
aI55709537
aL3044657531L
aL3028080216L
aI32692870
aL3020729530L
aL2930797037L
aI192759988
aI579188358
aI25226954
aL2584130431L
aI1106961240
aI1051496778
aI1260443768
aI20121880
aI1260310646
aI1260209215
aI20114738
aI455206756
aI114438335
aL2690326619L
aI881475925
aI85126894
aL2695899913L
aI19124151
aI399535164
aI93342180
aI374601312
aI840784584
aI204136074
aL2990291773L
aL2185013547L
aI303531344
aL2841233056L
aI1154936803
aI96555347
aI1457276880
aL2939580364L
aI89458170
aI444023903
aI36458488
aI385715763
aL2960969662L
aI512600867
aL2929556900L
aI128853887
aL2933882627L
aI213393774
aI62226476
aL2753440416L
aI1587490159
aL2597008298L
aL2904098999L
aL2834250732L
aI611817117
aL2718306188L
aI86024444
aL2455956535L
aI1286540352
aL2855140102L
aL2767912162L
aL2417993377L
aL2377510765L
aI20215417
aI36792985
aI15897179
aL2743137300L
aL2743143380L
aL2743136922L
aL2743114116L
aL2743167895L
aL2743134974L
aL2743106922L
aL2743109910L
aL2743162627L
aL2743086552L
aL2743089474L
aL2743115024L
aL2743072656L
aL2743112923L
aL2743031130L
aL2743047342L
aL2743087777L
aL2743043984L
aL2743018022L
aL2742987066L
aL2743042009L
aL2742978252L
aL2742982134L
aL2742979248L
aL2743033159L
aL2742972642L
aL2742970674L
aL2742944184L
aL2742958118L
aL2742924786L
aL2742949856L
aL2742935635L
aL2742899906L
aL2742926689L
aL2742898196L
aL2742831534L
aL2742886981L
aL2742851744L
aL2742878947L
aL2742860161L
aL2742855097L
aL2742802152L
aL2742820712L
aL2742786378L
aL2742784974L
aL2742835699L
aL2742809588L
aL2742777978L
aL2742832501L
aL2742747990L
aL2742763866L
aL2742747132L
aL2742811591L
aL2742741312L
aL2742798379L
aL2742754694L
aL2742725916L
aL2742751454L
aL2742747337L
aL2742705182L
aL2742730897L
aL2742667008L
aL2742665724L
aL2742722569L
aL2742720553L
aL2742654984L
aL2742673358L
aL2742673304L
aL2742674432L
aL2742696253L
aL2742696853L
aL2742666746L
aL2742664736L
aL2742631704L
aL2742685693L
aL2742686299L
aL2742683287L
aL2742651146L
aL2742625874L
aL2742637988L
aL2742669973L
aL2742646249L
aL2742646765L
aL2742618170L
aL2742614510L
aL2742614150L
aL2742643303L
aL2742582096L
aL2742637765L
aL2742637519L
aL2742637231L
aL2742571902L
aL2742599714L
aL2742604214L
aL2742571440L
aL2742626113L
aL2742584474L
aL2742613567L
aL2742565572L
aL2742572390L
aL2742568796L
aL2742557504L
aL2742525894L
aL2742524064L
aL2742521274L
aL2742569959L
aL2742543788L
aL2742505242L
aL2742510600L
aL2742501474L
aL2742557719L
aL2742499446L
aL2742552721L
aL2742519746L
aL2742546823L
aL2742518618L
aL2742546643L
aL2742488760L
aL2742515720L
aL2742510050L
aL2742534469L
aL2742529027L
aL2742525763L
aL2742497048L
aL2742480656L
aL2742506623L
aL2742506443L
aL2742508165L
aL2742450822L
aL2742447624L
aL2742449280L
aL2742500347L
aL2742470318L
aL2742499927L
aL2742443964L
aL2742444912L
aL2742468926L
aL2742495979L
aL2742456086L
aL2742441830L
aL2742442412L
aL2742472867L
aL2742469975L
aL2742442292L
aL2742469093L
aL2742443096L
aL2742413622L
aL2742472849L
aL2742416478L
aL2742413196L
aL2742448321L
aL2742439729L
aL2742381264L
aL2742412484L
aasS'obj'
p7
ccopy_reg
_reconstructor
p8
(ctweepy.models
User
p9
c__builtin__
object
p10
Ntp11
Rp12
(dp13
S'follow_request_sent'
p14
NsS'has_extended_profile'
p15
I00
sS'profile_use_background_image'
p16
I01
sS'profile_sidebar_fill_color'
p17
VDDEEF6
p18
sS'id'
p19
L2752429100L
sS'verified'
p20
I00
sS'entities'
p21
(dp22
Vdescription
p23
(dp24
Vurls
p25
(lp26
sssS'profile_image_url_https'
p27
Vhttps://pbs.twimg.com/profile_images/502486832978743296/oMCBLY-5_normal.jpeg
p28
sS'_json'
p29
(dp30
Vfollow_request_sent
p31
NsVhas_extended_profile
p32
I00
sVprofile_use_background_image
p33
I01
sVdefault_profile_image
p34
I00
sVid
p35
L2752429100L
sVprofile_background_image_url_https
p36
Vhttps://abs.twimg.com/images/themes/theme1/bg.png
p37
sVverified
p38
I00
sVprofile_text_color
p39
V333333
p40
sVprofile_image_url_https
p41
g28
sVprofile_sidebar_fill_color
p42
g18
sVentities
p43
g22
sVfollowers_count
p44
I369
sVprofile_sidebar_border_color
p45
VC0DEED
p46
sVid_str
p47
V2752429100
p48
sVprofile_background_color
p49
VC0DEED
p50
sVlisted_count
p51
I8
sVstatus
p52
(dp53
Vcontributors
p54
NsVtruncated
p55
I00
sVtext
p56
Vhttps://t.co/92JuB4w01P Nice picks this week for free. \u000a\u000a$CRK $XOMA $PGH $OOIL $XNPT $SYRX $VIP
p57
sVin_reply_to_status_id
p58
Nsg35
L666053343144357888L
sVfavorite_count
p59
I1
sVsource
p60
V<a href="http://twitter.com" rel="nofollow">Twitter Web Client</a>
p61
sVretweeted
p62
I00
sVcoordinates
p63
Nsg43
(dp64
Vsymbols
p65
(lp66
(dp67
Vindices
p68
(lp69
I57
aI61
asg56
VCRK
p70
sa(dp71
g68
(lp72
I62
aI67
asg56
VXOMA
p73
sa(dp74
g68
(lp75
I68
aI72
asg56
VPGH
p76
sa(dp77
g68
(lp78
I73
aI78
asg56
VOOIL
p79
sa(dp80
g68
(lp81
I79
aI84
asg56
VXNPT
p82
sa(dp83
g68
(lp84
I85
aI90
asg56
VSYRX
p85
sa(dp86
g68
(lp87
I91
aI95
asg56
VVIP
p88
sasVuser_mentions
p89
(lp90
sVhashtags
p91
(lp92
sg25
(lp93
(dp94
Vurl
p95
Vhttps://t.co/92JuB4w01P
p96
sg68
(lp97
I0
aI23
asVexpanded_url
p98
Vhttp://StocksToBuyToday.com
p99
sVdisplay_url
p100
VStocksToBuyToday.com
p101
sassVin_reply_to_screen_name
p102
Nsg47
V666053343144357888
p103
sVretweet_count
p104
I0
sVin_reply_to_user_id
p105
NsVfavorited
p106
I00
sVgeo
p107
NsVin_reply_to_user_id_str
p108
NsVpossibly_sensitive
p109
I00
sVlang
p110
Ven
p111
sVcreated_at
p112
VMon Nov 16 00:41:06 +0000 2015
p113
sVin_reply_to_status_id_str
p114
NsVplace
p115
NssVis_translation_enabled
p116
I00
sVutc_offset
p117
NsVstatuses_count
p118
I11593
sg23
VOnly trade the best OTC stocks in the market.  Trend spotter and trend follower.
p119
sVfriends_count
p120
I1
sVlocation
p121
VThe Earth
p122
sVprofile_link_color
p123
V0084B4
p124
sVprofile_image_url
p125
Vhttp://pbs.twimg.com/profile_images/502486832978743296/oMCBLY-5_normal.jpeg
p126
sVfollowing
p127
NsVgeo_enabled
p128
I00
sVprofile_background_image_url
p129
Vhttp://abs.twimg.com/images/themes/theme1/bg.png
p130
sVscreen_name
p131
VBoilerWarrior
p132
sg110
Ven
p133
sVprofile_background_tile
p134
I00
sVfavourites_count
p135
I0
sVname
p136
VWall Street
p137
sVnotifications
p138
Nsg95
Nsg112
VThu Aug 21 16:04:00 +0000 2014
p139
sVcontributors_enabled
p140
I00
sVtime_zone
p141
NsVprotected
p142
I00
sVdefault_profile
p143
I01
sVis_translator
p144
I00
ssS'contributors_enabled'
p145
I00
sS'profile_text_color'
p146
g40
sS'followers_count'
p147
I369
sS'profile_sidebar_border_color'
p148
g46
sS'id_str'
p149
g48
sS'default_profile_image'
p150
I00
sS'listed_count'
p151
I8
sS'status'
p152
g8
(ctweepy.models
Status
p153
g10
Ntp154
Rp155
(dp156
S'favorited'
p157
I00
sS'contributors'
p158
NsS'truncated'
p159
I00
sS'text'
p160
Vhttps://t.co/92JuB4w01P Nice picks this week for free. \u000a\u000a$CRK $XOMA $PGH $OOIL $XNPT $SYRX $VIP
p161
sS'source_url'
p162
Vhttp://twitter.com
p163
sS'possibly_sensitive'
p164
I00
sS'in_reply_to_status_id'
p165
NsS'geo'
p166
Nsg19
L666053343144357888L
sS'favorite_count'
p167
I1
sS'lang'
p168
g111
sg21
g64
sS'created_at'
p169
cdatetime
datetime
p170
(S'\x07\xdf\x0b\x10\x00)\x06\x00\x00\x00'
p171
tp172
Rp173
sg29
g53
sS'coordinates'
p174
NsS'in_reply_to_user_id_str'
p175
NsS'source'
p176
VTwitter Web Client
p177
sS'in_reply_to_status_id_str'
p178
NsS'in_reply_to_screen_name'
p179
Nsg149
g103
sS'retweeted'
p180
I00
sS'place'
p181
NsS'retweet_count'
p182
I0
sS'in_reply_to_user_id'
p183
NsbsS'is_translation_enabled'
p184
I00
sS'utc_offset'
p185
NsS'statuses_count'
p186
I11593
sS'description'
p187
g119
sS'friends_count'
p188
I1
sS'location'
p189
g122
sS'profile_link_color'
p190
g124
sS'profile_image_url'
p191
g126
sS'notifications'
p192
NsS'geo_enabled'
p193
I00
sS'profile_background_color'
p194
g50
sS'profile_background_image_url'
p195
g130
sS'screen_name'
p196
g132
sg168
g133
sg1
I00
sS'profile_background_tile'
p197
I00
sS'favourites_count'
p198
I0
sS'name'
p199
g137
sS'url'
p200
Nsg169
g170
(S'\x07\xde\x08\x15\x10\x04\x00\x00\x00\x00'
p201
tp202
Rp203
sS'profile_background_image_url_https'
p204
g37
sS'time_zone'
p205
NsS'protected'
p206
I00
sS'default_profile'
p207
I01
sS'is_translator'
p208
I00
sbs.