(dp0
S'following'
p1
(lp2
(lp3
L2987476872L
aasS'followers'
p4
(lp5
(lp6
I246645857
aI1145996502
aL4239327374L
aL2370441314L
aI117103149
aI436120655
aI1583359764
aI47121634
aI344181252
aI118766215
aL3894034407L
aL3170291055L
aI16461318
aI583123413
aL2972555345L
aI33292567
aI543927894
aI121213139
aL2203556768L
aL2781050528L
aL2384024775L
aI1845191160
aI1286540352
aL2936668420L
aI175857285
aL2535785707L
aI15897179
aI470493866
aI1529271854
aI17332454
aL3192255331L
aI27577040
aL2948612109L
aI191814757
aI492248877
aL3186638576L
aL3179258886L
aI1575923196
aL3239992227L
aI1864791230
aI981236256
aL3139505808L
aL2292699215L
aL2537367356L
aI59105106
aL2192606982L
aL2275230932L
aI342257724
aI313436554
aL3195995619L
aI163950158
aL2905776426L
aI334384921
aL2627800127L
aL3191341336L
aL2412839299L
aI408806511
aI1067349001
aL2575657495L
aI222195944
aI38289703
aL3131171895L
aL2174041238L
aI303331755
aI578383794
aL2602319753L
aL2239612556L
aL2533124898L
aL2274706375L
aL2439132404L
aI475136021
aL2444104684L
aI874419354
aI1927015632
aI206003710
aL2472016988L
aI32747128
aL2930674995L
aI106368906
aI487089304
aI74948923
aL2744836451L
aL2209574718L
aI457990623
aL2767912162L
aL2869479915L
aI19079672
aL2830563158L
aI280335050
aI126352674
aI1345660531
aL2743137300L
aL2743143380L
aL2743136922L
aL2743114116L
aL2743106922L
aL2743167895L
aL2743109910L
aL2743134974L
aL2743162627L
aL2743115024L
aL2743089474L
aL2743086552L
aL2743072656L
aL2743112923L
aL2743047342L
aL2743031130L
aL2743087777L
aL2743043984L
aL2743018022L
aL2742987066L
aL2743042009L
aL2742982134L
aL2743033159L
aL2742979248L
aL2742978252L
aL2742972642L
aL2742970674L
aL2742944184L
aL2742958118L
aL2742924786L
aL2742949856L
aL2742935635L
aL2742898196L
aL2742899906L
aL2742926689L
aL2742831534L
aL2742886981L
aL2742851744L
aL2742878947L
aL2742855097L
aL2742802152L
aL2742820712L
aL2742860161L
aL2742786378L
aL2742784974L
aL2742809588L
aL2742777978L
aL2742835699L
aL2742832501L
aL2742763866L
aL2742747990L
aL2742811591L
aL2742747132L
aL2742741312L
aL2742798379L
aL2742754694L
aL2742751454L
aL2742725916L
aL2742747337L
aL2742705182L
aL2742730897L
aL2742667008L
aL2742665724L
aL2742722569L
aL2742720553L
aL2742654984L
aL2742673304L
aL2742674432L
aL2742673358L
aL2742696253L
aL2742664736L
aL2742696853L
aL2742666746L
aL2742685693L
aL2742631704L
aL2742686299L
aL2742683287L
aL2742651146L
aL2742637988L
aL2742669973L
aL2742646249L
aL2742625874L
aL2742646765L
aL2742618170L
aL2742643303L
aL2742614150L
aL2742614510L
aL2742582096L
aL2742637765L
aL2742637519L
aL2742637231L
aL2742604214L
aL2742599714L
aL2742571440L
aL2742571902L
aL2742565572L
aL2742613567L
aL2742626113L
aL2742584474L
aL2742572390L
aL2742568796L
aL2742557504L
aL2742525894L
aL2742524064L
aL2742521274L
aL2742543788L
aL2742569959L
aL2742505242L
aL2742510600L
aL2742501474L
aL2742499446L
aL2742557719L
aL2742552721L
aL2742519746L
aL2742546643L
aL2742546823L
aL2742518618L
aL2742488760L
aL2742515720L
aL2742510050L
aL2742534469L
aL2742529027L
aL2742497048L
aL2742525763L
aL2742506623L
aL2742480656L
aL2742450822L
aL2742508165L
aL2742506443L
aL2742449280L
aL2742500347L
aL2742447624L
aL2742443964L
aL2742499927L
aL2742444912L
aL2742470318L
aL2742468926L
aL2742495979L
aL2742456086L
aL2742472849L
aL2742442292L
aL2742413622L
aL2742441830L
aL2742442412L
aL2742472867L
aL2742416478L
aL2742443096L
aL2742469093L
aL2742469975L
aL2742413196L
aL2742448321L
aL2742412484L
aL2742381264L
aL2742439729L
aasS'obj'
p7
ccopy_reg
_reconstructor
p8
(ctweepy.models
User
p9
c__builtin__
object
p10
Ntp11
Rp12
(dp13
S'follow_request_sent'
p14
NsS'has_extended_profile'
p15
I00
sS'profile_use_background_image'
p16
I01
sS'profile_sidebar_fill_color'
p17
VDDEEF6
p18
sS'id'
p19
L2752854968L
sS'verified'
p20
I00
sS'entities'
p21
(dp22
Vdescription
p23
(dp24
Vurls
p25
(lp26
sssS'profile_image_url_https'
p27
Vhttps://pbs.twimg.com/profile_images/502632727804264448/rdf9NPo5_normal.jpeg
p28
sS'_json'
p29
(dp30
Vfollow_request_sent
p31
NsVhas_extended_profile
p32
I00
sVprofile_use_background_image
p33
I01
sVdefault_profile_image
p34
I00
sVid
p35
L2752854968L
sVprofile_background_image_url_https
p36
Vhttps://abs.twimg.com/images/themes/theme1/bg.png
p37
sVverified
p38
I00
sVprofile_text_color
p39
V333333
p40
sVprofile_image_url_https
p41
g28
sVprofile_sidebar_fill_color
p42
g18
sVentities
p43
g22
sVfollowers_count
p44
I245
sVprofile_sidebar_border_color
p45
VC0DEED
p46
sVid_str
p47
V2752854968
p48
sVprofile_background_color
p49
VC0DEED
p50
sVlisted_count
p51
I9
sVstatus
p52
(dp53
Vcontributors
p54
NsVtruncated
p55
I00
sVtext
p56
Vhttps://t.co/L46QQZciCc IN PLAY: $ANVGQ $LPI $SBGL $HEMPD $INO $ISBG $MEIP $DHT $GSS $PMCS $PGH $BIOS $DNRG
p57
sVin_reply_to_status_id
p58
Nsg35
L666015528238997504L
sVfavorite_count
p59
I0
sVsource
p60
V<a href="http://twitter.com" rel="nofollow">Twitter Web Client</a>
p61
sVretweeted
p62
I00
sVcoordinates
p63
Nsg43
(dp64
Vsymbols
p65
(lp66
(dp67
Vindices
p68
(lp69
I33
aI39
asg56
VANVGQ
p70
sa(dp71
g68
(lp72
I40
aI44
asg56
VLPI
p73
sa(dp74
g68
(lp75
I45
aI50
asg56
VSBGL
p76
sa(dp77
g68
(lp78
I51
aI57
asg56
VHEMPD
p79
sa(dp80
g68
(lp81
I58
aI62
asg56
VINO
p82
sa(dp83
g68
(lp84
I63
aI68
asg56
VISBG
p85
sa(dp86
g68
(lp87
I69
aI74
asg56
VMEIP
p88
sa(dp89
g68
(lp90
I75
aI79
asg56
VDHT
p91
sa(dp92
g68
(lp93
I80
aI84
asg56
VGSS
p94
sa(dp95
g68
(lp96
I85
aI90
asg56
VPMCS
p97
sa(dp98
g68
(lp99
I91
aI95
asg56
VPGH
p100
sa(dp101
g68
(lp102
I96
aI101
asg56
VBIOS
p103
sa(dp104
g68
(lp105
I102
aI107
asg56
VDNRG
p106
sasVuser_mentions
p107
(lp108
sVhashtags
p109
(lp110
sg25
(lp111
(dp112
Vurl
p113
Vhttps://t.co/L46QQZciCc
p114
sg68
(lp115
I0
aI23
asVexpanded_url
p116
Vhttp://PennyStockSuperstar.com
p117
sVdisplay_url
p118
VPennyStockSuperstar.com
p119
sassVin_reply_to_screen_name
p120
Nsg47
V666015528238997504
p121
sVretweet_count
p122
I0
sVin_reply_to_user_id
p123
NsVfavorited
p124
I00
sVgeo
p125
NsVin_reply_to_user_id_str
p126
NsVpossibly_sensitive
p127
I00
sVlang
p128
Vtl
p129
sVcreated_at
p130
VSun Nov 15 22:10:50 +0000 2015
p131
sVin_reply_to_status_id_str
p132
NsVplace
p133
NssVis_translation_enabled
p134
I00
sVutc_offset
p135
NsVstatuses_count
p136
I7244
sg23
V
p137
sVfriends_count
p138
I1
sVlocation
p139
VCalifornia
p140
sVprofile_link_color
p141
V0084B4
p142
sVprofile_image_url
p143
Vhttp://pbs.twimg.com/profile_images/502632727804264448/rdf9NPo5_normal.jpeg
p144
sVfollowing
p145
NsVgeo_enabled
p146
I00
sVprofile_background_image_url
p147
Vhttp://abs.twimg.com/images/themes/theme1/bg.png
p148
sVscreen_name
p149
VwolfmanOTC
p150
sg128
Ven
p151
sVprofile_background_tile
p152
I00
sVfavourites_count
p153
I0
sVname
p154
VDave
p155
sVnotifications
p156
Nsg113
Nsg130
VThu Aug 21 18:58:07 +0000 2014
p157
sVcontributors_enabled
p158
I00
sVtime_zone
p159
NsVprotected
p160
I00
sVdefault_profile
p161
I01
sVis_translator
p162
I00
ssS'contributors_enabled'
p163
I00
sS'profile_text_color'
p164
g40
sS'followers_count'
p165
I245
sS'profile_sidebar_border_color'
p166
g46
sS'id_str'
p167
g48
sS'default_profile_image'
p168
I00
sS'listed_count'
p169
I9
sS'status'
p170
g8
(ctweepy.models
Status
p171
g10
Ntp172
Rp173
(dp174
S'favorited'
p175
I00
sS'contributors'
p176
NsS'truncated'
p177
I00
sS'text'
p178
g57
sS'source_url'
p179
Vhttp://twitter.com
p180
sS'possibly_sensitive'
p181
I00
sS'in_reply_to_status_id'
p182
NsS'geo'
p183
Nsg19
L666015528238997504L
sS'favorite_count'
p184
I0
sS'lang'
p185
g129
sg21
g64
sS'created_at'
p186
cdatetime
datetime
p187
(S'\x07\xdf\x0b\x0f\x16\n2\x00\x00\x00'
p188
tp189
Rp190
sg29
g53
sS'coordinates'
p191
NsS'in_reply_to_user_id_str'
p192
NsS'source'
p193
VTwitter Web Client
p194
sS'in_reply_to_status_id_str'
p195
NsS'in_reply_to_screen_name'
p196
Nsg167
g121
sS'retweeted'
p197
I00
sS'place'
p198
NsS'retweet_count'
p199
I0
sS'in_reply_to_user_id'
p200
NsbsS'is_translation_enabled'
p201
I00
sS'utc_offset'
p202
NsS'statuses_count'
p203
I7244
sS'description'
p204
g137
sS'friends_count'
p205
I1
sS'location'
p206
g140
sS'profile_link_color'
p207
g142
sS'profile_image_url'
p208
g144
sS'notifications'
p209
NsS'geo_enabled'
p210
I00
sS'profile_background_color'
p211
g50
sS'profile_background_image_url'
p212
g148
sS'screen_name'
p213
g150
sg185
g151
sg1
I00
sS'profile_background_tile'
p214
I00
sS'favourites_count'
p215
I0
sS'name'
p216
g155
sS'url'
p217
Nsg186
g187
(S'\x07\xde\x08\x15\x12:\x07\x00\x00\x00'
p218
tp219
Rp220
sS'profile_background_image_url_https'
p221
g37
sS'time_zone'
p222
NsS'protected'
p223
I00
sS'default_profile'
p224
I01
sS'is_translator'
p225
I00
sbs.