(dp0
S'following'
p1
(lp2
(lp3
I263243879
aI255036797
aI89623491
aL2411771107L
aI21657078
aI46954727
aI832125054
aI38913318
aI130160106
aI281694894
aI21820769
aI270264581
aI315617275
aI20923495
aI284016049
aI310086244
aI40045622
aI26555444
aI489908030
aI170336081
aI126735220
aI72731570
aI30973
aL2832875255L
aI514983863
aI260531220
aI39796874
aI15864446
aI432939085
aI709439228
aI16492352
aI87083632
aI35898751
aI37774648
aL2414585876L
aI9763482
aI361342191
aI17655597
aL2707909495L
aI102860752
aI133528472
aI19538986
aI162614365
aI27562960
aI312452008
aI717336618
aI285873476
aI404422077
aI1944004278
aI933154579
aI86368339
aI19548850
aI61251077
aI25328946
aI31239408
aL2579048880L
aI44760227
aI39797823
aI15888142
aI187897893
aI28706024
aI35094637
aI268439864
aI65992743
aI16409683
aI85603854
aI1198406491
aI60054156
aI44415931
aI34211097
aI237009472
aI457086198
aI49524900
aI29599598
aI52307720
aI3108351
aI759251
aI20402945
aI14861285
aI46973152
aI257548783
aI1023096199
aI1345702333
aI16573941
aI15635604
aI378018987
aI290883957
aI83312422
aI186598799
aI84722671
aI25341216
aI19708968
aI43698856
aI28716779
aI30317085
aI43803786
aI87016990
aI31583155
aI384163459
aI110775637
aI21030857
aI39364684
aI110840720
aI65773523
aI567440698
aI27678749
aI101928415
aI27989078
aI33930558
aI50680206
aI20858775
aI76611584
aI80592945
aI64258844
aI225190303
aI153474021
aI21208444
aI294529897
aI60659498
aI24779135
aI19038142
aI60970661
aI108663277
aI105340932
aI47459700
aI98942778
aI76136090
aI16190898
aI19397785
aI157140968
aI32959253
aI48100887
aI26053643
aI41229669
aI110827653
aI24647812
aI12701412
aI22109593
aI42162472
aI21681809
aI189204931
aI236699098
aI23617610
aI2883841
aI22179997
aI21414413
aI35874969
aI28109359
aI23613479
aI118857505
aI20012204
aI261057091
aI82133949
aI382003789
aI15162193
aI68399194
aI65104337
aI1156866230
aI29447487
aI40927173
aI240734425
aI19028615
aI204491797
aI39601084
aI89503894
aI26565946
aI58624484
aI282613057
aI19678061
aI270733930
aI1710688272
aI163468469
aI156639009
aI15485441
aI304802245
aI493665150
aI54649398
aI287497387
aI1126852194
aI26791824
aI16581604
aI94129050
aI52389218
aI15846407
aL2270720017L
aL2238365012L
aI433153153
aI14677919
aasS'followers'
p4
(lp5
(lp6
I54053631
aI11673662
aI401532201
aL2403583750L
aI379765354
aL2671562244L
aI52389218
aI29130296
aL2267769918L
aL3313867865L
aL2175679881L
aL3249951870L
aI53407977
aL2855018206L
aL2188917571L
aI1508455788
aI268290991
aI950288508
aI21657078
aL2935969585L
aI1596404840
aI1468828098
aI489908030
aI22167095
aL2717294564L
aI48253385
aL2716013824L
aI968919000
aI20866126
aL2859457269L
aL3225544110L
aL2515663478L
aI112794929
aL2428410913L
aI25281063
aI470874674
aI23135992
aI36241120
aL3161493336L
aL3127357553L
aL2411771107L
aI46228098
aI33951018
aI76786870
aL3141094278L
aL2998685797L
aI94892327
aL3069683134L
aI298535832
aI20923495
aL2599476733L
aI310086244
aI264043383
aL2421034376L
aL3004533491L
aL3073683617L
aI26555444
aI832125054
aI1061939178
aI919860212
aI72731570
aL2832875255L
aI92159169
aI282633191
aL2674885669L
aI21829079
aI485309377
aI58624484
aI1831596392
aI37774648
aI1053880566
aI1909347823
aI102860752
aI976254006
aI28356855
aI104677075
aI273334188
aI86368339
aI1149247904
aI25328946
aI61251077
aL2579048880L
aI26791824
aI304802245
aL2345198082L
aL2293634436L
aI261057091
aL2270720017L
aI270733930
aI19678061
aI39797823
aI433153153
aL2804668818L
aI457086198
aI49524900
aasS'obj'
p7
ccopy_reg
_reconstructor
p8
(ctweepy.models
User
p9
c__builtin__
object
p10
Ntp11
Rp12
(dp13
S'follow_request_sent'
p14
I00
sS'has_extended_profile'
p15
I00
sS'profile_use_background_image'
p16
I01
sS'profile_sidebar_fill_color'
p17
VDDEEF6
p18
sS'id'
p19
L2765161217L
sS'verified'
p20
I00
sS'entities'
p21
(dp22
Vdescription
p23
(dp24
Vurls
p25
(lp26
sssS'profile_image_url_https'
p27
Vhttps://pbs.twimg.com/profile_images/509133447844356096/IO5UzQmt_normal.jpeg
p28
sS'_json'
p29
(dp30
Vfollow_request_sent
p31
I00
sVhas_extended_profile
p32
I00
sVprofile_use_background_image
p33
I01
sVdefault_profile_image
p34
I00
sVid
p35
L2765161217L
sVprofile_background_image_url_https
p36
Vhttps://abs.twimg.com/images/themes/theme1/bg.png
p37
sVverified
p38
I00
sVprofile_text_color
p39
V333333
p40
sVprofile_image_url_https
p41
g28
sVprofile_sidebar_fill_color
p42
g18
sVentities
p43
g22
sVfollowers_count
p44
I95
sVprofile_sidebar_border_color
p45
VC0DEED
p46
sVid_str
p47
V2765161217
p48
sVprofile_background_color
p49
VC0DEED
p50
sVlisted_count
p51
I16
sVstatus
p52
(dp53
Vcontributors
p54
NsVtruncated
p55
I00
sVtext
p56
VPeaceful nights \U0001f319 #NYC #myny #nofilter https://t.co/Bo4mOo3wvP
p57
sVin_reply_to_status_id
p58
Nsg35
L666450344277377024L
sVfavorite_count
p59
I0
sVsource
p60
V<a href="http://twitter.com/download/iphone" rel="nofollow">Twitter for iPhone</a>
p61
sVretweeted
p62
I00
sVcoordinates
p63
Nsg43
(dp64
Vsymbols
p65
(lp66
sVuser_mentions
p67
(lp68
sVhashtags
p69
(lp70
(dp71
Vindices
p72
(lp73
I18
aI22
asg56
VNYC
p74
sa(dp75
g72
(lp76
I23
aI28
asg56
Vmyny
p77
sa(dp78
g72
(lp79
I29
aI38
asg56
Vnofilter
p80
sasg25
(lp81
sVmedia
p82
(lp83
(dp84
Vexpanded_url
p85
Vhttp://twitter.com/laurammarsh/status/666450344277377024/photo/1
p86
sVdisplay_url
p87
Vpic.twitter.com/Bo4mOo3wvP
p88
sVurl
p89
Vhttps://t.co/Bo4mOo3wvP
p90
sVmedia_url_https
p91
Vhttps://pbs.twimg.com/media/CT-1DUfUYAE5rQP.jpg
p92
sg47
V666450338518425601
p93
sVsizes
p94
(dp95
Vsmall
p96
(dp97
Vh
p98
I453
sVresize
p99
Vfit
p100
sVw
p101
I340
ssVlarge
p102
(dp103
g98
I1024
sg99
Vfit
p104
sg101
I768
ssVmedium
p105
(dp106
g98
I800
sg99
Vfit
p107
sg101
I600
ssVthumb
p108
(dp109
g98
I150
sg99
Vcrop
p110
sg101
I150
sssg72
(lp111
I39
aI62
asVtype
p112
Vphoto
p113
sg35
L666450338518425601L
sVmedia_url
p114
Vhttp://pbs.twimg.com/media/CT-1DUfUYAE5rQP.jpg
p115
sassVin_reply_to_screen_name
p116
Nsg47
V666450344277377024
p117
sVretweet_count
p118
I0
sVin_reply_to_user_id
p119
NsVfavorited
p120
I00
sVgeo
p121
NsVin_reply_to_user_id_str
p122
NsVpossibly_sensitive
p123
I00
sVlang
p124
Ven
p125
sVcreated_at
p126
VTue Nov 17 02:58:38 +0000 2015
p127
sVin_reply_to_status_id_str
p128
NsVplace
p129
NssVis_translation_enabled
p130
I00
sVutc_offset
p131
NsVstatuses_count
p132
I3062
sg23
V
p133
sVfriends_count
p134
I188
sVlocation
p135
g133
sVprofile_link_color
p136
V0084B4
p137
sVprofile_image_url
p138
Vhttp://pbs.twimg.com/profile_images/509133447844356096/IO5UzQmt_normal.jpeg
p139
sVfollowing
p140
I00
sVgeo_enabled
p141
I01
sVprofile_banner_url
p142
Vhttps://pbs.twimg.com/profile_banners/2765161217/1410228291
p143
sVprofile_background_image_url
p144
Vhttp://abs.twimg.com/images/themes/theme1/bg.png
p145
sVscreen_name
p146
Vlaurammarsh
p147
sg124
Ven
p148
sVprofile_background_tile
p149
I00
sVfavourites_count
p150
I670
sVname
p151
VLaura M. Marshall
p152
sVnotifications
p153
I00
sg89
Nsg126
VTue Sep 09 00:11:48 +0000 2014
p154
sVcontributors_enabled
p155
I00
sVtime_zone
p156
NsVprotected
p157
I00
sVdefault_profile
p158
I01
sVis_translator
p159
I00
ssS'contributors_enabled'
p160
I00
sS'profile_text_color'
p161
g40
sS'followers_count'
p162
I95
sS'profile_sidebar_border_color'
p163
g46
sS'id_str'
p164
g48
sS'default_profile_image'
p165
I00
sS'listed_count'
p166
I16
sS'status'
p167
g8
(ctweepy.models
Status
p168
g10
Ntp169
Rp170
(dp171
S'favorited'
p172
I00
sS'contributors'
p173
NsS'truncated'
p174
I00
sS'text'
p175
g57
sS'source_url'
p176
Vhttp://twitter.com/download/iphone
p177
sS'possibly_sensitive'
p178
I00
sS'in_reply_to_status_id'
p179
NsS'geo'
p180
Nsg19
L666450344277377024L
sS'favorite_count'
p181
I0
sS'lang'
p182
g125
sg21
g64
sS'created_at'
p183
cdatetime
datetime
p184
(S'\x07\xdf\x0b\x11\x02:&\x00\x00\x00'
p185
tp186
Rp187
sg29
g53
sS'coordinates'
p188
NsS'in_reply_to_user_id_str'
p189
NsS'source'
p190
VTwitter for iPhone
p191
sS'in_reply_to_status_id_str'
p192
NsS'in_reply_to_screen_name'
p193
Nsg164
g117
sS'retweeted'
p194
I00
sS'place'
p195
NsS'retweet_count'
p196
I0
sS'in_reply_to_user_id'
p197
NsbsS'is_translation_enabled'
p198
I00
sS'utc_offset'
p199
NsS'statuses_count'
p200
I3062
sS'description'
p201
g133
sS'friends_count'
p202
I188
sS'location'
p203
g133
sS'profile_link_color'
p204
g137
sS'profile_image_url'
p205
g139
sS'notifications'
p206
I00
sS'geo_enabled'
p207
I01
sS'profile_background_color'
p208
g50
sS'profile_banner_url'
p209
g143
sS'profile_background_image_url'
p210
g145
sS'screen_name'
p211
g147
sg182
g148
sg1
I00
sS'profile_background_tile'
p212
I00
sS'favourites_count'
p213
I670
sS'name'
p214
g152
sS'url'
p215
Nsg183
g184
(S'\x07\xde\t\t\x00\x0b0\x00\x00\x00'
p216
tp217
Rp218
sS'profile_background_image_url_https'
p219
g37
sS'time_zone'
p220
NsS'protected'
p221
I00
sS'default_profile'
p222
I01
sS'is_translator'
p223
I00
sbs.