(dp0
S'following'
p1
(lp2
(lp3
L2827461699L
aI1631140573
aL2655321690L
aI1551265794
aI14992263
aI153495347
aI108432404
aI252370778
aI1142975707
aL2239544389L
aI561441123
aI14890398
aI3283901
aI171687263
aI628556935
aI16755855
aI28467472
aI23711472
aI403490601
aI1247260488
aI60025762
aI22027300
aL2812534733L
aI173819186
aI108350146
aI33538232
aL2729276751L
aI234254981
aI16160446
aI103891103
aI242854174
aI571202103
aL2340558698L
aI16017475
aL2303751216L
aL2804743812L
aL3195244375L
aI1826971
aI19082500
aL3449554274L
aI29240701
aL3420181873L
aI189937269
aI3108351
aI1289436835
aL2149782648L
aL2177224099L
aI24410456
aL2232051756L
aI58569513
aL3420537705L
aL2701526860L
aI308105256
aI1193872682
aI467887852
aI135678842
aI63774808
aI18858395
aI20106852
aI17446621
aL2928224473L
aI347170083
aI566576685
aI361022362
aL2829966924L
aI316389142
aI1397342508
aI1563601933
aI17189922
aI384279030
aI281289020
aI26858764
aI31480072
aI231259958
aI1536791610
aL2955587524L
aI53757167
aI26775476
aI829442994
aI59316702
aL2229211183L
aI24578794
aI16246688
aI77608185
aI21701757
aI9616062
aI1469603575
aI14750983
aI1670510527
aI573918122
aI254280603
aI23338474
aL2151247592L
aI1857070171
aI1342544430
aL2246165587L
aI1457381130
aI942533726
aI21241717
aI15687962
aI18173624
aI380510779
aI16179952
aI146172499
aI38316003
aI112444373
aL2955637790L
aI410089108
aI51205137
aI19767193
aI388610424
aL2445809510L
aI49783954
aI1579422614
aI19972573
aI16228479
aI355866075
aL2511030823L
aI1571270053
aI322013575
aI241382835
aI14824849
aL2372164754L
aI256551680
aI26570717
aL2218698223L
aI251716551
aL2961589380L
aI1471210628
aI24025736
aI1675769305
aI1568284417
aI1236101
aI352947624
aI134933240
aI19822242
aI24780105
aI40892068
aL2317351705L
aI224
aI288333760
aI52818366
aI33423
aI110520327
aI40273
aL2960231085L
aI612574787
aI113134752
aI226428094
aI68483336
aI820633722
aI341256115
aI13213122
aI19725644
aI97273195
aI24111707
aI182642157
aL2227066082L
aL2803822165L
aI1753681340
aI284278132
aI547289837
aI52613032
aI713143
aL2677786304L
aI1113162427
aI509310462
aI18223590
aL2723713757L
aI1692694446
aL2882303226L
aI17879144
aI260044215
aI59880544
aI1653525644
aI1473518065
aI14800270
aI370871493
aL2444584292L
aL2451889052L
aI1086538034
aI289182486
aI1925101393
aI1694893514
aI12329252
aI382100563
aL2712298681L
aL2823216243L
aI50508426
aI238197580
aI325344481
aL2525906341L
aI355053826
aI14378113
aI20542737
aI17997789
aI962942389
aI726595946
aI97086408
aL2347049341L
aI114599241
aI16955517
aI1948066632
aI14956133
aI3764301
aI19083264
aL2648357839L
aI6219652
aI163580002
aI194608532
aI15889747
aI53543144
aI884984851
aI33216611
aI18652329
aI587814366
aI27473764
aI41516710
aI1528558014
aI820534716
aI1184509514
aI376936946
aI33747430
aI355172912
aI97530284
aI599739089
aI20402945
aI89450695
aI19292731
aI23236916
aI17893558
aI14173032
aI202764997
aI29231456
aI14276189
aI20636215
aI236953420
aI168679374
aI581821518
aI316462911
aI245581702
aI40243607
aI28007217
aI392036106
aI34939208
aI486139568
aI14133912
aI120209971
aI31186367
aI241583523
aI142742259
aI261078035
aI1146597823
aI955733059
aI110331791
aI57326684
aI24836016
aI884935388
aI520676882
aI318171818
aI869323788
aI1373568355
aI1431342590
aI1603748720
aI917104146
aI117095863
aI550168900
aI1050710814
aI1209579391
aL2236826372L
aI319102548
aI1260131623
aI562406073
aI174385219
aI1209991820
aI294588244
aL2347247707L
aI361847288
aL2335870220L
aI1448041692
aL2227994833L
aI99393348
aI308996196
aI472600930
aI1011882912
aI506504366
aL2231456276L
aL2426574114L
aI35499699
aI1537728620
aL2676762737L
aL2371952437L
aI245069853
aI1157373200
aI492177195
aI316402194
aL2235043482L
aI327457305
aI15003446
aI223238349
aI624852565
aI19546277
aI67686357
aI125773679
aI28353766
aI286654612
aI16598957
aI14096763
aI21799563
aI11014272
aI22522178
aI34713362
aI49753604
aI163537857
aI14126376
aI129942657
aI1977579223
aI18658565
aI16825716
aI18904719
aI19012517
aI199514581
aI1094922224
aL2217099931L
aI60709500
aL2672109500L
aI14645160
aL2616142874L
aI1152279248
aI558446365
aI84281104
aI27707080
aI253167239
aI27801361
aI15163466
aI130339829
aI46238088
aI28039787
aI50218742
aI1463425236
aI1378474897
aL2480079168L
aI33104659
aI1305382813
aI575775861
aL2312285228L
aI191572098
aI339853834
aI978676968
aI48260938
aL2262193958L
aI234270825
aI31122496
aI375218198
aI557379987
aI36182872
aI270481661
aI23438791
aI18247597
aI27745484
aI86158118
aI139162440
aL2230753123L
aI14955353
aL2294948869L
aI1582853809
aL2265238477L
aI467730064
aI569346945
aI409565392
aI402834490
aI1372724370
aI1267575738
aI1140348788
aI117166227
aI782285924
aI229207988
aI32915648
aI1053857160
aI297076955
aI976791968
aI373083913
aI354476932
aI556169085
aI732161707
aI812452280
aI19734728
aI714729223
aI26553971
aI71063754
aI105684407
aI240575552
aI713248687
aI14669951
aI164588497
aI472273272
aI77280620
aI474397327
aI31276511
aI551266356
aI27917440
aI474642896
aI26257166
aI511158101
aI45236165
aI50441616
aI22080646
aI16121631
aI468544517
aI97525409
aI14885860
aI51368405
aI427184268
aI72831048
aI17471979
aI34868965
aI34502596
aI44616049
aI120196805
aI386799997
aI234554962
aI72626734
aI200776582
aI72960591
aI93895164
aI55483850
aI74795125
aI276332657
aI16416368
aI276617645
aI116368160
aI59251677
aI163301469
aI259789745
aI276251582
aI20801610
aI809760
aI21895262
aI241964676
aI32765534
aI14914631
aI2557521
aI16467567
aI15450996
aI1652541
aI6017542
aasS'followers'
p4
(lp5
(lp6
I1488772598
aI1603635662
aL3020396554L
aI1870082994
aL2868401666L
aI1584166514
aL2345828610L
aI1397237364
aL3979098372L
aI1021408188
aI486056843
aL4077015676L
aL3028160926L
aI16755855
aL3888414374L
aI795663
aL2711730157L
aL3307365026L
aL3486149054L
aL3331750393L
aI1069525795
aL2232051756L
aI99393348
aL3191087781L
aI441923855
aI316166125
aI1193872682
aI467887852
aL3376545982L
aI63774808
aI16416368
aI14466526
aI295807182
aI494396251
aI1075623188
aL3319711240L
aI99190336
aL2898083062L
aL3309414893L
aI17854271
aI262684838
aI199293203
aI53757167
aL3184555062L
aI9616062
aI1670510527
aL2213171101L
aI18301946
aL2955637790L
aL3130059807L
aL3081087098L
aI279688057
aL3019179055L
aL2995981217L
aI1104897486
aI68483336
aI341256115
aI1297199778
aL2917238896L
aI475948869
aI35667152
aI19292731
aL2723922536L
aL2864158221L
aL2896049617L
aL2882303226L
aI17879144
aI120196805
aL2832200587L
aI1473518065
aI1086538034
aI59251677
aI140540706
aI21985176
aL2742204480L
aL2752208802L
aI1113162427
aI587814366
aI27473764
aI245581702
aL2227994833L
aL2662744178L
aI57326684
aI23236916
aI67686357
aI286654612
aL2792997722L
aI152819827
aL2768367312L
aI30273345
aL2672109500L
aL2689054106L
aI48033488
aI46238088
aL2284088701L
aI23438791
aI16146076
aL2419895378L
aI339853834
aI50218742
aL2313211470L
aI1413176510
aI1158397777
aI377140154
aI37220060
aL2312285228L
aL2278736516L
aI1512981726
aI48260938
aL2230753123L
aI78138009
aI978676968
aI1245305168
aI441521246
aI1616091182
aI999399271
aI1660023572
aI569346945
aI454623393
aI531710535
aI63897081
aI470341812
aI1333156711
aI635798716
aI202025450
aI1184509514
aI402834490
aI915054708
aI728199702
aI400066174
aI1053857160
aI1039472528
aI20703161
aI976791968
aI408959532
aI259789745
aI722649421
aI45613116
aI716414334
aI467730064
aI223296569
aI467081656
aI354476932
aI55483850
aI171159606
aI75619182
aI319440595
aI575775861
aI22432588
aI276332657
aI474642896
aI472273272
aI16121631
aI116368160
aI416029488
aI44616049
aI458129110
aI450139179
aI431050604
aI208270689
aI48597403
aI431391424
aI427184268
aI164588497
aI371533744
aI226673210
aI16397306
aI185800739
aI242334979
aI312799422
aI365973250
aI236552629
aI294484896
aI121675018
aI311239454
aI74795125
aI356246261
aI374443824
aI226298095
aI21895262
aI18992010
aI356852365
aI216256901
aI337397639
aI292275070
aI276251582
aI329934556
aI89661416
aI163301469
aI85506438
aI253568222
aI317604363
aI181717215
aI288647019
aI151280096
aI145388233
aI151120252
aI303036835
aI305748786
aI279142630
aI14886375
aasS'obj'
p7
ccopy_reg
_reconstructor
p8
(ctweepy.models
User
p9
c__builtin__
object
p10
Ntp11
Rp12
(dp13
S'follow_request_sent'
p14
NsS'has_extended_profile'
p15
I00
sS'profile_use_background_image'
p16
I01
sS'profile_sidebar_fill_color'
p17
VDDEEF6
p18
sS'id'
p19
I281277892
sS'verified'
p20
I00
sS'entities'
p21
(dp22
Vurl
p23
(dp24
Vurls
p25
(lp26
(dp27
g23
Vhttp://t.co/6HQY6hhl7k
p28
sVindices
p29
(lp30
I0
aI22
asVexpanded_url
p31
Vhttp://www.ammdividendletter.com
p32
sVdisplay_url
p33
Vammdividendletter.com
p34
sassVdescription
p35
(dp36
g25
(lp37
sssS'profile_image_url_https'
p38
Vhttps://pbs.twimg.com/profile_images/412009543183249408/5TSShlY0_normal.jpeg
p39
sS'_json'
p40
(dp41
Vfollow_request_sent
p42
NsVhas_extended_profile
p43
I00
sVprofile_use_background_image
p44
I01
sVdefault_profile_image
p45
I00
sVid
p46
I281277892
sVprofile_background_image_url_https
p47
Vhttps://pbs.twimg.com/profile_background_images/234804313/x5b30246dd233458ef10156953c6e285.png
p48
sVverified
p49
I00
sVprofile_text_color
p50
V333333
p51
sVprofile_image_url_https
p52
g39
sVprofile_sidebar_fill_color
p53
g18
sVentities
p54
g22
sVfollowers_count
p55
I201
sVprofile_sidebar_border_color
p56
VC0DEED
p57
sVid_str
p58
V281277892
p59
sVprofile_background_color
p60
VC0DEED
p61
sVlisted_count
p62
I15
sVstatus
p63
(dp64
Vcontributors
p65
NsVtruncated
p66
I00
sVtext
p67
VRT @digg: Destroying cities in this Godzilla VR simulator is a blast: https://t.co/I79vOf5pAt https://t.co/Hbohwhlhxc
p68
sVin_reply_to_status_id
p69
Nsg46
L666459914777178112L
sVfavorite_count
p70
I0
sVsource
p71
V<a href="http://twitter.com/download/iphone" rel="nofollow">Twitter for iPhone</a>
p72
sVretweeted
p73
I00
sVcoordinates
p74
Nsg54
(dp75
Vsymbols
p76
(lp77
sVuser_mentions
p78
(lp79
(dp80
g46
I15163466
sg29
(lp81
I3
aI8
asg58
V15163466
p82
sVscreen_name
p83
Vdigg
p84
sVname
p85
VDigg
p86
sasVhashtags
p87
(lp88
sg25
(lp89
(dp90
g23
Vhttps://t.co/I79vOf5pAt
p91
sg29
(lp92
I70
aI93
asg31
Vhttp://di.gg/1SUDoLp
p93
sg33
Vdi.gg/1SUDoLp
p94
sasVmedia
p95
(lp96
(dp97
Vsource_user_id
p98
I15163466
sVsource_status_id_str
p99
V666459136108961794
p100
sg31
Vhttp://twitter.com/digg/status/666459136108961794/photo/1
p101
sg33
Vpic.twitter.com/Hbohwhlhxc
p102
sg23
Vhttps://t.co/Hbohwhlhxc
p103
sVmedia_url_https
p104
Vhttps://pbs.twimg.com/media/CT-9DXzWoAETKr1.png
p105
sVsource_user_id_str
p106
V15163466
p107
sVsource_status_id
p108
L666459136108961794L
sg58
V666459135500787713
p109
sVsizes
p110
(dp111
Vsmall
p112
(dp113
Vh
p114
I176
sVresize
p115
Vfit
p116
sVw
p117
I340
ssVlarge
p118
(dp119
g114
I349
sg115
Vfit
p120
sg117
I674
ssVmedium
p121
(dp122
g114
I310
sg115
Vfit
p123
sg117
I600
ssVthumb
p124
(dp125
g114
I150
sg115
Vcrop
p126
sg117
I150
sssg29
(lp127
I94
aI117
asVtype
p128
Vphoto
p129
sg46
L666459135500787713L
sVmedia_url
p130
Vhttp://pbs.twimg.com/media/CT-9DXzWoAETKr1.png
p131
sassVin_reply_to_screen_name
p132
Nsg58
V666459914777178112
p133
sVretweet_count
p134
I5
sVin_reply_to_user_id
p135
NsVfavorited
p136
I00
sVretweeted_status
p137
(dp138
g65
Nsg66
I00
sg67
VDestroying cities in this Godzilla VR simulator is a blast: https://t.co/I79vOf5pAt https://t.co/Hbohwhlhxc
p139
sg69
Nsg46
L666459136108961794L
sg70
I6
sg71
V<a href="http://www.socialflow.com" rel="nofollow">SocialFlow</a>
p140
sg73
I00
sg74
Nsg54
(dp141
g76
(lp142
sg78
(lp143
sg87
(lp144
sg25
(lp145
(dp146
g23
Vhttps://t.co/I79vOf5pAt
p147
sg29
(lp148
I60
aI83
asg31
Vhttp://di.gg/1SUDoLp
p149
sg33
Vdi.gg/1SUDoLp
p150
sasg95
(lp151
(dp152
g31
Vhttp://twitter.com/digg/status/666459136108961794/photo/1
p153
sg33
Vpic.twitter.com/Hbohwhlhxc
p154
sg23
Vhttps://t.co/Hbohwhlhxc
p155
sg104
Vhttps://pbs.twimg.com/media/CT-9DXzWoAETKr1.png
p156
sg58
V666459135500787713
p157
sg110
(dp158
g112
(dp159
g114
I176
sg115
Vfit
p160
sg117
I340
ssg118
(dp161
g114
I349
sg115
Vfit
p162
sg117
I674
ssg121
(dp163
g114
I310
sg115
Vfit
p164
sg117
I600
ssg124
(dp165
g114
I150
sg115
Vcrop
p166
sg117
I150
sssg29
(lp167
I84
aI107
asg128
Vphoto
p168
sg46
L666459135500787713L
sg130
Vhttp://pbs.twimg.com/media/CT-9DXzWoAETKr1.png
p169
sassg132
Nsg58
V666459136108961794
p170
sg134
I5
sg135
Nsg136
I00
sVgeo
p171
NsVin_reply_to_user_id_str
p172
NsVpossibly_sensitive
p173
I00
sVlang
p174
Ven
p175
sVcreated_at
p176
VTue Nov 17 03:33:34 +0000 2015
p177
sVin_reply_to_status_id_str
p178
NsVplace
p179
Nssg171
Nsg172
Nsg173
I00
sg174
Ven
p180
sg176
VTue Nov 17 03:36:40 +0000 2015
p181
sg178
Nsg179
NssVis_translation_enabled
p182
I00
sVutc_offset
p183
NsVstatuses_count
p184
I6237
sg35
VMutual Fund Manager and Assistant Coach for UCSD Men's Waterpolo team.
p185
sVfriends_count
p186
I446
sVlocation
p187
VSan Diego, CA
p188
sVprofile_link_color
p189
V0084B4
p190
sVprofile_image_url
p191
Vhttp://pbs.twimg.com/profile_images/412009543183249408/5TSShlY0_normal.jpeg
p192
sVfollowing
p193
NsVgeo_enabled
p194
I01
sVprofile_background_image_url
p195
Vhttp://pbs.twimg.com/profile_background_images/234804313/x5b30246dd233458ef10156953c6e285.png
p196
sg83
VGlennBusch
p197
sg174
Ven
p198
sVprofile_background_tile
p199
I00
sVfavourites_count
p200
I9
sg85
VGlenn Busch
p201
sVnotifications
p202
Nsg23
Vhttp://t.co/6HQY6hhl7k
p203
sg176
VWed Apr 13 00:18:59 +0000 2011
p204
sVcontributors_enabled
p205
I00
sVtime_zone
p206
NsVprotected
p207
I00
sVdefault_profile
p208
I00
sVis_translator
p209
I00
ssS'contributors_enabled'
p210
I00
sS'profile_text_color'
p211
g51
sS'followers_count'
p212
I201
sS'profile_sidebar_border_color'
p213
g57
sS'id_str'
p214
g59
sS'default_profile_image'
p215
I00
sS'listed_count'
p216
I15
sS'status'
p217
g8
(ctweepy.models
Status
p218
g10
Ntp219
Rp220
(dp221
S'favorited'
p222
I00
sS'contributors'
p223
NsS'truncated'
p224
I00
sS'text'
p225
g68
sS'source_url'
p226
Vhttp://twitter.com/download/iphone
p227
sS'possibly_sensitive'
p228
I00
sS'in_reply_to_status_id'
p229
NsS'geo'
p230
Nsg19
L666459914777178112L
sS'favorite_count'
p231
I0
sS'lang'
p232
g180
sS'retweeted_status'
p233
g8
(g218
g10
Ntp234
Rp235
(dp236
g222
I00
sg223
Nsg224
I00
sg225
g139
sg226
Vhttp://www.socialflow.com
p237
sg228
I00
sg229
Nsg230
Nsg19
L666459136108961794L
sg231
I6
sg232
g175
sg21
g141
sS'created_at'
p238
cdatetime
datetime
p239
(S'\x07\xdf\x0b\x11\x03!"\x00\x00\x00'
p240
tp241
Rp242
sg40
g138
sS'coordinates'
p243
NsS'in_reply_to_user_id_str'
p244
NsS'source'
p245
VSocialFlow
p246
sS'in_reply_to_status_id_str'
p247
NsS'in_reply_to_screen_name'
p248
Nsg214
g170
sS'retweeted'
p249
I00
sS'place'
p250
NsS'retweet_count'
p251
I5
sS'in_reply_to_user_id'
p252
Nsbsg21
g75
sg238
g239
(S'\x07\xdf\x0b\x11\x03$(\x00\x00\x00'
p253
tp254
Rp255
sg40
g64
sg243
Nsg244
Nsg245
VTwitter for iPhone
p256
sg247
Nsg248
Nsg214
g133
sg249
I00
sg250
Nsg251
I5
sg252
NsbsS'is_translation_enabled'
p257
I00
sS'utc_offset'
p258
NsS'statuses_count'
p259
I6237
sS'description'
p260
g185
sS'friends_count'
p261
I446
sS'location'
p262
g188
sS'profile_link_color'
p263
g190
sS'profile_image_url'
p264
g192
sS'notifications'
p265
NsS'geo_enabled'
p266
I01
sS'profile_background_color'
p267
g61
sS'profile_background_image_url'
p268
g196
sS'screen_name'
p269
g197
sg232
g198
sg1
I00
sS'profile_background_tile'
p270
I00
sS'favourites_count'
p271
I9
sS'name'
p272
g201
sS'url'
p273
g203
sg238
g239
(S'\x07\xdb\x04\r\x00\x12;\x00\x00\x00'
p274
tp275
Rp276
sS'profile_background_image_url_https'
p277
g48
sS'time_zone'
p278
NsS'protected'
p279
I00
sS'default_profile'
p280
I00
sS'is_translator'
p281
I00
sbs.