(dp0
S'following'
p1
(lp2
(lp3
L3185728742L
aI583123413
aI611817117
aL2203776828L
aI413955323
aI275721015
aL2911755130L
aI510535234
aL2827091268L
aI1607155250
aI51912109
aI297848618
aI389157954
aI1665576224
aI61216389
aI21459600
aI55561590
aL2981421573L
aL2216333869L
aL2520719083L
aL2699087383L
aI1289738107
aL2852147156L
aasS'followers'
p4
(lp5
(lp6
L2960012916L
aI120579305
aI459051859
aI48486244
aL3018809793L
aL3742241656L
aL3899517854L
aI396999574
aI627765164
aL4064277226L
aL3944877897L
aL3409433439L
aI107867554
aL3992224279L
aL2408038189L
aL3603600387L
aI40300931
aL3874853493L
aI104343891
aI223341170
aL2192140485L
aI280433991
aL3364904379L
aI1289556014
aL2857534997L
aL3894034407L
aI390788855
aI318600477
aI127967449
aL3223974913L
aI546629088
aI547736909
aI121312050
aL3391253765L
aI101826651
aI100089453
aL2349104040L
aI407048032
aI118846656
aL2463817879L
aI159332029
aL3783382006L
aL3301637544L
aI724661646
aI100767876
aL3283094245L
aI264234663
aI1339274430
aL2730544978L
aL3188031576L
aI459725080
aI731627244
aL2981421573L
aI141453630
aI383927121
aL2901992178L
aI386134105
aL3656820923L
aI1626999570
aI57027515
aL2434282090L
aI1482419522
aI415913938
aL3432665068L
aI351032649
aL3424142572L
aL3662605336L
aL3438439649L
aL2469832928L
aI184073082
aI120672388
aL3459498135L
aL3398381926L
aI40621299
aL3437275444L
aI1709533771
aL3568253356L
aL2743255203L
aI13083302
aL2398984249L
aI15067433
aI489579132
aL3461031256L
aI175857285
aI1923687282
aI21140391
aI21551999
aL2395105374L
aL3319136443L
aL3415110442L
aL3433219272L
aL3315448347L
aI316635705
aL2763456724L
aL3460128263L
aL3357001334L
aI142026720
aI24625451
aL2796930922L
aL3331045934L
aI19224335
aL3372366253L
aL2380905156L
aL3461667263L
aL2895033159L
aI329783805
aI66245952
aI17348446
aI1914584622
aI53494137
aI1894691384
aI1286540352
aL2470197612L
aI36894359
aL3418910243L
aL3313742095L
aI630412799
aL2402332680L
aL3384754253L
aI1087036688
aI850286329
aL2484205611L
aL2971653040L
aL2844317095L
aI413955323
aL3393162153L
aL2911755130L
aI1163985522
aL3295901070L
aL3314573656L
aI117895904
aI250317700
aL3280954309L
aI531356245
aL2566500632L
aI36110149
aL2573563105L
aI583123413
aI1465323240
aL3235775720L
aL3233844061L
aI183003784
aI272681232
aI59611700
aI152957169
aI512577341
aI1335895868
aI1944638468
aI553975229
aL3065060260L
aI397319009
aL3188262614L
aL3185728742L
aI824646655
aI479631778
aI17539822
aL2912291497L
aI145880578
aL2165676145L
aI981236256
aL3096837242L
aI154961762
aI86522297
aI1531007624
aI493431043
aI317562281
aI1260236629
aI1260181662
aI1260195950
aI1260177066
aI258553155
aL2912305028L
aL2311908098L
aI1444614408
aI18824894
aI509986637
aL3073478049L
aL3065083689L
aI1260349722
aI961278918
aI1260379992
aI1093586869
aI1260404346
aL3022150386L
aI741043728
aI1387182072
aI462236234
aI187324370
aI29303956
aI499126522
aI444023903
aI1065822770
aI611817117
aL2923214061L
aI57375965
aL2931757822L
aL2924598544L
aI14743751
aL2831153890L
aL2753440416L
aL2814290667L
aL2883878790L
aI86024444
aI1482282068
aL2161560025L
aL2826941563L
aI22887734
aL2864507775L
aL2397016267L
aI569632598
aL2406186192L
aI27367964
aI517205383
aI103058299
aI82930064
aI460855130
aL2424487387L
aL2759168506L
aI216843073
aL2761926751L
aL2695761769L
aL2730995791L
aI1122814477
aL2734160297L
aL2684110086L
aL2675225718L
aL2585713375L
aL2608953486L
aL2603552491L
aI311757714
aI25208973
aI40945420
aI181492019
aI19464543
aL2590753064L
aL2415379496L
aL2640952199L
aI136226507
aI19148898
aI334915113
aL2527414191L
aI223387400
aI810870114
aL2550263551L
aL2512830201L
aI871701199
aI177508274
aL2527788158L
aL2435195210L
aL2515685234L
aL2433906714L
aL2256413282L
aI1109158872
aI76116043
aI394194358
aI121324454
aI359738194
aI1051240046
aI1053126661
aI1051224187
aI1040671285
aI979707013
aI958311912
aI898617391
aI99782750
aI909092995
aI887360664
aI879283056
aI104632432
aI770649829
aI703710121
aI618558126
aI599852049
aI596897831
aI17874752
aI227557191
aI510726323
aI406866149
aI337079679
aI405033595
aI418300642
aI370540702
aI314324099
aasS'obj'
p7
ccopy_reg
_reconstructor
p8
(ctweepy.models
User
p9
c__builtin__
object
p10
Ntp11
Rp12
(dp13
S'follow_request_sent'
p14
NsS'has_extended_profile'
p15
I00
sS'profile_use_background_image'
p16
I01
sS'profile_sidebar_fill_color'
p17
VDDEEF6
p18
sS'id'
p19
I281204221
sS'verified'
p20
I00
sS'entities'
p21
(dp22
Vurl
p23
(dp24
Vurls
p25
(lp26
(dp27
g23
Vhttp://t.co/YMDVdmr2Zl
p28
sVindices
p29
(lp30
I0
aI22
asVexpanded_url
p31
Vhttp://www.pennystockresearch.com
p32
sVdisplay_url
p33
Vpennystockresearch.com
p34
sassVdescription
p35
(dp36
g25
(lp37
sssS'profile_image_url_https'
p38
Vhttps://pbs.twimg.com/profile_images/534877703757770752/0WAdjSdt_normal.jpeg
p39
sS'_json'
p40
(dp41
Vfollow_request_sent
p42
NsVhas_extended_profile
p43
I00
sVprofile_use_background_image
p44
I01
sVdefault_profile_image
p45
I00
sVid
p46
I281204221
sVprofile_background_image_url_https
p47
Vhttps://abs.twimg.com/images/themes/theme1/bg.png
p48
sVverified
p49
I00
sVprofile_text_color
p50
V333333
p51
sVprofile_image_url_https
p52
g39
sVprofile_sidebar_fill_color
p53
g18
sVentities
p54
g22
sVfollowers_count
p55
I283
sVprofile_sidebar_border_color
p56
VC0DEED
p57
sVid_str
p58
V281204221
p59
sVprofile_background_color
p60
VC0DEED
p61
sVlisted_count
p62
I12
sVstatus
p63
(dp64
Vcontributors
p65
NsVtruncated
p66
I00
sVtext
p67
VA Great Way To Find The Best #PennyStocks #bestpennystocks #stockanalysis $PRMW https://t.co/rrjBGxuAyf
p68
sVin_reply_to_status_id
p69
Nsg46
L665227667915055104L
sVfavorite_count
p70
I0
sVsource
p71
V<a href="http://coschedule.com" rel="nofollow">CoSchedule</a>
p72
sVretweeted
p73
I00
sVcoordinates
p74
Nsg54
(dp75
Vsymbols
p76
(lp77
(dp78
g29
(lp79
I74
aI79
asg67
VPRMW
p80
sasVuser_mentions
p81
(lp82
sVhashtags
p83
(lp84
(dp85
g29
(lp86
I29
aI41
asg67
VPennyStocks
p87
sa(dp88
g29
(lp89
I42
aI58
asg67
Vbestpennystocks
p90
sa(dp91
g29
(lp92
I59
aI73
asg67
Vstockanalysis
p93
sasg25
(lp94
(dp95
g23
Vhttps://t.co/rrjBGxuAyf
p96
sg29
(lp97
I80
aI103
asg31
Vhttps://pennystockresearch.com/why-are-these-the-best-penny-stocks-to-invest-in/?utm_campaign=coschedule&utm_source=twitter&utm_medium=PennyStockRes&utm_content=Why%20Are%20These%20The%20Best%20Penny%20Stocks%20To%20Invest%20In%3F
p98
sg33
Vpennystockresearch.com/why-are-these-\u2026
p99
sassVin_reply_to_screen_name
p100
Nsg58
V665227667915055104
p101
sVretweet_count
p102
I0
sVin_reply_to_user_id
p103
NsVfavorited
p104
I00
sVgeo
p105
NsVin_reply_to_user_id_str
p106
NsVpossibly_sensitive
p107
I00
sVlang
p108
Ven
p109
sVcreated_at
p110
VFri Nov 13 18:00:10 +0000 2015
p111
sVin_reply_to_status_id_str
p112
NsVplace
p113
NssVis_translation_enabled
p114
I00
sVutc_offset
p115
I-25200
sVstatuses_count
p116
I2142
sg35
VPenny Stock Research brings you the unbiased truth about penny stocks. Learn to make money with Penny Stocks and how to quickly Identify Pump & Dump scams!
p117
sVfriends_count
p118
I23
sVlocation
p119
VScottsdale, AZ
p120
sVprofile_link_color
p121
V0084B4
p122
sVprofile_image_url
p123
Vhttp://pbs.twimg.com/profile_images/534877703757770752/0WAdjSdt_normal.jpeg
p124
sVfollowing
p125
NsVgeo_enabled
p126
I00
sVprofile_banner_url
p127
Vhttps://pbs.twimg.com/profile_banners/281204221/1418070998
p128
sVprofile_background_image_url
p129
Vhttp://abs.twimg.com/images/themes/theme1/bg.png
p130
sVscreen_name
p131
VPennyStockRes
p132
sg108
Ven
p133
sVprofile_background_tile
p134
I00
sVfavourites_count
p135
I34
sVname
p136
VPenny Stock Research
p137
sVnotifications
p138
Nsg23
Vhttp://t.co/YMDVdmr2Zl
p139
sg110
VTue Apr 12 21:00:46 +0000 2011
p140
sVcontributors_enabled
p141
I00
sVtime_zone
p142
VArizona
p143
sVprotected
p144
I00
sVdefault_profile
p145
I01
sVis_translator
p146
I00
ssS'contributors_enabled'
p147
I00
sS'profile_text_color'
p148
g51
sS'followers_count'
p149
I283
sS'profile_sidebar_border_color'
p150
g57
sS'id_str'
p151
g59
sS'default_profile_image'
p152
I00
sS'listed_count'
p153
I12
sS'status'
p154
g8
(ctweepy.models
Status
p155
g10
Ntp156
Rp157
(dp158
S'favorited'
p159
I00
sS'contributors'
p160
NsS'truncated'
p161
I00
sS'text'
p162
g68
sS'source_url'
p163
Vhttp://coschedule.com
p164
sS'possibly_sensitive'
p165
I00
sS'in_reply_to_status_id'
p166
NsS'geo'
p167
Nsg19
L665227667915055104L
sS'favorite_count'
p168
I0
sS'lang'
p169
g109
sg21
g75
sS'created_at'
p170
cdatetime
datetime
p171
(S'\x07\xdf\x0b\r\x12\x00\n\x00\x00\x00'
p172
tp173
Rp174
sg40
g64
sS'coordinates'
p175
NsS'in_reply_to_user_id_str'
p176
NsS'source'
p177
VCoSchedule
p178
sS'in_reply_to_status_id_str'
p179
NsS'in_reply_to_screen_name'
p180
Nsg151
g101
sS'retweeted'
p181
I00
sS'place'
p182
NsS'retweet_count'
p183
I0
sS'in_reply_to_user_id'
p184
NsbsS'is_translation_enabled'
p185
I00
sS'utc_offset'
p186
I-25200
sS'statuses_count'
p187
I2142
sS'description'
p188
g117
sS'friends_count'
p189
I23
sS'location'
p190
g120
sS'profile_link_color'
p191
g122
sS'profile_image_url'
p192
g124
sS'notifications'
p193
NsS'geo_enabled'
p194
I00
sS'profile_background_color'
p195
g61
sS'profile_banner_url'
p196
g128
sS'profile_background_image_url'
p197
g130
sS'screen_name'
p198
g132
sg169
g133
sg1
I00
sS'profile_background_tile'
p199
I00
sS'favourites_count'
p200
I34
sS'name'
p201
g137
sS'url'
p202
g139
sg170
g171
(S'\x07\xdb\x04\x0c\x15\x00.\x00\x00\x00'
p203
tp204
Rp205
sS'profile_background_image_url_https'
p206
g48
sS'time_zone'
p207
g143
sS'protected'
p208
I00
sS'default_profile'
p209
I01
sS'is_translator'
p210
I00
sbs.