(dp0
S'following'
p1
(lp2
(lp3
I475524030
aI299706956
aI381187026
aI371010802
aI9410332
aI1335401186
aL2750919210L
aI234521957
aL3048239704L
aI366225283
aI292593036
aI711936732
aI491636251
aI454580111
aI36959033
aI299413616
aI404789840
aI441436880
aI84402174
aI61342056
aI1730557543
aI52702603
aL3413031340L
aI292680777
aI1024716122
aL2157876009L
aI255689564
aI382792295
aI497340309
aI275686563
aI280582344
aI22745779
aL4032358491L
aI15079601
aL2331142507L
aI1394399438
aI270717269
aI28319725
aI42065669
aL3234292643L
aI44196397
aI355611795
aI788333744
aI1344951
aI1059530150
aI48232726
aI1534167900
aI59345386
aI3108351
aI119372054
aI624413
aI140912249
aI114782468
aI18807695
aI25073877
aL3951293128L
aI65691824
aI575796665
aI461396055
aL2746667072L
aL2497004659L
aL3048252359L
aI1887985640
aI534269350
aI905560958
aL2896309515L
aL2514388927L
aI22692199
aL2505074103L
aL2869983884L
aI1187741078
aI316485110
aI72907355
aI453369372
aI141448462
aI268529366
aI315920105
aI1288485038
aI1027173822
aI26693242
aI193419784
aI30043148
aI345992326
aI31869934
aI23164971
aI34623936
aI104712573
aI19739279
aI44503856
aI553036368
aI18227519
aI332677296
aI24013535
aI27801361
aI48053045
aL2470495569L
aI1565684575
aI24266406
aL2768552889L
aI168691253
aI160983113
aI14751476
aI282245814
aI602355833
aI583552801
aI1623315883
aI44060322
aI750805404
aI246038978
aI915035587
aI47678782
aI23390520
aI37718217
aI45050022
aI32002507
aI16228398
aI9729502
aI718182886
aI416311594
aL2710561359L
aI1832181
aL2286145784L
aI198011754
aI1602147493
aI476040941
aI485329733
aI26819104
aI80660848
aI323811429
aI302224112
aI34837057
aI177783118
aI29833815
aL2249186018L
aI39879120
aI235123254
aL2696783496L
aL2339384384L
aI122776885
aI419574878
aI15730804
aI15281391
aI53474571
aI455309376
aI22522178
aI144696023
aL2571672396L
aI1529271854
aI206009874
aI374209360
aI311712220
aI244796620
aI16451932
aI274233761
aI403855355
aI160625399
aI1389493454
aI342577543
aI409617637
aI27162339
aI15246621
aI19079480
aI250758475
aI19143910
aI100592354
aL2714709254L
aI1652541
aI53215424
aI430841130
aI51054493
aI85107230
aI15065434
aI120242824
aI260559365
aI14292717
aI39264827
aI28445389
aI14115408
aL2774043533L
aI1195527025
aI355190623
aI186320027
aL2884502937L
aI259725229
aI545618159
aI104952689
aI14886375
aI34713362
aI28164923
aI20449296
aI1023096199
aI3552801
aI416517158
aL2979938658L
aI263197731
aI13735782
aI382070088
aI245225812
aL2909817873L
aL2956908987L
aI1418314705
aI16184358
aI18856867
aI267171658
aI404422077
aI106498703
aI562995991
aI16732770
aI422293154
aI19962813
aI26574283
aI20402945
aI14216123
aI1358146357
aI60113926
aI374775473
aI275442883
aL2193390190L
aL2196490219L
aL2695132185L
aI1443908539
aI603722197
aI239765585
aI225465711
aI240378928
aI43775786
aI119758732
aL2283706789L
aI123276343
aI714645186
aI216766313
aI8410672
aasS'followers'
p4
(lp5
(lp6
L4014433998L
aI369018737
aI1620539378
aI278606054
aL2992414321L
aL3990874066L
aI1583359764
aI48232726
aI588559501
aL3039923614L
aI53831449
aL4105907894L
aI425942351
aI253257750
aI819738901
aI73250297
aI1935577026
aL2695132185L
aL3319587413L
aI255689564
aI497340309
aL3231214012L
aI174953869
aL3307748209L
aI206006577
aL3303593718L
aI1867320510
aI234180684
aL3049714537L
aL3961164497L
aL3315441290L
aL3999203380L
aL2567953200L
aL3953876832L
aL3323999223L
aL3999144305L
aL2419185301L
aL3942575292L
aL2749574128L
aI767953508
aL3915898513L
aI466994845
aL3325443957L
aL3951567199L
aL3956979765L
aL3905351251L
aL3135493823L
aI18807695
aL3385222666L
aL3411449505L
aL3178676248L
aL3236719673L
aL3880568727L
aL3631591820L
aL3844428562L
aI166989894
aL3343346890L
aI380035634
aI813309456
aI604419127
aL2803715233L
aL2932352999L
aL3298760562L
aL3269879348L
aI144696023
aL2500068855L
aI1619318634
aL2505074103L
aI391504325
aI995287412
aL3142838898L
aI249265610
aI332544809
aI23729812
aL3256986160L
aL2830974222L
aI38821562
aL3153510726L
aI16484341
aI200034146
aI611817117
aI913827930
aI18906599
aL2850345055L
aI15897179
aI1670698730
aI718182886
aL3057205095L
aL2841855295L
aL3028118553L
aL2218617601L
aL3056281037L
aL3029344901L
aL2903921735L
aI1861110733
aI1167368966
aL3030384707L
aL3057735970L
aL3038312528L
aI287885364
aI14886375
aL2951248177L
aI1602147493
aL3028191174L
aI316485110
aI260559365
aI115084967
aL2249186018L
aL2571672396L
aL2696783496L
aI15973308
aI43659642
aI586650775
aI1529271854
aL3035739298L
aI409617637
aI41041687
aI1195527025
aI3552801
aI1949135024
aI268058243
aL2855900897L
aL2999799150L
aL3013401663L
aL2830568207L
aL2816647197L
aasS'obj'
p7
ccopy_reg
_reconstructor
p8
(ctweepy.models
User
p9
c__builtin__
object
p10
Ntp11
Rp12
(dp13
S'follow_request_sent'
p14
NsS'has_extended_profile'
p15
I00
sS'profile_use_background_image'
p16
I01
sS'profile_sidebar_fill_color'
p17
VDDEEF6
p18
sS'id'
p19
L2814136474L
sS'verified'
p20
I00
sS'entities'
p21
(dp22
Vurl
p23
(dp24
Vurls
p25
(lp26
(dp27
g23
Vhttps://t.co/o4ts8k9LrD
p28
sVindices
p29
(lp30
I0
aI23
asVexpanded_url
p31
Vhttp://www.barstoolsports.com/
p32
sVdisplay_url
p33
Vbarstoolsports.com
p34
sassVdescription
p35
(dp36
g25
(lp37
sssS'profile_image_url_https'
p38
Vhttps://pbs.twimg.com/profile_images/654484040364478464/oL_7jHS0_normal.jpg
p39
sS'_json'
p40
(dp41
Vfollow_request_sent
p42
NsVhas_extended_profile
p43
I00
sVprofile_use_background_image
p44
I01
sVdefault_profile_image
p45
I00
sVid
p46
L2814136474L
sVprofile_background_image_url_https
p47
Vhttps://abs.twimg.com/images/themes/theme1/bg.png
p48
sVverified
p49
I00
sVprofile_text_color
p50
V333333
p51
sVprofile_image_url_https
p52
g39
sVprofile_sidebar_fill_color
p53
g18
sVentities
p54
g22
sVfollowers_count
p55
I126
sVprofile_sidebar_border_color
p56
VC0DEED
p57
sVid_str
p58
V2814136474
p59
sVprofile_background_color
p60
VC0DEED
p61
sVlisted_count
p62
I5
sVstatus
p63
(dp64
Vcontributors
p65
NsVtruncated
p66
I00
sVtext
p67
VHow true were they? https://t.co/4TRSO0hntJ
p68
sVin_reply_to_status_id
p69
Nsg46
L666445558991740928L
sVfavorite_count
p70
I0
sVsource
p71
V<a href="http://twitter.com/download/iphone" rel="nofollow">Twitter for iPhone</a>
p72
sVretweeted
p73
I00
sVcoordinates
p74
Nsg54
(dp75
Vsymbols
p76
(lp77
sVuser_mentions
p78
(lp79
sVhashtags
p80
(lp81
sg25
(lp82
(dp83
g23
Vhttps://t.co/4TRSO0hntJ
p84
sg29
(lp85
I20
aI43
asg31
Vhttp://www.businessinsider.com/goldman-sachs-best-stocks-in-low-dispersion-market-2015-9
p86
sg33
Vbusinessinsider.com/goldman-sachs-\u2026
p87
sassVin_reply_to_screen_name
p88
Nsg58
V666445558991740928
p89
sVretweet_count
p90
I0
sVin_reply_to_user_id
p91
NsVfavorited
p92
I00
sVgeo
p93
NsVin_reply_to_user_id_str
p94
NsVpossibly_sensitive
p95
I00
sVlang
p96
Ven
p97
sVcreated_at
p98
VTue Nov 17 02:39:37 +0000 2015
p99
sVin_reply_to_status_id_str
p100
NsVplace
p101
NssVis_translation_enabled
p102
I00
sVutc_offset
p103
I-18000
sVstatuses_count
p104
I2522
sg35
VPresident of The United States Of America. Street Addict. The guy people hire to put out fires, they don't know exist. #Stoolie #BSS
p105
sVfriends_count
p106
I232
sVlocation
p107
VMarket City
p108
sVprofile_link_color
p109
V0084B4
p110
sVprofile_image_url
p111
Vhttp://pbs.twimg.com/profile_images/654484040364478464/oL_7jHS0_normal.jpg
p112
sVfollowing
p113
NsVgeo_enabled
p114
I00
sVprofile_banner_url
p115
Vhttps://pbs.twimg.com/profile_banners/2814136474/1444879450
p116
sVprofile_background_image_url
p117
Vhttp://abs.twimg.com/images/themes/theme1/bg.png
p118
sVscreen_name
p119
VPresidentFrankU
p120
sg96
Ven
p121
sVprofile_background_tile
p122
I00
sVfavourites_count
p123
I5
sVname
p124
VFrank Underwood Jr
p125
sVnotifications
p126
Nsg23
Vhttps://t.co/o4ts8k9LrD
p127
sg98
VTue Oct 07 14:06:13 +0000 2014
p128
sVcontributors_enabled
p129
I00
sVtime_zone
p130
VEastern Time (US & Canada)
p131
sVprotected
p132
I00
sVdefault_profile
p133
I01
sVis_translator
p134
I00
ssS'contributors_enabled'
p135
I00
sS'profile_text_color'
p136
g51
sS'followers_count'
p137
I126
sS'profile_sidebar_border_color'
p138
g57
sS'id_str'
p139
g59
sS'default_profile_image'
p140
I00
sS'listed_count'
p141
I5
sS'status'
p142
g8
(ctweepy.models
Status
p143
g10
Ntp144
Rp145
(dp146
S'favorited'
p147
I00
sS'contributors'
p148
NsS'truncated'
p149
I00
sS'text'
p150
g68
sS'source_url'
p151
Vhttp://twitter.com/download/iphone
p152
sS'possibly_sensitive'
p153
I00
sS'in_reply_to_status_id'
p154
NsS'geo'
p155
Nsg19
L666445558991740928L
sS'favorite_count'
p156
I0
sS'lang'
p157
g97
sg21
g75
sS'created_at'
p158
cdatetime
datetime
p159
(S"\x07\xdf\x0b\x11\x02'%\x00\x00\x00"
p160
tp161
Rp162
sg40
g64
sS'coordinates'
p163
NsS'in_reply_to_user_id_str'
p164
NsS'source'
p165
VTwitter for iPhone
p166
sS'in_reply_to_status_id_str'
p167
NsS'in_reply_to_screen_name'
p168
Nsg139
g89
sS'retweeted'
p169
I00
sS'place'
p170
NsS'retweet_count'
p171
I0
sS'in_reply_to_user_id'
p172
NsbsS'is_translation_enabled'
p173
I00
sS'utc_offset'
p174
I-18000
sS'statuses_count'
p175
I2522
sS'description'
p176
g105
sS'friends_count'
p177
I232
sS'location'
p178
g108
sS'profile_link_color'
p179
g110
sS'profile_image_url'
p180
g112
sS'notifications'
p181
NsS'geo_enabled'
p182
I00
sS'profile_background_color'
p183
g61
sS'profile_banner_url'
p184
g116
sS'profile_background_image_url'
p185
g118
sS'screen_name'
p186
g120
sg157
g121
sg1
I00
sS'profile_background_tile'
p187
I00
sS'favourites_count'
p188
I5
sS'name'
p189
g125
sS'url'
p190
g127
sg158
g159
(S'\x07\xde\n\x07\x0e\x06\r\x00\x00\x00'
p191
tp192
Rp193
sS'profile_background_image_url_https'
p194
g48
sS'time_zone'
p195
g131
sS'protected'
p196
I00
sS'default_profile'
p197
I01
sS'is_translator'
p198
I00
sbs.