(dp0
S'following'
p1
(lp2
(lp3
I872655614
aI360844323
aI57034487
aI38400130
aI37874853
aasS'followers'
p4
(lp5
(lp6
I105229568
aL3122187911L
aL2698572919L
aI89476066
aL3362515574L
aL3385501939L
aL3060235519L
aI368887496
aL4143683405L
aI397136529
aI1109331806
aL4166694329L
aL2257874996L
aL3425150609L
aI611578924
aL2792284988L
aI1190950128
aL3243555336L
aI224700084
aI393096359
aL2481055421L
aL2992414321L
aI1510473181
aL4136645662L
aI425116010
aL2800935592L
aI430338779
aL4002638173L
aL4077721821L
aL2332071453L
aL4136888841L
aI752196367
aI227572658
aL4010050756L
aL3351448120L
aI9555372
aL2511234708L
aL2850536878L
aL3275464489L
aI69470882
aL2191365266L
aL3849712040L
aI1713618547
aI1888581571
aI1699890006
aI450112028
aL2591287524L
aL3296524292L
aL3115655489L
aL2509375009L
aL3325074547L
aL3429122758L
aL3947481623L
aL3946949536L
aI631462714
aL2958953584L
aI454323743
aL2571431564L
aL3401590131L
aI535319026
aI144527487
aI83346193
aI310220622
aI845887314
aI352017493
aL3883704746L
aI799177574
aL3689318123L
aI18548136
aL3252775642L
aL3018809793L
aI557997799
aL3688835303L
aI22184904
aI32627702
aL2687826066L
aI1585011582
aL2270065690L
aI1252224679
aL2797787901L
aL3774615735L
aL2918281024L
aL3365810943L
aL3383578665L
aL3734679280L
aL3820165403L
aI14542502
aI343283519
aI260641304
aI1827800660
aL3423175918L
aI154633143
aL3296890517L
aI465811621
aL3071788484L
aL2921188549L
aI712607726
aI401004551
aL2477955594L
aI1321035582
aI220250781
aL3222434514L
aL3527658193L
aL3193517657L
aI308158110
aI189797209
aI1371949380
aL2855915617L
aI257732424
aI1218699548
aL2993148593L
aI52216611
aL2890251113L
aL2919494178L
aI68565483
aL3315738924L
aI434507002
aL3298205663L
aI553060761
aL3249366263L
aL3310590415L
aL3310589281L
aL3310588345L
aL3310489524L
aL3310543298L
aL3239703626L
aL3310474730L
aL3310415094L
aL3310578277L
aL3309711798L
aI40362866
aI1668546120
aL2792828298L
aI375903329
aL2391308402L
aI19090219
aL2745620291L
aI1652447665
aL2799343832L
aL3338259875L
aI1326499267
aL3323796967L
aL3305249569L
aL2947665311L
aI79798249
aL2672924254L
aL2830669684L
aI170766820
aI1522082509
aL2738461153L
aL3280175916L
aI155428494
aL3111799639L
aL3170582114L
aI611594069
aL3068049323L
aL3409035935L
aL2379879877L
aI34997226
aI1093784281
aI1524037176
aL3406986903L
aI34605220
aI36894359
aI1136136391
aI947361344
aI350873423
aL3294830868L
aI802958762
aL3291501558L
aI428428821
aL2685988032L
aL3279165133L
aI874
aL3252064502L
aI318643375
aL2919078445L
aL3168323262L
aL2462286135L
aL3214019833L
aL3221875736L
aL3382996101L
aL3131600889L
aI9953462
aI1702448022
aI225818852
aI1488440371
aL2956964693L
aL2571857954L
aI524663700
aL2765448176L
aL3157497029L
aL2922559347L
aL3266924461L
aL2914346492L
aL3257459005L
aL3182983975L
aI1531007624
aI932258966
aI409582639
aI362167808
aL2410009524L
aI81994188
aL3249792122L
aI86594766
aI285362838
aI176168308
aL2469958621L
aL3300570269L
aL2547365834L
aL2919666573L
aL2777592086L
aI1488981859
aL2463099566L
aL3234805988L
aL2862838001L
aL3091391121L
aI591146910
aL2372953591L
aI300099550
aL3224503439L
aI127967449
aI602479398
aL3230490414L
aL2156010956L
aL2205686924L
aL2511086938L
aL2362066081L
aL3304500010L
aL2475786115L
aL3214588056L
aL2863918898L
aI507150971
aI485334076
aI444860305
aL3160121866L
aL3223741868L
aI1199401543
aL3138699707L
aI610367125
aL3092329942L
aL3100990661L
aI30661155
aI710842159
aL3077590309L
aI925967335
aL3221588200L
aL2867995119L
aL2714966273L
aL3289966113L
aL3255706977L
aI1252224511
aL3263848865L
aL3139018912L
aL3086727432L
aL2422207100L
aL2982267000L
aL2891765524L
aI1547323284
aL2868414036L
aI23193379
aI24317132
aL3007826561L
aL3185728742L
aI184747966
aI370936374
aI214907297
aL2585467650L
aL3222476537L
aI1536300318
aL3178633350L
aL2571145477L
aI368567631
aL3171345110L
aL2581216328L
aI170959866
aL3059038717L
aL3012561618L
aL3093211627L
aL3145628386L
aI486330030
aL3198824853L
aL2872549194L
aI54073091
aL2498015964L
aI1646567035
aL3146652787L
aI30160168
aL2894575815L
aI30352956
aL3016423437L
aI716044325
aI286623038
aL2165676145L
aI39427853
aL3151136814L
aI538335950
aL2910095129L
aI1256283588
aI1155615906
aI804496860
aL3118052417L
aL2974860331L
aL3027162313L
aI578080378
aL2764756025L
aL3130350443L
aI337256976
aI221497409
aL2836954508L
aI939957144
aL2777263335L
aL2820976196L
aL2882239388L
aL2360567024L
aL2879622916L
aI1116396168
aL2997788563L
aI394070902
aL2893257517L
aL2910093986L
aL2586659816L
aI626112059
aI619503519
aL2204323321L
aI1393954382
aI1444614408
aI183452944
aI1311530952
aL3055461175L
aL3068265128L
aL3068204442L
aL2941360080L
aI1260217123
aL3017798162L
aL2690178710L
aI19278179
aI78527787
aL2919211155L
aL3073478049L
aI1011870476
aL2816742643L
aL3065083689L
aI1115390940
aI444023903
aL2995177537L
aI16199015
aI250162248
aI1095640832
aI55709537
aL2950808648L
aL2448393482L
aL3029257676L
aL2874683992L
aI34282709
aL3032404660L
aL3023687200L
aI182730565
aL3013342860L
aL2303262378L
aI623609049
aI1136112013
aL2951664473L
aL2365184784L
aL2861009808L
aL2738059214L
aI591545878
aI386479524
aI473730704
aL2889063718L
aL2999155086L
aI610185581
aI355841382
aI15897179
aL2830149909L
aI300933390
aL2789640827L
aL2539510376L
aL2585362917L
aI24210409
aI224702087
aL2747445655L
aL2872025813L
aI18319308
aL2922115476L
aI1432896338
aL2504024748L
aL2891366597L
aI21564143
aI303531344
aI260302840
aI561026287
aL2905373234L
aI522254872
aI60673341
aL2776803304L
aL2318407282L
aI1190733404
aL2457626443L
aI872655614
aI14886375
aL2404616068L
aL2909577317L
aI611817117
aI456107944
aL2919976587L
aI1059986966
aasS'obj'
p7
ccopy_reg
_reconstructor
p8
(ctweepy.models
User
p9
c__builtin__
object
p10
Ntp11
Rp12
(dp13
S'follow_request_sent'
p14
I00
sS'has_extended_profile'
p15
I00
sS'profile_use_background_image'
p16
I01
sS'profile_sidebar_fill_color'
p17
VDDEEF6
p18
sS'id'
p19
L2818012008L
sS'verified'
p20
I00
sS'entities'
p21
(dp22
Vurl
p23
(dp24
Vurls
p25
(lp26
(dp27
g23
Vhttp://t.co/u18JC9Z3xU
p28
sVindices
p29
(lp30
I0
aI22
asVexpanded_url
p31
Vhttp://dld.bz/d47FQ
p32
sVdisplay_url
p33
Vdld.bz/d47FQ
p34
sassVdescription
p35
(dp36
g25
(lp37
sssS'profile_image_url_https'
p38
Vhttps://pbs.twimg.com/profile_images/549922512981606401/i5lKKFTa_normal.jpeg
p39
sS'_json'
p40
(dp41
Vfollow_request_sent
p42
I00
sVhas_extended_profile
p43
I00
sVprofile_use_background_image
p44
I01
sVdefault_profile_image
p45
I00
sVid
p46
L2818012008L
sVprofile_background_image_url_https
p47
Vhttps://pbs.twimg.com/profile_background_images/515054762983555072/Ntlr02J5.jpeg
p48
sVverified
p49
I00
sVprofile_text_color
p50
V333333
p51
sVprofile_image_url_https
p52
g39
sVprofile_sidebar_fill_color
p53
g18
sVentities
p54
g22
sVfollowers_count
p55
I407
sVprofile_sidebar_border_color
p56
VFFFFFF
p57
sVid_str
p58
V2818012008
p59
sVprofile_background_color
p60
V0000FF
p61
sVlisted_count
p62
I197
sVstatus
p63
(dp64
Vcontributors
p65
NsVtruncated
p66
I00
sVtext
p67
VFTSE up as market recovery continues: The London market rises strongly as global markets continued to shrug off any\u2026 https://t.co/g1nOn6ZSnT
p68
sVin_reply_to_status_id
p69
Nsg46
L666579130217984000L
sVfavorite_count
p70
I0
sVsource
p71
V<a href="http://dlvr.it" rel="nofollow">dlvr.it</a>
p72
sVretweeted
p73
I00
sVcoordinates
p74
Nsg54
(dp75
Vsymbols
p76
(lp77
sVuser_mentions
p78
(lp79
sVhashtags
p80
(lp81
sg25
(lp82
(dp83
g23
Vhttps://t.co/g1nOn6ZSnT
p84
sg29
(lp85
I117
aI140
asg31
Vhttp://dlvr.it/CmGy9T
p86
sg33
Vdlvr.it/CmGy9T
p87
sassVin_reply_to_screen_name
p88
Nsg58
V666579130217984000
p89
sVretweet_count
p90
I0
sVin_reply_to_user_id
p91
NsVfavorited
p92
I00
sVgeo
p93
NsVin_reply_to_user_id_str
p94
NsVpossibly_sensitive
p95
I00
sVlang
p96
Ven
p97
sVcreated_at
p98
VTue Nov 17 11:30:23 +0000 2015
p99
sVin_reply_to_status_id_str
p100
NsVplace
p101
NssVis_translation_enabled
p102
I00
sVutc_offset
p103
NsVstatuses_count
p104
I68004
sg35
VWe are here to help you to win money in forex trade #forex #binary
p105
sVfriends_count
p106
I5
sVlocation
p107
V
p108
sVprofile_link_color
p109
V0000FF
p110
sVprofile_image_url
p111
Vhttp://pbs.twimg.com/profile_images/549922512981606401/i5lKKFTa_normal.jpeg
p112
sVfollowing
p113
I00
sVgeo_enabled
p114
I00
sVprofile_banner_url
p115
Vhttps://pbs.twimg.com/profile_banners/2818012008/1419946705
p116
sVprofile_background_image_url
p117
Vhttp://pbs.twimg.com/profile_background_images/515054762983555072/Ntlr02J5.jpeg
p118
sVscreen_name
p119
VFridaSizelove
p120
sg96
Ven
p121
sVprofile_background_tile
p122
I01
sVfavourites_count
p123
I366
sVname
p124
VForex First Aids
p125
sVnotifications
p126
I00
sg23
Vhttp://t.co/u18JC9Z3xU
p127
sg98
VThu Sep 18 21:56:11 +0000 2014
p128
sVcontributors_enabled
p129
I00
sVtime_zone
p130
NsVprotected
p131
I00
sVdefault_profile
p132
I00
sVis_translator
p133
I00
ssS'contributors_enabled'
p134
I00
sS'profile_text_color'
p135
g51
sS'followers_count'
p136
I407
sS'profile_sidebar_border_color'
p137
g57
sS'id_str'
p138
g59
sS'default_profile_image'
p139
I00
sS'listed_count'
p140
I197
sS'status'
p141
g8
(ctweepy.models
Status
p142
g10
Ntp143
Rp144
(dp145
S'favorited'
p146
I00
sS'contributors'
p147
NsS'truncated'
p148
I00
sS'text'
p149
g68
sS'source_url'
p150
Vhttp://dlvr.it
p151
sS'possibly_sensitive'
p152
I00
sS'in_reply_to_status_id'
p153
NsS'geo'
p154
Nsg19
L666579130217984000L
sS'favorite_count'
p155
I0
sS'lang'
p156
g97
sg21
g75
sS'created_at'
p157
cdatetime
datetime
p158
(S'\x07\xdf\x0b\x11\x0b\x1e\x17\x00\x00\x00'
p159
tp160
Rp161
sg40
g64
sS'coordinates'
p162
NsS'in_reply_to_user_id_str'
p163
NsS'source'
p164
Vdlvr.it
p165
sS'in_reply_to_status_id_str'
p166
NsS'in_reply_to_screen_name'
p167
Nsg138
g89
sS'retweeted'
p168
I00
sS'place'
p169
NsS'retweet_count'
p170
I0
sS'in_reply_to_user_id'
p171
NsbsS'is_translation_enabled'
p172
I00
sS'utc_offset'
p173
NsS'statuses_count'
p174
I68004
sS'description'
p175
g105
sS'friends_count'
p176
I5
sS'location'
p177
g108
sS'profile_link_color'
p178
g110
sS'profile_image_url'
p179
g112
sS'notifications'
p180
I00
sS'geo_enabled'
p181
I00
sS'profile_background_color'
p182
g61
sS'profile_banner_url'
p183
g116
sS'profile_background_image_url'
p184
g118
sS'screen_name'
p185
g120
sg156
g121
sg1
I00
sS'profile_background_tile'
p186
I01
sS'favourites_count'
p187
I366
sS'name'
p188
g125
sS'url'
p189
g127
sg157
g158
(S'\x07\xde\t\x12\x158\x0b\x00\x00\x00'
p190
tp191
Rp192
sS'profile_background_image_url_https'
p193
g48
sS'time_zone'
p194
NsS'protected'
p195
I00
sS'default_profile'
p196
I00
sS'is_translator'
p197
I00
sbs.