(dp0
S'following'
p1
(lp2
(lp3
I428333
aI18622869
aI40927173
aI2557521
aI234141596
aI12480582
aI15164565
aI1344951
aI26565946
aI95023423
aI19201818
aI23151437
aI16233170
aI17919972
aI15485441
aI34711477
aI5392522
aI26257166
aI2467791
aI571202103
aI972651
aI44196397
aI25521487
aI15838036
aI35773039
aL2303751216L
aI1587113515
aI2735591
aI5695632
aI15846407
aI813286
aI16017475
aI51241574
aI816653
aI9300262
aI11373722
aI1339835893
aI21447363
aasS'followers'
p4
(lp5
(lp6
L3510704774L
aI22400248
aL2338958917L
aL3327855570L
aL4186563074L
aI1169633580
aL3627968296L
aL4078435834L
aI9555372
aL2781050528L
aL3242730568L
aL2531910115L
aL2948124161L
aL3427117813L
aL3917932455L
aL3944869936L
aL2366920327L
aI849328400
aI72743091
aL3955336757L
aL3946770635L
aI18531373
aL3837081315L
aI69268507
aI185850034
aI250317700
aL2697969097L
aL3434346681L
aL2314289604L
aL3111837451L
aI597799971
aI583123413
aL3267307436L
aL2972555345L
aL3655387937L
aL3487921454L
aI108607339
aI362455898
aI26894869
aI1490300052
aL3369348852L
aL2380905156L
aL2910191258L
aI543927894
aL2817966517L
aL3306343245L
aI1087036688
aI405016001
aI197031694
aI124715916
aI20197898
aI317562281
aI842878608
aI281204221
aL3278201701L
aL3180941468L
aI438456805
aI971129101
aI1845191160
aI67626054
aL2929081745L
aL3234805988L
aI285362838
aI200605478
aI1423715634
aI64086616
aI602239220
aI33923443
aI17072544
aI839203880
aL3185728742L
aI249868234
aL3186638576L
aL3179258886L
aI1575923196
aL2390362525L
aI460699161
aL3182614754L
aI1877096592
aL2950762336L
aL2275230932L
aI27350554
aI490667934
aL3214781147L
aL2489757182L
aL3012561618L
aL3195589931L
aI586608839
aL2310585061L
aL2165676145L
aL3128377824L
aI518954841
aI717289250
aL2348545111L
aI526753965
aL3032755711L
aL2972629713L
aI58348481
aL2797825255L
aI90758418
aI253010355
aI117911880
aL3073478049L
aI87909782
aI1286540352
aI120672388
aI1260319494
aI1260316514
aL2538993746L
aL2334841308L
aI595610384
aI595611724
aI595600855
aI595677336
aI595674783
aI595588538
aI1260249386
aI1260231378
aL2901992178L
aL2488828777L
aL3048186575L
aL2963016317L
aL3079193583L
aL2958571745L
aL2958483459L
aL2957424390L
aL2962990487L
aL2962989663L
aL2963011245L
aI1475745116
aL3072011452L
aI96938272
aL3030308568L
aL3063931739L
aL2356107126L
aI107646745
aL2939247824L
aL2730812858L
aI200606324
aI184747966
aI474480658
aI287885364
aL2303262378L
aL3065083689L
aL3065060260L
aL3064934625L
aI485034814
aL2960115582L
aL2958695812L
aL2960110224L
aI239021295
aI82703923
aI1260404346
aI1260286694
aL2221945214L
aI805230144
aI1260349722
aI259258282
aL2932106237L
aL2930797037L
aI33309595
aL2963074702L
aL2958635937L
aL2959553907L
aL2958573947L
aL2958598583L
aL2958524837L
aI1505034776
aI139409630
aL2772244483L
aI533588686
aI345432047
aL2922494459L
aI287966215
aL2594856620L
aI181019528
aI1340428375
aI24150300
aL2946116608L
aI964641726
aI34943146
aI371333260
aI303531344
aI237969452
aI31032391
aL2876963253L
aL2841233056L
aI631592050
aL2921956142L
aI1853262716
aL2866848993L
aL2933882627L
aL2924598544L
aL2876447961L
aI67059625
aI15717762
aI293129222
aL2753440416L
aI487089304
aL2917925022L
aI611817117
aI1612735688
aL2804060112L
aI379172971
aI37197166
aI31369038
aL2406186192L
aL2817697113L
aasS'obj'
p7
ccopy_reg
_reconstructor
p8
(ctweepy.models
User
p9
c__builtin__
object
p10
Ntp11
Rp12
(dp13
S'follow_request_sent'
p14
NsS'has_extended_profile'
p15
I00
sS'profile_use_background_image'
p16
I01
sS'profile_sidebar_fill_color'
p17
VDDEEF6
p18
sS'id'
p19
L2852147156L
sS'verified'
p20
I00
sS'entities'
p21
(dp22
Vdescription
p23
(dp24
Vurls
p25
(lp26
sssS'profile_image_url_https'
p27
Vhttps://pbs.twimg.com/profile_images/521512735733870593/iaoNjoJ6_normal.jpeg
p28
sS'_json'
p29
(dp30
Vfollow_request_sent
p31
NsVhas_extended_profile
p32
I00
sVprofile_use_background_image
p33
I01
sVdefault_profile_image
p34
I00
sVid
p35
L2852147156L
sVprofile_background_image_url_https
p36
Vhttps://abs.twimg.com/images/themes/theme1/bg.png
p37
sVverified
p38
I00
sVprofile_text_color
p39
V333333
p40
sVprofile_image_url_https
p41
g28
sVprofile_sidebar_fill_color
p42
g18
sVentities
p43
g22
sVfollowers_count
p44
I208
sVprofile_sidebar_border_color
p45
VC0DEED
p46
sVid_str
p47
V2852147156
p48
sVprofile_background_color
p49
VC0DEED
p50
sVlisted_count
p51
I58
sVstatus
p52
(dp53
Vcontributors
p54
NsVtruncated
p55
I00
sVtext
p56
Vhttps://t.co/ANv9eBRvTY Will YOU be one of Tim Sykes MILLIONAIRE students in 2015?
p57
sVin_reply_to_status_id
p58
Nsg35
L666321890768621568L
sVfavorite_count
p59
I0
sVsource
p60
V<a href="https://smqueue.com" rel="nofollow">smqueue</a>
p61
sVretweeted
p62
I00
sVcoordinates
p63
Nsg43
(dp64
Vsymbols
p65
(lp66
sVuser_mentions
p67
(lp68
sVhashtags
p69
(lp70
sg25
(lp71
(dp72
Vurl
p73
Vhttps://t.co/ANv9eBRvTY
p74
sVindices
p75
(lp76
I0
aI23
asVexpanded_url
p77
Vhttp://smq.tc/1L9EqiE
p78
sVdisplay_url
p79
Vsmq.tc/1L9EqiE
p80
sassVin_reply_to_screen_name
p81
Nsg47
V666321890768621568
p82
sVretweet_count
p83
I0
sVin_reply_to_user_id
p84
NsVfavorited
p85
I00
sVgeo
p86
NsVin_reply_to_user_id_str
p87
NsVpossibly_sensitive
p88
I00
sVlang
p89
Ven
p90
sVcreated_at
p91
VMon Nov 16 18:28:13 +0000 2015
p92
sVin_reply_to_status_id_str
p93
NsVplace
p94
NssVis_translation_enabled
p95
I00
sVutc_offset
p96
NsVstatuses_count
p97
I21428
sg23
V
p98
sVfriends_count
p99
I38
sVlocation
p100
g98
sVprofile_link_color
p101
V0084B4
p102
sVprofile_image_url
p103
Vhttp://pbs.twimg.com/profile_images/521512735733870593/iaoNjoJ6_normal.jpeg
p104
sVfollowing
p105
NsVgeo_enabled
p106
I00
sVprofile_background_image_url
p107
Vhttp://abs.twimg.com/images/themes/theme1/bg.png
p108
sVscreen_name
p109
VSmallCaps33
p110
sg89
Ven
p111
sVprofile_background_tile
p112
I00
sVfavourites_count
p113
I0
sVname
p114
VSmallCaps 
p115
sVnotifications
p116
Nsg73
Nsg91
VSat Oct 11 15:49:27 +0000 2014
p117
sVcontributors_enabled
p118
I00
sVtime_zone
p119
NsVprotected
p120
I00
sVdefault_profile
p121
I01
sVis_translator
p122
I00
ssS'contributors_enabled'
p123
I00
sS'profile_text_color'
p124
g40
sS'followers_count'
p125
I208
sS'profile_sidebar_border_color'
p126
g46
sS'id_str'
p127
g48
sS'default_profile_image'
p128
I00
sS'listed_count'
p129
I58
sS'status'
p130
g8
(ctweepy.models
Status
p131
g10
Ntp132
Rp133
(dp134
S'favorited'
p135
I00
sS'contributors'
p136
NsS'truncated'
p137
I00
sS'text'
p138
g57
sS'source_url'
p139
Vhttps://smqueue.com
p140
sS'possibly_sensitive'
p141
I00
sS'in_reply_to_status_id'
p142
NsS'geo'
p143
Nsg19
L666321890768621568L
sS'favorite_count'
p144
I0
sS'lang'
p145
g90
sg21
g64
sS'created_at'
p146
cdatetime
datetime
p147
(S'\x07\xdf\x0b\x10\x12\x1c\r\x00\x00\x00'
p148
tp149
Rp150
sg29
g53
sS'coordinates'
p151
NsS'in_reply_to_user_id_str'
p152
NsS'source'
p153
Vsmqueue
p154
sS'in_reply_to_status_id_str'
p155
NsS'in_reply_to_screen_name'
p156
Nsg127
g82
sS'retweeted'
p157
I00
sS'place'
p158
NsS'retweet_count'
p159
I0
sS'in_reply_to_user_id'
p160
NsbsS'is_translation_enabled'
p161
I00
sS'utc_offset'
p162
NsS'statuses_count'
p163
I21428
sS'description'
p164
g98
sS'friends_count'
p165
I38
sS'location'
p166
g98
sS'profile_link_color'
p167
g102
sS'profile_image_url'
p168
g104
sS'notifications'
p169
NsS'geo_enabled'
p170
I00
sS'profile_background_color'
p171
g50
sS'profile_background_image_url'
p172
g108
sS'screen_name'
p173
g110
sg145
g111
sg1
I00
sS'profile_background_tile'
p174
I00
sS'favourites_count'
p175
I0
sS'name'
p176
g115
sS'url'
p177
Nsg146
g147
(S'\x07\xde\n\x0b\x0f1\x1b\x00\x00\x00'
p178
tp179
Rp180
sS'profile_background_image_url_https'
p181
g37
sS'time_zone'
p182
NsS'protected'
p183
I00
sS'default_profile'
p184
I01
sS'is_translator'
p185
I00
sbs.