(dp0
S'following'
p1
(lp2
(lp3
L2196092280L
aI20621761
aI32765534
aI168715580
aI375980238
aL3314956698L
aI331874505
aL3545985801L
aL2777297619L
aI466333756
aL2414221333L
aI7836182
aI42128763
aI463245558
aL3376824064L
aI1700112116
aI28769199
aI20945283
aL2275658568L
aI243691549
aI102225924
aI1152105936
aI27828974
aL2903269091L
aL3437044841L
aI40260791
aI338330795
aI290007133
aI166597717
aI21450325
aL3329821354L
aI65066746
aI1239871513
aI128500019
aI799122090
aI93529573
aL2903843159L
aI14117774
aI545618159
aI16838276
aI1699108975
aI37918984
aL2234758370L
aL3401378877L
aI60113926
aI26583295
aI13298072
aL3126222538L
aI14885549
aI816653
aL3256912730L
aI1265037073
aL2334614718L
aI20468784
aI45564482
aL2400446299L
aI23390520
aI12874852
aL2577380516L
aI22411342
aL2574112584L
aI317359196
aI14218219
aI788333744
aI80697114
aI381929877
aI483195215
aI44196397
aI849617886
aI1272158473
aI15897179
aL3172873878L
aI1935657224
aI1861663298
aI552090046
aI43111757
aI52166809
aI201891203
aI423785819
aI1873136310
aI18433619
aI102527566
aI20779973
aL2270644075L
aL2590675464L
aI1919041363
aI176168308
aI334906414
aI1012429548
aI123125462
aI313494123
aL2614480104L
aI1069486704
aL3082852707L
aI27990259
aI629573379
aL2575229209L
aI297848618
aI119786257
aL3154923455L
aI1347071545
aL3222291459L
aL3097239604L
aL2517112130L
aI121158213
aL2366303634L
aI29748372
aL2845147955L
aL2272207286L
aI1598866891
aL3012483408L
aI1924312855
aI338092984
aL3048189131L
aL2151977851L
aL2368238768L
aL3146648621L
aI782030712
aI316506256
aI106504911
aL2846650551L
aI1475988331
aI1289738107
aI591380208
aI1020171044
aI995324587
aI84444981
aI18962418
aL2192113540L
aI55561590
aI49663664
aI26775476
aL2214818162L
aI30818980
aI14886375
aI14250809
aI160625399
aI209907837
aL3118910976L
aL3157931013L
aL2394624246L
aL3039533031L
aL2850483904L
aL3012561618L
aI1861864687
aI1884073242
aL2678090893L
aI1098320611
aI44060322
aI192668889
aI594183579
aL3040832363L
aI1499852552
aI397230151
aI983655260
aI428653913
aL2264634042L
aI7455352
aI70498392
aI331677065
aI18341423
aI53215424
aI14714176
aI18560146
aL3119023021L
aI928967952
aI72928001
aI23059499
aI475524030
aI1705766478
aL2484732544L
aI15281391
aL2149877280L
aL2983471170L
aI1673759539
aL2980444787L
aI1690759518
aL2253557707L
aI403855355
aI15081753
aI82720126
aI337604235
aL2836547152L
aL2207911246L
aI37284991
aI1367765233
aI14905769
aI16974180
aI98875425
aL2186813068L
aL2923588267L
aL2364889134L
aL2311328749L
aL2303053614L
aL2920012368L
aI1017064800
aL2721672258L
aI1882731782
aI1370308412
aI586734515
aI19143910
aI288236378
aI760622101
aI17794461
aI47247213
aL2933882627L
aI7557352
aI100024370
aI14216123
aI611817117
aL2902568457L
aI23003843
aI61342056
aI805230144
aL2753440416L
aL2341525668L
aI709430142
aI30599331
aI1683557208
aI84402174
aI966726223
aI16816021
aI1187422273
aI32570672
aI1883588876
aL2858509684L
aL2216333869L
aL2172423304L
aL2209059758L
aI430146714
aI305613857
aI332966319
aI336754754
aI223162381
aL2836885805L
aL2181373892L
aI790062926
aI1565751108
aL2561710956L
aI179959497
aI47993676
aL2463277092L
aL2463371525L
aI97732452
aL2426471287L
aI19332279
aI146993421
aI126640430
aI14902429
aI704219118
aL2462874699L
aI26257166
aI148272213
aI613876677
aL2228460174L
aI92827686
aI221812317
aI37469211
aasS'followers'
p4
(lp5
(lp6
I1478869458
aL2992414321L
aI90970076
aI607549241
aI48486244
aL4140113353L
aI42912883
aI1923947209
aL4120054337L
aI1576828351
aI311654967
aI19349963
aI1183838114
aI35784526
aL2777297619L
aI394704777
aI1884628062
aL2559876024L
aL2445064535L
aI604610969
aL3185673666L
aI819738901
aI100767876
aI290007133
aI126640430
aI201400755
aL3413745915L
aI128500019
aL3434373489L
aL3154923455L
aL3422023480L
aL3298760562L
aL2716390790L
aI1343302134
aL2993148593L
aI43111757
aI1861663298
aL3040832363L
aL3172873878L
aL2590675464L
aI15897179
aL3192472578L
aI444023903
aI1272158473
aL3082852707L
aI629573379
aI121158213
aL2517112130L
aL3097239604L
aL2845147955L
aI338092984
aI1924312855
aL3012483408L
aL2151977851L
aL3048189131L
aL3146648621L
aI316506256
aI18962418
aI84444981
aI14886375
aL3118910976L
aL2678090893L
aI1884073242
aI1861864687
aL3012561618L
aL3039533031L
aL3152920558L
aL2888753306L
aI472406134
aI1705766478
aL2149877280L
aI1673759539
aL2253557707L
aL3073478049L
aI189929204
aL3065083689L
aI1444614408
aL3065591250L
aI1690759518
aL3005774362L
aL2332137835L
aI16841829
aL2983471170L
aI1370308412
aI1882731782
aI14902429
aI1017064800
aL2303053614L
aL2206178144L
aL2933882627L
aI134903138
aI468804791
aL2364889134L
aL2311328749L
aL2912541034L
aI213142210
aI611817117
aI805230144
aL2902568457L
aI37469211
aI709430142
aL2341525668L
aL2753440416L
aL2836885805L
aI223162381
aI336754754
aI92827686
aL2561710956L
aI332966319
aI305613857
aI221812317
aI430146714
aL2209059758L
aL2172423304L
aI704219118
aasS'obj'
p7
ccopy_reg
_reconstructor
p8
(ctweepy.models
User
p9
c__builtin__
object
p10
Ntp11
Rp12
(dp13
S'follow_request_sent'
p14
NsS'has_extended_profile'
p15
I00
sS'profile_use_background_image'
p16
I01
sS'profile_sidebar_fill_color'
p17
VDDEEF6
p18
sS'id'
p19
L2862909478L
sS'verified'
p20
I00
sS'entities'
p21
(dp22
Vdescription
p23
(dp24
Vurls
p25
(lp26
sssS'profile_image_url_https'
p27
Vhttps://abs.twimg.com/sticky/default_profile_images/default_profile_2_normal.png
p28
sS'_json'
p29
(dp30
Vfollow_request_sent
p31
NsVhas_extended_profile
p32
I00
sVprofile_use_background_image
p33
I01
sVdefault_profile_image
p34
I01
sVid
p35
L2862909478L
sVprofile_background_image_url_https
p36
Vhttps://abs.twimg.com/images/themes/theme1/bg.png
p37
sVverified
p38
I00
sVprofile_text_color
p39
V333333
p40
sVprofile_image_url_https
p41
g28
sVprofile_sidebar_fill_color
p42
g18
sVentities
p43
g22
sVfollowers_count
p44
I115
sVprofile_sidebar_border_color
p45
VC0DEED
p46
sVid_str
p47
V2862909478
p48
sVprofile_background_color
p49
VC0DEED
p50
sVlisted_count
p51
I15
sVstatus
p52
(dp53
Vcontributors
p54
NsVtruncated
p55
I00
sVtext
p56
VRT @Forbes: The BlackBerry Priv is an impressive (but somewhat sad) comeback https://t.co/tH4sAYq9o5 https://t.co/3eD8faac9s
p57
sVin_reply_to_status_id
p58
Nsg35
L665907749344120832L
sVfavorite_count
p59
I0
sVsource
p60
V<a href="http://twitter.com" rel="nofollow">Twitter Web Client</a>
p61
sVretweeted
p62
I00
sVcoordinates
p63
Nsg43
(dp64
Vsymbols
p65
(lp66
sVuser_mentions
p67
(lp68
(dp69
g35
I91478624
sVindices
p70
(lp71
I3
aI10
asg47
V91478624
p72
sVscreen_name
p73
VForbes
p74
sVname
p75
VForbes
p76
sasVhashtags
p77
(lp78
sg25
(lp79
(dp80
Vurl
p81
Vhttps://t.co/tH4sAYq9o5
p82
sg70
(lp83
I77
aI100
asVexpanded_url
p84
Vhttp://onforb.es/1NLZlwb
p85
sVdisplay_url
p86
Vonforb.es/1NLZlwb
p87
sasVmedia
p88
(lp89
(dp90
Vsource_user_id
p91
I91478624
sVsource_status_id_str
p92
V665892257187368960
p93
sg84
Vhttp://twitter.com/Forbes/status/665892257187368960/photo/1
p94
sg86
Vpic.twitter.com/3eD8faac9s
p95
sg81
Vhttps://t.co/3eD8faac9s
p96
sVmedia_url_https
p97
Vhttps://pbs.twimg.com/media/CT25etJWsAEnrll.jpg
p98
sVsource_user_id_str
p99
V91478624
p100
sVsource_status_id
p101
L665892257187368960L
sg47
V665892257086746625
p102
sVsizes
p103
(dp104
Vsmall
p105
(dp106
Vh
p107
I194
sVresize
p108
Vfit
p109
sVw
p110
I340
ssVlarge
p111
(dp112
g107
I585
sg108
Vfit
p113
sg110
I1024
ssVmedium
p114
(dp115
g107
I342
sg108
Vfit
p116
sg110
I600
ssVthumb
p117
(dp118
g107
I150
sg108
Vcrop
p119
sg110
I150
sssg70
(lp120
I101
aI124
asVtype
p121
Vphoto
p122
sg35
L665892257086746625L
sVmedia_url
p123
Vhttp://pbs.twimg.com/media/CT25etJWsAEnrll.jpg
p124
sassVin_reply_to_screen_name
p125
Nsg47
V665907749344120832
p126
sVretweet_count
p127
I91
sVin_reply_to_user_id
p128
NsVfavorited
p129
I00
sVretweeted_status
p130
(dp131
g54
Nsg55
I00
sg56
VThe BlackBerry Priv is an impressive (but somewhat sad) comeback https://t.co/tH4sAYq9o5 https://t.co/3eD8faac9s
p132
sg58
Nsg35
L665892257187368960L
sg59
I88
sg60
V<a href="http://www.sprinklr.com" rel="nofollow">Sprinklr</a>
p133
sg62
I00
sg63
Nsg43
(dp134
g65
(lp135
sg67
(lp136
sg77
(lp137
sg25
(lp138
(dp139
g81
Vhttps://t.co/tH4sAYq9o5
p140
sg70
(lp141
I65
aI88
asg84
Vhttp://onforb.es/1NLZlwb
p142
sg86
Vonforb.es/1NLZlwb
p143
sasg88
(lp144
(dp145
g84
Vhttp://twitter.com/Forbes/status/665892257187368960/photo/1
p146
sg86
Vpic.twitter.com/3eD8faac9s
p147
sg81
Vhttps://t.co/3eD8faac9s
p148
sg97
Vhttps://pbs.twimg.com/media/CT25etJWsAEnrll.jpg
p149
sg47
V665892257086746625
p150
sg103
(dp151
g105
(dp152
g107
I194
sg108
Vfit
p153
sg110
I340
ssg111
(dp154
g107
I585
sg108
Vfit
p155
sg110
I1024
ssg114
(dp156
g107
I342
sg108
Vfit
p157
sg110
I600
ssg117
(dp158
g107
I150
sg108
Vcrop
p159
sg110
I150
sssg70
(lp160
I89
aI112
asg121
Vphoto
p161
sg35
L665892257086746625L
sg123
Vhttp://pbs.twimg.com/media/CT25etJWsAEnrll.jpg
p162
sassg125
Nsg47
V665892257187368960
p163
sg127
I91
sg128
Nsg129
I00
sVgeo
p164
NsVin_reply_to_user_id_str
p165
NsVpossibly_sensitive
p166
I00
sVlang
p167
Ven
p168
sVcreated_at
p169
VSun Nov 15 14:01:00 +0000 2015
p170
sVin_reply_to_status_id_str
p171
NsVplace
p172
Nssg164
Nsg165
Nsg166
I00
sg167
Ven
p173
sg169
VSun Nov 15 15:02:34 +0000 2015
p174
sg171
Nsg172
NssVis_translation_enabled
p175
I00
sVutc_offset
p176
NsVstatuses_count
p177
I1246
sg23
VSeeking personal financial sustainability. Trading Options without emotion is one of the key tools!
p178
sVfriends_count
p179
I258
sVlocation
p180
V
p181
sVprofile_link_color
p182
V0084B4
p183
sVprofile_image_url
p184
Vhttp://abs.twimg.com/sticky/default_profile_images/default_profile_2_normal.png
p185
sVfollowing
p186
NsVgeo_enabled
p187
I00
sVprofile_background_image_url
p188
Vhttp://abs.twimg.com/images/themes/theme1/bg.png
p189
sg73
VMB_North
p190
sg167
Ven
p191
sVprofile_background_tile
p192
I00
sVfavourites_count
p193
I918
sg75
VMB North
p194
sVnotifications
p195
Nsg81
Nsg169
VWed Nov 05 17:35:22 +0000 2014
p196
sVcontributors_enabled
p197
I00
sVtime_zone
p198
NsVprotected
p199
I00
sVdefault_profile
p200
I01
sVis_translator
p201
I00
ssS'contributors_enabled'
p202
I00
sS'profile_text_color'
p203
g40
sS'followers_count'
p204
I115
sS'profile_sidebar_border_color'
p205
g46
sS'id_str'
p206
g48
sS'default_profile_image'
p207
I01
sS'listed_count'
p208
I15
sS'status'
p209
g8
(ctweepy.models
Status
p210
g10
Ntp211
Rp212
(dp213
S'favorited'
p214
I00
sS'contributors'
p215
NsS'truncated'
p216
I00
sS'text'
p217
g57
sS'source_url'
p218
Vhttp://twitter.com
p219
sS'possibly_sensitive'
p220
I00
sS'in_reply_to_status_id'
p221
NsS'geo'
p222
Nsg19
L665907749344120832L
sS'favorite_count'
p223
I0
sS'lang'
p224
g173
sS'retweeted_status'
p225
g8
(g210
g10
Ntp226
Rp227
(dp228
g214
I00
sg215
Nsg216
I00
sg217
g132
sg218
Vhttp://www.sprinklr.com
p229
sg220
I00
sg221
Nsg222
Nsg19
L665892257187368960L
sg223
I88
sg224
g168
sg21
g134
sS'created_at'
p230
cdatetime
datetime
p231
(S'\x07\xdf\x0b\x0f\x0e\x01\x00\x00\x00\x00'
p232
tp233
Rp234
sg29
g131
sS'coordinates'
p235
NsS'in_reply_to_user_id_str'
p236
NsS'source'
p237
VSprinklr
p238
sS'in_reply_to_status_id_str'
p239
NsS'in_reply_to_screen_name'
p240
Nsg206
g163
sS'retweeted'
p241
I00
sS'place'
p242
NsS'retweet_count'
p243
I91
sS'in_reply_to_user_id'
p244
Nsbsg21
g64
sg230
g231
(S'\x07\xdf\x0b\x0f\x0f\x02"\x00\x00\x00'
p245
tp246
Rp247
sg29
g53
sg235
Nsg236
Nsg237
VTwitter Web Client
p248
sg239
Nsg240
Nsg206
g126
sg241
I00
sg242
Nsg243
I91
sg244
NsbsS'is_translation_enabled'
p249
I00
sS'utc_offset'
p250
NsS'statuses_count'
p251
I1246
sS'description'
p252
g178
sS'friends_count'
p253
I258
sS'location'
p254
g181
sS'profile_link_color'
p255
g183
sS'profile_image_url'
p256
g185
sS'notifications'
p257
NsS'geo_enabled'
p258
I00
sS'profile_background_color'
p259
g50
sS'profile_background_image_url'
p260
g189
sS'screen_name'
p261
g190
sg224
g191
sg1
I00
sS'profile_background_tile'
p262
I00
sS'favourites_count'
p263
I918
sS'name'
p264
g194
sS'url'
p265
Nsg230
g231
(S'\x07\xde\x0b\x05\x11#\x16\x00\x00\x00'
p266
tp267
Rp268
sS'profile_background_image_url_https'
p269
g37
sS'time_zone'
p270
NsS'protected'
p271
I00
sS'default_profile'
p272
I01
sS'is_translator'
p273
I00
sbs.