(dp0
S'following'
p1
(lp2
(lp3
I204288105
aI1527698995
aI550435987
aL2425290367L
aI354990034
aI53384692
aI20562637
aL2350210578L
aI134196350
aI306932184
aI589402216
aI191072401
aI23503181
aI12804862
aI287163355
aI19017675
aI1553967708
aI313627424
aL3087382702L
aL2670802116L
aI494456296
aL3107882610L
aL2721198895L
aL2788102087L
aL2724205764L
aI1769665736
aL2907339209L
aL2870386570L
aI14941706
aL3673860676L
aL3488679193L
aI16977308
aI1540784461
aI417870191
aI580952962
aI274567862
aI89203746
aI19802879
aI11348282
aI338116414
aI542020715
aI619808041
aI15078840
aI17956430
aI926234035
aI38993997
aI14677919
aI434495726
aI529167143
aI430844178
aL3590340029L
aI19826509
aI254588999
aI1046394948
aI406412037
aI107692141
aI479049463
aI599959009
aI28356775
aI19588834
aI6636292
aI823480784
aI72315055
aI17191666
aI28785486
aI15841461
aI101002059
aI14856056
aL3369161297L
aI431538314
aI296758462
aL3216217193L
aI237670656
aI398359939
aI515742122
aI820190174
aI164667958
aI68440549
aI24744541
aI1726221876
aI91581385
aI18138592
aI69002929
aI18213483
aI16153562
aI279390084
aI16589206
aI104543713
aI229818676
aI32868339
aI251035534
aI268283495
aI16343974
aI12398022
aI612473
aI10080132
aI16973333
aI28134618
aI332221073
aI6017542
aI14788231
aI1877831
aI26792275
aI495523644
aI17990493
aI378879871
aI330866199
aI391244120
aI36390474
aI576332974
aI590104531
aI2467791
aI98872288
aI16664681
aI88252218
aI424164598
aI767266068
aI521225288
aI119014566
aI158003436
aI404853768
aI51241574
aI408566492
aI249601317
aI84940241
aL2614020535L
aI117359191
aI593672548
aI2097571
aI87416722
aI7587032
aI15108702
aI18424289
aI64643056
aI21523394
aI103317494
aI28565356
aI813286
aI797882532
aI241841245
aI320105721
aI863763380
aI76015405
aI545165129
aI118664394
aI200034893
aI17462252
aI131500587
aI186060772
aI19284221
aI27931380
aI23296450
aI17389650
aI535244030
aI75838070
aI205283811
aI134812919
aI83656002
aI1446376111
aI1111010898
aI1487529990
aI36327891
aI306760808
aI14638433
aI70340615
aI73961837
aI30687754
aI55588504
aI136333369
aI56413858
aL2992395456L
aI404196766
aI193602484
aI18856867
aI296888983
aI19811190
aI104237736
aI362675997
aL2900791006L
aI35002876
aL2814643357L
aL2975032769L
aI403331236
aI226682112
aI21334179
aI18762875
aI889814352
aI5402612
aI18735538
aI428333
aI15754281
aI14173315
aI180463340
aI101798589
aI14936610
aI759251
aI44845906
aI807095
aI18949452
aI3108351
aI5120691
aI5988062
aI17006157
aI65647594
aI533082734
aI304909941
aI74543190
aL2180126766L
aI196994616
aI226159061
aI17675072
aI1960825746
aI169426475
aI29422232
aI415625348
aI1931711646
aI16081046
aI38254634
aI40129171
aI116763916
aI384185813
aI86978402
aI20374262
aI130649891
aI626384623
aL2811592789L
aL2375082775L
aI405446739
aI205437050
aI65416867
aI327267369
aI191083600
aI22193599
aI601081092
aI373909732
aI278020879
aI402920490
aI537175155
aI806736306
aI202140100
aI289527193
aI239760107
aI10228272
aI231807647
aI823905
aI80052046
aI791635
aI18934391
aI39490506
aI297963914
aL2292454922L
aI104298598
aI52732962
aI562675766
aI334602996
aI896382234
aI197347851
aI385411771
aI124690469
aI54598058
aI11178902
aI87818409
aI14293310
aI742143
aI16888662
aI184490665
aI137041926
aI130884030
aI36340966
aI58984091
aI50226100
aL2396583270L
aI549980265
aL2493921258L
aI64715932
aI5225991
aI23734018
aI89211580
aI137645230
aI19066345
aI266178979
aasS'followers'
p4
(lp5
(lp6
L2846899193L
aI1527698995
aL2455699770L
aI285519681
aI193022212
aI617763192
aL3533517315L
aI23181999
aI1540784461
aI417870191
aI542020715
aI619808041
aI16977308
aI17956430
aL3488679193L
aL3673860676L
aI14941706
aI327267369
aL2870386570L
aI107692141
aI599959009
aL3300518322L
aI17010913
aI88252218
aL2907339209L
aL3369161297L
aI1769665736
aI431538314
aL3216217193L
aI1726221876
aL2724205764L
aL2893895981L
aL2614020535L
aI797882532
aI38254634
aI863763380
aL2788102087L
aI545165129
aI236988090
aL2721198895L
aI55588504
aI84940241
aI73961837
aI44845906
aI30687754
aL3107882610L
aI494456296
aL3305551481L
aI1513592192
aL3238729424L
aI601081092
aL3289973211L
aL2670802116L
aI274567862
aL3087382702L
aI580952962
aasS'obj'
p7
ccopy_reg
_reconstructor
p8
(ctweepy.models
User
p9
c__builtin__
object
p10
Ntp11
Rp12
(dp13
S'follow_request_sent'
p14
NsS'has_extended_profile'
p15
I00
sS'profile_use_background_image'
p16
I00
sS'profile_sidebar_fill_color'
p17
V000000
p18
sS'id'
p19
L2874364528L
sS'verified'
p20
I00
sS'entities'
p21
(dp22
Vurl
p23
(dp24
Vurls
p25
(lp26
(dp27
g23
Vhttps://t.co/5gEetdI0NN
p28
sVindices
p29
(lp30
I0
aI23
asVexpanded_url
p31
Vhttps://www.facebook.com/eleonora.aggelou
p32
sVdisplay_url
p33
Vfacebook.com/eleonora.aggel\u2026
p34
sassVdescription
p35
(dp36
g25
(lp37
sssS'profile_image_url_https'
p38
Vhttps://pbs.twimg.com/profile_images/620339773056487425/CuC0Z3GJ_normal.jpg
p39
sS'_json'
p40
(dp41
Vfollow_request_sent
p42
NsVhas_extended_profile
p43
I00
sVprofile_use_background_image
p44
I00
sVdefault_profile_image
p45
I00
sVid
p46
L2874364528L
sVprofile_background_image_url_https
p47
Vhttps://abs.twimg.com/images/themes/theme1/bg.png
p48
sVverified
p49
I00
sVprofile_text_color
p50
V000000
p51
sVprofile_image_url_https
p52
g39
sVprofile_sidebar_fill_color
p53
g18
sVentities
p54
g22
sVfollowers_count
p55
I56
sVprofile_sidebar_border_color
p56
V000000
p57
sVid_str
p58
V2874364528
p59
sVprofile_background_color
p60
V000000
p61
sVlisted_count
p62
I0
sVstatus
p63
(dp64
Vcontributors
p65
NsVtruncated
p66
I00
sVtext
p67
VRT @roides: 17 \u039d\u03bf\u03b5. 1973: \u03a4\u03b9\u03bc\u03ae \u03ba\u03c5\u03c1\u03af\u03c9\u03c2 \u03c3\u03c4\u03bf\u03c5\u03c2 \u0391\u03bd\u03ce\u03bd\u03c5\u03bc\u03bf\u03c5\u03c2. \u0394\u03b5\u03bd \u03b5\u03be\u03b1\u03c1\u03b3\u03cd\u03c1\u03c9\u03c3\u03b1\u03bd \u03ba\u03b1\u03bc\u03af\u03b1 \u03bb\u03b5\u03c5\u03ba\u03ae \u03b5\u03c0\u03b9\u03c4\u03b1\u03b3\u03ae. https://t.co/AnrdZRY9ZS
p68
sVin_reply_to_status_id
p69
Nsg46
L666552227537006592L
sVfavorite_count
p70
I0
sVsource
p71
V<a href="http://twitter.com/download/android" rel="nofollow">Twitter for Android</a>
p72
sVretweeted
p73
I00
sVcoordinates
p74
Nsg54
(dp75
Vsymbols
p76
(lp77
sVuser_mentions
p78
(lp79
(dp80
g46
I17956430
sg29
(lp81
I3
aI10
asg58
V17956430
p82
sVscreen_name
p83
Vroides
p84
sVname
p85
V\u03a1\u03bf\u0390\u03b4\u03b7 \u0395\u03bc\u03bc\u03bf\u03bd\u03ad\u03c2
p86
sasVhashtags
p87
(lp88
sg25
(lp89
(dp90
g23
Vhttps://t.co/AnrdZRY9ZS
p91
sg29
(lp92
I92
aI115
asg31
Vhttp://wp.me/s1aA3-17nov08
p93
sg33
Vwp.me/s1aA3-17nov08
p94
sassVin_reply_to_screen_name
p95
Nsg58
V666552227537006592
p96
sVretweet_count
p97
I1
sVin_reply_to_user_id
p98
NsVfavorited
p99
I00
sVretweeted_status
p100
(dp101
g65
Nsg66
I00
sg67
V17 \u039d\u03bf\u03b5. 1973: \u03a4\u03b9\u03bc\u03ae \u03ba\u03c5\u03c1\u03af\u03c9\u03c2 \u03c3\u03c4\u03bf\u03c5\u03c2 \u0391\u03bd\u03ce\u03bd\u03c5\u03bc\u03bf\u03c5\u03c2. \u0394\u03b5\u03bd \u03b5\u03be\u03b1\u03c1\u03b3\u03cd\u03c1\u03c9\u03c3\u03b1\u03bd \u03ba\u03b1\u03bc\u03af\u03b1 \u03bb\u03b5\u03c5\u03ba\u03ae \u03b5\u03c0\u03b9\u03c4\u03b1\u03b3\u03ae. https://t.co/AnrdZRY9ZS
p102
sg69
Nsg46
L666552165608103936L
sg70
I1
sg71
V<a href="http://twitter.com" rel="nofollow">Twitter Web Client</a>
p103
sg73
I00
sg74
Nsg54
(dp104
g76
(lp105
sg78
(lp106
sg87
(lp107
sg25
(lp108
(dp109
g23
Vhttps://t.co/AnrdZRY9ZS
p110
sg29
(lp111
I80
aI103
asg31
Vhttp://wp.me/s1aA3-17nov08
p112
sg33
Vwp.me/s1aA3-17nov08
p113
sassg95
Nsg58
V666552165608103936
p114
sg97
I1
sg98
Nsg99
I00
sVgeo
p115
NsVin_reply_to_user_id_str
p116
NsVpossibly_sensitive
p117
I00
sVlang
p118
Vel
p119
sVcreated_at
p120
VTue Nov 17 09:43:14 +0000 2015
p121
sVin_reply_to_status_id_str
p122
NsVplace
p123
Nssg115
Nsg116
Nsg117
I00
sg118
Vel
p124
sg120
VTue Nov 17 09:43:29 +0000 2015
p125
sg122
Nsg123
NssVis_translation_enabled
p126
I00
sVutc_offset
p127
NsVstatuses_count
p128
I698
sg35
VRadio-producer Sorbonne  IV   vincennes  cinema comparative litterature
p129
sVfriends_count
p130
I281
sVlocation
p131
V\u0391\u03c4\u03c4\u03b9\u03ba\u03ae, \u0395\u03bb\u03bb\u03ac\u03c2
p132
sVprofile_link_color
p133
V3B94D9
p134
sVprofile_image_url
p135
Vhttp://pbs.twimg.com/profile_images/620339773056487425/CuC0Z3GJ_normal.jpg
p136
sVfollowing
p137
NsVgeo_enabled
p138
I00
sVprofile_banner_url
p139
Vhttps://pbs.twimg.com/profile_banners/2874364528/1435162715
p140
sVprofile_background_image_url
p141
Vhttp://abs.twimg.com/images/themes/theme1/bg.png
p142
sg83
Veleonoragg1
p143
sg118
Vel
p144
sVprofile_background_tile
p145
I00
sVfavourites_count
p146
I394
sg85
Veleonoragg@
p147
sVnotifications
p148
Nsg23
Vhttps://t.co/5gEetdI0NN
p149
sg120
VWed Nov 12 22:04:56 +0000 2014
p150
sVcontributors_enabled
p151
I00
sVtime_zone
p152
NsVprotected
p153
I00
sVdefault_profile
p154
I00
sVis_translator
p155
I00
ssS'contributors_enabled'
p156
I00
sS'profile_text_color'
p157
g51
sS'followers_count'
p158
I56
sS'profile_sidebar_border_color'
p159
g57
sS'id_str'
p160
g59
sS'default_profile_image'
p161
I00
sS'listed_count'
p162
I0
sS'status'
p163
g8
(ctweepy.models
Status
p164
g10
Ntp165
Rp166
(dp167
S'favorited'
p168
I00
sS'contributors'
p169
NsS'truncated'
p170
I00
sS'text'
p171
g68
sS'source_url'
p172
Vhttp://twitter.com/download/android
p173
sS'possibly_sensitive'
p174
I00
sS'in_reply_to_status_id'
p175
NsS'geo'
p176
Nsg19
L666552227537006592L
sS'favorite_count'
p177
I0
sS'lang'
p178
g124
sS'retweeted_status'
p179
g8
(g164
g10
Ntp180
Rp181
(dp182
g168
I00
sg169
Nsg170
I00
sg171
g102
sg172
Vhttp://twitter.com
p183
sg174
I00
sg175
Nsg176
Nsg19
L666552165608103936L
sg177
I1
sg178
g119
sg21
g104
sS'created_at'
p184
cdatetime
datetime
p185
(S'\x07\xdf\x0b\x11\t+\x0e\x00\x00\x00'
p186
tp187
Rp188
sg40
g101
sS'coordinates'
p189
NsS'in_reply_to_user_id_str'
p190
NsS'source'
p191
VTwitter Web Client
p192
sS'in_reply_to_status_id_str'
p193
NsS'in_reply_to_screen_name'
p194
Nsg160
g114
sS'retweeted'
p195
I00
sS'place'
p196
NsS'retweet_count'
p197
I1
sS'in_reply_to_user_id'
p198
Nsbsg21
g75
sg184
g185
(S'\x07\xdf\x0b\x11\t+\x1d\x00\x00\x00'
p199
tp200
Rp201
sg40
g64
sg189
Nsg190
Nsg191
VTwitter for Android
p202
sg193
Nsg194
Nsg160
g96
sg195
I00
sg196
Nsg197
I1
sg198
NsbsS'is_translation_enabled'
p203
I00
sS'utc_offset'
p204
NsS'statuses_count'
p205
I698
sS'description'
p206
g129
sS'friends_count'
p207
I281
sS'location'
p208
g132
sS'profile_link_color'
p209
g134
sS'profile_image_url'
p210
g136
sS'notifications'
p211
NsS'geo_enabled'
p212
I00
sS'profile_background_color'
p213
g61
sS'profile_banner_url'
p214
g140
sS'profile_background_image_url'
p215
g142
sS'screen_name'
p216
g143
sg178
g144
sg1
I00
sS'profile_background_tile'
p217
I00
sS'favourites_count'
p218
I394
sS'name'
p219
g147
sS'url'
p220
g149
sg184
g185
(S'\x07\xde\x0b\x0c\x16\x048\x00\x00\x00'
p221
tp222
Rp223
sS'profile_background_image_url_https'
p224
g48
sS'time_zone'
p225
NsS'protected'
p226
I00
sS'default_profile'
p227
I00
sS'is_translator'
p228
I00
sbs.