(dp0
S'following'
p1
(lp2
(lp3
I933724590
aI473451684
aI74829888
aL2992367496L
aI355253120
aI191457824
aI59127949
aL3162856855L
aI314252038
aI31567908
aI556495763
aI5772422
aI21217761
aL2950883448L
aI15851807
aI15696452
aI22321177
aI14212297
aI53412892
aI96649525
aI387284344
aI7703502
aI432380438
aI478590974
aI353713936
aI30650538
aI72966473
aI28883393
aI86587430
aI18713472
aI32161771
aL2475600926L
aI91254628
aI471723264
aI117704067
aI961797541
aI18596193
aL3518074754L
aI44429768
aI983655260
aL3448648348L
aI597104499
aI1345672002
aI1399951764
aI167002981
aI24680689
aL2552639978L
aL3545985801L
aI1473431
aI466333756
aI496997835
aI292777349
aI247857712
aI196915818
aI39294671
aI469878700
aI338532559
aL3306097851L
aI323485909
aI19399038
aI203652149
aL3133951304L
aI16359602
aL2950028089L
aI168715580
aI17549691
aI27162339
aI21232827
aI49663664
aI1087194962
aI202915788
aI10381282
aI224466293
aI267867165
aI29748372
aI151180287
aI7520262
aI471121755
aL2544196878L
aI545618159
aI21277169
aI60705191
aL2334614718L
aI27093808
aI714051110
aI378071379
aI1413027896
aI1499852552
aI397230151
aI253168011
aI58808528
aI24656325
aI264370502
aI600378539
aI17213701
aI456107944
aI61342056
aI37284991
aI52166809
aI27771267
aasS'followers'
p4
(lp5
(lp6
I28883393
aI311654967
aL3973914014L
aL3389592003L
aL4150900035L
aL2862870568L
aL3162856855L
aL2950883448L
aI53412892
aL3240812953L
aI387284344
aI353713936
aI42912883
aL4120054337L
aL3736009873L
aL2251342008L
aL2394624246L
aL3325074547L
aI191576657
aL3242704821L
aI1183838114
aL2893451404L
aL3448648348L
aL3776036001L
aI819738901
aL3165625278L
aL3731684356L
aL3610291095L
aL3294926930L
aI158919603
aL3364269860L
aI1286540352
aL3305558623L
aL3128522824L
aI273984441
aL3434373489L
aL3306097851L
aL2342456412L
aL2840769269L
aI720567793
aL3133951304L
aI365486507
aL2950028089L
aL2856187659L
aI108746318
aI84239264
aI975049242
aI1554371179
aI266939018
aI388024471
aI32912028
aL3032181655L
aL3303807173L
aI68689464
aI449690964
aI1510539757
aI17369018
aL2545027398L
aI1849602494
aI323156338
aL3281283650L
aL3080651117L
aI383077253
aL3154197913L
aI41124850
aL3273905124L
aL3253895028L
aL2901509361L
aL3255138069L
aL2906919321L
aL3371696939L
aL3275668766L
aI28039035
aI84909450
aI18927694
aI971129101
aI1223957954
aL3311093805L
aI1431277686
aL3239723099L
aI14886375
aI16829114
aL2922234899L
aL3196694996L
aL2737831537L
aI302786319
aL3225980770L
aL3225915467L
aI1668484898
aI364247068
aI420501589
aL2902533176L
aL2510902124L
aI329908955
aI1591684279
aI187210094
aI1395076646
aL3012483408L
aI611817117
aI18218081
aL2316310555L
aI537007259
aI217092885
aI105492055
aI138138032
aI1884629635
aL2654428027L
aL2999596232L
aI258097592
aI1909321302
aI1975315776
aL2961171227L
aI176168308
aI208554104
aL2846061576L
aI60429918
aL2893263672L
aI142134602
aL2369056889L
aL2357901960L
aI1467804924
aL2400796212L
aL2363006780L
aI14579415
aL2382538321L
aI1805986292
aL2511518101L
aI239140770
aI1484162798
aI474480658
aI1475988331
aL2551164451L
aI184391585
aI887742882
aL2720068988L
aI1705766478
aI159826858
aI315002750
aI14872511
aI546461655
aL2335870220L
aL2590939290L
aI126640430
aI20819836
aI456107944
aI1724736468
aI1364357150
aI1246265136
aL2296961192L
aI1624582110
aL2415540500L
aI532777973
aI805230144
aI242607215
aL2202032833L
aI423855705
aI61615855
aI1232252863
aI1683065671
aI1714110888
aI1702482906
aI1518763268
aI597836754
aI13270942
aI70498392
aI1029565657
aI955994148
aI272089043
aI454890242
aI21513999
aI1035157897
aI276736119
aI970873088
aI595184823
aI930965670
aI622600917
aI253870749
aI876495804
aI832323348
aI813892982
aI252688800
aI110727546
aI35954053
aI799739234
aI78789634
aI16670996
aI27054529
aI19154824
aI508357217
aI16098881
aI703010868
aI520523646
aI411542706
aI28706561
aI24908147
aI549435082
aI481827822
aI35644275
aI490216779
aI374416590
aI338259674
aI19966431
aI430155874
aI481134005
aI396718198
aI414919607
aI31445335
aI385601257
aI19131492
aI407026231
aI395201174
aI334512515
aI384931945
aI378930897
aI23390520
aI246564392
aI160150045
aI361819505
aI184881902
aI249859591
aI355921564
aI333278473
aI215645831
aI305180614
aI233665139
aI300969604
aI70369671
aI299794960
aI91418281
aI293610032
aI288817343
aasS'obj'
p7
ccopy_reg
_reconstructor
p8
(ctweepy.models
User
p9
c__builtin__
object
p10
Ntp11
Rp12
(dp13
S'follow_request_sent'
p14
NsS'has_extended_profile'
p15
I00
sS'profile_use_background_image'
p16
I01
sS'profile_sidebar_fill_color'
p17
V252429
p18
sS'id'
p19
I289104912
sS'verified'
p20
I00
sS'entities'
p21
(dp22
Vurl
p23
(dp24
Vurls
p25
(lp26
(dp27
g23
Vhttps://t.co/gA22uA6Sgv
p28
sVindices
p29
(lp30
I0
aI23
asVexpanded_url
p31
Vhttps://donate.doctorswithoutborders.org/onetime.cfm
p32
sVdisplay_url
p33
Vdonate.doctorswithoutborders.org/onetime.cfm
p34
sassVdescription
p35
(dp36
g25
(lp37
sssS'profile_image_url_https'
p38
Vhttps://pbs.twimg.com/profile_images/656577266743312386/2fnO_DyE_normal.jpg
p39
sS'_json'
p40
(dp41
Vfollow_request_sent
p42
NsVhas_extended_profile
p43
I00
sVprofile_use_background_image
p44
I01
sVdefault_profile_image
p45
I00
sVid
p46
I289104912
sVprofile_background_image_url_https
p47
Vhttps://abs.twimg.com/images/themes/theme9/bg.gif
p48
sVverified
p49
I00
sVprofile_text_color
p50
V666666
p51
sVprofile_image_url_https
p52
g39
sVprofile_sidebar_fill_color
p53
g18
sVentities
p54
g22
sVfollowers_count
p55
I231
sVprofile_sidebar_border_color
p56
V181A1E
p57
sVid_str
p58
V289104912
p59
sVprofile_background_color
p60
V1A1B1F
p61
sVlisted_count
p62
I23
sVstatus
p63
(dp64
Vcontributors
p65
NsVtruncated
p66
I00
sVtext
p67
VRT @OpenOutcrier: $VIX down almost 10% today, the first trading day following the worst terrorist attacks on Western Europe in a decade. \u000a\u000a\u2026
p68
sVin_reply_to_status_id
p69
Nsg46
L666423245281759233L
sVfavorite_count
p70
I0
sVsource
p71
V<a href="http://twitter.com/download/iphone" rel="nofollow">Twitter for iPhone</a>
p72
sVretweeted
p73
I00
sVcoordinates
p74
Nsg54
(dp75
Vsymbols
p76
(lp77
(dp78
g29
(lp79
I18
aI22
asg67
VVIX
p80
sa(dp81
g29
(lp82
I139
aI140
asg67
VVXX
p83
sasVuser_mentions
p84
(lp85
(dp86
g46
L2334614718L
sg29
(lp87
I3
aI16
asg58
V2334614718
p88
sVscreen_name
p89
VOpenOutcrier
p90
sVname
p91
VOpen Outcrier
p92
sasVhashtags
p93
(lp94
(dp95
g29
(lp96
I139
aI140
asg67
Vwhynot
p97
sasg25
(lp98
ssVin_reply_to_screen_name
p99
Nsg58
V666423245281759233
p100
sVretweet_count
p101
I6
sVin_reply_to_user_id
p102
NsVfavorited
p103
I00
sVretweeted_status
p104
(dp105
Vlang
p106
Ven
p107
sg103
I00
sg54
(dp108
g76
(lp109
(dp110
g29
(lp111
I0
aI4
asg67
VVIX
p112
sa(dp113
g29
(lp114
I121
aI125
asg67
VVXX
p115
sasg84
(lp116
sg93
(lp117
(dp118
g29
(lp119
I126
aI133
asg67
Vwhynot
p120
sasg25
(lp121
ssg65
Nsg66
I00
sg67
V$VIX down almost 10% today, the first trading day following the worst terrorist attacks on Western Europe in a decade. \u000a\u000a$VXX #whynot
p122
sVcreated_at
p123
VTue Nov 17 00:05:41 +0000 2015
p124
sg73
I00
sVin_reply_to_status_id_str
p125
Nsg74
NsVin_reply_to_user_id_str
p126
Nsg71
V<a href="http://twitter.com/download/iphone" rel="nofollow">Twitter for iPhone</a>
p127
sg69
Nsg99
Nsg58
V666406819510812672
p128
sVplace
p129
Nsg101
I6
sVgeo
p130
Nsg46
L666406819510812672L
sg70
I14
sg102
Nssg130
Nsg126
Nsg106
Ven
p131
sg123
VTue Nov 17 01:10:57 +0000 2015
p132
sg125
Nsg129
NssVis_translation_enabled
p133
I00
sVutc_offset
p134
I-28800
sVstatuses_count
p135
I5515
sg35
VOptions, Car enthusiast & Fitness
p136
sVfriends_count
p137
I100
sVlocation
p138
VLos Angeles/San Francisco
p139
sVprofile_link_color
p140
V2FC2EF
p141
sVprofile_image_url
p142
Vhttp://pbs.twimg.com/profile_images/656577266743312386/2fnO_DyE_normal.jpg
p143
sVfollowing
p144
NsVgeo_enabled
p145
I01
sVprofile_banner_url
p146
Vhttps://pbs.twimg.com/profile_banners/289104912/1439417895
p147
sVprofile_background_image_url
p148
Vhttp://abs.twimg.com/images/themes/theme9/bg.gif
p149
sg89
VM3_6Barz
p150
sg106
Ven
p151
sVprofile_background_tile
p152
I00
sVfavourites_count
p153
I6033
sg91
VSomeguy
p154
sVnotifications
p155
Nsg23
Vhttps://t.co/gA22uA6Sgv
p156
sg123
VThu Apr 28 01:20:06 +0000 2011
p157
sVcontributors_enabled
p158
I00
sVtime_zone
p159
VPacific Time (US & Canada)
p160
sVprotected
p161
I00
sVdefault_profile
p162
I00
sVis_translator
p163
I00
ssS'contributors_enabled'
p164
I00
sS'profile_text_color'
p165
g51
sS'followers_count'
p166
I231
sS'profile_sidebar_border_color'
p167
g57
sS'id_str'
p168
g59
sS'default_profile_image'
p169
I00
sS'listed_count'
p170
I23
sS'status'
p171
g8
(ctweepy.models
Status
p172
g10
Ntp173
Rp174
(dp175
S'favorited'
p176
I00
sS'contributors'
p177
NsS'truncated'
p178
I00
sS'text'
p179
VRT @OpenOutcrier: $VIX down almost 10% today, the first trading day following the worst terrorist attacks on Western Europe in a decade. \u000a\u000a\u2026
p180
sS'source_url'
p181
Vhttp://twitter.com/download/iphone
p182
sS'in_reply_to_status_id'
p183
NsS'geo'
p184
Nsg19
L666423245281759233L
sS'favorite_count'
p185
I0
sS'lang'
p186
g131
sS'retweeted_status'
p187
g8
(g172
g10
Ntp188
Rp189
(dp190
g176
I00
sg177
Nsg178
I00
sg179
V$VIX down almost 10% today, the first trading day following the worst terrorist attacks on Western Europe in a decade. \u000a\u000a$VXX #whynot
p191
sg181
Vhttp://twitter.com/download/iphone
p192
sg183
Nsg184
Nsg19
L666406819510812672L
sg185
I14
sg186
g107
sg21
g108
sS'created_at'
p193
cdatetime
datetime
p194
(S'\x07\xdf\x0b\x11\x00\x05)\x00\x00\x00'
p195
tp196
Rp197
sg40
g105
sS'coordinates'
p198
NsS'in_reply_to_user_id_str'
p199
NsS'source'
p200
VTwitter for iPhone
p201
sS'in_reply_to_status_id_str'
p202
NsS'in_reply_to_screen_name'
p203
Nsg168
g128
sS'retweeted'
p204
I00
sS'place'
p205
NsS'retweet_count'
p206
I6
sS'in_reply_to_user_id'
p207
Nsbsg21
g75
sg193
g194
(S'\x07\xdf\x0b\x11\x01\n9\x00\x00\x00'
p208
tp209
Rp210
sg40
g64
sg198
Nsg199
Nsg200
VTwitter for iPhone
p211
sg202
Nsg203
Nsg168
g100
sg204
I00
sg205
Nsg206
I6
sg207
NsbsS'is_translation_enabled'
p212
I00
sS'utc_offset'
p213
I-28800
sS'statuses_count'
p214
I5515
sS'description'
p215
g136
sS'friends_count'
p216
I100
sS'location'
p217
g139
sS'profile_link_color'
p218
g141
sS'profile_image_url'
p219
g143
sS'notifications'
p220
NsS'geo_enabled'
p221
I01
sS'profile_background_color'
p222
g61
sS'profile_banner_url'
p223
g147
sS'profile_background_image_url'
p224
g149
sS'screen_name'
p225
g150
sg186
g151
sg1
I00
sS'profile_background_tile'
p226
I00
sS'favourites_count'
p227
I6033
sS'name'
p228
g154
sS'url'
p229
g156
sg193
g194
(S'\x07\xdb\x04\x1c\x01\x14\x06\x00\x00\x00'
p230
tp231
Rp232
sS'profile_background_image_url_https'
p233
g48
sS'time_zone'
p234
g160
sS'protected'
p235
I00
sS'default_profile'
p236
I00
sS'is_translator'
p237
I00
sbs.