(dp0
S'following'
p1
(lp2
(lp3
I102754598
aI1626294277
aL3426014292L
aL3302111562L
aL3413284685L
aI344787317
aI57326684
aI14062554
aI55459700
aL2650413864L
aI312653402
aL2369652488L
aI56488059
aI62465691
aI17226612
aI16150688
aI28436760
aI920997996
aL2578783507L
aI163060897
aL2693698584L
aI13298072
aI12
aI443492997
aI1629336979
aI155659213
aI194137231
aI987661153
aI142839300
aI26775476
aI816653
aI1330741110
aI370591350
aL2549866201L
aI147409568
aI27295244
aI15282064
aI14617444
aI50393960
aI14191734
aL2459395075L
aI821045162
aI1658572099
aI61875147
aL3415712164L
aI323537375
aL2777426821L
aI600314869
aI960980582
aL3412528641L
aI613772062
aI23125257
aI19717430
aL2698500242L
aI1928213371
aI989975232
aI288619518
aL2927945473L
aI442035616
aI243795494
aL3293398669L
aI1623977834
aI327728809
aL3035804476L
aI380500399
aI44438256
aI59393368
aI47993676
aI294053762
aI442298073
aI46744791
aI441248955
aI114782468
aI398905258
aI375721095
aI380648579
aI51241574
aI292777349
aI15774741
aI352947624
aI16816021
aI59803544
aI553822388
aI332617373
aI19337489
aI288980311
aI338330795
aI126717954
aI42589787
aI20611469
aI34713362
aI804556370
aI14301180
aI41022150
aI346569891
aI81075524
aI42848593
aI409617637
aI19898168
aI5988062
aI18949452
aI20402945
aL2596637047L
aI77712107
aI620273553
aI223589965
aL2431112274L
aI1007087737
aI68739089
aI47114671
aI733086954
aI314385813
aI602449513
aI209033977
aI972651
aI1237327542
aI15865596
aI166597717
aL3051856071L
aI4898091
aI759251
aI807095
aI14293310
aL2495700853L
aI229966745
aI1375860338
aL3036921557L
aI1041050238
aI1228537610
aL2332338481L
aI606333457
aL2837784071L
aL2275337142L
aI31546412
aI14216123
aI1607155250
aL2272207286L
aI18294275
aI112872946
aI274233761
aI375980238
aI61342056
aI60113926
aI237591901
aI350315440
aL2278259810L
aL2494896473L
aI777011756
aI47247213
aI16746076
aI65448361
aI507879684
aI245181129
aI624413
aI1901813366
aI126640430
aI210541126
aI587701649
aI1223724236
aI26574283
aI403682984
aI788333744
aI168691253
aI223646111
aI285738285
aI17824922
aI498166332
aI259471396
aI216798259
aL2181281054L
aI97382065
aI14511951
aL3100250551L
aI1539164581
aI1868636534
aI44196397
aI26141091
aI205244994
aI545618159
aI19407053
aI91478624
aI25053299
aI17006157
aI19224439
aI24147760
aI192759988
aL2802272246L
aI140087723
aI1450167168
aI23249152
aI54879118
aI189788477
aI1177065859
aI1564125781
aI190623543
aI632341632
aI1152105936
aI56121651
aI100024370
aI475524030
aI946459574
aI20449296
aI21328656
aI266799789
aI72928001
aI297848618
aI514835972
aI51912109
aI1958752610
aI403855355
aI53215424
aI210862918
aI84312619
aI131849629
aI19546277
aL2607477037L
aI1367765233
aI109200080
aL2448524059L
aI416311594
aI169489285
aI529745410
aI1424673247
aI390450593
aL2286097290L
aL2466224414L
aL2907403148L
aI1710794426
aL2851275980L
aI88769637
aI37469211
aI57849762
aL2387237420L
aI1302133536
aL2378593778L
aI72907355
aI74104397
aI1267775677
aI20596865
aI27990259
aI102094857
aI14051297
aI40099128
aI377714371
aI246823608
aI209907837
aI28212513
aI15281391
aI7836182
aI44060322
aI1217108497
aI23059499
aI102819479
aI1364930179
aI992182100
aI223630945
aI41458395
aI16999433
aI820031509
aI1534167900
aI20562637
aI818081647
aL2161847108L
aI1639603778
aI701464597
aI236953420
aI254207829
aI157761266
aI89225644
aI390019354
aI71454795
aI258028535
aI15296897
aI40300931
aL2290432441L
aI1452408337
aI185310946
aI1370906497
aI1871450522
aI389157954
aL2274875012L
aI590523112
aI581221150
aI203652149
aI402353316
aI1347071545
aL2172423304L
aI18856867
aI52166809
aI433664446
aI201919494
aasS'followers'
p4
(lp5
(lp6
L3311923459L
aL3097785988L
aI66975479
aL3376049711L
aL4147237933L
aI57326684
aI713289332
aI90970076
aL3796186942L
aI15897179
aL3246514726L
aI583390156
aL4086878235L
aL2361661062L
aL2281328096L
aL3945232397L
aI1183838114
aI568484343
aL3688820603L
aL3384139461L
aL2529664742L
aL3241298429L
aL3241450504L
aL3615245063L
aI71758586
aI920997996
aL2890616938L
aL2693698584L
aL3036921557L
aL3319467948L
aI184391585
aL3324466993L
aI1309050470
aL2366237078L
aL3742756395L
aL2305708183L
aI100767876
aL2612915716L
aL3566431694L
aL3034687258L
aL3068737362L
aI1529917477
aI602039028
aI320524842
aI429613908
aI1134509828
aI145689341
aI150008368
aL2709867325L
aL2151921299L
aL3415712164L
aL3302111562L
aI1545667993
aL2777426821L
aI600314869
aL2546978790L
aL3308655626L
aI1269454364
aI1007087737
aI36354449
aI24080172
aI105212691
aI14507120
aL3297837301L
aI442035616
aL2370547480L
aI40300931
aL3393034103L
aL3393033839L
aL2770391665L
aI1375860338
aI327728809
aI13471032
aI23249152
aI24818270
aI983595390
aI21155531
aL3222415339L
aI409617637
aI971129101
aI77712107
aL3222862178L
aI120672388
aI1050059462
aI69621882
aI379685317
aI1237327542
aL3051856071L
aI209033977
aL3060303160L
aI39616609
aI103264426
aI211691778
aI350315440
aL2431112274L
aI210541126
aI292838436
aI253716230
aL3195760160L
aL2446689355L
aI180952887
aL3181768002L
aL2343119138L
aI365797267
aI303531344
aL2215110506L
aI1539164581
aL3073478049L
aI821118710
aL2752150528L
aI365271719
aL3044999990L
aI36774048
aL2802272246L
aL2275230932L
aL3016884012L
aL2368267530L
aL2613531324L
aL2907403148L
aL2616112573L
aI611817117
aI768205358
aI143828954
aI190623543
aI382580037
aL2916138598L
aL2792802479L
aI57849762
aI1909073652
aI569302303
aL2907277432L
aI458602870
aL2815979137L
aL2802325623L
aI805230144
aL2912585938L
aL2873497602L
aI250317700
aI1424673247
aI617792318
aL2883878790L
aL2172423304L
aL2378593778L
aL2448524059L
aI109200080
aI1302133536
aL2466224414L
aI88769637
aasS'obj'
p7
ccopy_reg
_reconstructor
p8
(ctweepy.models
User
p9
c__builtin__
object
p10
Ntp11
Rp12
(dp13
S'follow_request_sent'
p14
NsS'has_extended_profile'
p15
I00
sS'profile_use_background_image'
p16
I01
sS'profile_sidebar_fill_color'
p17
VDDEEF6
p18
sS'id'
p19
L2896352524L
sS'verified'
p20
I00
sS'entities'
p21
(dp22
Vdescription
p23
(dp24
Vurls
p25
(lp26
sssS'profile_image_url_https'
p27
Vhttps://pbs.twimg.com/profile_images/640920300327190529/Ft3puQy5_normal.jpg
p28
sS'_json'
p29
(dp30
Vfollow_request_sent
p31
NsVhas_extended_profile
p32
I00
sVprofile_use_background_image
p33
I01
sVdefault_profile_image
p34
I00
sVid
p35
L2896352524L
sVprofile_background_image_url_https
p36
Vhttps://abs.twimg.com/images/themes/theme1/bg.png
p37
sVverified
p38
I00
sVprofile_text_color
p39
V333333
p40
sVprofile_image_url_https
p41
g28
sVprofile_sidebar_fill_color
p42
g18
sVentities
p43
g22
sVfollowers_count
p44
I148
sVprofile_sidebar_border_color
p45
VC0DEED
p46
sVid_str
p47
V2896352524
p48
sVprofile_background_color
p49
VC0DEED
p50
sVlisted_count
p51
I20
sVstatus
p52
(dp53
Vlang
p54
Ven
p55
sVfavorited
p56
I00
sg43
(dp57
Vsymbols
p58
(lp59
(dp60
Vindices
p61
(lp62
I0
aI5
asVtext
p63
VCDTI
p64
sasVuser_mentions
p65
(lp66
sVhashtags
p67
(lp68
sg25
(lp69
ssVcontributors
p70
NsVtruncated
p71
I00
sg63
V$CDTI CDTi Teams With Panasonic Ecology Systems to Supply New SPGM DOC Technology for China's Heavy Duty Retrofit Market
p72
sVcreated_at
p73
VTue Nov 17 14:11:43 +0000 2015
p74
sVretweeted
p75
I00
sVin_reply_to_status_id_str
p76
NsVcoordinates
p77
NsVin_reply_to_user_id_str
p78
NsVsource
p79
V<a href="http://twitter.com/download/iphone" rel="nofollow">Twitter for iPhone</a>
p80
sVin_reply_to_status_id
p81
NsVin_reply_to_screen_name
p82
Nsg47
V666619730879455232
p83
sVplace
p84
NsVretweet_count
p85
I0
sVgeo
p86
Nsg35
L666619730879455232L
sVfavorite_count
p87
I0
sVin_reply_to_user_id
p88
NssVis_translation_enabled
p89
I00
sVutc_offset
p90
NsVstatuses_count
p91
I2823
sg23
VAll about the Stock Market %
p92
sVfriends_count
p93
I291
sVlocation
p94
V
p95
sVprofile_link_color
p96
V0084B4
p97
sVprofile_image_url
p98
Vhttp://pbs.twimg.com/profile_images/640920300327190529/Ft3puQy5_normal.jpg
p99
sVfollowing
p100
NsVgeo_enabled
p101
I00
sVprofile_banner_url
p102
Vhttps://pbs.twimg.com/profile_banners/2896352524/1435241040
p103
sVprofile_background_image_url
p104
Vhttp://abs.twimg.com/images/themes/theme1/bg.png
p105
sVscreen_name
p106
VJSTOCKBROKERS
p107
sg54
Vpt
p108
sVprofile_background_tile
p109
I00
sVfavourites_count
p110
I3038
sVname
p111
VJstockbrokers
p112
sVnotifications
p113
NsVurl
p114
Nsg73
VFri Nov 28 19:23:15 +0000 2014
p115
sVcontributors_enabled
p116
I00
sVtime_zone
p117
NsVprotected
p118
I00
sVdefault_profile
p119
I01
sVis_translator
p120
I00
ssS'contributors_enabled'
p121
I00
sS'profile_text_color'
p122
g40
sS'followers_count'
p123
I148
sS'profile_sidebar_border_color'
p124
g46
sS'id_str'
p125
g48
sS'default_profile_image'
p126
I00
sS'listed_count'
p127
I20
sS'status'
p128
g8
(ctweepy.models
Status
p129
g10
Ntp130
Rp131
(dp132
S'favorited'
p133
I00
sS'contributors'
p134
NsS'truncated'
p135
I00
sS'text'
p136
g72
sS'source_url'
p137
Vhttp://twitter.com/download/iphone
p138
sS'in_reply_to_status_id'
p139
NsS'geo'
p140
Nsg19
L666619730879455232L
sS'favorite_count'
p141
I0
sS'lang'
p142
g55
sg21
g57
sS'created_at'
p143
cdatetime
datetime
p144
(S'\x07\xdf\x0b\x11\x0e\x0b+\x00\x00\x00'
p145
tp146
Rp147
sg29
g53
sS'coordinates'
p148
NsS'in_reply_to_user_id_str'
p149
NsS'source'
p150
VTwitter for iPhone
p151
sS'in_reply_to_status_id_str'
p152
NsS'in_reply_to_screen_name'
p153
Nsg125
g83
sS'retweeted'
p154
I00
sS'place'
p155
NsS'retweet_count'
p156
I0
sS'in_reply_to_user_id'
p157
NsbsS'is_translation_enabled'
p158
I00
sS'utc_offset'
p159
NsS'statuses_count'
p160
I2823
sS'description'
p161
g92
sS'friends_count'
p162
I291
sS'location'
p163
g95
sS'profile_link_color'
p164
g97
sS'profile_image_url'
p165
g99
sS'notifications'
p166
NsS'geo_enabled'
p167
I00
sS'profile_background_color'
p168
g50
sS'profile_banner_url'
p169
g103
sS'profile_background_image_url'
p170
g105
sS'screen_name'
p171
g107
sg142
g108
sg1
I00
sS'profile_background_tile'
p172
I00
sS'favourites_count'
p173
I3038
sS'name'
p174
g112
sS'url'
p175
Nsg143
g144
(S'\x07\xde\x0b\x1c\x13\x17\x0f\x00\x00\x00'
p176
tp177
Rp178
sS'profile_background_image_url_https'
p179
g37
sS'time_zone'
p180
NsS'protected'
p181
I00
sS'default_profile'
p182
I01
sS'is_translator'
p183
I00
sbs.