(dp0
S'following'
p1
(lp2
(lp3
I616155925
aI205732919
aI807391069
aI137862901
aI107936509
aL2533540607L
aI39290796
aL3195176312L
aI450381355
aI26832834
aI44418062
aI493033493
aL2546682348L
aI16950279
aL3959328797L
aI21793154
aI743368848
aI18294197
aI26759915
aI18090786
aL3565713439L
aL2801978204L
aI14442905
aI32372834
aI14647570
aI16817883
aL2841776049L
aI200634860
aI35306978
aI30284896
aI47678782
aI520090487
aI14433444
aI47647149
aI29253031
aI18021517
aI8984292
aI244969675
aI602321455
aI84312619
aI243801041
aI19717430
aI632341632
aI312653402
aI1194962714
aL2585647641L
aI155344541
aI98426555
aI34458415
aI1365608474
aI1945147364
aL3191005918L
aL2374001503L
aL2543701412L
aL2285345166L
aL2325278731L
aL2217905358L
aI402972230
aI14062221
aI200226529
aI275690346
aI18244332
aI61533120
aI11274452
aI17509945
aI233364902
aI274733216
aI16385645
aI1636590253
aI44196397
aI27241813
aI14239496
aI193691326
aI22835712
aI13787352
aI28160998
aI27922157
aI31484145
aI18982903
aI1911846344
aI185732924
aI70837868
aI23999515
aI1460645071
aL3011950018L
aI20186316
aI27295244
aI14323846
aI471741741
aL3030662970L
aI32463503
aL2827564618L
aI428345976
aI21572529
aI40042798
aI280662910
aI18126845
aI85880275
aI218498507
aI544195778
aI48110818
aI18208763
aI44438256
aI18406292
aL2935123446L
aI42366126
aI50753411
aI47348249
aI5988062
aI50758087
aI295221061
aI32801793
aI229246832
aI388503108
aL2612311915L
aL2303452261L
aI83942687
aI1263195564
aL3118026627L
aI56745670
aL3217515694L
aI1852628844
aI5383942
aI20815041
aI62465691
aI35961145
aI34010976
aI16150688
aL2933854392L
aI1330457336
aI8161232
aI36082429
aI1339835893
aI19697415
aL3145577612L
aL3001988648L
aL2903702021L
aI25326286
aI15224867
aI813286
aI500704345
aI637235867
aI81886481
aI500370398
aI38489678
aI102094857
aI242153194
aI270920283
aI23794763
aI105242077
aI845904529
aI31202883
aI278844418
aI11177602
aI127565404
aI22116107
aI38530021
aI14499829
aI25950355
aI27013292
aI20187065
aI228626070
aI114857580
aI84072624
aL2374179176L
aI185257296
aL2326078086L
aL2670600336L
aI71582798
aI35905121
aI81202309
aI89456112
aI410114703
aI769944835
aI85735812
aI202884855
aI14063950
aI21764460
aI116716199
aI356324811
aI82761528
aL2385808987L
aI101068834
aI20840908
aI188882079
aI31409448
aI303777686
aI208120290
aI17240190
aL2192556937L
aI976836266
aI74860277
aI299752552
aI133444623
aI30509305
aI211353183
aI32464150
aI15173603
aI15516513
aL2795779438L
aI1579476474
aI22671157
aI22495224
aI46131923
aI1090029097
aI22498859
aI1081068422
aI1727166367
aI244299890
aasS'followers'
p4
(lp5
(lp6
I60611408
aI50076223
aL2912789283L
aI517392967
aI1151360264
aI364395892
aI31484145
aI552792850
aI171236058
aL4178982394L
aL4176582789L
aL2533540607L
aL2271245274L
aI450381355
aL3314607132L
aI15416816
aL3030662970L
aI3175761
aI743368848
aL3565713439L
aL3959328797L
aL2273295432L
aI16950279
aL2548464228L
aI388503108
aL3191005918L
aL2467784354L
aL2217905358L
aL2374001503L
aI113054322
aI250317700
aL3006538779L
aI469324230
aL4103950813L
aI193691326
aL2385808987L
aI22786326
aI155202983
aL2935123446L
aL2343478466L
aI380859065
aI1149211422
aI428345976
aL2933854392L
aL3317122608L
aI15660594
aI522409412
aL3011950018L
aL2285345166L
aL3145577612L
aL2903702021L
aL3544077797L
aL3416680154L
aL3392312351L
aL2388884240L
aI1579476474
aI313554184
aI1013314970
aI1430111821
aL2715501307L
aI48009292
aI188017902
aL3044849682L
aI1525342994
aI101068834
aL2841253779L
aI479374731
aI437025954
aI1979475866
aI244299890
aI19049414
aI35741756
aI845904529
aI32160489
aI33868186
aI15516513
aI1727166367
aL2892259918L
aI74860277
aI278844418
aL2899331890L
aL2795779438L
aI473236403
aI115906387
aI22116107
aL2881274440L
aI20840908
aasS'obj'
p7
ccopy_reg
_reconstructor
p8
(ctweepy.models
User
p9
c__builtin__
object
p10
Ntp11
Rp12
(dp13
S'follow_request_sent'
p14
I00
sS'has_extended_profile'
p15
I00
sS'profile_use_background_image'
p16
I01
sS'profile_sidebar_fill_color'
p17
VDDEEF6
p18
sS'id'
p19
L2909394872L
sS'verified'
p20
I00
sS'entities'
p21
(dp22
Vdescription
p23
(dp24
Vurls
p25
(lp26
sssS'profile_image_url_https'
p27
Vhttps://pbs.twimg.com/profile_images/536980128497025025/Few5O1eP_normal.jpeg
p28
sS'_json'
p29
(dp30
Vfollow_request_sent
p31
I00
sVhas_extended_profile
p32
I00
sVprofile_use_background_image
p33
I01
sVdefault_profile_image
p34
I00
sVid
p35
L2909394872L
sVprofile_background_image_url_https
p36
Vhttps://abs.twimg.com/images/themes/theme1/bg.png
p37
sVverified
p38
I00
sVprofile_text_color
p39
V333333
p40
sVprofile_image_url_https
p41
g28
sVprofile_sidebar_fill_color
p42
g18
sVentities
p43
g22
sVfollowers_count
p44
I87
sVprofile_sidebar_border_color
p45
VC0DEED
p46
sVid_str
p47
V2909394872
p48
sVprofile_background_color
p49
VC0DEED
p50
sVlisted_count
p51
I0
sVstatus
p52
(dp53
Vlang
p54
Ven
p55
sVfavorited
p56
I00
sg43
(dp57
Vsymbols
p58
(lp59
sVuser_mentions
p60
(lp61
(dp62
g35
I102094857
sVindices
p63
(lp64
I0
aI15
asg47
V102094857
p65
sVscreen_name
p66
Vadamfeuerstein
p67
sVname
p68
VAdam Feuerstein
p69
sasVhashtags
p70
(lp71
sg25
(lp72
ssVcontributors
p73
NsVtruncated
p74
I00
sVtext
p75
V@adamfeuerstein Adam -  I hope this reads worse than you actually intended it.  Otherwise, it is pretty sad.
p76
sVcreated_at
p77
VTue Nov 17 04:15:15 +0000 2015
p78
sVretweeted
p79
I00
sVin_reply_to_status_id_str
p80
V666445524841664512
p81
sVcoordinates
p82
NsVin_reply_to_user_id_str
p83
V102094857
p84
sVsource
p85
V<a href="http://twitter.com" rel="nofollow">Twitter Web Client</a>
p86
sVin_reply_to_status_id
p87
L666445524841664512L
sVin_reply_to_screen_name
p88
Vadamfeuerstein
p89
sg47
V666469622992891907
p90
sVplace
p91
NsVretweet_count
p92
I0
sVgeo
p93
Nsg35
L666469622992891907L
sVfavorite_count
p94
I2
sVin_reply_to_user_id
p95
I102094857
ssVis_translation_enabled
p96
I00
sVutc_offset
p97
I-28800
sVstatuses_count
p98
I153
sg23
VBiotech, Cell Therapy & Personalized Medicine Investor/Advisor.  Re-tweets do not imply endorsement.
p99
sVfriends_count
p100
I209
sVlocation
p101
VSan Francisco Bay Area
p102
sVprofile_link_color
p103
V0084B4
p104
sVprofile_image_url
p105
Vhttp://pbs.twimg.com/profile_images/536980128497025025/Few5O1eP_normal.jpeg
p106
sVfollowing
p107
I00
sVgeo_enabled
p108
I01
sVprofile_banner_url
p109
Vhttps://pbs.twimg.com/profile_banners/2909394872/1446578736
p110
sVprofile_background_image_url
p111
Vhttp://abs.twimg.com/images/themes/theme1/bg.png
p112
sg66
VkharrisCellMed
p113
sg54
Ven
p114
sVprofile_background_tile
p115
I00
sVfavourites_count
p116
I4
sg68
VKenneth Harris
p117
sVnotifications
p118
I00
sVurl
p119
Nsg77
VMon Nov 24 20:28:03 +0000 2014
p120
sVcontributors_enabled
p121
I00
sVtime_zone
p122
VPacific Time (US & Canada)
p123
sVprotected
p124
I00
sVdefault_profile
p125
I01
sVis_translator
p126
I00
ssS'contributors_enabled'
p127
I00
sS'profile_text_color'
p128
g40
sS'followers_count'
p129
I87
sS'profile_sidebar_border_color'
p130
g46
sS'id_str'
p131
g48
sS'default_profile_image'
p132
I00
sS'listed_count'
p133
I0
sS'status'
p134
g8
(ctweepy.models
Status
p135
g10
Ntp136
Rp137
(dp138
S'favorited'
p139
I00
sS'contributors'
p140
NsS'truncated'
p141
I00
sS'text'
p142
g76
sS'source_url'
p143
Vhttp://twitter.com
p144
sS'in_reply_to_status_id'
p145
L666445524841664512L
sS'geo'
p146
Nsg19
L666469622992891907L
sS'favorite_count'
p147
I2
sS'lang'
p148
g55
sg21
g57
sS'created_at'
p149
cdatetime
datetime
p150
(S'\x07\xdf\x0b\x11\x04\x0f\x0f\x00\x00\x00'
p151
tp152
Rp153
sg29
g53
sS'coordinates'
p154
NsS'in_reply_to_user_id_str'
p155
g84
sS'source'
p156
VTwitter Web Client
p157
sS'in_reply_to_status_id_str'
p158
g81
sS'in_reply_to_screen_name'
p159
g89
sg131
g90
sS'retweeted'
p160
I00
sS'place'
p161
NsS'retweet_count'
p162
I0
sS'in_reply_to_user_id'
p163
I102094857
sbsS'is_translation_enabled'
p164
I00
sS'utc_offset'
p165
I-28800
sS'statuses_count'
p166
I153
sS'description'
p167
g99
sS'friends_count'
p168
I209
sS'location'
p169
g102
sS'profile_link_color'
p170
g104
sS'profile_image_url'
p171
g106
sS'notifications'
p172
I00
sS'geo_enabled'
p173
I01
sS'profile_background_color'
p174
g50
sS'profile_banner_url'
p175
g110
sS'profile_background_image_url'
p176
g112
sS'screen_name'
p177
g113
sg148
g114
sg1
I00
sS'profile_background_tile'
p178
I00
sS'favourites_count'
p179
I4
sS'name'
p180
g117
sS'url'
p181
Nsg149
g150
(S'\x07\xde\x0b\x18\x14\x1c\x03\x00\x00\x00'
p182
tp183
Rp184
sS'profile_background_image_url_https'
p185
g37
sS'time_zone'
p186
g123
sS'protected'
p187
I00
sS'default_profile'
p188
I01
sS'is_translator'
p189
I00
sbs.