(dp0
S'following'
p1
(lp2
(lp3
I293829980
aI252509775
aI1659724682
aI251233689
aL2882013788L
aI77305343
aL4045760789L
aL3920279115L
aI236852906
aL2349734712L
aL2281119421L
aL4040670143L
aI67726473
aI18774477
aI155173446
aL2402010382L
aL4009414738L
aL4077721821L
aI511402689
aL3043014442L
aL3179216151L
aI1966253173
aI21103888
aL3016283598L
aI111068842
aI340342748
aL3124430309L
aL3018847436L
aI209405171
aL3248201877L
aI618043141
aL2369350368L
aI28225535
aI1668307436
aI23362301
aL3437095019L
aI618985919
aL2317902151L
aI376790816
aI1068821804
aI49114382
aL3027052225L
aL2588109960L
aI1520724174
aI588559501
aI153966123
aI124826748
aI160437465
aI1033720026
aI251131699
aL3314742039L
aL2279191099L
aI712636856
aI348873340
aL2733961215L
aL2510731736L
aL3954927615L
aL2970416386L
aL2480878592L
aL2271222612L
aL2999168682L
aI368609835
aL3064711822L
aI286654612
aL2494259352L
aL3329369615L
aL3152157914L
aL3234645313L
aL3196281412L
aI115526143
aI341346597
aI843798122
aI352486322
aI551940798
aI552011578
aI858646280
aI140281533
aI528693271
aI551440408
aI504914052
aI42950930
aI312641499
aI71019945
aI159916388
aI26599573
aL3537052217L
aI15165502
aI19802879
aI1911506358
aI371463524
aI249150179
aI24740039
aL3823774515L
aL3478017496L
aI448788827
aL3774374115L
aL3383800258L
aI788333744
aL3184637045L
aI552165830
aL3497869400L
aI978664754
aI352580950
aI59229156
aI102459522
aI170411939
aI223281275
aI14232141
aL2957195931L
aI1687004534
aL3135493823L
aL3346088079L
aL2678090893L
aL3063418949L
aI109200080
aL3131448724L
aL3017654325L
aI23059499
aI1328401015
aI111369184
aL3071385010L
aI208272623
aI386360638
aI62911680
aL2178105128L
aL3303914436L
aI24747554
aI1545902090
aI5807512
aL3044823839L
aL3280598403L
aI1917996295
aL3312727386L
aI337853585
aI44454246
aI87616915
aI6070762
aI447935911
aI608435096
aI133893663
aI902655752
aI224831508
aI44595407
aI902629262
aL2844007911L
aI92450686
aI438125534
aI1183041
aI18396070
aL2779431564L
aL2755916025L
aI40408531
aI18721583
aI70529694
aI579006169
aI19029137
aI144003355
aI51895123
aI130491582
aI561754773
aI1137700339
aI627643923
aI15227791
aI69773977
aI1323187164
aI325832193
aI480298967
aL2918664357L
aL3416805075L
aI602317143
aI237845487
aL2998211189L
aL2370848606L
aI56381545
aI1098307922
aI17944711
aI234444257
aI216459078
aI1660908014
aL3327739106L
aI997589958
aL3100123946L
aL3347184040L
aL3672282857L
aL3225783793L
aI1473563539
aL3315134870L
aI331677065
aL3154923455L
aI22258315
aI47982388
aI67090528
aL2446676017L
aI195863138
aI540892946
aI550933279
aI1697383021
aL3091808182L
aL2399701337L
aI268536859
aI86860355
aI1176264332
aI21793505
aI1513328430
aI101495057
aL3348748593L
aI586909317
aI14342564
aI454313925
aI15740491
aI1544427270
aI20747847
aI16736535
aI15234657
aI260306257
aI36803580
aL2190619628L
aL2587898168L
aL2838339189L
aL3040591972L
aI19715065
aL3370971659L
aI1703554242
aI38705128
aI1935402955
aI80881866
aL3178264371L
aL2820113477L
aI1956984410
aI404422077
aI714558596
aI484265917
aL3130940176L
aI1020153878
aL3315501381L
aI138163749
aI53125401
aI72966746
aL2776367668L
aI2670321
aI21901902
aI865732788
aI65739179
aL2495875008L
aI859306879
aL3597859817L
aI1698582715
aI19440078
aI151323598
aL3290281720L
aL2357198672L
aI430313116
aI277889424
aI70547392
aL3091733007L
aL3017641993L
aL3230207017L
aI232783642
aI41405468
aI631289812
aI185314895
aI137703483
aI484417651
aI62434079
aI520395249
aI200306618
aI42425262
aI1726601107
aL2321396354L
aL2217451849L
aL2334319344L
aI37135526
aL3064195362L
aI14165666
aI64474365
aI48844884
aI1430685188
aI909017503
aI1285631082
aI121750974
aI133225023
aI51667021
aI47349304
aI160974322
aI729547316
aI20475491
aI264579898
aL2821226980L
aI42102939
aI14159148
aI802356409
aI866710699
aI110793585
aL3551997916L
aI30194051
aI1084678801
aI395568341
aI139938648
aI858486145
aI21938120
aI199619635
aI1908791612
aL2195152405L
aI39710060
aL3259492453L
aL2479351724L
aI84698676
aI22863403
aI243823842
aI159588456
aI17384099
aI189253902
aL2227625580L
aI317298201
aI29159687
aI103865085
aI253536357
aL3229087383L
aI21436960
aI86977818
aI15473958
aI34743251
aI1334806249
aL3141659186L
aI499122735
aI20801351
aL2321016078L
aI134373606
aL2377974836L
aI153784150
aI467739426
aI15500649
aI15165493
aI19789439
aI33602654
aI138725262
aI104201057
aI14091091
aI378015672
aI22692199
aI17471979
aI11348282
aI1582853809
aI332617373
aI39743812
aI728686820
aI28164923
aI34713362
aL2949297775L
aI69620713
aI442042081
aI59554068
aL2772880123L
aI18847469
aI17158140
aI82831947
aI23451598
aI39530187
aI19138455
aI248742334
aI14505838
aI125305134
aI28653139
aI460228320
aI63059171
aI18335940
aI112728024
aI119073765
aI16568116
aI485511296
aI297380894
aI39710722
aI14293310
aI17908972
aI855039499
aL2415951800L
aI233704756
aI23095461
aL2797483224L
aI303227069
aI142837256
aI124491549
aI63692643
aI93131556
aI139556944
aI59801744
aI61804151
aI71975446
aI13838562
aI65187067
aI25709609
aI1015241814
aI15781063
aI877744351
aI47621568
aI63222576
aI544126975
aI454015086
aI397041712
aI170750213
aI94166168
aI14836197
aI17329538
aI42220353
aI14857290
aI14123683
aI19980499
aI335455570
aI25562002
aI1337785291
aI259925559
aI344634424
aI90420314
aI10671602
aI14499829
aI15492359
aI25093616
aI90964854
aI621543
aasS'followers'
p4
(lp5
(lp6
L3092422581L
aL2992414321L
aL4176740896L
aL3431648649L
aI21641427
aL3740836588L
aI252509775
aI1659724682
aL2882013788L
aL4003377437L
aI233905026
aL4045760789L
aL3338541609L
aL3920279115L
aL2349734712L
aL4009393713L
aL4040670143L
aL4077721821L
aL4081730476L
aL4081607669L
aL4060066449L
aL4061650355L
aL3957001157L
aL2795229222L
aL4009414738L
aL3043014442L
aI340342748
aI325054496
aL2369350368L
aI1668307436
aL3027052225L
aL2588109960L
aI1520724174
aI160437465
aI1033720026
aI348873340
aL2461128220L
aL2733961215L
aL2510731736L
aL3954927615L
aL2970416386L
aL2480878592L
aL2494259352L
aL3329369615L
aL3234645313L
aI843798122
aI115526143
aI504914052
aI312641499
aL3537052217L
aI579021587
aL3432155278L
aL3478017496L
aL3823774515L
aL3497869400L
aL2957195931L
aL3135493823L
aL2678090893L
aL3063418949L
aL3405619342L
aI109200080
aI111369184
aI208272623
aL3312727386L
aI9555372
aL3044823839L
aI902655752
aI92450686
aI902629262
aL2844007911L
aL2779431564L
aL2755916025L
aI195863138
aI40408531
aI18721583
aL2918664357L
aL3416805075L
aL2998211189L
aL2370848606L
aI56381545
aI17944711
aL3327739106L
aL3100123946L
aL3154923455L
aL2446676017L
aI1697383021
aI268536859
aL2399701337L
aL2838339189L
aI1703554242
aI1935402955
aL3315501381L
aI1020153878
aL3597859817L
aI151323598
aL3290281720L
aL3230207017L
aI37135526
aI264579898
aI866710699
aL3551997916L
aI139938648
aL3477321497L
aI1334806249
aL2321016078L
aasS'obj'
p7
ccopy_reg
_reconstructor
p8
(ctweepy.models
User
p9
c__builtin__
object
p10
Ntp11
Rp12
(dp13
S'follow_request_sent'
p14
NsS'has_extended_profile'
p15
I00
sS'profile_use_background_image'
p16
I01
sS'profile_sidebar_fill_color'
p17
VDDEEF6
p18
sS'id'
p19
L2919077365L
sS'verified'
p20
I00
sS'entities'
p21
(dp22
Vdescription
p23
(dp24
Vurls
p25
(lp26
sssS'profile_image_url_https'
p27
Vhttps://abs.twimg.com/sticky/default_profile_images/default_profile_1_normal.png
p28
sS'_json'
p29
(dp30
Vfollow_request_sent
p31
NsVhas_extended_profile
p32
I00
sVprofile_use_background_image
p33
I01
sVdefault_profile_image
p34
I01
sVid
p35
L2919077365L
sVprofile_background_image_url_https
p36
Vhttps://abs.twimg.com/images/themes/theme1/bg.png
p37
sVverified
p38
I00
sVprofile_text_color
p39
V333333
p40
sVprofile_image_url_https
p41
g28
sVprofile_sidebar_fill_color
p42
g18
sVentities
p43
g22
sVfollowers_count
p44
I105
sVprofile_sidebar_border_color
p45
VC0DEED
p46
sVid_str
p47
V2919077365
p48
sVprofile_background_color
p49
VC0DEED
p50
sVlisted_count
p51
I7
sVstatus
p52
(dp53
Vcontributors
p54
NsVtruncated
p55
I00
sVtext
p56
VRT @RetroNuss: #retrogaming ROMANCING SAGA 1 2 3 &amp; DQ5 Nintendo Super Famicom SNES\u2026 https://t.co/t4r7a7XAt0 https://t.co/RgutxcYyBl https:/\u2026
p57
sVin_reply_to_status_id
p58
Nsg35
L665733787762978816L
sVfavorite_count
p59
I0
sVsource
p60
V<a href="http://twitter.com/download/android" rel="nofollow">Twitter for Android</a>
p61
sVretweeted
p62
I00
sVcoordinates
p63
Nsg43
(dp64
Vsymbols
p65
(lp66
sVuser_mentions
p67
(lp68
(dp69
g35
L3430429113L
sVindices
p70
(lp71
I3
aI13
asg47
V3430429113
p72
sVscreen_name
p73
VRetroNuss
p74
sVname
p75
VRetroNation
p76
sasVhashtags
p77
(lp78
(dp79
g70
(lp80
I15
aI27
asg56
Vretrogaming
p81
sasg25
(lp82
(dp83
Vurl
p84
Vhttps://t.co/t4r7a7XAt0
p85
sg70
(lp86
I88
aI111
asVexpanded_url
p87
Vhttp://dlvr.it/ClBzmj
p88
sVdisplay_url
p89
Vdlvr.it/ClBzmj
p90
sa(dp91
g84
Vhttps://t.co/RgutxcYyBl
p92
sg70
(lp93
I112
aI135
asg87
Vhttp://goo.gl/TVYKdP
p94
sg89
Vgoo.gl/TVYKdP
p95
sasVmedia
p96
(lp97
(dp98
Vsource_user_id
p99
L3430429113L
sVsource_status_id_str
p100
V665715478128537600
p101
sg87
Vhttp://twitter.com/RetroNuss/status/665715478128537600/photo/1
p102
sg89
Vpic.twitter.com/9iVWNNMHa2
p103
sg84
Vhttps://t.co/9iVWNNMHa2
p104
sVmedia_url_https
p105
Vhttps://pbs.twimg.com/media/CT0YszWUYAADZhD.jpg
p106
sVsource_user_id_str
p107
V3430429113
p108
sVsource_status_id
p109
L665715478128537600L
sg47
V665715477897830400
p110
sVsizes
p111
(dp112
Vsmall
p113
(dp114
Vh
p115
I255
sVresize
p116
Vfit
p117
sVw
p118
I340
ssVlarge
p119
(dp120
g115
I300
sg116
Vfit
p121
sg118
I400
ssVmedium
p122
(dp123
g115
I300
sg116
Vfit
p124
sg118
I400
ssVthumb
p125
(dp126
g115
I150
sg116
Vcrop
p127
sg118
I150
sssg70
(lp128
I143
aI144
asVtype
p129
Vphoto
p130
sg35
L665715477897830400L
sVmedia_url
p131
Vhttp://pbs.twimg.com/media/CT0YszWUYAADZhD.jpg
p132
sassVin_reply_to_screen_name
p133
Nsg47
V665733787762978816
p134
sVretweet_count
p135
I5
sVin_reply_to_user_id
p136
NsVfavorited
p137
I00
sVretweeted_status
p138
(dp139
g54
Nsg55
I00
sg56
V#retrogaming ROMANCING SAGA 1 2 3 &amp; DQ5 Nintendo Super Famicom SNES\u2026 https://t.co/t4r7a7XAt0 https://t.co/RgutxcYyBl https://t.co/9iVWNNMHa2
p140
sg58
Nsg35
L665715478128537600L
sg59
I0
sg60
V<a href="http://dlvr.it" rel="nofollow">dlvr.it</a>
p141
sg62
I00
sg63
Nsg43
(dp142
g65
(lp143
sg67
(lp144
sg77
(lp145
(dp146
g70
(lp147
I0
aI12
asg56
Vretrogaming
p148
sasg25
(lp149
(dp150
g84
Vhttps://t.co/t4r7a7XAt0
p151
sg70
(lp152
I73
aI96
asg87
Vhttp://dlvr.it/ClBzmj
p153
sg89
Vdlvr.it/ClBzmj
p154
sa(dp155
g84
Vhttps://t.co/RgutxcYyBl
p156
sg70
(lp157
I97
aI120
asg87
Vhttp://goo.gl/TVYKdP
p158
sg89
Vgoo.gl/TVYKdP
p159
sasg96
(lp160
(dp161
g87
Vhttp://twitter.com/RetroNuss/status/665715478128537600/photo/1
p162
sg89
Vpic.twitter.com/9iVWNNMHa2
p163
sg84
Vhttps://t.co/9iVWNNMHa2
p164
sg105
Vhttps://pbs.twimg.com/media/CT0YszWUYAADZhD.jpg
p165
sg47
V665715477897830400
p166
sg111
(dp167
g113
(dp168
g115
I255
sg116
Vfit
p169
sg118
I340
ssg119
(dp170
g115
I300
sg116
Vfit
p171
sg118
I400
ssg122
(dp172
g115
I300
sg116
Vfit
p173
sg118
I400
ssg125
(dp174
g115
I150
sg116
Vcrop
p175
sg118
I150
sssg70
(lp176
I121
aI144
asg129
Vphoto
p177
sg35
L665715477897830400L
sg131
Vhttp://pbs.twimg.com/media/CT0YszWUYAADZhD.jpg
p178
sassg133
Nsg47
V665715478128537600
p179
sg135
I5
sg136
Nsg137
I00
sVgeo
p180
NsVin_reply_to_user_id_str
p181
NsVpossibly_sensitive
p182
I00
sVlang
p183
Vtl
p184
sVcreated_at
p185
VSun Nov 15 02:18:33 +0000 2015
p186
sVin_reply_to_status_id_str
p187
NsVplace
p188
Nssg180
Nsg181
Nsg182
I00
sg183
Vtl
p189
sg185
VSun Nov 15 03:31:18 +0000 2015
p190
sg187
Nsg188
NssVis_translation_enabled
p191
I00
sVutc_offset
p192
NsVstatuses_count
p193
I910
sg23
V
p194
sVfriends_count
p195
I419
sVlocation
p196
g194
sVprofile_link_color
p197
V0084B4
p198
sVprofile_image_url
p199
Vhttp://abs.twimg.com/sticky/default_profile_images/default_profile_1_normal.png
p200
sVfollowing
p201
NsVgeo_enabled
p202
I00
sVprofile_background_image_url
p203
Vhttp://abs.twimg.com/images/themes/theme1/bg.png
p204
sg73
Vgauche_bit
p205
sg183
Ven
p206
sVprofile_background_tile
p207
I00
sVfavourites_count
p208
I1039
sg75
Vscott holm
p209
sVnotifications
p210
Nsg84
Nsg185
VThu Dec 04 23:25:47 +0000 2014
p211
sVcontributors_enabled
p212
I00
sVtime_zone
p213
NsVprotected
p214
I00
sVdefault_profile
p215
I01
sVis_translator
p216
I00
ssS'contributors_enabled'
p217
I00
sS'profile_text_color'
p218
g40
sS'followers_count'
p219
I105
sS'profile_sidebar_border_color'
p220
g46
sS'id_str'
p221
g48
sS'default_profile_image'
p222
I01
sS'listed_count'
p223
I7
sS'status'
p224
g8
(ctweepy.models
Status
p225
g10
Ntp226
Rp227
(dp228
S'favorited'
p229
I00
sS'contributors'
p230
NsS'truncated'
p231
I00
sS'text'
p232
g57
sS'source_url'
p233
Vhttp://twitter.com/download/android
p234
sS'possibly_sensitive'
p235
I00
sS'in_reply_to_status_id'
p236
NsS'geo'
p237
Nsg19
L665733787762978816L
sS'favorite_count'
p238
I0
sS'lang'
p239
g189
sS'retweeted_status'
p240
g8
(g225
g10
Ntp241
Rp242
(dp243
g229
I00
sg230
Nsg231
I00
sg232
g140
sg233
Vhttp://dlvr.it
p244
sg235
I00
sg236
Nsg237
Nsg19
L665715478128537600L
sg238
I0
sg239
g184
sg21
g142
sS'created_at'
p245
cdatetime
datetime
p246
(S'\x07\xdf\x0b\x0f\x02\x12!\x00\x00\x00'
p247
tp248
Rp249
sg29
g139
sS'coordinates'
p250
NsS'in_reply_to_user_id_str'
p251
NsS'source'
p252
Vdlvr.it
p253
sS'in_reply_to_status_id_str'
p254
NsS'in_reply_to_screen_name'
p255
Nsg221
g179
sS'retweeted'
p256
I00
sS'place'
p257
NsS'retweet_count'
p258
I5
sS'in_reply_to_user_id'
p259
Nsbsg21
g64
sg245
g246
(S'\x07\xdf\x0b\x0f\x03\x1f\x12\x00\x00\x00'
p260
tp261
Rp262
sg29
g53
sg250
Nsg251
Nsg252
VTwitter for Android
p263
sg254
Nsg255
Nsg221
g134
sg256
I00
sg257
Nsg258
I5
sg259
NsbsS'is_translation_enabled'
p264
I00
sS'utc_offset'
p265
NsS'statuses_count'
p266
I910
sS'description'
p267
g194
sS'friends_count'
p268
I419
sS'location'
p269
g194
sS'profile_link_color'
p270
g198
sS'profile_image_url'
p271
g200
sS'notifications'
p272
NsS'geo_enabled'
p273
I00
sS'profile_background_color'
p274
g50
sS'profile_background_image_url'
p275
g204
sS'screen_name'
p276
g205
sg239
g206
sg1
I00
sS'profile_background_tile'
p277
I00
sS'favourites_count'
p278
I1039
sS'name'
p279
g209
sS'url'
p280
Nsg245
g246
(S'\x07\xde\x0c\x04\x17\x19/\x00\x00\x00'
p281
tp282
Rp283
sS'profile_background_image_url_https'
p284
g37
sS'time_zone'
p285
NsS'protected'
p286
I00
sS'default_profile'
p287
I01
sS'is_translator'
p288
I00
sbs.