(dp0
S'following'
p1
(lp2
(lp3
I457965023
aI9815032
aI110539278
aI36041084
aI932502344
aI1753525117
aI312653402
aI799122090
aI331677065
aI424481268
aI346257282
aI165412746
aI788333744
aL2292454922L
aI17780244
aI124690469
aI196084201
aI17682918
aI888958195
aI633599938
aI1222617536
aI15896903
aI72442349
aI22073146
aI201891203
aI26775476
aI377431760
aI26687237
aI17583317
aI300338214
aI14292717
aI39853973
aI1364930179
aI332617373
aI232120274
aI101296174
aI7179142
aI1186
aI72928001
aI358036045
aI831258415
aI313644208
aI1267775677
aI632341632
aI585934344
aI46227914
aI392739061
aI14260102
aI59853587
aL2409330439L
aI59117354
aL2171218687L
aI238118451
aL2715646770L
aI271211220
aI27162339
aI138799178
aI54479357
aI60113926
aI34371118
aI397230151
aI337390354
aI42644445
aI365321928
aI400115842
aI793822903
aI289556231
aI14135350
aI617381538
aI1343486720
aI581221150
aI17409346
aI5943622
aI104952689
aI31497981
aI18855108
aI199640036
aI39264827
aL2169414410L
aI153253704
aI178070354
aI18120133
aI237591901
aI1542533869
aI23390520
aI1375860338
aI17469492
aI16337214
aL2334614718L
aL2340952165L
aI222184684
aI582390700
aI1473431
aI15127307
aI18069591
aI105353526
aI410719414
aI550663732
aI54619566
aI416749415
aI14897785
aI541253226
aI738881598
aI520892960
aI250362250
aI381289719
aI23002939
aI165432070
aI250758475
aI23368614
aI410827049
aI212531237
aI1687890656
aI1064700308
aI175754840
aI89225644
aL2296501071L
aL2308639909L
aI186136458
aL2196831923L
aI162655910
aI1598644159
aI160625399
aI378208943
aI33104659
aI995548742
aI466333756
aI370007789
aI904039608
aL2541932508L
aI218430551
aI19904254
aI32778531
aL2595918914L
aI392817422
aI215034328
aL2915103594L
aI15246621
aL2199824470L
aI18943408
aI241502518
aI1473023792
aL2272207286L
aI128730200
aI27729064
aI612135517
aL2375680748L
aI82711419
aL2933882627L
aI25882361
aI583938358
aI1873053276
aI37718217
aI1292563332
aI303862998
aI208155240
aI1229055031
aI222177693
aI381318163
aI71087582
aI17790265
aI27922928
aI184881902
aI122225052
aI207617302
aI378334234
aI805230144
aL2286097290L
aL2371952437L
aI172023851
aI236953420
aI168679374
aI31546412
aI249648596
aI62562916
aI102819479
aI163648850
aI144876165
aI15130891
aI133483902
aI15971805
aI624620754
aI218022222
aI955733059
aI884935388
aI906797108
aI714865387
aI24836016
aI486139568
aI37555599
aI96682182
aI1146597823
aI15404576
aI364464212
aI81157050
aI775319148
aI514835972
aI262144590
aI27762318
aL2179895676L
aI170428232
aI443918542
aI102527566
aI1931179794
aI41458395
aI416311594
aI90717768
aI1217108497
aL2552639978L
aI145313421
aI1673739764
aI1873589498
aI34837057
aI190092133
aI49620233
aI112872946
aI1689434408
aI1566756313
aI1575204570
aI1928213371
aI925752595
aI586734515
aI193838214
aI85253884
aI262652488
aI17919972
aL2937308765L
aL2541550460L
aI601052301
aI58808528
aI81000114
aI500042487
aI88749392
aI443215941
aI430841130
aI268010535
aI337594915
aI273540698
aI43111757
aI143127469
aI19202455
aI43815496
aI39730630
aI18753185
aI16589495
aI18657864
aI8848642
aI38967607
aI16626951
aI16535953
aI16657990
aI16445093
aI23678071
aI24856567
aI102094857
aI68537333
aI25330246
aI1543432280
aI20079668
aI306850457
aI40118352
aI590842558
aI26250595
aI390728521
aI274226307
aI140912249
aI14216123
aI44196397
aI18681139
aI61292961
aI14802885
aI1347071545
aI9866582
aI364282535
aI5402612
aI129638446
aI40910906
aI338646028
aL2593717111L
aI602938455
aI444570676
aI26792275
aI21114659
aI20268270
aI46804450
aI284112637
aI117237387
aI16532451
aI143477156
aI46393249
aI28145010
aL2317731210L
aI29479859
aI1506539672
aI384445331
aI24443284
aL2491562568L
aI459451141
aI17049899
aI14117774
aI42589787
aI243318995
aI249060131
aI39213635
aI544126975
aI18719020
aI233430873
aI18378349
aI44060322
aI28571999
aI24227424
aI714051110
aI40909981
aI37284991
aI1652541
aI18560146
aI455824771
aI264370502
aI203652149
aI302545862
aI51241574
aI61342056
aI15110357
aI558446365
aI21232827
aI16746076
aI295159747
aI17469289
aI1917731
aI18944615
aI6017542
aI97334517
aI72907355
aI14115408
aI41012342
aI53978117
aI64783984
aI19143910
aI19988458
aI1435994318
aI19739279
aI21917683
aI106504911
aI253168011
aI49663664
aI70498392
aI100592354
aI475524030
aI375721095
aI383679240
aI95023423
aI114782468
aI84402174
aI271138078
aI166597717
aI545618159
aI403855355
aI1358146357
aI28164923
aI263440231
aI390019354
aI338330795
aI201300044
aI114685387
aI139986343
aI983655260
aI385138826
aI55561590
aI1851877248
aI232870964
aI326745108
aI721480968
aI30925412
aI316485110
aI18587683
aI19651092
aI82172203
aI1640244985
aI244248703
aI352947624
aL2901729130L
aI18856867
aI22522178
aI52166809
aI15079601
aI7836182
aL2880393267L
aI1527716203
aasS'followers'
p4
(lp5
(lp6
L3161642778L
aL4129818237L
aL4183038976L
aI547870989
aI1281496315
aL3028160926L
aI318393064
aL3184740457L
aL2968788472L
aI74072432
aI30113814
aI38683421
aL3328608765L
aI1753525117
aL3382669049L
aL2813786642L
aL3244768260L
aL2329043150L
aL3292789853L
aI15897179
aL2753471751L
aL3258760929L
aL3254387237L
aL2230379864L
aL2792828298L
aI139373116
aI1173710348
aL3102076532L
aL3102708741L
aL2773951369L
aL3037641536L
aI406431568
aL3019411992L
aL3019773642L
aL3028191174L
aL2357050530L
aI468531454
aL3035197185L
aL3016884012L
aI424826756
aL2732728749L
aL3009388142L
aL2980875416L
aI1453961
aL2454377598L
aL2996581313L
aL2981421573L
aL2927209855L
aI399895499
aI20905701
aI18985592
aL2524217959L
aI54479357
aI120672388
aI47280950
aI279758762
aL2279206507L
aI65264507
aI42225419
aI946078668
aI23368614
aI904325767
aI58821514
aI139404921
aI106954305
aI60429918
aL2317824278L
aI215034328
aI582390700
aI1543432280
aL2357901960L
aL2296501071L
aL2199824470L
aI392817422
aL2938858384L
aI379223135
aI805230144
aL2941948191L
aI70529911
aI43111757
aI149595417
aI590842558
aI550453777
aL2916138598L
aL2937308765L
aI17517897
aI345748577
aL2933882627L
aL2491562568L
aL2934337170L
aL2248970842L
aasS'obj'
p7
ccopy_reg
_reconstructor
p8
(ctweepy.models
User
p9
c__builtin__
object
p10
Ntp11
Rp12
(dp13
S'follow_request_sent'
p14
I00
sS'has_extended_profile'
p15
I00
sS'profile_use_background_image'
p16
I01
sS'profile_sidebar_fill_color'
p17
VDDEEF6
p18
sS'id'
p19
L2930118316L
sS'verified'
p20
I00
sS'entities'
p21
(dp22
Vdescription
p23
(dp24
Vurls
p25
(lp26
sssS'profile_image_url_https'
p27
Vhttps://pbs.twimg.com/profile_images/637555170436583424/L8V6uME1_normal.jpg
p28
sS'_json'
p29
(dp30
Vfollow_request_sent
p31
I00
sVhas_extended_profile
p32
I00
sVprofile_use_background_image
p33
I01
sVdefault_profile_image
p34
I00
sVid
p35
L2930118316L
sVprofile_background_image_url_https
p36
Vhttps://abs.twimg.com/images/themes/theme1/bg.png
p37
sVverified
p38
I00
sVprofile_text_color
p39
V333333
p40
sVprofile_image_url_https
p41
g28
sVprofile_sidebar_fill_color
p42
g18
sVentities
p43
g22
sVfollowers_count
p44
I91
sVprofile_sidebar_border_color
p45
VC0DEED
p46
sVid_str
p47
V2930118316
p48
sVprofile_background_color
p49
VC0DEED
p50
sVlisted_count
p51
I5
sVstatus
p52
(dp53
Vlang
p54
Ven
p55
sVfavorited
p56
I00
sg43
(dp57
Vsymbols
p58
(lp59
(dp60
Vindices
p61
(lp62
I48
aI51
asVtext
p63
VSA
p64
sa(dp65
g61
(lp66
I53
aI56
asg63
VHL
p67
sa(dp68
g61
(lp69
I58
aI63
asg63
VJNUG
p70
sasVuser_mentions
p71
(lp72
sVhashtags
p73
(lp74
sg25
(lp75
ssVcontributors
p76
NsVtruncated
p77
I00
sg63
Vout of the chinese names for a loss. added onto $SA, $HL, $JNUG
p78
sVcreated_at
p79
VFri Nov 13 15:55:18 +0000 2015
p80
sVretweeted
p81
I00
sVin_reply_to_status_id_str
p82
NsVcoordinates
p83
NsVin_reply_to_user_id_str
p84
NsVsource
p85
V<a href="http://twitter.com/download/iphone" rel="nofollow">Twitter for iPhone</a>
p86
sVin_reply_to_status_id
p87
NsVin_reply_to_screen_name
p88
Nsg47
V665196245225504770
p89
sVplace
p90
NsVretweet_count
p91
I0
sVgeo
p92
Nsg35
L665196245225504770L
sVfavorite_count
p93
I0
sVin_reply_to_user_id
p94
NssVis_translation_enabled
p95
I00
sVutc_offset
p96
I-18000
sVstatuses_count
p97
I513
sg23
VProfessional global macro short term/reversals/swing trader. Opinions only.
p98
sVfriends_count
p99
I388
sVlocation
p100
V
p101
sVprofile_link_color
p102
V0084B4
p103
sVprofile_image_url
p104
Vhttp://pbs.twimg.com/profile_images/637555170436583424/L8V6uME1_normal.jpg
p105
sVfollowing
p106
I00
sVgeo_enabled
p107
I00
sVprofile_banner_url
p108
Vhttps://pbs.twimg.com/profile_banners/2930118316/1440839747
p109
sVprofile_background_image_url
p110
Vhttp://abs.twimg.com/images/themes/theme1/bg.png
p111
sVscreen_name
p112
VWallStreetTree
p113
sg54
Ven
p114
sVprofile_background_tile
p115
I00
sVfavourites_count
p116
I160
sVname
p117
VtheNose
p118
sVnotifications
p119
I00
sVurl
p120
Nsg79
VThu Dec 18 17:29:13 +0000 2014
p121
sVcontributors_enabled
p122
I00
sVtime_zone
p123
VEastern Time (US & Canada)
p124
sVprotected
p125
I00
sVdefault_profile
p126
I01
sVis_translator
p127
I00
ssS'contributors_enabled'
p128
I00
sS'profile_text_color'
p129
g40
sS'followers_count'
p130
I91
sS'profile_sidebar_border_color'
p131
g46
sS'id_str'
p132
g48
sS'default_profile_image'
p133
I00
sS'listed_count'
p134
I5
sS'status'
p135
g8
(ctweepy.models
Status
p136
g10
Ntp137
Rp138
(dp139
S'favorited'
p140
I00
sS'contributors'
p141
NsS'truncated'
p142
I00
sS'text'
p143
g78
sS'source_url'
p144
Vhttp://twitter.com/download/iphone
p145
sS'in_reply_to_status_id'
p146
NsS'geo'
p147
Nsg19
L665196245225504770L
sS'favorite_count'
p148
I0
sS'lang'
p149
g55
sg21
g57
sS'created_at'
p150
cdatetime
datetime
p151
(S'\x07\xdf\x0b\r\x0f7\x12\x00\x00\x00'
p152
tp153
Rp154
sg29
g53
sS'coordinates'
p155
NsS'in_reply_to_user_id_str'
p156
NsS'source'
p157
VTwitter for iPhone
p158
sS'in_reply_to_status_id_str'
p159
NsS'in_reply_to_screen_name'
p160
Nsg132
g89
sS'retweeted'
p161
I00
sS'place'
p162
NsS'retweet_count'
p163
I0
sS'in_reply_to_user_id'
p164
NsbsS'is_translation_enabled'
p165
I00
sS'utc_offset'
p166
I-18000
sS'statuses_count'
p167
I513
sS'description'
p168
g98
sS'friends_count'
p169
I388
sS'location'
p170
g101
sS'profile_link_color'
p171
g103
sS'profile_image_url'
p172
g105
sS'notifications'
p173
I00
sS'geo_enabled'
p174
I00
sS'profile_background_color'
p175
g50
sS'profile_banner_url'
p176
g109
sS'profile_background_image_url'
p177
g111
sS'screen_name'
p178
g113
sg149
g114
sg1
I00
sS'profile_background_tile'
p179
I00
sS'favourites_count'
p180
I160
sS'name'
p181
g118
sS'url'
p182
Nsg150
g151
(S'\x07\xde\x0c\x12\x11\x1d\r\x00\x00\x00'
p183
tp184
Rp185
sS'profile_background_image_url_https'
p186
g37
sS'time_zone'
p187
g124
sS'protected'
p188
I00
sS'default_profile'
p189
I01
sS'is_translator'
p190
I00
sbs.