(dp0
S'following'
p1
(lp2
(lp3
L3017654325L
aL2999842234L
aL2174110039L
aL2215379011L
aL2999776817L
aI201657108
aL2999848132L
aI1958752610
aI201296379
aI15296897
aI203865381
aI203862593
aI203859927
aI201771384
aI201737524
aI201724739
aI201706499
aI155300737
aI155212913
aI201637866
aL2999658401L
aL2999672518L
aL2999632161L
aL2999671493L
aL2999735878L
aL2999689781L
aL2225016968L
aL2999752275L
aL2999760448L
aL2999680401L
aI207435193
aI23059499
aasS'followers'
p4
(lp5
(lp6
L4154941402L
aL4237571658L
aL2525665523L
aL3625499534L
aI19732105
aL3888098296L
aL4179152609L
aI1924312855
aL4151223586L
aL2369571993L
aL4022475137L
aL2262622940L
aL4082700374L
aL3708991281L
aL2328867933L
aL4111792919L
aI856965192
aL3994877896L
aL4159812313L
aI539700621
aI1691018384
aL4112985833L
aI1580060929
aL2723372996L
aI339296724
aI1510777118
aI1037339275
aL2344223863L
aL3379261569L
aL3881345241L
aI236251633
aL3876668533L
aI359923345
aL3753503662L
aL4065830897L
aL3627968296L
aI182180144
aI556065757
aL3353091132L
aI136502927
aI766528818
aI1371367364
aL3269121480L
aI608094213
aL3862655481L
aL4004264183L
aI328774344
aI364424914
aL3273562076L
aI24121581
aL4005084194L
aI119349828
aL3817065201L
aI1163358858
aI281749118
aI95004424
aI89626140
aI981236256
aI48177993
aL2292699215L
aI21206173
aI62138251
aL2179084381L
aL3892471329L
aL2249751139L
aI15203400
aI1884628062
aI1861916791
aL2209743058L
aI49041692
aL3976287207L
aL3225694143L
aI264350966
aI27689679
aI240526672
aI1529917477
aI197809148
aL2466373656L
aI40844812
aI434701535
aL3384139461L
aL3865461854L
aL3324163801L
aL3619145715L
aI40982693
aL3090281978L
aL3816986358L
aI148291630
aL3805150955L
aI901960339
aL3810470233L
aI19101900
aL3847169957L
aI389944340
aL3202557220L
aL3763030214L
aI342156110
aI311568741
aL3750385515L
aI552652149
aI814280166
aI127272787
aL3266990695L
aI207581232
aI1393397090
aL3480251534L
aL3245678550L
aI1639229130
aL2314289604L
aL3771658515L
aI294293035
aI585746229
aL2899941007L
aI220723510
aL3063269664L
aI422336726
aL3723241768L
aI355932243
aI49253250
aL2259028105L
aL3335790335L
aI51348960
aI21354868
aI24150996
aL3506619435L
aI65224595
aI236024390
aI36894359
aI711262916
aI32238481
aL3543418455L
aL2384199668L
aL3312947496L
aL3015954187L
aL2666295752L
aI171868941
aL3432619040L
aL3361866975L
aI205580484
aI287885364
aL3503027115L
aI32858138
aL3028563556L
aL2781050528L
aL3021340291L
aI1033929031
aI1962442633
aL3307843163L
aI222524080
aL3461031256L
aL3199815959L
aI250543676
aI57268622
aL2444504669L
aL2607342600L
aI867150823
aL3271950253L
aI1323090848
aL3187338858L
aI29687127
aL2371112006L
aI235253587
aI977782442
aI324938886
aI63749645
aL3234556632L
aI561622382
aL3370136965L
aL2545290698L
aI235123254
aI1330012542
aL3402790708L
aI1623443508
aL2442746521L
aL3392646663L
aI487721966
aI1037401915
aL3329086693L
aI473463895
aI55340670
aI16145086
aI1184347172
aI20828177
aI81953447
aL2385321504L
aI116054530
aL2883878790L
aL3431964693L
aI488676236
aL2576242989L
aI1670056495
aI47422338
aI1861278086
aL2524737943L
aI1120700546
aI566283446
aL3389630121L
aI1170340772
aI242755419
aI1376720149
aI369907483
aL2198470370L
aL2183323887L
aI194450471
aL2555712373L
aL3405242529L
aL3028404561L
aL3422787579L
aI214845667
aI452625365
aL3111274370L
aI16386287
aI540020175
aL3256858139L
aL2769337670L
aL3306949236L
aI209698188
aL2343757398L
aL3415292680L
aL2657638488L
aL3383239157L
aI327495481
aI243279995
aL3311888438L
aI44571390
aI63806921
aL3310153177L
aL3409485220L
aI357081954
aI47419808
aL2974704723L
aI286641368
aI33585862
aI1520072330
aI185300845
aI92000818
aI1209722742
aL3376345438L
aL2166047082L
aI416963837
aI31701795
aI1437249846
aL3295119027L
aI1851025465
aI11637682
aI341524960
aI357046714
aL3369613229L
aI407317638
aL3151719145L
aI1275264824
aI186927522
aI60116092
aL2569021988L
aI45357869
aL2933539450L
aL2735373277L
aI260431748
aL3331802728L
aL2684808690L
aI521205140
aI1922112872
aI107602538
aL3253957946L
aI1153886502
aI565956323
aI59461685
aL3270292794L
aI48412736
aL3011809634L
aI92761466
aI348579528
aI20653505
aL3290149662L
aL3270271850L
aI1592235810
aL3179490944L
aL3290936960L
aL3281192292L
aL2419651428L
aI374368942
aI197824932
aL3056899210L
aL3026600565L
aI27171519
aI579102731
aL2910251260L
aI23585134
aI583215142
aI133615938
aI162477707
aI591605360
aL3183654936L
aL3118803425L
aL3383848889L
aL3348205816L
aI1403255070
aI1346738989
aI301945476
aI22111888
aI22397023
aI1047905552
aL2250859309L
aI590150226
aL3290136309L
aL3379028315L
aI395327866
aI23728057
aI1092248804
aI115242738
aL2875199408L
aL3271512049L
aI218037566
aI42329950
aI77558206
aL3323728491L
aL2567671548L
aI319616110
aL3374304149L
aI131922622
aL3373817794L
aI15045793
aL2303148302L
aI127967449
aI855404622
aI381759346
aL3361302706L
aL2690637332L
aL3040041494L
aL3148994434L
aI377975140
aI1173745273
aL2840526924L
aL3272725346L
aI887743975
aI1732268125
aI42233151
aL3265945052L
aL2920029152L
aI107496551
aL3363069850L
aL3241786790L
aI357034804
aI348494802
aI122087860
aL3257944196L
aI1918307580
aI963315643
aL3241888604L
aI34472378
aL2228832602L
aL2367434282L
aI1937934500
aL2926543130L
aI112570340
aL3351809283L
aI186170683
aL3193282445L
aL3063346128L
aI17557915
aL3259568347L
aI65781175
aL3305297038L
aL2922206496L
aL2912305028L
aL3238170066L
aI531719342
aI55408377
aI578494586
aL2935496925L
aI1223796470
aL2821060967L
aL2483061624L
aL3020486501L
aI1930308944
aI40007076
aL3300698853L
aI423184029
aI138248153
aL3342984573L
aI364101553
aL3336458955L
aI160606990
aI358750258
aI333123839
aI532818264
aL2401648044L
aI748986650
aI154926637
aI342808932
aI263716858
aI37240893
aL3341003817L
aI51960246
aI100523581
aI268439402
aI1914445254
aI340129345
aI69844969
aL3331107945L
aI246921181
aI486888151
aI631563719
aI340105740
aI45437231
aI116769423
aI155562038
aL3086803737L
aI576046260
aL2462626406L
aI17615110
aL3320849595L
aI133478263
aI427615273
aI344014610
aI1063810058
aI493659171
aI211691778
aL2949842549L
aL3238834350L
aI31595791
aI272821161
aL3229242288L
aI1576122055
aI472426245
aI1939320308
aI229388376
aI969911809
aI86820944
aI1414672046
aL2966014439L
aI364309280
aI34281539
aL2979905729L
aI277181416
aL2792455747L
aI1872941881
aL3037072783L
aI150902744
aI626612323
aL3234260678L
aL3206030783L
aL3232297507L
aI372047064
aL3302601328L
aL2174826535L
aI1618779278
aL2862077736L
aL2859183021L
aL3187414892L
aL3229303506L
aI568882636
aL2891902893L
aI1339041386
aI997840896
aI1871585166
aI100424204
aI14556368
aL3000090173L
aI1595682440
aI302772765
aI28779826
aI237064795
aI1924947228
aI85872613
aI629573379
aL2806977264L
aI302255972
aI606444385
aI444023903
aL3075079049L
aI1650757994
aL2729704560L
aI430738001
aL3185728742L
aI124409822
aL2461976336L
aI954368532
aI192988875
aI476023747
aI45955791
aI353153615
aL2409581528L
aI350637861
aI589705286
aI1708788374
aI72339037
aL2920270565L
aI48145071
aL2686353036L
aL3290760196L
aI101051504
aL3220351818L
aL2685953011L
aL2221685304L
aI19023569
aI57036453
aL2417697408L
aL2899412702L
aI538282117
aL3219821924L
aI515371010
aL2968457380L
aI255958771
aL3067676293L
aL3241046175L
aI1678872805
aI393728772
aL2474685499L
aL3241558287L
aL3188262614L
aL3236730725L
aL2582219251L
aL3196496340L
aI35922675
aL2949227509L
aI236206190
aL2617691258L
aI208495220
aI817995200
aL2214621949L
aL2827920042L
aI19053221
aI47240025
aI250622536
aL3240015399L
aL3192800438L
aL3161818520L
aI23100671
aL3242694256L
aI51869807
aI44549904
aL3145476493L
aL3036451457L
aI1277642394
aI345775247
aL2956369759L
aI64542030
aI17768004
aI1077168583
aI1597724246
aI492248877
aI101672934
aL2927337550L
aI251820987
aI246703859
aI148124849
aI743342276
aI823551151
aI1110397651
aL3239247257L
aI162443506
aL3238677881L
aL2743885543L
aI1578732774
aI455263458
aL2916867084L
aL2755518876L
aI341031417
aI887942809
aI1442178204
aL3201308235L
aI496997529
aI17034426
aI61536614
aL3232383405L
aI491500001
aL3051512641L
aI583603141
aI594097342
aL2809026977L
aI1067349001
aL3183571862L
aI13601582
aI116584120
aL3205850758L
aI940728595
aL2984030420L
aL3059628724L
aL3181212894L
aI183286981
aI118415442
aL2817927638L
aI421749923
aI792673254
aL3044763100L
aL3073408867L
aL3198740170L
aI22768356
aL3092349657L
aL2689582291L
aI632719130
aI1847637115
aL2336908730L
aI41077675
aI245123147
aI27435791
aL2462823554L
aI15897179
aL3216927819L
aI576054852
aI74795906
aI1330125870
aL2422785331L
aI14667756
aL3153919445L
aL3208180774L
aI162223292
aI14359937
aL3164947232L
aL3207416225L
aL2898526274L
aL2554701152L
aI904968246
aI14113534
aL3012561618L
aL2888753306L
aI54656325
aI31079542
aL2724779532L
aL3064087960L
aL3075298805L
aL3198766679L
aL3183608777L
aI391549507
aI98193605
aI325662894
aL3124754815L
aI316706886
aI902199630
aL2821050351L
aI303531344
aI91541493
aI499126522
aL3150033966L
aI422018628
aI1075509776
aL3184857184L
aL2985986987L
aI570154956
aI186204169
aI320913991
aI488029316
aL2867994923L
aL3029028220L
aL3086463490L
aL2956621255L
aL3171512279L
aL3138524846L
aL2413360772L
aI247609940
aI324551714
aL2855743464L
aI950320543
aL3157834302L
aI224812009
aL2651150736L
aI435348865
aL3074789790L
aI62204314
aL2921912586L
aL3098363900L
aI1703415847
aI305827554
aI38554131
aI167638323
aI1135111482
aL3096858601L
aI377418208
aI32489681
aI481246888
aI1662715748
aL3038637228L
aL3150511910L
aI26806358
aL3141435039L
aI1263727549
aL3146690000L
aI79985935
aL3133695316L
aI407604167
aI258975001
aI98283376
aI193918300
aL2864263065L
aL3074949160L
aI94871786
aI1042216117
aL2317528796L
aI74924764
aL2817467362L
aI843532154
aI332073697
aL2432456940L
aI34850721
aL2970371589L
aI250869592
aI816397561
aL2803706387L
aL3042609721L
aI571457354
aI626902143
aL3138903119L
aL3138810358L
aL3138921253L
aL2940159187L
aI23293125
aI244130845
aL3130987649L
aI19723900
aL3065707604L
aL2912303863L
aL2912291497L
aI82930064
aL3112155856L
aI82526982
aI350132317
aI28012875
aL2603486058L
aL2467877707L
aI744606446
aI1113906260
aL2499437932L
aL3128294791L
aI46452350
aI209508990
aL3131304659L
aI835576381
aI518259924
aL3110478092L
aL2954002249L
aI809429328
aI987829122
aI843242424
aL2814677838L
aI1132115060
aI40951582
aL3121982162L
aI88909917
aL3080628858L
aI343468205
aL3129168575L
aL3118839451L
aI545544672
aI340328448
aL3124506988L
aI924967394
aI129970182
aI540043434
aI48751486
aI25465666
aI132645602
aL2500005144L
aL2855145099L
aI224362870
aI93688093
aL2997788563L
aI529012701
aI1062081942
aI1286540352
aI269485200
aL2536012925L
aI537128946
aL2960618581L
aL3109268433L
aL3107435757L
aI1493877708
aI348642818
aI107646745
aL2360972480L
aI129139698
aL2394509306L
aL2528005758L
aI1045899426
aI211809677
aI18888786
aL2990236413L
aI49504547
aL3099788460L
aI1285949539
aL3085045167L
aL3098628554L
aI213636586
aI320945592
aI274326020
aL3096312061L
aI840504590
aI201803927
aI15228455
aI146085385
aI1299253807
aI1045499712
aI451070045
aL3092152979L
aL2454342457L
aL2819638333L
aL2703837043L
aI241542547
aI14611645
aI363351404
aL3086509811L
aL2899752808L
aL2713864140L
aL3091931291L
aI101084582
aL2922523948L
aL3064079149L
aI576765914
aL2980641797L
aI739022772
aL3014607646L
aI348310779
aL3079983599L
aL2880111230L
aL2416749396L
aL2934378122L
aI853959488
aL2758675495L
aL2590848315L
aL2857505232L
aL3064016585L
aL3069770298L
aI52640185
aI1530916794
aL3066558633L
aI201768863
aL3043802094L
aL2590325786L
aL2255588020L
aL3081508768L
aL3065795349L
aL2922380907L
aI176455094
aL2303895277L
aL3043679403L
aI22248736
aI438646725
aL3037641536L
aI603444593
aI237462318
aI331905455
aI1016042929
aI82123979
aL3017654325L
aL3038746981L
aI31446691
aI175302216
aI32389456
aL2901992178L
aL3065083689L
aI308548657
aL3069302783L
aI179122685
aL3051433140L
aL2645640660L
aI31806649
aI19873165
aI31887737
aL2767355141L
aL2891958142L
aL2613231150L
aI985453868
aI409732106
aI140344574
aL3065042111L
aI631314952
aI751180962
aI1183093615
aL3056844125L
aL2980053983L
aI776735534
aI158879305
aI617385365
aL2412824070L
aI29012171
aL3019124826L
aI390450593
aI190726185
aL2783976869L
aL2257596799L
aL3059703112L
aL3033585302L
aL2837679965L
aL3038432233L
aI802167506
aL3057061060L
aI1112770386
aI1111723212
aI162084706
aI35391063
aL2451552650L
aL2261608514L
aI490777247
aL2170167353L
aI192784772
aI315189503
aL3026443232L
aL2405169193L
aL3032887148L
aL3045516255L
aI285965535
aL2460587652L
aI239080208
aL2149942973L
aI413640202
aL2566500632L
aL2820187506L
aI1531007624
aI395006078
aL3000318532L
aL3043732144L
aI813806034
aI336123828
aL3023687200L
aL2725185522L
aL3024055050L
aI110584925
aL3016230169L
aL2547081397L
aL2993970327L
aI287589209
aI400054955
aL3033090473L
aI591353360
aL2920206628L
aL3036454545L
aI37668058
aL2308267968L
aL3035795469L
aI29746132
aI372360103
aI1306200696
aI386013375
aL2680619310L
aI356331880
aI14467118
aL2785328266L
aI490566394
aL2574061624L
aI842345826
aL2434523124L
aI611817117
aL2173982031L
aL2322972175L
aI38959433
aI382542866
aI49388030
aI1275929029
aI101674339
aL3020122011L
aL3024493720L
aI247160127
aI73009719
aI381815588
aI55218132
aL2999231730L
aI395527266
aI366246758
aL3015950843L
aL2746768135L
aI26431309
aL2225016968L
aL2999752275L
aL2999760448L
aL2999680401L
aL2999689781L
aL2999735878L
aI207435193
aL2999671493L
aL2999632161L
aL2999658401L
aL2999672518L
aI201637866
aI15296897
aI155212913
aI155300737
aI201296379
aI201706499
aI201724739
aI201737524
aI201771384
aI203859927
aI203862593
aI203865381
aI1958752610
aI23521254
aL2174110039L
aL2215379011L
aL2999848132L
aL2999842234L
aI168027459
aL2999776817L
aI201657108
aI23059499
aasS'obj'
p7
ccopy_reg
_reconstructor
p8
(ctweepy.models
User
p9
c__builtin__
object
p10
Ntp11
Rp12
(dp13
S'follow_request_sent'
p14
NsS'has_extended_profile'
p15
I00
sS'profile_use_background_image'
p16
I01
sS'profile_sidebar_fill_color'
p17
VDDEEF6
p18
sS'id'
p19
L2999804950L
sS'verified'
p20
I00
sS'entities'
p21
(dp22
Vurl
p23
(dp24
Vurls
p25
(lp26
(dp27
g23
Vhttp://t.co/BKjcLVIRic
p28
sVindices
p29
(lp30
I0
aI22
asVexpanded_url
p31
Vhttp://seekingalpha.com/news/quick-ideas
p32
sVdisplay_url
p33
Vseekingalpha.com/news/quick-ide\u2026
p34
sassVdescription
p35
(dp36
g25
(lp37
(dp38
g23
Vhttps://t.co/IA82A8AOS3
p39
sg29
(lp40
I83
aI106
asg31
Vhttps://twitter.com/SeekingAlpha/following
p41
sg33
Vtwitter.com/SeekingAlpha/f\u2026
p42
sasssS'profile_image_url_https'
p43
Vhttps://pbs.twimg.com/profile_images/559729728114786304/4sQhk8UF_normal.png
p44
sS'_json'
p45
(dp46
Vfollow_request_sent
p47
NsVhas_extended_profile
p48
I00
sVprofile_use_background_image
p49
I01
sVdefault_profile_image
p50
I00
sVid
p51
L2999804950L
sVprofile_background_image_url_https
p52
Vhttps://abs.twimg.com/images/themes/theme1/bg.png
p53
sVverified
p54
I00
sVprofile_text_color
p55
V333333
p56
sVprofile_image_url_https
p57
g44
sVprofile_sidebar_fill_color
p58
g18
sVentities
p59
g22
sVfollowers_count
p60
I994
sVprofile_sidebar_border_color
p61
VC0DEED
p62
sVid_str
p63
V2999804950
p64
sVprofile_background_color
p65
VC0DEED
p66
sVlisted_count
p67
I33
sVstatus
p68
(dp69
Vcontributors
p70
NsVtruncated
p71
I00
sVtext
p72
VThe Semiconductor Equipment Market Will Be Flat In 2015 - Maybe, Maybe Not? https://t.co/7N5DT9Jnb6 $AMAT $ASMI $ASML $KLAC $LRCX
p73
sVin_reply_to_status_id
p74
Nsg51
L666348290179358720L
sVfavorite_count
p75
I0
sVsource
p76
V<a href="http://seekingalpha.com" rel="nofollow">Seeking Alpha</a>
p77
sVretweeted
p78
I00
sVcoordinates
p79
Nsg59
(dp80
Vsymbols
p81
(lp82
(dp83
g29
(lp84
I100
aI105
asg72
VAMAT
p85
sa(dp86
g29
(lp87
I106
aI111
asg72
VASMI
p88
sa(dp89
g29
(lp90
I112
aI117
asg72
VASML
p91
sa(dp92
g29
(lp93
I118
aI123
asg72
VKLAC
p94
sa(dp95
g29
(lp96
I124
aI129
asg72
VLRCX
p97
sasVuser_mentions
p98
(lp99
sVhashtags
p100
(lp101
sg25
(lp102
(dp103
g23
Vhttps://t.co/7N5DT9Jnb6
p104
sg29
(lp105
I76
aI99
asg31
Vhttp://seekingalpha.com/article/3689126-the-semiconductor-equipment-market-will-be-flat-in-2015-maybe-maybe-not?source=twitter_sa_quickideas
p106
sg33
Vseekingalpha.com/article/368912\u2026
p107
sassVin_reply_to_screen_name
p108
Nsg63
V666348290179358720
p109
sVretweet_count
p110
I0
sVin_reply_to_user_id
p111
NsVfavorited
p112
I00
sVgeo
p113
NsVin_reply_to_user_id_str
p114
NsVpossibly_sensitive
p115
I00
sVlang
p116
Ven
p117
sVcreated_at
p118
VMon Nov 16 20:13:07 +0000 2015
p119
sVin_reply_to_status_id_str
p120
NsVplace
p121
NssVis_translation_enabled
p122
I00
sVutc_offset
p123
NsVstatuses_count
p124
I5966
sg35
VQuick ideas for equity investors from Seeking Alpha. For all SA Twitter feeds, see https://t.co/IA82A8AOS3
p125
sVfriends_count
p126
I32
sVlocation
p127
V
p128
sVprofile_link_color
p129
V360000
p130
sVprofile_image_url
p131
Vhttp://pbs.twimg.com/profile_images/559729728114786304/4sQhk8UF_normal.png
p132
sVfollowing
p133
NsVgeo_enabled
p134
I00
sVprofile_background_image_url
p135
Vhttp://abs.twimg.com/images/themes/theme1/bg.png
p136
sVscreen_name
p137
VSA_QuickIdeas
p138
sg116
Ven
p139
sVprofile_background_tile
p140
I00
sVfavourites_count
p141
I0
sVname
p142
VQuick Stock Ideas
p143
sVnotifications
p144
Nsg23
Vhttp://t.co/BKjcLVIRic
p145
sg118
VMon Jan 26 15:08:10 +0000 2015
p146
sVcontributors_enabled
p147
I00
sVtime_zone
p148
NsVprotected
p149
I00
sVdefault_profile
p150
I00
sVis_translator
p151
I00
ssS'contributors_enabled'
p152
I00
sS'profile_text_color'
p153
g56
sS'followers_count'
p154
I994
sS'profile_sidebar_border_color'
p155
g62
sS'id_str'
p156
g64
sS'default_profile_image'
p157
I00
sS'listed_count'
p158
I33
sS'status'
p159
g8
(ctweepy.models
Status
p160
g10
Ntp161
Rp162
(dp163
S'favorited'
p164
I00
sS'contributors'
p165
NsS'truncated'
p166
I00
sS'text'
p167
g73
sS'source_url'
p168
Vhttp://seekingalpha.com
p169
sS'possibly_sensitive'
p170
I00
sS'in_reply_to_status_id'
p171
NsS'geo'
p172
Nsg19
L666348290179358720L
sS'favorite_count'
p173
I0
sS'lang'
p174
g117
sg21
g80
sS'created_at'
p175
cdatetime
datetime
p176
(S'\x07\xdf\x0b\x10\x14\r\x07\x00\x00\x00'
p177
tp178
Rp179
sg45
g69
sS'coordinates'
p180
NsS'in_reply_to_user_id_str'
p181
NsS'source'
p182
VSeeking Alpha
p183
sS'in_reply_to_status_id_str'
p184
NsS'in_reply_to_screen_name'
p185
Nsg156
g109
sS'retweeted'
p186
I00
sS'place'
p187
NsS'retweet_count'
p188
I0
sS'in_reply_to_user_id'
p189
NsbsS'is_translation_enabled'
p190
I00
sS'utc_offset'
p191
NsS'statuses_count'
p192
I5966
sS'description'
p193
g125
sS'friends_count'
p194
I32
sS'location'
p195
g128
sS'profile_link_color'
p196
g130
sS'profile_image_url'
p197
g132
sS'notifications'
p198
NsS'geo_enabled'
p199
I00
sS'profile_background_color'
p200
g66
sS'profile_background_image_url'
p201
g136
sS'screen_name'
p202
g138
sg174
g139
sg1
I00
sS'profile_background_tile'
p203
I00
sS'favourites_count'
p204
I0
sS'name'
p205
g143
sS'url'
p206
g145
sg175
g176
(S'\x07\xdf\x01\x1a\x0f\x08\n\x00\x00\x00'
p207
tp208
Rp209
sS'profile_background_image_url_https'
p210
g53
sS'time_zone'
p211
NsS'protected'
p212
I00
sS'default_profile'
p213
I00
sS'is_translator'
p214
I00
sbs.