(dp0
S'following'
p1
(lp2
(lp3
I1484632920
aI436947490
aI240660198
aI1949150594
aI180556387
aI1136106835
aI599477579
aI326745108
aI19654407
aI1184269861
aI207357196
aL3280573716L
aI253376291
aI15320321
aI41391910
aI14290226
aI338875694
aI16359602
aI17473062
aL2363049998L
aI60113926
aI430841130
aI238174807
aI200198136
aI21000248
aI139707166
aI398105054
aI14132388
aI51205137
aI250758475
aI46759952
aL2412561260L
aI59174892
aI73465112
aI49958733
aI19739279
aL3436521372L
aI1225981051
aI587846745
aI195264385
aI541253226
aI82414172
aI1064700308
aL2151130166L
aI21917683
aI930541790
aI193542064
aI368578701
aL2803822165L
aI15391371
aI20253024
aI62562916
aI294588244
aI298953617
aI431469086
aL2313837474L
aI21342612
aI415921084
aI37065910
aI136842204
aI790082490
aI1642858368
aI58808528
aI92116069
aI17695167
aI231123745
aI17583317
aI524574744
aI15246621
aL2240370386L
aI16806253
aI42570063
aI5768632
aI14751476
aL2320755170L
aI147311583
aI19143910
aI44429768
aI102212196
aI25827743
aI1399951764
aI40129171
aI44824361
aL2148020647L
aI98439400
aI17428473
aI106820363
aI70725642
aI65466158
aI121580502
aI55354528
aI54330245
aI48615954
aL2420975353L
aI22973017
aI45846574
aI5831802
aI527056259
aI14250809
aI25325563
aI14173032
aI27746125
aI19651092
aL2453385626L
aI20079668
aI1005382280
aI28402887
aI164304654
aI468706090
aI23193379
aI183279521
aI156341661
aI7520262
aI52166809
aI264370502
aI14886375
aI36041084
aI61342056
aI423769635
aI466333756
aI26223938
aI714051110
aI19546277
aI21394549
aI22867489
aI203652149
aI160625399
aI222177693
aI199640036
aI61292961
aI14115408
aI1576052886
aI14292717
aI48938064
aI316485110
aI21669980
aI1364930179
aI44196397
aI64657863
aI63202368
aI126717954
aI339780067
aI449588356
aI381289719
aI1652541
aI19111917
aI20209445
aI7557352
aI182642157
aI18571616
aI31001654
aI363112193
aI20402945
aI20562637
aI55308734
aI21810002
aI263440231
aL2303751216L
aI1534167900
aI375980238
aI1927931875
aI1582853809
aI16017475
aI1209991820
aI161855898
aI54675700
aI332617373
aI19988458
aI233021298
aI583938358
aI23484039
aL2411203357L
aI6730222
aI253518798
aI19997064
aI40471897
aI267867165
aI21232827
aI22088714
aI253168011
aI898301664
aI25163231
aI37284991
aI38053161
aI97334517
aI34671618
aI622111302
aI244248703
aI247857712
aI302545862
aI97530284
aI202915788
aI227755413
aI14802885
aI232120274
aI24227424
aI1473431
aI1413027896
aI18856867
aI33973843
aI38476367
aI273538988
aI22264891
aI300338214
aI14096763
aI1935513416
aI84402174
aI243318995
aI22522178
aI286654612
aI197869772
aasS'followers'
p4
(lp5
(lp6
I1304060246
aL3971422993L
aL3063418949L
aI84444981
aI33828006
aI260202707
aL3162319070L
aI82965864
aI19851745
aI26398046
aI318393064
aL3822136512L
aI510718278
aL3489736273L
aL3147528713L
aI83992846
aI624920658
aI872122615
aI1659187860
aL2454714289L
aL2778766746L
aI1906349580
aI1101340622
aL2975839258L
aI16531917
aI18171008
aL3249835170L
aI248755278
aI45846574
aI1877894940
aL2951528107L
aL2985013655L
aI232120274
aL3099543912L
aL2792828298L
aI33662547
aL3139353514L
aI25163231
aI995324587
aL3045004801L
aI48938064
aasS'obj'
p7
ccopy_reg
_reconstructor
p8
(ctweepy.models
User
p9
c__builtin__
object
p10
Ntp11
Rp12
(dp13
S'follow_request_sent'
p14
NsS'has_extended_profile'
p15
I00
sS'profile_use_background_image'
p16
I01
sS'profile_sidebar_fill_color'
p17
VDDEEF6
p18
sS'id'
p19
L3054376082L
sS'verified'
p20
I00
sS'entities'
p21
(dp22
Vdescription
p23
(dp24
Vurls
p25
(lp26
sssS'profile_image_url_https'
p27
Vhttps://pbs.twimg.com/profile_images/572386187140198400/6RBTlT-n_normal.jpeg
p28
sS'_json'
p29
(dp30
Vfollow_request_sent
p31
NsVhas_extended_profile
p32
I00
sVprofile_use_background_image
p33
I01
sVdefault_profile_image
p34
I00
sVid
p35
L3054376082L
sVprofile_background_image_url_https
p36
Vhttps://abs.twimg.com/images/themes/theme1/bg.png
p37
sVverified
p38
I00
sVprofile_text_color
p39
V333333
p40
sVprofile_image_url_https
p41
g28
sVprofile_sidebar_fill_color
p42
g18
sVentities
p43
g22
sVfollowers_count
p44
I41
sVprofile_sidebar_border_color
p45
VC0DEED
p46
sVid_str
p47
V3054376082
p48
sVprofile_background_color
p49
VC0DEED
p50
sVlisted_count
p51
I0
sVstatus
p52
(dp53
Vcontributors
p54
NsVtruncated
p55
I00
sVtext
p56
VRT @JeopardyStocks: "Who is: Joe Kernen?" https://t.co/wK17TNV0oU
p57
sVin_reply_to_status_id
p58
Nsg35
L666263629440815104L
sVfavorite_count
p59
I0
sVsource
p60
V<a href="http://twitter.com/download/android" rel="nofollow">Twitter for Android</a>
p61
sVretweeted
p62
I00
sVcoordinates
p63
Nsg43
(dp64
Vsymbols
p65
(lp66
sVuser_mentions
p67
(lp68
(dp69
g35
L4185693733L
sVindices
p70
(lp71
I3
aI18
asg47
V4185693733
p72
sVscreen_name
p73
VJeopardyStocks
p74
sVname
p75
VJeopardy! Stocks
p76
sasVhashtags
p77
(lp78
sg25
(lp79
sVmedia
p80
(lp81
(dp82
Vsource_user_id
p83
L4185693733L
sVsource_status_id_str
p84
V664800794156339200
p85
sVexpanded_url
p86
Vhttp://twitter.com/JeopardyStocks/status/664800794156339200/photo/1
p87
sVdisplay_url
p88
Vpic.twitter.com/wK17TNV0oU
p89
sVurl
p90
Vhttps://t.co/wK17TNV0oU
p91
sVmedia_url_https
p92
Vhttps://pbs.twimg.com/media/CTnYzKyUkAIQrzQ.png
p93
sVsource_user_id_str
p94
V4185693733
p95
sVsource_status_id
p96
L664800794156339200L
sg47
V664800793594204162
p97
sVsizes
p98
(dp99
Vsmall
p100
(dp101
Vh
p102
I216
sVresize
p103
Vfit
p104
sVw
p105
I340
ssVlarge
p106
(dp107
g102
I245
sg103
Vfit
p108
sg105
I384
ssVmedium
p109
(dp110
g102
I245
sg103
Vfit
p111
sg105
I384
ssVthumb
p112
(dp113
g102
I150
sg103
Vcrop
p114
sg105
I150
sssg70
(lp115
I42
aI65
asVtype
p116
Vphoto
p117
sg35
L664800793594204162L
sVmedia_url
p118
Vhttp://pbs.twimg.com/media/CTnYzKyUkAIQrzQ.png
p119
sassVin_reply_to_screen_name
p120
Nsg47
V666263629440815104
p121
sVretweet_count
p122
I9
sVin_reply_to_user_id
p123
NsVfavorited
p124
I00
sVretweeted_status
p125
(dp126
g54
Nsg55
I00
sg56
V"Who is: Joe Kernen?" https://t.co/wK17TNV0oU
p127
sg58
Nsg35
L664800794156339200L
sg59
I14
sg60
V<a href="http://twitter.com" rel="nofollow">Twitter Web Client</a>
p128
sg62
I00
sg63
Nsg43
(dp129
g65
(lp130
sg67
(lp131
sg77
(lp132
sg25
(lp133
sg80
(lp134
(dp135
g86
Vhttp://twitter.com/JeopardyStocks/status/664800794156339200/photo/1
p136
sg88
Vpic.twitter.com/wK17TNV0oU
p137
sg90
Vhttps://t.co/wK17TNV0oU
p138
sg92
Vhttps://pbs.twimg.com/media/CTnYzKyUkAIQrzQ.png
p139
sg47
V664800793594204162
p140
sg98
(dp141
g100
(dp142
g102
I216
sg103
Vfit
p143
sg105
I340
ssg106
(dp144
g102
I245
sg103
Vfit
p145
sg105
I384
ssg109
(dp146
g102
I245
sg103
Vfit
p147
sg105
I384
ssg112
(dp148
g102
I150
sg103
Vcrop
p149
sg105
I150
sssg70
(lp150
I22
aI45
asg116
Vphoto
p151
sg35
L664800793594204162L
sg118
Vhttp://pbs.twimg.com/media/CTnYzKyUkAIQrzQ.png
p152
sassg120
Nsg47
V664800794156339200
p153
sg122
I9
sg123
Nsg124
I00
sVgeo
p154
NsVin_reply_to_user_id_str
p155
NsVpossibly_sensitive
p156
I00
sVlang
p157
Vnl
p158
sVcreated_at
p159
VThu Nov 12 13:43:55 +0000 2015
p160
sVin_reply_to_status_id_str
p161
NsVplace
p162
Nssg154
Nsg155
Nsg156
I00
sg157
Vnl
p163
sg159
VMon Nov 16 14:36:42 +0000 2015
p164
sg161
Nsg162
NssVis_translation_enabled
p165
I00
sVutc_offset
p166
NsVstatuses_count
p167
I1094
sg23
V
p168
sVfriends_count
p169
I211
sVlocation
p170
g168
sVprofile_link_color
p171
V0084B4
p172
sVprofile_image_url
p173
Vhttp://pbs.twimg.com/profile_images/572386187140198400/6RBTlT-n_normal.jpeg
p174
sVfollowing
p175
NsVgeo_enabled
p176
I00
sVprofile_background_image_url
p177
Vhttp://abs.twimg.com/images/themes/theme1/bg.png
p178
sg73
VHiVanillaSky
p179
sg157
Ven
p180
sVprofile_background_tile
p181
I00
sVfavourites_count
p182
I663
sg75
VSleepwalker
p183
sVnotifications
p184
Nsg90
Nsg159
VMon Mar 02 02:56:50 +0000 2015
p185
sVcontributors_enabled
p186
I00
sVtime_zone
p187
NsVprotected
p188
I00
sVdefault_profile
p189
I01
sVis_translator
p190
I00
ssS'contributors_enabled'
p191
I00
sS'profile_text_color'
p192
g40
sS'followers_count'
p193
I41
sS'profile_sidebar_border_color'
p194
g46
sS'id_str'
p195
g48
sS'default_profile_image'
p196
I00
sS'listed_count'
p197
I0
sS'status'
p198
g8
(ctweepy.models
Status
p199
g10
Ntp200
Rp201
(dp202
S'favorited'
p203
I00
sS'contributors'
p204
NsS'truncated'
p205
I00
sS'text'
p206
g57
sS'source_url'
p207
Vhttp://twitter.com/download/android
p208
sS'possibly_sensitive'
p209
I00
sS'in_reply_to_status_id'
p210
NsS'geo'
p211
Nsg19
L666263629440815104L
sS'favorite_count'
p212
I0
sS'lang'
p213
g163
sS'retweeted_status'
p214
g8
(g199
g10
Ntp215
Rp216
(dp217
g203
I00
sg204
Nsg205
I00
sg206
g127
sg207
Vhttp://twitter.com
p218
sg209
I00
sg210
Nsg211
Nsg19
L664800794156339200L
sg212
I14
sg213
g158
sg21
g129
sS'created_at'
p219
cdatetime
datetime
p220
(S'\x07\xdf\x0b\x0c\r+7\x00\x00\x00'
p221
tp222
Rp223
sg29
g126
sS'coordinates'
p224
NsS'in_reply_to_user_id_str'
p225
NsS'source'
p226
VTwitter Web Client
p227
sS'in_reply_to_status_id_str'
p228
NsS'in_reply_to_screen_name'
p229
Nsg195
g153
sS'retweeted'
p230
I00
sS'place'
p231
NsS'retweet_count'
p232
I9
sS'in_reply_to_user_id'
p233
Nsbsg21
g64
sg219
g220
(S'\x07\xdf\x0b\x10\x0e$*\x00\x00\x00'
p234
tp235
Rp236
sg29
g53
sg224
Nsg225
Nsg226
VTwitter for Android
p237
sg228
Nsg229
Nsg195
g121
sg230
I00
sg231
Nsg232
I9
sg233
NsbsS'is_translation_enabled'
p238
I00
sS'utc_offset'
p239
NsS'statuses_count'
p240
I1094
sS'description'
p241
g168
sS'friends_count'
p242
I211
sS'location'
p243
g168
sS'profile_link_color'
p244
g172
sS'profile_image_url'
p245
g174
sS'notifications'
p246
NsS'geo_enabled'
p247
I00
sS'profile_background_color'
p248
g50
sS'profile_background_image_url'
p249
g178
sS'screen_name'
p250
g179
sg213
g180
sg1
I00
sS'profile_background_tile'
p251
I00
sS'favourites_count'
p252
I663
sS'name'
p253
g183
sS'url'
p254
Nsg219
g220
(S'\x07\xdf\x03\x02\x0282\x00\x00\x00'
p255
tp256
Rp257
sS'profile_background_image_url_https'
p258
g37
sS'time_zone'
p259
NsS'protected'
p260
I00
sS'default_profile'
p261
I01
sS'is_translator'
p262
I00
sbs.