(dp0
S'following'
p1
(lp2
(lp3
I1958752610
aI173769844
aI15850110
aI14846548
aI16219475
aI260919673
aI16318429
aI1946381
aI249656858
aI92598908
aI1289805486
aI235887446
aI288877600
aI116042913
aI30020244
aI93360462
aL2990032213L
aI509512542
aI629187645
aI253645976
aI80934038
aI72884827
aI39758122
aI20317066
aI16692835
aI36724039
aI169487363
aI129580123
aI360641743
aI130010264
aI294025405
aI1229948323
aI147070751
aI169261843
aI131286181
aI273767330
aI239688245
aI25030692
aI95263583
aI123524276
aI318588597
aI68845162
aI372621551
aI39562124
aI351594837
aL2336934990L
aI23973944
aI16116217
aL2634271506L
aL4086878235L
aI124585235
aI91433689
aI1447201154
aL2342215530L
aL2756114431L
aI82762694
aI64857767
aL3021630315L
aI300982223
aI294405690
aI334827069
aI984101556
aL3364127872L
aI1898679565
aL2666198292L
aI19303107
aI27785451
aI16668573
aI18369812
aI253322962
aI32627702
aI26788389
aI1183838114
aI433112731
aL3195793305L
aI100767876
aI104952689
aL2875817634L
aI17549691
aI55561590
aL2325146026L
aI19739279
aL2678090893L
aL3392347685L
aL3075445397L
aL3136598905L
aI16573941
aI446054416
aI468706991
aL2857216422L
aI15745674
aI87732721
aI14332698
aI20529228
aI430841130
aI403855355
aI475524030
aI106823467
aI306951868
aI1534167900
aL2331273163L
aL2573523368L
aI581221150
aL2725748982L
aI344778169
aL2381039936L
aI168679374
aI15110357
aI205789121
aI20562637
aI16184358
aL2966873651L
aI19546277
aI16732770
aI106498703
aI16451932
aI15896903
aL3007704313L
aI17424053
aL3039159118L
aI14137411
aI298080940
aL2173999435L
aI565969885
aL2440753004L
aI1289738107
aI17170147
aL2203677632L
aI37469211
aI1355492341
aI498404030
aI69350553
aI15756049
aI287855153
aI150813252
aI31234252
aL2592929406L
aL2997440620L
aI22903162
aI91555492
aI364514620
aL2431134733L
aI629573379
aI26565124
aI104955744
aI24926416
aI119748851
aI39467526
aI7836182
aI15971805
aI37564410
aL2962375990L
aI148268103
aI989975232
aI148272213
aI47993676
aL2411650028L
aI946313485
aI40586737
aL2815979137L
aL2566340030L
aI25073877
aI30929545
aI963486703
aI65174274
aI1708887960
aI974054396
aL2819823065L
aI53215424
aI567452784
aI959360814
aI805230144
aI1370308412
aI548637774
aI12600272
aL2770608200L
aL2967019726L
aI1394399438
aI109137201
aI260692993
aI52126417
aI367721245
aI71330112
aI477020565
aI477030090
aI10228272
aI37525031
aI30392406
aI137140520
aI1506539672
aI14886375
aI299707815
aI19898168
aI480352017
aI27093808
aI119372054
aI384445331
aI227070376
aI553036368
aI404422077
aI1364930179
aI50393960
aI13298072
aI34713362
aI83727094
aI138230482
aI73307606
aI26664410
aI116967832
aI20127936
aI34966958
aI47383148
aL2492431585L
aI874438663
aI369132893
aL2568856755L
aI138404716
aI11247222
aI327085343
aI1226435360
aI388932008
aI1242354930
aI583123413
aI547255284
aI91895951
aI61127928
aL2631197960L
aL2573286602L
aI158414847
aI1636590253
aI109200080
aI20745074
aI17947552
aI44908912
aI15693493
aI62285688
aI30041129
aI18201114
aI15220721
aI15677036
aI15830716
aI2425151
aI40148479
aI18956020
aI20501911
aI309728693
aI66651826
aI326287233
aL2210884015L
aI1573693694
aI32340023
aI67358777
aI28164923
aI15281391
aI15568127
aI20402945
aI624413
aI14216123
aI1344951
aI21850078
aI816653
aI14677919
aI3108351
aI11518842
aI4641021
aI91478624
aI6017542
aI18665800
aI564686965
aI5988062
aI40297195
aI717313
aI783214
aI428333
aI7144422
aI5392522
aI1652541
aI21237045
aI2384071
aI759251
aI20536157
aI5402612
aI972651
aI14075928
aI807095
aI47797211
aI742143
aasS'followers'
p4
(lp5
(lp6
L2880851995L
aL2975475400L
aI165488132
aI84444981
aI90970076
aL2811365692L
aL3837922044L
aI361181996
aI87403396
aL3418565879L
aL3659557093L
aI1670698730
aL4118011937L
aL2756114431L
aI169261843
aL2541644559L
aI886837747
aL4086878235L
aI91433689
aL2806916751L
aL3021630315L
aI236879092
aI716044325
aI200401502
aL2432716338L
aI389320269
aL2940131020L
aL3306637275L
aI1029620114
aI26788389
aI1183838114
aL3064926461L
aI398578282
aL2835363266L
aL3241241375L
aI989651166
aI48486244
aL3589760543L
aI100767876
aL3557152221L
aI1530916794
aL2875817634L
aL3170894937L
aI1531007624
aL3307826174L
aL3392347685L
aL2218556516L
aL3136598905L
aI372020500
aI468706991
aL2857216422L
aL3234646248L
aL3335948470L
aL3143412856L
aI1335895868
aL2753471751L
aI517168840
aL2950646925L
aL3187443905L
aI19207030
aL2740882504L
aL3035361893L
aL2883139023L
aI15756049
aI31234252
aI91555492
aI629573379
aL2431134733L
aI146463435
aL2962375990L
aI148268103
aL2997440620L
aL2815979137L
aL2819823065L
aI1370308412
aI47383148
aL2770608200L
aI874438663
aL2573286602L
aL3016304024L
aI109200080
aasS'obj'
p7
ccopy_reg
_reconstructor
p8
(ctweepy.models
User
p9
c__builtin__
object
p10
Ntp11
Rp12
(dp13
S'follow_request_sent'
p14
I00
sS'has_extended_profile'
p15
I00
sS'profile_use_background_image'
p16
I01
sS'profile_sidebar_fill_color'
p17
VDDEEF6
p18
sS'id'
p19
L3057847811L
sS'verified'
p20
I00
sS'entities'
p21
(dp22
Vdescription
p23
(dp24
Vurls
p25
(lp26
sssS'profile_image_url_https'
p27
Vhttps://pbs.twimg.com/profile_images/662366390943219712/giKQ4_ty_normal.jpg
p28
sS'_json'
p29
(dp30
Vfollow_request_sent
p31
I00
sVhas_extended_profile
p32
I00
sVprofile_use_background_image
p33
I01
sVdefault_profile_image
p34
I00
sVid
p35
L3057847811L
sVprofile_background_image_url_https
p36
Vhttps://abs.twimg.com/images/themes/theme1/bg.png
p37
sVverified
p38
I00
sVprofile_text_color
p39
V333333
p40
sVprofile_image_url_https
p41
g28
sVprofile_sidebar_fill_color
p42
g18
sVentities
p43
g22
sVfollowers_count
p44
I81
sVprofile_sidebar_border_color
p45
VC0DEED
p46
sVid_str
p47
V3057847811
p48
sVprofile_background_color
p49
VC0DEED
p50
sVlisted_count
p51
I4
sVstatus
p52
(dp53
Vcontributors
p54
NsVtruncated
p55
I00
sVtext
p56
VRT @harmongreg: So $AAPL has cut orders from suppliers for iPhone as we head into Christmas?  Ok. Sure.
p57
sVin_reply_to_status_id
p58
Nsg35
L664472850066219008L
sVfavorite_count
p59
I0
sVsource
p60
V<a href="http://twitter.com" rel="nofollow">Twitter Web Client</a>
p61
sVretweeted
p62
I00
sVcoordinates
p63
Nsg43
(dp64
Vsymbols
p65
(lp66
(dp67
Vindices
p68
(lp69
I19
aI24
asg56
VAAPL
p70
sasVuser_mentions
p71
(lp72
(dp73
g35
I24227424
sg68
(lp74
I3
aI14
asg47
V24227424
p75
sVscreen_name
p76
Vharmongreg
p77
sVname
p78
VGreg Harmon, CMT
p79
sasVhashtags
p80
(lp81
sg25
(lp82
ssVin_reply_to_screen_name
p83
Nsg47
V664472850066219008
p84
sVretweet_count
p85
I4
sVin_reply_to_user_id
p86
NsVfavorited
p87
I00
sVretweeted_status
p88
(dp89
Vlang
p90
Ven
p91
sg87
I00
sg43
(dp92
g65
(lp93
(dp94
g68
(lp95
I3
aI8
asg56
VAAPL
p96
sasg71
(lp97
sg80
(lp98
sg25
(lp99
ssg54
Nsg55
I00
sg56
VSo $AAPL has cut orders from suppliers for iPhone as we head into Christmas?  Ok. Sure.
p100
sVcreated_at
p101
VTue Nov 10 13:32:49 +0000 2015
p102
sg62
I00
sVin_reply_to_status_id_str
p103
Nsg63
NsVin_reply_to_user_id_str
p104
Nsg60
V<a href="http://stocktwits.com" rel="nofollow">StockTwits Web</a>
p105
sg58
Nsg83
Nsg47
V664073227455479808
p106
sVplace
p107
Nsg85
I4
sVgeo
p108
Nsg35
L664073227455479808L
sg59
I6
sg86
Nssg108
Nsg104
Nsg90
Ven
p109
sg101
VWed Nov 11 16:00:47 +0000 2015
p110
sg103
Nsg107
NssVis_translation_enabled
p111
I00
sVutc_offset
p112
I-18000
sVstatuses_count
p113
I394
sg23
VPhotographer, Retoucher, Stock Investor, Father & Papaw, Bowhunter
p114
sVfriends_count
p115
I287
sVlocation
p116
V
p117
sVprofile_link_color
p118
V0084B4
p119
sVprofile_image_url
p120
Vhttp://pbs.twimg.com/profile_images/662366390943219712/giKQ4_ty_normal.jpg
p121
sVfollowing
p122
I00
sVgeo_enabled
p123
I00
sVprofile_background_image_url
p124
Vhttp://abs.twimg.com/images/themes/theme1/bg.png
p125
sg76
Vmseanstrick
p126
sg90
Ven
p127
sVprofile_background_tile
p128
I00
sVfavourites_count
p129
I326
sg78
VMStric
p130
sVnotifications
p131
I00
sVurl
p132
Nsg101
VTue Feb 24 02:01:17 +0000 2015
p133
sVcontributors_enabled
p134
I00
sVtime_zone
p135
VEastern Time (US & Canada)
p136
sVprotected
p137
I00
sVdefault_profile
p138
I01
sVis_translator
p139
I00
ssS'contributors_enabled'
p140
I00
sS'profile_text_color'
p141
g40
sS'followers_count'
p142
I81
sS'profile_sidebar_border_color'
p143
g46
sS'id_str'
p144
g48
sS'default_profile_image'
p145
I00
sS'listed_count'
p146
I4
sS'status'
p147
g8
(ctweepy.models
Status
p148
g10
Ntp149
Rp150
(dp151
S'favorited'
p152
I00
sS'contributors'
p153
NsS'truncated'
p154
I00
sS'text'
p155
g57
sS'source_url'
p156
Vhttp://twitter.com
p157
sS'in_reply_to_status_id'
p158
NsS'geo'
p159
Nsg19
L664472850066219008L
sS'favorite_count'
p160
I0
sS'lang'
p161
g109
sS'retweeted_status'
p162
g8
(g148
g10
Ntp163
Rp164
(dp165
g152
I00
sg153
Nsg154
I00
sg155
g100
sg156
Vhttp://stocktwits.com
p166
sg158
Nsg159
Nsg19
L664073227455479808L
sg160
I6
sg161
g91
sg21
g92
sS'created_at'
p167
cdatetime
datetime
p168
(S'\x07\xdf\x0b\n\r 1\x00\x00\x00'
p169
tp170
Rp171
sg29
g89
sS'coordinates'
p172
NsS'in_reply_to_user_id_str'
p173
NsS'source'
p174
VStockTwits Web
p175
sS'in_reply_to_status_id_str'
p176
NsS'in_reply_to_screen_name'
p177
Nsg144
g106
sS'retweeted'
p178
I00
sS'place'
p179
NsS'retweet_count'
p180
I4
sS'in_reply_to_user_id'
p181
Nsbsg21
g64
sg167
g168
(S'\x07\xdf\x0b\x0b\x10\x00/\x00\x00\x00'
p182
tp183
Rp184
sg29
g53
sg172
Nsg173
Nsg174
VTwitter Web Client
p185
sg176
Nsg177
Nsg144
g84
sg178
I00
sg179
Nsg180
I4
sg181
NsbsS'is_translation_enabled'
p186
I00
sS'utc_offset'
p187
I-18000
sS'statuses_count'
p188
I394
sS'description'
p189
g114
sS'friends_count'
p190
I287
sS'location'
p191
g117
sS'profile_link_color'
p192
g119
sS'profile_image_url'
p193
g121
sS'notifications'
p194
I00
sS'geo_enabled'
p195
I00
sS'profile_background_color'
p196
g50
sS'profile_background_image_url'
p197
g125
sS'screen_name'
p198
g126
sg161
g127
sg1
I00
sS'profile_background_tile'
p199
I00
sS'favourites_count'
p200
I326
sS'name'
p201
g130
sS'url'
p202
Nsg167
g168
(S'\x07\xdf\x02\x18\x02\x01\x11\x00\x00\x00'
p203
tp204
Rp205
sS'profile_background_image_url_https'
p206
g37
sS'time_zone'
p207
g136
sS'protected'
p208
I00
sS'default_profile'
p209
I01
sS'is_translator'
p210
I00
sbs.