(dp0
S'following'
p1
(lp2
(lp3
I35037447
aI59520566
aI41549537
aI5896262
aI1589691
aI8526432
aI668863
aI236953420
aI26775476
aI589349263
aL2334614718L
aI1482904093
aI277161300
aI8559342
aI37065910
aL2771870352L
aL3751591514L
aL3550133357L
aI31234450
aL3260518932L
aI197869772
aI31146207
aL2916305152L
aI155197848
aI7517052
aI1725833096
aI1611593304
aL3436521372L
aI790590678
aI1289738107
aL2153278538L
aI51241574
aL2966251421L
aI24609836
aI146930159
aI403855355
aL2520719083L
aL3031860704L
aL3143285089L
aL2220015630L
aI274233761
aI236518570
aL2792828298L
aI202915788
aI17810254
aL2231913055L
aI89225644
aI19726861
aI952112047
aI175792847
aI799122090
aI110463712
aI16205561
aL2445459474L
aI4072611
aI275686563
aI25073877
aI553658449
aI460678801
aI156731570
aI110781385
aI20806851
aI13216782
aI1488051955
aI1059530150
aI19904254
aI1195683247
aI192533447
aI150094848
aI302545862
aI51405063
aI65647594
aI218430551
aI74791999
aI1636590253
aI1394399438
aL2715646770L
aI114782468
aI19877186
aI21917683
aI60622883
aI27162339
aI1451597324
aI1671436993
aI175754840
aI32453930
aI42097169
aI56896918
aI46677599
aI12
aI258028535
aI16999433
aI185728888
aI545618159
aI16806253
aL2319600132L
aL2377815434L
aI1241635501
aL2445809510L
aI1254958230
aI56414876
aI113211856
aL2375681418L
aL2950028089L
aL3237197057L
aI1890299826
aI168691253
aI466333756
aI146496378
aI23390520
aI15897179
aI205915163
aI29501977
aI16079604
aI273418969
aI1086485478
aI1598644159
aI60113926
aI253697494
aI52849759
aI1861279320
aI93529573
aI254620317
aI1513893288
aL3119988399L
aL2244296113L
aI153629442
aI523451127
aI1672810880
aI72907355
aI1228537610
aI87591850
aL2186813068L
aI1689434408
aL2536415746L
aI1735482102
aL2678090893L
aL2272207286L
aI16595597
aI788333744
aI145313421
aI35184346
aI339910279
aL2965064590L
aL2903843159L
aL2400480938L
aI262652488
aI209907837
aI14415665
aI33782275
aI39085071
aI816653
aI1053412615
aL2785142136L
aI21394549
aI25882361
aI470506640
aI409617637
aL2286097290L
aI14333333
aI67088724
aL2846839721L
aL2375680748L
aI735643934
aI208442526
aI14165212
aI204832963
aI75014376
aI1134734101
aI255798674
aL2179895676L
aI1347071545
aI238411032
aI193838214
aI14057492
aI395661015
aL2832135288L
aI514835972
aI18481050
aI166597717
aI1306003812
aI575887522
aI15130891
aI1488917659
aI1570180292
aI521970859
aI27729064
aI1615422464
aL2352435372L
aI430841130
aI34837057
aI868465891
aI18576537
aI636441598
aL2538225547L
aI17802621
aI230930518
aI351304765
aI184964515
aI18052886
aI18856867
aI374271717
aI38204207
aI10017542
aI19651092
aI84444981
aI17453775
aI28796454
aI41458395
aI46227914
aI869323788
aI1605
aI37982404
aI183440340
aL2284314210L
aL2337095378L
aI113897988
aI280247389
aL2409330439L
aL2496453498L
aI394254612
aI80700514
aI129307017
aI54675700
aI20253024
aL2319111278L
aI16955870
aI416147564
aI75355098
aI235278481
aI271211220
aI1705202990
aI133483902
aI28769199
aL2383693273L
aI790309974
aI222177693
aI1160532342
aI1160536320
aI104201057
aI100024370
aI989657845
aI1328994019
aI102819479
aI1364930179
aI78971620
aI179675761
aI423785819
aI362646324
aI14824849
aI361540993
aI25330246
aI7520262
aI1619089357
aL2338670249L
aI389757150
aI15485441
aI29854129
aI774599383
aI138313201
aI62820756
aI7557352
aI760365205
aL2296501071L
aI17097654
aI186136458
aL2308639909L
aI144953903
aI207177120
aI52480432
aI738881598
aI1689635300
aI223589965
aI1499852552
aI494778318
aI874011066
aI62871181
aI27814665
aI112872946
aI326745108
aL2162015989L
aI297848618
aI26823392
aI125773679
aI22490503
aI19776110
aI1490980105
aI26705006
aI375980238
aI115247489
aL2238197425L
aI21758900
aI21232827
aI410827049
aI101816436
aI34923361
aI1005382280
aI122441279
aI90477815
aI142839300
aI1023354336
aI61564569
aI210639724
aL2225843821L
aI463919314
aI24013535
aI264370502
aI88161250
aI553627491
aI258079573
aI378208943
aI609106894
aI404056339
aI16956285
aI113390942
aI14051297
aI212531237
aI336883384
aI1666038950
aI555928038
aI339994942
aI1227708073
aI1702866697
aI1609141296
aI61785219
aI27771267
aI472634603
aI26066992
aI61615855
aI98727642
aI19891705
aI102527566
aI1534167900
aI75537082
aI99005969
aI397230151
aI97334517
aI47087332
aI271138078
aI20399752
aI74879084
aI1394824788
aI1525166161
aI124841206
aI546433590
aI232120274
aI72887070
aI23221109
aI1161360260
aI24008967
aI1398681452
aI123671382
aI150027035
aI14297693
aI636545451
aI54330245
aI131043626
aI16259934
aI24656325
aI17049899
aI220386151
aI36064582
aI338521549
aI318764599
aI32362720
aI28349494
aI135252521
aI169489285
aI774393817
aI287878660
aI14669951
aI29748372
aI6017542
aI382036187
aI799739234
aI201891203
aI21269056
aI113368136
aI573856891
aI70755249
aI328741551
aI23002939
aI260473647
aI17880354
aI13298072
aI324878994
aI40099128
aI90506524
aI549435082
aI18948541
aI489022370
aI38495975
aI44196397
aI398985583
aI102488708
aI20353621
aI14465607
aI18513241
aI16916799
aI14296480
aI224466293
aI295489158
aI57166340
aI54619566
aI267867165
aI402876893
aI38105086
aI191737925
aI131990331
aI19079480
aI17780244
aI8524892
aI84365116
aI6730222
aI817318939
aI714051110
aI527036582
aI160625399
aI26929822
aI44498216
aI210855604
aI272125054
aI14075928
aI250362250
aI568408406
aI17991579
aI77611862
aI21328656
aI729704964
aI20885651
aI475524030
aI14897785
aI89548215
aI17497085
aI38053161
aI520892960
aI19478114
aI64888916
aI250758475
aI151280096
aI18069591
aI105353526
aI541253226
aI1064700308
aI1055496326
aI20006987
aI55594930
aI102212196
aI16727535
aI17105436
aI63512129
aI276714687
aI247857712
aI24590532
aI118399469
aI19143910
aI110539278
aI988940606
aI202470965
aI23368614
aI455977179
aI461212126
aI52166809
aI14117774
aI64783984
aI32778531
aI416749415
aI43111757
aI18034541
aI31064039
aI263440231
aI184881902
aI550663732
aI203652149
aI23316439
aI14250809
aI472974408
aI995378850
aI16359602
aI15246621
aI207617302
aI17257163
aI35572357
aI19949151
aI136842204
aI37077238
aI15754679
aI27697529
aI6459852
aI247065178
aI29242868
aI54879118
aI12420452
aI81000114
aI18255084
aI519022832
aI231307323
aI37555599
aI53215424
aI15915843
aI17790265
aI24103368
aI55561590
aI374270858
aI364351796
aI25827743
aI148867781
aI69112759
aI16888420
aI254207829
aI84844221
aI16623029
aI44060322
aI17790274
aI22522178
aI14276189
aI358126740
aI14972202
aI300338214
aI115485051
aI574676396
aI92451364
aI16433168
aI66460052
aI541741189
aI129946529
aI365020292
aI16483885
aI351531438
aI121251533
aI134526786
aI461452739
aI49663664
aI390441307
aI592048856
aI164030921
aI147902687
aI389626620
aI455824771
aI27922928
aI37284991
aI15581026
aI510768362
aI357744208
aI122225052
aI268010535
aI15079601
aI82143051
aI16371383
aI28445389
aI16803117
aI100592354
aI17249855
aI388631246
aI58808528
aI7836182
aI65681636
aI31546412
aI18560146
aI19739279
aI52126417
aI61342056
aI15368728
aI15485461
aI14886375
aI17622549
aI30818980
aI245991435
aI331137622
aI17549691
aI158639491
aI136470865
aI146048107
aI16851206
aI91285471
aI15808525
aI15031356
aI30142813
aasS'followers'
p4
(lp5
(lp6
I591335059
aI59520566
aI17540194
aL2436019766L
aL2305914948L
aI849617886
aI1244047045
aL2992414321L
aL4129818237L
aI100264423
aI461576749
aL4086878235L
aI18578905
aI287475728
aL3437044841L
aL2563814487L
aI1668821198
aI60784269
aL3120799068L
aI31234450
aI867306697
aI100767876
aL3184637045L
aL3614300116L
aL3532805603L
aL3413745915L
aL3261016800L
aL2445459474L
aL3298689913L
aL2165315586L
aI355445976
aI112696718
aL3145353451L
aI23866921
aI46677599
aL3012483408L
aL3279688587L
aL3254387237L
aL2375681418L
aI1861279320
aL2315693286L
aI15897179
aL2981421573L
aI139373116
aI1694936220
aL2922115476L
aI123671382
aI19143910
aI108804469
aI370932992
aI805230144
aI33160996
aI271933214
aI14057492
aL2797706254L
aL2727006568L
aI17180734
aL2832135288L
aI17699934
aL2801016034L
aI140822072
aI500242318
aI521970859
aI84444981
aL2367578948L
aI183440340
aL2583651986L
aL2244296113L
aI603739391
aI98727642
aI250758475
aL2319111278L
aL2485422323L
aI363272819
aI390441307
aI1619089357
aI498383654
aL2296501071L
aI207177120
aI14465607
aI57751220
aI26705006
aI571928144
aI23002939
aI125876507
aI90477815
aI1581936560
aI336883384
aI65681636
aI52247245
aI1849076491
aI61564569
aI1475988331
aI135252521
aI35468232
aI868465891
aI224476213
aI1491159805
aI368615592
aI1525166161
aI438627703
aI220754868
aI1702731
aI549435082
aI435139136
aI324878994
aI105353526
aI405778995
aI489022370
aI339353253
aI34879984
aI1216798291
aI184881902
aI250362250
aI520892960
aI956308381
aI20067620
aI43111757
aI769700574
aI789801356
aI799739234
aI374270858
aI16433168
aI17593208
aI374744358
aI50084508
aI311239252
aI347221648
aI376670621
aI75567037
aI23105968
aI447942196
aI146048107
aI347197790
aI443716710
aI375873174
aI351907556
aI37707161
aI365562057
aI14117774
aI169748652
aI16483885
aI357744208
aI14886375
aI388631246
aI158639491
aI15031356
aI14236270
aI30142813
aasS'obj'
p7
ccopy_reg
_reconstructor
p8
(ctweepy.models
User
p9
c__builtin__
object
p10
Ntp11
Rp12
(dp13
S'follow_request_sent'
p14
NsS'has_extended_profile'
p15
I00
sS'profile_use_background_image'
p16
I01
sS'profile_sidebar_fill_color'
p17
VDDEEF6
p18
sS'id'
p19
I30686587
sS'verified'
p20
I00
sS'entities'
p21
(dp22
Vurl
p23
(dp24
Vurls
p25
(lp26
(dp27
g23
Vhttp://t.co/AMctuGlLQz
p28
sVindices
p29
(lp30
I0
aI22
asVexpanded_url
p31
Vhttp://www.iotradetools.com
p32
sVdisplay_url
p33
Viotradetools.com
p34
sassVdescription
p35
(dp36
g25
(lp37
sssS'profile_image_url_https'
p38
Vhttps://pbs.twimg.com/profile_images/2587051246/oucwnv02v5mu6cqc8wbd_normal.png
p39
sS'_json'
p40
(dp41
Vfollow_request_sent
p42
NsVhas_extended_profile
p43
I00
sVprofile_use_background_image
p44
I01
sVdefault_profile_image
p45
I00
sVid
p46
I30686587
sVprofile_background_image_url_https
p47
Vhttps://abs.twimg.com/images/themes/theme1/bg.png
p48
sVverified
p49
I00
sVprofile_text_color
p50
V333333
p51
sVprofile_image_url_https
p52
g39
sVprofile_sidebar_fill_color
p53
g18
sVentities
p54
g22
sVfollowers_count
p55
I149
sVprofile_sidebar_border_color
p56
VC0DEED
p57
sVid_str
p58
V30686587
p59
sVprofile_background_color
p60
VC0DEED
p61
sVlisted_count
p62
I11
sVstatus
p63
(dp64
Vcontributors
p65
NsVtruncated
p66
I00
sVtext
p67
VRT @KidDynamiteBlog: #IgnorantPopulistRage - aka: Bernie Sanders' platform...\u000a\u000afrom @cullenroche \u000a\u000ahttps://t.co/e9fSNzK3VB https://t.co/HTV\u2026
p68
sVin_reply_to_status_id
p69
Nsg46
L665925118602969088L
sVfavorite_count
p70
I0
sVsource
p71
V<a href="http://twitter.com/download/android" rel="nofollow">Twitter for Android</a>
p72
sVretweeted
p73
I00
sVcoordinates
p74
Nsg54
(dp75
Vsymbols
p76
(lp77
sVuser_mentions
p78
(lp79
(dp80
g46
I125773679
sg29
(lp81
I3
aI19
asg58
V125773679
p82
sVscreen_name
p83
VKidDynamiteBlog
p84
sVname
p85
VKid Dynamite
p86
sa(dp87
g46
I22088714
sg29
(lp88
I84
aI96
asg58
V22088714
p89
sg83
Vcullenroche
p90
sg85
VCullen Roche
p91
sasVhashtags
p92
(lp93
(dp94
g29
(lp95
I21
aI42
asg67
VIgnorantPopulistRage
p96
sasg25
(lp97
(dp98
g23
Vhttps://t.co/e9fSNzK3VB
p99
sg29
(lp100
I99
aI122
asg31
Vhttp://www.pragcap.com/the-impractical-economics-of-bernie-sanders/
p101
sg33
Vpragcap.com/the-impractica\u2026
p102
sasVmedia
p103
(lp104
(dp105
Vsource_user_id
p106
I125773679
sVsource_status_id_str
p107
V665920666256941057
p108
sg31
Vhttp://twitter.com/KidDynamiteBlog/status/665920666256941057/photo/1
p109
sg33
Vpic.twitter.com/HTVHpBiBG1
p110
sg23
Vhttps://t.co/HTVHpBiBG1
p111
sVmedia_url_https
p112
Vhttps://pbs.twimg.com/media/CT3TPQgWUAIol_e.png
p113
sVsource_user_id_str
p114
V125773679
p115
sVsource_status_id
p116
L665920666256941057L
sg58
V665920579002847234
p117
sVsizes
p118
(dp119
Vsmall
p120
(dp121
Vh
p122
I156
sVresize
p123
Vfit
p124
sVw
p125
I340
ssVlarge
p126
(dp127
g122
I363
sg123
Vfit
p128
sg125
I787
ssVmedium
p129
(dp130
g122
I276
sg123
Vfit
p131
sg125
I600
ssVthumb
p132
(dp133
g122
I150
sg123
Vcrop
p134
sg125
I150
sssg29
(lp135
I123
aI140
asVtype
p136
Vphoto
p137
sg46
L665920579002847234L
sVmedia_url
p138
Vhttp://pbs.twimg.com/media/CT3TPQgWUAIol_e.png
p139
sassVin_reply_to_screen_name
p140
Nsg58
V665925118602969088
p141
sVretweet_count
p142
I3
sVin_reply_to_user_id
p143
NsVfavorited
p144
I00
sVretweeted_status
p145
(dp146
g65
Nsg66
I00
sg67
V#IgnorantPopulistRage - aka: Bernie Sanders' platform...\u000a\u000afrom @cullenroche \u000a\u000ahttps://t.co/e9fSNzK3VB https://t.co/HTVHpBiBG1
p147
sg69
Nsg46
L665920666256941057L
sg70
I3
sg71
V<a href="https://about.twitter.com/products/tweetdeck" rel="nofollow">TweetDeck</a>
p148
sg73
I00
sg74
Nsg54
(dp149
g76
(lp150
sg78
(lp151
(dp152
g46
I22088714
sg29
(lp153
I63
aI75
asg58
V22088714
p154
sg83
Vcullenroche
p155
sg85
VCullen Roche
p156
sasg92
(lp157
(dp158
g29
(lp159
I0
aI21
asg67
VIgnorantPopulistRage
p160
sasg25
(lp161
(dp162
g23
Vhttps://t.co/e9fSNzK3VB
p163
sg29
(lp164
I78
aI101
asg31
Vhttp://www.pragcap.com/the-impractical-economics-of-bernie-sanders/
p165
sg33
Vpragcap.com/the-impractica\u2026
p166
sasg103
(lp167
(dp168
g31
Vhttp://twitter.com/KidDynamiteBlog/status/665920666256941057/photo/1
p169
sg33
Vpic.twitter.com/HTVHpBiBG1
p170
sg23
Vhttps://t.co/HTVHpBiBG1
p171
sg112
Vhttps://pbs.twimg.com/media/CT3TPQgWUAIol_e.png
p172
sg58
V665920579002847234
p173
sg118
(dp174
g120
(dp175
g122
I156
sg123
Vfit
p176
sg125
I340
ssg126
(dp177
g122
I363
sg123
Vfit
p178
sg125
I787
ssg129
(dp179
g122
I276
sg123
Vfit
p180
sg125
I600
ssg132
(dp181
g122
I150
sg123
Vcrop
p182
sg125
I150
sssg29
(lp183
I102
aI125
asg136
Vphoto
p184
sg46
L665920579002847234L
sg138
Vhttp://pbs.twimg.com/media/CT3TPQgWUAIol_e.png
p185
sassg140
Nsg58
V665920666256941057
p186
sg142
I3
sg143
Nsg144
I00
sVgeo
p187
NsVin_reply_to_user_id_str
p188
NsVpossibly_sensitive
p189
I00
sVlang
p190
Ven
p191
sVcreated_at
p192
VSun Nov 15 15:53:53 +0000 2015
p193
sVin_reply_to_status_id_str
p194
NsVplace
p195
Nssg187
Nsg188
Nsg189
I00
sg190
Ven
p196
sg192
VSun Nov 15 16:11:35 +0000 2015
p197
sg194
Nsg195
NssVis_translation_enabled
p198
I00
sVutc_offset
p199
I-25200
sVstatuses_count
p200
I1504
sg35
VSoftware developer and occasional trader.
p201
sVfriends_count
p202
I578
sVlocation
p203
VArizona
p204
sVprofile_link_color
p205
V0084B4
p206
sVprofile_image_url
p207
Vhttp://pbs.twimg.com/profile_images/2587051246/oucwnv02v5mu6cqc8wbd_normal.png
p208
sVfollowing
p209
NsVgeo_enabled
p210
I01
sVprofile_background_image_url
p211
Vhttp://abs.twimg.com/images/themes/theme1/bg.png
p212
sg83
VioTrader
p213
sg190
Ven
p214
sVprofile_background_tile
p215
I00
sVfavourites_count
p216
I595
sg85
VChad
p217
sVnotifications
p218
Nsg23
Vhttp://t.co/AMctuGlLQz
p219
sg192
VSun Apr 12 17:39:53 +0000 2009
p220
sVcontributors_enabled
p221
I00
sVtime_zone
p222
VArizona
p223
sVprotected
p224
I00
sVdefault_profile
p225
I01
sVis_translator
p226
I00
ssS'contributors_enabled'
p227
I00
sS'profile_text_color'
p228
g51
sS'followers_count'
p229
I149
sS'profile_sidebar_border_color'
p230
g57
sS'id_str'
p231
g59
sS'default_profile_image'
p232
I00
sS'listed_count'
p233
I11
sS'status'
p234
g8
(ctweepy.models
Status
p235
g10
Ntp236
Rp237
(dp238
S'favorited'
p239
I00
sS'contributors'
p240
NsS'truncated'
p241
I00
sS'text'
p242
VRT @KidDynamiteBlog: #IgnorantPopulistRage - aka: Bernie Sanders' platform...\u000a\u000afrom @cullenroche \u000a\u000ahttps://t.co/e9fSNzK3VB https://t.co/HTV\u2026
p243
sS'source_url'
p244
Vhttp://twitter.com/download/android
p245
sS'possibly_sensitive'
p246
I00
sS'in_reply_to_status_id'
p247
NsS'geo'
p248
Nsg19
L665925118602969088L
sS'favorite_count'
p249
I0
sS'lang'
p250
g196
sS'retweeted_status'
p251
g8
(g235
g10
Ntp252
Rp253
(dp254
g239
I00
sg240
Nsg241
I00
sg242
V#IgnorantPopulistRage - aka: Bernie Sanders' platform...\u000a\u000afrom @cullenroche \u000a\u000ahttps://t.co/e9fSNzK3VB https://t.co/HTVHpBiBG1
p255
sg244
Vhttps://about.twitter.com/products/tweetdeck
p256
sg246
I00
sg247
Nsg248
Nsg19
L665920666256941057L
sg249
I3
sg250
g191
sg21
g149
sS'created_at'
p257
cdatetime
datetime
p258
(S'\x07\xdf\x0b\x0f\x0f55\x00\x00\x00'
p259
tp260
Rp261
sg40
g146
sS'coordinates'
p262
NsS'in_reply_to_user_id_str'
p263
NsS'source'
p264
VTweetDeck
p265
sS'in_reply_to_status_id_str'
p266
NsS'in_reply_to_screen_name'
p267
Nsg231
g186
sS'retweeted'
p268
I00
sS'place'
p269
NsS'retweet_count'
p270
I3
sS'in_reply_to_user_id'
p271
Nsbsg21
g75
sg257
g258
(S'\x07\xdf\x0b\x0f\x10\x0b#\x00\x00\x00'
p272
tp273
Rp274
sg40
g64
sg262
Nsg263
Nsg264
VTwitter for Android
p275
sg266
Nsg267
Nsg231
g141
sg268
I00
sg269
Nsg270
I3
sg271
NsbsS'is_translation_enabled'
p276
I00
sS'utc_offset'
p277
I-25200
sS'statuses_count'
p278
I1504
sS'description'
p279
g201
sS'friends_count'
p280
I578
sS'location'
p281
g204
sS'profile_link_color'
p282
g206
sS'profile_image_url'
p283
g208
sS'notifications'
p284
NsS'geo_enabled'
p285
I01
sS'profile_background_color'
p286
g61
sS'profile_background_image_url'
p287
g212
sS'screen_name'
p288
g213
sg250
g214
sg1
I00
sS'profile_background_tile'
p289
I00
sS'favourites_count'
p290
I595
sS'name'
p291
g217
sS'url'
p292
g219
sg257
g258
(S"\x07\xd9\x04\x0c\x11'5\x00\x00\x00"
p293
tp294
Rp295
sS'profile_background_image_url_https'
p296
g48
sS'time_zone'
p297
g223
sS'protected'
p298
I00
sS'default_profile'
p299
I01
sS'is_translator'
p300
I00
sbs.