(dp0
S'following'
p1
(lp2
(lp3
L3425424147L
aL3312751753L
aI15582333
aL3401906970L
aI540728959
aL2279889259L
aL3311727529L
aI906448328
aI595691631
aI277968848
aI74523365
aI962873905
aI45577446
aI83678036
aI24229787
aI15585039
aI17060015
aI33289381
aI16826617
aI116692211
aI33522957
aI29273543
aI28646364
aI20832496
aI82901380
aI331703548
aI69400458
aI52784106
aI104571279
aI31039892
aI466280912
aI207417070
aI39775054
aL2560276660L
aI160359714
aI21993071
aI714400105
aI611955888
aI310460634
aI341251022
aI35936474
aI25087685
aI100220864
aI44409004
aI300392950
aI26565946
aI18164420
aI6480682
aI19562228
aI25093616
aI50393960
aI21447363
aI130649891
aI90420314
aI79293791
aI807095
aI16561884
aI413487212
aI7144422
aI326359913
aI15485441
aI42384760
aI136361303
aI20015311
aI1652541
aI953278568
aI1598644159
aI18665800
aI158128894
aI16193578
aI20536157
aI109702885
aI15492359
aI1344951
aI15846407
aI155659213
aI783214
aI586198217
aI759251
aI14230524
aasS'followers'
p4
(lp5
(lp6
L3040627562L
aI290478119
aL2879760845L
aL4080569732L
aI340070516
aL4118905558L
aL3417369754L
aL2802896560L
aI1229440285
aL3011421648L
aL3307105844L
aI16224453
aI853765776
aL3289614365L
aI743790464
aI10340332
aL3527715379L
aI316338642
aL4185170644L
aL3849953771L
aI515920970
aI316325020
aL2463014612L
aL3178332776L
aI446323333
aI76780580
aL3839370371L
aL3325315331L
aL3599577021L
aL4038440873L
aL4088007192L
aL2993985324L
aI197529558
aI310509593
aI15460162
aL4206090853L
aL4093647147L
aI1108555303
aI37054409
aI1909502827
aI440185533
aI108045600
aI18169646
aL3639534855L
aI120916009
aI1631867725
aL2860845668L
aL3891736155L
aI1331912280
aI849478190
aL4010050756L
aL2959020469L
aI316356270
aI316143171
aI245191224
aL2811719888L
aL2459073091L
aI732536311
aI986782885
aI9555372
aI229843846
aI78723007
aL2547150300L
aI262884967
aI606683900
aI229486479
aL2601766879L
aI177728250
aL2687367116L
aL2228868511L
aL3831464113L
aL2689749997L
aL3293972222L
aI1126678069
aI316212548
aI983026116
aL4087889297L
aL3226176471L
aI58800236
aI1136018592
aI231329778
aI132882567
aL3305768209L
aL3333247779L
aL2994842255L
aI130703729
aL4118931020L
aL3307012521L
aI17962270
aL2891032286L
aL2932195995L
aL3419636717L
aL3963618449L
aI866037805
aL3099449182L
aL3271766593L
aI39559526
aL3813091092L
aI343283519
aL2998637918L
aL3399339729L
aL3675503173L
aL3559953495L
aL3557296823L
aL2895094386L
aL3594222132L
aL2288632549L
aI17719669
aL3175372625L
aL2955714794L
aI250106149
aI1345702129
aL4046933473L
aL3587583735L
aI1598571691
aI1309808982
aI960503227
aL3866159960L
aI716073289
aI28099693
aL3166282022L
aL2274462378L
aL3369696333L
aL3978527414L
aI16381764
aL4046515816L
aL2965128975L
aI370911790
aL3834419727L
aL2915260629L
aL2897591912L
aL3881970556L
aL2823694738L
aL2393712222L
aL3969518894L
aL3023740861L
aI238713272
aI58509923
aL2519634384L
aL2250056294L
aI357373868
aI189125254
aL3420013581L
aI38152802
aL3119387910L
aL3595735034L
aI1571074795
aL3971013734L
aL3961121294L
aL3686320157L
aL2199591949L
aI1870057596
aI531926400
aI973451442
aI547963901
aI17530966
aL2878101281L
aI1372857926
aL2871766894L
aL3856629254L
aL3920614105L
aI18062604
aI802620948
aI474331141
aI240850153
aI280138136
aL3513354012L
aI1668744656
aI595808345
aL2831436531L
aI337732675
aI318056652
aI338086086
aI99763265
aI15425061
aI620093654
aI955591838
aI193807456
aL3749352614L
aI551598124
aI466280912
aL3777963614L
aI1280678582
aI310268879
aI338081637
aI536257550
aI155991469
aI950013672
aI374034928
aI35486742
aI317862677
aL3664851554L
aL3232940264L
aI310258175
aL3696296355L
aL3310744118L
aI975450222
aI88351974
aL3770701283L
aL3313813014L
aL2905599855L
aI59228570
aI316073370
aI271070610
aI492435765
aI191498091
aL2976641350L
aL3339738743L
aI10870512
aI597043120
aI191959211
aL2560276660L
aI412648934
aL3406429339L
aI414266785
aI955896944
aI583123413
aI15088481
aI26549978
aI316558525
aI253192646
aI246145420
aL3645120378L
aL3355914613L
aI146879662
aL2232204548L
aL3165873862L
aI10362
aI1507008385
aI567440349
aI172585635
aL3824905457L
aI597483262
aL3392300234L
aI18548136
aI118196796
aL3108045542L
aI316448618
aI399036299
aL3625377912L
aI14870804
aI235064799
aL2170041974L
aL3669471312L
aI132688690
aI1563582710
aI59386332
aL3668162954L
aI15560316
aL3624084632L
aI117495450
aL3436410526L
aL3415531577L
aL3523490179L
aL3391195839L
aL3312751753L
aL2957721364L
aL3311727529L
aL2279889259L
aI540728959
aI1550067685
aL3425424147L
aL3401906970L
aI160359714
aL3092639165L
aL3022529449L
aasS'obj'
p7
ccopy_reg
_reconstructor
p8
(ctweepy.models
User
p9
c__builtin__
object
p10
Ntp11
Rp12
(dp13
S'follow_request_sent'
p14
NsS'has_extended_profile'
p15
I00
sS'profile_use_background_image'
p16
I01
sS'profile_sidebar_fill_color'
p17
VDDEEF6
p18
sS'id'
p19
L3091964034L
sS'verified'
p20
I00
sS'entities'
p21
(dp22
Vurl
p23
(dp24
Vurls
p25
(lp26
(dp27
g23
Vhttp://t.co/xiCjfmOrCw
p28
sVindices
p29
(lp30
I0
aI22
asVexpanded_url
p31
Vhttp://solarsolutionsteam.com
p32
sVdisplay_url
p33
Vsolarsolutionsteam.com
p34
sassVdescription
p35
(dp36
g25
(lp37
sssS'profile_image_url_https'
p38
Vhttps://pbs.twimg.com/profile_images/577669449790058496/Yos1wwvi_normal.jpeg
p39
sS'_json'
p40
(dp41
Vfollow_request_sent
p42
NsVhas_extended_profile
p43
I00
sVprofile_use_background_image
p44
I01
sVdefault_profile_image
p45
I00
sVid
p46
L3091964034L
sVprofile_background_image_url_https
p47
Vhttps://abs.twimg.com/images/themes/theme1/bg.png
p48
sVverified
p49
I00
sVprofile_text_color
p50
V333333
p51
sVprofile_image_url_https
p52
g39
sVprofile_sidebar_fill_color
p53
g18
sVentities
p54
g22
sVfollowers_count
p55
I266
sVprofile_sidebar_border_color
p56
VC0DEED
p57
sVid_str
p58
V3091964034
p59
sVprofile_background_color
p60
VC0DEED
p61
sVlisted_count
p62
I276
sVstatus
p63
(dp64
Vcontributors
p65
NsVtruncated
p66
I00
sVtext
p67
VRT Earthstaff In Singapore, rooftop #SolarPanels will provide 100-percent of #Apples power needs: https://t.co/6PANt9Qjie
p68
sVin_reply_to_status_id
p69
Nsg46
L666263691248205824L
sVfavorite_count
p70
I0
sVsource
p71
V<a href="http://ifttt.com" rel="nofollow">IFTTT</a>
p72
sVretweeted
p73
I00
sVcoordinates
p74
Nsg54
(dp75
Vsymbols
p76
(lp77
sVuser_mentions
p78
(lp79
sVhashtags
p80
(lp81
(dp82
g29
(lp83
I36
aI48
asg67
VSolarPanels
p84
sa(dp85
g29
(lp86
I77
aI84
asg67
VApples
p87
sasg25
(lp88
(dp89
g23
Vhttps://t.co/6PANt9Qjie
p90
sg29
(lp91
I98
aI121
asg31
Vhttp://ow.ly/UHLZU
p92
sg33
Vow.ly/UHLZU
p93
sassVin_reply_to_screen_name
p94
Nsg58
V666263691248205824
p95
sVretweet_count
p96
I0
sVin_reply_to_user_id
p97
NsVfavorited
p98
I00
sVgeo
p99
NsVin_reply_to_user_id_str
p100
NsVpossibly_sensitive
p101
I00
sVlang
p102
Ven
p103
sVcreated_at
p104
VMon Nov 16 14:36:57 +0000 2015
p105
sVin_reply_to_status_id_str
p106
NsVplace
p107
NssVis_translation_enabled
p108
I00
sVutc_offset
p109
NsVstatuses_count
p110
I34116
sg35
VWe provide solar residential or commercial solutions through our network of companies with experience in all phases of design, installation and servicing.
p111
sVfriends_count
p112
I80
sVlocation
p113
VBrentwood, CA
p114
sVprofile_link_color
p115
V0084B4
p116
sVprofile_image_url
p117
Vhttp://pbs.twimg.com/profile_images/577669449790058496/Yos1wwvi_normal.jpeg
p118
sVfollowing
p119
NsVgeo_enabled
p120
I00
sVprofile_banner_url
p121
Vhttps://pbs.twimg.com/profile_banners/3091964034/1426562377
p122
sVprofile_background_image_url
p123
Vhttp://abs.twimg.com/images/themes/theme1/bg.png
p124
sVscreen_name
p125
Vsolarsolnsteam
p126
sg102
Ven
p127
sVprofile_background_tile
p128
I00
sVfavourites_count
p129
I2
sVname
p130
VSolar Solutions Team
p131
sVnotifications
p132
Nsg23
Vhttp://t.co/xiCjfmOrCw
p133
sg104
VTue Mar 17 03:14:18 +0000 2015
p134
sVcontributors_enabled
p135
I00
sVtime_zone
p136
NsVprotected
p137
I00
sVdefault_profile
p138
I01
sVis_translator
p139
I00
ssS'contributors_enabled'
p140
I00
sS'profile_text_color'
p141
g51
sS'followers_count'
p142
I266
sS'profile_sidebar_border_color'
p143
g57
sS'id_str'
p144
g59
sS'default_profile_image'
p145
I00
sS'listed_count'
p146
I276
sS'status'
p147
g8
(ctweepy.models
Status
p148
g10
Ntp149
Rp150
(dp151
S'favorited'
p152
I00
sS'contributors'
p153
NsS'truncated'
p154
I00
sS'text'
p155
g68
sS'source_url'
p156
Vhttp://ifttt.com
p157
sS'possibly_sensitive'
p158
I00
sS'in_reply_to_status_id'
p159
NsS'geo'
p160
Nsg19
L666263691248205824L
sS'favorite_count'
p161
I0
sS'lang'
p162
g103
sg21
g75
sS'created_at'
p163
cdatetime
datetime
p164
(S'\x07\xdf\x0b\x10\x0e$9\x00\x00\x00'
p165
tp166
Rp167
sg40
g64
sS'coordinates'
p168
NsS'in_reply_to_user_id_str'
p169
NsS'source'
p170
VIFTTT
p171
sS'in_reply_to_status_id_str'
p172
NsS'in_reply_to_screen_name'
p173
Nsg144
g95
sS'retweeted'
p174
I00
sS'place'
p175
NsS'retweet_count'
p176
I0
sS'in_reply_to_user_id'
p177
NsbsS'is_translation_enabled'
p178
I00
sS'utc_offset'
p179
NsS'statuses_count'
p180
I34116
sS'description'
p181
g111
sS'friends_count'
p182
I80
sS'location'
p183
g114
sS'profile_link_color'
p184
g116
sS'profile_image_url'
p185
g118
sS'notifications'
p186
NsS'geo_enabled'
p187
I00
sS'profile_background_color'
p188
g61
sS'profile_banner_url'
p189
g122
sS'profile_background_image_url'
p190
g124
sS'screen_name'
p191
g126
sg162
g127
sg1
I00
sS'profile_background_tile'
p192
I00
sS'favourites_count'
p193
I2
sS'name'
p194
g131
sS'url'
p195
g133
sg163
g164
(S'\x07\xdf\x03\x11\x03\x0e\x12\x00\x00\x00'
p196
tp197
Rp198
sS'profile_background_image_url_https'
p199
g48
sS'time_zone'
p200
NsS'protected'
p201
I00
sS'default_profile'
p202
I01
sS'is_translator'
p203
I00
sbs.