(dp0
S'following'
p1
(lp2
(lp3
I172023851
aI168679374
aI236953420
aL2296501071L
aasS'followers'
p4
(lp5
(lp6
I490563957
aI35462574
aI252531477
aL2362840470L
aL2178857768L
aI1198764114
aL3783684620L
aL3329821354L
aI59515737
aI53862640
aI1967056220
aL2402619378L
aI216252059
aI37699456
aI20231781
aI140540842
aI155262197
aI705642367
aI116216262
aI85096288
aI436655024
aI803587754
aL3719945475L
aL2332677504L
aI527259363
aL4111852757L
aI46182035
aI259478295
aL2404282792L
aI52263996
aI116716083
aL2730199890L
aI278273488
aI21117058
aI362646324
aL3620658440L
aI243061273
aL3965601253L
aL3917932455L
aL2669271438L
aI595119098
aL4040689515L
aI100767876
aI981236256
aL3887382554L
aL2542383428L
aI25203603
aL2259497594L
aL4003201396L
aL3781756454L
aI38864453
aI1965178568
aL3975157755L
aL2911795081L
aI537715317
aL3087738539L
aI219485430
aI123577686
aI116096093
aI80408640
aL3426630592L
aL2690449874L
aI1673527249
aI870836618
aL2340470600L
aI25123726
aI1679060522
aI396521612
aL3367720038L
aL3828919941L
aI1498757030
aI316859878
aL3064653773L
aI27491003
aL3180013554L
aL3350835467L
aL2873660925L
aL2843708466L
aI369258882
aL2330801192L
aI250317700
aI1263007015
aL3502953268L
aL3326833720L
aL2571538350L
aL3645362174L
aI109088599
aI23857136
aI472617351
aI95464998
aL2288234707L
aI47814987
aI47276855
aL2986830747L
aI1149635095
aI1875522632
aL3249124776L
aL2473423650L
aL2956770017L
aI386895345
aI1406659608
aL3520315939L
aI1653923665
aI344181252
aL2631585008L
aI224794418
aL2690637547L
aL3029244671L
aL3527971332L
aL2944910985L
aL3666451373L
aL3413382568L
aL3655387937L
aI403598464
aI113281232
aI26263794
aI19306168
aI1169469103
aI1529917477
aI259437636
aL2538500594L
aI262144590
aI216414759
aI229933985
aL2592029258L
aL2496574266L
aI38891843
aI279728711
aL3432220992L
aI716975326
aL3460128263L
aI414258137
aI70125045
aL3472733596L
aI1608442351
aI266318281
aL2885532683L
aL3343976795L
aI377605619
aI109671883
aI163944333
aL3118436108L
aL3301531826L
aL2998865812L
aL2259177605L
aL3246827016L
aI434654724
aI359482411
aI326484027
aI132420271
aL3320328662L
aL3310643529L
aL2818186680L
aI1172741323
aL2514944702L
aL3145582688L
aI1850427432
aI152227410
aL3318021354L
aL2507991025L
aI874419354
aI1109353760
aL2892301378L
aI23335544
aI1467740238
aL2938538823L
aI376511761
aI31345845
aI303527254
aL2656800877L
aI477049469
aI269083892
aI1668507541
aI18368533
aL3161683645L
aI90733310
aI246393692
aI66118762
aI1286540352
aI292043025
aL2411355302L
aI618223376
aL2426889916L
aI114037633
aL2784927287L
aI237591901
aL3302125247L
aL3031112266L
aI15897179
aL2368267530L
aL3299840473L
aL3158782301L
aI392969984
aI881608580
aI74777221
aI546435279
aI396929465
aI93666938
aI1668691892
aI37843489
aI1872889309
aI119477806
aI554777853
aI299733753
aI29007672
aI1676729582
aI280982070
aI102233020
aI853136802
aI27881845
aL3254008736L
aL2813928335L
aI17796574
aI35865417
aL2364258235L
aI1499845561
aL2264634042L
aI17947619
aI463194129
aI15337999
aL3051261259L
aL3347904346L
aI971129101
aI1405426148
aI18141980
aI78742020
aL2907381871L
aI120672388
aI103520806
aL3223801602L
aL2357517451L
aL2197930316L
aI19733911
aI383821450
aI293925523
aI1694428219
aI1281714487
aI242050421
aI205330371
aI409052656
aI1123666188
aI18258594
aL3131570921L
aI315612220
aL2296501071L
aL3343392783L
aL3048023575L
aL2230652294L
aL3252781615L
aI19115527
aL3338166971L
aI258376817
aasS'obj'
p7
ccopy_reg
_reconstructor
p8
(ctweepy.models
User
p9
c__builtin__
object
p10
Ntp11
Rp12
(dp13
S'follow_request_sent'
p14
NsS'has_extended_profile'
p15
I00
sS'profile_use_background_image'
p16
I00
sS'profile_sidebar_fill_color'
p17
V000000
p18
sS'id'
p19
L3096714913L
sS'verified'
p20
I00
sS'entities'
p21
(dp22
Vurl
p23
(dp24
Vurls
p25
(lp26
(dp27
g23
Vhttps://t.co/HsKw82zONG
p28
sVindices
p29
(lp30
I0
aI23
asVexpanded_url
p31
Vhttps://www.youtube.com/channel/UC1kKC-imGo7tPA0md0vWiYg
p32
sVdisplay_url
p33
Vyoutube.com/channel/UC1kKC\u2026
p34
sassVdescription
p35
(dp36
g25
(lp37
sssS'profile_image_url_https'
p38
Vhttps://pbs.twimg.com/profile_images/617991431722897410/c3SsfGfG_normal.jpg
p39
sS'_json'
p40
(dp41
Vfollow_request_sent
p42
NsVhas_extended_profile
p43
I00
sVprofile_use_background_image
p44
I00
sVdefault_profile_image
p45
I00
sVid
p46
L3096714913L
sVprofile_background_image_url_https
p47
Vhttps://abs.twimg.com/images/themes/theme1/bg.png
p48
sVverified
p49
I00
sVprofile_text_color
p50
V000000
p51
sVprofile_image_url_https
p52
g39
sVprofile_sidebar_fill_color
p53
g18
sVentities
p54
g22
sVfollowers_count
p55
I252
sVprofile_sidebar_border_color
p56
V000000
p57
sVid_str
p58
V3096714913
p59
sVprofile_background_color
p60
V000000
p61
sVlisted_count
p62
I10
sVstatus
p63
(dp64
Vlang
p65
Ven
p66
sVfavorited
p67
I00
sg54
(dp68
Vsymbols
p69
(lp70
(dp71
g29
(lp72
I10
aI14
asVtext
p73
VSPY
p74
sa(dp75
g29
(lp76
I15
aI19
asg73
VSPX
p77
sasVuser_mentions
p78
(lp79
sVhashtags
p80
(lp81
sg25
(lp82
ssVcontributors
p83
NsVtruncated
p84
I00
sg73
VOf course $SPY $SPX don't give us the big gap down... that buy would've been too easy
p85
sVcreated_at
p86
VMon Nov 16 13:43:12 +0000 2015
p87
sVretweeted
p88
I00
sVin_reply_to_status_id_str
p89
NsVcoordinates
p90
NsVin_reply_to_user_id_str
p91
NsVsource
p92
V<a href="https://about.twitter.com/products/tweetdeck" rel="nofollow">TweetDeck</a>
p93
sVin_reply_to_status_id
p94
NsVin_reply_to_screen_name
p95
Nsg58
V666250164814807040
p96
sVplace
p97
NsVretweet_count
p98
I0
sVgeo
p99
Nsg46
L666250164814807040L
sVfavorite_count
p100
I2
sVin_reply_to_user_id
p101
NssVis_translation_enabled
p102
I00
sVutc_offset
p103
I-18000
sVstatuses_count
p104
I800
sg35
VIt's not a strategy when you understand how stocks move, it's just waiting for the right time.
p105
sVfriends_count
p106
I4
sVlocation
p107
VNewport Beach, CA
p108
sVprofile_link_color
p109
V3B94D9
p110
sVprofile_image_url
p111
Vhttp://pbs.twimg.com/profile_images/617991431722897410/c3SsfGfG_normal.jpg
p112
sVfollowing
p113
NsVgeo_enabled
p114
I00
sVprofile_banner_url
p115
Vhttps://pbs.twimg.com/profile_banners/3096714913/1436175576
p116
sVprofile_background_image_url
p117
Vhttp://abs.twimg.com/images/themes/theme1/bg.png
p118
sVscreen_name
p119
VAllDayHolds
p120
sg65
Ven
p121
sVprofile_background_tile
p122
I00
sVfavourites_count
p123
I2
sVname
p124
VAll Day Holds
p125
sVnotifications
p126
Nsg23
Vhttps://t.co/HsKw82zONG
p127
sg86
VWed Mar 18 20:02:41 +0000 2015
p128
sVcontributors_enabled
p129
I00
sVtime_zone
p130
VEastern Time (US & Canada)
p131
sVprotected
p132
I00
sVdefault_profile
p133
I00
sVis_translator
p134
I00
ssS'contributors_enabled'
p135
I00
sS'profile_text_color'
p136
g51
sS'followers_count'
p137
I252
sS'profile_sidebar_border_color'
p138
g57
sS'id_str'
p139
g59
sS'default_profile_image'
p140
I00
sS'listed_count'
p141
I10
sS'status'
p142
g8
(ctweepy.models
Status
p143
g10
Ntp144
Rp145
(dp146
S'favorited'
p147
I00
sS'contributors'
p148
NsS'truncated'
p149
I00
sS'text'
p150
g85
sS'source_url'
p151
Vhttps://about.twitter.com/products/tweetdeck
p152
sS'in_reply_to_status_id'
p153
NsS'geo'
p154
Nsg19
L666250164814807040L
sS'favorite_count'
p155
I2
sS'lang'
p156
g66
sg21
g68
sS'created_at'
p157
cdatetime
datetime
p158
(S'\x07\xdf\x0b\x10\r+\x0c\x00\x00\x00'
p159
tp160
Rp161
sg40
g64
sS'coordinates'
p162
NsS'in_reply_to_user_id_str'
p163
NsS'source'
p164
VTweetDeck
p165
sS'in_reply_to_status_id_str'
p166
NsS'in_reply_to_screen_name'
p167
Nsg139
g96
sS'retweeted'
p168
I00
sS'place'
p169
NsS'retweet_count'
p170
I0
sS'in_reply_to_user_id'
p171
NsbsS'is_translation_enabled'
p172
I00
sS'utc_offset'
p173
I-18000
sS'statuses_count'
p174
I800
sS'description'
p175
g105
sS'friends_count'
p176
I4
sS'location'
p177
g108
sS'profile_link_color'
p178
g110
sS'profile_image_url'
p179
g112
sS'notifications'
p180
NsS'geo_enabled'
p181
I00
sS'profile_background_color'
p182
g61
sS'profile_banner_url'
p183
g116
sS'profile_background_image_url'
p184
g118
sS'screen_name'
p185
g120
sg156
g121
sg1
I00
sS'profile_background_tile'
p186
I00
sS'favourites_count'
p187
I2
sS'name'
p188
g125
sS'url'
p189
g127
sg157
g158
(S'\x07\xdf\x03\x12\x14\x02)\x00\x00\x00'
p190
tp191
Rp192
sS'profile_background_image_url_https'
p193
g48
sS'time_zone'
p194
g131
sS'protected'
p195
I00
sS'default_profile'
p196
I00
sS'is_translator'
p197
I00
sbs.