(dp0
S'following'
p1
(lp2
(lp3
L2981421573L
aI189788477
aI579400237
aI377714371
aI18433619
aI1308512629
aL2471140759L
aI168715580
aasS'followers'
p4
(lp5
(lp6
L3449195112L
aL4149856513L
aL2926070175L
aL4150814553L
aI878976828
aL2394624246L
aI1365642091
aI43679196
aI228540865
aI869580156
aL2873998923L
aI1436494352
aI81130574
aL2320795783L
aL2853469918L
aI551844887
aL2314289604L
aI210827983
aL3365799910L
aL3280650074L
aI1308512629
aI40824597
aL3485492116L
aI19171206
aL2395258519L
aI16618831
aL2662370076L
aI14606967
aI31193398
aL2400311287L
aI2136001
aI177625505
aI1639603778
aL3319490281L
aI524571947
aI819758784
aL3397180643L
aI1099257816
aI35784526
aI348113692
aL3785999415L
aI1935592992
aI519911967
aI777011756
aI251988688
aI478061208
aI15841703
aL3306248044L
aI552990338
aL3235174411L
aI39043402
aL2837882056L
aI100767876
aI1438805010
aL3294761044L
aI1454484078
aI41276816
aI38289703
aI51912109
aL2180594713L
aI559940893
aI104143185
aI534542878
aL2844317095L
aL3034687258L
aI157706504
aI121158587
aL2966889492L
aI224627391
aL2401254950L
aI75354209
aL3223655369L
aL2187937911L
aL3433944194L
aL2466423169L
aI1653602893
aL3261057500L
aI24080172
aL2330801192L
aI1286540352
aI377714371
aI124095540
aI1154657918
aL2380905156L
aL3254008736L
aI743140639
aI363687310
aI247818545
aL3178463573L
aI122376894
aL3314807454L
aL2220116796L
aL2849721180L
aI606868275
aI1571456736
aI94223393
aL3233673608L
aI1381072310
aL3301528321L
aI21436811
aI281369833
aI75937081
aL3336005975L
aI37490814
aI1874637702
aI114791778
aI531356245
aL3228415425L
aL2484316340L
aI1263288692
aL3053336324L
aL3132588726L
aI230208960
aI306163526
aL2596325030L
aI388880660
aI128369982
aI21880032
aI356309408
aL3105603363L
aL3021751943L
aI17947619
aI19419395
aI734413873
aL2334180368L
aL2981475183L
aL2854871056L
aI120672388
aL2504711473L
aL2824057875L
aI188380733
aL3342709240L
aI72504457
aI1287051902
aI180681321
aL2703840623L
aL3030655829L
aI63184060
aL2555807178L
aL3330135317L
aI46099094
aI50381253
aL2355414949L
aL3096837242L
aI189577480
aL2931769645L
aL2519920796L
aI53359947
aL2420011614L
aI1233362096
aL3233951736L
aL2471140759L
aI289486676
aL2649512216L
aL3305548702L
aL2845776194L
aL2469798271L
aL2366237078L
aL2700579980L
aI47677820
aI532412990
aI1921459111
aI150766012
aI232068982
aI72572343
aI569801803
aL2922507431L
aI863613199
aL2426471287L
aL2210833465L
aI175857285
aL3191008436L
aL2409933877L
aI1660419504
aI374838563
aL2517112130L
aL3187956895L
aL2430846618L
aI75654813
aL2261641826L
aL2344531388L
aI15455022
aI26786477
aL2328402044L
aL2398532839L
aL3124193172L
aL2825834506L
aL2330858467L
aI508094416
aI531347187
aL2981421573L
aI49180183
aI237951988
aL3130775919L
aL2892133511L
aL2355107407L
aI712995869
aI192676787
aI75238809
aL3056674234L
aL2543295583L
aL3085357746L
aI28171554
aI1184556446
aL2964117237L
aI280982070
aI433390704
aI101382549
aI17514210
aI976797445
aI208198514
aI345347802
aL2195107490L
aI805230144
aI20114738
aL2938575154L
aI101826651
aL2573412902L
aI741467216
aI91572217
aI1663710703
aI1263445268
aI36792985
aL2228703812L
aI1436945384
aI1377687332
aI18433619
aI844865059
aL2967509039L
aL2311427814L
aI342360140
aL3021479688L
aL3039509656L
aL2314238719L
aL2960969351L
aI177506855
aI23335544
aI820331593
aI60394101
aI1390738141
aL2275230932L
aI20817676
aI747357996
aI97561587
aL2866390736L
aI73934505
aI270062834
aI43402916
aI977782442
aL2247896138L
aL2937621999L
aL2864289202L
aI110646219
aL2761332396L
aI402369160
aI413305546
aL2841233056L
aL2358336422L
aL2234499834L
aL2368267530L
aI20704092
aI38770276
aL2767751848L
aI1359377120
aI874419354
aL2702924176L
aI1462240951
aL2488828777L
aL2450172553L
aL2943617288L
aI99064706
aI192759988
aI328898039
aI36089353
aL2763619809L
aI51588746
aL2601718530L
aI569423229
aI107936120
aL2287212294L
aI198996137
aL2917936299L
aI370932992
aI977194280
aI24732019
aI449128723
aI336657283
aL2240400700L
aI54664941
aL2939652681L
aI250317700
aL2836885805L
aI265025787
aI244281327
aI62226476
aI1339456567
aI26021414
aL2431134733L
aL2339480196L
aI390450593
aI907800390
aI361143081
aI198430102
aI374315292
aL2784770668L
aL2533422487L
aI453625776
aL2767912162L
aL2444104684L
aL2285839128L
aL2830903194L
aI18745322
aI34578922
aI244702210
aL2603534773L
aL2150632133L
aI1314190669
aI755985806
aI400866209
aI69621882
aI19010961
aI1129900796
aI40300931
aI253492573
aI388213946
aI58783432
aL2218417812L
aI235768743
aL2383917714L
aI445902563
aI949381904
aI608840229
aI49652491
aL2374172425L
aL2451685246L
aI206333439
aI26962075
aI30674553
aI1904689014
aI43950136
aI1281335977
aI1645372082
aI287727974
aI1865437291
aI1864272541
aL2303537342L
aL2273688650L
aI25277152
aI1041050238
aI1864102376
aI1862407496
aI312113183
aI805627194
aI513550548
aI408031243
aI397095175
aasS'obj'
p7
ccopy_reg
_reconstructor
p8
(ctweepy.models
User
p9
c__builtin__
object
p10
Ntp11
Rp12
(dp13
S'follow_request_sent'
p14
NsS'has_extended_profile'
p15
I00
sS'profile_use_background_image'
p16
I00
sS'profile_sidebar_fill_color'
p17
V000000
p18
sS'id'
p19
I310358069
sS'verified'
p20
I00
sS'entities'
p21
(dp22
Vdescription
p23
(dp24
Vurls
p25
(lp26
sssS'profile_image_url_https'
p27
Vhttps://pbs.twimg.com/profile_images/378800000801162702/1593bf749f999164b48cae78dcee4674_normal.jpeg
p28
sS'_json'
p29
(dp30
Vfollow_request_sent
p31
NsVhas_extended_profile
p32
I00
sVprofile_use_background_image
p33
I00
sVdefault_profile_image
p34
I00
sVid
p35
I310358069
sVprofile_background_image_url_https
p36
Vhttps://abs.twimg.com/images/themes/theme1/bg.png
p37
sVverified
p38
I00
sVprofile_text_color
p39
V000000
p40
sVprofile_image_url_https
p41
g28
sVprofile_sidebar_fill_color
p42
g18
sVentities
p43
g22
sVfollowers_count
p44
I356
sVprofile_sidebar_border_color
p45
V000000
p46
sVid_str
p47
V310358069
p48
sVprofile_background_color
p49
V000000
p50
sVlisted_count
p51
I11
sVstatus
p52
(dp53
Vlang
p54
Ves
p55
sVfavorited
p56
I00
sg43
(dp57
Vsymbols
p58
(lp59
(dp60
Vindices
p61
(lp62
I0
aI5
asVtext
p63
VMYOS
p64
sasVuser_mentions
p65
(lp66
sVhashtags
p67
(lp68
sg25
(lp69
ssVcontributors
p70
NsVtruncated
p71
I00
sg63
V$MYOS WTF
p72
sVcreated_at
p73
VMon Nov 16 15:54:43 +0000 2015
p74
sVretweeted
p75
I00
sVin_reply_to_status_id_str
p76
NsVcoordinates
p77
NsVin_reply_to_user_id_str
p78
NsVsource
p79
V<a href="http://twitter.com" rel="nofollow">Twitter Web Client</a>
p80
sVin_reply_to_status_id
p81
NsVin_reply_to_screen_name
p82
Nsg47
V666283264957661185
p83
sVplace
p84
NsVretweet_count
p85
I0
sVgeo
p86
Nsg35
L666283264957661185L
sVfavorite_count
p87
I1
sVin_reply_to_user_id
p88
NssVis_translation_enabled
p89
I00
sVutc_offset
p90
I3600
sVstatuses_count
p91
I3950
sg23
VI try to spot well positioned smallcaps, bottomed charts, low float pumps. Informational only, not a recommendation to buy or sell any security.
p92
sVfriends_count
p93
I8
sVlocation
p94
V
p95
sVprofile_link_color
p96
V3B94D9
p97
sVprofile_image_url
p98
Vhttp://pbs.twimg.com/profile_images/378800000801162702/1593bf749f999164b48cae78dcee4674_normal.jpeg
p99
sVfollowing
p100
NsVgeo_enabled
p101
I00
sVprofile_background_image_url
p102
Vhttp://abs.twimg.com/images/themes/theme1/bg.png
p103
sVscreen_name
p104
Vlglmrc
p105
sg54
Vit
p106
sVprofile_background_tile
p107
I00
sVfavourites_count
p108
I1383
sVname
p109
Vlglmrc
p110
sVnotifications
p111
NsVurl
p112
Nsg73
VFri Jun 03 16:19:37 +0000 2011
p113
sVcontributors_enabled
p114
I00
sVtime_zone
p115
VAmsterdam
p116
sVprotected
p117
I00
sVdefault_profile
p118
I00
sVis_translator
p119
I00
ssS'contributors_enabled'
p120
I00
sS'profile_text_color'
p121
g40
sS'followers_count'
p122
I356
sS'profile_sidebar_border_color'
p123
g46
sS'id_str'
p124
g48
sS'default_profile_image'
p125
I00
sS'listed_count'
p126
I11
sS'status'
p127
g8
(ctweepy.models
Status
p128
g10
Ntp129
Rp130
(dp131
S'favorited'
p132
I00
sS'contributors'
p133
NsS'truncated'
p134
I00
sS'text'
p135
g72
sS'source_url'
p136
Vhttp://twitter.com
p137
sS'in_reply_to_status_id'
p138
NsS'geo'
p139
Nsg19
L666283264957661185L
sS'favorite_count'
p140
I1
sS'lang'
p141
g55
sg21
g57
sS'created_at'
p142
cdatetime
datetime
p143
(S'\x07\xdf\x0b\x10\x0f6+\x00\x00\x00'
p144
tp145
Rp146
sg29
g53
sS'coordinates'
p147
NsS'in_reply_to_user_id_str'
p148
NsS'source'
p149
VTwitter Web Client
p150
sS'in_reply_to_status_id_str'
p151
NsS'in_reply_to_screen_name'
p152
Nsg124
g83
sS'retweeted'
p153
I00
sS'place'
p154
NsS'retweet_count'
p155
I0
sS'in_reply_to_user_id'
p156
NsbsS'is_translation_enabled'
p157
I00
sS'utc_offset'
p158
I3600
sS'statuses_count'
p159
I3950
sS'description'
p160
g92
sS'friends_count'
p161
I8
sS'location'
p162
g95
sS'profile_link_color'
p163
g97
sS'profile_image_url'
p164
g99
sS'notifications'
p165
NsS'geo_enabled'
p166
I00
sS'profile_background_color'
p167
g50
sS'profile_background_image_url'
p168
g103
sS'screen_name'
p169
g105
sg141
g106
sg1
I00
sS'profile_background_tile'
p170
I00
sS'favourites_count'
p171
I1383
sS'name'
p172
g110
sS'url'
p173
Nsg142
g143
(S'\x07\xdb\x06\x03\x10\x13%\x00\x00\x00'
p174
tp175
Rp176
sS'profile_background_image_url_https'
p177
g37
sS'time_zone'
p178
g116
sS'protected'
p179
I00
sS'default_profile'
p180
I00
sS'is_translator'
p181
I00
sbs.