(dp0
S'following'
p1
(lp2
(lp3
L3429452957L
aL3742190895L
aL3323039314L
aL3335509264L
aI250317700
aI65325224
aI104284098
aI244955730
aI83647702
aI594141180
aL3144063064L
aL2334087343L
aI137322271
aI1017360962
aI227312102
aI199594335
aI497094379
aI296341409
aL2828947734L
aI1884543769
aI296826530
aI446784969
aI1091770208
aI255996385
aI575796665
aI26810527
aI47114671
aI1093668242
aI922060614
aI243795494
aL2798270282L
aI344752927
aI247788883
aI1884013189
aL2275337142L
aI132173493
aI1711239283
aI1941253760
aI242155457
aL2181558745L
aI733717446
aL2968040146L
aI74104397
aI78129351
aI785935140
aI33479312
aI169944507
aI7243252
aI389853429
aI86626845
aI302060408
aI396365748
aI1233362096
aI701103860
aI59257180
aL2300258166L
aL3103507892L
aI13916922
aI142384766
aL2301944706L
aI22523357
aI84072624
aI394817348
aI711057236
aI104034095
aL3096917148L
aL2838276994L
aI314385813
aL2494896473L
aI234107458
aI396294440
aL3188876685L
aI24408359
aI1616185404
aL3091612323L
aI259471396
aI743368848
aI22160197
aL2785551645L
aI30820266
aI32492934
aI13649002
aI279500794
aL2278259810L
aI165212095
aL3035804476L
aI27557914
aI44418062
aI295221061
aI71372467
aI18856867
aI1033377594
aI30217291
aI22522178
aI291759028
aL2364511466L
aL2411348226L
aI47678782
aL2445535346L
aI298217736
aI112822836
aI82095703
aI69421704
aI412362576
aI740632386
aI84347917
aI159012668
aI974948892
aL2524992199L
aL2525374230L
aI425402956
aI190773758
aI1498350660
aI597480797
aI46161469
aI314061974
aI84312619
aI56121651
aI194346014
aI243801041
aI19717430
aI43475268
aI256334954
aI88053063
aI28489821
aI201768863
aI1945249706
aI3552801
aI16150688
aI103883488
aI409194010
aI82782889
aI820379341
aI1270580425
aI102527566
aI456219739
aI1493877439
aI14031032
aI28436760
aI18294197
aI1330055544
aI82162291
aI1713609026
aI1132786314
aI405681948
aI43348496
aL2893129192L
aL2974495097L
aL3213634851L
aL2203759328L
aL3011250366L
aI735588145
aI240033834
aI849617886
aL2999735878L
aI1092377130
aI1532827464
aI551789117
aI1245943963
aI165503959
aI1934321066
aL2294183432L
aL3062135689L
aI67066114
aI1112225545
aI62871181
aI1370906497
aI294034034
aI49637104
aL2723505500L
aL2717056931L
aI705164280
aI72725797
aI204564525
aI735536305
aI593620370
aI229966745
aL3044910958L
aL2744869459L
aL2353612981L
aI427877977
aI28017710
aI14063950
aI863003467
aI37391190
aI305221233
aI102754598
aI636545451
aL2855542157L
aI1228272776
aI1033654686
aI26899727
aI237591901
aL2242914704L
aI770904320
aI119475889
aI37469211
aI89491245
aI888903264
aI102094857
aI8071902
aI380500399
aL2355225980L
aI17226612
aI274233761
aI229246832
aI19722699
aI14719617
aI41458395
aI602321455
aI112872946
aI632341632
aasS'followers'
p4
(lp5
(lp6
L3429452957L
aL3436773928L
aL3742190895L
aI1934214655
aI472363764
aL2832636005L
aL3262634978L
aL3323039314L
aL2169436064L
aL3335509264L
aI13916922
aI494502009
aI551792578
aI849617886
aL3265592077L
aL2789997659L
aI65325224
aI244955730
aL2841776049L
aL3301645243L
aI801231043
aL2546978790L
aI100767876
aI83647702
aL3428850495L
aL3063379242L
aL3144063064L
aL2334087343L
aI17593804
aI16542638
aL3593408235L
aI242155457
aI250769196
aI297795505
aL2980307415L
aI1429466490
aL2855542157L
aL3244768260L
aL3288466519L
aI23806045
aL2951650306L
aI296826530
aI1884543769
aI1573242241
aI446784969
aI344752927
aI19646980
aI973770902
aL2438293327L
aI974948892
aL3268327158L
aL3240305948L
aI199451649
aI33479312
aL3319838782L
aI59257180
aI701103860
aI1233362096
aI15974185
aL3035804476L
aL2524992199L
aL2525374230L
aL3218824086L
aI3552801
aI279500794
aL3011250366L
aL3213634851L
aL2294183432L
aI1112225545
aI72725797
aI1532827464
aL2893129192L
aL2353612981L
aL2974495097L
aasS'obj'
p7
ccopy_reg
_reconstructor
p8
(ctweepy.models
User
p9
c__builtin__
object
p10
Ntp11
Rp12
(dp13
S'follow_request_sent'
p14
I00
sS'has_extended_profile'
p15
I00
sS'profile_use_background_image'
p16
I01
sS'profile_sidebar_fill_color'
p17
VDDEEF6
p18
sS'id'
p19
L3128810615L
sS'verified'
p20
I00
sS'entities'
p21
(dp22
Vdescription
p23
(dp24
Vurls
p25
(lp26
sssS'profile_image_url_https'
p27
Vhttps://pbs.twimg.com/profile_images/600205056001089536/dy8Bq32c_normal.jpg
p28
sS'_json'
p29
(dp30
Vfollow_request_sent
p31
I00
sVhas_extended_profile
p32
I00
sVprofile_use_background_image
p33
I01
sVdefault_profile_image
p34
I00
sVid
p35
L3128810615L
sVprofile_background_image_url_https
p36
Vhttps://abs.twimg.com/images/themes/theme1/bg.png
p37
sVverified
p38
I00
sVprofile_text_color
p39
V333333
p40
sVprofile_image_url_https
p41
g28
sVprofile_sidebar_fill_color
p42
g18
sVentities
p43
g22
sVfollowers_count
p44
I74
sVprofile_sidebar_border_color
p45
VC0DEED
p46
sVid_str
p47
V3128810615
p48
sVprofile_background_color
p49
VC0DEED
p50
sVlisted_count
p51
I3
sVstatus
p52
(dp53
Vcontributors
p54
NsVtruncated
p55
I00
sVtext
p56
VRT @Liquid_Biopsy: $GLPG MorganStanley: 1st Take: ABT-494 Safety Data Makes Not Licensing Filgotinib Even More Curious On (cont) https://t.\u2026
p57
sVin_reply_to_status_id
p58
Nsg35
L664558057469452288L
sVfavorite_count
p59
I0
sVsource
p60
V<a href="http://twitter.com/download/android" rel="nofollow">Twitter for Android</a>
p61
sVretweeted
p62
I00
sVcoordinates
p63
Nsg43
(dp64
Vsymbols
p65
(lp66
(dp67
Vindices
p68
(lp69
I19
aI24
asg56
VGLPG
p70
sasVuser_mentions
p71
(lp72
(dp73
g35
I311099164
sg68
(lp74
I3
aI17
asg47
V311099164
p75
sVscreen_name
p76
VLiquid_Biopsy
p77
sVname
p78
VLiquid Biopsy
p79
sasVhashtags
p80
(lp81
sg25
(lp82
(dp83
Vurl
p84
Vhttps://t.co/IDYw7tn4tu
p85
sg68
(lp86
I139
aI140
asVexpanded_url
p87
Vhttp://tl.gd/n_1snrbk0
p88
sVdisplay_url
p89
Vtl.gd/n_1snrbk0
p90
sassVin_reply_to_screen_name
p91
Nsg47
V664558057469452288
p92
sVretweet_count
p93
I7
sVin_reply_to_user_id
p94
NsVfavorited
p95
I00
sVretweeted_status
p96
(dp97
g54
Nsg55
I00
sg56
V$GLPG MorganStanley: 1st Take: ABT-494 Safety Data Makes Not Licensing Filgotinib Even More Curious On (cont) https://t.co/IDYw7tn4tu
p98
sg58
Nsg35
L664438293044547584L
sg59
I4
sg60
V<a href="http://www.twitlonger.com" rel="nofollow">Twitlonger</a>
p99
sg62
I00
sg63
Nsg43
(dp100
g65
(lp101
(dp102
g68
(lp103
I0
aI5
asg56
VGLPG
p104
sasg71
(lp105
sg80
(lp106
sg25
(lp107
(dp108
g84
Vhttps://t.co/IDYw7tn4tu
p109
sg68
(lp110
I110
aI133
asg87
Vhttp://tl.gd/n_1snrbk0
p111
sg89
Vtl.gd/n_1snrbk0
p112
sassg91
Nsg47
V664438293044547584
p113
sg93
I7
sg94
Nsg95
I00
sVgeo
p114
NsVin_reply_to_user_id_str
p115
NsVpossibly_sensitive
p116
I00
sVlang
p117
Ven
p118
sVcreated_at
p119
VWed Nov 11 13:43:28 +0000 2015
p120
sVin_reply_to_status_id_str
p121
NsVplace
p122
Nssg114
Nsg115
Nsg116
I00
sg117
Ven
p123
sg119
VWed Nov 11 21:39:22 +0000 2015
p124
sg121
Nsg122
NssVis_translation_enabled
p125
I00
sVutc_offset
p126
NsVstatuses_count
p127
I115
sg23
VVenture Capitalist, Cambridge, ex-Physician, Biotech Investor, all opinions on stock are my own and are not recommendations
p128
sVfriends_count
p129
I212
sVlocation
p130
VLondon, England
p131
sVprofile_link_color
p132
V0084B4
p133
sVprofile_image_url
p134
Vhttp://pbs.twimg.com/profile_images/600205056001089536/dy8Bq32c_normal.jpg
p135
sVfollowing
p136
I00
sVgeo_enabled
p137
I00
sVprofile_background_image_url
p138
Vhttp://abs.twimg.com/images/themes/theme1/bg.png
p139
sg76
Vbinarybiotech
p140
sg117
Ven
p141
sVprofile_background_tile
p142
I00
sVfavourites_count
p143
I19
sg78
VBinaryBiotech
p144
sVnotifications
p145
I00
sg84
Nsg119
VMon Mar 30 11:42:06 +0000 2015
p146
sVcontributors_enabled
p147
I00
sVtime_zone
p148
NsVprotected
p149
I00
sVdefault_profile
p150
I01
sVis_translator
p151
I00
ssS'contributors_enabled'
p152
I00
sS'profile_text_color'
p153
g40
sS'followers_count'
p154
I74
sS'profile_sidebar_border_color'
p155
g46
sS'id_str'
p156
g48
sS'default_profile_image'
p157
I00
sS'listed_count'
p158
I3
sS'status'
p159
g8
(ctweepy.models
Status
p160
g10
Ntp161
Rp162
(dp163
S'favorited'
p164
I00
sS'contributors'
p165
NsS'truncated'
p166
I00
sS'text'
p167
g57
sS'source_url'
p168
Vhttp://twitter.com/download/android
p169
sS'possibly_sensitive'
p170
I00
sS'in_reply_to_status_id'
p171
NsS'geo'
p172
Nsg19
L664558057469452288L
sS'favorite_count'
p173
I0
sS'lang'
p174
g123
sS'retweeted_status'
p175
g8
(g160
g10
Ntp176
Rp177
(dp178
g164
I00
sg165
Nsg166
I00
sg167
g98
sg168
Vhttp://www.twitlonger.com
p179
sg170
I00
sg171
Nsg172
Nsg19
L664438293044547584L
sg173
I4
sg174
g118
sg21
g100
sS'created_at'
p180
cdatetime
datetime
p181
(S'\x07\xdf\x0b\x0b\r+\x1c\x00\x00\x00'
p182
tp183
Rp184
sg29
g97
sS'coordinates'
p185
NsS'in_reply_to_user_id_str'
p186
NsS'source'
p187
VTwitlonger
p188
sS'in_reply_to_status_id_str'
p189
NsS'in_reply_to_screen_name'
p190
Nsg156
g113
sS'retweeted'
p191
I00
sS'place'
p192
NsS'retweet_count'
p193
I7
sS'in_reply_to_user_id'
p194
Nsbsg21
g64
sg180
g181
(S"\x07\xdf\x0b\x0b\x15'\x16\x00\x00\x00"
p195
tp196
Rp197
sg29
g53
sg185
Nsg186
Nsg187
VTwitter for Android
p198
sg189
Nsg190
Nsg156
g92
sg191
I00
sg192
Nsg193
I7
sg194
NsbsS'is_translation_enabled'
p199
I00
sS'utc_offset'
p200
NsS'statuses_count'
p201
I115
sS'description'
p202
g128
sS'friends_count'
p203
I212
sS'location'
p204
g131
sS'profile_link_color'
p205
g133
sS'profile_image_url'
p206
g135
sS'notifications'
p207
I00
sS'geo_enabled'
p208
I00
sS'profile_background_color'
p209
g50
sS'profile_background_image_url'
p210
g139
sS'screen_name'
p211
g140
sg174
g141
sg1
I00
sS'profile_background_tile'
p212
I00
sS'favourites_count'
p213
I19
sS'name'
p214
g144
sS'url'
p215
Nsg180
g181
(S'\x07\xdf\x03\x1e\x0b*\x06\x00\x00\x00'
p216
tp217
Rp218
sS'profile_background_image_url_https'
p219
g37
sS'time_zone'
p220
NsS'protected'
p221
I00
sS'default_profile'
p222
I01
sS'is_translator'
p223
I00
sbs.