(dp0
S'following'
p1
(lp2
(lp3
I28411005
aL2561646679L
aL3225171585L
aL3104786195L
aL2618831658L
aI483659511
aI30654717
aL2962122268L
aL3247020279L
aI918415080
aI809300215
aI285741243
aI531525580
aI444023903
aI16172320
aI82762397
aL3185728742L
aI195319429
aI315872250
aI341031417
aI23080928
aL2993883215L
aI20800915
aI1289079614
aI160720130
aI1529271854
aI847705098
aI48044298
aL3133552193L
aI1764503544
aI733086954
aL2263634564L
aI1870285886
aI1909729944
aL3145904237L
aL2445782956L
aI225048854
aI75960143
aI1861816122
aI1068980532
aI583396455
aI1861866625
aI495538679
aL3171512279L
aI904968246
aL2203759916L
aI1409089592
aI1126189962
aI1367765233
aI22811613
aL2828456851L
aL3198740170L
aI26786477
aI49367700
aI1376250476
aI52166809
aL3174224128L
aI303531344
aI30981458
aI35643668
aI854910984
aL2165676145L
aL2310585061L
aL2986015338L
aL3133907638L
aL3183109960L
aI287740199
aL3133532909L
aL2528005758L
aL2773572122L
aL2390660095L
aI403598464
aL2936295748L
aI1258835366
aI333642436
aI1075499472
aL3042173895L
aI757899558
aI26021870
aI23648764
aL2722042379L
aI1201107619
aI17583126
aL2722223160L
aI41589809
aI287562648
aL3113335115L
aI15756049
aI45726250
aI187896454
aI1892265092
aI203561040
aI37922511
aI149297036
aI138230417
aI125368492
aL2230705400L
aL3068933499L
aI725577499
aL2748944294L
aI611817117
aI241789496
aasS'followers'
p4
(lp5
(lp6
I1970391553
aI9555372
aI1733660761
aI597799971
aI138653890
aI61342056
aI316381371
aL4077906795L
aL4072387640L
aL2339803886L
aL3944869936L
aI2273161
aI22728078
aL3865520414L
aL2865417941L
aI33113122
aI981236256
aI1884628062
aI340612985
aL3064578617L
aL2836521796L
aL2392582728L
aI1961338880
aI1452042632
aI1117687584
aI154551715
aI577273808
aI253016817
aI178012194
aI1072384428
aI240915837
aL3564636554L
aI141453630
aI179203638
aI117511545
aL2706680274L
aI39480502
aI171204893
aI359482411
aL2660702952L
aL2763501000L
aL2955923979L
aI420586391
aI34124162
aL2956444112L
aL2915324472L
aI374360105
aI311828608
aL3282638071L
aI45863893
aL2599982112L
aI51337994
aL3299676036L
aI1346679114
aI63120268
aL3380754874L
aI188170346
aI118078164
aL3273481016L
aI46877857
aI1973301416
aI506676194
aI88741857
aI65985948
aL3385918115L
aI964641726
aI331071452
aI1923637334
aI1845191160
aI518118148
aI198383510
aI45383259
aI1590280028
aI71856984
aI268433679
aI302056299
aI971129101
aI1157789384
aI276708443
aI798746312
aI14765387
aI125880125
aI27219463
aL3302811803L
aI180682987
aI1125338300
aL2740945858L
aI1511806302
aL2365652177L
aL3323913592L
aI325860784
aI26596541
aI244674362
aI210541126
aI55354528
aI223678784
aI367283764
aL3224518962L
aI56896300
aI250317700
aI1295426742
aI20682620
aL3222124429L
aL3231571808L
aI886503410
aI440307943
aI1375860338
aL2400601442L
aI382317826
aI170763960
aI122247811
aI82762397
aI16172320
aI444023903
aI809300215
aI285741243
aI531525580
aI918415080
aL3247020279L
aL2962122268L
aI483659511
aL3104786195L
aI30654717
aL3225171585L
aL2618831658L
aL3185728742L
aI195319429
aI315872250
aI341031417
aI23080928
aI20800915
aL2993883215L
aI1289079614
aI160720130
aI1870285886
aL2263634564L
aI48044298
aI1764503544
aI847705098
aI1529271854
aI75960143
aI225048854
aL2445782956L
aL3145904237L
aI1909729944
aI49367700
aI26786477
aI22811613
aL2828456851L
aI1126189962
aI1409089592
aL3171512279L
aI904968246
aI495538679
aI1861866625
aI1861816122
aI1068980532
aI583396455
aL3183109960L
aL2986015338L
aL2310585061L
aL2165676145L
aI30981458
aI35643668
aI854910984
aI303531344
aL3174224128L
aI287740199
aL2390660095L
aL2773572122L
aL2528005758L
aL2936295748L
aI17583126
aI1201107619
aI26021870
aI23648764
aL2722042379L
aI757899558
aL3042173895L
aI1075499472
aI1009886558
aL3113335115L
aI287562648
aI54087036
aL2722223160L
aI15756049
aI187896454
aI611817117
aL2748944294L
aL3068933499L
aI725577499
aL2230705400L
aI138230417
aI149297036
aI203561040
aI37922511
aasS'obj'
p7
ccopy_reg
_reconstructor
p8
(ctweepy.models
User
p9
c__builtin__
object
p10
Ntp11
Rp12
(dp13
S'follow_request_sent'
p14
I00
sS'has_extended_profile'
p15
I00
sS'profile_use_background_image'
p16
I00
sS'profile_sidebar_fill_color'
p17
V000000
p18
sS'id'
p19
L3129807446L
sS'verified'
p20
I00
sS'entities'
p21
(dp22
Vurl
p23
(dp24
Vurls
p25
(lp26
(dp27
g23
Vhttp://t.co/7pBYIv50A1
p28
sVindices
p29
(lp30
I0
aI22
asVexpanded_url
p31
Vhttp://www.tipranks.com
p32
sVdisplay_url
p33
Vtipranks.com
p34
sassVdescription
p35
(dp36
g25
(lp37
sssS'profile_image_url_https'
p38
Vhttps://pbs.twimg.com/profile_images/583576965443002369/mhBcmZ6q_normal.jpg
p39
sS'_json'
p40
(dp41
Vfollow_request_sent
p42
I00
sVhas_extended_profile
p43
I00
sVprofile_use_background_image
p44
I00
sVdefault_profile_image
p45
I00
sVid
p46
L3129807446L
sVprofile_background_image_url_https
p47
Vhttps://abs.twimg.com/images/themes/theme1/bg.png
p48
sVverified
p49
I00
sVprofile_text_color
p50
V000000
p51
sVprofile_image_url_https
p52
g39
sVprofile_sidebar_fill_color
p53
g18
sVentities
p54
g22
sVfollowers_count
p55
I196
sVprofile_sidebar_border_color
p56
V000000
p57
sVid_str
p58
V3129807446
p59
sVprofile_background_color
p60
V000000
p61
sVlisted_count
p62
I37
sVstatus
p63
(dp64
Vcontributors
p65
NsVtruncated
p66
I00
sVtext
p67
V5-star analyst Joseph Schwartz from Leerink Swann reiterated a BUY on $BMRN. Joseph has a +24.6% avg rtrn https://t.co/cB4IlH3waF #NASDAQ
p68
sVin_reply_to_status_id
p69
Nsg46
L666400847971135492L
sVfavorite_count
p70
I0
sVsource
p71
V<a href="https://www.tipranks.com" rel="nofollow">TipRanks App</a>
p72
sVretweeted
p73
I00
sVcoordinates
p74
Nsg54
(dp75
Vsymbols
p76
(lp77
(dp78
g29
(lp79
I70
aI75
asg67
VBMRN
p80
sasVuser_mentions
p81
(lp82
sVhashtags
p83
(lp84
(dp85
g29
(lp86
I130
aI137
asg67
VNASDAQ
p87
sasg25
(lp88
(dp89
g23
Vhttps://t.co/cB4IlH3waF
p90
sg29
(lp91
I106
aI129
asg31
Vhttp://goo.gl/SJhnwb
p92
sg33
Vgoo.gl/SJhnwb
p93
sassVin_reply_to_screen_name
p94
Nsg58
V666400847971135492
p95
sVretweet_count
p96
I0
sVin_reply_to_user_id
p97
NsVfavorited
p98
I00
sVgeo
p99
NsVin_reply_to_user_id_str
p100
NsVpossibly_sensitive
p101
I00
sVlang
p102
Ven
p103
sVcreated_at
p104
VMon Nov 16 23:41:57 +0000 2015
p105
sVin_reply_to_status_id_str
p106
NsVplace
p107
NssVis_translation_enabled
p108
I00
sVutc_offset
p109
I7200
sVstatuses_count
p110
I4302
sg35
V
p111
sVfriends_count
p112
I102
sVlocation
p113
g111
sVprofile_link_color
p114
VFFCC4D
p115
sVprofile_image_url
p116
Vhttp://pbs.twimg.com/profile_images/583576965443002369/mhBcmZ6q_normal.jpg
p117
sVfollowing
p118
I00
sVgeo_enabled
p119
I00
sVprofile_banner_url
p120
Vhttps://pbs.twimg.com/profile_banners/3129807446/1427970463
p121
sVprofile_background_image_url
p122
Vhttp://abs.twimg.com/images/themes/theme1/bg.png
p123
sVscreen_name
p124
VTipRanksFeed
p125
sg102
Ven
p126
sVprofile_background_tile
p127
I00
sVfavourites_count
p128
I8
sVname
p129
VTipRanks Live Feed
p130
sVnotifications
p131
I00
sg23
Vhttp://t.co/7pBYIv50A1
p132
sg104
VThu Apr 02 10:07:25 +0000 2015
p133
sVcontributors_enabled
p134
I00
sVtime_zone
p135
VBucharest
p136
sVprotected
p137
I00
sVdefault_profile
p138
I00
sVis_translator
p139
I00
ssS'contributors_enabled'
p140
I00
sS'profile_text_color'
p141
g51
sS'followers_count'
p142
I196
sS'profile_sidebar_border_color'
p143
g57
sS'id_str'
p144
g59
sS'default_profile_image'
p145
I00
sS'listed_count'
p146
I37
sS'status'
p147
g8
(ctweepy.models
Status
p148
g10
Ntp149
Rp150
(dp151
S'favorited'
p152
I00
sS'contributors'
p153
NsS'truncated'
p154
I00
sS'text'
p155
g68
sS'source_url'
p156
Vhttps://www.tipranks.com
p157
sS'possibly_sensitive'
p158
I00
sS'in_reply_to_status_id'
p159
NsS'geo'
p160
Nsg19
L666400847971135492L
sS'favorite_count'
p161
I0
sS'lang'
p162
g103
sg21
g75
sS'created_at'
p163
cdatetime
datetime
p164
(S'\x07\xdf\x0b\x10\x17)9\x00\x00\x00'
p165
tp166
Rp167
sg40
g64
sS'coordinates'
p168
NsS'in_reply_to_user_id_str'
p169
NsS'source'
p170
VTipRanks App
p171
sS'in_reply_to_status_id_str'
p172
NsS'in_reply_to_screen_name'
p173
Nsg144
g95
sS'retweeted'
p174
I00
sS'place'
p175
NsS'retweet_count'
p176
I0
sS'in_reply_to_user_id'
p177
NsbsS'is_translation_enabled'
p178
I00
sS'utc_offset'
p179
I7200
sS'statuses_count'
p180
I4302
sS'description'
p181
g111
sS'friends_count'
p182
I102
sS'location'
p183
g111
sS'profile_link_color'
p184
g115
sS'profile_image_url'
p185
g117
sS'notifications'
p186
I00
sS'geo_enabled'
p187
I00
sS'profile_background_color'
p188
g61
sS'profile_banner_url'
p189
g121
sS'profile_background_image_url'
p190
g123
sS'screen_name'
p191
g125
sg162
g126
sg1
I00
sS'profile_background_tile'
p192
I00
sS'favourites_count'
p193
I8
sS'name'
p194
g130
sS'url'
p195
g132
sg163
g164
(S'\x07\xdf\x04\x02\n\x07\x19\x00\x00\x00'
p196
tp197
Rp198
sS'profile_background_image_url_https'
p199
g48
sS'time_zone'
p200
g136
sS'protected'
p201
I00
sS'default_profile'
p202
I00
sS'is_translator'
p203
I00
sbs.