(dp0
S'following'
p1
(lp2
(lp3
I41458395
aL2396001461L
aI42570063
aL2356714968L
aL2356794445L
aL3538369228L
aI29869163
aI47247213
aL2290523166L
aL3242840227L
aI28164923
aI93294948
aI172023851
aI808650354
aI64405102
aL2846259511L
aI19030439
aI20704858
aL2485698702L
aL3609950717L
aI99147325
aI289311242
aI104531614
aI15246621
aI1138327208
aL2394624246L
aI785935140
aI970576430
aI44366481
aI788333744
aI1966253173
aL2516029806L
aL2495688343L
aL2445064535L
aI52166809
aI27762318
aI250362250
aI1470261637
aI1897992818
aL3718789042L
aI197004838
aI49663664
aI575796665
aI15897179
aL4013010807L
aL3210527171L
aI121902355
aI207617302
aL3817562903L
aL3947918553L
aI1340624978
aI1920881443
aI31546412
aL3730875315L
aI249492195
aI627765164
aL3395170581L
aI30359797
aI459091687
aI42589787
aL2807668160L
aI860037217
aL3349475003L
aL3741164719L
aI21579390
aL3207579226L
aI551440408
aL3331100733L
aI591368817
aL3420574769L
aI1928213371
aI177915812
aI40099128
aI20596865
aI44971011
aI552131179
aI16004376
aI15756049
aI168679374
aL2391736411L
aL2388341281L
aL3184637045L
aI385658781
aI337734005
aI249433795
aL2216333869L
aI1657022528
aL3577886478L
aI169435845
aI32011659
aI1880113279
aI18856867
aI100767876
aI380500399
aL3070819275L
aL3111837451L
aI21232827
aL2318724415L
aL3554107157L
aL3041633301L
aI819743767
aL3760972282L
aI44060322
aI777255126
aL3489736273L
aL2388244850L
aI1616185404
aI244978426
aI250758475
aI338875694
aL2595918914L
aL3382363841L
aI253167239
aL3317324402L
aI14886375
aL3631389317L
aL3177303368L
aI1239871513
aI895615100
aL2796884997L
aI1375860338
aI36359651
aL2967229294L
aI284752134
aL3496498212L
aI22026851
aL2297843024L
aL3148891231L
aI1308403399
aI288980311
aI11247222
aL3379425975L
aL3042237100L
aI1883588876
aI20643806
aI1570843675
aI127967449
aL2772426049L
aI33026200
aI1539164581
aI41386160
aI1618666351
aI373425072
aI234107458
aI24411256
aI317437245
aL2163272683L
aI17893558
aL2314804225L
aI5832212
aI102527566
aI21328656
aL2203439227L
aI1921916148
aI35680069
aL3304424250L
aL3018809793L
aI586325060
aL2203436131L
aL3304114284L
aI843798122
aL2709718838L
aI105491314
aI936560438
aI21318431
aI839896928
aI557503653
aL3135493823L
aI397136529
aL2341525668L
aL3251263934L
aL2940795831L
aasS'followers'
p4
(lp5
(lp6
I593620370
aL2801207309L
aL2830371145L
aI1726255495
aI239055875
aI250362250
aI862105645
aL2396001461L
aL2561751414L
aI93294948
aL2846259511L
aL3609950717L
aI99147325
aI35486742
aL2394624246L
aL3706455741L
aL3417442029L
aL3489736273L
aL2485698702L
aL3924333678L
aI104531614
aL2516029806L
aI52947945
aL2495688343L
aI1897992818
aL3242840227L
aL4013010807L
aL4001537181L
aI970576430
aI1966253173
aI15897179
aL3718789042L
aL3334692641L
aI627765164
aL3395170581L
aI459091687
aI1920881443
aL3420574769L
aL3210527171L
aL2445064535L
aI15756049
aL3184637045L
aL3331100733L
aL3741164719L
aL3349475003L
aI337734005
aL3817562903L
aI249433795
aI552131179
aI32011659
aI860037217
aL3070819275L
aL3041633301L
aL3760972282L
aL3111837451L
aI100767876
aI819743767
aL3577886478L
aL3730875315L
aL3538369228L
aL2314804225L
aI777255126
aL3304114284L
aL3382363841L
aL3554107157L
aL3631389317L
aI895615100
aL3177303368L
aI1375860338
aL2967229294L
aI1308403399
aL2796884997L
aL3042237100L
aL3379425975L
aI1570843675
aI24411256
aI127967449
aI5832212
aL2203439227L
aI1921916148
aI35680069
aL3018809793L
aL3304424250L
aI586325060
aL2203436131L
aI843798122
aL2709718838L
aI105491314
aI936560438
aL3135493823L
aI839896928
aI557503653
aI397136529
aL2341525668L
aL3251263934L
aL2940795831L
aasS'obj'
p7
ccopy_reg
_reconstructor
p8
(ctweepy.models
User
p9
c__builtin__
object
p10
Ntp11
Rp12
(dp13
S'follow_request_sent'
p14
NsS'has_extended_profile'
p15
I00
sS'profile_use_background_image'
p16
I01
sS'profile_sidebar_fill_color'
p17
V000000
p18
sS'id'
p19
L3213629798L
sS'verified'
p20
I00
sS'entities'
p21
(dp22
Vdescription
p23
(dp24
Vurls
p25
(lp26
sssS'profile_image_url_https'
p27
Vhttps://pbs.twimg.com/profile_images/604929848830656512/PSktx_b__normal.jpg
p28
sS'_json'
p29
(dp30
Vfollow_request_sent
p31
NsVhas_extended_profile
p32
I00
sVprofile_use_background_image
p33
I01
sVdefault_profile_image
p34
I00
sVid
p35
L3213629798L
sVprofile_background_image_url_https
p36
Vhttps://pbs.twimg.com/profile_background_images/604929731838902272/t3rod8QR.jpg
p37
sVverified
p38
I00
sVprofile_text_color
p39
V000000
p40
sVprofile_image_url_https
p41
g28
sVprofile_sidebar_fill_color
p42
g18
sVentities
p43
g22
sVfollowers_count
p44
I96
sVprofile_sidebar_border_color
p45
V000000
p46
sVid_str
p47
V3213629798
p48
sVprofile_background_color
p49
V000000
p50
sVlisted_count
p51
I11
sVstatus
p52
(dp53
Vcontributors
p54
NsVtruncated
p55
I00
sVtext
p56
VRT @monestsignalen: nieuwe highs signalen - https://t.co/NLFByadN3v - #aandelen - $ANGI $SZU $EBS
p57
sVin_reply_to_status_id
p58
Nsg35
L666546755559923712L
sVfavorite_count
p59
I0
sVsource
p60
V<a href="http://morningblue.ua" rel="nofollow">MorningBlue</a>
p61
sVretweeted
p62
I00
sVcoordinates
p63
Nsg43
(dp64
Vsymbols
p65
(lp66
(dp67
Vindices
p68
(lp69
I82
aI87
asg56
VANGI
p70
sa(dp71
g68
(lp72
I88
aI92
asg56
VSZU
p73
sa(dp74
g68
(lp75
I93
aI97
asg56
VEBS
p76
sasVuser_mentions
p77
(lp78
(dp79
g35
I414093082
sg68
(lp80
I3
aI18
asg47
V414093082
p81
sVscreen_name
p82
Vmonestsignalen
p83
sVname
p84
VMonest
p85
sasVhashtags
p86
(lp87
(dp88
g68
(lp89
I70
aI79
asg56
Vaandelen
p90
sasg25
(lp91
(dp92
Vurl
p93
Vhttps://t.co/NLFByadN3v
p94
sg68
(lp95
I44
aI67
asVexpanded_url
p96
Vhttp://www.chartmill.com/stockscreener.php?filters=m_us_only%2Cs_nh%2Cv1_50b300&tab=5&p=0&v=9&s=0&ticker=&nt=&timeframe=DAILY&type=CANDLES&o1=3&op1=200&i1=&ip1=&cl=F&months=0&o2=3&op2=50&i2=&ip2=&width=400&o3=1&op3=&i3=&ip3=
p97
sVdisplay_url
p98
Vchartmill.com/stockscreener.\u2026
p99
sassVin_reply_to_screen_name
p100
Nsg47
V666546755559923712
p101
sVretweet_count
p102
I1
sVin_reply_to_user_id
p103
NsVfavorited
p104
I00
sVretweeted_status
p105
(dp106
g54
Nsg55
I00
sg56
Vnieuwe highs signalen - https://t.co/NLFByadN3v - #aandelen - $ANGI $SZU $EBS
p107
sg58
Nsg35
L666261451728928769L
sg59
I0
sg60
V<a href="http://www.monest.net" rel="nofollow">monestsignalen</a>
p108
sg62
I00
sg63
Nsg43
(dp109
g65
(lp110
(dp111
g68
(lp112
I62
aI67
asg56
VANGI
p113
sa(dp114
g68
(lp115
I68
aI72
asg56
VSZU
p116
sa(dp117
g68
(lp118
I73
aI77
asg56
VEBS
p119
sasg77
(lp120
sg86
(lp121
(dp122
g68
(lp123
I50
aI59
asg56
Vaandelen
p124
sasg25
(lp125
(dp126
g93
Vhttps://t.co/NLFByadN3v
p127
sg68
(lp128
I24
aI47
asg96
Vhttp://www.chartmill.com/stockscreener.php?filters=m_us_only%2Cs_nh%2Cv1_50b300&tab=5&p=0&v=9&s=0&ticker=&nt=&timeframe=DAILY&type=CANDLES&o1=3&op1=200&i1=&ip1=&cl=F&months=0&o2=3&op2=50&i2=&ip2=&width=400&o3=1&op3=&i3=&ip3=
p129
sg98
Vchartmill.com/stockscreener.\u2026
p130
sassg100
Nsg47
V666261451728928769
p131
sg102
I1
sg103
Nsg104
I00
sVgeo
p132
NsVin_reply_to_user_id_str
p133
NsVpossibly_sensitive
p134
I00
sVlang
p135
Vde
p136
sVcreated_at
p137
VMon Nov 16 14:28:03 +0000 2015
p138
sVin_reply_to_status_id_str
p139
NsVplace
p140
Nssg132
Nsg133
Nsg134
I00
sg135
Vde
p141
sg137
VTue Nov 17 09:21:45 +0000 2015
p142
sg139
Nsg140
NssVis_translation_enabled
p143
I00
sVutc_offset
p144
I-28800
sVstatuses_count
p145
I557
sg23
V
p146
sVfriends_count
p147
I172
sVlocation
p148
VWestminster
p149
sVprofile_link_color
p150
V000000
p151
sVprofile_image_url
p152
Vhttp://pbs.twimg.com/profile_images/604929848830656512/PSktx_b__normal.jpg
p153
sVfollowing
p154
NsVgeo_enabled
p155
I00
sVprofile_banner_url
p156
Vhttps://pbs.twimg.com/profile_banners/3213629798/1433061512
p157
sVprofile_background_image_url
p158
Vhttp://pbs.twimg.com/profile_background_images/604929731838902272/t3rod8QR.jpg
p159
sg82
Vlaunatoo82
p160
sg135
Ven
p161
sVprofile_background_tile
p162
I00
sVfavourites_count
p163
I0
sg84
VLauren Gibbs
p164
sVnotifications
p165
Nsg93
Nsg137
VSun May 17 16:25:51 +0000 2015
p166
sVcontributors_enabled
p167
I00
sVtime_zone
p168
VPacific Time (US & Canada)
p169
sVprotected
p170
I00
sVdefault_profile
p171
I00
sVis_translator
p172
I00
ssS'contributors_enabled'
p173
I00
sS'profile_text_color'
p174
g40
sS'followers_count'
p175
I96
sS'profile_sidebar_border_color'
p176
g46
sS'id_str'
p177
g48
sS'default_profile_image'
p178
I00
sS'listed_count'
p179
I11
sS'status'
p180
g8
(ctweepy.models
Status
p181
g10
Ntp182
Rp183
(dp184
S'favorited'
p185
I00
sS'contributors'
p186
NsS'truncated'
p187
I00
sS'text'
p188
g57
sS'source_url'
p189
Vhttp://morningblue.ua
p190
sS'possibly_sensitive'
p191
I00
sS'in_reply_to_status_id'
p192
NsS'geo'
p193
Nsg19
L666546755559923712L
sS'favorite_count'
p194
I0
sS'lang'
p195
g141
sS'retweeted_status'
p196
g8
(g181
g10
Ntp197
Rp198
(dp199
g185
I00
sg186
Nsg187
I00
sg188
g107
sg189
Vhttp://www.monest.net
p200
sg191
I00
sg192
Nsg193
Nsg19
L666261451728928769L
sg194
I0
sg195
g136
sg21
g109
sS'created_at'
p201
cdatetime
datetime
p202
(S'\x07\xdf\x0b\x10\x0e\x1c\x03\x00\x00\x00'
p203
tp204
Rp205
sg29
g106
sS'coordinates'
p206
NsS'in_reply_to_user_id_str'
p207
NsS'source'
p208
Vmonestsignalen
p209
sS'in_reply_to_status_id_str'
p210
NsS'in_reply_to_screen_name'
p211
Nsg177
g131
sS'retweeted'
p212
I00
sS'place'
p213
NsS'retweet_count'
p214
I1
sS'in_reply_to_user_id'
p215
Nsbsg21
g64
sg201
g202
(S'\x07\xdf\x0b\x11\t\x15-\x00\x00\x00'
p216
tp217
Rp218
sg29
g53
sg206
Nsg207
Nsg208
VMorningBlue
p219
sg210
Nsg211
Nsg177
g101
sg212
I00
sg213
Nsg214
I1
sg215
NsbsS'is_translation_enabled'
p220
I00
sS'utc_offset'
p221
I-28800
sS'statuses_count'
p222
I557
sS'description'
p223
g146
sS'friends_count'
p224
I172
sS'location'
p225
g149
sS'profile_link_color'
p226
g151
sS'profile_image_url'
p227
g153
sS'notifications'
p228
NsS'geo_enabled'
p229
I00
sS'profile_background_color'
p230
g50
sS'profile_banner_url'
p231
g157
sS'profile_background_image_url'
p232
g159
sS'screen_name'
p233
g160
sg195
g161
sg1
I00
sS'profile_background_tile'
p234
I00
sS'favourites_count'
p235
I0
sS'name'
p236
g164
sS'url'
p237
Nsg201
g202
(S'\x07\xdf\x05\x11\x10\x193\x00\x00\x00'
p238
tp239
Rp240
sS'profile_background_image_url_https'
p241
g37
sS'time_zone'
p242
g169
sS'protected'
p243
I00
sS'default_profile'
p244
I00
sS'is_translator'
p245
I00
sbs.