(dp0
S'following'
p1
(lp2
(lp3
I936560438
aI438352958
aI15812297
aI50185177
aL3180769543L
aI218825479
aI1618666351
aI904810278
aL3801567796L
aL3058848324L
aI113395003
aI26539442
aI581351672
aI77304134
aL3405443625L
aL3148891231L
aL2992414321L
aL3319587413L
aL3382363841L
aL4145520018L
aL4086878235L
aI575796665
aL3959992332L
aL3851465593L
aI19111917
aL3365799910L
aI19565763
aI1308403399
aL2391736411L
aI11247222
aL2868907819L
aL3933025394L
aI10194682
aI100185304
aI450067470
aL2786340877L
aI1430796462
aL4001537181L
aL3623166495L
aL2466373656L
aI44971011
aL2982870212L
aL2595519847L
aI551440408
aI442298073
aI1317807865
aL3947918553L
aI166597717
aI128500019
aI15281391
aI37564410
aL2203436131L
aI403855355
aI20643806
aL3042237100L
aL3947542959L
aI300868924
aL2388341281L
aL2516029806L
aL3401070011L
aI81157050
aI248856369
aI851544830
aI18339274
aL3112014215L
aI17893558
aL2612311915L
aL2346652446L
aI485858312
aI341346597
aI1908222482
aI995324587
aI627765164
aL3754004001L
aI9555372
aI1941253760
aL3658775962L
aI84444981
aI1682397852
aI516980928
aI14886375
aI42077122
aL2778128384L
aI1068920202
aI820379341
aI1040640698
aI1879173900
aI7557352
aL3193539926L
aI15588025
aL3154923455L
aI22522178
aI169435845
aI320276448
aI594069992
aI385658781
aI819738901
aI486494732
aI799122090
aL2319600132L
aI102212196
aL3127432210L
aL2935990297L
aL2906862160L
aI72907355
aL3265002030L
aL3242840227L
aI100767876
aI594080668
aI455824771
aI49663664
aI21277169
aI1098648122
aI44366481
aL2421582940L
aL2181558745L
aL3311988818L
aL2293885094L
aI459091687
aI770904320
aI38053161
aI250362250
aI427877977
aI346174655
aI21579390
aL3184637045L
aI482362854
aI102094857
aI550663732
aI20919875
aI288980311
aL2950905753L
aI25290623
aI486476991
aI75645420
aL3213750129L
aL3296259294L
aI551164356
aI843798122
aI1393603976
aL2864524709L
aL2917398583L
aI127967449
aL3018809793L
aL3272038542L
aI93294948
aL2950107153L
aI1375860338
aL3251263934L
aL2341525668L
aL2607601184L
aasS'followers'
p4
(lp5
(lp6
L4117470616L
aL2801207309L
aL2942255344L
aI224700084
aL3983905634L
aL4162836131L
aL2817966517L
aI15897179
aI113395003
aL2543456155L
aL3180769543L
aL3801567796L
aI26539442
aL2992414321L
aL4145520018L
aL3058848324L
aI15812297
aL3405443625L
aL3365799910L
aL3382363841L
aI936560438
aL3319587413L
aL3184637045L
aL4086878235L
aL3148891231L
aI1308403399
aL3851465593L
aL3933025394L
aL2595519847L
aI100185304
aL2466373656L
aI128500019
aL2203436131L
aL4001537181L
aL3042237100L
aI450067470
aL3401070011L
aI248856369
aL2982870212L
aL2516029806L
aI341346597
aI9555372
aI627765164
aL2612311915L
aL2346652446L
aI84444981
aL3754004001L
aI42077122
aI1682397852
aI1879173900
aL3154923455L
aI102212196
aI819738901
aL2935990297L
aL2906862160L
aI100767876
aL3242840227L
aI459091687
aI346174655
aL2950905753L
aI25290623
aI75645420
aL3213750129L
aI551164356
aL3296259294L
aI843798122
aI1393603976
aL2950107153L
aL3272038542L
aI93294948
aL3018809793L
aL2864524709L
aI127967449
aL2607601184L
aI1375860338
aL2917398583L
aL3251263934L
aL2341525668L
aasS'obj'
p7
ccopy_reg
_reconstructor
p8
(ctweepy.models
User
p9
c__builtin__
object
p10
Ntp11
Rp12
(dp13
S'follow_request_sent'
p14
NsS'has_extended_profile'
p15
I00
sS'profile_use_background_image'
p16
I01
sS'profile_sidebar_fill_color'
p17
VDDEEF6
p18
sS'id'
p19
L3213517728L
sS'verified'
p20
I00
sS'entities'
p21
(dp22
Vdescription
p23
(dp24
Vurls
p25
(lp26
sssS'profile_image_url_https'
p27
Vhttps://pbs.twimg.com/profile_images/604944954952192001/bowaGQi9_normal.jpg
p28
sS'_json'
p29
(dp30
Vfollow_request_sent
p31
NsVhas_extended_profile
p32
I00
sVprofile_use_background_image
p33
I01
sVdefault_profile_image
p34
I00
sVid
p35
L3213517728L
sVprofile_background_image_url_https
p36
Vhttps://abs.twimg.com/images/themes/theme1/bg.png
p37
sVverified
p38
I00
sVprofile_text_color
p39
V333333
p40
sVprofile_image_url_https
p41
g28
sVprofile_sidebar_fill_color
p42
g18
sVentities
p43
g22
sVfollowers_count
p44
I78
sVprofile_sidebar_border_color
p45
VC0DEED
p46
sVid_str
p47
V3213517728
p48
sVprofile_background_color
p49
VC0DEED
p50
sVlisted_count
p51
I5
sVstatus
p52
(dp53
Vcontributors
p54
NsVtruncated
p55
I00
sVtext
p56
VRT @FactTank: Before latest #ParisAttacks , there was high level of concern in Europe about ISIS #DemDebate  https://t.co/ICKxYTGeLQ
p57
sVin_reply_to_status_id
p58
Nsg35
L666301927005806592L
sVfavorite_count
p59
I0
sVsource
p60
V<a href="http://morningblue.ua" rel="nofollow">MorningBlue</a>
p61
sVretweeted
p62
I00
sVcoordinates
p63
Nsg43
(dp64
Vsymbols
p65
(lp66
sVuser_mentions
p67
(lp68
(dp69
g35
I1265726480
sVindices
p70
(lp71
I3
aI12
asg47
V1265726480
p72
sVscreen_name
p73
VFactTank
p74
sVname
p75
VPewResearch FactTank
p76
sasVhashtags
p77
(lp78
(dp79
g70
(lp80
I28
aI41
asg56
VParisAttacks
p81
sa(dp82
g70
(lp83
I97
aI107
asg56
VDemDebate
p84
sasg25
(lp85
(dp86
Vurl
p87
Vhttps://t.co/ICKxYTGeLQ
p88
sg70
(lp89
I109
aI132
asVexpanded_url
p90
Vhttps://twitter.com/pewresearch/status/665557335482327040
p91
sVdisplay_url
p92
Vtwitter.com/pewresearch/st\u2026
p93
sassVin_reply_to_screen_name
p94
Nsg47
V666301927005806592
p95
sVretweet_count
p96
I6
sVin_reply_to_user_id
p97
NsVfavorited
p98
I00
sVretweeted_status
p99
(dp100
g54
Nsg55
I00
sg56
VBefore latest #ParisAttacks , there was high level of concern in Europe about ISIS #DemDebate  https://t.co/ICKxYTGeLQ
p101
sg58
Nsg35
L665672907562098689L
sg59
I2
sg60
V<a href="http://twitter.com/download/iphone" rel="nofollow">Twitter for iPhone</a>
p102
sg62
I00
sg63
Nsg43
(dp103
g65
(lp104
sg67
(lp105
sg77
(lp106
(dp107
g70
(lp108
I14
aI27
asg56
VParisAttacks
p109
sa(dp110
g70
(lp111
I83
aI93
asg56
VDemDebate
p112
sasg25
(lp113
(dp114
g87
Vhttps://t.co/ICKxYTGeLQ
p115
sg70
(lp116
I95
aI118
asg90
Vhttps://twitter.com/pewresearch/status/665557335482327040
p117
sg92
Vtwitter.com/pewresearch/st\u2026
p118
sassg94
Nsg47
V665672907562098689
p119
sg96
I6
sg97
Nsg98
I00
sVgeo
p120
NsVin_reply_to_user_id_str
p121
NsVpossibly_sensitive
p122
I00
sVlang
p123
Ven
p124
sVcreated_at
p125
VSat Nov 14 23:29:23 +0000 2015
p126
sVin_reply_to_status_id_str
p127
NsVplace
p128
Nssg120
Nsg121
Nsg122
I00
sg123
Ven
p129
sg125
VMon Nov 16 17:08:53 +0000 2015
p130
sg127
Nsg128
NssVis_translation_enabled
p131
I00
sVutc_offset
p132
I-28800
sVstatuses_count
p133
I523
sg23
V
p134
sVfriends_count
p135
I151
sVlocation
p136
VNorth Las Vegas
p137
sVprofile_link_color
p138
V0084B4
p139
sVprofile_image_url
p140
Vhttp://pbs.twimg.com/profile_images/604944954952192001/bowaGQi9_normal.jpg
p141
sVfollowing
p142
NsVgeo_enabled
p143
I00
sVprofile_banner_url
p144
Vhttps://pbs.twimg.com/profile_banners/3213517728/1433065114
p145
sVprofile_background_image_url
p146
Vhttp://abs.twimg.com/images/themes/theme1/bg.png
p147
sg73
Vfaubirwa84
p148
sg123
Ven
p149
sVprofile_background_tile
p150
I00
sVfavourites_count
p151
I0
sg75
VCynthia Chandter
p152
sVnotifications
p153
Nsg87
Nsg125
VSun May 17 16:19:15 +0000 2015
p154
sVcontributors_enabled
p155
I00
sVtime_zone
p156
VPacific Time (US & Canada)
p157
sVprotected
p158
I00
sVdefault_profile
p159
I01
sVis_translator
p160
I00
ssS'contributors_enabled'
p161
I00
sS'profile_text_color'
p162
g40
sS'followers_count'
p163
I78
sS'profile_sidebar_border_color'
p164
g46
sS'id_str'
p165
g48
sS'default_profile_image'
p166
I00
sS'listed_count'
p167
I5
sS'status'
p168
g8
(ctweepy.models
Status
p169
g10
Ntp170
Rp171
(dp172
S'favorited'
p173
I00
sS'contributors'
p174
NsS'truncated'
p175
I00
sS'text'
p176
g57
sS'source_url'
p177
Vhttp://morningblue.ua
p178
sS'possibly_sensitive'
p179
I00
sS'in_reply_to_status_id'
p180
NsS'geo'
p181
Nsg19
L666301927005806592L
sS'favorite_count'
p182
I0
sS'lang'
p183
g129
sS'retweeted_status'
p184
g8
(g169
g10
Ntp185
Rp186
(dp187
g173
I00
sg174
Nsg175
I00
sg176
g101
sg177
Vhttp://twitter.com/download/iphone
p188
sg179
I00
sg180
Nsg181
Nsg19
L665672907562098689L
sg182
I2
sg183
g124
sg21
g103
sS'created_at'
p189
cdatetime
datetime
p190
(S'\x07\xdf\x0b\x0e\x17\x1d\x17\x00\x00\x00'
p191
tp192
Rp193
sg29
g100
sS'coordinates'
p194
NsS'in_reply_to_user_id_str'
p195
NsS'source'
p196
VTwitter for iPhone
p197
sS'in_reply_to_status_id_str'
p198
NsS'in_reply_to_screen_name'
p199
Nsg165
g119
sS'retweeted'
p200
I00
sS'place'
p201
NsS'retweet_count'
p202
I6
sS'in_reply_to_user_id'
p203
Nsbsg21
g64
sg189
g190
(S'\x07\xdf\x0b\x10\x11\x085\x00\x00\x00'
p204
tp205
Rp206
sg29
g53
sg194
Nsg195
Nsg196
VMorningBlue
p207
sg198
Nsg199
Nsg165
g95
sg200
I00
sg201
Nsg202
I6
sg203
NsbsS'is_translation_enabled'
p208
I00
sS'utc_offset'
p209
I-28800
sS'statuses_count'
p210
I523
sS'description'
p211
g134
sS'friends_count'
p212
I151
sS'location'
p213
g137
sS'profile_link_color'
p214
g139
sS'profile_image_url'
p215
g141
sS'notifications'
p216
NsS'geo_enabled'
p217
I00
sS'profile_background_color'
p218
g50
sS'profile_banner_url'
p219
g145
sS'profile_background_image_url'
p220
g147
sS'screen_name'
p221
g148
sg183
g149
sg1
I00
sS'profile_background_tile'
p222
I00
sS'favourites_count'
p223
I0
sS'name'
p224
g152
sS'url'
p225
Nsg189
g190
(S'\x07\xdf\x05\x11\x10\x13\x0f\x00\x00\x00'
p226
tp227
Rp228
sS'profile_background_image_url_https'
p229
g37
sS'time_zone'
p230
g157
sS'protected'
p231
I00
sS'default_profile'
p232
I01
sS'is_translator'
p233
I00
sbs.