(dp0
S'following'
p1
(lp2
(lp3
L2394624246L
aL2906439339L
aI250317700
aI288980311
aL3017654325L
aI455824771
aL4009414738L
aL3920279115L
aL3193539926L
aI121902355
aI22522178
aL3058848324L
aI23756134
aI44060322
aI28164923
aL3930695903L
aI24227424
aI775319148
aL3018809793L
aI29557958
aL4045760789L
aL2314804225L
aL3118084756L
aL3942969958L
aI416311594
aL4045983443L
aI1023436759
aL4040670143L
aL2980440963L
aL2448524059L
aL3242840227L
aL3946770635L
aL3018847436L
aI139373116
aL2203735422L
aI23898700
aL2860845668L
aL2551992944L
aL3148891231L
aI37798990
aI1470261637
aL3165625278L
aL2950028089L
aI1317807865
aL2906862160L
aL3947918553L
aI93294948
aL2939506175L
aL2780766853L
aI1673739764
aI552127175
aI482362854
aI794921328
aI1911169130
aL3881141363L
aI14115408
aI11247222
aI127967449
aI197004838
aL3408686403L
aI254207829
aL3210776242L
aI66975479
aL2967229294L
aI14297693
aL2272207286L
aI801218796
aI375980238
aI59603406
aI56745215
aI425870454
aL3487921454L
aL3694155012L
aI797955145
aI1657022528
aI100185304
aL3362388111L
aL2804263123L
aI1583359764
aL2203439227L
aI15935591
aL2850985542L
aL2318724415L
aI59853587
aI62562916
aI1473563539
aI21775637
aI1935513416
aI289311242
aL3382363841L
aI904810278
aI94443941
aL2607601184L
aL3111837451L
aI253167239
aI25448539
aL3318157345L
aL3644329873L
aI193838214
aI1068920202
aL2803613749L
aL2495139440L
aL3184637045L
aI1966253173
aI100767876
aI17473062
aI57565955
aL3623166495L
aI714790766
aL2341147554L
aL2341525668L
aL2828756106L
aL3135493823L
aL3389088551L
aI96682182
aI1928213371
aI237591901
aI21437626
aI443918542
aL2297843024L
aL3401070011L
aI226637533
aL3311988818L
aL3154923455L
aI132692120
aI1393603976
aI43111757
aL3585324615L
aI234107458
aI7557352
aI218825479
aL3072941365L
aL3305558623L
aI30359797
aI788333744
aL2992414321L
aI19564105
aI203652149
aL3063418949L
aI966726223
aI1268126736
aI626840066
aI378376311
aL2461907034L
aL3008971965L
aL2203746163L
aI24411256
aL2950107153L
aL2828573041L
aL2917398583L
aI1375860338
aI402876893
aasS'followers'
p4
(lp5
(lp6
I224700084
aL3395170581L
aL2286097290L
aI552090046
aI486468358
aI548966480
aL2203715713L
aL2516029806L
aL3920279115L
aL3058848324L
aL4009414738L
aL3138397321L
aI250317700
aL2314804225L
aL4086878235L
aL3405443625L
aL2344531388L
aL4045983443L
aL2394624246L
aL4040670143L
aL2906439339L
aL2980440963L
aL3118084756L
aL2203735422L
aL3242840227L
aI139373116
aL3930695903L
aL3018809793L
aL2906862160L
aL3942969958L
aL3165625278L
aL2860845668L
aI794921328
aI93294948
aL2780766853L
aI37798990
aL3881141363L
aL2551992944L
aL2967229294L
aL3210776242L
aI127967449
aI56745215
aL3487921454L
aL2804263123L
aI1583359764
aL3362388111L
aL2203439227L
aI21775637
aL3694155012L
aL2607601184L
aL3382363841L
aL3111837451L
aL3408686403L
aL3644329873L
aL2803613749L
aL2495139440L
aI1966253173
aL3318157345L
aL3184637045L
aI100767876
aL2341525668L
aL3135493823L
aL2828756106L
aI57565955
aI21437626
aI226637533
aL3401070011L
aI132692120
aL3154923455L
aL3585324615L
aL3072941365L
aI43111757
aI1393603976
aL3305558623L
aL2992414321L
aL3063418949L
aI1268126736
aI378376311
aL2461907034L
aL3008971965L
aL2203746163L
aI24411256
aL2828573041L
aL2950107153L
aI1375860338
aL2917398583L
aI402876893
aasS'obj'
p7
ccopy_reg
_reconstructor
p8
(ctweepy.models
User
p9
c__builtin__
object
p10
Ntp11
Rp12
(dp13
S'follow_request_sent'
p14
I00
sS'has_extended_profile'
p15
I00
sS'profile_use_background_image'
p16
I01
sS'profile_sidebar_fill_color'
p17
VDDEEF6
p18
sS'id'
p19
L3213604627L
sS'verified'
p20
I00
sS'entities'
p21
(dp22
Vdescription
p23
(dp24
Vurls
p25
(lp26
sssS'profile_image_url_https'
p27
Vhttps://pbs.twimg.com/profile_images/604909388613201921/cd2k62Hx_normal.jpg
p28
sS'_json'
p29
(dp30
Vfollow_request_sent
p31
I00
sVhas_extended_profile
p32
I00
sVprofile_use_background_image
p33
I01
sVdefault_profile_image
p34
I00
sVid
p35
L3213604627L
sVprofile_background_image_url_https
p36
Vhttps://abs.twimg.com/images/themes/theme1/bg.png
p37
sVverified
p38
I00
sVprofile_text_color
p39
V333333
p40
sVprofile_image_url_https
p41
g28
sVprofile_sidebar_fill_color
p42
g18
sVentities
p43
g22
sVfollowers_count
p44
I87
sVprofile_sidebar_border_color
p45
VC0DEED
p46
sVid_str
p47
V3213604627
p48
sVprofile_background_color
p49
VC0DEED
p50
sVlisted_count
p51
I12
sVstatus
p52
(dp53
Vcontributors
p54
NsVtruncated
p55
I00
sVtext
p56
VRT @OpenOutcrier: RECAP 11/16 Chatter Names:\u000a$AMBA - Rejct $71 unnamed Co's bid\u000a$CELG - Patent win vs Kyle Bass\u000a$WHR - Pos AHAM data
p57
sVin_reply_to_status_id
p58
Nsg35
L666585760238313473L
sVfavorite_count
p59
I0
sVsource
p60
V<a href="http://morningblue.ua" rel="nofollow">MorningBlue</a>
p61
sVretweeted
p62
I00
sVcoordinates
p63
Nsg43
(dp64
Vsymbols
p65
(lp66
(dp67
Vindices
p68
(lp69
I45
aI50
asg56
VAMBA
p70
sa(dp71
g68
(lp72
I80
aI85
asg56
VCELG
p73
sa(dp74
g68
(lp75
I112
aI116
asg56
VWHR
p76
sasVuser_mentions
p77
(lp78
(dp79
g35
L2334614718L
sg68
(lp80
I3
aI16
asg47
V2334614718
p81
sVscreen_name
p82
VOpenOutcrier
p83
sVname
p84
VOpen Outcrier
p85
sasVhashtags
p86
(lp87
sg25
(lp88
ssVin_reply_to_screen_name
p89
Nsg47
V666585760238313473
p90
sVretweet_count
p91
I2
sVin_reply_to_user_id
p92
NsVfavorited
p93
I00
sVretweeted_status
p94
(dp95
Vlang
p96
Ven
p97
sg93
I00
sg43
(dp98
g65
(lp99
(dp100
g68
(lp101
I27
aI32
asg56
VAMBA
p102
sa(dp103
g68
(lp104
I62
aI67
asg56
VCELG
p105
sa(dp106
g68
(lp107
I94
aI98
asg56
VWHR
p108
sasg77
(lp109
sg86
(lp110
sg25
(lp111
ssg54
Nsg55
I00
sg56
VRECAP 11/16 Chatter Names:\u000a$AMBA - Rejct $71 unnamed Co's bid\u000a$CELG - Patent win vs Kyle Bass\u000a$WHR - Pos AHAM data
p112
sVcreated_at
p113
VMon Nov 16 21:05:40 +0000 2015
p114
sg62
I00
sVin_reply_to_status_id_str
p115
Nsg63
NsVin_reply_to_user_id_str
p116
Nsg60
V<a href="http://stocktwits.com" rel="nofollow">StockTwits Web</a>
p117
sg58
Nsg89
Nsg47
V666361514882764800
p118
sVplace
p119
Nsg91
I2
sVgeo
p120
Nsg35
L666361514882764800L
sg59
I1
sg92
Nssg120
Nsg116
Nsg96
Ven
p121
sg113
VTue Nov 17 11:56:44 +0000 2015
p122
sg115
Nsg119
NssVis_translation_enabled
p123
I00
sVutc_offset
p124
I-28800
sVstatuses_count
p125
I518
sg23
V
p126
sVfriends_count
p127
I152
sVlocation
p128
VDayton
p129
sVprofile_link_color
p130
V0084B4
p131
sVprofile_image_url
p132
Vhttp://pbs.twimg.com/profile_images/604909388613201921/cd2k62Hx_normal.jpg
p133
sVfollowing
p134
I00
sVgeo_enabled
p135
I00
sVprofile_banner_url
p136
Vhttps://pbs.twimg.com/profile_banners/3213604627/1433056634
p137
sVprofile_background_image_url
p138
Vhttp://abs.twimg.com/images/themes/theme1/bg.png
p139
sg82
Vnonnosol86
p140
sg96
Ven
p141
sVprofile_background_tile
p142
I00
sVfavourites_count
p143
I0
sg84
VRuth Anderson
p144
sVnotifications
p145
I00
sVurl
p146
Nsg113
VSun May 17 16:19:18 +0000 2015
p147
sVcontributors_enabled
p148
I00
sVtime_zone
p149
VPacific Time (US & Canada)
p150
sVprotected
p151
I00
sVdefault_profile
p152
I01
sVis_translator
p153
I00
ssS'contributors_enabled'
p154
I00
sS'profile_text_color'
p155
g40
sS'followers_count'
p156
I87
sS'profile_sidebar_border_color'
p157
g46
sS'id_str'
p158
g48
sS'default_profile_image'
p159
I00
sS'listed_count'
p160
I12
sS'status'
p161
g8
(ctweepy.models
Status
p162
g10
Ntp163
Rp164
(dp165
S'favorited'
p166
I00
sS'contributors'
p167
NsS'truncated'
p168
I00
sS'text'
p169
VRT @OpenOutcrier: RECAP 11/16 Chatter Names:\u000a$AMBA - Rejct $71 unnamed Co's bid\u000a$CELG - Patent win vs Kyle Bass\u000a$WHR - Pos AHAM data
p170
sS'source_url'
p171
Vhttp://morningblue.ua
p172
sS'in_reply_to_status_id'
p173
NsS'geo'
p174
Nsg19
L666585760238313473L
sS'favorite_count'
p175
I0
sS'lang'
p176
g121
sS'retweeted_status'
p177
g8
(g162
g10
Ntp178
Rp179
(dp180
g166
I00
sg167
Nsg168
I00
sg169
VRECAP 11/16 Chatter Names:\u000a$AMBA - Rejct $71 unnamed Co's bid\u000a$CELG - Patent win vs Kyle Bass\u000a$WHR - Pos AHAM data
p181
sg171
Vhttp://stocktwits.com
p182
sg173
Nsg174
Nsg19
L666361514882764800L
sg175
I1
sg176
g97
sg21
g98
sS'created_at'
p183
cdatetime
datetime
p184
(S'\x07\xdf\x0b\x10\x15\x05(\x00\x00\x00'
p185
tp186
Rp187
sg29
g95
sS'coordinates'
p188
NsS'in_reply_to_user_id_str'
p189
NsS'source'
p190
VStockTwits Web
p191
sS'in_reply_to_status_id_str'
p192
NsS'in_reply_to_screen_name'
p193
Nsg158
g118
sS'retweeted'
p194
I00
sS'place'
p195
NsS'retweet_count'
p196
I2
sS'in_reply_to_user_id'
p197
Nsbsg21
g64
sg183
g184
(S'\x07\xdf\x0b\x11\x0b8,\x00\x00\x00'
p198
tp199
Rp200
sg29
g53
sg188
Nsg189
Nsg190
VMorningBlue
p201
sg192
Nsg193
Nsg158
g90
sg194
I00
sg195
Nsg196
I2
sg197
NsbsS'is_translation_enabled'
p202
I00
sS'utc_offset'
p203
I-28800
sS'statuses_count'
p204
I518
sS'description'
p205
g126
sS'friends_count'
p206
I152
sS'location'
p207
g129
sS'profile_link_color'
p208
g131
sS'profile_image_url'
p209
g133
sS'notifications'
p210
I00
sS'geo_enabled'
p211
I00
sS'profile_background_color'
p212
g50
sS'profile_banner_url'
p213
g137
sS'profile_background_image_url'
p214
g139
sS'screen_name'
p215
g140
sg176
g141
sg1
I00
sS'profile_background_tile'
p216
I00
sS'favourites_count'
p217
I0
sS'name'
p218
g144
sS'url'
p219
Nsg183
g184
(S'\x07\xdf\x05\x11\x10\x13\x12\x00\x00\x00'
p220
tp221
Rp222
sS'profile_background_image_url_https'
p223
g37
sS'time_zone'
p224
g150
sS'protected'
p225
I00
sS'default_profile'
p226
I01
sS'is_translator'
p227
I00
sbs.