(dp0
S'following'
p1
(lp2
(lp3
I18034541
aI59603406
aI44060322
aI1767582776
aL2356714968L
aI313335112
aI514835972
aI301499991
aI479330647
aI302274646
aL2203735422L
aL3851465593L
aI168679374
aI1928213371
aI24227424
aI526601733
aI197004838
aI373425072
aL2318724415L
aL2319600132L
aL3127432210L
aI575796665
aI581388367
aI140912249
aI906797108
aL2903311992L
aI120743106
aI100185304
aL2890616938L
aL3718789042L
aI627765164
aL3420574769L
aI37564410
aL2980440963L
aI733717446
aI904810278
aI581351672
aL2950028089L
aI438352958
aL2203436131L
aL2762984090L
aI454938408
aL2394624246L
aI48486244
aL3210527171L
aL3246752411L
aI250317700
aI1935513416
aI108937359
aI19565763
aI132408673
aL3944877897L
aI18856867
aI284752134
aL3946770635L
aI96682182
aL3947333397L
aL2778901544L
aI65392182
aI19111917
aI229143589
aI19148239
aI417727024
aL3523418834L
aL2860845668L
aL2297843024L
aL3395170581L
aI602039028
aI516980928
aL3064058954L
aI1138327208
aI1152017694
aL2216333869L
aI311129718
aL2448524059L
aI60804967
aI121902355
aI565969885
aI105353526
aI20596865
aL3386531654L
aI552154783
aL2388244850L
aL2957721364L
aI586734515
aI84444981
aI22026851
aL3148891231L
aL3165625278L
aI102527566
aI111216907
aL2482618160L
aI119737561
aI936560438
aI41386160
aI76511168
aI42570063
aI1040640698
aI28164923
aI23249152
aL2551992944L
aI502178335
aI259063855
aI25882361
aL2278259810L
aL3108417284L
aL2314804225L
aI770904320
aI22298549
aI15246621
aI1883588876
aL2817966517L
aL3135493823L
aI184881902
aL3154923455L
aI552134921
aI1911096336
aI775319148
aI1317807865
aI250758475
aL2607663110L
aI542882615
aI482362854
aL2981421573L
aI148268103
aI462459744
aL2971190266L
aI385658781
aI246585278
aI393513440
aI261705971
aI27762318
aL2906862160L
aL2967229294L
aI17893558
aI385337150
aI44971011
aI1673739764
aL3652602020L
aI21437626
aI177239631
aI1245945896
aI1941253760
aI1020081481
aI284381441
aL2964459628L
aL2341147554L
aI1657022528
aI28571999
aL3318157345L
aL2920387440L
aI250362250
aI133483902
aL3425010886L
aI1616185404
aI244978426
aL2973648143L
aI331614004
aI820379341
aI270484039
aI15281391
aL2824057875L
aI29557958
aL2704486915L
aL3346088079L
aI1185492330
aI75176765
aL3611390596L
aL3401070011L
aI40129171
aI300868924
aI74104397
aI989677742
aI23390520
aI102094857
aI33026200
aI338875694
aL2461907034L
aI1690759518
aL2203746163L
aI82711419
aI455824771
aL2361288673L
aL2313837474L
aI42589787
aI19030439
aL3375961865L
aI1340624978
aI262144590
aL3374398697L
aI314061974
aI906938905
aL2828756106L
aI31420598
aI14115408
aL3278885293L
aI1581436002
aL3319893245L
aL2885532683L
aL2856121255L
aL3042173895L
aL2477933330L
aI1639467482
aL3253847058L
aL2487008209L
aL3242840227L
aL2305708183L
aL3103035807L
aL2172423304L
aI494494595
aL3184637045L
aL3202257059L
aL2784050398L
aL3177303368L
aL3237921639L
aL2203736545L
aL3018809793L
aL2679629046L
aL3220589454L
aI127967449
aL3280825890L
aI1393603976
aI1705766478
aL2516029806L
aL3019144513L
aI93294948
aL2341525668L
aI629573379
aL2149877280L
aasS'followers'
p4
(lp5
(lp6
L2249407669L
aI1948670006
aI224700084
aL3095436401L
aI552087109
aI486106100
aL3984063860L
aI869939479
aL3142984964L
aL3063418949L
aL4149856513L
aL2203736545L
aI48233377
aI526601733
aI1966253173
aI1176840246
aL2203735422L
aI581388367
aL3851465593L
aL3405443625L
aL2890616938L
aL2314804225L
aL3420574769L
aI627765164
aL2394624246L
aI100185304
aI250362250
aI48486244
aL2203436131L
aL3210527171L
aI108937359
aL3718789042L
aI65392182
aL2860845668L
aL3395170581L
aL3064058954L
aI250317700
aI15812297
aI311129718
aL3523418834L
aL2957721364L
aI60804967
aI84444981
aL3386531654L
aL3165625278L
aI111216907
aL2482618160L
aI119737561
aL2551992944L
aI936560438
aI25882361
aI259063855
aL3154923455L
aI552134921
aL3135493823L
aL2817966517L
aI148268103
aI462459744
aL3652602020L
aI1020081481
aI21437626
aL2906862160L
aI393513440
aL2971190266L
aL3318157345L
aL2920387440L
aL3425010886L
aL3611390596L
aL3401070011L
aL2704486915L
aI75176765
aL2203746163L
aI238055176
aI1185492330
aL3375961865L
aL3278885293L
aL3374398697L
aL2828756106L
aL3319893245L
aL2885532683L
aL3042173895L
aL2856121255L
aL2477933330L
aI1639467482
aL3253847058L
aL2487008209L
aL3242840227L
aL2305708183L
aL2172423304L
aL3103035807L
aL3177303368L
aL3184637045L
aL3237921639L
aL3280825890L
aI1705766478
aL2784050398L
aI1393603976
aI127967449
aL3220589454L
aL2679629046L
aL3202257059L
aI93294948
aL2341525668L
aL2516029806L
aL2149877280L
aI629573379
aL3018809793L
aasS'obj'
p7
ccopy_reg
_reconstructor
p8
(ctweepy.models
User
p9
c__builtin__
object
p10
Ntp11
Rp12
(dp13
S'follow_request_sent'
p14
I00
sS'has_extended_profile'
p15
I00
sS'profile_use_background_image'
p16
I01
sS'profile_sidebar_fill_color'
p17
VDDEEF6
p18
sS'id'
p19
L3213495756L
sS'verified'
p20
I00
sS'entities'
p21
(dp22
Vdescription
p23
(dp24
Vurls
p25
(lp26
sssS'profile_image_url_https'
p27
Vhttps://pbs.twimg.com/profile_images/605016935747727360/WA8L9Vsr_normal.jpg
p28
sS'_json'
p29
(dp30
Vfollow_request_sent
p31
I00
sVhas_extended_profile
p32
I00
sVprofile_use_background_image
p33
I01
sVdefault_profile_image
p34
I00
sVid
p35
L3213495756L
sVprofile_background_image_url_https
p36
Vhttps://abs.twimg.com/images/themes/theme1/bg.png
p37
sVverified
p38
I00
sVprofile_text_color
p39
V333333
p40
sVprofile_image_url_https
p41
g28
sVprofile_sidebar_fill_color
p42
g18
sVentities
p43
g22
sVfollowers_count
p44
I107
sVprofile_sidebar_border_color
p45
VC0DEED
p46
sVid_str
p47
V3213495756
p48
sVprofile_background_color
p49
VC0DEED
p50
sVlisted_count
p51
I8
sVstatus
p52
(dp53
Vcontributors
p54
NsVtruncated
p55
I00
sVtext
p56
Vhttps://t.co/0P5LWr5LYN Nordstrom Crushed After Q3 Miss, Lowered Guidance
p57
sVin_reply_to_status_id
p58
Nsg35
L666389247964946433L
sVfavorite_count
p59
I0
sVsource
p60
V<a href="http://morningblue.ua" rel="nofollow">MorningBlue</a>
p61
sVretweeted
p62
I00
sVcoordinates
p63
Nsg43
(dp64
Vsymbols
p65
(lp66
sVuser_mentions
p67
(lp68
sVhashtags
p69
(lp70
sg25
(lp71
(dp72
Vurl
p73
Vhttps://t.co/0P5LWr5LYN
p74
sVindices
p75
(lp76
I0
aI23
asVexpanded_url
p77
Vhttp://bit.ly/1SUm5Ky
p78
sVdisplay_url
p79
Vbit.ly/1SUm5Ky
p80
sassVin_reply_to_screen_name
p81
Nsg47
V666389247964946433
p82
sVretweet_count
p83
I0
sVin_reply_to_user_id
p84
NsVfavorited
p85
I00
sVgeo
p86
NsVin_reply_to_user_id_str
p87
NsVpossibly_sensitive
p88
I00
sVlang
p89
Ven
p90
sVcreated_at
p91
VMon Nov 16 22:55:52 +0000 2015
p92
sVin_reply_to_status_id_str
p93
NsVplace
p94
NssVis_translation_enabled
p95
I00
sVutc_offset
p96
I-28800
sVstatuses_count
p97
I809
sg23
V
p98
sVfriends_count
p99
I229
sVlocation
p100
VAugusta
p101
sVprofile_link_color
p102
V0084B4
p103
sVprofile_image_url
p104
Vhttp://pbs.twimg.com/profile_images/605016935747727360/WA8L9Vsr_normal.jpg
p105
sVfollowing
p106
I00
sVgeo_enabled
p107
I00
sVprofile_banner_url
p108
Vhttps://pbs.twimg.com/profile_banners/3213495756/1433082276
p109
sVprofile_background_image_url
p110
Vhttp://abs.twimg.com/images/themes/theme1/bg.png
p111
sVscreen_name
p112
Vhanklute88
p113
sg89
Ven
p114
sVprofile_background_tile
p115
I00
sVfavourites_count
p116
I0
sVname
p117
VLucy Donovan
p118
sVnotifications
p119
I00
sg73
Nsg91
VSun May 17 16:17:04 +0000 2015
p120
sVcontributors_enabled
p121
I00
sVtime_zone
p122
VPacific Time (US & Canada)
p123
sVprotected
p124
I00
sVdefault_profile
p125
I01
sVis_translator
p126
I00
ssS'contributors_enabled'
p127
I00
sS'profile_text_color'
p128
g40
sS'followers_count'
p129
I107
sS'profile_sidebar_border_color'
p130
g46
sS'id_str'
p131
g48
sS'default_profile_image'
p132
I00
sS'listed_count'
p133
I8
sS'status'
p134
g8
(ctweepy.models
Status
p135
g10
Ntp136
Rp137
(dp138
S'favorited'
p139
I00
sS'contributors'
p140
NsS'truncated'
p141
I00
sS'text'
p142
g57
sS'source_url'
p143
Vhttp://morningblue.ua
p144
sS'possibly_sensitive'
p145
I00
sS'in_reply_to_status_id'
p146
NsS'geo'
p147
Nsg19
L666389247964946433L
sS'favorite_count'
p148
I0
sS'lang'
p149
g90
sg21
g64
sS'created_at'
p150
cdatetime
datetime
p151
(S'\x07\xdf\x0b\x10\x1674\x00\x00\x00'
p152
tp153
Rp154
sg29
g53
sS'coordinates'
p155
NsS'in_reply_to_user_id_str'
p156
NsS'source'
p157
VMorningBlue
p158
sS'in_reply_to_status_id_str'
p159
NsS'in_reply_to_screen_name'
p160
Nsg131
g82
sS'retweeted'
p161
I00
sS'place'
p162
NsS'retweet_count'
p163
I0
sS'in_reply_to_user_id'
p164
NsbsS'is_translation_enabled'
p165
I00
sS'utc_offset'
p166
I-28800
sS'statuses_count'
p167
I809
sS'description'
p168
g98
sS'friends_count'
p169
I229
sS'location'
p170
g101
sS'profile_link_color'
p171
g103
sS'profile_image_url'
p172
g105
sS'notifications'
p173
I00
sS'geo_enabled'
p174
I00
sS'profile_background_color'
p175
g50
sS'profile_banner_url'
p176
g109
sS'profile_background_image_url'
p177
g111
sS'screen_name'
p178
g113
sg149
g114
sg1
I00
sS'profile_background_tile'
p179
I00
sS'favourites_count'
p180
I0
sS'name'
p181
g118
sS'url'
p182
Nsg150
g151
(S'\x07\xdf\x05\x11\x10\x11\x04\x00\x00\x00'
p183
tp184
Rp185
sS'profile_background_image_url_https'
p186
g37
sS'time_zone'
p187
g123
sS'protected'
p188
I00
sS'default_profile'
p189
I01
sS'is_translator'
p190
I00
sbs.