(dp0
S'following'
p1
(lp2
(lp3
L4083717866L
aL3242158281L
aI380500399
aL2595918914L
aI10194682
aL2796884997L
aI84444981
aI26705006
aI770904320
aI207617302
aI955733059
aI80864710
aL3378940179L
aL3956621303L
aI29557958
aI21277169
aL2838794376L
aI1068920202
aI15588025
aL2746667072L
aI290845737
aI30818980
aL3264681706L
aI77304134
aL3150723485L
aI360685668
aI169435845
aI331614004
aI394642779
aI23756134
aL3241889448L
aL2313837474L
aI417727024
aI1370308412
aL3127432210L
aL2172423304L
aL2470472743L
aI289745762
aI229531396
aI17893558
aI1689434408
aI14216123
aI545618159
aI23059499
aI209907837
aL2513031072L
aI444251529
aL3995867787L
aI1353676495
aI100185304
aI531525580
aI128500019
aI218825479
aI61216389
aL2516029806L
aI284752134
aI109200080
aI271211220
aI317437245
aI49663664
aI1239871513
aI47247213
aI23390520
aL2388244850L
aL2802272246L
aI44060322
aI785935140
aI193838214
aL2178105128L
aL2939506175L
aI1487283486
aL3245121736L
aI989657845
aI139373116
aL2448524059L
aI246585278
aL2566109172L
aL2992414321L
aL2383717754L
aL2607663110L
aL3017654325L
aL3332894013L
aL2804263123L
aI36973999
aI1433652877
aL3063418949L
aI482364710
aI250317700
aI22026851
aI314061974
aL2280064627L
aI29869163
aI51912109
aI28164923
aI195624823
aI284381441
aI427877977
aI543821149
aL2201951496L
aI100767876
aL3401070011L
aL3140096339L
aI15246621
aI234107458
aI788333744
aL2159322464L
aL3523375760L
aI121902355
aL2394624246L
aI224195814
aI177239631
aI17473062
aI1152017694
aL2683677198L
aI797951593
aI1092305288
aI408136428
aI1340624978
aI470182458
aI37555599
aL2520719083L
aI301499991
aI626840066
aI112872946
aL2906862160L
aL2950028089L
aL2786340877L
aI1705766478
aI99147325
aL3425064599L
aI49620233
aI989660850
aI15812297
aI36359651
aL3305558623L
aI593620370
aI551532933
aI254207829
aI93294948
aI389157954
aI300868924
aI16595597
aI1971483774
aI1064700308
aI497111906
aI40099128
aI203652149
aL3019912390L
aI113084080
aL2748944294L
aI14115408
aI375980238
aL3642912316L
aL2607477037L
aI373425072
aL2964459628L
aI297029706
aL2305647614L
aI820379341
aI866710699
aL2294728376L
aI1577160728
aI455824771
aL2999168682L
aL3324915662L
aL2754352477L
aI76511168
aI40898910
aI133483902
aL2468815652L
aL3144040043L
aI543751139
aI403855355
aI1228537610
aL3193539926L
aI82162291
aL2950107153L
aL2163272683L
aI110793585
aI250758475
aL3213750129L
aI18308026
aL3311988818L
aI45415894
aL3147246544L
aL3070838502L
aL2828756106L
aI1873589498
aL3042173895L
aL2842349595L
aI843798122
aL3242840227L
aI14407813
aL3304114284L
aL3341405181L
aL2709718838L
aI1343120126
aL3317379653L
aI60478078
aL3135493823L
aL3331100733L
aI1388015383
aL2341525668L
aI51472152
aL2149877280L
aasS'followers'
p4
(lp5
(lp6
L3288159911L
aL4179216927L
aL3983792294L
aI1861663298
aL2796884997L
aL4083717866L
aL3242158281L
aI341346597
aL3920279115L
aL3378940179L
aL4127481087L
aL3360629141L
aL2905445482L
aL4009414738L
aI26705006
aI47133303
aL3920363243L
aL3150723485L
aL3264681706L
aL3405443625L
aI260474791
aL4045983443L
aL4040670143L
aI1370308412
aI1455079130
aI1375860338
aI48233377
aI1920881443
aI290845737
aL2838794376L
aI100185304
aI128500019
aL3724579232L
aL3395170581L
aI284752134
aI42912883
aL3995867787L
aL2172423304L
aL3981708033L
aI531525580
aI1353676495
aI109200080
aL3305637540L
aI1487283486
aI1379923512
aL2516029806L
aI139373116
aL2802272246L
aL2992414321L
aL3063418949L
aL3241889448L
aL2566109172L
aL2804263123L
aL3245121736L
aL2280064627L
aL3140096339L
aL2201951496L
aL3401070011L
aL2394624246L
aI250317700
aI224195814
aL2159322464L
aI1064700308
aI100767876
aI1705766478
aI1092305288
aL3523375760L
aL2906862160L
aL2383717754L
aL3305558623L
aI989660850
aL3425064599L
aI15812297
aI99147325
aI93294948
aL2754352477L
aI113084080
aL3019912390L
aL3304114284L
aL2748944294L
aL3642912316L
aI1577160728
aL2305647614L
aI866710699
aL3144040043L
aL2999168682L
aI543751139
aL2950107153L
aL3324915662L
aI18308026
aL3213750129L
aL3147246544L
aL3070838502L
aL2828756106L
aL3042173895L
aI843798122
aL3242840227L
aI14407813
aL2709718838L
aL3341405181L
aL3317379653L
aL3135493823L
aL3331100733L
aI51472152
aL2341525668L
aL2149877280L
aasS'obj'
p7
ccopy_reg
_reconstructor
p8
(ctweepy.models
User
p9
c__builtin__
object
p10
Ntp11
Rp12
(dp13
S'follow_request_sent'
p14
NsS'has_extended_profile'
p15
I00
sS'profile_use_background_image'
p16
I01
sS'profile_sidebar_fill_color'
p17
VDDEEF6
p18
sS'id'
p19
L3213689594L
sS'verified'
p20
I00
sS'entities'
p21
(dp22
Vdescription
p23
(dp24
Vurls
p25
(lp26
sssS'profile_image_url_https'
p27
Vhttps://pbs.twimg.com/profile_images/604952181083480064/tMojH1am_normal.jpg
p28
sS'_json'
p29
(dp30
Vfollow_request_sent
p31
NsVhas_extended_profile
p32
I00
sVprofile_use_background_image
p33
I01
sVdefault_profile_image
p34
I00
sVid
p35
L3213689594L
sVprofile_background_image_url_https
p36
Vhttps://abs.twimg.com/images/themes/theme1/bg.png
p37
sVverified
p38
I00
sVprofile_text_color
p39
V333333
p40
sVprofile_image_url_https
p41
g28
sVprofile_sidebar_fill_color
p42
g18
sVentities
p43
g22
sVfollowers_count
p44
I106
sVprofile_sidebar_border_color
p45
VC0DEED
p46
sVid_str
p47
V3213689594
p48
sVprofile_background_color
p49
VC0DEED
p50
sVlisted_count
p51
I6
sVstatus
p52
(dp53
Vcontributors
p54
NsVtruncated
p55
I00
sVtext
p56
Vhttps://t.co/gvzf7KZodu Fossil Group Drops Like A Rock
p57
sVin_reply_to_status_id
p58
Nsg35
L666299380706734080L
sVfavorite_count
p59
I0
sVsource
p60
V<a href="http://morningblue.ua" rel="nofollow">MorningBlue</a>
p61
sVretweeted
p62
I00
sVcoordinates
p63
Nsg43
(dp64
Vsymbols
p65
(lp66
sVuser_mentions
p67
(lp68
sVhashtags
p69
(lp70
sg25
(lp71
(dp72
Vurl
p73
Vhttps://t.co/gvzf7KZodu
p74
sVindices
p75
(lp76
I0
aI23
asVexpanded_url
p77
Vhttp://bit.ly/1RZjgHe
p78
sVdisplay_url
p79
Vbit.ly/1RZjgHe
p80
sassVin_reply_to_screen_name
p81
Nsg47
V666299380706734080
p82
sVretweet_count
p83
I0
sVin_reply_to_user_id
p84
NsVfavorited
p85
I00
sVgeo
p86
NsVin_reply_to_user_id_str
p87
NsVpossibly_sensitive
p88
I00
sVlang
p89
Ven
p90
sVcreated_at
p91
VMon Nov 16 16:58:46 +0000 2015
p92
sVin_reply_to_status_id_str
p93
NsVplace
p94
NssVis_translation_enabled
p95
I00
sVutc_offset
p96
I-28800
sVstatuses_count
p97
I650
sg23
V
p98
sVfriends_count
p99
I206
sVlocation
p100
VTulsa
p101
sVprofile_link_color
p102
V0084B4
p103
sVprofile_image_url
p104
Vhttp://pbs.twimg.com/profile_images/604952181083480064/tMojH1am_normal.jpg
p105
sVfollowing
p106
NsVgeo_enabled
p107
I00
sVprofile_banner_url
p108
Vhttps://pbs.twimg.com/profile_banners/3213689594/1433066841
p109
sVprofile_background_image_url
p110
Vhttp://abs.twimg.com/images/themes/theme1/bg.png
p111
sVscreen_name
p112
Vssanrese81
p113
sg89
Ven
p114
sVprofile_background_tile
p115
I00
sVfavourites_count
p116
I0
sVname
p117
VElizabeth Adamson
p118
sVnotifications
p119
Nsg73
Nsg91
VSun May 17 16:34:13 +0000 2015
p120
sVcontributors_enabled
p121
I00
sVtime_zone
p122
VPacific Time (US & Canada)
p123
sVprotected
p124
I00
sVdefault_profile
p125
I01
sVis_translator
p126
I00
ssS'contributors_enabled'
p127
I00
sS'profile_text_color'
p128
g40
sS'followers_count'
p129
I106
sS'profile_sidebar_border_color'
p130
g46
sS'id_str'
p131
g48
sS'default_profile_image'
p132
I00
sS'listed_count'
p133
I6
sS'status'
p134
g8
(ctweepy.models
Status
p135
g10
Ntp136
Rp137
(dp138
S'favorited'
p139
I00
sS'contributors'
p140
NsS'truncated'
p141
I00
sS'text'
p142
g57
sS'source_url'
p143
Vhttp://morningblue.ua
p144
sS'possibly_sensitive'
p145
I00
sS'in_reply_to_status_id'
p146
NsS'geo'
p147
Nsg19
L666299380706734080L
sS'favorite_count'
p148
I0
sS'lang'
p149
g90
sg21
g64
sS'created_at'
p150
cdatetime
datetime
p151
(S'\x07\xdf\x0b\x10\x10:.\x00\x00\x00'
p152
tp153
Rp154
sg29
g53
sS'coordinates'
p155
NsS'in_reply_to_user_id_str'
p156
NsS'source'
p157
VMorningBlue
p158
sS'in_reply_to_status_id_str'
p159
NsS'in_reply_to_screen_name'
p160
Nsg131
g82
sS'retweeted'
p161
I00
sS'place'
p162
NsS'retweet_count'
p163
I0
sS'in_reply_to_user_id'
p164
NsbsS'is_translation_enabled'
p165
I00
sS'utc_offset'
p166
I-28800
sS'statuses_count'
p167
I650
sS'description'
p168
g98
sS'friends_count'
p169
I206
sS'location'
p170
g101
sS'profile_link_color'
p171
g103
sS'profile_image_url'
p172
g105
sS'notifications'
p173
NsS'geo_enabled'
p174
I00
sS'profile_background_color'
p175
g50
sS'profile_banner_url'
p176
g109
sS'profile_background_image_url'
p177
g111
sS'screen_name'
p178
g113
sg149
g114
sg1
I00
sS'profile_background_tile'
p179
I00
sS'favourites_count'
p180
I0
sS'name'
p181
g118
sS'url'
p182
Nsg150
g151
(S'\x07\xdf\x05\x11\x10"\r\x00\x00\x00'
p183
tp184
Rp185
sS'profile_background_image_url_https'
p186
g37
sS'time_zone'
p187
g123
sS'protected'
p188
I00
sS'default_profile'
p189
I01
sS'is_translator'
p190
I00
sbs.