(dp0
S'following'
p1
(lp2
(lp3
I313335112
aI250317700
aI145313421
aL2949393550L
aL2686353036L
aI22026851
aI68304632
aI1433652877
aI405141209
aI511223459
aI93294948
aI444251529
aL2890616938L
aI452151127
aL3018809793L
aI14136886
aL3154923455L
aI28164923
aL2940795831L
aI884935388
aI190791657
aI27762318
aI52762774
aL3242840227L
aL3251139068L
aI193838214
aL2212353883L
aL2607477037L
aL3223544316L
aL3146648621L
aI486476991
aL3097239604L
aI397136529
aI36378343
aL2161913370L
aI20079668
aI148268103
aI1092298711
aI989677742
aI23182739
aL2930422354L
aI32706256
aL3037072783L
aI1375860338
aL2341525668L
aL2997440620L
aI552175419
aI385658781
aI629573379
aI1279746739
aI1098327625
aI552137768
aI121158213
aI459091687
aI15246621
aI207617302
aI11247222
aI125162948
aI121365582
aI55561590
aI18034541
aI891259472
aI82711419
aI37555599
aI403855355
aL2445459474L
aI797769606
aI249492195
aI276780343
aI1040640698
aI166597717
aI1928213371
aI799122090
aI38053161
aI206277247
aI124641769
aI17893558
aI24578794
aI203652149
aI253201236
aI586734515
aI448461258
aI19739279
aL2297843024L
aI246585278
aI19565763
aI19337489
aI170428232
aI22522178
aI41516710
aI29557958
aI14297693
aL2730423494L
aI88780805
aI20704858
aI375980238
aI1431342590
aI250362250
aI18571616
aI195624823
aL2715646770L
aI96682182
aL2950059586L
aL2347851524L
aI985406924
aI85872613
aL2272207286L
aI14115408
aL3008770610L
aI72907355
aL2179738309L
aL3071475088L
aI455824771
aI904810278
aI25882361
aL2607601184L
aI788333744
aI21579390
aI59853587
aI184881902
aI84444981
aI30818980
aI105353526
aI514835972
aL3039818766L
aI16451932
aI19030439
aI16049299
aL3060303160L
aI262144590
aI1631140573
aL2595918914L
aL3188262614L
aL2992414321L
aI1451597324
aI15588025
aI60478078
aI21232827
aI271211220
aI26775476
aI28894912
aI1277866808
aL3048189131L
aL2678090893L
aI30359797
aI254207829
aI17790265
aI163648850
aI44060322
aI133483902
aL2634027002L
aI99412732
aI110463712
aI1470261637
aI1690759518
aI18433619
aI49663664
aI14216123
aI40099128
aI821618390
aI14886375
aI389157954
aI851544830
aI966726223
aI140912249
aI416311594
aI237591901
aL2149877280L
aL2338670249L
aL3017654325L
aI317437245
aI1262364356
aI443918542
aI39853973
aI1064700308
aI62562916
aI31546412
aL2319600132L
aI236454159
aI168679374
aI49620233
aI1068920202
aI250758475
aI51912109
aL2807668160L
aI21328656
aI40898910
aI39264827
aI37564410
aL2967229294L
aasS'followers'
p4
(lp5
(lp6
L2369652488L
aL3253818601L
aI224700084
aI19805321
aL3955292053L
aL4147237933L
aL2906862160L
aL3438053111L
aL2440753004L
aI597799971
aL3120145617L
aL2964459628L
aI56286860
aI1529917477
aL3035804476L
aI41592518
aL3416178238L
aL3420442818L
aI250362250
aL3820274952L
aI16072296
aI250317700
aI981236256
aI100767876
aL3241358121L
aI369691396
aI989690640
aL3544379172L
aI397136529
aL2941852859L
aL3297856556L
aL3303911342L
aI1530916794
aI1531007624
aL2949393550L
aL2686353036L
aI405141209
aI93294948
aL3154923455L
aL2890616938L
aI14136886
aI452151127
aL2445459474L
aI511223459
aL3018809793L
aL2940795831L
aL3242840227L
aL2212353883L
aL3251139068L
aL3146648621L
aI84444981
aI36378343
aL3097239604L
aL2930422354L
aI148268103
aI1279746739
aI989677742
aI1375860338
aI121158213
aI459091687
aL2341525668L
aL3037072783L
aI985406924
aL2950059586L
aI85872613
aL2997440620L
aI629573379
aL2607601184L
aL3039818766L
aL3188262614L
aL2149877280L
aL3048189131L
aL3060303160L
aL2992414321L
aasS'obj'
p7
ccopy_reg
_reconstructor
p8
(ctweepy.models
User
p9
c__builtin__
object
p10
Ntp11
Rp12
(dp13
S'follow_request_sent'
p14
I00
sS'has_extended_profile'
p15
I01
sS'profile_use_background_image'
p16
I01
sS'profile_sidebar_fill_color'
p17
VDDEEF6
p18
sS'id'
p19
L3214122897L
sS'verified'
p20
I00
sS'entities'
p21
(dp22
Vdescription
p23
(dp24
Vurls
p25
(lp26
sssS'profile_image_url_https'
p27
Vhttps://pbs.twimg.com/profile_images/648487739147554816/jfp5h_Fb_normal.png
p28
sS'_json'
p29
(dp30
Vfollow_request_sent
p31
I00
sVhas_extended_profile
p32
I01
sVprofile_use_background_image
p33
I01
sVdefault_profile_image
p34
I00
sVid
p35
L3214122897L
sVprofile_background_image_url_https
p36
Vhttps://abs.twimg.com/images/themes/theme1/bg.png
p37
sVverified
p38
I00
sVprofile_text_color
p39
V333333
p40
sVprofile_image_url_https
p41
g28
sVprofile_sidebar_fill_color
p42
g18
sVentities
p43
g22
sVfollowers_count
p44
I74
sVprofile_sidebar_border_color
p45
VC0DEED
p46
sVid_str
p47
V3214122897
p48
sVprofile_background_color
p49
VC0DEED
p50
sVlisted_count
p51
I14
sVstatus
p52
(dp53
Vlang
p54
Ven
p55
sVfavorited
p56
I00
sg43
(dp57
Vsymbols
p58
(lp59
(dp60
Vindices
p61
(lp62
I0
aI5
asVtext
p63
VCELG
p64
sasVuser_mentions
p65
(lp66
sVhashtags
p67
(lp68
sg25
(lp69
ssVcontributors
p70
NsVtruncated
p71
I00
sg63
V$CELG 500K + shares traded in the last 50 mins. Someone big just stepped in and starting buying. That could be the bottom folks.
p72
sVcreated_at
p73
VMon Nov 16 18:27:21 +0000 2015
p74
sVretweeted
p75
I00
sVin_reply_to_status_id_str
p76
NsVcoordinates
p77
NsVin_reply_to_user_id_str
p78
NsVsource
p79
V<a href="http://stocktwits.com" rel="nofollow">StockTwits Web</a>
p80
sVin_reply_to_status_id
p81
NsVin_reply_to_screen_name
p82
Nsg47
V666321672392196098
p83
sVplace
p84
NsVretweet_count
p85
I0
sVgeo
p86
Nsg35
L666321672392196098L
sVfavorite_count
p87
I0
sVin_reply_to_user_id
p88
NssVis_translation_enabled
p89
I00
sVutc_offset
p90
NsVstatuses_count
p91
I1275
sg23
VHunting trade setups. Broadcasting founding. Own DD is to be done separately.
p92
sVfriends_count
p93
I190
sVlocation
p94
VUnited States
p95
sVprofile_link_color
p96
V0084B4
p97
sVprofile_image_url
p98
Vhttp://pbs.twimg.com/profile_images/648487739147554816/jfp5h_Fb_normal.png
p99
sVfollowing
p100
I00
sVgeo_enabled
p101
I00
sVprofile_banner_url
p102
Vhttps://pbs.twimg.com/profile_banners/3214122897/1443446430
p103
sVprofile_background_image_url
p104
Vhttp://abs.twimg.com/images/themes/theme1/bg.png
p105
sVscreen_name
p106
VFusaroHope
p107
sg54
Ven
p108
sVprofile_background_tile
p109
I00
sVfavourites_count
p110
I0
sVname
p111
VHope Fusaro
p112
sVnotifications
p113
I00
sVurl
p114
Nsg73
VMon Apr 27 16:42:40 +0000 2015
p115
sVcontributors_enabled
p116
I00
sVtime_zone
p117
NsVprotected
p118
I00
sVdefault_profile
p119
I01
sVis_translator
p120
I00
ssS'contributors_enabled'
p121
I00
sS'profile_text_color'
p122
g40
sS'followers_count'
p123
I74
sS'profile_sidebar_border_color'
p124
g46
sS'id_str'
p125
g48
sS'default_profile_image'
p126
I00
sS'listed_count'
p127
I14
sS'status'
p128
g8
(ctweepy.models
Status
p129
g10
Ntp130
Rp131
(dp132
S'favorited'
p133
I00
sS'contributors'
p134
NsS'truncated'
p135
I00
sS'text'
p136
g72
sS'source_url'
p137
Vhttp://stocktwits.com
p138
sS'in_reply_to_status_id'
p139
NsS'geo'
p140
Nsg19
L666321672392196098L
sS'favorite_count'
p141
I0
sS'lang'
p142
g55
sg21
g57
sS'created_at'
p143
cdatetime
datetime
p144
(S'\x07\xdf\x0b\x10\x12\x1b\x15\x00\x00\x00'
p145
tp146
Rp147
sg29
g53
sS'coordinates'
p148
NsS'in_reply_to_user_id_str'
p149
NsS'source'
p150
VStockTwits Web
p151
sS'in_reply_to_status_id_str'
p152
NsS'in_reply_to_screen_name'
p153
Nsg125
g83
sS'retweeted'
p154
I00
sS'place'
p155
NsS'retweet_count'
p156
I0
sS'in_reply_to_user_id'
p157
NsbsS'is_translation_enabled'
p158
I00
sS'utc_offset'
p159
NsS'statuses_count'
p160
I1275
sS'description'
p161
g92
sS'friends_count'
p162
I190
sS'location'
p163
g95
sS'profile_link_color'
p164
g97
sS'profile_image_url'
p165
g99
sS'notifications'
p166
I00
sS'geo_enabled'
p167
I00
sS'profile_background_color'
p168
g50
sS'profile_banner_url'
p169
g103
sS'profile_background_image_url'
p170
g105
sS'screen_name'
p171
g107
sg142
g108
sg1
I00
sS'profile_background_tile'
p172
I00
sS'favourites_count'
p173
I0
sS'name'
p174
g112
sS'url'
p175
Nsg143
g144
(S'\x07\xdf\x04\x1b\x10*(\x00\x00\x00'
p176
tp177
Rp178
sS'profile_background_image_url_https'
p179
g37
sS'time_zone'
p180
NsS'protected'
p181
I00
sS'default_profile'
p182
I01
sS'is_translator'
p183
I00
sbs.