(dp0
S'following'
p1
(lp2
(lp3
I37555599
aL4129818237L
aI1873589498
aL3017654325L
aL3386531654L
aI109200080
aL2203774417L
aI33026200
aI254207829
aI14216123
aL2388341281L
aI16451932
aL3118084756L
aI209907837
aL2848745633L
aL3171740985L
aI1433652877
aI26705006
aL2318724415L
aI955733059
aI482362854
aL2181558745L
aI96682182
aI1040640698
aI121902355
aI1920881443
aL3405443625L
aL4086878235L
aI1138327208
aL2802272246L
aL4008687460L
aI74104397
aI207617302
aI733717446
aI20858691
aI48233377
aI21232827
aI84444981
aI249492195
aI851544830
aI103939712
aI19337489
aI284381441
aL3636548293L
aL2286264520L
aI59853587
aI100185304
aL2461907034L
aL4001537181L
aL2786340877L
aI250362250
aI44060322
aI18571616
aL3946770635L
aL2657040931L
aL3042237100L
aL3959992332L
aL3741164719L
aI1451597324
aL2607477037L
aI15971805
aL3049216190L
aL2163272683L
aL3375905733L
aL2445459474L
aI320276448
aL2513031072L
aI133483902
aI244978426
aI166597717
aI1966253173
aL3373074856L
aI15281391
aL3944877897L
aL3509753654L
aI168679374
aL2375681418L
aL2860845668L
aI21650295
aL2906439339L
aI1577160728
aL2976682505L
aI1375860338
aI1268126736
aL3460239046L
aI18639872
aL2804263123L
aL3127432210L
aI1583359764
aI237591901
aI29557958
aI1470261637
aI163648850
aL2967229294L
aI978452774
aI91798372
aL3384754253L
aL2440753004L
aL3193539926L
aI775319148
aI565969885
aI61342056
aI47515211
aI462754174
aL3420574769L
aI19111917
aI1657022528
aL2857739341L
aL2607601184L
aI627765164
aL3135493823L
aL2832135288L
aI80864710
aI206277247
aI438352958
aI11247222
aI17350542
aI592330191
aI111216907
aL3774374115L
aL2314804225L
aI94443941
aI50262721
aL3300518020L
aI40587059
aI76792203
aL2595519847L
aL2868907819L
aI64405102
aI317130223
aI1183838114
aI966726223
aI479330647
aL2203436131L
aL2313837474L
aL3310375302L
aI132408673
aI18034541
aI821618390
aI271211220
aL2394624246L
aL2613145020L
aI486508901
aI1883588876
aI20596865
aI25448539
aI10194682
aI169435845
aL2356794445L
aL2906862160L
aI402876893
aI49620233
aL3658480336L
aI1317807865
aL2421582940L
aI296827816
aI16595597
aI737311736
aL2203439227L
aL2341147554L
aL3148891231L
aI31546412
aI50763889
aL3039818766L
aI29869163
aI1239871513
aI785935140
aI23390520
aI81157050
aI104531614
aI36359651
aI594096575
aI1877075455
aI1020182690
aL2607663110L
aI592252072
aL3210527171L
aI551844887
aI1935592992
aI1098307922
aI21437626
aI514835972
aI47247213
aI51912109
aI99147325
aI551792578
aL2846130434L
aI15812297
aI1928213371
aI28164923
aI105353526
aI712602271
aI16004376
aL3306104420L
aI44366481
aI61216389
aI120743106
aI777255126
aI331614004
aL3184637045L
aL2715646770L
aI42570063
aI375980238
aI1393603976
aL2984399113L
aI989660850
aI317437245
aL3154923455L
aI226637533
aL3177303368L
aI140912249
aL3207579226L
aI40898910
aI31601963
aI30359797
aI113084080
aI385658781
aI482364710
aI1673739764
aI1908178128
aL2305647614L
aI128500019
aI459091687
aI1068920202
aI45415894
aI62562916
aL3063418949L
aI338875694
aI28571999
aI22026851
aL2361288673L
aI586734515
aL2807668160L
aI270484039
aI1262364356
aI19565763
aI5831802
aI21579390
aL2828756106L
aL3328806583L
aL3042173895L
aL3430308293L
aL3210776242L
aL2992414321L
aL3242840227L
aI55841546
aI100767876
aL3258090918L
aL2381087899L
aL2981421573L
aL2231311262L
aL2341525668L
aasS'followers'
p4
(lp5
(lp6
L2960440083L
aL3279889903L
aL3984374173L
aL3120145617L
aI1924312855
aL2149231188L
aI93294948
aL3386531654L
aI109200080
aI1670698730
aL4129818237L
aL2203774417L
aL2848745633L
aL3058848324L
aL4086878235L
aI26705006
aL2802272246L
aL3405443625L
aL3171740985L
aI48233377
aI1920881443
aL3636548293L
aL4008687460L
aL4030418849L
aL2286264520L
aI100185304
aL3118084756L
aI84444981
aI250362250
aL2657040931L
aL3042237100L
aL4001537181L
aL3741164719L
aL3184637045L
aI1966253173
aL3373074856L
aL2860845668L
aI21650295
aL2906439339L
aI1577160728
aI1268126736
aL3460239046L
aI1375860338
aL2967229294L
aL2440753004L
aI47515211
aI462754174
aL2607601184L
aL2804263123L
aI627765164
aI1583359764
aL2314804225L
aI592330191
aL3384754253L
aI17350542
aL3300518020L
aI76792203
aI111216907
aL2595519847L
aI40587059
aI1183838114
aI317130223
aL2203436131L
aL2394624246L
aL2613145020L
aL2906862160L
aI402876893
aL2203439227L
aI296827816
aL3039818766L
aI50763889
aI104531614
aI592252072
aI1020182690
aL3210527171L
aI21437626
aI1877075455
aI15812297
aI99147325
aL3306104420L
aI777255126
aI1393603976
aL3154923455L
aL3177303368L
aL2984399113L
aI226637533
aI31601963
aL2305647614L
aI459091687
aL3063418949L
aL2828756106L
aL3328806583L
aL3042173895L
aL3430308293L
aL3210776242L
aL2992414321L
aL3242840227L
aI55841546
aI100767876
aL2341525668L
aL2231311262L
aL3258090918L
aL2981421573L
aL2381087899L
aasS'obj'
p7
ccopy_reg
_reconstructor
p8
(ctweepy.models
User
p9
c__builtin__
object
p10
Ntp11
Rp12
(dp13
S'follow_request_sent'
p14
NsS'has_extended_profile'
p15
I00
sS'profile_use_background_image'
p16
I01
sS'profile_sidebar_fill_color'
p17
VDDEEF6
p18
sS'id'
p19
L3218350446L
sS'verified'
p20
I00
sS'entities'
p21
(dp22
Vdescription
p23
(dp24
Vurls
p25
(lp26
sssS'profile_image_url_https'
p27
Vhttps://pbs.twimg.com/profile_images/604658393920315392/Hy3BzOBY_normal.jpg
p28
sS'_json'
p29
(dp30
Vfollow_request_sent
p31
NsVhas_extended_profile
p32
I00
sVprofile_use_background_image
p33
I01
sVdefault_profile_image
p34
I00
sVid
p35
L3218350446L
sVprofile_background_image_url_https
p36
Vhttps://abs.twimg.com/images/themes/theme1/bg.png
p37
sVverified
p38
I00
sVprofile_text_color
p39
V333333
p40
sVprofile_image_url_https
p41
g28
sVprofile_sidebar_fill_color
p42
g18
sVentities
p43
g22
sVfollowers_count
p44
I104
sVprofile_sidebar_border_color
p45
VC0DEED
p46
sVid_str
p47
V3218350446
p48
sVprofile_background_color
p49
VC0DEED
p50
sVlisted_count
p51
I14
sVstatus
p52
(dp53
Vcontributors
p54
NsVtruncated
p55
I00
sVtext
p56
VSVXY ProShares Short VIX Short-Term Futures ETF Short Sales\u000ahttps://t.co/bsM6gAvRpA\u000a\u000a$SVXY $NFX $GOOGL $XLI #SVXY\u2026 https://t.co/78RLkTZVK2
p57
sVin_reply_to_status_id
p58
Nsg35
L666309723394805762L
sVfavorite_count
p59
I0
sVsource
p60
V<a href="http://morningblue.ua" rel="nofollow">MorningBlue</a>
p61
sVretweeted
p62
I00
sVcoordinates
p63
Nsg43
(dp64
Vsymbols
p65
(lp66
(dp67
Vindices
p68
(lp69
I85
aI90
asg56
VSVXY
p70
sa(dp71
g68
(lp72
I91
aI95
asg56
VNFX
p73
sa(dp74
g68
(lp75
I96
aI102
asg56
VGOOGL
p76
sa(dp77
g68
(lp78
I103
aI107
asg56
VXLI
p79
sasVuser_mentions
p80
(lp81
sVhashtags
p82
(lp83
(dp84
g68
(lp85
I108
aI113
asg56
VSVXY
p86
sasg25
(lp87
(dp88
Vurl
p89
Vhttps://t.co/bsM6gAvRpA
p90
sg68
(lp91
I60
aI83
asVexpanded_url
p92
Vhttp://dlvr.it/CjjB5G
p93
sVdisplay_url
p94
Vdlvr.it/CjjB5G
p95
sa(dp96
g89
Vhttps://t.co/78RLkTZVK2
p97
sg68
(lp98
I115
aI138
asg92
Vhttp://ift.tt/1clQiSw
p99
sg94
Vift.tt/1clQiSw
p100
sassVin_reply_to_screen_name
p101
Nsg47
V666309723394805762
p102
sVretweet_count
p103
I0
sVin_reply_to_user_id
p104
NsVfavorited
p105
I00
sVgeo
p106
NsVin_reply_to_user_id_str
p107
NsVpossibly_sensitive
p108
I00
sVlang
p109
Ven
p110
sVcreated_at
p111
VMon Nov 16 17:39:52 +0000 2015
p112
sVin_reply_to_status_id_str
p113
NsVplace
p114
NssVis_translation_enabled
p115
I00
sVutc_offset
p116
I-28800
sVstatuses_count
p117
I1046
sg23
V
p118
sVfriends_count
p119
I252
sVlocation
p120
VCarrollton
p121
sVprofile_link_color
p122
V0084B4
p123
sVprofile_image_url
p124
Vhttp://pbs.twimg.com/profile_images/604658393920315392/Hy3BzOBY_normal.jpg
p125
sVfollowing
p126
NsVgeo_enabled
p127
I00
sVprofile_banner_url
p128
Vhttps://pbs.twimg.com/profile_banners/3218350446/1432996793
p129
sVprofile_background_image_url
p130
Vhttp://abs.twimg.com/images/themes/theme1/bg.png
p131
sVscreen_name
p132
Vbinrylig81
p133
sg109
Ven
p134
sVprofile_background_tile
p135
I00
sVfavourites_count
p136
I0
sVname
p137
VNorma Dowman
p138
sVnotifications
p139
Nsg89
Nsg111
VSun May 17 23:32:28 +0000 2015
p140
sVcontributors_enabled
p141
I00
sVtime_zone
p142
VPacific Time (US & Canada)
p143
sVprotected
p144
I00
sVdefault_profile
p145
I01
sVis_translator
p146
I00
ssS'contributors_enabled'
p147
I00
sS'profile_text_color'
p148
g40
sS'followers_count'
p149
I104
sS'profile_sidebar_border_color'
p150
g46
sS'id_str'
p151
g48
sS'default_profile_image'
p152
I00
sS'listed_count'
p153
I14
sS'status'
p154
g8
(ctweepy.models
Status
p155
g10
Ntp156
Rp157
(dp158
S'favorited'
p159
I00
sS'contributors'
p160
NsS'truncated'
p161
I00
sS'text'
p162
VSVXY ProShares Short VIX Short-Term Futures ETF Short Sales\u000ahttps://t.co/bsM6gAvRpA\u000a\u000a$SVXY $NFX $GOOGL $XLI #SVXY\u2026 https://t.co/78RLkTZVK2
p163
sS'source_url'
p164
Vhttp://morningblue.ua
p165
sS'possibly_sensitive'
p166
I00
sS'in_reply_to_status_id'
p167
NsS'geo'
p168
Nsg19
L666309723394805762L
sS'favorite_count'
p169
I0
sS'lang'
p170
g110
sg21
g64
sS'created_at'
p171
cdatetime
datetime
p172
(S"\x07\xdf\x0b\x10\x11'4\x00\x00\x00"
p173
tp174
Rp175
sg29
g53
sS'coordinates'
p176
NsS'in_reply_to_user_id_str'
p177
NsS'source'
p178
VMorningBlue
p179
sS'in_reply_to_status_id_str'
p180
NsS'in_reply_to_screen_name'
p181
Nsg151
g102
sS'retweeted'
p182
I00
sS'place'
p183
NsS'retweet_count'
p184
I0
sS'in_reply_to_user_id'
p185
NsbsS'is_translation_enabled'
p186
I00
sS'utc_offset'
p187
I-28800
sS'statuses_count'
p188
I1046
sS'description'
p189
g118
sS'friends_count'
p190
I252
sS'location'
p191
g121
sS'profile_link_color'
p192
g123
sS'profile_image_url'
p193
g125
sS'notifications'
p194
NsS'geo_enabled'
p195
I00
sS'profile_background_color'
p196
g50
sS'profile_banner_url'
p197
g129
sS'profile_background_image_url'
p198
g131
sS'screen_name'
p199
g133
sg170
g134
sg1
I00
sS'profile_background_tile'
p200
I00
sS'favourites_count'
p201
I0
sS'name'
p202
g138
sS'url'
p203
Nsg171
g172
(S'\x07\xdf\x05\x11\x17 \x1c\x00\x00\x00'
p204
tp205
Rp206
sS'profile_background_image_url_https'
p207
g37
sS'time_zone'
p208
g143
sS'protected'
p209
I00
sS'default_profile'
p210
I01
sS'is_translator'
p211
I00
sbs.