(dp0
S'following'
p1
(lp2
(lp3
I10642532
aI14325608
aI1970611
aI58524428
aI252370778
aI224
aI7184612
aI19920360
aI36623
aI168730996
aI30067105
aI277585992
aI14868678
aI124820258
aI5571122
aI296979153
aI18036280
aL3074135008L
aL3015897974L
aI260907612
aI127058398
aI21269420
aI5943622
aI111012361
aI26755373
aI19983050
aI15062948
aL2263437272L
aI16280425
aI15126599
aI22530844
aI499840041
aI91884097
aI513842320
aL3070412711L
aI22144210
aI393711189
aI123644513
aI726723858
aI21238678
aI31399121
aI18080708
aI89494656
aL3096644050L
aI103155911
aL3179706339L
aI66235118
aI263804061
aI190364257
aI184924560
aI57411021
aI429933420
aI33333620
aI21254439
aI24927996
aI14129793
aI80958941
aI849793688
aI21101306
aI19685572
aI36746097
aI197174261
aI16017475
aL2340558698L
aI548989587
aI109591954
aI57982680
aI252230017
aI21232889
aI9070372
aI20318173
aI34759182
aI24931506
aI29702361
aI21748562
aI14074493
aI19740886
aI618986370
aI9831152
aI11856332
aI804114
aI14272431
aI256033751
aI19153064
aI164864435
aI505770467
aI18742360
aI365591290
aI29902501
aI1101414445
aI16573941
aI19278408
aI16632124
aI17395556
aI22746972
aI42773103
aI280387152
aL2388957878L
aI15180311
aI211208938
aL2720373876L
aI495136112
aI373564351
aI19539464
aI525224885
aI19930296
aI501432028
aI75209239
aI22686054
aI170492152
aI249793205
aI15937355
aI8964252
aI15298549
aI16419288
aI7922352
aI24215334
aI16486667
aI1952373980
aI1511628728
aI74432340
aI17033727
aI157230277
aI874549412
aI15924408
aI13982132
aI48789923
aI24985189
aI19797061
aI839561
aI10273462
aI48739375
aI526796039
aI279065518
aI1491876301
aL3002502444L
aI226260101
aI8297532
aI300344786
aI1465421102
aI17029640
aI7433772
aI24266406
aI164425558
aI25363239
aL2244340904L
aI5763262
aI20640328
aI23762278
aI11837102
aI27631636
aI14705027
aI377362946
aI260741931
aI70292831
aI21176000
aI12096202
aI111291091
aI14954548
aI156352329
aI119173790
aI36080231
aI5894902
aI19186720
aL2393533334L
aI135316691
aI40904164
aI29571756
aI17850095
aI257548783
aI148807607
aI15635604
aI69181624
aI14511951
aI61633035
aI19891119
aI17446621
aI16427238
aI279787472
aI54282487
aI24386595
aI63663286
aI68469141
aI65823296
aI25476727
aI61228972
aI237747486
aI120851387
aI14133672
aI548263294
aI19306855
aI7790622
aI14603262
aI11023652
aI39896049
aI13029192
aL2840105555L
aI16379348
aI14517958
aI16569746
aI15912970
aI17503180
aI32113239
aI6730222
aI36270539
aI245183983
aI254182601
aI331859689
aI15473958
aI5746402
aI17663164
aI6324592
aI156981956
aI17464545
aI27890540
aI29537249
aI7712452
aI310358560
aI18724977
aI95686530
aI164209237
aI17997789
aI30364057
aI21217761
aI19725644
aI56723262
aI2899161
aI14992263
aI21802889
aI62544461
aI15455902
aI38117395
aI95908609
aI12655132
aI17446359
aI80933682
aI17315582
aI14362028
aI271735962
aI480535297
aI178027492
aI14372486
aI374941539
aI14923268
aI3288371
aI1389501
aI791675
aI71847491
aL2239727886L
aL2882303226L
aI465373456
aI580877296
aI702393266
aI631354473
aI89814718
aI23818354
aI1465050722
aI816653
aI16710280
aI27154035
aI12480582
aI390106583
aI19790765
aI33649489
aI20802027
aI22642788
aI16550474
aI19104404
aI10842022
aI443198162
aI34636118
aI2444931
aI17200801
aI20562637
aI25588470
aI23262217
aI1421992694
aI26861264
aI19771382
aI15383427
aI17035063
aI17525171
aI18248647
aI17543268
aI16260246
aI28163914
aI54227968
aI46179233
aI1769191
aI23330612
aI2893971
aI18172909
aI153495347
aI525186607
aI18589518
aI36810912
aL2264973912L
aI27201025
aI112242274
aI19781200
aI356432148
aI37979150
aI18339274
aI19034788
aI30205586
aI14895776
aI10498942
aI14687193
aI19822465
aI5750262
aI17592789
aI24296023
aI1074544400
aI20002491
aI746687526
aI15033883
aI17002185
aL2215216032L
aI21690488
aI20150502
aI1910771
aI586198217
aI1526228120
aI357750891
aI495309159
aI783214
aI130649891
aI572225652
aI90933842
aI94013297
aI323850558
aI16715398
aI293999824
aI1535017795
aI6576492
aI75360829
aI89460312
aI26780968
aI220892841
aI21867042
aI139162440
aI573764891
aI8953122
aI33515703
aI76493853
aI13784322
aI15645093
aI14680596
aI21340016
aI86082625
aI38666120
aI45912662
aI14681556
aI20536157
aI456825249
aI287858817
aI327551678
aI23516942
aI84744720
aI18994661
aI28583197
aI23849131
aI23668392
aI19256563
aI15057943
aI18713254
aI17225211
aI34553
aI16016427
aI972651
aI431932485
aI79797834
aI23880785
aI26030910
aI20962674
aI15996830
aI6480682
aI9534522
aI16228398
aI201933661
aI16469809
aI5971922
aI115710058
aI42343110
aI14437914
aI45564482
aI90420314
aasS'followers'
p4
(lp5
(lp6
L3242309315L
aL3242531169L
aI214490910
aI16427238
aL3274168949L
aI14325608
aI1053301
aI18610180
aI17592031
aL2978922717L
aI19920360
aI14517958
aI484077088
aI945184406
aI95908609
aI135708239
aL3349458561L
aI1888280052
aL2325772350L
aI14868678
aL2942535989L
aI26823137
aL3198122436L
aL3901927361L
aI874549412
aI5571122
aI1111093662
aL3273288946L
aL3242102619L
aL3264556899L
aL3355967115L
aI19997752
aI54282487
aI164782833
aI32113239
aI1066956768
aL2955635819L
aI57669443
aL2297588952L
aL3430166560L
aI18001417
aI1535017795
aI293999824
aL2528671172L
aI743546964
aI26755373
aI475360182
aI52451199
aL3129708786L
aI285297213
aL3270466747L
aL2263437272L
aI15062948
aI242063677
aI3650851
aL3254848699L
aI16280425
aL2307974444L
aI22550459
aI91884097
aI22144210
aI393711189
aL2311449338L
aL2308380240L
aL2309276760L
aI27961985
aL2307905366L
aL2310093571L
aL2309647112L
aL2310383323L
aI17743738
aI123644513
aI79433442
aI19037534
aI13443342
aL2886348383L
aI42723197
aL3222704950L
aI15750814
aI16478744
aL3064466237L
aI1022398207
aL3070412711L
aI631354473
aI20642066
aI123119765
aI19685572
aI546023508
aI443087371
aI21867042
aI20161021
aL2788428168L
aI1877335688
aL2951566975L
aL3180030896L
aI24386595
aI24617926
aI205439241
aI237747486
aL2347972645L
aL3198719675L
aI34311453
aI103155911
aL3096644050L
aI34759182
aI24931506
aL3029663056L
aI1952373980
aI252230017
aI465373456
aI454071677
aI78949879
aI804114
aI15937355
aL2942277155L
aI25063527
aI431796104
aL2388957878L
aI5750262
aL2720373876L
aI495136112
aI210293666
aI37073692
aI19539464
aL2190979735L
aI249793205
aI37108551
aI7922352
aI24215334
aI8297532
aL2940043183L
aL3002502444L
aI1465421102
aI702393266
aI11837102
aL2239727886L
aI63663286
aI178027492
aI1465050722
aI19104404
aL3035342329L
aL2393533334L
aI480535297
aI40904164
aI29571756
aI1441077889
aL2642908765L
aI18339274
aI61633035
aI356432148
aL2902015753L
aI404532969
aI26030910
aI323850558
aI89460312
aI26780968
aI15518849
aI429231415
aI14579415
aI21340016
aI38666120
aI45912662
aI14681556
aI12292762
aI23668392
aI456825249
aI22801958
aI287858817
aI327551678
aI431932485
aI19781200
aI201933661
aasS'obj'
p7
ccopy_reg
_reconstructor
p8
(ctweepy.models
User
p9
c__builtin__
object
p10
Ntp11
Rp12
(dp13
S'follow_request_sent'
p14
NsS'has_extended_profile'
p15
I00
sS'profile_use_background_image'
p16
I01
sS'profile_sidebar_fill_color'
p17
VDDEEF6
p18
sS'id'
p19
I322380017
sS'verified'
p20
I00
sS'entities'
p21
(dp22
Vdescription
p23
(dp24
Vurls
p25
(lp26
sssS'profile_image_url_https'
p27
Vhttps://pbs.twimg.com/profile_images/661766876721078272/bV35p-Ab_normal.jpg
p28
sS'_json'
p29
(dp30
Vfollow_request_sent
p31
NsVhas_extended_profile
p32
I00
sVprofile_use_background_image
p33
I01
sVdefault_profile_image
p34
I00
sVid
p35
I322380017
sVprofile_background_image_url_https
p36
Vhttps://abs.twimg.com/images/themes/theme1/bg.png
p37
sVverified
p38
I00
sVprofile_text_color
p39
V333333
p40
sVprofile_image_url_https
p41
g28
sVprofile_sidebar_fill_color
p42
g18
sVentities
p43
g22
sVfollowers_count
p44
I172
sVprofile_sidebar_border_color
p45
VC0DEED
p46
sVid_str
p47
V322380017
p48
sVprofile_background_color
p49
VC0DEED
p50
sVlisted_count
p51
I7
sVstatus
p52
(dp53
Vcontributors
p54
NsVtruncated
p55
I00
sVtext
p56
VRT @TheMindyProject: THANK YOU fans! #MindyOnHulu is a @peopleschoice  Awards finalist: Favorite Streaming Series! #PeopleChoiceAwards http\u2026
p57
sVin_reply_to_status_id
p58
Nsg35
L665300550079131649L
sVfavorite_count
p59
I0
sVsource
p60
V<a href="http://twitter.com/download/iphone" rel="nofollow">Twitter for iPhone</a>
p61
sVretweeted
p62
I00
sVcoordinates
p63
Nsg43
(dp64
Vsymbols
p65
(lp66
sVuser_mentions
p67
(lp68
(dp69
g35
I577403888
sVindices
p70
(lp71
I3
aI19
asg47
V577403888
p72
sVscreen_name
p73
VTheMindyProject
p74
sVname
p75
VThe Mindy Project
p76
sa(dp77
g35
I34993020
sg70
(lp78
I55
aI69
asg47
V34993020
p79
sg73
Vpeopleschoice
p80
sg75
VPeople's Choice
p81
sasVhashtags
p82
(lp83
(dp84
g70
(lp85
I37
aI49
asg56
VMindyOnHulu
p86
sa(dp87
g70
(lp88
I115
aI134
asg56
VPeopleChoiceAwards
p89
sasg25
(lp90
(dp91
Vurl
p92
Vhttps://t.co/a3EGZtHFCi
p93
sg70
(lp94
I139
aI140
asVexpanded_url
p95
Vhttp://twitter.com/TheMindyProject/status/665248903311302656/photo/1
p96
sVdisplay_url
p97
Vpic.twitter.com/a3EGZtHFCi
p98
sassVin_reply_to_screen_name
p99
Nsg47
V665300550079131649
p100
sVretweet_count
p101
I45
sVin_reply_to_user_id
p102
NsVfavorited
p103
I00
sVretweeted_status
p104
(dp105
g54
Nsg55
I00
sg56
VTHANK YOU fans! #MindyOnHulu is a @peopleschoice  Awards finalist: Favorite Streaming Series! #PeopleChoiceAwards https://t.co/a3EGZtHFCi
p106
sg58
Nsg35
L665248903311302656L
sg59
I264
sg60
V<a href="http://www.sprinklr.com" rel="nofollow">Sprinklr</a>
p107
sg62
I00
sg63
Nsg43
(dp108
g65
(lp109
sg67
(lp110
(dp111
g35
I34993020
sg70
(lp112
I34
aI48
asg47
V34993020
p113
sg73
Vpeopleschoice
p114
sg75
VPeople's Choice
p115
sasg82
(lp116
(dp117
g70
(lp118
I16
aI28
asg56
VMindyOnHulu
p119
sa(dp120
g70
(lp121
I94
aI113
asg56
VPeopleChoiceAwards
p122
sasg25
(lp123
(dp124
g92
Vhttps://t.co/a3EGZtHFCi
p125
sg70
(lp126
I114
aI137
asg95
Vhttp://twitter.com/TheMindyProject/status/665248903311302656/photo/1
p127
sg97
Vpic.twitter.com/a3EGZtHFCi
p128
sassg99
Nsg47
V665248903311302656
p129
sg101
I45
sg102
Nsg103
I00
sVgeo
p130
NsVin_reply_to_user_id_str
p131
NsVpossibly_sensitive
p132
I00
sVlang
p133
Ven
p134
sVcreated_at
p135
VFri Nov 13 19:24:32 +0000 2015
p136
sVin_reply_to_status_id_str
p137
NsVplace
p138
Nssg130
Nsg131
Nsg132
I00
sg133
Ven
p139
sg135
VFri Nov 13 22:49:46 +0000 2015
p140
sg137
Nsg138
NssVis_translation_enabled
p141
I00
sVutc_offset
p142
NsVstatuses_count
p143
I285
sg23
VMedia Researcher, Wahoo, Kayaker, Hulu sales research, all tweets are my own
p144
sVfriends_count
p145
I387
sVlocation
p146
Vnyc
p147
sVprofile_link_color
p148
V0084B4
p149
sVprofile_image_url
p150
Vhttp://pbs.twimg.com/profile_images/661766876721078272/bV35p-Ab_normal.jpg
p151
sVfollowing
p152
NsVgeo_enabled
p153
I00
sVprofile_background_image_url
p154
Vhttp://abs.twimg.com/images/themes/theme1/bg.png
p155
sg73
Vjustinzfromm
p156
sg133
Ven
p157
sVprofile_background_tile
p158
I00
sVfavourites_count
p159
I199
sg75
VJustin Fromm
p160
sVnotifications
p161
Nsg92
Nsg135
VThu Jun 23 02:38:31 +0000 2011
p162
sVcontributors_enabled
p163
I00
sVtime_zone
p164
NsVprotected
p165
I00
sVdefault_profile
p166
I01
sVis_translator
p167
I00
ssS'contributors_enabled'
p168
I00
sS'profile_text_color'
p169
g40
sS'followers_count'
p170
I172
sS'profile_sidebar_border_color'
p171
g46
sS'id_str'
p172
g48
sS'default_profile_image'
p173
I00
sS'listed_count'
p174
I7
sS'status'
p175
g8
(ctweepy.models
Status
p176
g10
Ntp177
Rp178
(dp179
S'favorited'
p180
I00
sS'contributors'
p181
NsS'truncated'
p182
I00
sS'text'
p183
g57
sS'source_url'
p184
Vhttp://twitter.com/download/iphone
p185
sS'possibly_sensitive'
p186
I00
sS'in_reply_to_status_id'
p187
NsS'geo'
p188
Nsg19
L665300550079131649L
sS'favorite_count'
p189
I0
sS'lang'
p190
g139
sS'retweeted_status'
p191
g8
(g176
g10
Ntp192
Rp193
(dp194
g180
I00
sg181
Nsg182
I00
sg183
g106
sg184
Vhttp://www.sprinklr.com
p195
sg186
I00
sg187
Nsg188
Nsg19
L665248903311302656L
sg189
I264
sg190
g134
sg21
g108
sS'created_at'
p196
cdatetime
datetime
p197
(S'\x07\xdf\x0b\r\x13\x18 \x00\x00\x00'
p198
tp199
Rp200
sg29
g105
sS'coordinates'
p201
NsS'in_reply_to_user_id_str'
p202
NsS'source'
p203
VSprinklr
p204
sS'in_reply_to_status_id_str'
p205
NsS'in_reply_to_screen_name'
p206
Nsg172
g129
sS'retweeted'
p207
I00
sS'place'
p208
NsS'retweet_count'
p209
I45
sS'in_reply_to_user_id'
p210
Nsbsg21
g64
sg196
g197
(S'\x07\xdf\x0b\r\x161.\x00\x00\x00'
p211
tp212
Rp213
sg29
g53
sg201
Nsg202
Nsg203
VTwitter for iPhone
p214
sg205
Nsg206
Nsg172
g100
sg207
I00
sg208
Nsg209
I45
sg210
NsbsS'is_translation_enabled'
p215
I00
sS'utc_offset'
p216
NsS'statuses_count'
p217
I285
sS'description'
p218
g144
sS'friends_count'
p219
I387
sS'location'
p220
g147
sS'profile_link_color'
p221
g149
sS'profile_image_url'
p222
g151
sS'notifications'
p223
NsS'geo_enabled'
p224
I00
sS'profile_background_color'
p225
g50
sS'profile_background_image_url'
p226
g155
sS'screen_name'
p227
g156
sg190
g157
sg1
I00
sS'profile_background_tile'
p228
I00
sS'favourites_count'
p229
I199
sS'name'
p230
g160
sS'url'
p231
Nsg196
g197
(S'\x07\xdb\x06\x17\x02&\x1f\x00\x00\x00'
p232
tp233
Rp234
sS'profile_background_image_url_https'
p235
g37
sS'time_zone'
p236
NsS'protected'
p237
I00
sS'default_profile'
p238
I01
sS'is_translator'
p239
I00
sbs.