(dp0
S'following'
p1
(lp2
(lp3
I989975232
aI31546412
aI283102442
aL2396930972L
aL2956761399L
aI17471979
aI87818409
aI4898091
aI122072130
aI14293310
aI35826330
aI1945935708
aI59486068
aI5988062
aI874438663
aI902428952
aI195002495
aI32359921
aI15935591
aI130905540
aI16334857
aI91478624
aI21323268
aI3108351
aI18949452
aI1187422273
aI14886375
aI20402945
aI277480389
aI444023903
aI17622474
aI413704957
aI18639734
aI15764136
aI15110357
aI240030114
aI30818980
aI17513682
aI15568127
aI15296897
aI19546277
aI624413
aI106885045
aI302310286
aI1530916794
aI85693767
aI154346268
aI23059499
aI36990709
aL3124661183L
aI25762392
aI121158213
aL3372441113L
aI193838214
aI15971805
aI160746758
aI96682182
aL3329034551L
aI23390520
aL2601539556L
aI118840585
aI148272213
aI517392967
aI138404716
aI88321965
aI188341419
aI64405995
aI37469211
aI11247222
aL2394624246L
aL2972555345L
aI192589455
aL2802272246L
aI174965200
aI788333744
aL3215876815L
aL2866848993L
aL3195096289L
aI95961590
aI71824428
aI114234443
aI181661392
aI249492195
aI178790083
aI100623722
aI1001192245
aI166361927
aI153053178
aL3233951736L
aI194669544
aI184627299
aI595184823
aI87206443
aL2259383122L
aL2391775315L
aI110535828
aI42802259
aI13131362
aI127249991
aI38568671
aL2159322464L
aI590302232
aL2480055180L
aI82526982
aI82930064
aL2454124671L
aL3012591177L
aI789696324
aI58786843
aL3130369894L
aL3150220306L
aL3139274429L
aI47429548
aL2678280030L
aL2437532460L
aL2165676145L
aL3161641066L
aL3164585004L
aL3201308235L
aL3192999157L
aL3220748214L
aL2580580092L
aL3295145620L
aL3185728742L
aI1550013463
aI554681516
aL3309536176L
aI1222703282
aI1612085702
aI259726095
aI1084356080
aI289126016
aI303970021
aI569767956
aI90816351
aI213606769
aI207662530
aI203787757
aI318826422
aI418417066
aI135051434
aI17139109
aI483028724
aI96212000
aI146927188
aI120116312
aI539238980
aI49811927
aI149265069
aI196903023
aI94368798
aI499253528
aI89040594
aI123688594
aI73959797
aI587775240
aI231764875
aI540369464
aL2223147121L
aI479665214
aI24172445
aI102888635
aI28618757
aI629573379
aI113591776
aI30359797
aL2678090893L
aL3213750129L
aI100767876
aL3126222538L
aI306043018
aL2412831349L
aL3040744940L
aI219032884
aL2800070870L
aL2548928244L
aI981236256
aI260391995
aI113188549
aI87494926
aI83515699
aI29494030
aL2513333515L
aI635580208
aI51888753
aI125882199
aI239462791
aI294484896
aI374100286
aI110356405
aI494124881
aI878541084
aI296626424
aI14297693
aI309781553
aI27006543
aI1039902565
aI296899579
aI37564410
aI72976950
aI291259006
aI282941979
aI570079789
aI805230144
aI281122911
aI211577659
aI17355440
aI477030090
aI15171329
aI477020565
aI200663868
aI229260005
aI71330112
aI61127928
aI131995760
aI16001494
aI76117016
aI369132893
aI113552995
aI99412732
aI95362046
aI236428904
aI27761886
aL3233260146L
aI381478558
aL3233240202L
aasS'followers'
p4
(lp5
(lp6
L3425885481L
aL2964459628L
aI347917266
aI1057677050
aI9555372
aL4047241395L
aL2704486915L
aL2502970082L
aI385397497
aI376367767
aL4125068704L
aL2534236977L
aL3131387753L
aL4076918835L
aL4086878235L
aL3294498285L
aI396999574
aL3739474218L
aL3334692641L
aL4032841407L
aI430111967
aL3320654594L
aL3826996775L
aL3128522824L
aL3147246544L
aL3381266386L
aI85197520
aL3741164719L
aL2495688343L
aL3848259073L
aI48797303
aL3152854929L
aI47133303
aL2496574266L
aL3747518414L
aL2837882056L
aI240526672
aL2511925297L
aL2981624516L
aL3166165491L
aI48486244
aI183486660
aL3322702419L
aL3605241853L
aL2446127467L
aL3611638873L
aL3644329873L
aL3230411541L
aL3544379172L
aL3245842336L
aI238225705
aL2410006842L
aI595686801
aL2772167606L
aI45017604
aI42830611
aL3392828963L
aL3188155638L
aL3188250680L
aL2773032194L
aL2792517816L
aL3487921454L
aL2172423304L
aI71065633
aI44816673
aL3210527171L
aL2323128793L
aL3322020138L
aI1966253173
aI805230144
aL3186161958L
aI995324587
aI902428952
aL2396930972L
aI874438663
aL3117294913L
aL3565914497L
aI25762392
aI1120296470
aI1375860338
aL2883020982L
aL3421529534L
aL3311012648L
aI86178231
aL3433990273L
aL3433944194L
aI227755413
aI121158213
aL2394624246L
aL2950905753L
aL2802272246L
aI517392967
aI462240074
aL2972555345L
aL2156444033L
aI21014481
aL3245388668L
aI107646745
aL3303911342L
aL2470475939L
aL3364485773L
aL3266617111L
aI69286601
aI37941633
aL3086957776L
aI100623722
aL3389811555L
aL2361661062L
aI317562281
aI87269828
aI198916337
aI715229059
aI1531007624
aL2866848993L
aI981236256
aI127967449
aL3351468351L
aL2159322464L
aL3195096289L
aL3353740846L
aL3261931988L
aI209052109
aI18258594
aL3224518962L
aI1462240951
aI635580208
aI75238809
aI16178342
aI611817117
aI1530916794
aL3310951834L
aL3220748214L
aL2731809180L
aI1550013463
aL3185728742L
aI444023903
aI962268252
aL3126222538L
aI100767876
aI113591776
aI30359797
aL2678090893L
aI629573379
aI381478558
aL3233260146L
aL3233240202L
aasS'obj'
p7
ccopy_reg
_reconstructor
p8
(ctweepy.models
User
p9
c__builtin__
object
p10
Ntp11
Rp12
(dp13
S'follow_request_sent'
p14
NsS'has_extended_profile'
p15
I00
sS'profile_use_background_image'
p16
I00
sS'profile_sidebar_fill_color'
p17
V000000
p18
sS'id'
p19
L3233306852L
sS'verified'
p20
I00
sS'entities'
p21
(dp22
Vdescription
p23
(dp24
Vurls
p25
(lp26
sssS'profile_image_url_https'
p27
Vhttps://pbs.twimg.com/profile_images/605977701317419008/2CUYbvu0_normal.png
p28
sS'_json'
p29
(dp30
Vfollow_request_sent
p31
NsVhas_extended_profile
p32
I00
sVprofile_use_background_image
p33
I00
sVdefault_profile_image
p34
I00
sVid
p35
L3233306852L
sVprofile_background_image_url_https
p36
Vhttps://abs.twimg.com/images/themes/theme1/bg.png
p37
sVverified
p38
I00
sVprofile_text_color
p39
V000000
p40
sVprofile_image_url_https
p41
g28
sVprofile_sidebar_fill_color
p42
g18
sVentities
p43
g22
sVfollowers_count
p44
I146
sVprofile_sidebar_border_color
p45
V000000
p46
sVid_str
p47
V3233306852
p48
sVprofile_background_color
p49
V000000
p50
sVlisted_count
p51
I2
sVstatus
p52
(dp53
Vlang
p54
Ven
p55
sVfavorited
p56
I00
sg43
(dp57
Vsymbols
p58
(lp59
(dp60
Vindices
p61
(lp62
I37
aI42
asVtext
p63
VCIFC
p64
sasVuser_mentions
p65
(lp66
sVhashtags
p67
(lp68
sg25
(lp69
ssVcontributors
p70
NsVtruncated
p71
I00
sg63
VSaturday Update for Cifc Corporation $CIFC
p72
sVcreated_at
p73
VMon Nov 16 08:29:15 +0000 2015
p74
sVretweeted
p75
I00
sVin_reply_to_status_id_str
p76
NsVcoordinates
p77
NsVin_reply_to_user_id_str
p78
NsVsource
p79
V<a href="http://twitter.com" rel="nofollow">Twitter Web Client</a>
p80
sVin_reply_to_status_id
p81
NsVin_reply_to_screen_name
p82
Nsg47
V666171157964390400
p83
sVplace
p84
NsVretweet_count
p85
I0
sVgeo
p86
Nsg35
L666171157964390400L
sVfavorite_count
p87
I0
sVin_reply_to_user_id
p88
NssVis_translation_enabled
p89
I00
sVutc_offset
p90
NsVstatuses_count
p91
I2857
sg23
VTop Moving Penny Stock Picks and Tips!
p92
sVfriends_count
p93
I226
sVlocation
p94
VUnited States
p95
sVprofile_link_color
p96
VDD2E44
p97
sVprofile_image_url
p98
Vhttp://pbs.twimg.com/profile_images/605977701317419008/2CUYbvu0_normal.png
p99
sVfollowing
p100
NsVgeo_enabled
p101
I00
sVprofile_banner_url
p102
Vhttps://pbs.twimg.com/profile_banners/3233306852/1433311305
p103
sVprofile_background_image_url
p104
Vhttp://abs.twimg.com/images/themes/theme1/bg.png
p105
sVscreen_name
p106
VTopMovingStocks
p107
sg54
Ven
p108
sVprofile_background_tile
p109
I00
sVfavourites_count
p110
I0
sVname
p111
VTop Moving Stocks
p112
sVnotifications
p113
NsVurl
p114
Nsg73
VTue Jun 02 07:45:24 +0000 2015
p115
sVcontributors_enabled
p116
I00
sVtime_zone
p117
NsVprotected
p118
I00
sVdefault_profile
p119
I00
sVis_translator
p120
I00
ssS'contributors_enabled'
p121
I00
sS'profile_text_color'
p122
g40
sS'followers_count'
p123
I146
sS'profile_sidebar_border_color'
p124
g46
sS'id_str'
p125
g48
sS'default_profile_image'
p126
I00
sS'listed_count'
p127
I2
sS'status'
p128
g8
(ctweepy.models
Status
p129
g10
Ntp130
Rp131
(dp132
S'favorited'
p133
I00
sS'contributors'
p134
NsS'truncated'
p135
I00
sS'text'
p136
g72
sS'source_url'
p137
Vhttp://twitter.com
p138
sS'in_reply_to_status_id'
p139
NsS'geo'
p140
Nsg19
L666171157964390400L
sS'favorite_count'
p141
I0
sS'lang'
p142
g55
sg21
g57
sS'created_at'
p143
cdatetime
datetime
p144
(S'\x07\xdf\x0b\x10\x08\x1d\x0f\x00\x00\x00'
p145
tp146
Rp147
sg29
g53
sS'coordinates'
p148
NsS'in_reply_to_user_id_str'
p149
NsS'source'
p150
VTwitter Web Client
p151
sS'in_reply_to_status_id_str'
p152
NsS'in_reply_to_screen_name'
p153
Nsg125
g83
sS'retweeted'
p154
I00
sS'place'
p155
NsS'retweet_count'
p156
I0
sS'in_reply_to_user_id'
p157
NsbsS'is_translation_enabled'
p158
I00
sS'utc_offset'
p159
NsS'statuses_count'
p160
I2857
sS'description'
p161
g92
sS'friends_count'
p162
I226
sS'location'
p163
g95
sS'profile_link_color'
p164
g97
sS'profile_image_url'
p165
g99
sS'notifications'
p166
NsS'geo_enabled'
p167
I00
sS'profile_background_color'
p168
g50
sS'profile_banner_url'
p169
g103
sS'profile_background_image_url'
p170
g105
sS'screen_name'
p171
g107
sg142
g108
sg1
I00
sS'profile_background_tile'
p172
I00
sS'favourites_count'
p173
I0
sS'name'
p174
g112
sS'url'
p175
Nsg143
g144
(S'\x07\xdf\x06\x02\x07-\x18\x00\x00\x00'
p176
tp177
Rp178
sS'profile_background_image_url_https'
p179
g37
sS'time_zone'
p180
NsS'protected'
p181
I00
sS'default_profile'
p182
I00
sS'is_translator'
p183
I00
sbs.