(dp0
S'following'
p1
(lp2
(lp3
L3030843400L
aL2586354205L
aI35826330
aL2559876024L
aI240649814
aI31546412
aI36008570
aI1299253807
aI37034483
aL2753440416L
aL2502970082L
aL2396930972L
aI36327407
aI405427035
aI34507480
aI134758540
aI561066499
aI180473434
aI277480389
aI194669544
aI110535828
aL2413576753L
aI235594065
aI192170074
aI118243053
aI231862607
aI130397411
aL2748944294L
aI184627299
aI104499427
aI902428952
aI527018393
aI283102442
aI249492195
aL2397967218L
aI106885045
aL3073241957L
aI1861049119
aL3138326769L
aI475524030
aL2802272246L
aI201891203
aI237591901
aI604616126
aL2326375554L
aI193838214
aI221497409
aI91418281
aI284335003
aI41520599
aI96682182
aL2809161682L
aI604701612
aI88321965
aI40586737
aL2411650028L
aI563489125
aL3372441113L
aI822244212
aI188341419
aI989975232
aI195002495
aI240030114
aI1187422273
aI260692993
aL2890616938L
aI1611543626
aI85693767
aL2533540607L
aI91895951
aL2956761399L
aI154346268
aI148272213
aI241789496
aL3066075088L
aL2469832928L
aI317562281
aI413704957
aI11247222
aI25762392
aL3096837242L
aL2480055180L
aI192589455
aI18578905
aI141291190
aI15971805
aL2869616284L
aL2605384560L
aL3124939642L
aI517392967
aI110352644
aI1395054624
aI1945935708
aI302310286
aL2394624246L
aI160746758
aI139526643
aI121158213
aI895615100
aL2437532460L
aL3247834005L
aL2386482290L
aI444023903
aL3220748214L
aL2898078898L
aL3310951834L
aI1530916794
aL3196549580L
aI269349491
aL3215876815L
aI54073091
aL2534236977L
aI18258594
aI36163019
aL2151977851L
aL3073478049L
aL3223544316L
aI99147325
aL3353740846L
aL2462874699L
aI117103149
aL2439520662L
aL2355785412L
aI42890030
aI174965200
aI1895676764
aI95961590
aL3298916613L
aI1490281285
aL2497134830L
aI87206443
aI114234443
aL3213750129L
aI1928213371
aI1108126932
aL3233951736L
aI1711713978
aI166361927
aL2259383122L
aL2409507204L
aI28618757
aI113188549
aI393108566
aI80218313
aI739371385
aI865448352
aL2420759956L
aI1117768670
aI125386115
aI26451628
aI1177315998
aI231764875
aL2371400658L
aI99035833
aL2929556900L
aI97288842
aI66776067
aI1046325901
aL2390396587L
aI182863828
aI1346665327
aL2513333515L
aI921859753
aI123688594
aI547255284
aI319148643
aI118187597
aI342919736
aI120547823
aI1337904764
aI859705728
aI1563410299
aI924970663
aI127249991
aI1069240640
aI40034333
aI606675602
aI394194358
aI235345998
aI40991377
aI298589389
aI41484177
aI73277715
aI73959797
aI400308014
aI15171329
aI35755563
aI27006543
aL2985013655L
aL2411284602L
aL2753470001L
aI749059344
aI1039902565
aI90623638
aI16163761
aI1563354061
aI301471997
aI178790083
aI477020565
aI14297693
aL2223147121L
aL2800760610L
aI595184823
aL2841586997L
aI42802259
aI207660247
aI190765202
aL3135493823L
aI945955489
aI100767876
aL2981062991L
aI403598464
aL3126222538L
aI604281093
aL2149877280L
aI604610969
aI242921389
aL2844641049L
aI805230144
aL2445064535L
aI37941633
aL2159322464L
aL2406186192L
aI27367964
aL2327314973L
aL2494669124L
aI981236256
aL2875817634L
aI635580208
aL2866848993L
aL2548928244L
aI1482282068
aL2907149655L
aL2800070870L
aL2924598544L
aI219032884
aL2557652040L
aI611817117
aI1693586718
aL3109719996L
aL3040744940L
aI125219109
aL2412831349L
aI240086157
aI18780874
aI705366662
aL2992414321L
aI306043018
aI540369464
aI381478558
aL3233260146L
aL3233306852L
aI72595048
aI41739367
aI301806948
aI83515699
aI50013554
aI540628392
aI239462791
aI153053178
aI110356405
aI68237920
aI296899579
aI37564410
aI291259006
aI93763001
aI602391551
aI570079789
aI21770173
aI344653034
aI211577659
aI17355440
aI477030090
aI200663868
aI61127928
aI229260005
aI71330112
aI16001494
aI131995760
aI99412732
aI113552995
aI369132893
aI95362046
aI236428904
aI27761886
aI276480565
aI156222281
aI281122911
aI267675231
aI203787757
aL2577552277L
aI76248626
aasS'followers'
p4
(lp5
(lp6
I300709127
aL4083586037L
aL2964459628L
aI487802162
aI9555372
aL2525579803L
aL2203724526L
aL2502970082L
aL3031588493L
aI376367767
aL2486034890L
aL4125068704L
aL3131387753L
aL4076918835L
aL4086878235L
aL3308266956L
aL3294498285L
aL2828459470L
aL3739474218L
aL3845172440L
aL4032841407L
aI288251675
aI1546577725
aI1676579863
aL3331100733L
aL2341525668L
aL3826996775L
aL3381266386L
aL2836608100L
aI85197520
aL2445064535L
aI989690640
aL3849562934L
aL3364904379L
aL3848259073L
aL2432028553L
aL3152854929L
aL3580374792L
aL3802250778L
aI45415894
aI315875027
aI127967449
aL3835766175L
aL2511925297L
aI48486244
aL3116436392L
aL3690810372L
aL2557652040L
aL2446127467L
aL3644329873L
aL3288942397L
aL3544379172L
aL3245842336L
aL3073241957L
aL3188250680L
aL2773032194L
aL3236761389L
aL3261135510L
aL3260715643L
aL2163493730L
aL2752140987L
aL3487921454L
aL2463816464L
aI316628274
aI316602904
aI316600438
aI316625084
aI472129564
aL3322020138L
aL3426468249L
aI250317700
aL3186161958L
aL3288466519L
aL3138326769L
aL2923244749L
aL2809161682L
aI895615100
aL3421529534L
aL2883020982L
aL3311012648L
aI18906599
aL3230518584L
aI604701612
aI297795505
aL2396930972L
aI902428952
aL2802272246L
aI302310286
aL3213750129L
aL2394624246L
aI805230144
aI25762392
aL3376179132L
aI413704957
aL2608006893L
aI121158213
aI1909489698
aL3247834005L
aL3066075088L
aI517392967
aL2470475939L
aI604281093
aL2172423304L
aL2573551328L
aL2972555345L
aL2156444033L
aI107646745
aL2841981775L
aL3303911342L
aL3364485773L
aL3266617111L
aI69286601
aL3389811555L
aL3289200883L
aI1845191160
aI317562281
aI98619281
aI604610969
aI1531007624
aL2866848993L
aL2533540607L
aI981236256
aI1462240951
aL3351468351L
aL3353884947L
aL2686353036L
aL3353740846L
aI99147325
aI36163019
aL2151977851L
aL3073478049L
aI18258594
aL2534236977L
aI54073091
aL3215876815L
aI635580208
aL2327314973L
aL3196549580L
aI269349491
aL3223170680L
aI1530916794
aL2992414321L
aL3310951834L
aL2898078898L
aL3220748214L
aI611817117
aI444023903
aL2386482290L
aL3126222538L
aI100767876
aL2981062991L
aI705366662
aI27367964
aI945955489
aI381478558
aL3233260146L
aL3233306852L
aasS'obj'
p7
ccopy_reg
_reconstructor
p8
(ctweepy.models
User
p9
c__builtin__
object
p10
Ntp11
Rp12
(dp13
S'follow_request_sent'
p14
NsS'has_extended_profile'
p15
I00
sS'profile_use_background_image'
p16
I00
sS'profile_sidebar_fill_color'
p17
V000000
p18
sS'id'
p19
L3233240202L
sS'verified'
p20
I00
sS'entities'
p21
(dp22
Vdescription
p23
(dp24
Vurls
p25
(lp26
sssS'profile_image_url_https'
p27
Vhttps://pbs.twimg.com/profile_images/606336923557195776/peAkLXXS_normal.jpg
p28
sS'_json'
p29
(dp30
Vfollow_request_sent
p31
NsVhas_extended_profile
p32
I00
sVprofile_use_background_image
p33
I00
sVdefault_profile_image
p34
I00
sVid
p35
L3233240202L
sVprofile_background_image_url_https
p36
Vhttps://abs.twimg.com/images/themes/theme1/bg.png
p37
sVverified
p38
I00
sVprofile_text_color
p39
V000000
p40
sVprofile_image_url_https
p41
g28
sVprofile_sidebar_fill_color
p42
g18
sVentities
p43
g22
sVfollowers_count
p44
I157
sVprofile_sidebar_border_color
p45
V000000
p46
sVid_str
p47
V3233240202
p48
sVprofile_background_color
p49
V9266CC
p50
sVlisted_count
p51
I3
sVstatus
p52
(dp53
Vlang
p54
Ven
p55
sVfavorited
p56
I00
sg43
(dp57
Vsymbols
p58
(lp59
(dp60
Vindices
p61
(lp62
I49
aI54
asVtext
p63
VMOKO
p64
sasVuser_mentions
p65
(lp66
sVhashtags
p67
(lp68
sg25
(lp69
ssVcontributors
p70
NsVtruncated
p71
I00
sg63
VShining on Major News: Moko Social Media Limited $MOKO Valeant
p72
sVcreated_at
p73
VMon Nov 16 08:21:51 +0000 2015
p74
sVretweeted
p75
I00
sVin_reply_to_status_id_str
p76
NsVcoordinates
p77
NsVin_reply_to_user_id_str
p78
NsVsource
p79
V<a href="http://twitter.com" rel="nofollow">Twitter Web Client</a>
p80
sVin_reply_to_status_id
p81
NsVin_reply_to_screen_name
p82
Nsg47
V666169297299894272
p83
sVplace
p84
NsVretweet_count
p85
I0
sVgeo
p86
Nsg35
L666169297299894272L
sVfavorite_count
p87
I0
sVin_reply_to_user_id
p88
NssVis_translation_enabled
p89
I00
sVutc_offset
p90
I-28800
sVstatuses_count
p91
I2963
sg23
VDaily Stocks & Penny Stock News, Tips and Picks.
p92
sVfriends_count
p93
I292
sVlocation
p94
VUnited States
p95
sVprofile_link_color
p96
V9266CC
p97
sVprofile_image_url
p98
Vhttp://pbs.twimg.com/profile_images/606336923557195776/peAkLXXS_normal.jpg
p99
sVfollowing
p100
NsVgeo_enabled
p101
I00
sVprofile_banner_url
p102
Vhttps://pbs.twimg.com/profile_banners/3233240202/1433396944
p103
sVprofile_background_image_url
p104
Vhttp://abs.twimg.com/images/themes/theme1/bg.png
p105
sVscreen_name
p106
VPennyStocksBuzz
p107
sg54
Ven
p108
sVprofile_background_tile
p109
I00
sVfavourites_count
p110
I0
sVname
p111
VPenny Stocks Buzz
p112
sVnotifications
p113
NsVurl
p114
Nsg73
VTue Jun 02 07:27:56 +0000 2015
p115
sVcontributors_enabled
p116
I00
sVtime_zone
p117
VPacific Time (US & Canada)
p118
sVprotected
p119
I00
sVdefault_profile
p120
I00
sVis_translator
p121
I00
ssS'contributors_enabled'
p122
I00
sS'profile_text_color'
p123
g40
sS'followers_count'
p124
I157
sS'profile_sidebar_border_color'
p125
g46
sS'id_str'
p126
g48
sS'default_profile_image'
p127
I00
sS'listed_count'
p128
I3
sS'status'
p129
g8
(ctweepy.models
Status
p130
g10
Ntp131
Rp132
(dp133
S'favorited'
p134
I00
sS'contributors'
p135
NsS'truncated'
p136
I00
sS'text'
p137
g72
sS'source_url'
p138
Vhttp://twitter.com
p139
sS'in_reply_to_status_id'
p140
NsS'geo'
p141
Nsg19
L666169297299894272L
sS'favorite_count'
p142
I0
sS'lang'
p143
g55
sg21
g57
sS'created_at'
p144
cdatetime
datetime
p145
(S'\x07\xdf\x0b\x10\x08\x153\x00\x00\x00'
p146
tp147
Rp148
sg29
g53
sS'coordinates'
p149
NsS'in_reply_to_user_id_str'
p150
NsS'source'
p151
VTwitter Web Client
p152
sS'in_reply_to_status_id_str'
p153
NsS'in_reply_to_screen_name'
p154
Nsg126
g83
sS'retweeted'
p155
I00
sS'place'
p156
NsS'retweet_count'
p157
I0
sS'in_reply_to_user_id'
p158
NsbsS'is_translation_enabled'
p159
I00
sS'utc_offset'
p160
I-28800
sS'statuses_count'
p161
I2963
sS'description'
p162
g92
sS'friends_count'
p163
I292
sS'location'
p164
g95
sS'profile_link_color'
p165
g97
sS'profile_image_url'
p166
g99
sS'notifications'
p167
NsS'geo_enabled'
p168
I00
sS'profile_background_color'
p169
g50
sS'profile_banner_url'
p170
g103
sS'profile_background_image_url'
p171
g105
sS'screen_name'
p172
g107
sg143
g108
sg1
I00
sS'profile_background_tile'
p173
I00
sS'favourites_count'
p174
I0
sS'name'
p175
g112
sS'url'
p176
Nsg144
g145
(S'\x07\xdf\x06\x02\x07\x1b8\x00\x00\x00'
p177
tp178
Rp179
sS'profile_background_image_url_https'
p180
g37
sS'time_zone'
p181
g118
sS'protected'
p182
I00
sS'default_profile'
p183
I00
sS'is_translator'
p184
I00
sbs.