(dp0
S'following'
p1
(lp2
(lp3
I51912109
aI71824428
aI19407053
aI43111757
aI4898091
aI1611543626
aI14293310
aI156651229
aI32359921
aI20562637
aI2097571
aI91478624
aI10080132
aI604281093
aI34713362
aI1877831
aI1108126932
aI195002495
aI59486068
aI15110357
aI902428952
aI52166809
aI28134618
aI18858395
aI69620713
aI20402945
aL2470475939L
aL2502970082L
aI28164923
aI97334517
aI15485461
aI1299253807
aI23059499
aI624413
aI148272213
aI1187422273
aI174965200
aI14886375
aL2381081863L
aL2866848993L
aI989975232
aI141291190
aI25762392
aL2680906279L
aI283167258
aL2396930972L
aI221497409
aI237591901
aL2437532460L
aI121158213
aI37555599
aL2397967218L
aI1945935708
aL3086957776L
aI42802259
aI117103149
aL2326375554L
aI874438663
aI140149665
aL2391775315L
aI1928213371
aI260692993
aI102094857
aI110535828
aL2533540607L
aL2414230128L
aI160746758
aL2185041662L
aL2259383122L
aI252171211
aI292961956
aL3247834005L
aI1861049119
aI102527566
aI114234443
aL2392532711L
aI1711713978
aI444023903
aL3220748214L
aI348026306
aI1857683034
aL3310951834L
aI1530916794
aI215364427
aL3215876815L
aI551532933
aI1333632913
aL3184637045L
aI18258594
aL3223544316L
aI35784526
aI1077087198
aL2956761399L
aL3018809793L
aI425917134
aL2448846697L
aL3351720195L
aI99147325
aL3259813260L
aL3353740846L
aI15897179
aL2802272246L
aI166361927
aI586734515
aI1209303486
aI262144590
aI178790083
aI514835972
aI170428232
aI102819479
aI110356405
aI193838214
aI31546412
aI64405995
aI133483902
aI184726370
aI110454319
aL2409330439L
aI106885045
aI59853587
aI144876165
aI81157050
aI138404716
aI96682182
aI11247222
aI54619128
aI14297693
aI23390520
aI36990709
aI15971805
aI28618757
aI139526643
aL2409507204L
aI527018393
aL2890616938L
aI376367767
aI517392967
aL2869616284L
aL2159322464L
aL2394624246L
aI719670127
aL3196549580L
aI1289738107
aI303531344
aI85693767
aI611817117
aI366783406
aI249492195
aI196423857
aI122072130
aI248261472
aI243919652
aL2421662204L
aI147802129
aL2406186192L
aL2834644707L
aL3021536533L
aL2841586997L
aI1531007624
aI1363248452
aL2416974762L
aL3064606339L
aL2165676145L
aL3295145620L
aL2378143663L
aI132574189
aI114571703
aI1392904566
aI123688594
aI298216692
aI290326941
aI94233426
aI424737500
aI37831315
aI166426445
aI86440284
aI362686656
aI218263996
aI620053201
aI223570534
aI1550403516
aI127249991
aI284198904
aI606675602
aI245954032
aI108539418
aI394194358
aI237482881
aL2799908841L
aL2985013655L
aI302310286
aL2990428712L
aI72595048
aI118840585
aI878541084
aI494124881
aI29494030
aI17355440
aI41414300
aI963181812
aI1629301579
aI15171329
aI859705728
aI156222281
aI234852226
aI106127764
aI123425592
aI169324338
aI540369464
aI1069240640
aI458747417
aL2223147121L
aI1039902565
aI37564410
aI16163761
aI1563354061
aI203787757
aI370478529
aI90623638
aI87206443
aL2480055180L
aI531661927
aI253201236
aI602391551
aI113552995
aI102888635
aI805230144
aI477030090
aI477020565
aI200663868
aI236428904
aI71330112
aI61127928
aI16001494
aI131995760
aI99412732
aI369132893
aI27761886
aI51850569
aI551102170
aI1482521905
aI757436209
aI1354711010
aI254172695
aL2991373267L
aI290220096
aI69617557
aI47512882
aI531919518
aI15246621
aI47706994
aL2445418099L
aI40099128
aL2246415894L
aI100767876
aL2398725398L
aI36378343
aL3309536176L
aL2494669124L
aL2785466463L
aI453548744
aL2854509063L
aI486072725
aL2393825137L
aL2875817634L
aL2842598141L
aL2313088199L
aL2865330121L
aI211577659
aI113308086
aI344653034
aI76117016
aI385195003
aI38568671
aI595184823
aI110352644
aI227441220
aI229260005
aI458989076
aI50013554
aI635580208
aL2361288673L
aI76547516
aL2753440416L
aI733751245
aI108767179
aI1245926706
aI1368520776
aL2385321504L
aI125219109
aI119458852
aI39657128
aI573791529
aI865448352
aI169783301
aI156265151
aI248273853
aI294484896
aI981236256
aI260391995
aL2548928244L
aL2800070870L
aI306043018
aL2412831349L
aL3040744940L
aL3233306852L
aL3233240202L
aI381478558
aasS'followers'
p4
(lp5
(lp6
L4204526074L
aI1583359764
aL2513031072L
aI9555372
aL2502970082L
aI551844887
aI38571405
aL4150513641L
aL2828459470L
aL4125068704L
aL3131387753L
aI376367767
aL4120054337L
aL4076918835L
aL3405443625L
aI48233377
aL3294498285L
aL3739474218L
aL2782845331L
aI396999574
aI1695662876
aL3845172440L
aI288251675
aI1546577725
aL3741164719L
aI1020171044
aI317513242
aI228251293
aL3848259073L
aL3064606339L
aI48797303
aL3152854929L
aI47133303
aI250317700
aL3747518414L
aI127354276
aI118321032
aL2981624516L
aL3166165491L
aI48486244
aI16723753
aL2446127467L
aL2804263123L
aL2330801192L
aL3288942397L
aI1543479715
aL3232447929L
aL3544379172L
aI1966253173
aI324167015
aL3392828963L
aL3241251099L
aL3241283518L
aL2773032194L
aL3236665271L
aL3236798219L
aL2806024341L
aL2752140987L
aL3487921454L
aL3322020138L
aI805230144
aI43111757
aL3186161958L
aL3117294913L
aL3035183896L
aL2972555345L
aL3288466519L
aL3302321857L
aI25762392
aL3421529534L
aL2883020982L
aL3311012648L
aL3230518584L
aI902428952
aL2680906279L
aI227755413
aL3421447753L
aL2686353036L
aI1363248452
aL2773951369L
aI587465720
aL2533540607L
aL2396930972L
aL3376179132L
aI121158213
aI874438663
aL3247834005L
aL2470475939L
aL3434998929L
aL2156444033L
aL3061075964L
aI21014481
aI107646745
aL3303911342L
aL3400088661L
aL3364485773L
aL3086957776L
aI1845191160
aL3389304327L
aL3389811555L
aL3289200883L
aI753817788
aL2497129068L
aI604616126
aL3135493823L
aI198916337
aI715229059
aL3373471337L
aI1531007624
aL2866848993L
aL2253841823L
aL3365162213L
aL3364904379L
aL3351468351L
aL3202257059L
aI1375860338
aL2159322464L
aL2868985002L
aL2890616938L
aI358750258
aL3258090918L
aL2341525668L
aI127967449
aL2941661081L
aL2516029806L
aL2802272246L
aL2394624246L
aL2869616284L
aL3353740846L
aL3259813260L
aI99147325
aL2448846697L
aL3351720195L
aL3018809793L
aL2956761399L
aI18258594
aL3184637045L
aI1333632913
aL3215876815L
aI215364427
aI1530916794
aI348026306
aI1857683034
aL3310951834L
aI611817117
aL3220748214L
aI981236256
aL2416974762L
aI444023903
aL3309536176L
aI36378343
aL2398725398L
aI100767876
aI635580208
aL2385321504L
aL2494669124L
aI381478558
aL3233306852L
aL3233240202L
aasS'obj'
p7
ccopy_reg
_reconstructor
p8
(ctweepy.models
User
p9
c__builtin__
object
p10
Ntp11
Rp12
(dp13
S'follow_request_sent'
p14
NsS'has_extended_profile'
p15
I00
sS'profile_use_background_image'
p16
I00
sS'profile_sidebar_fill_color'
p17
V000000
p18
sS'id'
p19
L3233260146L
sS'verified'
p20
I00
sS'entities'
p21
(dp22
Vdescription
p23
(dp24
Vurls
p25
(lp26
sssS'profile_image_url_https'
p27
Vhttps://pbs.twimg.com/profile_images/605980271070973952/4S8Kw7dR_normal.png
p28
sS'_json'
p29
(dp30
Vfollow_request_sent
p31
NsVhas_extended_profile
p32
I00
sVprofile_use_background_image
p33
I00
sVdefault_profile_image
p34
I00
sVid
p35
L3233260146L
sVprofile_background_image_url_https
p36
Vhttps://abs.twimg.com/images/themes/theme1/bg.png
p37
sVverified
p38
I00
sVprofile_text_color
p39
V000000
p40
sVprofile_image_url_https
p41
g28
sVprofile_sidebar_fill_color
p42
g18
sVentities
p43
g22
sVfollowers_count
p44
I159
sVprofile_sidebar_border_color
p45
V000000
p46
sVid_str
p47
V3233260146
p48
sVprofile_background_color
p49
V000000
p50
sVlisted_count
p51
I3
sVstatus
p52
(dp53
Vlang
p54
Ven
p55
sVfavorited
p56
I00
sg43
(dp57
Vsymbols
p58
(lp59
(dp60
Vindices
p61
(lp62
I32
aI37
asVtext
p63
VPGRE
p64
sasVuser_mentions
p65
(lp66
sVhashtags
p67
(lp68
sg25
(lp69
ssVcontributors
p70
NsVtruncated
p71
I00
sg63
VShares of Paramount Group, Inc. $PGRE Sees Large Inflow of Net Money
p72
sVcreated_at
p73
VMon Nov 16 08:34:15 +0000 2015
p74
sVretweeted
p75
I00
sVin_reply_to_status_id_str
p76
NsVcoordinates
p77
NsVin_reply_to_user_id_str
p78
NsVsource
p79
V<a href="http://twitter.com" rel="nofollow">Twitter Web Client</a>
p80
sVin_reply_to_status_id
p81
NsVin_reply_to_screen_name
p82
Nsg47
V666172417195175936
p83
sVplace
p84
NsVretweet_count
p85
I0
sVgeo
p86
Nsg35
L666172417195175936L
sVfavorite_count
p87
I0
sVin_reply_to_user_id
p88
NssVis_translation_enabled
p89
I00
sVutc_offset
p90
NsVstatuses_count
p91
I3041
sg23
VStocks and Penny Stock News & Picks.
p92
sVfriends_count
p93
I308
sVlocation
p94
VUnited States
p95
sVprofile_link_color
p96
VFA743E
p97
sVprofile_image_url
p98
Vhttp://pbs.twimg.com/profile_images/605980271070973952/4S8Kw7dR_normal.png
p99
sVfollowing
p100
NsVgeo_enabled
p101
I00
sVprofile_banner_url
p102
Vhttps://pbs.twimg.com/profile_banners/3233260146/1433311908
p103
sVprofile_background_image_url
p104
Vhttp://abs.twimg.com/images/themes/theme1/bg.png
p105
sVscreen_name
p106
Vstockpriceblog
p107
sg54
Ven
p108
sVprofile_background_tile
p109
I00
sVfavourites_count
p110
I0
sVname
p111
VStock Price
p112
sVnotifications
p113
NsVurl
p114
Nsg73
VTue Jun 02 08:00:27 +0000 2015
p115
sVcontributors_enabled
p116
I00
sVtime_zone
p117
NsVprotected
p118
I00
sVdefault_profile
p119
I00
sVis_translator
p120
I00
ssS'contributors_enabled'
p121
I00
sS'profile_text_color'
p122
g40
sS'followers_count'
p123
I159
sS'profile_sidebar_border_color'
p124
g46
sS'id_str'
p125
g48
sS'default_profile_image'
p126
I00
sS'listed_count'
p127
I3
sS'status'
p128
g8
(ctweepy.models
Status
p129
g10
Ntp130
Rp131
(dp132
S'favorited'
p133
I00
sS'contributors'
p134
NsS'truncated'
p135
I00
sS'text'
p136
g72
sS'source_url'
p137
Vhttp://twitter.com
p138
sS'in_reply_to_status_id'
p139
NsS'geo'
p140
Nsg19
L666172417195175936L
sS'favorite_count'
p141
I0
sS'lang'
p142
g55
sg21
g57
sS'created_at'
p143
cdatetime
datetime
p144
(S'\x07\xdf\x0b\x10\x08"\x0f\x00\x00\x00'
p145
tp146
Rp147
sg29
g53
sS'coordinates'
p148
NsS'in_reply_to_user_id_str'
p149
NsS'source'
p150
VTwitter Web Client
p151
sS'in_reply_to_status_id_str'
p152
NsS'in_reply_to_screen_name'
p153
Nsg125
g83
sS'retweeted'
p154
I00
sS'place'
p155
NsS'retweet_count'
p156
I0
sS'in_reply_to_user_id'
p157
NsbsS'is_translation_enabled'
p158
I00
sS'utc_offset'
p159
NsS'statuses_count'
p160
I3041
sS'description'
p161
g92
sS'friends_count'
p162
I308
sS'location'
p163
g95
sS'profile_link_color'
p164
g97
sS'profile_image_url'
p165
g99
sS'notifications'
p166
NsS'geo_enabled'
p167
I00
sS'profile_background_color'
p168
g50
sS'profile_banner_url'
p169
g103
sS'profile_background_image_url'
p170
g105
sS'screen_name'
p171
g107
sg142
g108
sg1
I00
sS'profile_background_tile'
p172
I00
sS'favourites_count'
p173
I0
sS'name'
p174
g112
sS'url'
p175
Nsg143
g144
(S'\x07\xdf\x06\x02\x08\x00\x1b\x00\x00\x00'
p176
tp177
Rp178
sS'profile_background_image_url_https'
p179
g37
sS'time_zone'
p180
NsS'protected'
p181
I00
sS'default_profile'
p182
I00
sS'is_translator'
p183
I00
sbs.