(dp0
S'following'
p1
(lp2
(lp3
L4088243776L
aL4151483541L
aI520314699
aI30344426
aI56562803
aI1710345565
aI109065990
aI18208354
aL2834366780L
aI514835972
aI14297693
aL3245211323L
aL3251860073L
aL3287075953L
aL3310849388L
aL3312790702L
aL3336811883L
aL3375864669L
aL3389088551L
aL3389486308L
aL3400612989L
aL3423508061L
aL3424085667L
aL3424509196L
aI69350553
aL2478600722L
aI309977871
aL2522443332L
aL2826765848L
aL2456862470L
aL2492833240L
aL3201758686L
aL3370350239L
aI406740480
aI1657022528
aL2385465875L
aI524732173
aL2571672396L
aI1621638852
aI443918542
aI1689434408
aI1162963999
aI90717768
aI49620233
aI193838214
aI1370845128
aL2409330439L
aI1328994019
aI18120133
aI27762318
aI955733059
aI1217108497
aI236953420
aI59853587
aI168679374
aI31546412
aI15971805
aI23390520
aI81157050
aI31339252
aI1423497067
aI16926413
aI627436907
aL2263196432L
aI1059157682
aI757712755
aL2432716338L
aI410451474
aL2937883563L
aI264624088
aL2404842277L
aI15080967
aL3157497029L
aL2342527745L
aL2552293106L
aL2842115931L
aI1286540352
aL3177303368L
aI1289738107
aL2914749442L
aL2983490230L
aL2426346895L
aI416898719
aI422982642
aL2932944910L
aL2596733009L
aI54307047
aI1888644360
aL3223544316L
aI36894359
aL2484654732L
aL3003838876L
aL2767440921L
aL2350920446L
aI390728521
aL3242053186L
aL2165171784L
aI1393603976
aI788333744
aL2482710715L
aI1228537610
aL2595519847L
aL2341525668L
aI227070376
aL2259383122L
aL2411689705L
aL2315975940L
aL2263844414L
aI47247213
aL2678090893L
aL2941661081L
aL3121353336L
aI61216389
aI138404716
aL3345828651L
aL3258972614L
aI332643729
aI118911750
aL2694928619L
aI11247222
aI1337785291
aL2274706375L
aI224098863
aI775319148
aI790062926
aI96721245
aI498404030
aI1450167168
aI237591901
aI1551826970
aI17549691
aL2479077440L
aL2607477037L
aI110482707
aL2582065263L
aL2392142848L
aL3151118416L
aL3300222387L
aI18949452
aL2381081863L
aI1205993845
aI435092084
aI140149665
aI624413
aI14511951
aI5402612
aI24752484
aI30313925
aI5988062
aI91478624
aI807095
aasS'followers'
p4
(lp5
(lp6
L4230275354L
aL2281668660L
aL2513031072L
aL3577713198L
aL4147237933L
aL3585883754L
aL4088243776L
aL4151483541L
aI627765164
aL3719829135L
aL3515172263L
aI1069604516
aL2381161098L
aL4100360193L
aI100185304
aL4086231701L
aL3102506998L
aL2396930972L
aL3656521044L
aI1695662876
aL3883704746L
aI1183755601
aL4043566468L
aL3241380328L
aI611168019
aL2432028553L
aL2159322464L
aI283865649
aL2445064535L
aL2825601882L
aI535820057
aL3487921454L
aI583123413
aI1092267594
aI466831589
aI459051859
aL3050222043L
aI520314699
aI30344426
aL3599906062L
aL2183533864L
aI139493211
aI762917023
aL3331655163L
aL3029314479L
aL3330413428L
aL3439428635L
aI34478775
aL3293662579L
aI53699136
aI105881034
aI1406360126
aI1173501552
aI724661646
aL3309232460L
aI122486407
aL2834366780L
aL3424509196L
aI245901589
aL3318140420L
aI625933983
aI863824434
aI1033452018
aL3370350239L
aL3201758686L
aI1052880348
aL2413317415L
aI79460834
aI199140803
aI260106150
aL3118725498L
aL3309936997L
aI1949322637
aI288951097
aI10987252
aI23390520
aI166414647
aI1861049119
aL2364689448L
aL3001462518L
aI1529118006
aI264624088
aI15080967
aL3157497029L
aI100275218
aI1286540352
aI140149665
aL3298628798L
aL3177303368L
aL3287724498L
aI96645214
aL3386088389L
aL2426346895L
aL2596733009L
aL2932944910L
aI1975182792
aL3193539926L
aL2817313055L
aI36894359
aL3003838876L
aI444023903
aL3300123635L
aL2350920446L
aL3359563055L
aL2165171784L
aL2981104565L
aI1393603976
aI788333744
aL2981421573L
aL2341525668L
aL3271449260L
aL2263844414L
aL2800402509L
aL2678090893L
aL2941661081L
aL2857323629L
aI23947213
aI422982642
aI1605519462
aI449479596
aL3309299182L
aL3240039260L
aI54307047
aasS'obj'
p7
ccopy_reg
_reconstructor
p8
(ctweepy.models
User
p9
c__builtin__
object
p10
Ntp11
Rp12
(dp13
S'follow_request_sent'
p14
I00
sS'has_extended_profile'
p15
I00
sS'profile_use_background_image'
p16
I00
sS'profile_sidebar_fill_color'
p17
V000000
p18
sS'id'
p19
L3234098054L
sS'verified'
p20
I00
sS'entities'
p21
(dp22
Vurl
p23
(dp24
Vurls
p25
(lp26
(dp27
g23
Vhttp://t.co/x7XfFheum6
p28
sVindices
p29
(lp30
I0
aI22
asVexpanded_url
p31
Vhttp://www.greenculturepodcast.com/
p32
sVdisplay_url
p33
Vgreenculturepodcast.com
p34
sassVdescription
p35
(dp36
g25
(lp37
sssS'profile_image_url_https'
p38
Vhttps://pbs.twimg.com/profile_images/608690235744997376/MeHVxs6p_normal.jpg
p39
sS'_json'
p40
(dp41
Vfollow_request_sent
p42
I00
sVhas_extended_profile
p43
I00
sVprofile_use_background_image
p44
I00
sVdefault_profile_image
p45
I00
sVid
p46
L3234098054L
sVprofile_background_image_url_https
p47
Vhttps://abs.twimg.com/images/themes/theme1/bg.png
p48
sVverified
p49
I00
sVprofile_text_color
p50
V000000
p51
sVprofile_image_url_https
p52
g39
sVprofile_sidebar_fill_color
p53
g18
sVentities
p54
g22
sVfollowers_count
p55
I123
sVprofile_sidebar_border_color
p56
V000000
p57
sVid_str
p58
V3234098054
p59
sVprofile_background_color
p60
V000000
p61
sVlisted_count
p62
I10
sVstatus
p63
(dp64
Vcontributors
p65
NsVtruncated
p66
I00
sVtext
p67
VRT @KitDaniels1776: Video: Why Leftists Hate Thomas Jefferson &amp; why YOU should defend him: https://t.co/GQhETi7Udp #mizzou #tcot #tlot http\u2026
p68
sVin_reply_to_status_id
p69
Nsg46
L665170926779150336L
sVfavorite_count
p70
I0
sVsource
p71
V<a href="http://twitter.com" rel="nofollow">Twitter Web Client</a>
p72
sVretweeted
p73
I00
sVcoordinates
p74
Nsg54
(dp75
Vsymbols
p76
(lp77
sVuser_mentions
p78
(lp79
(dp80
g46
L2728672957L
sg29
(lp81
I3
aI18
asg58
V2728672957
p82
sVscreen_name
p83
VKitDaniels1776
p84
sVname
p85
VKit Daniels
p86
sasVhashtags
p87
(lp88
(dp89
g29
(lp90
I119
aI126
asg67
Vmizzou
p91
sa(dp92
g29
(lp93
I127
aI132
asg67
Vtcot
p94
sa(dp95
g29
(lp96
I133
aI138
asg67
Vtlot
p97
sasg25
(lp98
(dp99
g23
Vhttps://t.co/GQhETi7Udp
p100
sg29
(lp101
I95
aI118
asg31
Vhttp://bit.ly/1HMzkqc
p102
sg33
Vbit.ly/1HMzkqc
p103
sasVmedia
p104
(lp105
(dp106
Vsource_user_id
p107
L2728672957L
sVsource_status_id_str
p108
V665169137665118208
p109
sg31
Vhttp://twitter.com/KitDaniels1776/status/665169137665118208/photo/1
p110
sg33
Vpic.twitter.com/zGOExpf9yC
p111
sg23
Vhttps://t.co/zGOExpf9yC
p112
sVmedia_url_https
p113
Vhttps://pbs.twimg.com/media/CTsnzjkUkAApsX5.jpg
p114
sVsource_user_id_str
p115
V2728672957
p116
sVsource_status_id
p117
L665169137665118208L
sg58
V665169136641675264
p118
sVsizes
p119
(dp120
Vsmall
p121
(dp122
Vh
p123
I178
sVresize
p124
Vfit
p125
sVw
p126
I340
ssVlarge
p127
(dp128
g123
I420
sg124
Vfit
p129
sg126
I800
ssVmedium
p130
(dp131
g123
I315
sg124
Vfit
p132
sg126
I600
ssVthumb
p133
(dp134
g123
I150
sg124
Vcrop
p135
sg126
I150
sssg29
(lp136
I143
aI144
asVtype
p137
Vphoto
p138
sg46
L665169136641675264L
sVmedia_url
p139
Vhttp://pbs.twimg.com/media/CTsnzjkUkAApsX5.jpg
p140
sassVin_reply_to_screen_name
p141
Nsg58
V665170926779150336
p142
sVretweet_count
p143
I78
sVin_reply_to_user_id
p144
NsVfavorited
p145
I00
sVretweeted_status
p146
(dp147
g65
Nsg66
I00
sg67
VVideo: Why Leftists Hate Thomas Jefferson &amp; why YOU should defend him: https://t.co/GQhETi7Udp #mizzou #tcot #tlot https://t.co/zGOExpf9yC
p148
sg69
Nsg46
L665169137665118208L
sg70
I72
sg71
V<a href="http://twitter.com" rel="nofollow">Twitter Web Client</a>
p149
sg73
I00
sg74
Nsg54
(dp150
g76
(lp151
sg78
(lp152
sg87
(lp153
(dp154
g29
(lp155
I99
aI106
asg67
Vmizzou
p156
sa(dp157
g29
(lp158
I107
aI112
asg67
Vtcot
p159
sa(dp160
g29
(lp161
I113
aI118
asg67
Vtlot
p162
sasg25
(lp163
(dp164
g23
Vhttps://t.co/GQhETi7Udp
p165
sg29
(lp166
I75
aI98
asg31
Vhttp://bit.ly/1HMzkqc
p167
sg33
Vbit.ly/1HMzkqc
p168
sasg104
(lp169
(dp170
g31
Vhttp://twitter.com/KitDaniels1776/status/665169137665118208/photo/1
p171
sg33
Vpic.twitter.com/zGOExpf9yC
p172
sg23
Vhttps://t.co/zGOExpf9yC
p173
sg113
Vhttps://pbs.twimg.com/media/CTsnzjkUkAApsX5.jpg
p174
sg58
V665169136641675264
p175
sg119
(dp176
g121
(dp177
g123
I178
sg124
Vfit
p178
sg126
I340
ssg127
(dp179
g123
I420
sg124
Vfit
p180
sg126
I800
ssg130
(dp181
g123
I315
sg124
Vfit
p182
sg126
I600
ssg133
(dp183
g123
I150
sg124
Vcrop
p184
sg126
I150
sssg29
(lp185
I119
aI142
asg137
Vphoto
p186
sg46
L665169136641675264L
sg139
Vhttp://pbs.twimg.com/media/CTsnzjkUkAApsX5.jpg
p187
sassg141
Nsg58
V665169137665118208
p188
sg143
I78
sg144
Nsg145
I00
sVgeo
p189
NsVin_reply_to_user_id_str
p190
NsVpossibly_sensitive
p191
I00
sVlang
p192
Ven
p193
sVcreated_at
p194
VFri Nov 13 14:07:35 +0000 2015
p195
sVin_reply_to_status_id_str
p196
NsVplace
p197
Nssg189
Nsg190
Nsg191
I00
sg192
Ven
p198
sg194
VFri Nov 13 14:14:41 +0000 2015
p199
sg196
Nsg197
NssVis_translation_enabled
p200
I00
sVutc_offset
p201
NsVstatuses_count
p202
I893
sg35
Vtrader. take daily notes on the market& tickers. understand charts& be a little creative then u will be a solid trader.No one cares about your money more than u
p203
sVfriends_count
p204
I151
sVlocation
p205
VCharlotte, NC
p206
sVprofile_link_color
p207
V94D487
p208
sVprofile_image_url
p209
Vhttp://pbs.twimg.com/profile_images/608690235744997376/MeHVxs6p_normal.jpg
p210
sVfollowing
p211
I00
sVgeo_enabled
p212
I00
sVprofile_banner_url
p213
Vhttps://pbs.twimg.com/profile_banners/3234098054/1433957939
p214
sVprofile_background_image_url
p215
Vhttp://abs.twimg.com/images/themes/theme1/bg.png
p216
sg83
VGCulturePodcast
p217
sg192
Ven
p218
sVprofile_background_tile
p219
I00
sVfavourites_count
p220
I144
sg85
VGreenCulturePodcast
p221
sVnotifications
p222
I00
sg23
Vhttp://t.co/x7XfFheum6
p223
sg194
VTue Jun 02 20:12:11 +0000 2015
p224
sVcontributors_enabled
p225
I00
sVtime_zone
p226
NsVprotected
p227
I00
sVdefault_profile
p228
I00
sVis_translator
p229
I00
ssS'contributors_enabled'
p230
I00
sS'profile_text_color'
p231
g51
sS'followers_count'
p232
I123
sS'profile_sidebar_border_color'
p233
g57
sS'id_str'
p234
g59
sS'default_profile_image'
p235
I00
sS'listed_count'
p236
I10
sS'status'
p237
g8
(ctweepy.models
Status
p238
g10
Ntp239
Rp240
(dp241
S'favorited'
p242
I00
sS'contributors'
p243
NsS'truncated'
p244
I00
sS'text'
p245
g68
sS'source_url'
p246
Vhttp://twitter.com
p247
sS'possibly_sensitive'
p248
I00
sS'in_reply_to_status_id'
p249
NsS'geo'
p250
Nsg19
L665170926779150336L
sS'favorite_count'
p251
I0
sS'lang'
p252
g198
sS'retweeted_status'
p253
g8
(g238
g10
Ntp254
Rp255
(dp256
g242
I00
sg243
Nsg244
I00
sg245
g148
sg246
Vhttp://twitter.com
p257
sg248
I00
sg249
Nsg250
Nsg19
L665169137665118208L
sg251
I72
sg252
g193
sg21
g150
sS'created_at'
p258
cdatetime
datetime
p259
(S'\x07\xdf\x0b\r\x0e\x07#\x00\x00\x00'
p260
tp261
Rp262
sg40
g147
sS'coordinates'
p263
NsS'in_reply_to_user_id_str'
p264
NsS'source'
p265
VTwitter Web Client
p266
sS'in_reply_to_status_id_str'
p267
NsS'in_reply_to_screen_name'
p268
Nsg234
g188
sS'retweeted'
p269
I00
sS'place'
p270
NsS'retweet_count'
p271
I78
sS'in_reply_to_user_id'
p272
Nsbsg21
g75
sg258
g259
(S'\x07\xdf\x0b\r\x0e\x0e)\x00\x00\x00'
p273
tp274
Rp275
sg40
g64
sg263
Nsg264
Nsg265
VTwitter Web Client
p276
sg267
Nsg268
Nsg234
g142
sg269
I00
sg270
Nsg271
I78
sg272
NsbsS'is_translation_enabled'
p277
I00
sS'utc_offset'
p278
NsS'statuses_count'
p279
I893
sS'description'
p280
g203
sS'friends_count'
p281
I151
sS'location'
p282
g206
sS'profile_link_color'
p283
g208
sS'profile_image_url'
p284
g210
sS'notifications'
p285
I00
sS'geo_enabled'
p286
I00
sS'profile_background_color'
p287
g61
sS'profile_banner_url'
p288
g214
sS'profile_background_image_url'
p289
g216
sS'screen_name'
p290
g217
sg252
g218
sg1
I00
sS'profile_background_tile'
p291
I00
sS'favourites_count'
p292
I144
sS'name'
p293
g221
sS'url'
p294
g223
sg258
g259
(S'\x07\xdf\x06\x02\x14\x0c\x0b\x00\x00\x00'
p295
tp296
Rp297
sS'profile_background_image_url_https'
p298
g48
sS'time_zone'
p299
NsS'protected'
p300
I00
sS'default_profile'
p301
I00
sS'is_translator'
p302
I00
sbs.