(dp0
S'following'
p1
(lp2
(lp3
I47247213
aI20751449
aI25073877
aI91895951
aI53215424
aI28445389
aI14115408
aI15954704
aI256495314
aI14297693
aI61342056
aI18856867
aI41458395
aI14292717
aI23390520
aI17673635
aI50279781
aI15568127
aI14886375
aI16732770
aI161318053
aI4898091
aI81157050
aI15281391
aI37555599
aI19739279
aI260692993
aI416311594
aI14216123
aI237591901
aI22205952
aI43855487
aI18424289
aI15971805
aI4970411
aI14800270
aI39743812
aI1652541
aI35826330
aI37034483
aI125210248
aI18646108
aI16032925
aI22522178
aI1367531
aI475524030
aI18665800
aI55561590
aI154346268
aI193838214
aI6017542
aI2884771
aI85693767
aI1187422273
aI11014272
aI96682182
aI102527566
aI20402945
aI51241574
aI1754641
aI20562637
aI28140646
aI192589455
aI28164923
aI58896265
aI18949452
aI31546412
aI34713362
aI20727819
aI114234443
aI47383148
aI470438993
aI141291190
aI11247222
aI14840869
aI23560015
aI71824428
aI166361927
aI14497313
aI20255162
aI15291335
aI21904217
aI203162990
aI23990483
aI755953153
aI16537989
aI631478663
aI26585095
aI50012439
aI36990709
aI16664681
aI15754281
aI28785486
aI15012486
aI14173315
aI2097571
aI87818409
aI428333
aI377714371
aI759251
aI14293310
aI2467791
aI807095
aI26922633
aI5988062
aI3108351
aI67358777
aI25053299
aI205789121
aI91478624
aI16184358
aI19546277
aI40099128
aI39085071
aI51912109
aI254207829
aI34837057
aI15130891
aI72907355
aI17991579
aI17549691
aL2250999025L
aI390728521
aI1531007624
aL3210527171L
aL2325286004L
aI1530916794
aI1845191160
aL2849850960L
aL2156444033L
aI133808487
aI234964470
aI468011311
aL2223147121L
aL2321323537L
aI143263612
aI123686763
aI59900997
aI385195003
aI296626424
aI42239492
aI309781553
aI378105227
aI229334302
aI27006543
aL2203759328L
aI68237920
aI56599691
aI296899579
aI37564410
aI16163761
aI510743569
aI203787757
aI1039902565
aI72976950
aI291259006
aI91408809
aI93763001
aI282941979
aI102888635
aI602391551
aI805230144
aI570079789
aI21770173
aI113308086
aI211577659
aI281122911
aI344653034
aI17355440
aI15171329
aI859705728
aI477030090
aI156222281
aI477020565
aI200663868
aI227441220
aI61127928
aI71330112
aI229260005
aI131995760
aI16001494
aI76117016
aI369132893
aI113552995
aI99412732
aI236428904
aI95362046
aI27761886
aI119456978
aI98815583
aI846897578
aI357389251
aasS'followers'
p4
(lp5
(lp6
L4204526074L
aL2987561118L
aL2906862160L
aL3983905634L
aL4125068704L
aL4120054337L
aL4086878235L
aI396999574
aI29781852
aI1594661738
aI325925520
aL2781050528L
aL3251139068L
aI18548136
aL3848259073L
aL3608005214L
aL3654675193L
aL3654942254L
aL3641396058L
aL3656094314L
aI35784526
aL3654063553L
aL3653970913L
aI91114089
aL3645288312L
aL3585886813L
aL3026698578L
aI241645319
aI250317700
aL2837882056L
aL3751923322L
aI1670698730
aL3644329873L
aL3619401618L
aI1020104557
aI100767876
aI370119419
aI330595077
aI989660850
aL2341525668L
aL3236799779L
aL3232131419L
aL3261135510L
aL3260715643L
aL2752140987L
aL3184637045L
aI317562281
aL3269537256L
aL3306931399L
aI1375860338
aI995324587
aL3117294913L
aL3270358458L
aL3308266956L
aI214813651
aL3421529534L
aL3126387366L
aL3317324402L
aI227755413
aI218546245
aL2773001652L
aL3331469596L
aL2156444033L
aL3303911342L
aL3266617111L
aI69286601
aI1845191160
aL3389811555L
aI1530916794
aL2325286004L
aL3210527171L
aI1531007624
aL2981104565L
aL3353884947L
aasS'obj'
p7
ccopy_reg
_reconstructor
p8
(ctweepy.models
User
p9
c__builtin__
object
p10
Ntp11
Rp12
(dp13
S'follow_request_sent'
p14
NsS'has_extended_profile'
p15
I00
sS'profile_use_background_image'
p16
I00
sS'profile_sidebar_fill_color'
p17
V000000
p18
sS'id'
p19
L3241154011L
sS'verified'
p20
I00
sS'entities'
p21
(dp22
Vurl
p23
(dp24
Vurls
p25
(lp26
(dp27
g23
Vhttps://t.co/OfovyqZoG6
p28
sVindices
p29
(lp30
I0
aI23
asVexpanded_url
p31
Vhttps://twitter.com/TipsPennyStocks
p32
sVdisplay_url
p33
Vtwitter.com/TipsPennyStocks
p34
sassVdescription
p35
(dp36
g25
(lp37
sssS'profile_image_url_https'
p38
Vhttps://pbs.twimg.com/profile_images/608537265141186560/LUvEptKU_normal.jpg
p39
sS'_json'
p40
(dp41
Vfollow_request_sent
p42
NsVhas_extended_profile
p43
I00
sVprofile_use_background_image
p44
I00
sVdefault_profile_image
p45
I00
sVid
p46
L3241154011L
sVprofile_background_image_url_https
p47
Vhttps://abs.twimg.com/images/themes/theme1/bg.png
p48
sVverified
p49
I00
sVprofile_text_color
p50
V000000
p51
sVprofile_image_url_https
p52
g39
sVprofile_sidebar_fill_color
p53
g18
sVentities
p54
g22
sVfollowers_count
p55
I74
sVprofile_sidebar_border_color
p56
V000000
p57
sVid_str
p58
V3241154011
p59
sVprofile_background_color
p60
V000000
p61
sVlisted_count
p62
I6
sVstatus
p63
(dp64
Vlang
p65
Ven
p66
sVfavorited
p67
I00
sg54
(dp68
Vsymbols
p69
(lp70
(dp71
g29
(lp72
I37
aI42
asVtext
p73
VSPHS
p74
sasVuser_mentions
p75
(lp76
sVhashtags
p77
(lp78
sg25
(lp79
ssVcontributors
p80
NsVtruncated
p81
I00
sg73
VCompany Shares of Sophiris Bio, Inc. $SPHS Drops by -4.44%
p82
sVcreated_at
p83
VMon Nov 16 08:45:29 +0000 2015
p84
sVretweeted
p85
I00
sVin_reply_to_status_id_str
p86
NsVcoordinates
p87
NsVin_reply_to_user_id_str
p88
NsVsource
p89
V<a href="http://twitter.com" rel="nofollow">Twitter Web Client</a>
p90
sVin_reply_to_status_id
p91
NsVin_reply_to_screen_name
p92
Nsg58
V666175244978122752
p93
sVplace
p94
NsVretweet_count
p95
I0
sVgeo
p96
Nsg46
L666175244978122752L
sVfavorite_count
p97
I1
sVin_reply_to_user_id
p98
NssVis_translation_enabled
p99
I00
sVutc_offset
p100
NsVstatuses_count
p101
I2507
sg35
VTips on Penny Stocks and Penny Stock Picks.
p102
sVfriends_count
p103
I192
sVlocation
p104
VUnited States
p105
sVprofile_link_color
p106
VFFCC4D
p107
sVprofile_image_url
p108
Vhttp://pbs.twimg.com/profile_images/608537265141186560/LUvEptKU_normal.jpg
p109
sVfollowing
p110
NsVgeo_enabled
p111
I00
sVprofile_banner_url
p112
Vhttps://pbs.twimg.com/profile_banners/3241154011/1433921458
p113
sVprofile_background_image_url
p114
Vhttp://abs.twimg.com/images/themes/theme1/bg.png
p115
sVscreen_name
p116
VTipsPennyStocks
p117
sg65
Ven
p118
sVprofile_background_tile
p119
I00
sVfavourites_count
p120
I0
sVname
p121
VPenny Stocks Tips
p122
sVnotifications
p123
Nsg23
Vhttps://t.co/OfovyqZoG6
p124
sg83
VWed Jun 10 07:23:38 +0000 2015
p125
sVcontributors_enabled
p126
I00
sVtime_zone
p127
NsVprotected
p128
I00
sVdefault_profile
p129
I00
sVis_translator
p130
I00
ssS'contributors_enabled'
p131
I00
sS'profile_text_color'
p132
g51
sS'followers_count'
p133
I74
sS'profile_sidebar_border_color'
p134
g57
sS'id_str'
p135
g59
sS'default_profile_image'
p136
I00
sS'listed_count'
p137
I6
sS'status'
p138
g8
(ctweepy.models
Status
p139
g10
Ntp140
Rp141
(dp142
S'favorited'
p143
I00
sS'contributors'
p144
NsS'truncated'
p145
I00
sS'text'
p146
g82
sS'source_url'
p147
Vhttp://twitter.com
p148
sS'in_reply_to_status_id'
p149
NsS'geo'
p150
Nsg19
L666175244978122752L
sS'favorite_count'
p151
I1
sS'lang'
p152
g66
sg21
g68
sS'created_at'
p153
cdatetime
datetime
p154
(S'\x07\xdf\x0b\x10\x08-\x1d\x00\x00\x00'
p155
tp156
Rp157
sg40
g64
sS'coordinates'
p158
NsS'in_reply_to_user_id_str'
p159
NsS'source'
p160
VTwitter Web Client
p161
sS'in_reply_to_status_id_str'
p162
NsS'in_reply_to_screen_name'
p163
Nsg135
g93
sS'retweeted'
p164
I00
sS'place'
p165
NsS'retweet_count'
p166
I0
sS'in_reply_to_user_id'
p167
NsbsS'is_translation_enabled'
p168
I00
sS'utc_offset'
p169
NsS'statuses_count'
p170
I2507
sS'description'
p171
g102
sS'friends_count'
p172
I192
sS'location'
p173
g105
sS'profile_link_color'
p174
g107
sS'profile_image_url'
p175
g109
sS'notifications'
p176
NsS'geo_enabled'
p177
I00
sS'profile_background_color'
p178
g61
sS'profile_banner_url'
p179
g113
sS'profile_background_image_url'
p180
g115
sS'screen_name'
p181
g117
sg152
g118
sg1
I00
sS'profile_background_tile'
p182
I00
sS'favourites_count'
p183
I0
sS'name'
p184
g122
sS'url'
p185
g124
sg153
g154
(S'\x07\xdf\x06\n\x07\x17&\x00\x00\x00'
p186
tp187
Rp188
sS'profile_background_image_url_https'
p189
g48
sS'time_zone'
p190
NsS'protected'
p191
I00
sS'default_profile'
p192
I00
sS'is_translator'
p193
I00
sbs.