(dp0
S'following'
p1
(lp2
(lp3
I19537303
aI20015311
aI1429761
aI44409004
aI5988062
aI33933259
aI500704345
aI17471979
aI20609518
aI1652541
aI16561884
aI783214
aI15846407
aI586198217
aI19110632
aI25087685
aI90420314
aI64827034
aI213474069
aI11348282
aI26257166
aI15492359
aI23083404
aI158079127
aI621543
aI813286
aI15485441
aI21447363
aI136361303
aI79293791
aI17446277
aI14230524
aI17919972
aI14224719
aI34197952
aI19195914
aI32765534
aI19923144
aI16365636
aasS'followers'
p4
(lp5
(lp6
L3340292110L
aL2588930520L
aL3714970586L
aL3022507674L
aI15779689
aI480895731
aI22781679
aL4215261138L
aL3404496304L
aI1248238266
aL4158670209L
aL2207474905L
aL3993143686L
aL3313088479L
aL2372558498L
aL4012259608L
aL3992785402L
aL4012698435L
aL4012557635L
aL3032792600L
aL2255073300L
aL2963041053L
aI118048884
aL3936263247L
aI159982297
aL3162319070L
aL4109685195L
aL3379196824L
aL3225923760L
aI385012842
aL2471197346L
aI301645664
aL3023602393L
aI1260842239
aL3022512720L
aL4051538837L
aI1170126072
aL3992950637L
aL3416912481L
aI1108555303
aI1243222531
aI1388807780
aI889829286
aI198567213
aL3027961389L
aI448146193
aL3811007054L
aL2476562707L
aI133651757
aL3044887641L
aI35778964
aL3198761433L
aI381982408
aL3094540755L
aL3063310546L
aL4120078699L
aL4109140881L
aI1924312855
aI135590102
aI22870443
aI1861663298
aL3420920369L
aL3362780892L
aL3590379202L
aL3294235199L
aL2321798928L
aL4109697221L
aI149464892
aI1924167116
aL3028019716L
aI141683122
aI129387034
aI1241909060
aL4158382473L
aI462595271
aL3874559301L
aI1243167092
aI345739003
aL3401089731L
aI46691793
aI109272922
aL3513165316L
aL2891555988L
aL3913092556L
aL4140426314L
aI73400163
aI1884434918
aL3405326331L
aI1884800132
aI1105391281
aL3937561997L
aL3518589553L
aI1486159278
aI71347513
aL2491807898L
aI565815205
aI392849599
aL3149400194L
aL3233024092L
aL3049283884L
aL4084547247L
aL3405026375L
aL3213136127L
aL2600716538L
aL3094810149L
aI485772084
aI124949619
aL4099574472L
aL4116086795L
aL3333243233L
aL3429120359L
aL3415808523L
aL3261230629L
aI538008314
aI749012797
aL3484066522L
aL3270455018L
aL3059384337L
aL2348914226L
aI319782044
aL3412257742L
aL3756465797L
aI330196261
aI342177766
aI619866754
aL3239242570L
aI95806508
aI16423399
aI118758308
aL4089157701L
aI1108934718
aL3139956264L
aL2959507718L
aL3954003134L
aI50925084
aL3298199951L
aL3907207094L
aL3947270356L
aL3947010916L
aI18220809
aI1262277042
aL3854311035L
aI1398704053
aL2867702523L
aL3151995481L
aI27288273
aL3962946020L
aL3505100866L
aL2571418411L
aL2957961910L
aI88725039
aL3243332013L
aL3244944957L
aI918415080
aI444994317
aI1406016259
aI552689362
aI69906905
aI95161021
aL3431203333L
aL3418546072L
aL2201177178L
aL3525481454L
aL3751953012L
aI65236628
aI1884628062
aL2182036287L
aL3582812063L
aL3947413216L
aL3137881226L
aL2319502418L
aI18548136
aL2259832457L
aL3283144297L
aL3300470351L
aI973973316
aL3032961721L
aI14400622
aI450487058
aI24281462
aI15957929
aL2578384812L
aL2464128654L
aI1614422946
aL3246350061L
aI1566548371
aL2490609068L
aL3795097812L
aI1709516838
aL3133851107L
aL3691613415L
aI266213318
aL3422499814L
aL3302307112L
aL3664851554L
aL3614591900L
aI15244628
aI9555372
aL3244601205L
aL3801915318L
aL3632930774L
aL3296290003L
aL2217961488L
aL3666989653L
aL3310786093L
aI83685210
aL3297950700L
aL3396885959L
aI345343418
aI1234641500
aL3862355902L
aI392353435
aL2510535344L
aI21825193
aI118724791
aI189769454
aI117664341
aL3246345215L
aL2992046881L
aI117662971
aI637225103
aI118388422
aI118350908
aL3323364695L
aI118390354
aI17617767
aI20341149
aI118350581
aL3646809612L
aL3280038121L
aL3669470474L
aL3085568679L
aI118365464
aL3611898372L
aL3697104615L
aL3432784061L
aL2877382181L
aI118168968
aL3485717957L
aI60947093
aI251597780
aI777940946
aL3333254565L
aL3438139067L
aI155991469
aI64531735
aL3740173173L
aL3116826721L
aL2831243034L
aI88684138
aI391173687
aL3535168212L
aL3677334502L
aL3401226598L
aL3585801194L
aL3585716594L
aL2180331641L
aI237404879
aL3558991935L
aL3188281777L
aL3077948288L
aL3466241534L
aL3489913032L
aL3435452713L
aL2163282018L
aL3452743576L
aI107735181
aI122057563
aI121703559
aI121456966
aI122227701
aI121939021
aI107731077
aI122304857
aI121462844
aI122354095
aI123538913
aI109782835
aI121938791
aI121463537
aI122058633
aI123133382
aI123219983
aI122354449
aI36894359
aL2839570704L
aL2761977526L
aL3323104193L
aL3506271929L
aL3485861535L
aL3390154535L
aL3436876572L
aI1396365038
aL3382443798L
aL2749734149L
aL2843599991L
aI15972374
aL3279894745L
aL3324254591L
aL3366881473L
aI455677699
aL2672924254L
aL2974873634L
aL3473532375L
aL3322667447L
aI117134515
aL3377087129L
aI308566315
aL3088079387L
aL2726964234L
aI710888766
aI448590097
aL2672920311L
aL2780752735L
aI67786857
aL2673002813L
aI245514731
aI1001432714
aI359542061
aI46688883
aI21759987
aL3381990058L
aL3395598647L
aI276499445
aI291535930
aI152005487
aL3399439972L
aI21488204
aL3044894272L
aL3310557733L
aI127618228
aL2908351759L
aI1093327717
aL2445139404L
aI23999855
aI867356468
aL3311756684L
aI487627380
aL3409451313L
aL3269939286L
aI15397465
aL3296368663L
aL2970705001L
aL2825689713L
aI111659710
aL2899830932L
aL3392347685L
aL3220913532L
aL3323982189L
aI233425639
aI915366343
aL2822468386L
aI117883251
aL3218958163L
aL2601340268L
aI93335301
aL3259685112L
aL2426702070L
aL3267000230L
aL3266978052L
aL3264945620L
aI67507275
aI568143212
aI572352450
aL2787520623L
aL2992106160L
aI117740758
aI104661998
aI886931174
aL3019091629L
aI272370187
aI593792979
aI96368598
aI1558956043
aL2547365834L
aL3382996101L
aL3380309091L
aI1110056330
aL2359028480L
aI255985145
aI34963344
aI1607897383
aL2822501902L
aL3358839059L
aL2326444078L
aL2218413296L
aL3250038169L
aL3369345183L
aL2367461954L
aL3366654597L
aI48313648
aI16031939
aI68562053
aL3192553977L
aL2471398844L
aL3096012955L
aI30006436
aI474142636
aI117663517
aI273918171
aL2478407192L
aL2348295690L
aL2471360550L
aL2488280329L
aL2429635688L
aL2360285328L
aL2477365225L
aL2360053164L
aL2360757487L
aL2357529392L
aL2381149129L
aL2352661531L
aL2353142520L
aL2488501896L
aL2360300083L
aL2479306615L
aL2233122444L
aI27760633
aL3263704051L
aL3176857908L
aL3189091164L
aI409256035
aL3222862178L
aI16066655
aL2928796848L
aL3179768294L
aI1133394373
aL3207978785L
aL3255538291L
aI752472211
aL3335767757L
aL3315820031L
aI280558198
aI274326020
aL2991904058L
aI516715026
aI89154572
aL3226445766L
aL2397149034L
aI147815473
aL3050445174L
aI127967449
aI1324453064
aL3327371272L
aL3151931456L
aI312985966
aI401389854
aI393907395
aI391972578
aL3243485046L
aI1252398776
aI595609177
aL3234285978L
aL2837622853L
aL3311796825L
aL2666701416L
aL3013081974L
aI299587885
aL2295961234L
aI320694748
aL2927932039L
aI440720073
aI134768074
aI343137131
aL2555712373L
aI362372309
aL2735623264L
aL3252753376L
aL2293840230L
aL3052698953L
aL3106495051L
aI203297549
aL2364547442L
aI24317132
aI1217544799
aL2817151903L
aL3104949145L
aL3166303740L
aI477783945
aI611817117
aL2401740578L
aL3035221784L
aL3044057083L
aL2469522600L
aL2411650510L
aL2989906107L
aL3255530237L
aI1523700259
aasS'obj'
p7
ccopy_reg
_reconstructor
p8
(ctweepy.models
User
p9
c__builtin__
object
p10
Ntp11
Rp12
(dp13
S'follow_request_sent'
p14
NsS'has_extended_profile'
p15
I00
sS'profile_use_background_image'
p16
I00
sS'profile_sidebar_fill_color'
p17
V000000
p18
sS'id'
p19
L3254212509L
sS'verified'
p20
I00
sS'entities'
p21
(dp22
Vurl
p23
(dp24
Vurls
p25
(lp26
(dp27
g23
Vhttps://t.co/Nod7TAPXpE
p28
sVindices
p29
(lp30
I0
aI23
asVexpanded_url
p31
Vhttps://twitter.com/moneynews24h
p32
sVdisplay_url
p33
Vtwitter.com/moneynews24h
p34
sassVdescription
p35
(dp36
g25
(lp37
sssS'profile_image_url_https'
p38
Vhttps://pbs.twimg.com/profile_images/598895201747238913/Hk1LTnqS_normal.png
p39
sS'_json'
p40
(dp41
Vfollow_request_sent
p42
NsVhas_extended_profile
p43
I00
sVprofile_use_background_image
p44
I00
sVdefault_profile_image
p45
I00
sVid
p46
L3254212509L
sVprofile_background_image_url_https
p47
Vhttps://abs.twimg.com/images/themes/theme1/bg.png
p48
sVverified
p49
I00
sVprofile_text_color
p50
V000000
p51
sVprofile_image_url_https
p52
g39
sVprofile_sidebar_fill_color
p53
g18
sVentities
p54
g22
sVfollowers_count
p55
I488
sVprofile_sidebar_border_color
p56
V000000
p57
sVid_str
p58
V3254212509
p59
sVprofile_background_color
p60
V000000
p61
sVlisted_count
p62
I341
sVstatus
p63
(dp64
Vcontributors
p65
NsVtruncated
p66
I00
sVtext
p67
Vhttps://t.co/oOAfq5QH2D RadioShack gets a jump on Black Friday: Moves it to Wednesday instead https://t.co/Y7yAfIbzxv
p68
sVin_reply_to_status_id
p69
Nsg46
L666559980623958016L
sVfavorite_count
p70
I0
sVsource
p71
V<a href="http://ifttt.com" rel="nofollow">IFTTT</a>
p72
sVretweeted
p73
I00
sVcoordinates
p74
Nsg54
(dp75
Vsymbols
p76
(lp77
sVuser_mentions
p78
(lp79
sVhashtags
p80
(lp81
sg25
(lp82
(dp83
g23
Vhttps://t.co/oOAfq5QH2D
p84
sg29
(lp85
I0
aI23
asg31
Vhttp://ebay.to/1Yb5EMR
p86
sg33
Vebay.to/1Yb5EMR
p87
sa(dp88
g23
Vhttps://t.co/Y7yAfIbzxv
p89
sg29
(lp90
I94
aI117
asg31
Vhttp://ift.tt/1j4UA3T
p91
sg33
Vift.tt/1j4UA3T
p92
sassVin_reply_to_screen_name
p93
Nsg58
V666559980623958016
p94
sVretweet_count
p95
I0
sVin_reply_to_user_id
p96
NsVfavorited
p97
I00
sVgeo
p98
NsVin_reply_to_user_id_str
p99
NsVpossibly_sensitive
p100
I00
sVlang
p101
Ven
p102
sVcreated_at
p103
VTue Nov 17 10:14:18 +0000 2015
p104
sVin_reply_to_status_id_str
p105
NsVplace
p106
NssVis_translation_enabled
p107
I00
sVutc_offset
p108
I-28800
sVstatuses_count
p109
I450681
sg35
VThe latest #breaking financial #news on the US and world #economy, personal finance, #money markets and real estate. @MoneyNews24h
p110
sVfriends_count
p111
I39
sVlocation
p112
VUnited States
p113
sVprofile_link_color
p114
V4A913C
p115
sVprofile_image_url
p116
Vhttp://pbs.twimg.com/profile_images/598895201747238913/Hk1LTnqS_normal.png
p117
sVfollowing
p118
NsVgeo_enabled
p119
I00
sVprofile_banner_url
p120
Vhttps://pbs.twimg.com/profile_banners/3254212509/1431622961
p121
sVprofile_background_image_url
p122
Vhttp://abs.twimg.com/images/themes/theme1/bg.png
p123
sVscreen_name
p124
VMoneyNews24h
p125
sg101
Ven
p126
sVprofile_background_tile
p127
I00
sVfavourites_count
p128
I0
sVname
p129
VMoney News 24h
p130
sVnotifications
p131
Nsg23
Vhttps://t.co/Nod7TAPXpE
p132
sg103
VThu May 14 16:56:34 +0000 2015
p133
sVcontributors_enabled
p134
I00
sVtime_zone
p135
VPacific Time (US & Canada)
p136
sVprotected
p137
I00
sVdefault_profile
p138
I00
sVis_translator
p139
I00
ssS'contributors_enabled'
p140
I00
sS'profile_text_color'
p141
g51
sS'followers_count'
p142
I488
sS'profile_sidebar_border_color'
p143
g57
sS'id_str'
p144
g59
sS'default_profile_image'
p145
I00
sS'listed_count'
p146
I341
sS'status'
p147
g8
(ctweepy.models
Status
p148
g10
Ntp149
Rp150
(dp151
S'favorited'
p152
I00
sS'contributors'
p153
NsS'truncated'
p154
I00
sS'text'
p155
g68
sS'source_url'
p156
Vhttp://ifttt.com
p157
sS'possibly_sensitive'
p158
I00
sS'in_reply_to_status_id'
p159
NsS'geo'
p160
Nsg19
L666559980623958016L
sS'favorite_count'
p161
I0
sS'lang'
p162
g102
sg21
g75
sS'created_at'
p163
cdatetime
datetime
p164
(S'\x07\xdf\x0b\x11\n\x0e\x12\x00\x00\x00'
p165
tp166
Rp167
sg40
g64
sS'coordinates'
p168
NsS'in_reply_to_user_id_str'
p169
NsS'source'
p170
VIFTTT
p171
sS'in_reply_to_status_id_str'
p172
NsS'in_reply_to_screen_name'
p173
Nsg144
g94
sS'retweeted'
p174
I00
sS'place'
p175
NsS'retweet_count'
p176
I0
sS'in_reply_to_user_id'
p177
NsbsS'is_translation_enabled'
p178
I00
sS'utc_offset'
p179
I-28800
sS'statuses_count'
p180
I450681
sS'description'
p181
g110
sS'friends_count'
p182
I39
sS'location'
p183
g113
sS'profile_link_color'
p184
g115
sS'profile_image_url'
p185
g117
sS'notifications'
p186
NsS'geo_enabled'
p187
I00
sS'profile_background_color'
p188
g61
sS'profile_banner_url'
p189
g121
sS'profile_background_image_url'
p190
g123
sS'screen_name'
p191
g125
sg162
g126
sg1
I00
sS'profile_background_tile'
p192
I00
sS'favourites_count'
p193
I0
sS'name'
p194
g130
sS'url'
p195
g132
sg163
g164
(S'\x07\xdf\x05\x0e\x108"\x00\x00\x00'
p196
tp197
Rp198
sS'profile_background_image_url_https'
p199
g48
sS'time_zone'
p200
g136
sS'protected'
p201
I00
sS'default_profile'
p202
I00
sS'is_translator'
p203
I00
sbs.