(dp0
S'following'
p1
(lp2
(lp3
I262144590
aI284381441
aI624920658
aI19565763
aI1510235232
aL2796884997L
aI1924310023
aI884935388
aL4150814553L
aI417727024
aL3265002030L
aL3135493823L
aI526601733
aI35125659
aI1340624978
aL4086878235L
aI14292717
aI253167239
aI289311242
aI61216389
aL3058848324L
aI346174655
aL3972757253L
aI936560438
aI18339274
aI55561590
aI1935513416
aI21232827
aI1884628062
aI514835972
aI775319148
aL3420442818L
aI20596865
aL3651140233L
aI66975479
aL4067977498L
aI794921328
aI24411256
aI17473062
aI30818980
aI799122090
aL3911809332L
aL2939506175L
aI28571999
aI64405102
aI1228537610
aI272203887
aL3294044306L
aI452151127
aI19030439
aL2181558745L
aI1966253173
aL2489295018L
aI1880113279
aI103939712
aL2865695194L
aI18571616
aI843798122
aI250317700
aL2290523166L
aI714790766
aI820379341
aI16595597
aI1539164581
aL3718789042L
aL2216333869L
aI254207829
aL3395170581L
aI459044549
aL2981421573L
aI37555599
aI438352958
aL3346088079L
aI627765164
aL2394624246L
aI20858691
aL3184637045L
aI545618159
aI166597717
aL3147528713L
aI65681636
aL3386531654L
aL2595519847L
aI111216907
aI203652149
aI1451597324
aI952510544
aL2203735422L
aL3833570055L
aI427877977
aL2595918914L
aI320276448
aI860037217
aL3210527171L
aI100767876
aI331614004
aI195624823
aL3817131449L
aI313335112
aI799100228
aI81157050
aI849617886
aI39264827
aI1689434408
aL3213750129L
aI30359797
aI29869163
aI245388464
aL2804263123L
aI966726223
aI788333744
aI27762318
aI250758475
aL3389718273L
aL2203436131L
aI85513986
aI551940798
aI133640060
aL3489736273L
aI416311594
aI1690759518
aI444251529
aL3148891231L
aL2293885094L
aI28164923
aI15971805
aI552228327
aI1911154448
aL2817966517L
aL2607601184L
aI11247222
aL3414311249L
aI209907837
aL3210776242L
aL2974994447L
aI591380208
aL2313837474L
aI597799971
aI1092348054
aI14297693
aI1064700308
aL3192076795L
aI128500019
aI507638013
aI985406924
aI1327560289
aI531525580
aI995324587
aI14886375
aI226637533
aI99147325
aI145313421
aI127967449
aI33026200
aI82162291
aI591368817
aI502178335
aL2976682505L
aL2607663110L
aI552134921
aL2906862160L
aI168679374
aI32198841
aI1265726480
aL3202206838L
aI166245707
aI24227424
aL2448524059L
aI1262364356
aI25448539
aL2992414321L
aL3063418949L
aL3102831805L
aI581351672
aI108021761
aI31546412
aI482362854
aI249492195
aI51912109
aI1928213371
aL2989156675L
aI1433652877
aL2828756106L
aI1329705271
aL3042173895L
aL2856121255L
aL3019144513L
aL2172423304L
aL3242840227L
aL2967229294L
aL2305708183L
aL2828486491L
aL2203695764L
aL2425796528L
aI1393603976
aL2314804225L
aI592252072
aL3225783793L
aL3271695474L
aL3220589454L
aI1375860338
aL3018809793L
aL2548451544L
aL3008971965L
aL2890616938L
aI121158213
aL2341525668L
aL2445459474L
aI35784526
aI287789223
aasS'followers'
p4
(lp5
(lp6
L3401070011L
aL2830371145L
aL3955249814L
aL2931766109L
aL2161913370L
aI624920658
aL2149231188L
aI50185177
aI1510235232
aL2796884997L
aL4149856513L
aI42912883
aL3319463222L
aI113395003
aL4150814553L
aI1911185905
aL3135493823L
aI1924310023
aL3058848324L
aI526601733
aL3972757253L
aL4086878235L
aI936560438
aL3405443625L
aI24411256
aL3651140233L
aL4067977498L
aL3489736273L
aI272203887
aL3911809332L
aL3294044306L
aI1966253173
aL2489295018L
aI35125659
aI452151127
aI1884628062
aI794921328
aI250317700
aL3718789042L
aI843798122
aL2865695194L
aL3395170581L
aI459044549
aL2394624246L
aI627765164
aI552134921
aL3184637045L
aL3386531654L
aL3833570055L
aL3147528713L
aI952510544
aL2203735422L
aI111216907
aL2595519847L
aI860037217
aL3213750129L
aI799100228
aL2804263123L
aL3817131449L
aL3210527171L
aI245388464
aI85513986
aL2203436131L
aI100767876
aI133640060
aL2607601184L
aL2974994447L
aL3210776242L
aL2817966517L
aI597799971
aL3389718273L
aI1092348054
aI128500019
aI507638013
aI531525580
aI1327560289
aI985406924
aI226637533
aI99147325
aI127967449
aL2906862160L
aL3202206838L
aL3102831805L
aI32198841
aL3063418949L
aL2992414321L
aL2989156675L
aL2828756106L
aI1329705271
aL3042173895L
aL2856121255L
aL3242840227L
aL2172423304L
aL2967229294L
aL2305708183L
aL2828486491L
aL2314804225L
aI592252072
aL3225783793L
aL2203695764L
aL2425796528L
aI1393603976
aL3220589454L
aL3018809793L
aL3271695474L
aL2445459474L
aI1375860338
aL2890616938L
aL2548451544L
aL3008971965L
aI121158213
aL2341525668L
aI287789223
aasS'obj'
p7
ccopy_reg
_reconstructor
p8
(ctweepy.models
User
p9
c__builtin__
object
p10
Ntp11
Rp12
(dp13
S'follow_request_sent'
p14
NsS'has_extended_profile'
p15
I00
sS'profile_use_background_image'
p16
I01
sS'profile_sidebar_fill_color'
p17
VDDEEF6
p18
sS'id'
p19
L3278922089L
sS'verified'
p20
I00
sS'entities'
p21
(dp22
Vdescription
p23
(dp24
Vurls
p25
(lp26
sssS'profile_image_url_https'
p27
Vhttps://pbs.twimg.com/profile_images/605050553681387520/4ciP_2f6_normal.jpg
p28
sS'_json'
p29
(dp30
Vfollow_request_sent
p31
NsVhas_extended_profile
p32
I00
sVprofile_use_background_image
p33
I01
sVdefault_profile_image
p34
I00
sVid
p35
L3278922089L
sVprofile_background_image_url_https
p36
Vhttps://abs.twimg.com/images/themes/theme1/bg.png
p37
sVverified
p38
I00
sVprofile_text_color
p39
V333333
p40
sVprofile_image_url_https
p41
g28
sVprofile_sidebar_fill_color
p42
g18
sVentities
p43
g22
sVfollowers_count
p44
I113
sVprofile_sidebar_border_color
p45
VC0DEED
p46
sVid_str
p47
V3278922089
p48
sVprofile_background_color
p49
VC0DEED
p50
sVlisted_count
p51
I16
sVstatus
p52
(dp53
Vcontributors
p54
NsVtruncated
p55
I00
sVtext
p56
Vhttps://t.co/iAS1lZWb5J Value_Investor: PRKR is up 4.33% so far! Bottomed out
p57
sVin_reply_to_status_id
p58
Nsg35
L666375706075602944L
sVfavorite_count
p59
I0
sVsource
p60
V<a href="http://morningblue.ua" rel="nofollow">MorningBlue</a>
p61
sVretweeted
p62
I00
sVcoordinates
p63
Nsg43
(dp64
Vsymbols
p65
(lp66
sVuser_mentions
p67
(lp68
sVhashtags
p69
(lp70
sg25
(lp71
(dp72
Vurl
p73
Vhttps://t.co/iAS1lZWb5J
p74
sVindices
p75
(lp76
I0
aI23
asVexpanded_url
p77
Vhttp://bit.ly/1O5gpvp
p78
sVdisplay_url
p79
Vbit.ly/1O5gpvp
p80
sassVin_reply_to_screen_name
p81
Nsg47
V666375706075602944
p82
sVretweet_count
p83
I0
sVin_reply_to_user_id
p84
NsVfavorited
p85
I00
sVgeo
p86
NsVin_reply_to_user_id_str
p87
NsVpossibly_sensitive
p88
I00
sVlang
p89
Ven
p90
sVcreated_at
p91
VMon Nov 16 22:02:03 +0000 2015
p92
sVin_reply_to_status_id_str
p93
NsVplace
p94
NssVis_translation_enabled
p95
I00
sVutc_offset
p96
I-28800
sVstatuses_count
p97
I632
sg23
V
p98
sVfriends_count
p99
I209
sVlocation
p100
VElgin
p101
sVprofile_link_color
p102
V0084B4
p103
sVprofile_image_url
p104
Vhttp://pbs.twimg.com/profile_images/605050553681387520/4ciP_2f6_normal.jpg
p105
sVfollowing
p106
NsVgeo_enabled
p107
I00
sVprofile_banner_url
p108
Vhttps://pbs.twimg.com/profile_banners/3278922089/1433090291
p109
sVprofile_background_image_url
p110
Vhttp://abs.twimg.com/images/themes/theme1/bg.png
p111
sVscreen_name
p112
Vcompmesi81
p113
sg89
Ven
p114
sVprofile_background_tile
p115
I00
sVfavourites_count
p116
I0
sVname
p117
VSuzanne Carroll
p118
sVnotifications
p119
Nsg73
Nsg91
VSun May 17 16:14:34 +0000 2015
p120
sVcontributors_enabled
p121
I00
sVtime_zone
p122
VPacific Time (US & Canada)
p123
sVprotected
p124
I00
sVdefault_profile
p125
I01
sVis_translator
p126
I00
ssS'contributors_enabled'
p127
I00
sS'profile_text_color'
p128
g40
sS'followers_count'
p129
I113
sS'profile_sidebar_border_color'
p130
g46
sS'id_str'
p131
g48
sS'default_profile_image'
p132
I00
sS'listed_count'
p133
I16
sS'status'
p134
g8
(ctweepy.models
Status
p135
g10
Ntp136
Rp137
(dp138
S'favorited'
p139
I00
sS'contributors'
p140
NsS'truncated'
p141
I00
sS'text'
p142
g57
sS'source_url'
p143
Vhttp://morningblue.ua
p144
sS'possibly_sensitive'
p145
I00
sS'in_reply_to_status_id'
p146
NsS'geo'
p147
Nsg19
L666375706075602944L
sS'favorite_count'
p148
I0
sS'lang'
p149
g90
sg21
g64
sS'created_at'
p150
cdatetime
datetime
p151
(S'\x07\xdf\x0b\x10\x16\x02\x03\x00\x00\x00'
p152
tp153
Rp154
sg29
g53
sS'coordinates'
p155
NsS'in_reply_to_user_id_str'
p156
NsS'source'
p157
VMorningBlue
p158
sS'in_reply_to_status_id_str'
p159
NsS'in_reply_to_screen_name'
p160
Nsg131
g82
sS'retweeted'
p161
I00
sS'place'
p162
NsS'retweet_count'
p163
I0
sS'in_reply_to_user_id'
p164
NsbsS'is_translation_enabled'
p165
I00
sS'utc_offset'
p166
I-28800
sS'statuses_count'
p167
I632
sS'description'
p168
g98
sS'friends_count'
p169
I209
sS'location'
p170
g101
sS'profile_link_color'
p171
g103
sS'profile_image_url'
p172
g105
sS'notifications'
p173
NsS'geo_enabled'
p174
I00
sS'profile_background_color'
p175
g50
sS'profile_banner_url'
p176
g109
sS'profile_background_image_url'
p177
g111
sS'screen_name'
p178
g113
sg149
g114
sg1
I00
sS'profile_background_tile'
p179
I00
sS'favourites_count'
p180
I0
sS'name'
p181
g118
sS'url'
p182
Nsg150
g151
(S'\x07\xdf\x05\x11\x10\x0e"\x00\x00\x00'
p183
tp184
Rp185
sS'profile_background_image_url_https'
p186
g37
sS'time_zone'
p187
g123
sS'protected'
p188
I00
sS'default_profile'
p189
I01
sS'is_translator'
p190
I00
sbs.