(dp0
S'following'
p1
(lp2
(lp3
L3264610739L
aL2846259511L
aI37284991
aL3284589564L
aL2319600132L
aL4001537181L
aI18339274
aI19717430
aL2950028089L
aI550663732
aL3851465593L
aI113084080
aL2163272683L
aL3405443625L
aL2824502145L
aL4076918835L
aI45415894
aL2564035200L
aI108937359
aL3369338458L
aL3018847436L
aI289311242
aL2466373656L
aI455824771
aL2341147554L
aI1064700308
aI66975479
aL3966134546L
aI77304134
aI5831802
aI1689434408
aI100185304
aI341346597
aL3844209118L
aI1353655898
aL2495688343L
aL2765781588L
aL2868907819L
aL2307828661L
aI1884628062
aI869918281
aI459091687
aI1880113279
aI389157954
aL3947918553L
aI82162291
aL3675408974L
aI42912883
aI732536311
aI1873589498
aL2249335272L
aI394642779
aL3509753654L
aI33026200
aI140912249
aI516980928
aL2772426049L
aI19564105
aL3035804476L
aI40129171
aI21579390
aL2800070870L
aI9555372
aI41516710
aI41386160
aI627765164
aI42077122
aL2516029806L
aI100767876
aI23898700
aI775319148
aI1362364496
aI1023436759
aI59853587
aI96682182
aL3016283598L
aL3042243094L
aL2445064535L
aI470182458
aI74104397
aI284752134
aI188817929
aL2448524059L
aL3787741394L
aL2278259810L
aL3294044306L
aL3177303368L
aI41458395
aL2394624246L
aI61216389
aI1657022528
aL3849124512L
aI17350542
aI246585278
aL2346652446L
aL3235272755L
aL3388556074L
aI851544830
aL2361288673L
aI112872946
aI84444981
aI111216907
aI331614004
aI16595597
aI17473062
aL3420574769L
aI593222868
aI72907355
aI15756049
aI24411256
aI36973999
aL3056720044L
aL3210776242L
aI860037217
aI30474174
aI20596865
aI253016817
aL2903311992L
aI380500399
aL3108417284L
aI49620233
aL2860845668L
aI207617302
aL3609950717L
aI1583359764
aL3154923455L
aI16004376
aI150572950
aI1877024480
aI177915812
aL3285325962L
aI37564410
aL2159322464L
aI314061974
aI184881902
aL3807561436L
aL3489736273L
aI18571616
aL2297843024L
aL3814082848L
aI101756062
aI30359797
aL3747975443L
aL2721672258L
aL2973648143L
aL2981421573L
aI797942226
aI5832212
aL3213750129L
aL2906862160L
aI788333744
aL3646398433L
aI121902355
aI185850034
aI132408673
aI163648850
aL3111837451L
aI261705971
aL2715646770L
aI1245939253
aI591385653
aI193838214
aI1934289931
aI403855355
aI109200080
aI1941253760
aI444251529
aL3017654325L
aI39264827
aI284381441
aI17893558
aI18856867
aL3304114284L
aL2156444033L
aL3184637045L
aI1393603976
aL2388244850L
aL2678090893L
aL2293885094L
aI23390520
aL3611254997L
aI384944004
aL2964459628L
aL2181558745L
aI127967449
aI44971011
aI1935513416
aI14519349
aI270484039
aI714790766
aI105353526
aL2237583564L
aL2314804225L
aL2992414321L
aI346174655
aL3311988818L
aL2485698702L
aI1340624978
aL3018809793L
aI19111917
aI17790265
aL3435791579L
aL3331348633L
aI843798122
aI1577160728
aL2172423304L
aL3242840227L
aL2686416854L
aL3302856091L
aL3373670452L
aL2709718838L
aI592252072
aI936560438
aL3297784675L
aI452151127
aI43111757
aL2203746163L
aL3251139068L
aI387339930
aL2341525668L
aI241026513
aL2864524709L
aI41044925
aI403598464
aI1375860338
aL2607601184L
aasS'followers'
p4
(lp5
(lp6
L3983739493L
aI594149589
aI459051859
aI594080668
aI296222470
aI624920658
aL2149231188L
aL4106204903L
aL2772426049L
aI50185177
aL2203759645L
aI1522471123
aL4149856513L
aI400364870
aL4045760789L
aL3920279115L
aI43220425
aL2486034890L
aL4040670143L
aI43266028
aL2846259511L
aL4128183975L
aI113084080
aL4076918835L
aL4060066449L
aL4061650355L
aL3957001157L
aL4009414738L
aL4122784099L
aL2286097290L
aI1464202771
aL2564035200L
aI250317700
aI15812297
aI1183838114
aL3264610739L
aI108937359
aL3851465593L
aL3405443625L
aL3988573402L
aL3966134546L
aL3489736273L
aL2824502145L
aL2307828661L
aL2765781588L
aI459091687
aL3284589564L
aL3844209118L
aL2495688343L
aI100185304
aI42912883
aI732536311
aI48486244
aL4001537181L
aL3035804476L
aI341346597
aL2466373656L
aI1884628062
aL3675408974L
aL2249335272L
aI1353655898
aI1966253173
aI627765164
aI42077122
aI1362364496
aL3042243094L
aI100767876
aL2516029806L
aL3849124512L
aL2394624246L
aL2346652446L
aI188817929
aL3388556074L
aL2445064535L
aI84444981
aL3420574769L
aI17350542
aI15756049
aL3294044306L
aL3235272755L
aI24411256
aI111216907
aL3787741394L
aL3056720044L
aI253016817
aL3210776242L
aI1583359764
aL2860845668L
aI860037217
aL3285325962L
aL3154923455L
aL2159322464L
aI150572950
aL3807561436L
aL3814082848L
aI101756062
aL3747975443L
aI797942226
aL3213750129L
aL3111837451L
aL2906862160L
aL3646398433L
aI788333744
aI109200080
aI185850034
aL3304114284L
aL3184637045L
aL2156444033L
aL2678090893L
aL3611254997L
aL2181558745L
aI384944004
aI127967449
aI14519349
aL2314804225L
aL2992414321L
aL3018809793L
aL3435791579L
aL3331348633L
aI843798122
aI1577160728
aL3242840227L
aL2172423304L
aL2686416854L
aL2709718838L
aL3373670452L
aL3297784675L
aI936560438
aI452151127
aI592252072
aI43111757
aL2203746163L
aI387339930
aI241026513
aL2864524709L
aI403598464
aI41044925
aL2607601184L
aI1375860338
aL2341525668L
aasS'obj'
p7
ccopy_reg
_reconstructor
p8
(ctweepy.models
User
p9
c__builtin__
object
p10
Ntp11
Rp12
(dp13
S'follow_request_sent'
p14
NsS'has_extended_profile'
p15
I00
sS'profile_use_background_image'
p16
I01
sS'profile_sidebar_fill_color'
p17
V000000
p18
sS'id'
p19
L3279105113L
sS'verified'
p20
I00
sS'entities'
p21
(dp22
Vdescription
p23
(dp24
Vurls
p25
(lp26
sssS'profile_image_url_https'
p27
Vhttps://pbs.twimg.com/profile_images/605031042764951552/7IS5r95D_normal.jpg
p28
sS'_json'
p29
(dp30
Vfollow_request_sent
p31
NsVhas_extended_profile
p32
I00
sVprofile_use_background_image
p33
I01
sVdefault_profile_image
p34
I00
sVid
p35
L3279105113L
sVprofile_background_image_url_https
p36
Vhttps://pbs.twimg.com/profile_background_images/605030932366651392/uboY7zDD.jpg
p37
sVverified
p38
I00
sVprofile_text_color
p39
V000000
p40
sVprofile_image_url_https
p41
g28
sVprofile_sidebar_fill_color
p42
g18
sVentities
p43
g22
sVfollowers_count
p44
I140
sVprofile_sidebar_border_color
p45
V000000
p46
sVid_str
p47
V3279105113
p48
sVprofile_background_color
p49
V000000
p50
sVlisted_count
p51
I16
sVstatus
p52
(dp53
Vcontributors
p54
NsVtruncated
p55
I00
sVtext
p56
VRT @Stock_Tracker1: CELG Celgene Corp. Investor Opinions\u000ahttps://t.co/FWRz2ey3zT\u000a\u000a$CELG $CAT $F $P #CELG #stockmarket #stockmarket
p57
sVin_reply_to_status_id
p58
Nsg35
L666546774769868800L
sVfavorite_count
p59
I0
sVsource
p60
V<a href="http://morningblue.ua" rel="nofollow">MorningBlue</a>
p61
sVretweeted
p62
I00
sVcoordinates
p63
Nsg43
(dp64
Vsymbols
p65
(lp66
(dp67
Vindices
p68
(lp69
I82
aI87
asg56
VCELG
p70
sa(dp71
g68
(lp72
I88
aI92
asg56
VCAT
p73
sa(dp74
g68
(lp75
I93
aI95
asg56
VF
p76
sa(dp77
g68
(lp78
I96
aI98
asg56
VP
p79
sasVuser_mentions
p80
(lp81
(dp82
g35
L2181357950L
sg68
(lp83
I3
aI18
asg47
V2181357950
p84
sVscreen_name
p85
VStock_Tracker1
p86
sVname
p87
VStock_Tracker
p88
sasVhashtags
p89
(lp90
(dp91
g68
(lp92
I99
aI104
asg56
VCELG
p93
sa(dp94
g68
(lp95
I105
aI117
asg56
Vstockmarket
p96
sa(dp97
g68
(lp98
I118
aI130
asg56
Vstockmarket
p99
sasg25
(lp100
(dp101
Vurl
p102
Vhttps://t.co/FWRz2ey3zT
p103
sg68
(lp104
I57
aI80
asVexpanded_url
p105
Vhttp://dlvr.it/Cm4vKF
p106
sVdisplay_url
p107
Vdlvr.it/Cm4vKF
p108
sassVin_reply_to_screen_name
p109
Nsg47
V666546774769868800
p110
sVretweet_count
p111
I1
sVin_reply_to_user_id
p112
NsVfavorited
p113
I00
sVretweeted_status
p114
(dp115
g54
Nsg55
I00
sg56
VCELG Celgene Corp. Investor Opinions\u000ahttps://t.co/FWRz2ey3zT\u000a\u000a$CELG $CAT $F $P #CELG #stockmarket #stockmarket
p116
sg58
Nsg35
L666444702326001665L
sg59
I0
sg60
V<a href="http://dlvr.it" rel="nofollow">dlvr.it</a>
p117
sg62
I00
sg63
Nsg43
(dp118
g65
(lp119
(dp120
g68
(lp121
I62
aI67
asg56
VCELG
p122
sa(dp123
g68
(lp124
I68
aI72
asg56
VCAT
p125
sa(dp126
g68
(lp127
I73
aI75
asg56
g76
sa(dp128
g68
(lp129
I76
aI78
asg56
g79
sasg80
(lp130
sg89
(lp131
(dp132
g68
(lp133
I79
aI84
asg56
VCELG
p134
sa(dp135
g68
(lp136
I85
aI97
asg56
Vstockmarket
p137
sa(dp138
g68
(lp139
I98
aI110
asg56
Vstockmarket
p140
sasg25
(lp141
(dp142
g102
Vhttps://t.co/FWRz2ey3zT
p143
sg68
(lp144
I37
aI60
asg105
Vhttp://dlvr.it/Cm4vKF
p145
sg107
Vdlvr.it/Cm4vKF
p146
sassg109
Nsg47
V666444702326001665
p147
sg111
I1
sg112
Nsg113
I00
sVgeo
p148
NsVin_reply_to_user_id_str
p149
NsVpossibly_sensitive
p150
I00
sVlang
p151
Vro
p152
sVcreated_at
p153
VTue Nov 17 02:36:13 +0000 2015
p154
sVin_reply_to_status_id_str
p155
NsVplace
p156
Nssg148
Nsg149
Nsg150
I00
sg151
Vro
p157
sg153
VTue Nov 17 09:21:49 +0000 2015
p158
sg155
Nsg156
NssVis_translation_enabled
p159
I00
sVutc_offset
p160
I-28800
sVstatuses_count
p161
I718
sg23
V
p162
sVfriends_count
p163
I226
sVlocation
p164
VJoliet
p165
sVprofile_link_color
p166
V000000
p167
sVprofile_image_url
p168
Vhttp://pbs.twimg.com/profile_images/605031042764951552/7IS5r95D_normal.jpg
p169
sVfollowing
p170
NsVgeo_enabled
p171
I00
sVprofile_banner_url
p172
Vhttps://pbs.twimg.com/profile_banners/3279105113/1433085639
p173
sVprofile_background_image_url
p174
Vhttp://pbs.twimg.com/profile_background_images/605030932366651392/uboY7zDD.jpg
p175
sg85
Vpeowebru85
p176
sg151
Ven
p177
sVprofile_background_tile
p178
I00
sVfavourites_count
p179
I0
sg87
VZona Harrison
p180
sVnotifications
p181
Nsg102
Nsg153
VSun May 17 16:36:17 +0000 2015
p182
sVcontributors_enabled
p183
I00
sVtime_zone
p184
VPacific Time (US & Canada)
p185
sVprotected
p186
I00
sVdefault_profile
p187
I00
sVis_translator
p188
I00
ssS'contributors_enabled'
p189
I00
sS'profile_text_color'
p190
g40
sS'followers_count'
p191
I140
sS'profile_sidebar_border_color'
p192
g46
sS'id_str'
p193
g48
sS'default_profile_image'
p194
I00
sS'listed_count'
p195
I16
sS'status'
p196
g8
(ctweepy.models
Status
p197
g10
Ntp198
Rp199
(dp200
S'favorited'
p201
I00
sS'contributors'
p202
NsS'truncated'
p203
I00
sS'text'
p204
VRT @Stock_Tracker1: CELG Celgene Corp. Investor Opinions\u000ahttps://t.co/FWRz2ey3zT\u000a\u000a$CELG $CAT $F $P #CELG #stockmarket #stockmarket
p205
sS'source_url'
p206
Vhttp://morningblue.ua
p207
sS'possibly_sensitive'
p208
I00
sS'in_reply_to_status_id'
p209
NsS'geo'
p210
Nsg19
L666546774769868800L
sS'favorite_count'
p211
I0
sS'lang'
p212
g157
sS'retweeted_status'
p213
g8
(g197
g10
Ntp214
Rp215
(dp216
g201
I00
sg202
Nsg203
I00
sg204
VCELG Celgene Corp. Investor Opinions\u000ahttps://t.co/FWRz2ey3zT\u000a\u000a$CELG $CAT $F $P #CELG #stockmarket #stockmarket
p217
sg206
Vhttp://dlvr.it
p218
sg208
I00
sg209
Nsg210
Nsg19
L666444702326001665L
sg211
I0
sg212
g152
sg21
g118
sS'created_at'
p219
cdatetime
datetime
p220
(S'\x07\xdf\x0b\x11\x02$\r\x00\x00\x00'
p221
tp222
Rp223
sg29
g115
sS'coordinates'
p224
NsS'in_reply_to_user_id_str'
p225
NsS'source'
p226
Vdlvr.it
p227
sS'in_reply_to_status_id_str'
p228
NsS'in_reply_to_screen_name'
p229
Nsg193
g147
sS'retweeted'
p230
I00
sS'place'
p231
NsS'retweet_count'
p232
I1
sS'in_reply_to_user_id'
p233
Nsbsg21
g64
sg219
g220
(S'\x07\xdf\x0b\x11\t\x151\x00\x00\x00'
p234
tp235
Rp236
sg29
g53
sg224
Nsg225
Nsg226
VMorningBlue
p237
sg228
Nsg229
Nsg193
g110
sg230
I00
sg231
Nsg232
I1
sg233
NsbsS'is_translation_enabled'
p238
I00
sS'utc_offset'
p239
I-28800
sS'statuses_count'
p240
I718
sS'description'
p241
g162
sS'friends_count'
p242
I226
sS'location'
p243
g165
sS'profile_link_color'
p244
g167
sS'profile_image_url'
p245
g169
sS'notifications'
p246
NsS'geo_enabled'
p247
I00
sS'profile_background_color'
p248
g50
sS'profile_banner_url'
p249
g173
sS'profile_background_image_url'
p250
g175
sS'screen_name'
p251
g176
sg212
g177
sg1
I00
sS'profile_background_tile'
p252
I00
sS'favourites_count'
p253
I0
sS'name'
p254
g180
sS'url'
p255
Nsg219
g220
(S'\x07\xdf\x05\x11\x10$\x11\x00\x00\x00'
p256
tp257
Rp258
sS'profile_background_image_url_https'
p259
g37
sS'time_zone'
p260
g185
sS'protected'
p261
I00
sS'default_profile'
p262
I00
sS'is_translator'
p263
I00
sbs.