(dp0
S'following'
p1
(lp2
(lp3
I102527566
aI50185177
aL2374986309L
aI177915812
aI7557352
aI62562916
aI373425072
aL3887386461L
aI1380766860
aI1923879936
aL3609950717L
aL3139590424L
aI49663664
aI482362854
aL2973648143L
aL2394624246L
aI105353526
aI262144590
aL2830447786L
aI14886375
aL2881562076L
aL3147246544L
aI16004376
aL3334692641L
aL3307559246L
aL3417442029L
aL4085028612L
aL3998002531L
aI996072554
aL4001537181L
aL3924333678L
aI444251529
aI962225724
aI1152017694
aI1265726480
aL3689115686L
aI30474174
aI611817117
aL3147528713L
aL2778901544L
aL2670065136L
aL3185179148L
aL3438940828L
aI417727024
aI36359651
aL2903311992L
aI601109375
aI41386160
aL2999168682L
aI1487283486
aL3235272755L
aI209907837
aI140912249
aI14216123
aL3246433047L
aI448461258
aI403855355
aL2375681418L
aI427877977
aI195624823
aI210153565
aI514835972
aL2885133376L
aL2781050528L
aI459091687
aI110793585
aI627765164
aI1908178128
aI775319148
aL3210776242L
aI570148305
aI403598464
aL2551992944L
aL3210527171L
aI17790265
aI17473062
aI591385653
aL2715646770L
aL3246752411L
aL3323552097L
aI1689434408
aL3135493823L
aL2906862160L
aL2293885094L
aI100185304
aL2391736411L
aI21579390
aI138404716
aL3744455536L
aI21232827
aI19564105
aI270481972
aI76511168
aI1289738107
aL2721672258L
aL2967229294L
aI20596865
aI23390520
aI102094857
aL3318157345L
aI21437626
aI972681828
aI163648850
aI91798372
aI331614004
aL3018809793L
aI145313421
aI237591901
aI22026851
aI303223590
aI24578794
aI226637533
aI127967449
aL2973826853L
aI289745762
aL2341147554L
aL3306918970L
aI22522178
aI1618666351
aL2957721364L
aL3063418949L
aI18034541
aI1040640698
aI565969885
aI906797108
aL2992414321L
aI284752134
aL2351152392L
aI29557958
aI18339274
aL2203439227L
aL2828756106L
aL2203436131L
aL3312477726L
aI99147325
aI839896928
aL2742941946L
aL3042243094L
aI28894912
aL2890616938L
aL2566805173L
aL3264247177L
aI48486244
aL2607601184L
aI148243590
aL3039818766L
aL2516029806L
aL2940795831L
aL2149877280L
aI287789223
aasS'followers'
p4
(lp5
(lp6
L3395170581L
aI808650354
aI869939479
aL4226611154L
aL3971389039L
aI1924312855
aL2374986309L
aI50185177
aI43841942
aL2513339424L
aL3609950717L
aL2846259511L
aL3899925915L
aL2495688343L
aI1923879936
aL3417442029L
aL3924333678L
aL3887386461L
aL3998002531L
aL3307559246L
aL3689115686L
aI962225724
aL2394624246L
aL4001537181L
aI611817117
aL3185179148L
aL3334692641L
aL3139590424L
aL3147246544L
aL3438940828L
aL2830447786L
aI1375860338
aI601109375
aI1487283486
aL3246433047L
aL2670065136L
aL2999168682L
aL2781050528L
aI627765164
aL2885133376L
aL3147528713L
aL3235272755L
aL2551992944L
aI459091687
aL3210527171L
aI403598464
aL3323552097L
aL3744455536L
aL2906862160L
aL3210776242L
aL2967229294L
aI270481972
aI21437626
aI972681828
aL3318157345L
aL3018809793L
aI303223590
aI226637533
aL2973826853L
aI127967449
aL2957721364L
aL3063418949L
aL2992414321L
aL2351152392L
aL2203439227L
aL2828756106L
aL2203436131L
aL3312477726L
aI99147325
aL2742941946L
aL3042243094L
aI839896928
aL2890616938L
aL2566805173L
aL3264247177L
aI48486244
aL2516029806L
aL2149877280L
aI148243590
aL3039818766L
aL2607601184L
aL2940795831L
aI287789223
aasS'obj'
p7
ccopy_reg
_reconstructor
p8
(ctweepy.models
User
p9
c__builtin__
object
p10
Ntp11
Rp12
(dp13
S'follow_request_sent'
p14
NsS'has_extended_profile'
p15
I00
sS'profile_use_background_image'
p16
I01
sS'profile_sidebar_fill_color'
p17
VDDEEF6
p18
sS'id'
p19
L3279025397L
sS'verified'
p20
I00
sS'entities'
p21
(dp22
Vdescription
p23
(dp24
Vurls
p25
(lp26
sssS'profile_image_url_https'
p27
Vhttps://pbs.twimg.com/profile_images/605055718287376386/gm2A5HVK_normal.jpg
p28
sS'_json'
p29
(dp30
Vfollow_request_sent
p31
NsVhas_extended_profile
p32
I00
sVprofile_use_background_image
p33
I01
sVdefault_profile_image
p34
I00
sVid
p35
L3279025397L
sVprofile_background_image_url_https
p36
Vhttps://abs.twimg.com/images/themes/theme1/bg.png
p37
sVverified
p38
I00
sVprofile_text_color
p39
V333333
p40
sVprofile_image_url_https
p41
g28
sVprofile_sidebar_fill_color
p42
g18
sVentities
p43
g22
sVfollowers_count
p44
I83
sVprofile_sidebar_border_color
p45
VC0DEED
p46
sVid_str
p47
V3279025397
p48
sVprofile_background_color
p49
VC0DEED
p50
sVlisted_count
p51
I11
sVstatus
p52
(dp53
Vcontributors
p54
NsVtruncated
p55
I00
sVtext
p56
Vhttps://t.co/JbNoTMNBEw Big Moving Stocks for Nov-13 At The Close
p57
sVin_reply_to_status_id
p58
Nsg35
L666294342630420481L
sVfavorite_count
p59
I0
sVsource
p60
V<a href="http://morningblue.ua" rel="nofollow">MorningBlue</a>
p61
sVretweeted
p62
I00
sVcoordinates
p63
Nsg43
(dp64
Vsymbols
p65
(lp66
sVuser_mentions
p67
(lp68
sVhashtags
p69
(lp70
sg25
(lp71
(dp72
Vurl
p73
Vhttps://t.co/JbNoTMNBEw
p74
sVindices
p75
(lp76
I0
aI23
asVexpanded_url
p77
Vhttp://bit.ly/1QH4XJ7
p78
sVdisplay_url
p79
Vbit.ly/1QH4XJ7
p80
sassVin_reply_to_screen_name
p81
Nsg47
V666294342630420481
p82
sVretweet_count
p83
I0
sVin_reply_to_user_id
p84
NsVfavorited
p85
I00
sVgeo
p86
NsVin_reply_to_user_id_str
p87
NsVpossibly_sensitive
p88
I00
sVlang
p89
Ven
p90
sVcreated_at
p91
VMon Nov 16 16:38:45 +0000 2015
p92
sVin_reply_to_status_id_str
p93
NsVplace
p94
NssVis_translation_enabled
p95
I00
sVutc_offset
p96
I-28800
sVstatuses_count
p97
I549
sg23
V
p98
sVfriends_count
p99
I150
sVlocation
p100
VPasadena
p101
sVprofile_link_color
p102
V0084B4
p103
sVprofile_image_url
p104
Vhttp://pbs.twimg.com/profile_images/605055718287376386/gm2A5HVK_normal.jpg
p105
sVfollowing
p106
NsVgeo_enabled
p107
I00
sVprofile_banner_url
p108
Vhttps://pbs.twimg.com/profile_banners/3279025397/1433091522
p109
sVprofile_background_image_url
p110
Vhttp://abs.twimg.com/images/themes/theme1/bg.png
p111
sVscreen_name
p112
Vhoomorta84
p113
sg89
Ven
p114
sVprofile_background_tile
p115
I00
sVfavourites_count
p116
I0
sVname
p117
VHedda Atcheson
p118
sVnotifications
p119
Nsg73
Nsg91
VSun May 17 16:24:02 +0000 2015
p120
sVcontributors_enabled
p121
I00
sVtime_zone
p122
VPacific Time (US & Canada)
p123
sVprotected
p124
I00
sVdefault_profile
p125
I01
sVis_translator
p126
I00
ssS'contributors_enabled'
p127
I00
sS'profile_text_color'
p128
g40
sS'followers_count'
p129
I83
sS'profile_sidebar_border_color'
p130
g46
sS'id_str'
p131
g48
sS'default_profile_image'
p132
I00
sS'listed_count'
p133
I11
sS'status'
p134
g8
(ctweepy.models
Status
p135
g10
Ntp136
Rp137
(dp138
S'favorited'
p139
I00
sS'contributors'
p140
NsS'truncated'
p141
I00
sS'text'
p142
g57
sS'source_url'
p143
Vhttp://morningblue.ua
p144
sS'possibly_sensitive'
p145
I00
sS'in_reply_to_status_id'
p146
NsS'geo'
p147
Nsg19
L666294342630420481L
sS'favorite_count'
p148
I0
sS'lang'
p149
g90
sg21
g64
sS'created_at'
p150
cdatetime
datetime
p151
(S'\x07\xdf\x0b\x10\x10&-\x00\x00\x00'
p152
tp153
Rp154
sg29
g53
sS'coordinates'
p155
NsS'in_reply_to_user_id_str'
p156
NsS'source'
p157
VMorningBlue
p158
sS'in_reply_to_status_id_str'
p159
NsS'in_reply_to_screen_name'
p160
Nsg131
g82
sS'retweeted'
p161
I00
sS'place'
p162
NsS'retweet_count'
p163
I0
sS'in_reply_to_user_id'
p164
NsbsS'is_translation_enabled'
p165
I00
sS'utc_offset'
p166
I-28800
sS'statuses_count'
p167
I549
sS'description'
p168
g98
sS'friends_count'
p169
I150
sS'location'
p170
g101
sS'profile_link_color'
p171
g103
sS'profile_image_url'
p172
g105
sS'notifications'
p173
NsS'geo_enabled'
p174
I00
sS'profile_background_color'
p175
g50
sS'profile_banner_url'
p176
g109
sS'profile_background_image_url'
p177
g111
sS'screen_name'
p178
g113
sg149
g114
sg1
I00
sS'profile_background_tile'
p179
I00
sS'favourites_count'
p180
I0
sS'name'
p181
g118
sS'url'
p182
Nsg150
g151
(S'\x07\xdf\x05\x11\x10\x18\x02\x00\x00\x00'
p183
tp184
Rp185
sS'profile_background_image_url_https'
p186
g37
sS'time_zone'
p187
g123
sS'protected'
p188
I00
sS'default_profile'
p189
I01
sS'is_translator'
p190
I00
sbs.