(dp0
S'following'
p1
(lp2
(lp3
L2846259511L
aL2280296970L
aL2239981081L
aI565969885
aL3058848324L
aI1068920202
aL3785494459L
aI394642779
aI424340222
aL3730105453L
aL3983596033L
aI16004376
aL4129818237L
aI15812297
aL3210527171L
aI48233377
aL4045760789L
aL3405443625L
aL2356714968L
aL2976682505L
aI250317700
aI42912883
aL2391736411L
aI19030439
aI29869163
aL3264610739L
aI166597717
aI23380335
aL4085508813L
aL3395170581L
aL2305984134L
aI35486742
aL3897679275L
aI195624823
aI249492195
aI317437245
aI289311242
aI7557352
aI1539164581
aI65681636
aI30474174
aI100185304
aI1023436759
aI301499991
aI575796665
aL2582539054L
aL3389088551L
aI1353696168
aL2746667072L
aL3947333397L
aI20704858
aI102094857
aI1861916791
aI737311736
aI551442334
aL2773572122L
aI701464597
aI112872946
aI177239631
aL3124430309L
aI184881902
aL3422600963L
aI108021761
aI462754174
aI82162291
aL2440753004L
aL2780766853L
aI108321412
aL2715646770L
aI19148239
aI1583359764
aI1380766860
aL2967229294L
aI15588025
aI444251529
aL2868907819L
aI1430796462
aI145313421
aI313506882
aL3177303368L
aI389157954
aL2992585800L
aI904810278
aI31546412
aI19337489
aI11247222
aL3148891231L
aL3439379423L
aI37555599
aI785935140
aI346174655
aL3817131449L
aI102527566
aI19717430
aI438352958
aL3345276202L
aI318028679
aI591417279
aL2860845668L
aI250362250
aI193838214
aL3357990069L
aI42077122
aI80864710
aI1098727778
aI373425072
aI482362854
aI22298549
aL2237583564L
aI100767876
aL3617934074L
aI1935513416
aI17893558
aL3509753654L
aI133483902
aL3065083689L
aI22522178
aI550663732
aI128500019
aI120743106
aL2906862160L
aL3617801172L
aI40099128
aI72907355
aL3025182927L
aL2445459474L
aL2520719083L
aL3631389317L
aI455824771
aL3439317010L
aI479330647
aI331614004
aI1584500023
aI36973999
aI25448539
aI109200080
aI1884013189
aI1340624978
aL3246752411L
aL3425090002L
aL3016283598L
aL2516029806L
aI1657022528
aL3131561907L
aI28164923
aL3424983382L
aI234107458
aI1497398658
aI770904320
aL3434839269L
aL3017654325L
aI18034541
aI995324587
aL2394624246L
aL3317324402L
aL3018809793L
aI14292717
aI14886375
aI19565763
aI185850034
aL2828756106L
aL2314804225L
aI261705971
aL3419144266L
aI626836550
aI1375860338
aI591390306
aL3042173895L
aL2253841823L
aL2992414321L
aL3384754253L
aL3242840227L
aL2788588083L
aI21391703
aL3298628798L
aL3012591177L
aI1473563539
aL2471779542L
aL3167673070L
aL3258090918L
aL2203746163L
aL2231311262L
aasS'followers'
p4
(lp5
(lp6
L4196472563L
aI293458690
aI1924312855
aI93294948
aL4115245595L
aL2846259511L
aL3983596033L
aI424340222
aL4129818237L
aI744650100
aL3058848324L
aL3210527171L
aL2976682505L
aL3264610739L
aL3405443625L
aI250317700
aL3785494459L
aI48233377
aI23380335
aL2305984134L
aI100185304
aL4015037879L
aI42912883
aL2280296970L
aL4001537181L
aI1861916791
aL2239981081L
aI1353696168
aL2773572122L
aL3509753654L
aL3395170581L
aL2780766853L
aI15812297
aI313506882
aL2967229294L
aL2440753004L
aL3177303368L
aI1583359764
aI462754174
aL3897679275L
aI318028679
aI42077122
aL2860845668L
aL3422600963L
aL3730105453L
aL3817131449L
aL3439379423L
aI996051864
aL3389088551L
aL2992585800L
aI108321412
aI35486742
aL3065083689L
aL2906862160L
aI100767876
aL3357990069L
aL3617801172L
aL3617934074L
aL3345276202L
aL2582539054L
aL3631389317L
aL3439317010L
aL3025182927L
aI1584500023
aL3425090002L
aI109200080
aL2516029806L
aL3131561907L
aL3424983382L
aI1497398658
aL2394624246L
aL2314804225L
aI185850034
aL3018809793L
aL2828756106L
aL3419144266L
aL3042173895L
aL2253841823L
aI1375860338
aL2992414321L
aL3242840227L
aL3384754253L
aL2788588083L
aL3298628798L
aL2203746163L
aL3167673070L
aL2471779542L
aL2231311262L
aL3258090918L
aL3012591177L
aasS'obj'
p7
ccopy_reg
_reconstructor
p8
(ctweepy.models
User
p9
c__builtin__
object
p10
Ntp11
Rp12
(dp13
S'follow_request_sent'
p14
NsS'has_extended_profile'
p15
I00
sS'profile_use_background_image'
p16
I01
sS'profile_sidebar_fill_color'
p17
VDDEEF6
p18
sS'id'
p19
L3279010324L
sS'verified'
p20
I00
sS'entities'
p21
(dp22
Vdescription
p23
(dp24
Vurls
p25
(lp26
sssS'profile_image_url_https'
p27
Vhttps://pbs.twimg.com/profile_images/604991235615506432/Ny1Dqms1_normal.jpg
p28
sS'_json'
p29
(dp30
Vfollow_request_sent
p31
NsVhas_extended_profile
p32
I00
sVprofile_use_background_image
p33
I01
sVdefault_profile_image
p34
I00
sVid
p35
L3279010324L
sVprofile_background_image_url_https
p36
Vhttps://abs.twimg.com/images/themes/theme1/bg.png
p37
sVverified
p38
I00
sVprofile_text_color
p39
V333333
p40
sVprofile_image_url_https
p41
g28
sVprofile_sidebar_fill_color
p42
g18
sVentities
p43
g22
sVfollowers_count
p44
I90
sVprofile_sidebar_border_color
p45
VC0DEED
p46
sVid_str
p47
V3279010324
p48
sVprofile_background_color
p49
VC0DEED
p50
sVlisted_count
p51
I17
sVstatus
p52
(dp53
Vcontributors
p54
NsVtruncated
p55
I00
sVtext
p56
VAfter 3,500% Gains In 4 Months We Have A New Stock Pick Coming Tomorrow! Check It Out: https://t.co/kgzTvtjdWA #Stocks $MRK $LGND
p57
sVin_reply_to_status_id
p58
Nsg35
L666278504951103489L
sVfavorite_count
p59
I0
sVsource
p60
V<a href="http://morningblue.ua" rel="nofollow">MorningBlue</a>
p61
sVretweeted
p62
I00
sVcoordinates
p63
Nsg43
(dp64
Vsymbols
p65
(lp66
(dp67
Vindices
p68
(lp69
I119
aI123
asg56
VMRK
p70
sa(dp71
g68
(lp72
I124
aI129
asg56
VLGND
p73
sasVuser_mentions
p74
(lp75
sVhashtags
p76
(lp77
(dp78
g68
(lp79
I111
aI118
asg56
VStocks
p80
sasg25
(lp81
(dp82
Vurl
p83
Vhttps://t.co/kgzTvtjdWA
p84
sg68
(lp85
I87
aI110
asVexpanded_url
p86
Vhttp://goo.gl/D9PjKD
p87
sVdisplay_url
p88
Vgoo.gl/D9PjKD
p89
sassVin_reply_to_screen_name
p90
Nsg47
V666278504951103489
p91
sVretweet_count
p92
I0
sVin_reply_to_user_id
p93
NsVfavorited
p94
I00
sVgeo
p95
NsVin_reply_to_user_id_str
p96
NsVpossibly_sensitive
p97
I00
sVlang
p98
Ven
p99
sVcreated_at
p100
VMon Nov 16 15:35:49 +0000 2015
p101
sVin_reply_to_status_id_str
p102
NsVplace
p103
NssVis_translation_enabled
p104
I00
sVutc_offset
p105
I-28800
sVstatuses_count
p106
I567
sg23
V
p107
sVfriends_count
p108
I182
sVlocation
p109
VMontgomery
p110
sVprofile_link_color
p111
V0084B4
p112
sVprofile_image_url
p113
Vhttp://pbs.twimg.com/profile_images/604991235615506432/Ny1Dqms1_normal.jpg
p114
sVfollowing
p115
NsVgeo_enabled
p116
I00
sVprofile_banner_url
p117
Vhttps://pbs.twimg.com/profile_banners/3279010324/1433076148
p118
sVprofile_background_image_url
p119
Vhttp://abs.twimg.com/images/themes/theme1/bg.png
p120
sVscreen_name
p121
Vstitomec81
p122
sg98
Ven
p123
sVprofile_background_tile
p124
I00
sVfavourites_count
p125
I0
sVname
p126
VMarcia Dodson
p127
sVnotifications
p128
Nsg83
Nsg100
VSun May 17 16:16:48 +0000 2015
p129
sVcontributors_enabled
p130
I00
sVtime_zone
p131
VPacific Time (US & Canada)
p132
sVprotected
p133
I00
sVdefault_profile
p134
I01
sVis_translator
p135
I00
ssS'contributors_enabled'
p136
I00
sS'profile_text_color'
p137
g40
sS'followers_count'
p138
I90
sS'profile_sidebar_border_color'
p139
g46
sS'id_str'
p140
g48
sS'default_profile_image'
p141
I00
sS'listed_count'
p142
I17
sS'status'
p143
g8
(ctweepy.models
Status
p144
g10
Ntp145
Rp146
(dp147
S'favorited'
p148
I00
sS'contributors'
p149
NsS'truncated'
p150
I00
sS'text'
p151
g57
sS'source_url'
p152
Vhttp://morningblue.ua
p153
sS'possibly_sensitive'
p154
I00
sS'in_reply_to_status_id'
p155
NsS'geo'
p156
Nsg19
L666278504951103489L
sS'favorite_count'
p157
I0
sS'lang'
p158
g99
sg21
g64
sS'created_at'
p159
cdatetime
datetime
p160
(S'\x07\xdf\x0b\x10\x0f#1\x00\x00\x00'
p161
tp162
Rp163
sg29
g53
sS'coordinates'
p164
NsS'in_reply_to_user_id_str'
p165
NsS'source'
p166
VMorningBlue
p167
sS'in_reply_to_status_id_str'
p168
NsS'in_reply_to_screen_name'
p169
Nsg140
g91
sS'retweeted'
p170
I00
sS'place'
p171
NsS'retweet_count'
p172
I0
sS'in_reply_to_user_id'
p173
NsbsS'is_translation_enabled'
p174
I00
sS'utc_offset'
p175
I-28800
sS'statuses_count'
p176
I567
sS'description'
p177
g107
sS'friends_count'
p178
I182
sS'location'
p179
g110
sS'profile_link_color'
p180
g112
sS'profile_image_url'
p181
g114
sS'notifications'
p182
NsS'geo_enabled'
p183
I00
sS'profile_background_color'
p184
g50
sS'profile_banner_url'
p185
g118
sS'profile_background_image_url'
p186
g120
sS'screen_name'
p187
g122
sg158
g123
sg1
I00
sS'profile_background_tile'
p188
I00
sS'favourites_count'
p189
I0
sS'name'
p190
g127
sS'url'
p191
Nsg159
g160
(S'\x07\xdf\x05\x11\x10\x100\x00\x00\x00'
p192
tp193
Rp194
sS'profile_background_image_url_https'
p195
g37
sS'time_zone'
p196
g132
sS'protected'
p197
I00
sS'default_profile'
p198
I01
sS'is_translator'
p199
I00
sbs.