(dp0
S'following'
p1
(lp2
(lp3
L3143306687L
aI17102024
aL2592355027L
aI571187531
aI15293504
aI15836013
aI17448591
aL3191421627L
aL2355032276L
aI15808765
aI15526110
aI19528499
aI437698597
aI182642157
aI14340145
aL3985052474L
aL3064948378L
aI27694273
aI7456262
aI1603818258
aI12
aI14253109
aI35739495
aI25443684
aL3318357122L
aI552096706
aI200583835
aI16228398
aI17493187
aI376502929
aI230287527
aI14886968
aI14424943
aI127062637
aI296453816
aL3039494043L
aL3044159284L
aI11046652
aI17823643
aL3246529312L
aI586
aI168857946
aL2411297293L
aL3496868665L
aI22815781
aI14993272
aI84444981
aI223604189
aI74104397
aI1629339452
aI14114873
aI14465607
aI358665042
aI14677012
aI17072650
aI1544701488
aI1544781733
aI1546210633
aI1544227476
aL2655277267L
aI1546201075
aL2940026270L
aI1544392183
aI1544733200
aI1544255845
aI1544385433
aI1578182210
aL3300865039L
aI1546129784
aL3300900565L
aI1546196065
aL2375705424L
aI1546551954
aL3329003834L
aI1666272686
aI1544717430
aL3328995974L
aL3328964724L
aL2371375508L
aL2427590352L
aL3301803895L
aI1544720000
aI1544380730
aL3329027942L
aL3329007336L
aL3329129701L
aL3060678379L
aL3300833041L
aL3301767812L
aI1546206451
aL3301715004L
aI1544768923
aL3329104754L
aL3301715886L
aI134551488
aI53122252
aI21583653
aI41798642
aI27814665
aI14923738
aI23434774
aI29538094
aI573918122
aI5943622
aI16986251
aI13920962
aI2384071
aI1605
aI5702
aI6854702
aI544655821
aI38728161
aI713125309
aI214046808
aI1586501
aI21436378
aI734680260
aI14143740
aI1534820036
aL2557515984L
aI18427553
aI4411201
aI30131061
aI591331840
aI122436733
aI1544330178
aI594086618
aI18021826
aI94143715
aI5668942
aI23211548
aI563733109
aL2336908730L
aI1546139108
aI22796729
aI297285443
aI25117259
aI61786697
aI1853640440
aI520714982
aI67088724
aL3232841537L
aI53996905
aI22938914
aI17503180
aI20536157
aI19348786
aL3003813372L
aI20348377
aI327602105
aL3085835595L
aI17230018
aI652193
aL2788398967L
aI47472909
aI596661417
aI42226885
aI860281
aI1442906958
aI1544755670
aI300254006
aI192579441
aI22330739
aI3080761
aI206277247
aI226736414
aI29132813
aI1544295582
aI5251831
aI8383592
aI22222926
aI227423290
aI15649706
aI42751260
aI179615493
aI42631355
aI1544741402
aI198179597
aI19510398
aI618137887
aI25823322
aI15233827
aI92808495
aI17813899
aI15356187
aL2177043126L
aL3071475088L
aI28894912
aI1544270486
aI17093617
aI21328656
aasS'followers'
p4
(lp5
(lp6
L2468139330L
aL2711771406L
aL3346129893L
aI27340038
aI223604189
aL2339814349L
aI20210319
aI1604707010
aL3120145617L
aI17617767
aI525713285
aI494502009
aI36995549
aI20478532
aL4184948413L
aI23665495
aI54424759
aL4136964641L
aI1935657224
aI15839659
aI59996811
aI425917134
aL2482202581L
aI14655739
aI16743617
aI540018581
aI7668952
aL3158043492L
aI323214939
aI19629681
aL3004335640L
aL3064471126L
aI76511168
aI14886968
aI250362250
aI11076052
aL3985052474L
aI14806188
aI300965890
aI418793735
aI89650589
aI200583835
aI32754740
aL2191186693L
aI11046652
aL3523282514L
aL3315957697L
aL3246529312L
aI74104397
aI59143641
aL2206354879L
aI24650475
aI117831245
aL3520220114L
aI1129414574
aI225644341
aI22815781
aI269766987
aL2703541890L
aL2906439339L
aI14993272
aL2304037063L
aI190366115
aI53362423
aI1950079964
aI78930585
aI1370487162
aI1629339452
aI14465607
aI1092976531
aI44159905
aI246480687
aL3064421823L
aI14143740
aL3022749165L
aI191230710
aL3447144195L
aI856919468
aI17984407
aI124829064
aI832179560
aI354377529
aI53342385
aI466521178
aI1941718076
aI1922109547
aI53254704
aL2518144656L
aI1131884671
aI17466183
aI33441912
aI1546551954
aI1544768923
aL2940026270L
aL3301715004L
aL3329104754L
aI1546206451
aL3301767812L
aI1544733200
aL3060678379L
aL3329129701L
aI1544392183
aI1546196065
aI1578182210
aL3301803895L
aL3329007336L
aL3329027942L
aI1546201075
aI1544720000
aI1544755670
aI1544380730
aI1534820036
aI1544781733
aL2427590352L
aL2371375508L
aI1546129784
aI1544701488
aL3328964724L
aI1544227476
aI1666272686
aI1544385433
aL3329003834L
aI1544295582
aL3328995974L
aL2655277267L
aI1544717430
aL3301715886L
aI21583653
aL3300900565L
aL2375705424L
aI100309266
aI22741371
aI1544255845
aL3068025846L
aI38592000
aL2490905178L
aI382670175
aL3075781642L
aI1546210633
aL3221636191L
aI331348168
aL3087554734L
aL3300833041L
aL2557515984L
aI14275155
aL3300865039L
aI1544330178
aL2765324433L
aI14923738
aL2177043126L
aI55592652
aI1339656469
aI1777001
aL2595587727L
aL3249638886L
aI21436378
aI1546139108
aI22796729
aI24566128
aI538065716
aI46262172
aL2776619092L
aI47078814
aI18561417
aI220853427
aL3240729500L
aL2788398967L
aI66238666
aI23434774
aI9809992
aI1544741402
aI593528655
aI227423290
aI92808495
aI15233827
aI1544270486
aasS'obj'
p7
ccopy_reg
_reconstructor
p8
(ctweepy.models
User
p9
c__builtin__
object
p10
Ntp11
Rp12
(dp13
S'follow_request_sent'
p14
NsS'has_extended_profile'
p15
I00
sS'profile_use_background_image'
p16
I01
sS'profile_sidebar_fill_color'
p17
V000000
p18
sS'id'
p19
L3301055945L
sS'verified'
p20
I00
sS'entities'
p21
(dp22
Vurl
p23
(dp24
Vurls
p25
(lp26
(dp27
g23
Vhttp://t.co/H0FeW2A3bG
p28
sVindices
p29
(lp30
I0
aI22
asVexpanded_url
p31
Vhttp://www.investors.com
p32
sVdisplay_url
p33
Vinvestors.com
p34
sassVdescription
p35
(dp36
g25
(lp37
sssS'profile_image_url_https'
p38
Vhttps://pbs.twimg.com/profile_images/603713709295280129/82kyyyB__normal.jpg
p39
sS'_json'
p40
(dp41
Vfollow_request_sent
p42
NsVhas_extended_profile
p43
I00
sVprofile_use_background_image
p44
I01
sVdefault_profile_image
p45
I00
sVid
p46
L3301055945L
sVprofile_background_image_url_https
p47
Vhttps://abs.twimg.com/images/themes/theme1/bg.png
p48
sVverified
p49
I00
sVprofile_text_color
p50
V000000
p51
sVprofile_image_url_https
p52
g39
sVprofile_sidebar_fill_color
p53
g18
sVentities
p54
g22
sVfollowers_count
p55
I176
sVprofile_sidebar_border_color
p56
V000000
p57
sVid_str
p58
V3301055945
p59
sVprofile_background_color
p60
VC0DEED
p61
sVlisted_count
p62
I13
sVstatus
p63
(dp64
Vlang
p65
Ven
p66
sVfavorited
p67
I00
sg54
(dp68
Vsymbols
p69
(lp70
sVuser_mentions
p71
(lp72
(dp73
g46
I41798642
sg29
(lp74
I0
aI10
asg58
V41798642
p75
sVscreen_name
p76
Vbradedits
p77
sVname
p78
VBradley Bennett
p79
sasVhashtags
p80
(lp81
sg25
(lp82
ssVcontributors
p83
NsVtruncated
p84
I00
sVtext
p85
V@bradedits Thanks for the tweet-out, Brad!
p86
sVcreated_at
p87
VMon Nov 16 19:08:59 +0000 2015
p88
sVretweeted
p89
I00
sVin_reply_to_status_id_str
p90
NsVcoordinates
p91
NsVin_reply_to_user_id_str
p92
V41798642
p93
sVsource
p94
V<a href="http://www.hootsuite.com" rel="nofollow">Hootsuite</a>
p95
sVin_reply_to_status_id
p96
NsVin_reply_to_screen_name
p97
Vbradedits
p98
sg58
V666332151613386753
p99
sVplace
p100
NsVretweet_count
p101
I0
sVgeo
p102
Nsg46
L666332151613386753L
sVfavorite_count
p103
I0
sVin_reply_to_user_id
p104
I41798642
ssVis_translation_enabled
p105
I00
sVutc_offset
p106
I-28800
sVstatuses_count
p107
I399
sg35
V
p108
sVfriends_count
p109
I191
sVlocation
p110
g108
sVprofile_link_color
p111
V0084B4
p112
sVprofile_image_url
p113
Vhttp://pbs.twimg.com/profile_images/603713709295280129/82kyyyB__normal.jpg
p114
sVfollowing
p115
NsVgeo_enabled
p116
I00
sVprofile_banner_url
p117
Vhttps://pbs.twimg.com/profile_banners/3301055945/1432771506
p118
sVprofile_background_image_url
p119
Vhttp://abs.twimg.com/images/themes/theme1/bg.png
p120
sg76
VIBD_MChandler
p121
sg65
Ven
p122
sVprofile_background_tile
p123
I00
sVfavourites_count
p124
I0
sg78
VMichele Chandler
p125
sVnotifications
p126
Nsg23
Vhttp://t.co/H0FeW2A3bG
p127
sg87
VWed May 27 23:56:36 +0000 2015
p128
sVcontributors_enabled
p129
I00
sVtime_zone
p130
VPacific Time (US & Canada)
p131
sVprotected
p132
I00
sVdefault_profile
p133
I00
sVis_translator
p134
I00
ssS'contributors_enabled'
p135
I00
sS'profile_text_color'
p136
g51
sS'followers_count'
p137
I176
sS'profile_sidebar_border_color'
p138
g57
sS'id_str'
p139
g59
sS'default_profile_image'
p140
I00
sS'listed_count'
p141
I13
sS'status'
p142
g8
(ctweepy.models
Status
p143
g10
Ntp144
Rp145
(dp146
S'favorited'
p147
I00
sS'contributors'
p148
NsS'truncated'
p149
I00
sS'text'
p150
g86
sS'source_url'
p151
Vhttp://www.hootsuite.com
p152
sS'in_reply_to_status_id'
p153
NsS'geo'
p154
Nsg19
L666332151613386753L
sS'favorite_count'
p155
I0
sS'lang'
p156
g66
sg21
g68
sS'created_at'
p157
cdatetime
datetime
p158
(S'\x07\xdf\x0b\x10\x13\x08;\x00\x00\x00'
p159
tp160
Rp161
sg40
g64
sS'coordinates'
p162
NsS'in_reply_to_user_id_str'
p163
g93
sS'source'
p164
VHootsuite
p165
sS'in_reply_to_status_id_str'
p166
NsS'in_reply_to_screen_name'
p167
g98
sg139
g99
sS'retweeted'
p168
I00
sS'place'
p169
NsS'retweet_count'
p170
I0
sS'in_reply_to_user_id'
p171
I41798642
sbsS'is_translation_enabled'
p172
I00
sS'utc_offset'
p173
I-28800
sS'statuses_count'
p174
I399
sS'description'
p175
g108
sS'friends_count'
p176
I191
sS'location'
p177
g108
sS'profile_link_color'
p178
g112
sS'profile_image_url'
p179
g114
sS'notifications'
p180
NsS'geo_enabled'
p181
I00
sS'profile_background_color'
p182
g61
sS'profile_banner_url'
p183
g118
sS'profile_background_image_url'
p184
g120
sS'screen_name'
p185
g121
sg156
g122
sg1
I00
sS'profile_background_tile'
p186
I00
sS'favourites_count'
p187
I0
sS'name'
p188
g125
sS'url'
p189
g127
sg157
g158
(S'\x07\xdf\x05\x1b\x178$\x00\x00\x00'
p190
tp191
Rp192
sS'profile_background_image_url_https'
p193
g48
sS'time_zone'
p194
g131
sS'protected'
p195
I00
sS'default_profile'
p196
I00
sS'is_translator'
p197
I00
sbs.