(dp0
S'following'
p1
(lp2
(lp3
L3372565029L
aL3312904778L
aL2832290394L
aI545526535
aL3232987351L
aL2269093846L
aL3313844576L
aL2962525243L
aL3313374103L
aL3164570815L
aI203459710
aL3252169340L
aI582681311
aI582756204
aI782766542
aL3309437179L
aL3315453067L
aI492476220
aI17777216
aL3565099697L
aI434391713
aL2890415114L
aI1878966306
aL3439522365L
aI1685591046
aI235342934
aL3401452072L
aL2477692142L
aL2744882342L
aI233530413
aI607282831
aI191449523
aI173074162
aL2320373978L
aI137404635
aL2803201472L
aI295570408
aL2219593358L
aI1961001702
aL3391880213L
aL2593047512L
aI1577012906
aI446548796
aL2781104845L
aL2541866281L
aI446385212
aI1104335616
aI448300991
aI16781181
aI448307094
aL2189544852L
aL3096978210L
aL3350737294L
aI36966177
aL3227342222L
aL2959986824L
aI316054026
aL2418912596L
aI17977954
aI456760820
aI109041907
aI34351226
aI51391423
aI261090708
aI41340843
aI211568048
aI30969644
aI1648125986
aI1076205240
aI1083277968
aI14854023
aI600388202
aI1435811695
aI14342661
aL2608743545L
aI45664510
aI392644526
aI583012961
aI16427734
aI332391050
aI74893531
aI459729871
aI607534574
aI402449787
aI1159062192
aI14660494
aI14941222
aI43233906
aI249725755
aI53965152
aI230807603
aI1160617374
aI39073653
aI979817576
aI7345422
aI268592123
aI132196606
aI17621419
aI22497774
aI582181925
aI62070337
aI270440459
aI10228272
aI44409004
aI950165300
aI597301440
aI101695592
aI158487331
aI18681139
aI132385468
aI316577087
aI107318424
aI243381107
aI88856792
aI33801019
aI57928790
aI56631494
aI300392950
aI60865434
aI150429478
aI87174678
aI56913467
aI51376979
aI31348594
aI195703895
aI142722336
aI783214
aI145125358
aI382267114
aI2459371
aI94163409
aI183230911
aI113419517
aI102382667
aI317034396
aL2469605695L
aI16409683
aI85603854
aI19895282
aI155659213
aI101311381
aI79708561
aasS'followers'
p4
(lp5
(lp6
L2974508085L
aI963162110
aL3605986636L
aI1309808982
aL3707637795L
aL3252945852L
aI576999101
aL3320654594L
aL3600466701L
aI218044541
aL2525728861L
aI134827664
aI266975410
aL3304512970L
aI21841580
aL4029287473L
aL3420721269L
aI47311222
aL3551004254L
aI296222470
aL2799325702L
aL2793607300L
aL2283726224L
aI41044925
aI22495507
aL2864738362L
aL3245037886L
aL3785494459L
aL2317376730L
aL3812319016L
aI1080117824
aI201844748
aL2194728303L
aL3295057068L
aI848746200
aI236539594
aI46081994
aI108639183
aI253564295
aI18548136
aL2456975910L
aI1884479923
aI1354162879
aI117826168
aI24202123
aI935339798
aL3805648756L
aI316067602
aI1937844644
aI317807484
aI25712530
aL2937986194L
aL3241168503L
aL2209499134L
aI127967449
aL3339738743L
aI61954315
aL3274370444L
aI219496700
aL3407129650L
aI317426526
aL3274538373L
aL3242820545L
aI85513986
aI39665309
aI979817576
aL3198800336L
aL3264571551L
aL3133851107L
aI1087631756
aI117239149
aL2165676145L
aI189064598
aL3081530098L
aL2996187439L
aL3365930398L
aL2196272052L
aI475836940
aI480404068
aL3588373517L
aL3414243320L
aL3002831895L
aL2825028738L
aL3007157752L
aI214724588
aI316054026
aL2959986824L
aL3227342222L
aI36966177
aL3350737294L
aL3096978210L
aL2189544852L
aI448307094
aI16781181
aI448300991
aI1104335616
aI446385212
aL2541866281L
aL2781104845L
aI446548796
aI1577012906
aL2593047512L
aL3391880213L
aI1961001702
aL2219593358L
aI295570408
aL2803201472L
aI137404635
aL2320373978L
aI173074162
aI191449523
aI607282831
aL2744882342L
aL2477692142L
aL3401452072L
aI235342934
aI1685591046
aL3439522365L
aI1878966306
aL2890415114L
aI434391713
aL3565099697L
aI17777216
aI492476220
aL3315453067L
aL3309437179L
aI782766542
aI582756204
aI582681311
aI203459710
aL3313374103L
aL3313844576L
aL2269093846L
aI545526535
aL2832290394L
aI39073653
aL3312904778L
aL3372565029L
aL3312789386L
aasS'obj'
p7
ccopy_reg
_reconstructor
p8
(ctweepy.models
User
p9
c__builtin__
object
p10
Ntp11
Rp12
(dp13
S'follow_request_sent'
p14
I00
sS'has_extended_profile'
p15
I00
sS'profile_use_background_image'
p16
I01
sS'profile_sidebar_fill_color'
p17
VDDEEF6
p18
sS'id'
p19
L3308973378L
sS'verified'
p20
I00
sS'entities'
p21
(dp22
Vdescription
p23
(dp24
Vurls
p25
(lp26
sssS'profile_image_url_https'
p27
Vhttps://pbs.twimg.com/profile_images/629737218404265984/fb0rTJC9_normal.jpg
p28
sS'_json'
p29
(dp30
Vfollow_request_sent
p31
I00
sVhas_extended_profile
p32
I00
sVprofile_use_background_image
p33
I01
sVdefault_profile_image
p34
I00
sVid
p35
L3308973378L
sVprofile_background_image_url_https
p36
Vhttps://abs.twimg.com/images/themes/theme1/bg.png
p37
sVverified
p38
I00
sVprofile_text_color
p39
V333333
p40
sVprofile_image_url_https
p41
g28
sVprofile_sidebar_fill_color
p42
g18
sVentities
p43
g22
sVfollowers_count
p44
I139
sVprofile_sidebar_border_color
p45
VC0DEED
p46
sVid_str
p47
V3308973378
p48
sVprofile_background_color
p49
VC0DEED
p50
sVlisted_count
p51
I104
sVstatus
p52
(dp53
Vlang
p54
Ven
p55
sVfavorited
p56
I00
sg43
(dp57
Vsymbols
p58
(lp59
sVuser_mentions
p60
(lp61
sVhashtags
p62
(lp63
(dp64
Vindices
p65
(lp66
I18
aI25
asVtext
p67
VTicket
p68
sasg25
(lp69
ssVcontributors
p70
NsVtruncated
p71
I00
sg67
VRT Canada_D_Deals #Ticket - 2 Tickets Maroon 5 Vivint Smart Home Arena Energy Solutions Arena Salt Lake City:  C $798... \u2026
p72
sVcreated_at
p73
VMon Nov 16 21:56:42 +0000 2015
p74
sVretweeted
p75
I00
sVin_reply_to_status_id_str
p76
NsVcoordinates
p77
NsVin_reply_to_user_id_str
p78
NsVsource
p79
V<a href="http://ifttt.com" rel="nofollow">IFTTT</a>
p80
sVin_reply_to_status_id
p81
NsVin_reply_to_screen_name
p82
Nsg47
V666374360542912512
p83
sVplace
p84
NsVretweet_count
p85
I0
sVgeo
p86
Nsg35
L666374360542912512L
sVfavorite_count
p87
I0
sVin_reply_to_user_id
p88
NssVis_translation_enabled
p89
I00
sVutc_offset
p90
NsVstatuses_count
p91
I13843
sg23
VModel. Car Enthusiast. Sporty and Nature Lover. Into #energyefficient living.
p92
sVfriends_count
p93
I142
sVlocation
p94
VCharleston, WV
p95
sVprofile_link_color
p96
V0084B4
p97
sVprofile_image_url
p98
Vhttp://pbs.twimg.com/profile_images/629737218404265984/fb0rTJC9_normal.jpg
p99
sVfollowing
p100
I00
sVgeo_enabled
p101
I00
sVprofile_banner_url
p102
Vhttps://pbs.twimg.com/profile_banners/3308973378/1439335275
p103
sVprofile_background_image_url
p104
Vhttp://abs.twimg.com/images/themes/theme1/bg.png
p105
sVscreen_name
p106
VBernardLowr
p107
sg54
Ven
p108
sVprofile_background_tile
p109
I00
sVfavourites_count
p110
I4
sVname
p111
VBernard C. Lowry
p112
sVnotifications
p113
I00
sVurl
p114
Nsg73
VFri Aug 07 19:32:46 +0000 2015
p115
sVcontributors_enabled
p116
I00
sVtime_zone
p117
NsVprotected
p118
I00
sVdefault_profile
p119
I01
sVis_translator
p120
I00
ssS'contributors_enabled'
p121
I00
sS'profile_text_color'
p122
g40
sS'followers_count'
p123
I139
sS'profile_sidebar_border_color'
p124
g46
sS'id_str'
p125
g48
sS'default_profile_image'
p126
I00
sS'listed_count'
p127
I104
sS'status'
p128
g8
(ctweepy.models
Status
p129
g10
Ntp130
Rp131
(dp132
S'favorited'
p133
I00
sS'contributors'
p134
NsS'truncated'
p135
I00
sS'text'
p136
g72
sS'source_url'
p137
Vhttp://ifttt.com
p138
sS'in_reply_to_status_id'
p139
NsS'geo'
p140
Nsg19
L666374360542912512L
sS'favorite_count'
p141
I0
sS'lang'
p142
g55
sg21
g57
sS'created_at'
p143
cdatetime
datetime
p144
(S'\x07\xdf\x0b\x10\x158*\x00\x00\x00'
p145
tp146
Rp147
sg29
g53
sS'coordinates'
p148
NsS'in_reply_to_user_id_str'
p149
NsS'source'
p150
VIFTTT
p151
sS'in_reply_to_status_id_str'
p152
NsS'in_reply_to_screen_name'
p153
Nsg125
g83
sS'retweeted'
p154
I00
sS'place'
p155
NsS'retweet_count'
p156
I0
sS'in_reply_to_user_id'
p157
NsbsS'is_translation_enabled'
p158
I00
sS'utc_offset'
p159
NsS'statuses_count'
p160
I13843
sS'description'
p161
g92
sS'friends_count'
p162
I142
sS'location'
p163
g95
sS'profile_link_color'
p164
g97
sS'profile_image_url'
p165
g99
sS'notifications'
p166
I00
sS'geo_enabled'
p167
I00
sS'profile_background_color'
p168
g50
sS'profile_banner_url'
p169
g103
sS'profile_background_image_url'
p170
g105
sS'screen_name'
p171
g107
sg142
g108
sg1
I00
sS'profile_background_tile'
p172
I00
sS'favourites_count'
p173
I4
sS'name'
p174
g112
sS'url'
p175
Nsg143
g144
(S'\x07\xdf\x08\x07\x13 .\x00\x00\x00'
p176
tp177
Rp178
sS'profile_background_image_url_https'
p179
g37
sS'time_zone'
p180
NsS'protected'
p181
I00
sS'default_profile'
p182
I01
sS'is_translator'
p183
I00
sbs.