(dp0
S'following'
p1
(lp2
(lp3
L3231207888L
aL3415711720L
aL3312492598L
aL2388494564L
aL3406660814L
aI119466311
aL2678410093L
aI85704400
aI1383526530
aI420249347
aI259876991
aI96853695
aL2596877780L
aI17777216
aI158484028
aI466953623
aI54182296
aI20604477
aI132482991
aI261658948
aI15088481
aI241797395
aI28167824
aL2767799757L
aL3178240107L
aL3296685088L
aI276918379
aL3103287377L
aI831197899
aI254066744
aL3429510406L
aL2575113361L
aI1631505654
aI46818339
aI422033415
aL3403300753L
aL2957721364L
aL3368394364L
aL3311888905L
aI18987875
aI160359714
aI76150465
aI161272503
aL2560436028L
aL2525694049L
aI173074162
aI316599166
aL2492332369L
aL2932065602L
aL3253026160L
aI122846020
aL3584633117L
aI446846438
aI53112282
aI118359290
aL2814639473L
aL3044573357L
aI316544434
aI117680349
aI68418916
aI25828822
aL3271101068L
aI26257166
aI51263592
aI19426551
aI2557521
aL3260199235L
aI17471979
aI877772660
aI35114229
aI105358412
aI117662694
aI29590631
aI129324340
aI159947748
aI26776416
aI28739891
aI19825300
aI533747731
aI38232601
aI106917546
aI44691839
aI36878507
aI69066395
aI20611072
aI292538890
aI1247954210
aI407431167
aI17078333
aI582175283
aI40045415
aI18379848
aI316577087
aI158487331
aI382267114
aI107318424
aI33801019
aI108936259
aI94163409
aI115341081
aI213278292
aI68497896
aI101311381
aI183230911
aI783214
aI56913467
aI88856792
aI85603854
aI597301440
aI87174678
aI84554399
aI16409683
aI300392950
aI142722336
aI950165300
aL2469605695L
aI31348594
aI18681139
aI195703895
aI317034396
aI60865434
aI155659213
aI44409004
aI102382667
aI150429478
aI2459371
aI113419517
aI243381107
aI132385468
aI145125358
aI10228272
aI79708561
aasS'followers'
p4
(lp5
(lp6
L3389315950L
aI1489959858
aI1648088118
aI1108555303
aL3289611257L
aL3434343921L
aI117760769
aL4037445875L
aL3515920032L
aL2927193662L
aI259384798
aL3032851327L
aL3061590086L
aL2618183948L
aL4209200892L
aI121489951
aI339768367
aL3920240021L
aL3289673974L
aI310224953
aL3272274950L
aI117512175
aI201002603
aI313291590
aI316381371
aI1669131266
aI316476132
aL2334947540L
aL3644095161L
aL3308138113L
aI1666311402
aL2888648754L
aI367609291
aL3350493279L
aI1583359764
aI1665807648
aI1240928234
aI248965741
aI75918423
aL2882796295L
aI148044456
aL3542989823L
aL3086568041L
aL2599003902L
aL2838023332L
aL3639534855L
aI14065217
aL2895094386L
aL2922410920L
aI935339798
aL2154635347L
aL2192215837L
aL4037359695L
aL3151071170L
aL2302123975L
aI15589187
aL2277632947L
aL2160799123L
aL3022474355L
aI315794078
aL3350174086L
aL2547150300L
aI9555372
aI1870257798
aI1943699478
aL3511068433L
aL4009292908L
aL3551006952L
aI995255108
aL3151834587L
aI881895504
aI316143171
aI316356270
aI41044925
aI85480579
aI1011255522
aI17599655
aL3318346735L
aL3293972222L
aI14297863
aI626201161
aI238506915
aL2882736641L
aI257618318
aI19839492
aL3239430826L
aI162611402
aL2959505204L
aL3049415560L
aL3419636717L
aL4091501125L
aL2266573932L
aI1911483907
aL3988743436L
aI16381764
aL3271766593L
aI39559526
aL2288632549L
aL4089441737L
aL3865720873L
aL3188386603L
aL2289470923L
aL4076952374L
aL2948859940L
aL3594222132L
aI315812538
aL2279881490L
aL3785494459L
aI227871081
aL3422960997L
aL4043159114L
aL3900227549L
aL4046953769L
aI1309808982
aL3333703583L
aI76589747
aL2151191976L
aI1870056282
aI53655101
aL3166282022L
aI376211514
aL3369696333L
aL3978527414L
aL3690823574L
aI543391385
aL3162319070L
aL3240984268L
aI17010744
aL3259890619L
aI158002272
aL3243860800L
aL3296410176L
aI46081994
aL3024045777L
aL3420013581L
aI316422090
aL3431381486L
aI633429068
aL2456975910L
aL3432109457L
aL3061037952L
aI1571074795
aL3006488859L
aI1870104218
aI1870278956
aI335973143
aI1348806804
aI749682607
aI352541704
aI368006507
aI123665015
aI124757405
aI108045600
aI469523424
aL3233970430L
aI314649566
aL3118978727L
aL3895280183L
aI32583527
aL3436860964L
aI502223204
aL3701688059L
aL3513354012L
aL3232945291L
aI196660110
aI15062875
aI211154075
aI177728250
aI245191224
aL3763933521L
aL3646849874L
aL3214265059L
aL3723347839L
aL3937196235L
aL3506201965L
aL3603931213L
aI316629206
aL3562943417L
aL3774377772L
aI475834701
aI316044436
aI448189265
aI139960419
aI229959024
aI18548136
aI165097212
aL2937986194L
aI315811787
aI286502984
aL2778607333L
aI126528174
aI1566548371
aI317125424
aL2569521432L
aI526287180
aI492435765
aI343956175
aI316057641
aL3577371434L
aL3582426613L
aL3246348663L
aI316560125
aI48798239
aL3528757157L
aL3365147419L
aL3608893458L
aI927149443
aI253016817
aI1946290314
aI264810275
aL3638193674L
aL3175675651L
aL3643959013L
aL3331734974L
aI310352745
aI316594616
aL3668199913L
aI232966858
aI1703644280
aL3595914312L
aI1290447392
aL3398540239L
aI316441586
aL3654984313L
aL2823694738L
aL3001797909L
aL3093527068L
aL3296869087L
aL3305838528L
aI47041310
aI121656620
aI16111165
aI512541268
aL3307815565L
aI316067602
aL3603347473L
aL2315975940L
aI300242761
aI45458194
aI317131602
aL3214555744L
aI118656858
aL2870663723L
aL3589857072L
aI25060654
aL3622982353L
aL3645194984L
aI124046379
aL3448976140L
aI15377115
aI121678029
aL3799553063L
aI21558596
aL3403140257L
aL3530974708L
aI42955907
aL3664535242L
aI316327289
aI820426580
aI122001763
aL2524539090L
aL3623068219L
aI118331904
aL2524990849L
aL2433335246L
aI318486237
aL2587748954L
aI1259538278
aL3670761672L
aI316599729
aL3333198905L
aL2228868511L
aL3618203717L
aL3372601878L
aI88351974
aL3415531577L
aL3030030485L
aI1119821072
aI15800907
aL3061630035L
aL2508660594L
aL2282691542L
aL3059875991L
aL3145380277L
aI374016426
aL2279889259L
aL2970915792L
aL3324233296L
aL3558991935L
aI347665459
aL2231635153L
aL3453387552L
aI283974554
aL3595350617L
aI30818473
aI20270890
aL3455461093L
aL3615966137L
aI132688690
aL3429794473L
aI26539442
aL3642424215L
aL3612853343L
aL3328609477L
aI155269387
aL2462225906L
aI390961385
aL3339734608L
aL3289555633L
aL3059772739L
aI1598259241
aL3315352936L
aL3311727529L
aL3307214265L
aI242957324
aL3271101068L
aI25828822
aI68418916
aI117680349
aI316544434
aL3044573357L
aL2814639473L
aI53112282
aI446846438
aL3584633117L
aI122846020
aL3253026160L
aL2932065602L
aL2492332369L
aI316599166
aI173074162
aL2525694049L
aI161272503
aI160359714
aI18987875
aL3311888905L
aL3368394364L
aL2957721364L
aL3403300753L
aI46818339
aI1631505654
aL2575113361L
aL3429510406L
aI254066744
aI831197899
aL3103287377L
aI276918379
aL3296685088L
aL3178240107L
aL2767799757L
aI28167824
aI241797395
aI15088481
aI261658948
aI132482991
aI20604477
aI54182296
aI466953623
aI17777216
aI96853695
aI420249347
aI1383526530
aI85704400
aL2678410093L
aI119466311
aL3231207888L
aL2388494564L
aL3312492598L
aL3415711720L
aasS'obj'
p7
ccopy_reg
_reconstructor
p8
(ctweepy.models
User
p9
c__builtin__
object
p10
Ntp11
Rp12
(dp13
S'follow_request_sent'
p14
NsS'has_extended_profile'
p15
I00
sS'profile_use_background_image'
p16
I01
sS'profile_sidebar_fill_color'
p17
VDDEEF6
p18
sS'id'
p19
L3309001212L
sS'verified'
p20
I00
sS'entities'
p21
(dp22
Vdescription
p23
(dp24
Vurls
p25
(lp26
sssS'profile_image_url_https'
p27
Vhttps://pbs.twimg.com/profile_images/631232433845702656/CFfLE-c0_normal.jpg
p28
sS'_json'
p29
(dp30
Vfollow_request_sent
p31
NsVhas_extended_profile
p32
I00
sVprofile_use_background_image
p33
I01
sVdefault_profile_image
p34
I00
sVid
p35
L3309001212L
sVprofile_background_image_url_https
p36
Vhttps://abs.twimg.com/images/themes/theme1/bg.png
p37
sVverified
p38
I00
sVprofile_text_color
p39
V333333
p40
sVprofile_image_url_https
p41
g28
sVprofile_sidebar_fill_color
p42
g18
sVentities
p43
g22
sVfollowers_count
p44
I369
sVprofile_sidebar_border_color
p45
VC0DEED
p46
sVid_str
p47
V3309001212
p48
sVprofile_background_color
p49
VC0DEED
p50
sVlisted_count
p51
I353
sVstatus
p52
(dp53
Vlang
p54
Ven
p55
sVfavorited
p56
I00
sg43
(dp57
Vsymbols
p58
(lp59
sVuser_mentions
p60
(lp61
sVhashtags
p62
(lp63
(dp64
Vindices
p65
(lp66
I35
aI45
asVtext
p67
VGreenTech
p68
sasg25
(lp69
ssVcontributors
p70
NsVtruncated
p71
I00
sg67
VRT charlesb430 via GridPowerEnergy\u000a#GreenTech Dominion acquires solar energy project on Virginia's Eastern Shore - Augusta Free... \u2026
p72
sVcreated_at
p73
VTue Nov 17 12:47:57 +0000 2015
p74
sVretweeted
p75
I00
sVin_reply_to_status_id_str
p76
NsVcoordinates
p77
NsVin_reply_to_user_id_str
p78
NsVsource
p79
V<a href="http://ifttt.com" rel="nofollow">IFTTT</a>
p80
sVin_reply_to_status_id
p81
NsVin_reply_to_screen_name
p82
Nsg47
V666598649858781184
p83
sVplace
p84
NsVretweet_count
p85
I0
sVgeo
p86
Nsg35
L666598649858781184L
sVfavorite_count
p87
I0
sVin_reply_to_user_id
p88
NssVis_translation_enabled
p89
I00
sVutc_offset
p90
NsVstatuses_count
p91
I94159
sg23
VInvolved in #solarpanals and renewable resources.
p92
sVfriends_count
p93
I132
sVlocation
p94
VTampa FL
p95
sVprofile_link_color
p96
V0084B4
p97
sVprofile_image_url
p98
Vhttp://pbs.twimg.com/profile_images/631232433845702656/CFfLE-c0_normal.jpg
p99
sVfollowing
p100
NsVgeo_enabled
p101
I00
sVprofile_banner_url
p102
Vhttps://pbs.twimg.com/profile_banners/3309001212/1439332540
p103
sVprofile_background_image_url
p104
Vhttp://abs.twimg.com/images/themes/theme1/bg.png
p105
sVscreen_name
p106
Vmarkcote873
p107
sg54
Ven
p108
sVprofile_background_tile
p109
I00
sVfavourites_count
p110
I1
sVname
p111
VMark Cote
p112
sVnotifications
p113
NsVurl
p114
Nsg73
VFri Aug 07 20:32:24 +0000 2015
p115
sVcontributors_enabled
p116
I00
sVtime_zone
p117
NsVprotected
p118
I00
sVdefault_profile
p119
I01
sVis_translator
p120
I00
ssS'contributors_enabled'
p121
I00
sS'profile_text_color'
p122
g40
sS'followers_count'
p123
I369
sS'profile_sidebar_border_color'
p124
g46
sS'id_str'
p125
g48
sS'default_profile_image'
p126
I00
sS'listed_count'
p127
I353
sS'status'
p128
g8
(ctweepy.models
Status
p129
g10
Ntp130
Rp131
(dp132
S'favorited'
p133
I00
sS'contributors'
p134
NsS'truncated'
p135
I00
sS'text'
p136
VRT charlesb430 via GridPowerEnergy\u000a#GreenTech Dominion acquires solar energy project on Virginia's Eastern Shore - Augusta Free... \u2026
p137
sS'source_url'
p138
Vhttp://ifttt.com
p139
sS'in_reply_to_status_id'
p140
NsS'geo'
p141
Nsg19
L666598649858781184L
sS'favorite_count'
p142
I0
sS'lang'
p143
g55
sg21
g57
sS'created_at'
p144
cdatetime
datetime
p145
(S'\x07\xdf\x0b\x11\x0c/9\x00\x00\x00'
p146
tp147
Rp148
sg29
g53
sS'coordinates'
p149
NsS'in_reply_to_user_id_str'
p150
NsS'source'
p151
VIFTTT
p152
sS'in_reply_to_status_id_str'
p153
NsS'in_reply_to_screen_name'
p154
Nsg125
g83
sS'retweeted'
p155
I00
sS'place'
p156
NsS'retweet_count'
p157
I0
sS'in_reply_to_user_id'
p158
NsbsS'is_translation_enabled'
p159
I00
sS'utc_offset'
p160
NsS'statuses_count'
p161
I94159
sS'description'
p162
g92
sS'friends_count'
p163
I132
sS'location'
p164
g95
sS'profile_link_color'
p165
g97
sS'profile_image_url'
p166
g99
sS'notifications'
p167
NsS'geo_enabled'
p168
I00
sS'profile_background_color'
p169
g50
sS'profile_banner_url'
p170
g103
sS'profile_background_image_url'
p171
g105
sS'screen_name'
p172
g107
sg143
g108
sg1
I00
sS'profile_background_tile'
p173
I00
sS'favourites_count'
p174
I1
sS'name'
p175
g112
sS'url'
p176
Nsg144
g145
(S'\x07\xdf\x08\x07\x14 \x18\x00\x00\x00'
p177
tp178
Rp179
sS'profile_background_image_url_https'
p180
g37
sS'time_zone'
p181
NsS'protected'
p182
I00
sS'default_profile'
p183
I01
sS'is_translator'
p184
I00
sbs.