(dp0
S'following'
p1
(lp2
(lp3
I251798248
aI764842830
aI881608580
aI35789155
aI99745205
aI31546412
aI51575260
aL3096917148L
aI19717430
aI477401891
aL3035804476L
aI229966745
aL2588516546L
aI320524842
aI122346941
aL3689272942L
aI396294440
aI16803117
aI69873788
aI25553638
aI34735936
aL2525906341L
aL2678090893L
aI16228398
aI16955517
aI475524030
aI15897179
aI1645717729
aI32492934
aI348772885
aI310447930
aI259471396
aI33792634
aL2593440546L
aL2177224099L
aI24147760
aI244969675
aI387778479
aI25163231
aI1050552247
aL2236826372L
aL2235043482L
aI1022379991
aI1940424637
aL2376555279L
aI483070118
aI36457630
aI234410258
aI25918247
aI7557352
aI1144387908
aL3280850588L
aI146761618
aI402876893
aI102754598
aI15990144
aI1262364356
aI204564525
aL3142088601L
aI44406845
aI455869389
aL2512910989L
aI11247222
aI391621145
aI10937622
aI352093320
aI34176543
aI8284092
aI735588145
aI118131614
aI39199749
aI137322271
aI952112047
aI1871450522
aI41458395
aI256207586
aI960747870
aI43475268
aI160983113
aI807095
aI1178700896
aL3270934908L
aI1884013189
aL2778611606L
aL2416428684L
aI25073877
aI701099131
aI410099400
aI18294275
aL2743641378L
aI121158213
aI1011490554
aI43901066
aI966726223
aL2406256863L
aL2752391339L
aI18856867
aI547902642
aI1370308412
aI86125016
aL3315934221L
aI446054416
aI427877977
aI433664446
aI254280603
aI232120274
aI19111917
aI182642157
aI26223938
aI66172538
aI60113926
aL2334614718L
aI28659536
aI602449513
aL2494896473L
aI15836769
aI818071
aI863003467
aI115672509
aL2272207286L
aI14031032
aI16598957
aI14173032
aL2803822165L
aI869478499
aI884935388
aI34939208
aL2151247592L
aI509310462
aL2371952437L
aL2426574114L
aI20636215
aI955733059
aL2286097290L
aI15079601
aL3092828309L
aI300338214
aI49753604
aI1898036377
aI255996385
aI18294197
aI20187065
aI1033654686
aI247788883
aI45670056
aI60473581
aI16719112
aI14819993
aI35625099
aI6180132
aI20888115
aI26775476
aI585934344
aI255249826
aI14216123
aI820031509
aI344752927
aI1190977808
aI1177065859
aI770904320
aI376154503
aI818081647
aI38301261
aL2300258166L
aL2744869459L
aI72442349
aI545618159
aI873399943
aI67066114
aI52849759
aI1534167900
aI151551090
aI18576537
aI32450040
aI112872946
aI84312619
aI243801041
aI44438256
aI102527566
aI274233761
aI102094857
aI632341632
aI201657108
aI237591901
aI172023851
aI168679374
aI236953420
aI486139568
aI206277247
aI1064015220
aI27328911
aI93913891
aI36098412
aI37040959
aI49637104
aL2999735878L
aasS'followers'
p4
(lp5
(lp6
I1273506308
aL2333960522L
aL2159322464L
aI981236256
aI251798248
aI594105875
aL3120145617L
aI429045342
aL2349079202L
aI1907963570
aL4071303183L
aL2736306293L
aL2319965522L
aI1850215604
aL2759951255L
aI612135517
aL3035804476L
aL3108417284L
aI269180969
aI552090046
aI320524842
aI819758784
aI262363044
aL3306248044L
aL2901212982L
aL3168191809L
aL3243096370L
aI100767876
aL3232217740L
aL2534761215L
aL3572048903L
aI86119273
aI1400029272
aI36457630
aL2376555279L
aI25918247
aL2348470163L
aL3000481488L
aI402876893
aI860801042
aI869939479
aI1670698730
aI67066114
aI375731545
aL3287317076L
aL3296662712L
aI18421065
aL3373909295L
aI323485909
aL3282649303L
aI49382732
aL3374586406L
aL2562132030L
aL2420535187L
aI15446610
aI146761618
aL3354308819L
aI121158213
aL2341525668L
aL2406256863L
aI16032378
aI547902642
aI1370308412
aL3315934221L
aI157113178
aL2458188217L
aL3092828309L
aI1190977808
aasS'obj'
p7
ccopy_reg
_reconstructor
p8
(ctweepy.models
User
p9
c__builtin__
object
p10
Ntp11
Rp12
(dp13
S'follow_request_sent'
p14
I00
sS'has_extended_profile'
p15
I00
sS'profile_use_background_image'
p16
I01
sS'profile_sidebar_fill_color'
p17
VDDEEF6
p18
sS'id'
p19
L3350819441L
sS'verified'
p20
I00
sS'entities'
p21
(dp22
Vurl
p23
(dp24
Vurls
p25
(lp26
(dp27
g23
Vhttp://t.co/QvQrBc91vY
p28
sVindices
p29
(lp30
I0
aI22
asVexpanded_url
p31
Vhttp://www.navycapital.com
p32
sVdisplay_url
p33
Vnavycapital.com
p34
sassVdescription
p35
(dp36
g25
(lp37
sssS'profile_image_url_https'
p38
Vhttps://pbs.twimg.com/profile_images/616016284799619072/ChCCcV8f_normal.jpg
p39
sS'_json'
p40
(dp41
Vfollow_request_sent
p42
I00
sVhas_extended_profile
p43
I00
sVprofile_use_background_image
p44
I01
sVdefault_profile_image
p45
I00
sVid
p46
L3350819441L
sVprofile_background_image_url_https
p47
Vhttps://abs.twimg.com/images/themes/theme1/bg.png
p48
sVverified
p49
I00
sVprofile_text_color
p50
V333333
p51
sVprofile_image_url_https
p52
g39
sVprofile_sidebar_fill_color
p53
g18
sVentities
p54
g22
sVfollowers_count
p55
I68
sVprofile_sidebar_border_color
p56
VC0DEED
p57
sVid_str
p58
V3350819441
p59
sVprofile_background_color
p60
VC0DEED
p61
sVlisted_count
p62
I1
sVstatus
p63
(dp64
Vlang
p65
Ven
p66
sVfavorited
p67
I00
sg54
(dp68
Vsymbols
p69
(lp70
sVuser_mentions
p71
(lp72
(dp73
g46
L3280850588L
sg29
(lp74
I0
aI12
asg58
V3280850588
p75
sVscreen_name
p76
VAdaptimmune
p77
sVname
p78
VAdaptimmune
p79
sasVhashtags
p80
(lp81
sg25
(lp82
ssVcontributors
p83
NsVtruncated
p84
I00
sVtext
p85
V@Adaptimmune please issue press release clarifying pre-ipo investors
p86
sVcreated_at
p87
VMon Nov 16 18:16:24 +0000 2015
p88
sVretweeted
p89
I00
sVin_reply_to_status_id_str
p90
NsVcoordinates
p91
NsVin_reply_to_user_id_str
p92
V3280850588
p93
sVsource
p94
V<a href="http://twitter.com/download/iphone" rel="nofollow">Twitter for iPhone</a>
p95
sVin_reply_to_status_id
p96
NsVin_reply_to_screen_name
p97
VAdaptimmune
p98
sg58
V666318917812494336
p99
sVplace
p100
NsVretweet_count
p101
I2
sVgeo
p102
Nsg46
L666318917812494336L
sVfavorite_count
p103
I2
sVin_reply_to_user_id
p104
L3280850588L
ssVis_translation_enabled
p105
I00
sVutc_offset
p106
NsVstatuses_count
p107
I79
sg35
VChartering the Unknown
p108
sVfriends_count
p109
I196
sVlocation
p110
V
p111
sVprofile_link_color
p112
V0084B4
p113
sVprofile_image_url
p114
Vhttp://pbs.twimg.com/profile_images/616016284799619072/ChCCcV8f_normal.jpg
p115
sVfollowing
p116
I00
sVgeo_enabled
p117
I00
sVprofile_background_image_url
p118
Vhttp://abs.twimg.com/images/themes/theme1/bg.png
p119
sg76
Vnavy_capital
p120
sg65
Ven
p121
sVprofile_background_tile
p122
I00
sVfavourites_count
p123
I6
sg78
VNavy Capital
p124
sVnotifications
p125
I00
sg23
Vhttp://t.co/QvQrBc91vY
p126
sg87
VMon Jun 29 15:09:29 +0000 2015
p127
sVcontributors_enabled
p128
I00
sVtime_zone
p129
NsVprotected
p130
I00
sVdefault_profile
p131
I01
sVis_translator
p132
I00
ssS'contributors_enabled'
p133
I00
sS'profile_text_color'
p134
g51
sS'followers_count'
p135
I68
sS'profile_sidebar_border_color'
p136
g57
sS'id_str'
p137
g59
sS'default_profile_image'
p138
I00
sS'listed_count'
p139
I1
sS'status'
p140
g8
(ctweepy.models
Status
p141
g10
Ntp142
Rp143
(dp144
S'favorited'
p145
I00
sS'contributors'
p146
NsS'truncated'
p147
I00
sS'text'
p148
g86
sS'source_url'
p149
Vhttp://twitter.com/download/iphone
p150
sS'in_reply_to_status_id'
p151
NsS'geo'
p152
Nsg19
L666318917812494336L
sS'favorite_count'
p153
I2
sS'lang'
p154
g66
sg21
g68
sS'created_at'
p155
cdatetime
datetime
p156
(S'\x07\xdf\x0b\x10\x12\x10\x18\x00\x00\x00'
p157
tp158
Rp159
sg40
g64
sS'coordinates'
p160
NsS'in_reply_to_user_id_str'
p161
g93
sS'source'
p162
VTwitter for iPhone
p163
sS'in_reply_to_status_id_str'
p164
NsS'in_reply_to_screen_name'
p165
g98
sg137
g99
sS'retweeted'
p166
I00
sS'place'
p167
NsS'retweet_count'
p168
I2
sS'in_reply_to_user_id'
p169
L3280850588L
sbsS'is_translation_enabled'
p170
I00
sS'utc_offset'
p171
NsS'statuses_count'
p172
I79
sS'description'
p173
g108
sS'friends_count'
p174
I196
sS'location'
p175
g111
sS'profile_link_color'
p176
g113
sS'profile_image_url'
p177
g115
sS'notifications'
p178
I00
sS'geo_enabled'
p179
I00
sS'profile_background_color'
p180
g61
sS'profile_background_image_url'
p181
g119
sS'screen_name'
p182
g120
sg154
g121
sg1
I00
sS'profile_background_tile'
p183
I00
sS'favourites_count'
p184
I6
sS'name'
p185
g124
sS'url'
p186
g126
sg155
g156
(S'\x07\xdf\x06\x1d\x0f\t\x1d\x00\x00\x00'
p187
tp188
Rp189
sS'profile_background_image_url_https'
p190
g48
sS'time_zone'
p191
NsS'protected'
p192
I00
sS'default_profile'
p193
I01
sS'is_translator'
p194
I00
sbs.