(dp0
S'following'
p1
(lp2
(lp3
I19697415
aI217749896
aL3796186942L
aI25073877
aL3126799307L
aI375754911
aL2564035200L
aL3199861341L
aI13735782
aI607467211
aI1456875607
aI1031021233
aI17668340
aI24266406
aL2226085519L
aI1877860284
aI40951582
aI1165381987
aI317618383
aI250205792
aI42871498
aI1135110380
aL3382324727L
aI35486742
aL3377829539L
aI64643056
aL3249754109L
aI96755713
aI48868326
aI190408726
aI30043148
aI808717027
aL3207798687L
aI121158213
aI85909409
aI150638911
aL2574916368L
aI55940991
aI29479859
aI22032260
aI40093078
aI22033028
aI270484039
aI1430334344
aI921186726
aI1378842606
aI549374169
aI94071372
aI355433330
aI351522322
aI306248882
aI39879120
aI54203675
aI352766195
aI14802885
aI29549796
aL3685449739L
aI1015241814
aI108717093
aL2802272246L
aI17471979
aI24919888
aI608310777
aI11348282
aI199877796
aI19725644
aL3436371233L
aI14800270
aI15224867
aI803078359
aI21982720
aL3063418949L
aI308480059
aI500711588
aI333410580
aI485586578
aI307423967
aI41323447
aI312329626
aI583230917
aI25053299
aI14886375
aI21328656
aI15296897
aI23059499
aI591368817
aI824411708
aI213333945
aI1610408802
aI15861220
aI46671396
aI1271261790
aL3375564874L
aI133880286
aI160298969
aL3220145525L
aI19058681
aI814267892
aI65466158
aL3713044155L
aI205795539
aI92367751
aI214791922
aI166739404
aI321970500
aI80655102
aI141052723
aI407231524
aI869939479
aI332617373
aI1193327893
aI1493298541
aI9633802
aI17813487
aI35013719
aI64839766
aL2812149204L
aI25098482
aI360685668
aI759251
aI253167239
aI20402945
aI1020067598
aI19307505
aI27707080
aI36082429
aI54861548
aI274472153
aL2800221017L
aI341568997
aI97411274
aI26538229
aI428333
aI83466368
aI5402612
aI124690469
aL2987394058L
aI24788267
aL3246752411L
aL3058237574L
aL3046074737L
aI19236074
aI47678782
aI851544830
aI1347071545
aI26748158
aI61292961
aI22341950
aI742143
aI87818409
aI4898091
aI18326925
aI621523
aI11014272
aI16334857
aI59486068
aI69620713
aI28164923
aI624413
aI15281391
aI16451932
aI16732770
aI103087049
aI68739089
aI208155240
aI119372054
aI553036368
aI140912249
aI404422077
aI106498703
aI227070376
aI384445331
aI222177693
aI263197731
aI24443284
aI40982362
aI350958562
aI428514636
aI69381932
aI222162254
aI16998254
aL3437453986L
aI622082899
aI193987445
aI288363743
aI1009232995
aL3401566713L
aI923263237
aL3144040043L
aL2203695764L
aI497101610
aI129668658
aI1344256988
aI315910584
aI215901181
aI252178950
aL2200412666L
aI935949745
aI87775422
aI322054650
aI14216123
aI491355440
aI5893702
aI201658727
aI270839361
aI477771850
aI333056230
aI273538988
aI38830450
aI15110357
aI114782468
aI14952968
aI82071962
aI29688264
aI102636775
aL2821297900L
aI252531934
aI78124099
aI449151973
aI51689310
aI18856867
aL2523398328L
aL2541588702L
aI538399586
aI1971483774
aI51241574
aI67358777
aI278691695
aI1652541
aI3108351
aI34713362
aL2347049341L
aI459076759
aI122515180
aI19407053
aI20562637
aI91478624
aI14293310
aI14511951
aI14677919
aI1536791610
aI1339835893
aI813286
aI50393960
aI8161232
aI17825445
aI17889970
aI19101932
aI986106360
aI32896052
aL2437652724L
aI32453930
aL2996917653L
aI583272701
aI244799248
aI170822362
aL2980649566L
aI33792634
aI1717291
aI17179368
aI19530134
aI19811190
aI36047098
aI116763916
aI14096763
aI15492359
aI14514804
aI35810531
aI32493647
aI8496762
aI327577091
aI15446531
aI14348157
aI39853973
aI14292717
aI14115408
aI19988458
aI125879595
aI15321866
aI168295477
aI10778572
aI21114659
aI26792275
aI5988062
aI18949452
aI32359921
aI111416652
aI60783724
aI19224439
aI59736898
aI182479169
aI2467791
aI18622869
aI807095
aI17006157
aI401900190
aI47829843
aI300349191
aasS'followers'
p4
(lp5
(lp6
L3220550212L
aL3904632212L
aI35045870
aL2308598342L
aL3905481792L
aL2236793966L
aI830705222
aL3740836588L
aL3984374173L
aI1301997679
aL2477702989L
aI174953869
aL4050192377L
aL4168505897L
aL4152041355L
aL3796186942L
aI16580053
aL3947015182L
aL3088271556L
aL2394624246L
aL3126799307L
aI1583359764
aL2860845668L
aL3199861341L
aL2564035200L
aL3356872384L
aL3046227896L
aL3677524768L
aL3591772578L
aI218831867
aI1271261790
aL3519392117L
aL3285639325L
aL3305281941L
aI486064418
aL3293212024L
aL3266645642L
aL3377829539L
aL3302014431L
aI96755713
aI35486742
aL3940538955L
aI315872250
aI995172852
aI808717027
aI121158213
aL3909180263L
aL3882474677L
aL2802272246L
aI594096575
aI40951582
aI53696771
aI127967449
aL2657738660L
aI995324587
aL2890616938L
aI109200080
aI1092298711
aL3375564874L
aL3063418949L
aI426376191
aL3220145525L
aL3221005793L
aL3665250200L
aI1375508376
aL2570670306L
aL3713044155L
aL3568973536L
aI1493298541
aL3241283218L
aL3667700543L
aL3235389400L
aI97411274
aL2800221017L
aI341568997
aI24788267
aL2987394058L
aI893747797
aI69381932
aI222162254
aI16998254
aL3437453986L
aL3401566713L
aI333056230
aL3144040043L
aL2203695764L
aI129668658
aI935949745
aI38830450
aL2821297900L
aL3366275362L
aL2523398328L
aI56226880
aL3331004009L
aI459076759
aI15321866
aI438618052
aL2996917653L
aI583272701
aI244799248
aI170822362
aL2980649566L
aasS'obj'
p7
ccopy_reg
_reconstructor
p8
(ctweepy.models
User
p9
c__builtin__
object
p10
Ntp11
Rp12
(dp13
S'follow_request_sent'
p14
I00
sS'has_extended_profile'
p15
I00
sS'profile_use_background_image'
p16
I01
sS'profile_sidebar_fill_color'
p17
VDDEEF6
p18
sS'id'
p19
L3361573439L
sS'verified'
p20
I00
sS'entities'
p21
(dp22
Vdescription
p23
(dp24
Vurls
p25
(lp26
sssS'profile_image_url_https'
p27
Vhttps://pbs.twimg.com/profile_images/665320877899120640/fDIprrUf_normal.jpg
p28
sS'_json'
p29
(dp30
Vfollow_request_sent
p31
I00
sVhas_extended_profile
p32
I00
sVprofile_use_background_image
p33
I01
sVdefault_profile_image
p34
I00
sVid
p35
L3361573439L
sVprofile_background_image_url_https
p36
Vhttps://abs.twimg.com/images/themes/theme1/bg.png
p37
sVverified
p38
I00
sVprofile_text_color
p39
V333333
p40
sVprofile_image_url_https
p41
g28
sVprofile_sidebar_fill_color
p42
g18
sVentities
p43
g22
sVfollowers_count
p44
I102
sVprofile_sidebar_border_color
p45
VC0DEED
p46
sVid_str
p47
V3361573439
p48
sVprofile_background_color
p49
VC0DEED
p50
sVlisted_count
p51
I3
sVstatus
p52
(dp53
Vcontributors
p54
NsVtruncated
p55
I00
sVtext
p56
VRT @SteelMint: Fomento Resources Resume Iron Ore Exports https://t.co/NIvbjlNdiX\u000a #IRONORE
p57
sVin_reply_to_status_id
p58
Nsg35
L666256582364282880L
sVfavorite_count
p59
I0
sVsource
p60
V<a href="http://twitter.com/download/iphone" rel="nofollow">Twitter for iPhone</a>
p61
sVretweeted
p62
I00
sVcoordinates
p63
Nsg43
(dp64
Vsymbols
p65
(lp66
sVuser_mentions
p67
(lp68
(dp69
g35
I317618383
sVindices
p70
(lp71
I3
aI13
asg47
V317618383
p72
sVscreen_name
p73
VSteelMint
p74
sVname
p75
VSteelMint
p76
sasVhashtags
p77
(lp78
(dp79
g70
(lp80
I82
aI90
asg56
VIRONORE
p81
sasg25
(lp82
(dp83
Vurl
p84
Vhttps://t.co/NIvbjlNdiX
p85
sg70
(lp86
I57
aI80
asVexpanded_url
p87
Vhttp://bit.ly/1PHYGfq
p88
sVdisplay_url
p89
Vbit.ly/1PHYGfq
p90
sassVin_reply_to_screen_name
p91
Nsg47
V666256582364282880
p92
sVretweet_count
p93
I1
sVin_reply_to_user_id
p94
NsVfavorited
p95
I00
sVretweeted_status
p96
(dp97
g54
Nsg55
I00
sg56
VFomento Resources Resume Iron Ore Exports https://t.co/NIvbjlNdiX\u000a #IRONORE
p98
sg58
Nsg35
L666254700635787264L
sg59
I1
sg60
V<a href="http://winthecustomer.com/" rel="nofollow">Win the Customer</a>
p99
sg62
I00
sg63
Nsg43
(dp100
g65
(lp101
sg67
(lp102
sg77
(lp103
(dp104
g70
(lp105
I67
aI75
asg56
VIRONORE
p106
sasg25
(lp107
(dp108
g84
Vhttps://t.co/NIvbjlNdiX
p109
sg70
(lp110
I42
aI65
asg87
Vhttp://bit.ly/1PHYGfq
p111
sg89
Vbit.ly/1PHYGfq
p112
sassg91
Nsg47
V666254700635787264
p113
sg93
I1
sg94
Nsg95
I00
sVgeo
p114
NsVin_reply_to_user_id_str
p115
NsVpossibly_sensitive
p116
I00
sVlang
p117
Ven
p118
sVcreated_at
p119
VMon Nov 16 14:01:13 +0000 2015
p120
sVin_reply_to_status_id_str
p121
NsVplace
p122
Nssg114
Nsg115
Nsg116
I00
sg117
Ven
p123
sg119
VMon Nov 16 14:08:42 +0000 2015
p124
sg121
Nsg122
NssVis_translation_enabled
p125
I00
sVutc_offset
p126
I-28800
sVstatuses_count
p127
I1003
sg23
V
p128
sVfriends_count
p129
I298
sVlocation
p130
g128
sVprofile_link_color
p131
V0084B4
p132
sVprofile_image_url
p133
Vhttp://pbs.twimg.com/profile_images/665320877899120640/fDIprrUf_normal.jpg
p134
sVfollowing
p135
I00
sVgeo_enabled
p136
I00
sVprofile_background_image_url
p137
Vhttp://abs.twimg.com/images/themes/theme1/bg.png
p138
sg73
VSebrav83
p139
sg117
Ven
p140
sVprofile_background_tile
p141
I00
sVfavourites_count
p142
I627
sg75
VSebastiano Ravano
p143
sVnotifications
p144
I00
sg84
Nsg119
VMon Jul 06 00:42:56 +0000 2015
p145
sVcontributors_enabled
p146
I00
sVtime_zone
p147
VPacific Time (US & Canada)
p148
sVprotected
p149
I00
sVdefault_profile
p150
I01
sVis_translator
p151
I00
ssS'contributors_enabled'
p152
I00
sS'profile_text_color'
p153
g40
sS'followers_count'
p154
I102
sS'profile_sidebar_border_color'
p155
g46
sS'id_str'
p156
g48
sS'default_profile_image'
p157
I00
sS'listed_count'
p158
I3
sS'status'
p159
g8
(ctweepy.models
Status
p160
g10
Ntp161
Rp162
(dp163
S'favorited'
p164
I00
sS'contributors'
p165
NsS'truncated'
p166
I00
sS'text'
p167
VRT @SteelMint: Fomento Resources Resume Iron Ore Exports https://t.co/NIvbjlNdiX\u000a #IRONORE
p168
sS'source_url'
p169
Vhttp://twitter.com/download/iphone
p170
sS'possibly_sensitive'
p171
I00
sS'in_reply_to_status_id'
p172
NsS'geo'
p173
Nsg19
L666256582364282880L
sS'favorite_count'
p174
I0
sS'lang'
p175
g123
sS'retweeted_status'
p176
g8
(g160
g10
Ntp177
Rp178
(dp179
g164
I00
sg165
Nsg166
I00
sg167
VFomento Resources Resume Iron Ore Exports https://t.co/NIvbjlNdiX\u000a #IRONORE
p180
sg169
Vhttp://winthecustomer.com/
p181
sg171
I00
sg172
Nsg173
Nsg19
L666254700635787264L
sg174
I1
sg175
g118
sg21
g100
sS'created_at'
p182
cdatetime
datetime
p183
(S'\x07\xdf\x0b\x10\x0e\x01\r\x00\x00\x00'
p184
tp185
Rp186
sg29
g97
sS'coordinates'
p187
NsS'in_reply_to_user_id_str'
p188
NsS'source'
p189
VWin the Customer
p190
sS'in_reply_to_status_id_str'
p191
NsS'in_reply_to_screen_name'
p192
Nsg156
g113
sS'retweeted'
p193
I00
sS'place'
p194
NsS'retweet_count'
p195
I1
sS'in_reply_to_user_id'
p196
Nsbsg21
g64
sg182
g183
(S'\x07\xdf\x0b\x10\x0e\x08*\x00\x00\x00'
p197
tp198
Rp199
sg29
g53
sg187
Nsg188
Nsg189
VTwitter for iPhone
p200
sg191
Nsg192
Nsg156
g92
sg193
I00
sg194
Nsg195
I1
sg196
NsbsS'is_translation_enabled'
p201
I00
sS'utc_offset'
p202
I-28800
sS'statuses_count'
p203
I1003
sS'description'
p204
g128
sS'friends_count'
p205
I298
sS'location'
p206
g128
sS'profile_link_color'
p207
g132
sS'profile_image_url'
p208
g134
sS'notifications'
p209
I00
sS'geo_enabled'
p210
I00
sS'profile_background_color'
p211
g50
sS'profile_background_image_url'
p212
g138
sS'screen_name'
p213
g139
sg175
g140
sg1
I00
sS'profile_background_tile'
p214
I00
sS'favourites_count'
p215
I627
sS'name'
p216
g143
sS'url'
p217
Nsg182
g183
(S'\x07\xdf\x07\x06\x00*8\x00\x00\x00'
p218
tp219
Rp220
sS'profile_background_image_url_https'
p221
g37
sS'time_zone'
p222
g148
sS'protected'
p223
I00
sS'default_profile'
p224
I01
sS'is_translator'
p225
I00
sbs.