(dp0
S'following'
p1
(lp2
(lp3
I1883588876
aL4109697221L
aI132408673
aL2992414321L
aL2329020710L
aL3119435668L
aI581351672
aI42570063
aI237591901
aL3319587413L
aI197004838
aI72907355
aI438352958
aI250362250
aI61342056
aL3570822318L
aI1906418779
aI412312664
aI82162291
aI47247213
aL2516029806L
aI1941253760
aL3253818601L
aI29869163
aL2683677198L
aI1935609325
aI448461258
aI1020171044
aI121902355
aI1244047045
aI16451932
aL2165676145L
aI84444981
aI28894912
aI425942351
aI43111757
aI21328656
aL3389088551L
aL2301715645L
aL2203695764L
aL3382363841L
aL2391736411L
aI140912249
aI1040640698
aI166597717
aI76511168
aI133483902
aI14179819
aasS'followers'
p4
(lp5
(lp6
I627765164
aI425917134
aI385665221
aL4117183767L
aL4109697221L
aI819758784
aI1924312855
aI93294948
aL2329020710L
aL2992414321L
aL3167244104L
aL3319587413L
aI250362250
aL3570822318L
aL2516029806L
aI412312664
aL2683677198L
aI1020171044
aL2165676145L
aI84444981
aI43111757
aL2301715645L
aL3382363841L
aasS'obj'
p7
ccopy_reg
_reconstructor
p8
(ctweepy.models
User
p9
c__builtin__
object
p10
Ntp11
Rp12
(dp13
S'follow_request_sent'
p14
I00
sS'has_extended_profile'
p15
I00
sS'profile_use_background_image'
p16
I01
sS'profile_sidebar_fill_color'
p17
VDDEEF6
p18
sS'id'
p19
L3433108396L
sS'verified'
p20
I00
sS'entities'
p21
(dp22
Vdescription
p23
(dp24
Vurls
p25
(lp26
sssS'profile_image_url_https'
p27
Vhttps://pbs.twimg.com/profile_images/635364920574382080/1NhoE8_f_normal.jpg
p28
sS'_json'
p29
(dp30
Vfollow_request_sent
p31
I00
sVhas_extended_profile
p32
I00
sVprofile_use_background_image
p33
I01
sVdefault_profile_image
p34
I00
sVid
p35
L3433108396L
sVprofile_background_image_url_https
p36
Vhttps://abs.twimg.com/images/themes/theme1/bg.png
p37
sVverified
p38
I00
sVprofile_text_color
p39
V333333
p40
sVprofile_image_url_https
p41
g28
sVprofile_sidebar_fill_color
p42
g18
sVentities
p43
g22
sVfollowers_count
p44
I23
sVprofile_sidebar_border_color
p45
VC0DEED
p46
sVid_str
p47
V3433108396
p48
sVprofile_background_color
p49
VC0DEED
p50
sVlisted_count
p51
I3
sVstatus
p52
(dp53
Vcontributors
p54
NsVtruncated
p55
I00
sVtext
p56
VRT @IHPosts2: chartguy89: LGND +4.47% Stock Charts $LGND Ligand https://t.co/2HtsUJq0KB
p57
sVin_reply_to_status_id
p58
Nsg35
L666588298849198080L
sVfavorite_count
p59
I0
sVsource
p60
V<a href="http://morningblue.ua" rel="nofollow">MorningBlue</a>
p61
sVretweeted
p62
I00
sVcoordinates
p63
Nsg43
(dp64
Vsymbols
p65
(lp66
(dp67
Vindices
p68
(lp69
I51
aI56
asg56
VLGND
p70
sasVuser_mentions
p71
(lp72
(dp73
g35
L2579477766L
sg68
(lp74
I3
aI12
asg47
V2579477766
p75
sVscreen_name
p76
VIHPosts2
p77
sVname
p78
VInvestors Hangout
p79
sasVhashtags
p80
(lp81
sg25
(lp82
(dp83
Vurl
p84
Vhttps://t.co/2HtsUJq0KB
p85
sg68
(lp86
I64
aI87
asVexpanded_url
p87
Vhttp://dlvr.it/ClZ5Qf
p88
sVdisplay_url
p89
Vdlvr.it/ClZ5Qf
p90
sassVin_reply_to_screen_name
p91
Nsg47
V666588298849198080
p92
sVretweet_count
p93
I1
sVin_reply_to_user_id
p94
NsVfavorited
p95
I00
sVretweeted_status
p96
(dp97
g54
Nsg55
I00
sg56
Vchartguy89: LGND +4.47% Stock Charts $LGND Ligand https://t.co/2HtsUJq0KB
p98
sg58
Nsg35
L666052593928421376L
sg59
I0
sg60
V<a href="http://dlvr.it" rel="nofollow">dlvr.it</a>
p99
sg62
I00
sg63
Nsg43
(dp100
g65
(lp101
(dp102
g68
(lp103
I37
aI42
asg56
VLGND
p104
sasg71
(lp105
sg80
(lp106
sg25
(lp107
(dp108
g84
Vhttps://t.co/2HtsUJq0KB
p109
sg68
(lp110
I50
aI73
asg87
Vhttp://dlvr.it/ClZ5Qf
p111
sg89
Vdlvr.it/ClZ5Qf
p112
sassg91
Nsg47
V666052593928421376
p113
sg93
I1
sg94
Nsg95
I00
sVgeo
p114
NsVin_reply_to_user_id_str
p115
NsVpossibly_sensitive
p116
I00
sVlang
p117
Vda
p118
sVcreated_at
p119
VMon Nov 16 00:38:07 +0000 2015
p120
sVin_reply_to_status_id_str
p121
NsVplace
p122
Nssg114
Nsg115
Nsg116
I00
sg117
Vda
p123
sg119
VTue Nov 17 12:06:49 +0000 2015
p124
sg121
Nsg122
NssVis_translation_enabled
p125
I00
sVutc_offset
p126
NsVstatuses_count
p127
I129
sg23
V
p128
sVfriends_count
p129
I48
sVlocation
p130
VUSA
p131
sVprofile_link_color
p132
V0084B4
p133
sVprofile_image_url
p134
Vhttp://pbs.twimg.com/profile_images/635364920574382080/1NhoE8_f_normal.jpg
p135
sVfollowing
p136
I00
sVgeo_enabled
p137
I00
sVprofile_banner_url
p138
Vhttps://pbs.twimg.com/profile_banners/3433108396/1440317759
p139
sVprofile_background_image_url
p140
Vhttp://abs.twimg.com/images/themes/theme1/bg.png
p141
sg76
Vlauretterxg14
p142
sg117
Ven
p143
sVprofile_background_tile
p144
I00
sVfavourites_count
p145
I0
sg78
Vlaurette corradino
p146
sVnotifications
p147
I00
sg84
Nsg119
VThu Aug 20 17:33:35 +0000 2015
p148
sVcontributors_enabled
p149
I00
sVtime_zone
p150
NsVprotected
p151
I00
sVdefault_profile
p152
I01
sVis_translator
p153
I00
ssS'contributors_enabled'
p154
I00
sS'profile_text_color'
p155
g40
sS'followers_count'
p156
I23
sS'profile_sidebar_border_color'
p157
g46
sS'id_str'
p158
g48
sS'default_profile_image'
p159
I00
sS'listed_count'
p160
I3
sS'status'
p161
g8
(ctweepy.models
Status
p162
g10
Ntp163
Rp164
(dp165
S'favorited'
p166
I00
sS'contributors'
p167
NsS'truncated'
p168
I00
sS'text'
p169
g57
sS'source_url'
p170
Vhttp://morningblue.ua
p171
sS'possibly_sensitive'
p172
I00
sS'in_reply_to_status_id'
p173
NsS'geo'
p174
Nsg19
L666588298849198080L
sS'favorite_count'
p175
I0
sS'lang'
p176
g123
sS'retweeted_status'
p177
g8
(g162
g10
Ntp178
Rp179
(dp180
g166
I00
sg167
Nsg168
I00
sg169
g98
sg170
Vhttp://dlvr.it
p181
sg172
I00
sg173
Nsg174
Nsg19
L666052593928421376L
sg175
I0
sg176
g118
sg21
g100
sS'created_at'
p182
cdatetime
datetime
p183
(S'\x07\xdf\x0b\x10\x00&\x07\x00\x00\x00'
p184
tp185
Rp186
sg29
g97
sS'coordinates'
p187
NsS'in_reply_to_user_id_str'
p188
NsS'source'
p189
Vdlvr.it
p190
sS'in_reply_to_status_id_str'
p191
NsS'in_reply_to_screen_name'
p192
Nsg158
g113
sS'retweeted'
p193
I00
sS'place'
p194
NsS'retweet_count'
p195
I1
sS'in_reply_to_user_id'
p196
Nsbsg21
g64
sg182
g183
(S'\x07\xdf\x0b\x11\x0c\x061\x00\x00\x00'
p197
tp198
Rp199
sg29
g53
sg187
Nsg188
Nsg189
VMorningBlue
p200
sg191
Nsg192
Nsg158
g92
sg193
I00
sg194
Nsg195
I1
sg196
NsbsS'is_translation_enabled'
p201
I00
sS'utc_offset'
p202
NsS'statuses_count'
p203
I129
sS'description'
p204
g128
sS'friends_count'
p205
I48
sS'location'
p206
g131
sS'profile_link_color'
p207
g133
sS'profile_image_url'
p208
g135
sS'notifications'
p209
I00
sS'geo_enabled'
p210
I00
sS'profile_background_color'
p211
g50
sS'profile_banner_url'
p212
g139
sS'profile_background_image_url'
p213
g141
sS'screen_name'
p214
g142
sg176
g143
sg1
I00
sS'profile_background_tile'
p215
I00
sS'favourites_count'
p216
I0
sS'name'
p217
g146
sS'url'
p218
Nsg182
g183
(S'\x07\xdf\x08\x14\x11!#\x00\x00\x00'
p219
tp220
Rp221
sS'profile_background_image_url_https'
p222
g37
sS'time_zone'
p223
NsS'protected'
p224
I00
sS'default_profile'
p225
I01
sS'is_translator'
p226
I00
sbs.