(dp0
S'following'
p1
(lp2
(lp3
L3060766426L
aI1378417226
aI425559440
aI83786013
aL3307215779L
aL3317753324L
aL2271071567L
aI117970312
aL2434657105L
aL2829695520L
aL3320876071L
aI348392355
aL2216066640L
aL3163057710L
aI146477911
aL2996860883L
aL2799617712L
aL3118978727L
aL3263120299L
aL3263138839L
aL2841938708L
aL3088041649L
aL2825421464L
aL2597611519L
aL3222741471L
aI805230144
aI360844323
aasS'followers'
p4
(lp5
(lp6
I703054405
aL3251211016L
aI15779689
aL4064851695L
aL2535776749L
aL4117183767L
aL2203400720L
aL3087788584L
aI384944070
aI965091386
aL4109697221L
aL4117337895L
aL3919431323L
aL3301126222L
aL4108364716L
aL2834221810L
aI1924312855
aI1923879936
aL4032559102L
aI18065828
aI1095387174
aL2151868220L
aL3425902673L
aI1675125374
aL4003377437L
aI31465418
aL3244474793L
aL3264003207L
aL2516029806L
aI335395755
aL2212854940L
aL2824101183L
aL2883356613L
aL2663271857L
aI1469722238
aI477111103
aI379962842
aL2993644917L
aI95001048
aL2773787923L
aL2979538748L
aL3351448120L
aI64429882
aL3007827873L
aL3937449855L
aI17704535
aI247062249
aL4104098693L
aI1964259854
aL3871379953L
aL4041248302L
aI555803107
aI1669095234
aL3142893662L
aI198934587
aI1924310023
aL3954003134L
aI485772084
aI622045531
aL4057945480L
aL4116735603L
aL3049283884L
aI35203319
aL3415808523L
aI741194701
aL3213136127L
aI287170217
aI33848703
aL2993031609L
aL2900774663L
aL3018809793L
aI30091470
aI18087450
aL4088243776L
aI16669337
aL3417988515L
aI390136801
aI1583779393
aI138912349
aL3133904320L
aL3845508095L
aI15897179
aL3888008718L
aL3132724749L
aL3707991826L
aL2979781133L
aL3524817082L
aL4002517212L
aL3946949536L
aL3062356426L
aI535977623
aI196996976
aI147747555
aL2855305618L
aL3291612293L
aL3375961865L
aL3978527414L
aL3190854985L
aL2296806307L
aL3904632212L
aI81195356
aI271450679
aL3162319070L
aL3335178905L
aL3433816551L
aL2201177178L
aI14922101
aL2469271944L
aL4027118315L
aI1671537799
aL2741391528L
aL3187399555L
aI35486742
aL3328007503L
aI383685824
aL3674010439L
aI1494756331
aI1884628062
aI289666268
aI575735392
aL3696597263L
aI207954609
aL3812290955L
aI1920294253
aI343283519
aI921080898
aL2345198082L
aL3859101381L
aI46081994
aI24889998
aI1928299009
aI386756085
aL3130877194L
aL3296869087L
aL3118978727L
aI35704105
aL3328114994L
aL2376282929L
aL3374765477L
aI18721583
aL2207143911L
aI88816329
aI9555372
aL2445064535L
aI919860212
aL3257585968L
aL3809159297L
aI525005120
aI925037286
aI420875454
aI83685210
aL3502389073L
aL3498922692L
aI79289336
aI1690948760
aI603660185
aI22805900
aL2698840832L
aI613969275
aI601528634
aL3826234527L
aL3253847058L
aI1667125412
aI350802962
aI280346260
aL2463283153L
aI242469235
aL2294830248L
aL3487921454L
aL3272212260L
aL3503272272L
aL3296849126L
aL3315175346L
aL3511143196L
aI14870804
aL3180364640L
aL3092613571L
aL3164997480L
aL3088041649L
aL3234692581L
aL3256062528L
aL3245678550L
aI824713183
aI54529748
aI611817117
aI118142508
aI36894359
aL2525678173L
aL3521830333L
aL3222741471L
aL2825421464L
aL2597611519L
aL3263138839L
aL3263120299L
aI127967449
aI94587132
aI184383206
aI83786013
aI257064504
aL3317753324L
aL2271071567L
aI1694936220
aI31327090
aL3060766426L
aL3163057710L
aL2799617712L
aI425559440
aasS'obj'
p7
ccopy_reg
_reconstructor
p8
(ctweepy.models
User
p9
c__builtin__
object
p10
Ntp11
Rp12
(dp13
S'follow_request_sent'
p14
I00
sS'has_extended_profile'
p15
I00
sS'profile_use_background_image'
p16
I01
sS'profile_sidebar_fill_color'
p17
V000000
p18
sS'id'
p19
L3547008675L
sS'verified'
p20
I00
sS'entities'
p21
(dp22
Vdescription
p23
(dp24
Vurls
p25
(lp26
sssS'profile_image_url_https'
p27
Vhttps://pbs.twimg.com/profile_images/646564826810966017/T0EMB-Vr_normal.jpg
p28
sS'_json'
p29
(dp30
Vfollow_request_sent
p31
I00
sVhas_extended_profile
p32
I00
sVprofile_use_background_image
p33
I01
sVdefault_profile_image
p34
I00
sVid
p35
L3547008675L
sVprofile_background_image_url_https
p36
Vhttps://pbs.twimg.com/profile_background_images/641289805125435393/G22z0EVh.jpg
p37
sVverified
p38
I00
sVprofile_text_color
p39
V000000
p40
sVprofile_image_url_https
p41
g28
sVprofile_sidebar_fill_color
p42
g18
sVentities
p43
g22
sVfollowers_count
p44
I207
sVprofile_sidebar_border_color
p45
V000000
p46
sVid_str
p47
V3547008675
p48
sVprofile_background_color
p49
V0000FF
p50
sVlisted_count
p51
I295
sVstatus
p52
(dp53
Vcontributors
p54
NsVtruncated
p55
I00
sVtext
p56
VRT @JoeBlessett: Nov. 11, 2015 Chris Brown "Liquor" #1 Top Ten List 23nGO Joe Blessett Radio #music #entertainment https://t.co/MJ6PSUhsrG
p57
sVin_reply_to_status_id
p58
Nsg35
L664513057264173056L
sVfavorite_count
p59
I0
sVsource
p60
V<a href="https://roundteam.co" rel="nofollow">RoundTeam</a>
p61
sVretweeted
p62
I00
sVcoordinates
p63
Nsg43
(dp64
Vsymbols
p65
(lp66
sVuser_mentions
p67
(lp68
(dp69
g35
I93066289
sVindices
p70
(lp71
I3
aI15
asg47
V93066289
p72
sVscreen_name
p73
VJoeBlessett
p74
sVname
p75
VJoe Blessett
p76
sasVhashtags
p77
(lp78
(dp79
g70
(lp80
I93
aI99
asg56
Vmusic
p81
sa(dp82
g70
(lp83
I100
aI114
asg56
Ventertainment
p84
sasg25
(lp85
(dp86
Vurl
p87
Vhttps://t.co/MJ6PSUhsrG
p88
sg70
(lp89
I115
aI138
asVexpanded_url
p90
Vhttp://23ngo.com
p91
sVdisplay_url
p92
V23ngo.com
p93
sassVin_reply_to_screen_name
p94
Nsg47
V664513057264173056
p95
sVretweet_count
p96
I56
sVin_reply_to_user_id
p97
NsVfavorited
p98
I00
sVretweeted_status
p99
(dp100
g54
Nsg55
I00
sg56
VNov. 11, 2015 Chris Brown "Liquor" #1 Top Ten List 23nGO Joe Blessett Radio #music #entertainment https://t.co/MJ6PSUhsrG
p101
sg58
Nsg35
L664512097791832065L
sg59
I45
sg60
V<a href="http://www.twitter.com" rel="nofollow">Twitter for Windows</a>
p102
sg62
I00
sg63
Nsg43
(dp103
g65
(lp104
sg67
(lp105
sg77
(lp106
(dp107
g70
(lp108
I76
aI82
asg56
Vmusic
p109
sa(dp110
g70
(lp111
I83
aI97
asg56
Ventertainment
p112
sasg25
(lp113
(dp114
g87
Vhttps://t.co/MJ6PSUhsrG
p115
sg70
(lp116
I98
aI121
asg90
Vhttp://23ngo.com
p117
sg92
V23ngo.com
p118
sassg94
Nsg47
V664512097791832065
p119
sg96
I56
sg97
Nsg98
I00
sVgeo
p120
NsVin_reply_to_user_id_str
p121
NsVpossibly_sensitive
p122
I00
sVlang
p123
Ven
p124
sVcreated_at
p125
VWed Nov 11 18:36:44 +0000 2015
p126
sVin_reply_to_status_id_str
p127
NsVplace
p128
Nssg120
Nsg121
Nsg122
I00
sg123
Ven
p129
sg125
VWed Nov 11 18:40:33 +0000 2015
p130
sg127
Nsg128
NssVis_translation_enabled
p131
I00
sVutc_offset
p132
I-28800
sVstatuses_count
p133
I16926
sg23
VNever losing money is the number one rule in investing and the second rule is that you must not forget the first rule.
p134
sVfriends_count
p135
I27
sVlocation
p136
V
p137
sVprofile_link_color
p138
V0000FF
p139
sVprofile_image_url
p140
Vhttp://pbs.twimg.com/profile_images/646564826810966017/T0EMB-Vr_normal.jpg
p141
sVfollowing
p142
I00
sVgeo_enabled
p143
I00
sVprofile_banner_url
p144
Vhttps://pbs.twimg.com/profile_banners/3547008675/1442988054
p145
sVprofile_background_image_url
p146
Vhttp://pbs.twimg.com/profile_background_images/641289805125435393/G22z0EVh.jpg
p147
sg73
VKasandraHopgood
p148
sg123
Ven
p149
sVprofile_background_tile
p150
I01
sVfavourites_count
p151
I0
sg75
V---Binary Option---
p152
sVnotifications
p153
I00
sg87
Nsg125
VFri Sep 04 17:51:38 +0000 2015
p154
sVcontributors_enabled
p155
I00
sVtime_zone
p156
VPacific Time (US & Canada)
p157
sVprotected
p158
I00
sVdefault_profile
p159
I00
sVis_translator
p160
I00
ssS'contributors_enabled'
p161
I00
sS'profile_text_color'
p162
g40
sS'followers_count'
p163
I207
sS'profile_sidebar_border_color'
p164
g46
sS'id_str'
p165
g48
sS'default_profile_image'
p166
I00
sS'listed_count'
p167
I295
sS'status'
p168
g8
(ctweepy.models
Status
p169
g10
Ntp170
Rp171
(dp172
S'favorited'
p173
I00
sS'contributors'
p174
NsS'truncated'
p175
I00
sS'text'
p176
g57
sS'source_url'
p177
Vhttps://roundteam.co
p178
sS'possibly_sensitive'
p179
I00
sS'in_reply_to_status_id'
p180
NsS'geo'
p181
Nsg19
L664513057264173056L
sS'favorite_count'
p182
I0
sS'lang'
p183
g129
sS'retweeted_status'
p184
g8
(g169
g10
Ntp185
Rp186
(dp187
g173
I00
sg174
Nsg175
I00
sg176
g101
sg177
Vhttp://www.twitter.com
p188
sg179
I00
sg180
Nsg181
Nsg19
L664512097791832065L
sg182
I45
sg183
g124
sg21
g103
sS'created_at'
p189
cdatetime
datetime
p190
(S'\x07\xdf\x0b\x0b\x12$,\x00\x00\x00'
p191
tp192
Rp193
sg29
g100
sS'coordinates'
p194
NsS'in_reply_to_user_id_str'
p195
NsS'source'
p196
VTwitter for Windows
p197
sS'in_reply_to_status_id_str'
p198
NsS'in_reply_to_screen_name'
p199
Nsg165
g119
sS'retweeted'
p200
I00
sS'place'
p201
NsS'retweet_count'
p202
I56
sS'in_reply_to_user_id'
p203
Nsbsg21
g64
sg189
g190
(S'\x07\xdf\x0b\x0b\x12(!\x00\x00\x00'
p204
tp205
Rp206
sg29
g53
sg194
Nsg195
Nsg196
VRoundTeam
p207
sg198
Nsg199
Nsg165
g95
sg200
I00
sg201
Nsg202
I56
sg203
NsbsS'is_translation_enabled'
p208
I00
sS'utc_offset'
p209
I-28800
sS'statuses_count'
p210
I16926
sS'description'
p211
g134
sS'friends_count'
p212
I27
sS'location'
p213
g137
sS'profile_link_color'
p214
g139
sS'profile_image_url'
p215
g141
sS'notifications'
p216
I00
sS'geo_enabled'
p217
I00
sS'profile_background_color'
p218
g50
sS'profile_banner_url'
p219
g145
sS'profile_background_image_url'
p220
g147
sS'screen_name'
p221
g148
sg183
g149
sg1
I00
sS'profile_background_tile'
p222
I01
sS'favourites_count'
p223
I0
sS'name'
p224
g152
sS'url'
p225
Nsg189
g190
(S'\x07\xdf\t\x04\x113&\x00\x00\x00'
p226
tp227
Rp228
sS'profile_background_image_url_https'
p229
g37
sS'time_zone'
p230
g157
sS'protected'
p231
I00
sS'default_profile'
p232
I00
sS'is_translator'
p233
I00
sbs.