(dp0
S'following'
p1
(lp2
(lp3
L3288465684L
aL3301396250L
aL2697609974L
aI63701775
aL3130440619L
aI1263292416
aL3579707837L
aL3642467596L
aI360844323
aasS'followers'
p4
(lp5
(lp6
L2858773132L
aL4202532802L
aI20621761
aL4064128265L
aL3122856118L
aI310224953
aI1552363020
aL4137170632L
aL2177074008L
aI1337576478
aI574955533
aI1412116986
aL4102682885L
aI120207925
aL3068641671L
aI188943182
aI81195356
aI339724505
aL3154100120L
aL3303017084L
aL2797602696L
aL2277758714L
aL3147908489L
aI1182485761
aL3301126222L
aL3070176224L
aL3903561798L
aL2834221810L
aL3404459620L
aL4149887071L
aI1168893001
aL3115420564L
aL4109697221L
aL3986923059L
aL4109857947L
aL3327820536L
aL2963758743L
aL2993644917L
aL3065669613L
aI867987745
aL3927905954L
aL3022617156L
aL4108231581L
aL3182690767L
aI1169015520
aI18065828
aI1676244180
aL4077721821L
aL3151995481L
aI1667073452
aL3607954222L
aI601932622
aI60416537
aI1169633580
aL4163310809L
aI390877754
aL2162415438L
aL3425902673L
aI39328908
aI31465418
aI1343600130
aL3995377043L
aL2612600664L
aL3374419013L
aI732536311
aL3675491601L
aL4033404432L
aI16529873
aI305991130
aL3351448120L
aL3278845579L
aL3374437913L
aL3007827873L
aI613969275
aL3954003134L
aI721941374
aI169115069
aI1964259854
aI555803107
aL4003377437L
aI1669095234
aI420875454
aL3142893662L
aI198934587
aI1924316509
aI485772084
aI622045531
aI21268553
aL4057945480L
aL4116735603L
aL3415808523L
aI55594587
aI276551086
aI741194701
aL3213136127L
aI180159966
aL3662917040L
aI135945569
aI1286540352
aI30091470
aL2982418181L
aI16669337
aL2741391528L
aI450256209
aI390136801
aI196996976
aI595537804
aI595612995
aL4081526571L
aI406471262
aI76942029
aL2266573932L
aL2312947424L
aI139960419
aL3845508095L
aL3301925655L
aL3004101868L
aL3198983231L
aL4053726826L
aL3946949536L
aL3062356426L
aI332792979
aI370221673
aI307179428
aI76648720
aI575819274
aL3978527414L
aI953991522
aL3394294505L
aL3025733793L
aL2164632236L
aI287170217
aI94292802
aI1494756331
aI47023870
aL3162319070L
aI1251699524
aL3433816551L
aL3004046919L
aI743345076
aI919860212
aL3376466667L
aL2201177178L
aI14922101
aL2469271944L
aL2500223773L
aL3004076055L
aL3004096240L
aI499349379
aI1225738974
aL3703072636L
aL2921956142L
aL3321537374L
aI338245602
aL3656401354L
aI1671537799
aI1961568684
aI133749407
aL3071982840L
aI232750924
aI147935043
aI774777169
aL3116284409L
aL3018809793L
aL3239131111L
aL3825228445L
aL2555712373L
aL3328007503L
aI21841580
aI383685824
aL3079492648L
aL2373904190L
aL3663780015L
aI22634164
aL3868567932L
aL3974984907L
aI575735392
aL3095333453L
aL2159733594L
aI322044490
aI98931458
aI611817117
aI215068830
aI412648934
aL2846580298L
aL3306226566L
aL3810537373L
aL3306220500L
aI1577160728
aI343283519
aI1897215410
aL2866397681L
aL2345198082L
aL3115598364L
aL3859101381L
aI46081994
aI866866201
aI704363301
aL3866552472L
aL3168697860L
aL3118978727L
aL2540704840L
aL3807902295L
aI759826807
aL2434099957L
aI41044925
aL2376282929L
aI14718694
aL3374765477L
aI18721583
aL2207143911L
aI88816329
aI9555372
aI49413866
aL2507152446L
aL3502389073L
aI468040901
aL3498922692L
aI31327090
aI756663138
aL2376695775L
aI16816972
aL3166096299L
aL2794159536L
aI1721981
aI580857186
aL3259914893L
aL3315175346L
aI54529748
aI1667125412
aI350802962
aI42609957
aL2906439339L
aL3511143196L
aI824713183
aL2941597873L
aL3387003393L
aL3301880718L
aI127967449
aI1902207943
aI538547125
aasS'obj'
p7
ccopy_reg
_reconstructor
p8
(ctweepy.models
User
p9
c__builtin__
object
p10
Ntp11
Rp12
(dp13
S'follow_request_sent'
p14
NsS'has_extended_profile'
p15
I00
sS'profile_use_background_image'
p16
I01
sS'profile_sidebar_fill_color'
p17
V000000
p18
sS'id'
p19
L3548524222L
sS'verified'
p20
I00
sS'entities'
p21
(dp22
Vdescription
p23
(dp24
Vurls
p25
(lp26
sssS'profile_image_url_https'
p27
Vhttps://pbs.twimg.com/profile_images/641290674764025856/dBl_d9oC_normal.jpg
p28
sS'_json'
p29
(dp30
Vfollow_request_sent
p31
NsVhas_extended_profile
p32
I00
sVprofile_use_background_image
p33
I01
sVdefault_profile_image
p34
I00
sVid
p35
L3548524222L
sVprofile_background_image_url_https
p36
Vhttps://pbs.twimg.com/profile_background_images/641290747224829952/DB5Xx55c.jpg
p37
sVverified
p38
I00
sVprofile_text_color
p39
V000000
p40
sVprofile_image_url_https
p41
g28
sVprofile_sidebar_fill_color
p42
g18
sVentities
p43
g22
sVfollowers_count
p44
I241
sVprofile_sidebar_border_color
p45
V000000
p46
sVid_str
p47
V3548524222
p48
sVprofile_background_color
p49
V0000FF
p50
sVlisted_count
p51
I372
sVstatus
p52
(dp53
Vcontributors
p54
NsVtruncated
p55
I00
sVtext
p56
VRT @iMusicMarketer: 12 Essential Modern Pop Albums You Need To Own On Vinyl https://t.co/Iy8EgBrzou #popmusic #rockmusic
p57
sVin_reply_to_status_id
p58
Nsg35
L666376344717119488L
sVfavorite_count
p59
I0
sVsource
p60
V<a href="https://roundteam.co" rel="nofollow">RoundTeam</a>
p61
sVretweeted
p62
I00
sVcoordinates
p63
Nsg43
(dp64
Vsymbols
p65
(lp66
sVuser_mentions
p67
(lp68
(dp69
g35
I420875454
sVindices
p70
(lp71
I3
aI18
asg47
V420875454
p72
sVscreen_name
p73
ViMusicMarketer
p74
sVname
p75
VMusic Lovers \u266b \u266b \u2605
p76
sasVhashtags
p77
(lp78
(dp79
g70
(lp80
I100
aI109
asg56
Vpopmusic
p81
sa(dp82
g70
(lp83
I110
aI120
asg56
Vrockmusic
p84
sasg25
(lp85
(dp86
Vurl
p87
Vhttps://t.co/Iy8EgBrzou
p88
sg70
(lp89
I76
aI99
asVexpanded_url
p90
Vhttp://on.mtv.com/1SxL4m8
p91
sVdisplay_url
p92
Von.mtv.com/1SxL4m8
p93
sassVin_reply_to_screen_name
p94
Nsg47
V666376344717119488
p95
sVretweet_count
p96
I8
sVin_reply_to_user_id
p97
NsVfavorited
p98
I00
sVretweeted_status
p99
(dp100
g54
Nsg55
I00
sg56
V12 Essential Modern Pop Albums You Need To Own On Vinyl https://t.co/Iy8EgBrzou #popmusic #rockmusic
p101
sg58
Nsg35
L666375741320265728L
sg59
I0
sg60
V<a href="http://twitterfeed.com" rel="nofollow">twitterfeed</a>
p102
sg62
I00
sg63
Nsg43
(dp103
g65
(lp104
sg67
(lp105
sg77
(lp106
(dp107
g70
(lp108
I80
aI89
asg56
Vpopmusic
p109
sa(dp110
g70
(lp111
I90
aI100
asg56
Vrockmusic
p112
sasg25
(lp113
(dp114
g87
Vhttps://t.co/Iy8EgBrzou
p115
sg70
(lp116
I56
aI79
asg90
Vhttp://on.mtv.com/1SxL4m8
p117
sg92
Von.mtv.com/1SxL4m8
p118
sassg94
Nsg47
V666375741320265728
p119
sg96
I8
sg97
Nsg98
I00
sVgeo
p120
NsVin_reply_to_user_id_str
p121
NsVpossibly_sensitive
p122
I00
sVlang
p123
Ven
p124
sVcreated_at
p125
VMon Nov 16 22:02:12 +0000 2015
p126
sVin_reply_to_status_id_str
p127
NsVplace
p128
Nssg120
Nsg121
Nsg122
I00
sg123
Ven
p129
sg125
VMon Nov 16 22:04:35 +0000 2015
p130
sg127
Nsg128
NssVis_translation_enabled
p131
I00
sVutc_offset
p132
I-28800
sVstatuses_count
p133
I20559
sg23
VIn any investment, you expect to have fun and make money.\u000aRead more at
p134
sVfriends_count
p135
I9
sVlocation
p136
V
p137
sVprofile_link_color
p138
V0000FF
p139
sVprofile_image_url
p140
Vhttp://pbs.twimg.com/profile_images/641290674764025856/dBl_d9oC_normal.jpg
p141
sVfollowing
p142
NsVgeo_enabled
p143
I00
sVprofile_banner_url
p144
Vhttps://pbs.twimg.com/profile_banners/3548524222/1442989518
p145
sVprofile_background_image_url
p146
Vhttp://pbs.twimg.com/profile_background_images/641290747224829952/DB5Xx55c.jpg
p147
sg73
VOzellPfliger
p148
sg123
Ven
p149
sVprofile_background_tile
p150
I01
sVfavourites_count
p151
I0
sg75
VInvestment - Pfliger
p152
sVnotifications
p153
Nsg87
Nsg125
VFri Sep 04 21:00:49 +0000 2015
p154
sVcontributors_enabled
p155
I00
sVtime_zone
p156
VPacific Time (US & Canada)
p157
sVprotected
p158
I00
sVdefault_profile
p159
I00
sVis_translator
p160
I00
ssS'contributors_enabled'
p161
I00
sS'profile_text_color'
p162
g40
sS'followers_count'
p163
I241
sS'profile_sidebar_border_color'
p164
g46
sS'id_str'
p165
g48
sS'default_profile_image'
p166
I00
sS'listed_count'
p167
I372
sS'status'
p168
g8
(ctweepy.models
Status
p169
g10
Ntp170
Rp171
(dp172
S'favorited'
p173
I00
sS'contributors'
p174
NsS'truncated'
p175
I00
sS'text'
p176
g57
sS'source_url'
p177
Vhttps://roundteam.co
p178
sS'possibly_sensitive'
p179
I00
sS'in_reply_to_status_id'
p180
NsS'geo'
p181
Nsg19
L666376344717119488L
sS'favorite_count'
p182
I0
sS'lang'
p183
g129
sS'retweeted_status'
p184
g8
(g169
g10
Ntp185
Rp186
(dp187
g173
I00
sg174
Nsg175
I00
sg176
g101
sg177
Vhttp://twitterfeed.com
p188
sg179
I00
sg180
Nsg181
Nsg19
L666375741320265728L
sg182
I0
sg183
g124
sg21
g103
sS'created_at'
p189
cdatetime
datetime
p190
(S'\x07\xdf\x0b\x10\x16\x02\x0c\x00\x00\x00'
p191
tp192
Rp193
sg29
g100
sS'coordinates'
p194
NsS'in_reply_to_user_id_str'
p195
NsS'source'
p196
Vtwitterfeed
p197
sS'in_reply_to_status_id_str'
p198
NsS'in_reply_to_screen_name'
p199
Nsg165
g119
sS'retweeted'
p200
I00
sS'place'
p201
NsS'retweet_count'
p202
I8
sS'in_reply_to_user_id'
p203
Nsbsg21
g64
sg189
g190
(S'\x07\xdf\x0b\x10\x16\x04#\x00\x00\x00'
p204
tp205
Rp206
sg29
g53
sg194
Nsg195
Nsg196
VRoundTeam
p207
sg198
Nsg199
Nsg165
g95
sg200
I00
sg201
Nsg202
I8
sg203
NsbsS'is_translation_enabled'
p208
I00
sS'utc_offset'
p209
I-28800
sS'statuses_count'
p210
I20559
sS'description'
p211
VIn any investment, you expect to have fun and make money.\u000aRead more at
p212
sS'friends_count'
p213
I9
sS'location'
p214
g137
sS'profile_link_color'
p215
g139
sS'profile_image_url'
p216
g141
sS'notifications'
p217
NsS'geo_enabled'
p218
I00
sS'profile_background_color'
p219
g50
sS'profile_banner_url'
p220
g145
sS'profile_background_image_url'
p221
g147
sS'screen_name'
p222
g148
sg183
g149
sg1
I00
sS'profile_background_tile'
p223
I01
sS'favourites_count'
p224
I0
sS'name'
p225
g152
sS'url'
p226
Nsg189
g190
(S'\x07\xdf\t\x04\x15\x001\x00\x00\x00'
p227
tp228
Rp229
sS'profile_background_image_url_https'
p230
g37
sS'time_zone'
p231
g157
sS'protected'
p232
I00
sS'default_profile'
p233
I00
sS'is_translator'
p234
I00
sbs.