(dp0
S'following'
p1
(lp2
(lp3
I133970935
aI430841130
aI203652149
aI455366870
aI104643871
aI777011756
aI403855355
aI258028535
aI59393368
aI258079573
aL2214652482L
aI92622940
aI46677599
aL2286097290L
aI1488051955
aI465897557
aI82711419
aI14624231
aI34837057
aI455824771
aI72907355
aI150094848
aI58808528
aI89538046
aI17249855
aI61342056
aL2238814035L
aI27922928
aI25827743
aI65681636
aI19739279
aI52166809
aasS'followers'
p4
(lp5
(lp6
I563850863
aL4109175323L
aL3905599592L
aL2712827676L
aL4108272159L
aL4120078699L
aI1861663298
aI84444981
aI1393603976
aL4132530316L
aL4140113353L
aL2836291815L
aI297449235
aI17867952
aI366625239
aI461777869
aL4035831256L
aI214233457
aL3081549154L
aL4084857807L
aL2394624246L
aL4070657673L
aI249472617
aI1647444272
aL2179133954L
aL3947393835L
aL3248378876L
aI250317700
aI258079573
aI92622940
aI245958997
aL2931426084L
aL3210776242L
aI54653742
aI156016361
aI45415894
aL2792409770L
aI130518923
aI34469148
aI1488051955
aI468724434
aI189901963
aL2895002344L
aL2286097290L
aI317562281
aI221249067
aI26782350
aI1092954306
aI517232382
aI40300931
aL3876058167L
aI465897557
aI546677551
aL2171111726L
aI1255918850
aI26685638
aL2407090081L
aI369526348
aI179479097
aL3187306129L
aI342577543
aI24033524
aI550648776
aI71185856
aL2715894908L
aI280488168
aI421752510
aI34837057
aI31248081
aL2402524621L
aI31023371
aL2534364897L
aL3826788081L
aI250336523
aI903948823
aL3107672067L
aI335298828
aI258697896
aI598556189
aI134614155
aI16831072
aL2584146662L
aI237808494
aL3513789737L
aI453086255
aI731350160
aI34618161
aI204068035
aI361634918
aL2867722337L
aI38967289
aI284607464
aI413297041
aI373131818
aI1712077064
aI46677599
aI274624124
aL2971374656L
aI201399451
aI42516958
aI231921282
aI958793551
aI446372007
aI1007644255
aI1688577464
aI223604521
aL2330419436L
aL2663662568L
aL3099689685L
aI248401870
aL3736120879L
aI342929856
aI254142581
aI1920952273
aL3160466007L
aI366407716
aL2597784497L
aI117838235
aI228429786
aL2940178763L
aI1865368993
aI359691864
aI137203273
aI344232935
aI239187592
aL2797710999L
aI258388417
aI983143297
aI784071102
aI1399054922
aL2859776763L
aI260299501
aI1726255495
aL2919956420L
aL2502402132L
aI777011756
aI743339024
aI577633839
aL2303845688L
aI22426933
aI1040551766
aI223052887
aI128592428
aI272431459
aL3308868906L
aI221224395
aI1071898946
aL2280440166L
aI67533177
aI902024952
aI347597546
aI15498129
aI604080014
aI1367275334
aI613543604
aI441260402
aI292095377
aL3385756023L
aL2757132580L
aI197004838
aI1611593304
aI597905589
aI247984680
aI316202380
aI590374788
aL3096467115L
aI623936569
aI987139884
aI1271422610
aI340933358
aI58808528
aI156040935
aL3271422313L
aI217159658
aI1733577882
aI1561874822
aI134135876
aL2436141740L
aL2722167346L
aI798428192
aI57396966
aI1051168861
aI18162750
aL2375789010L
aL3181160665L
aL2693842617L
aI318730911
aL3246398192L
aI105546783
aL2201908746L
aL2987062674L
aI291965445
aI462469250
aI591888435
aI27762777
aI22152649
aI213403818
aI14624231
aI150094848
aL2287212294L
aI28660008
aI1183310281
aL3505508416L
aI17249855
aI793655922
aL2447155508L
aL2238814035L
aI469276059
aL2483093335L
aL3669843615L
aI52166809
aI95115202
aI1101026785
aI19739279
aI65681636
aasS'obj'
p7
ccopy_reg
_reconstructor
p8
(ctweepy.models
User
p9
c__builtin__
object
p10
Ntp11
Rp12
(dp13
S'follow_request_sent'
p14
NsS'has_extended_profile'
p15
I00
sS'profile_use_background_image'
p16
I01
sS'profile_sidebar_fill_color'
p17
VDDEEF6
p18
sS'id'
p19
L3571775352L
sS'verified'
p20
I00
sS'entities'
p21
(dp22
Vurl
p23
(dp24
Vurls
p25
(lp26
(dp27
g23
Vhttp://t.co/SnmHxrHC8J
p28
sVindices
p29
(lp30
I0
aI22
asVexpanded_url
p31
Vhttp://stocktwits.com/ibex
p32
sVdisplay_url
p33
Vstocktwits.com/ibex
p34
sassVdescription
p35
(dp36
g25
(lp37
sssS'profile_image_url_https'
p38
Vhttps://pbs.twimg.com/profile_images/643787747698741249/SUQmiTPi_normal.png
p39
sS'_json'
p40
(dp41
Vfollow_request_sent
p42
NsVhas_extended_profile
p43
I00
sVprofile_use_background_image
p44
I01
sVdefault_profile_image
p45
I00
sVid
p46
L3571775352L
sVprofile_background_image_url_https
p47
Vhttps://abs.twimg.com/images/themes/theme1/bg.png
p48
sVverified
p49
I00
sVprofile_text_color
p50
V333333
p51
sVprofile_image_url_https
p52
g39
sVprofile_sidebar_fill_color
p53
g18
sVentities
p54
g22
sVfollowers_count
p55
I215
sVprofile_sidebar_border_color
p56
VC0DEED
p57
sVid_str
p58
V3571775352
p59
sVprofile_background_color
p60
VC0DEED
p61
sVlisted_count
p62
I11
sVstatus
p63
(dp64
Vcontributors
p65
NsVtruncated
p66
I00
sVtext
p67
VCommented on StockTwits: Agree looks like should higher. Assuming big tech names do well, it will. For me, this w... https://t.co/dr8r6wgR9c
p68
sVin_reply_to_status_id
p69
Nsg46
L666361518846377984L
sVfavorite_count
p70
I0
sVsource
p71
V<a href="http://stocktwits.com" rel="nofollow">StockTwits Web</a>
p72
sVretweeted
p73
I00
sVcoordinates
p74
Nsg54
(dp75
Vsymbols
p76
(lp77
sVuser_mentions
p78
(lp79
sVhashtags
p80
(lp81
sg25
(lp82
(dp83
g23
Vhttps://t.co/dr8r6wgR9c
p84
sg29
(lp85
I117
aI140
asg31
Vhttp://stks.co/p3Bj6
p86
sg33
Vstks.co/p3Bj6
p87
sassVin_reply_to_screen_name
p88
Nsg58
V666361518846377984
p89
sVretweet_count
p90
I0
sVin_reply_to_user_id
p91
NsVfavorited
p92
I00
sVgeo
p93
NsVin_reply_to_user_id_str
p94
NsVpossibly_sensitive
p95
I00
sVlang
p96
Ven
p97
sVcreated_at
p98
VMon Nov 16 21:05:41 +0000 2015
p99
sVin_reply_to_status_id_str
p100
NsVplace
p101
NssVis_translation_enabled
p102
I00
sVutc_offset
p103
I-28800
sVstatuses_count
p104
I798
sg35
VTrader & investor. International business development; corporate & business law. Prefer trending positions & swing trades; day trade volatility.
p105
sVfriends_count
p106
I32
sVlocation
p107
VNorthwest USA
p108
sVprofile_link_color
p109
V0084B4
p110
sVprofile_image_url
p111
Vhttp://pbs.twimg.com/profile_images/643787747698741249/SUQmiTPi_normal.png
p112
sVfollowing
p113
NsVgeo_enabled
p114
I00
sVprofile_background_image_url
p115
Vhttp://abs.twimg.com/images/themes/theme1/bg.png
p116
sVscreen_name
p117
Vibex_matt
p118
sg96
Ven
p119
sVprofile_background_tile
p120
I00
sVfavourites_count
p121
I564
sVname
p122
Vibex
p123
sVnotifications
p124
Nsg23
Vhttp://t.co/SnmHxrHC8J
p125
sg98
VTue Sep 15 13:27:21 +0000 2015
p126
sVcontributors_enabled
p127
I00
sVtime_zone
p128
VPacific Time (US & Canada)
p129
sVprotected
p130
I00
sVdefault_profile
p131
I01
sVis_translator
p132
I00
ssS'contributors_enabled'
p133
I00
sS'profile_text_color'
p134
g51
sS'followers_count'
p135
I215
sS'profile_sidebar_border_color'
p136
g57
sS'id_str'
p137
g59
sS'default_profile_image'
p138
I00
sS'listed_count'
p139
I11
sS'status'
p140
g8
(ctweepy.models
Status
p141
g10
Ntp142
Rp143
(dp144
S'favorited'
p145
I00
sS'contributors'
p146
NsS'truncated'
p147
I00
sS'text'
p148
g68
sS'source_url'
p149
Vhttp://stocktwits.com
p150
sS'possibly_sensitive'
p151
I00
sS'in_reply_to_status_id'
p152
NsS'geo'
p153
Nsg19
L666361518846377984L
sS'favorite_count'
p154
I0
sS'lang'
p155
g97
sg21
g75
sS'created_at'
p156
cdatetime
datetime
p157
(S'\x07\xdf\x0b\x10\x15\x05)\x00\x00\x00'
p158
tp159
Rp160
sg40
g64
sS'coordinates'
p161
NsS'in_reply_to_user_id_str'
p162
NsS'source'
p163
VStockTwits Web
p164
sS'in_reply_to_status_id_str'
p165
NsS'in_reply_to_screen_name'
p166
Nsg137
g89
sS'retweeted'
p167
I00
sS'place'
p168
NsS'retweet_count'
p169
I0
sS'in_reply_to_user_id'
p170
NsbsS'is_translation_enabled'
p171
I00
sS'utc_offset'
p172
I-28800
sS'statuses_count'
p173
I798
sS'description'
p174
g105
sS'friends_count'
p175
I32
sS'location'
p176
g108
sS'profile_link_color'
p177
g110
sS'profile_image_url'
p178
g112
sS'notifications'
p179
NsS'geo_enabled'
p180
I00
sS'profile_background_color'
p181
g61
sS'profile_background_image_url'
p182
g116
sS'screen_name'
p183
g118
sg155
g119
sg1
I00
sS'profile_background_tile'
p184
I00
sS'favourites_count'
p185
I564
sS'name'
p186
g123
sS'url'
p187
g125
sg156
g157
(S'\x07\xdf\t\x0f\r\x1b\x15\x00\x00\x00'
p188
tp189
Rp190
sS'profile_background_image_url_https'
p191
g48
sS'time_zone'
p192
g129
sS'protected'
p193
I00
sS'default_profile'
p194
I01
sS'is_translator'
p195
I00
sbs.