(dp0
S'following'
p1
(lp2
(lp3
I14886375
aI11116682
aI262763182
aI80697114
aI403598464
aasS'followers'
p4
(lp5
(lp6
L4186372055L
aL2452075426L
aI461666861
aL3289917664L
aI1924312855
aL3340173380L
aL4212553580L
aL4109175323L
aI471544506
aI9677452
aI83298504
aL3229033830L
aI43554881
aL3654243913L
aL4135384993L
aI1924310023
aI33815837
aL4109671318L
aI371914380
aL3627968296L
aI398117523
aI333398530
aL4032841407L
aI396999574
aI18578905
aI359923345
aL3119814442L
aI14886375
aL3982700113L
aL3452396598L
aI39376140
aI304797523
aL3235419872L
aI981236256
aL3409433439L
aI224195814
aI316485110
aI713677112
aI165669120
aI21209318
aI19030886
aL2598967407L
aI240526672
aI122996217
aI1447305589
aI579133826
aL2800136617L
aL2249751139L
aL3314000264L
aI38837865
aI18237053
aL3138509449L
aL3647459532L
aI14948012
aI208511386
aI297253976
aL2794289932L
aI769657309
aI37084832
aI594139888
aL3895667652L
aI127056282
aI18471869
aI402799657
aL2662370076L
aI262763182
aL2436012710L
aI521086752
aL2977887885L
aL2496574266L
aL2837882056L
aI48797303
aL3763030214L
aI342156110
aI294293035
aL2225550241L
aL2225346360L
aL2314289604L
aL2320795783L
aI1214594287
aL3663176299L
aI359482411
aI604536757
aL2528005758L
aI825818250
aI493532829
aL3249124776L
aI738894097
aI1713041
aL2828612633L
aI706429738
aI344181252
aL3228415425L
aI175857285
aL2973826853L
aI42160603
aI406444648
aI1920410647
aI519141573
aL3297495426L
aI27725616
aI1240868113
aL2830096608L
aL3420456105L
aL2787164854L
aL3232943672L
aI40621299
aI15067433
aL3402758668L
aI843861068
aI516013877
aI623971682
aI500364555
aL3376343925L
aI554290220
aL2380905156L
aL3254008736L
aI230064135
aI1376720149
aI217783838
aL3321732942L
aL2868907819L
aL2963671569L
aI39497948
aI37195921
aL2982500854L
aL3182220498L
aL2583093607L
aI58958446
aI554777853
aL3193692303L
aI39043402
aI51896470
aI556233802
aL2290445756L
aI1263007015
aI521963876
aI1525794098
aL3415110442L
aI874419354
aI24223507
aI265112859
aL3221782987L
aI56522488
aI180975419
aI869985108
aL3313742095L
aL3424907920L
aI326484027
aI45678779
aL3223130652L
aI287966215
aL3012953397L
aI1439142228
aI222095267
aI468312367
aI1659813348
aI497696666
aI312468479
aL2773591949L
aI320512742
aI338002489
aI453625776
aL3301540820L
aI516068314
aL2986015338L
aI1583483839
aI52841010
aL2259403981L
aI24080172
aI109088599
aL3189831025L
aI906938905
aI33268930
aI481656424
aI35359528
aI20114738
aI465220907
aI367133670
aI405016001
aL2320613431L
aI292043025
aL3254524106L
aI710906930
aL3075435558L
aL2849721180L
aL3031892974L
aI200413376
aL2391736411L
aI253692588
aI227288887
aI433289127
aI89571091
aI559940893
aI250317700
aL3256312604L
aI881608580
aI1233362096
aL3236648948L
aL2922274868L
aI274464365
aI22688842
aI24224332
aI403784925
aL3072865409L
aI162777509
aI52489456
aI268450837
aL3281172788L
aL3034687258L
aI1845191160
aL2253557707L
aI1621491360
aL3315201923L
aI234758810
aL3331785437L
aI1616145764
aI13730542
aI403598464
aI904831561
aL3198054315L
aI180681321
aL2854814735L
aI40300931
aI120672388
aL2960151524L
aI31458684
aI1482419522
aI23008181
aL2743255203L
aL3196735734L
aI102728705
aI80697114
aasS'obj'
p7
ccopy_reg
_reconstructor
p8
(ctweepy.models
User
p9
c__builtin__
object
p10
Ntp11
Rp12
(dp13
S'follow_request_sent'
p14
NsS'has_extended_profile'
p15
I00
sS'profile_use_background_image'
p16
I00
sS'profile_sidebar_fill_color'
p17
V000000
p18
sS'id'
p19
I360855408
sS'verified'
p20
I00
sS'entities'
p21
(dp22
Vdescription
p23
(dp24
Vurls
p25
(lp26
sssS'profile_image_url_https'
p27
Vhttps://pbs.twimg.com/profile_images/565175991299878912/85zH9khD_normal.png
p28
sS'_json'
p29
(dp30
Vfollow_request_sent
p31
NsVhas_extended_profile
p32
I00
sVprofile_use_background_image
p33
I00
sVdefault_profile_image
p34
I00
sVid
p35
I360855408
sVprofile_background_image_url_https
p36
Vhttps://abs.twimg.com/images/themes/theme1/bg.png
p37
sVverified
p38
I00
sVprofile_text_color
p39
V000000
p40
sVprofile_image_url_https
p41
g28
sVprofile_sidebar_fill_color
p42
g18
sVentities
p43
g22
sVfollowers_count
p44
I233
sVprofile_sidebar_border_color
p45
V000000
p46
sVid_str
p47
V360855408
p48
sVprofile_background_color
p49
V000000
p50
sVlisted_count
p51
I16
sVstatus
p52
(dp53
Vlang
p54
Ven
p55
sVfavorited
p56
I00
sg43
(dp57
Vsymbols
p58
(lp59
(dp60
Vindices
p61
(lp62
I25
aI30
asVtext
p63
VARWR
p64
sa(dp65
g61
(lp66
I36
aI41
asg63
VSUNE
p67
sa(dp68
g61
(lp69
I46
aI51
asg63
VUWTI
p70
sa(dp71
g61
(lp72
I56
aI61
asg63
VJNUG
p73
sa(dp74
g61
(lp75
I66
aI70
asg63
VMRC
p76
sa(dp77
g61
(lp78
I75
aI80
asg63
VNUGT
p79
sa(dp80
g61
(lp81
I85
aI89
asg63
VIBN
p82
sa(dp83
g61
(lp84
I94
aI99
asg63
VUGAZ
p85
sa(dp86
g61
(lp87
I100
aI105
asg63
VUSLV
p88
sa(dp89
g61
(lp90
I106
aI111
asg63
VSODA
p91
sa(dp92
g61
(lp93
I112
aI117
asg63
VASHR
p94
sa(dp95
g61
(lp96
I118
aI122
asg63
VMBT
p97
sa(dp98
g61
(lp99
I123
aI127
asg63
VAUY
p100
sa(dp101
g61
(lp102
I128
aI133
asg63
VPRGO
p103
sa(dp104
g61
(lp105
I134
aI139
asg63
VJMEI
p106
sasVuser_mentions
p107
(lp108
sVhashtags
p109
(lp110
sg25
(lp111
ssVcontributors
p112
NsVtruncated
p113
I00
sg63
VPremarket Top % Gainers: $ARWR 19%, $SUNE 5%, $UWTI 5%, $JNUG 4%, $MRC 4%, $NUGT 4%, $IBN 3%, $UGAZ $USLV $SODA $ASHR $MBT $AUY $PRGO $JMEI
p114
sVcreated_at
p115
VMon Nov 16 11:56:00 +0000 2015
p116
sVretweeted
p117
I00
sVin_reply_to_status_id_str
p118
NsVcoordinates
p119
NsVin_reply_to_user_id_str
p120
NsVsource
p121
V<a href="http://twitter.com" rel="nofollow">Twitter Web Client</a>
p122
sVin_reply_to_status_id
p123
NsVin_reply_to_screen_name
p124
Nsg47
V666223187177414656
p125
sVplace
p126
NsVretweet_count
p127
I0
sVgeo
p128
Nsg35
L666223187177414656L
sVfavorite_count
p129
I0
sVin_reply_to_user_id
p130
NssVis_translation_enabled
p131
I00
sVutc_offset
p132
NsVstatuses_count
p133
I1569
sg23
VI look for good risk/reward trades, both long & short. MSFT: MCSE. National IT Mgr. Finance: Prudential Securities, then 10 years trading. Posts are not advice.
p134
sVfriends_count
p135
I5
sVlocation
p136
VNew York, NY
p137
sVprofile_link_color
p138
V4A913C
p139
sVprofile_image_url
p140
Vhttp://pbs.twimg.com/profile_images/565175991299878912/85zH9khD_normal.png
p141
sVfollowing
p142
NsVgeo_enabled
p143
I00
sVprofile_banner_url
p144
Vhttps://pbs.twimg.com/profile_banners/360855408/1436200371
p145
sVprofile_background_image_url
p146
Vhttp://abs.twimg.com/images/themes/theme1/bg.png
p147
sVscreen_name
p148
VSuper1NYC
p149
sg54
Ven
p150
sVprofile_background_tile
p151
I00
sVfavourites_count
p152
I31
sVname
p153
VAce
p154
sVnotifications
p155
NsVurl
p156
Nsg115
VTue Aug 23 21:36:13 +0000 2011
p157
sVcontributors_enabled
p158
I00
sVtime_zone
p159
NsVprotected
p160
I00
sVdefault_profile
p161
I00
sVis_translator
p162
I00
ssS'contributors_enabled'
p163
I00
sS'profile_text_color'
p164
g40
sS'followers_count'
p165
I233
sS'profile_sidebar_border_color'
p166
g46
sS'id_str'
p167
g48
sS'default_profile_image'
p168
I00
sS'listed_count'
p169
I16
sS'status'
p170
g8
(ctweepy.models
Status
p171
g10
Ntp172
Rp173
(dp174
S'favorited'
p175
I00
sS'contributors'
p176
NsS'truncated'
p177
I00
sS'text'
p178
g114
sS'source_url'
p179
Vhttp://twitter.com
p180
sS'in_reply_to_status_id'
p181
NsS'geo'
p182
Nsg19
L666223187177414656L
sS'favorite_count'
p183
I0
sS'lang'
p184
g55
sg21
g57
sS'created_at'
p185
cdatetime
datetime
p186
(S'\x07\xdf\x0b\x10\x0b8\x00\x00\x00\x00'
p187
tp188
Rp189
sg29
g53
sS'coordinates'
p190
NsS'in_reply_to_user_id_str'
p191
NsS'source'
p192
VTwitter Web Client
p193
sS'in_reply_to_status_id_str'
p194
NsS'in_reply_to_screen_name'
p195
Nsg167
g125
sS'retweeted'
p196
I00
sS'place'
p197
NsS'retweet_count'
p198
I0
sS'in_reply_to_user_id'
p199
NsbsS'is_translation_enabled'
p200
I00
sS'utc_offset'
p201
NsS'statuses_count'
p202
I1569
sS'description'
p203
g134
sS'friends_count'
p204
I5
sS'location'
p205
g137
sS'profile_link_color'
p206
g139
sS'profile_image_url'
p207
g141
sS'notifications'
p208
NsS'geo_enabled'
p209
I00
sS'profile_background_color'
p210
g50
sS'profile_banner_url'
p211
g145
sS'profile_background_image_url'
p212
g147
sS'screen_name'
p213
g149
sg184
g150
sg1
I00
sS'profile_background_tile'
p214
I00
sS'favourites_count'
p215
I31
sS'name'
p216
g154
sS'url'
p217
Nsg185
g186
(S'\x07\xdb\x08\x17\x15$\r\x00\x00\x00'
p218
tp219
Rp220
sS'profile_background_image_url_https'
p221
g37
sS'time_zone'
p222
NsS'protected'
p223
I00
sS'default_profile'
p224
I00
sS'is_translator'
p225
I00
sbs.