(dp0
S'following'
p1
(lp2
(lp3
I38328943
aI21676980
aL2897825254L
aI22972870
aL3300815185L
aL2310588612L
aL2927166203L
aI16304230
aI23748071
aI1472625620
aI18814734
aL3176810649L
aI64429882
aL2355032276L
aI367943730
aL3588839532L
aI52849759
aI32949165
aI25330246
aI16891046
aI19483372
aI613280139
aL3012937318L
aI37363614
aL2925878687L
aL3023997270L
aI227757257
aL2801179161L
aI97966078
aI286654612
aI20636215
aI1926698492
aI1260326030
aI97786845
aI351148970
aI39853973
aI1908730777
aI159699095
aI22193361
aI77846920
aI16146667
aI16958125
aI177366201
aI225144766
aL2990004218L
aI272203887
aI40464134
aI24411256
aI156043377
aL3379945317L
aL2985893183L
aI17500537
aI1480464205
aI15537918
aI114800805
aI200925291
aI22200186
aL2603835019L
aI314005753
aI343066142
aI1128777847
aL2427554983L
aL2427908454L
aI474124762
aI413825202
aL3225702809L
aL2810435802L
aI15972374
aI26211488
aI497251798
aI15350943
aI1370107891
aI1859165473
aI18863694
aL2926289246L
aL3796186942L
aI25882361
aL2924528414L
aL2252241674L
aI25062618
aI227822148
aI46628774
aI28353766
aL2830371145L
aL3192975586L
aI17506774
aI299385432
aI1924167116
aL2759157810L
aL2461907034L
aI14571474
aI144400453
aI15080967
aI15875119
aL2305555002L
aL3145537276L
aI199358027
aI365052236
aI271854805
aI25310362
aL3058237574L
aI38712999
aL3398300962L
aI81947660
aI18258508
aI347318515
aI831819445
aI1216429218
aI14172048
aI1575684643
aI450627332
aL2338797512L
aI497363497
aL3386531654L
aL3461031256L
aI112201881
aI551440408
aL3028192475L
aI1296731634
aI996072554
aL3207489225L
aI594080668
aI27854894
aL2974856849L
aI270481972
aI543824633
aL2828681345L
aI486056843
aI23756134
aI80531439
aI1094620135
aI69205964
aL2695985915L
aI78406420
aI155274019
aI47657595
aI75057038
aI235322186
aL2497273754L
aI588472951
aI1183951892
aI61212645
aI1059751351
aI1534167900
aI23125257
aI211263771
aL2905311780L
aI1525421210
aI23523406
aI605550254
aI18482553
aI14819993
aI16719112
aI60473581
aI55007147
aI843706801
aI386564484
aI55020919
aI232469327
aI23115731
aI254280603
aI26775476
aI212236087
aI431956153
aI172836249
aL2841535503L
aI110463712
aI391045354
aI388932692
aL2890983396L
aasS'followers'
p4
(lp5
(lp6
I1012618273
aI179245986
aL2364846798L
aI233020476
aI251848263
aI17703236
aL2442458264L
aI75304289
aI19492535
aL3096765309L
aL4047049157L
aI62866941
aI49084477
aI1702528472
aI38328943
aI50228468
aI776436606
aL3154126637L
aI908930785
aI552154783
aL2992414321L
aL3300815185L
aL2873650007L
aL3253306171L
aL3016791655L
aL2897825254L
aI624152901
aL2927166203L
aL2310588612L
aL3150477914L
aI16304230
aI47030292
aI28863933
aI18814734
aI1472625620
aL3176810649L
aI23748071
aL2355032276L
aI64429882
aI367943730
aI19483372
aL3588839532L
aI613280139
aL3246752411L
aL3012937318L
aL2394624246L
aI314005753
aI204181677
aI227757257
aL3023997270L
aL2925878687L
aL4042605322L
aL2801179161L
aL4012955585L
aI225144766
aI272203887
aI40464134
aI24411256
aL3379945317L
aL2985893183L
aI17500537
aI1480464205
aL2533521912L
aL2305555002L
aI1494756331
aI354582361
aL2427554983L
aL4003879583L
aL2427908454L
aL2817407251L
aL2351152392L
aL3677173709L
aI346117268
aI1370107891
aI1859165473
aI18863694
aL3006492795L
aL3813613037L
aL3225702809L
aL2926289246L
aI1263630475
aL3796186942L
aI25882361
aL2924528414L
aL3361574871L
aL2252241674L
aI1884628062
aL3982566795L
aI25062618
aI46628774
aI28353766
aL2830371145L
aL3888353112L
aL3267298618L
aL3192975586L
aI17506774
aI299385432
aI52389323
aI1924167116
aL2759157810L
aI431956153
aI493248676
aI144400453
aI15080967
aI1216429218
aL3311888438L
aI15875119
aL3145537276L
aI199358027
aL3702262938L
aL2338797512L
aI365052236
aI18258508
aI25310362
aI347318515
aI831819445
aI38712999
aI30149549
aL2959357873L
aI450627332
aI81947660
aI1575684643
aI14172048
aI497363497
aL3386531654L
aI112201881
aI1296731634
aL3028192475L
aL3461031256L
aI996072554
aL3168191809L
aI27854894
aL2885079338L
aI270481972
aL2828681345L
aL3244415634L
aasS'obj'
p7
ccopy_reg
_reconstructor
p8
(ctweepy.models
User
p9
c__builtin__
object
p10
Ntp11
Rp12
(dp13
S'follow_request_sent'
p14
NsS'has_extended_profile'
p15
I00
sS'profile_use_background_image'
p16
I00
sS'profile_sidebar_fill_color'
p17
V000000
p18
sS'id'
p19
L3617645112L
sS'verified'
p20
I00
sS'entities'
p21
(dp22
Vurl
p23
(dp24
Vurls
p25
(lp26
(dp27
g23
Vhttps://t.co/fSaUwW4dCF
p28
sVindices
p29
(lp30
I0
aI23
asVexpanded_url
p31
Vhttp://briandcolwell.com/alternative-investments
p32
sVdisplay_url
p33
Vbriandcolwell.com/alternative-in\u2026
p34
sassVdescription
p35
(dp36
g25
(lp37
sssS'profile_image_url_https'
p38
Vhttps://pbs.twimg.com/profile_images/645298519922728960/GLY-E6bE_normal.jpg
p39
sS'_json'
p40
(dp41
Vfollow_request_sent
p42
NsVhas_extended_profile
p43
I00
sVprofile_use_background_image
p44
I00
sVdefault_profile_image
p45
I00
sVid
p46
L3617645112L
sVprofile_background_image_url_https
p47
Vhttps://abs.twimg.com/images/themes/theme1/bg.png
p48
sVverified
p49
I00
sVprofile_text_color
p50
V000000
p51
sVprofile_image_url_https
p52
g39
sVprofile_sidebar_fill_color
p53
g18
sVentities
p54
g22
sVfollowers_count
p55
I136
sVprofile_sidebar_border_color
p56
V000000
p57
sVid_str
p58
V3617645112
p59
sVprofile_background_color
p60
V000000
p61
sVlisted_count
p62
I27
sVstatus
p63
(dp64
Vcontributors
p65
NsVtruncated
p66
I00
sVtext
p67
VRT @NAIMiami: #McDonald's won't pursue #realestate investment trust https://t.co/LX3KViAb6r @MiamiHerald #REIT #REITs #alternativeinvestment
p68
sVin_reply_to_status_id
p69
Nsg46
L666240717786914819L
sVfavorite_count
p70
I0
sVsource
p71
V<a href="http://www.hootsuite.com" rel="nofollow">Hootsuite</a>
p72
sVretweeted
p73
I00
sVcoordinates
p74
Nsg54
(dp75
Vsymbols
p76
(lp77
sVuser_mentions
p78
(lp79
(dp80
g46
I203086054
sg29
(lp81
I3
aI12
asg58
V203086054
p82
sVscreen_name
p83
VNAIMiami
p84
sVname
p85
VNAI Miami
p86
sa(dp87
g46
I14085040
sg29
(lp88
I92
aI104
asg58
V14085040
p89
sg83
VMiamiHerald
p90
sg85
VMiami Herald
p91
sasVhashtags
p92
(lp93
(dp94
g29
(lp95
I14
aI23
asg67
VMcDonald
p96
sa(dp97
g29
(lp98
I39
aI50
asg67
Vrealestate
p99
sa(dp100
g29
(lp101
I105
aI110
asg67
VREIT
p102
sa(dp103
g29
(lp104
I111
aI117
asg67
VREITs
p105
sa(dp106
g29
(lp107
I118
aI140
asg67
Valternativeinvestment
p108
sasg25
(lp109
(dp110
g23
Vhttps://t.co/LX3KViAb6r
p111
sg29
(lp112
I68
aI91
asg31
Vhttp://ow.ly/Ux9eD
p113
sg33
Vow.ly/Ux9eD
p114
sassVin_reply_to_screen_name
p115
Nsg58
V666240717786914819
p116
sVretweet_count
p117
I0
sVin_reply_to_user_id
p118
NsVfavorited
p119
I00
sVgeo
p120
NsVin_reply_to_user_id_str
p121
NsVpossibly_sensitive
p122
I00
sVlang
p123
Ven
p124
sVcreated_at
p125
VMon Nov 16 13:05:39 +0000 2015
p126
sVin_reply_to_status_id_str
p127
NsVplace
p128
NssVis_translation_enabled
p129
I00
sVutc_offset
p130
I-28800
sVstatuses_count
p131
I627
sg35
VTweets about #AlternativeInvestments, #LiquidAlts, #HedgeFunds, #RealAssets.\u000a\u000aCheck out the other financial topics I cover on @BrianDColwell
p132
sVfriends_count
p133
I170
sVlocation
p134
VSan Diego, CA
p135
sVprofile_link_color
p136
V01302A
p137
sVprofile_image_url
p138
Vhttp://pbs.twimg.com/profile_images/645298519922728960/GLY-E6bE_normal.jpg
p139
sVfollowing
p140
NsVgeo_enabled
p141
I00
sVprofile_banner_url
p142
Vhttps://pbs.twimg.com/profile_banners/3617645112/1442685791
p143
sVprofile_background_image_url
p144
Vhttp://abs.twimg.com/images/themes/theme1/bg.png
p145
sg83
VBColwell_ALT
p146
sg123
Ven
p147
sVprofile_background_tile
p148
I00
sVfavourites_count
p149
I40
sg85
VBrian D Colwell
p150
sVnotifications
p151
Nsg23
Vhttps://t.co/fSaUwW4dCF
p152
sg125
VSat Sep 19 16:31:20 +0000 2015
p153
sVcontributors_enabled
p154
I00
sVtime_zone
p155
VPacific Time (US & Canada)
p156
sVprotected
p157
I00
sVdefault_profile
p158
I00
sVis_translator
p159
I00
ssS'contributors_enabled'
p160
I00
sS'profile_text_color'
p161
g51
sS'followers_count'
p162
I136
sS'profile_sidebar_border_color'
p163
g57
sS'id_str'
p164
g59
sS'default_profile_image'
p165
I00
sS'listed_count'
p166
I27
sS'status'
p167
g8
(ctweepy.models
Status
p168
g10
Ntp169
Rp170
(dp171
S'favorited'
p172
I00
sS'contributors'
p173
NsS'truncated'
p174
I00
sS'text'
p175
g68
sS'source_url'
p176
Vhttp://www.hootsuite.com
p177
sS'possibly_sensitive'
p178
I00
sS'in_reply_to_status_id'
p179
NsS'geo'
p180
Nsg19
L666240717786914819L
sS'favorite_count'
p181
I0
sS'lang'
p182
g124
sg21
g75
sS'created_at'
p183
cdatetime
datetime
p184
(S"\x07\xdf\x0b\x10\r\x05'\x00\x00\x00"
p185
tp186
Rp187
sg40
g64
sS'coordinates'
p188
NsS'in_reply_to_user_id_str'
p189
NsS'source'
p190
VHootsuite
p191
sS'in_reply_to_status_id_str'
p192
NsS'in_reply_to_screen_name'
p193
Nsg164
g116
sS'retweeted'
p194
I00
sS'place'
p195
NsS'retweet_count'
p196
I0
sS'in_reply_to_user_id'
p197
NsbsS'is_translation_enabled'
p198
I00
sS'utc_offset'
p199
I-28800
sS'statuses_count'
p200
I627
sS'description'
p201
VTweets about #AlternativeInvestments, #LiquidAlts, #HedgeFunds, #RealAssets.\u000a\u000aCheck out the other financial topics I cover on @BrianDColwell
p202
sS'friends_count'
p203
I170
sS'location'
p204
g135
sS'profile_link_color'
p205
g137
sS'profile_image_url'
p206
g139
sS'notifications'
p207
NsS'geo_enabled'
p208
I00
sS'profile_background_color'
p209
g61
sS'profile_banner_url'
p210
g143
sS'profile_background_image_url'
p211
g145
sS'screen_name'
p212
g146
sg182
g147
sg1
I00
sS'profile_background_tile'
p213
I00
sS'favourites_count'
p214
I40
sS'name'
p215
g150
sS'url'
p216
g152
sg183
g184
(S'\x07\xdf\t\x13\x10\x1f\x14\x00\x00\x00'
p217
tp218
Rp219
sS'profile_background_image_url_https'
p220
g48
sS'time_zone'
p221
g156
sS'protected'
p222
I00
sS'default_profile'
p223
I00
sS'is_translator'
p224
I00
sbs.