(dp0
S'following'
p1
(lp2
(lp3
I383095718
aI270253381
aI312585376
aI900544585
aI304222914
aI474359398
aI280260681
aL2942978628L
aI399266384
aI1408341811
aL2480168240L
aI1421379786
aI962639600
aI598331179
aL2149737589L
aI611941993
aI323216653
aI1204033711
aL2328524743L
aI193694345
aI270956213
aI20006549
aI59398768
aI17523060
aI21923874
aI407345942
aI284381441
aL2446147332L
aI583547325
aI176928549
aI272728263
aI342716046
aI95328979
aI310346894
aI46346573
aI48185960
aI339872087
aI18060854
aI37601149
aI96725696
aI117102398
aI130423131
aI153209413
aI253213737
aI295663598
aI409982140
aI565765982
aI133426260
aI164641843
aI311484713
aI321405013
aI322178659
aI364475415
aI383281916
aI401520924
aI472679174
aI478741217
aI620186949
aI730513393
aI889491175
aI1123128290
aI14900944
aI18988058
aI23584333
aI48476482
aI128308837
aI236842863
aI277920665
aI364930669
aI372755940
aI406004791
aI794511932
aI482133423
aI36481119
aI9530212
aL3315656750L
aI1124012821
aI298474140
aI83185208
aI75998625
aI190224295
aI166284293
aI29695330
aI257097577
aI1892357124
aI839086813
aI33388399
aI20708505
aI365101425
aI1072038426
aL2857882415L
aI376211514
aL3369580935L
aL3401130058L
aI78016136
aI316383161
aI719994642
aI303761868
aL2991952235L
aI612567018
aI618523751
aI131756189
aI304462648
aI107319380
aI220776068
aI579558064
aI113025021
aI221041703
aI22334183
aL2915260629L
aL3023997270L
aI23065897
aI287359260
aI39853973
aI1423517100
aI14764714
aI139002968
aI25715367
aI581812512
aI1485394590
aI273984004
aL2219124811L
aI368933080
aI1706907265
aI23629531
aI38021224
aI31515068
aI295828685
aI1858614476
aI30225180
aI54955991
aI1024510256
aI295793915
aI41921037
aI19348870
aI771809845
aI103978593
aI21045275
aI109197527
aI406255275
aL2485664089L
aI28619293
aI15174477
aI232215385
aI297535770
aL2751594014L
aI1539234025
aL2247268026L
aI849702962
aI1675457017
aL2267964218L
aL3118471677L
aI1099006638
aI1448128436
aI23745634
aI125341608
aI287398401
aI51540474
aL3303562877L
aI147662602
aL2812472208L
aI506956991
aI501635447
aI18210270
aI292403049
aI116733437
aI841909200
aI1169402982
aI859436857
aI69021389
aI716902513
aI64645393
aI271547230
aI830533616
aI88388216
aI467235566
aI26543881
aI244250460
aI456140834
aI462274812
aI132288724
aI374386176
aI81947660
aI264947241
aI300449911
aI1179521676
aL2830371145L
aI120207925
aL2748417222L
aI1924454515
aI15768312
aI299364430
aI457851160
aL3334936379L
aI545147045
aI259248007
aL2387607787L
aI1664553708
aI82471216
aL3225702809L
aI881960372
aI26286212
aI1673786814
aI377015047
aI250261842
aL3232146962L
aI462110621
aL3347834057L
aL2742736213L
aI42953038
aI26201472
aI40098752
aI61117687
aL3245484456L
aI211597825
aI56795767
aI52267567
aI21106613
aI986844104
aI8423572
aI1855841767
aI430556665
aI97334925
aI1928193530
aI949477549
aI22815781
aI317108595
aI33545237
aL2836936615L
aI1167073380
aI1210845686
aI172786205
aI567204395
aL2466951337L
aL3364634008L
aI58149181
aI52124477
aI331093507
aI723907362
aI36683668
aI100708381
aI113487858
aI16683014
aI17409452
aI312757790
aI1346626063
aI127625168
aL2637687036L
aI38947439
aL2839435462L
aI80268920
aI1911429468
aI338360814
aI570214599
aI48472244
aL2414541626L
aL2427554983L
aL2984735139L
aL2844490934L
aL2366922952L
aI208458217
aI871424353
aI1624966351
aI422711387
aI47303563
aI304016767
aI282573675
aI330467091
aI31713108
aI324977497
aI16301873
aL3040880860L
aI59222801
aI157261059
aI47976136
aI129009730
aI1134465295
aI57339160
aI135187648
aI39497080
aI552724650
aL2463714966L
aI24356047
aI342568761
aI462238790
aI1931231929
aI263089480
aL2167848011L
aL2259028105L
aI156791459
aL3072630633L
aI323370744
aI62849747
aI267408920
aI123232602
aI38465904
aL2847517364L
aasS'followers'
p4
(lp5
(lp6
L2851100686L
aL3427742327L
aL3197389723L
aI579558064
aL2686526684L
aL3271229221L
aL4184651200L
aI863527548
aI383095718
aI550132361
aL4117690780L
aI270253381
aL2446147332L
aI63135089
aI124419997
aI270956213
aI59398768
aL4031841489L
aI342716046
aI176928549
aL4173956015L
aI19343423
aI196945564
aI87710468
aL3395399572L
aI389073053
aI339872087
aI95328979
aI35486742
aL4172160682L
aI75918423
aL3260684084L
aL3317102411L
aL2927166203L
aI38194101
aL4144560793L
aI15812297
aI99147325
aL2397307442L
aI482133423
aI1892357124
aL3196281412L
aL3315656750L
aI238308510
aI25712530
aL2182036287L
aL2675906504L
aI75998625
aI83185208
aI365101425
aI20708505
aL3401130058L
aL3369580935L
aL3620142076L
aI376211514
aL2857882415L
aI1072038426
aI23065897
aI612567018
aL2991952235L
aI1714877574
aI618523751
aI220776068
aL3172313866L
aI304462648
aI303761868
aL4105536555L
aL2282482214L
aI131756189
aI287359260
aL4074029889L
aI299596804
aI92497360
aL4063856595L
aI61703186
aL3023997270L
aL2915260629L
aI1407105276
aI22334183
aL3299215367L
aL2247268026L
aI849702962
aI1374751016
aL4078203016L
aL2751594014L
aI1268182824
aI1448128436
aI1099006638
aL3118471677L
aI859436857
aI287398401
aI23745634
aI147662602
aI125341608
aI140356010
aL4070524393L
aL3039577367L
aL2829560422L
aI830533616
aI331844869
aI26543881
aI146477610
aI316383161
aI27246497
aI81947660
aI378506314
aI361708006
aI434947170
aI17506774
aI137066152
aL2830371145L
aI871424353
aI120207925
aL2748417222L
aI15768312
aL3334936379L
aI457851160
aL3489209536L
aI569176608
aI1131607668
aL3843628781L
aI545147045
aI338360814
aL2387607787L
aL3353156898L
aL3611058016L
aI1664553708
aL3954061108L
aI42953038
aI82471216
aL3225702809L
aI881960372
aL3345178389L
aI1673786814
aI377015047
aI384325802
aI485417574
aI159840121
aI328964645
aL3322899357L
aI250261842
aI1205855978
aI462110621
aL3347834057L
aL3084943006L
aL3232146962L
aI8423572
aI211597825
aI26201472
aL2742736213L
aI1928193530
aI97334925
aI949477549
aI942072120
aI22815781
aI317108595
aL2836936615L
aI1167073380
aI1210845686
aI1931231929
aI172786205
aL3364634008L
aI58149181
aI52124477
aL2984627421L
aI570214599
aI48472244
aL2500100346L
aL2427554983L
aL2414541626L
aL2984735139L
aL2844490934L
aL3072630633L
aL2259028105L
aL2847517364L
aL3244415634L
aasS'obj'
p7
ccopy_reg
_reconstructor
p8
(ctweepy.models
User
p9
c__builtin__
object
p10
Ntp11
Rp12
(dp13
S'follow_request_sent'
p14
NsS'has_extended_profile'
p15
I00
sS'profile_use_background_image'
p16
I00
sS'profile_sidebar_fill_color'
p17
V000000
p18
sS'id'
p19
L3617577320L
sS'verified'
p20
I00
sS'entities'
p21
(dp22
Vurl
p23
(dp24
Vurls
p25
(lp26
(dp27
g23
Vhttps://t.co/snyA0J1RbX
p28
sVindices
p29
(lp30
I0
aI23
asVexpanded_url
p31
Vhttp://briandcolwell.com/emerging-frontier-markets
p32
sVdisplay_url
p33
Vbriandcolwell.com/emerging-front\u2026
p34
sassVdescription
p35
(dp36
g25
(lp37
sssS'profile_image_url_https'
p38
Vhttps://pbs.twimg.com/profile_images/645283472941056000/2TpNeKFD_normal.jpg
p39
sS'_json'
p40
(dp41
Vfollow_request_sent
p42
NsVhas_extended_profile
p43
I00
sVprofile_use_background_image
p44
I00
sVdefault_profile_image
p45
I00
sVid
p46
L3617577320L
sVprofile_background_image_url_https
p47
Vhttps://abs.twimg.com/images/themes/theme1/bg.png
p48
sVverified
p49
I00
sVprofile_text_color
p50
V000000
p51
sVprofile_image_url_https
p52
g39
sVprofile_sidebar_fill_color
p53
g18
sVentities
p54
g22
sVfollowers_count
p55
I176
sVprofile_sidebar_border_color
p56
V000000
p57
sVid_str
p58
V3617577320
p59
sVprofile_background_color
p60
V000000
p61
sVlisted_count
p62
I16
sVstatus
p63
(dp64
Vcontributors
p65
NsVtruncated
p66
I00
sVtext
p67
V#China Oct data: Retail Sale 11% y/y, FAI 10.2% ytd/y, Industrial production 5.6% y/y @Callum_Thomas @jmrenero https://t.co/U5WUoqF4pQ #asia
p68
sVin_reply_to_status_id
p69
Nsg46
L666302546059792384L
sVfavorite_count
p70
I0
sVsource
p71
V<a href="http://www.hootsuite.com" rel="nofollow">Hootsuite</a>
p72
sVretweeted
p73
I00
sVcoordinates
p74
Nsg54
(dp75
Vsymbols
p76
(lp77
sVuser_mentions
p78
(lp79
(dp80
g46
I37065910
sg29
(lp81
I86
aI100
asg58
V37065910
p82
sVscreen_name
p83
VCallum_Thomas
p84
sVname
p85
VCallum Thomas
p86
sa(dp87
g46
I729282049
sg29
(lp88
I101
aI110
asg58
V729282049
p89
sg83
Vjmrenero
p90
sg85
VJuan-Manuel Renero
p91
sasVhashtags
p92
(lp93
(dp94
g29
(lp95
I0
aI6
asg67
VChina
p96
sa(dp97
g29
(lp98
I135
aI140
asg67
Vasia
p99
sasg25
(lp100
sVmedia
p101
(lp102
(dp103
Vsource_user_id
p104
I729282049
sVsource_status_id_str
p105
V664440012973314048
p106
sg31
Vhttp://twitter.com/jmrenero/status/664440012973314048/photo/1
p107
sg33
Vpic.twitter.com/U5WUoqF4pQ
p108
sg23
Vhttps://t.co/U5WUoqF4pQ
p109
sVmedia_url_https
p110
Vhttps://pbs.twimg.com/media/CTiQq7PUkAAIZTv.png
p111
sVsource_user_id_str
p112
V729282049
p113
sVsource_status_id
p114
L664440012973314048L
sg58
V664440012168007680
p115
sVsizes
p116
(dp117
Vlarge
p118
(dp119
Vh
p120
I311
sVresize
p121
Vfit
p122
sVw
p123
I410
ssVsmall
p124
(dp125
g120
I257
sg121
Vfit
p126
sg123
I340
ssVmedium
p127
(dp128
g120
I311
sg121
Vfit
p129
sg123
I410
ssVthumb
p130
(dp131
g120
I150
sg121
Vcrop
p132
sg123
I150
sssg29
(lp133
I111
aI134
asVtype
p134
Vphoto
p135
sg46
L664440012168007680L
sVmedia_url
p136
Vhttp://pbs.twimg.com/media/CTiQq7PUkAAIZTv.png
p137
sassVin_reply_to_screen_name
p138
Nsg58
V666302546059792384
p139
sVretweet_count
p140
I0
sVin_reply_to_user_id
p141
NsVfavorited
p142
I00
sVgeo
p143
NsVin_reply_to_user_id_str
p144
NsVpossibly_sensitive
p145
I00
sVlang
p146
Vfr
p147
sVcreated_at
p148
VMon Nov 16 17:11:20 +0000 2015
p149
sVin_reply_to_status_id_str
p150
NsVplace
p151
NssVis_translation_enabled
p152
I00
sVutc_offset
p153
NsVstatuses_count
p154
I1153
sg35
VTweets about #EmergingMarkets and #FrontierMarkets with a special focus on #Africa. \u000a\u000aCheck out the other financial topics I cover on @BrianDColwell
p155
sVfriends_count
p156
I297
sVlocation
p157
VSan Diego, CA
p158
sVprofile_link_color
p159
V146580
p160
sVprofile_image_url
p161
Vhttp://pbs.twimg.com/profile_images/645283472941056000/2TpNeKFD_normal.jpg
p162
sVfollowing
p163
NsVgeo_enabled
p164
I00
sVprofile_banner_url
p165
Vhttps://pbs.twimg.com/profile_banners/3617577320/1442682184
p166
sVprofile_background_image_url
p167
Vhttp://abs.twimg.com/images/themes/theme1/bg.png
p168
sg83
VBColwell_EMGMKT
p169
sg146
Ven
p170
sVprofile_background_tile
p171
I00
sVfavourites_count
p172
I65
sg85
VBrian D. Colwell
p173
sVnotifications
p174
Nsg23
Vhttps://t.co/snyA0J1RbX
p175
sg148
VSat Sep 19 16:11:59 +0000 2015
p176
sVcontributors_enabled
p177
I00
sVtime_zone
p178
NsVprotected
p179
I00
sVdefault_profile
p180
I00
sVis_translator
p181
I00
ssS'contributors_enabled'
p182
I00
sS'profile_text_color'
p183
g51
sS'followers_count'
p184
I176
sS'profile_sidebar_border_color'
p185
g57
sS'id_str'
p186
g59
sS'default_profile_image'
p187
I00
sS'listed_count'
p188
I16
sS'status'
p189
g8
(ctweepy.models
Status
p190
g10
Ntp191
Rp192
(dp193
S'favorited'
p194
I00
sS'contributors'
p195
NsS'truncated'
p196
I00
sS'text'
p197
g68
sS'source_url'
p198
Vhttp://www.hootsuite.com
p199
sS'possibly_sensitive'
p200
I00
sS'in_reply_to_status_id'
p201
NsS'geo'
p202
Nsg19
L666302546059792384L
sS'favorite_count'
p203
I0
sS'lang'
p204
g147
sg21
g75
sS'created_at'
p205
cdatetime
datetime
p206
(S'\x07\xdf\x0b\x10\x11\x0b\x14\x00\x00\x00'
p207
tp208
Rp209
sg40
g64
sS'coordinates'
p210
NsS'in_reply_to_user_id_str'
p211
NsS'source'
p212
VHootsuite
p213
sS'in_reply_to_status_id_str'
p214
NsS'in_reply_to_screen_name'
p215
Nsg186
g139
sS'retweeted'
p216
I00
sS'place'
p217
NsS'retweet_count'
p218
I0
sS'in_reply_to_user_id'
p219
NsbsS'is_translation_enabled'
p220
I00
sS'utc_offset'
p221
NsS'statuses_count'
p222
I1153
sS'description'
p223
VTweets about #EmergingMarkets and #FrontierMarkets with a special focus on #Africa. \u000a\u000aCheck out the other financial topics I cover on @BrianDColwell
p224
sS'friends_count'
p225
I297
sS'location'
p226
g158
sS'profile_link_color'
p227
g160
sS'profile_image_url'
p228
g162
sS'notifications'
p229
NsS'geo_enabled'
p230
I00
sS'profile_background_color'
p231
g61
sS'profile_banner_url'
p232
g166
sS'profile_background_image_url'
p233
g168
sS'screen_name'
p234
g169
sg204
g170
sg1
I00
sS'profile_background_tile'
p235
I00
sS'favourites_count'
p236
I65
sS'name'
p237
g173
sS'url'
p238
g175
sg205
g206
(S'\x07\xdf\t\x13\x10\x0b;\x00\x00\x00'
p239
tp240
Rp241
sS'profile_background_image_url_https'
p242
g48
sS'time_zone'
p243
NsS'protected'
p244
I00
sS'default_profile'
p245
I00
sS'is_translator'
p246
I00
sbs.