(dp0
S'following'
p1
(lp2
(lp3
I1705766478
aL2352562980L
aL3315134870L
aL2308598342L
aI428653913
aL3082904350L
aL2203436131L
aL2513339424L
aI26705006
aI1279746739
aL2286097290L
aI55395551
aI466333756
aI264370502
aI289556231
aL3154923455L
aI545618159
aI84365116
aI55354528
aI266799789
aI334906414
aI14633485
aI375980238
aI231388808
aL2361661062L
aL2650413864L
aI1526285174
aI83992846
aI239617795
aL2607477037L
aI103550181
aL3042173895L
aL3420442818L
aI125752943
aI253167239
aI18639734
aI21323268
aI253168011
aI397610743
aI254098644
aL3278423881L
aL3946770635L
aI266134103
aL2797722712L
aI1833020461
aI14802885
aI103087049
aI15281391
aI624413
aI91478624
aI19546277
aI16451932
aI14216123
aI26574283
aI354948782
aI21778391
aI39853973
aI271211220
aI39264827
aI263197731
aI61292961
aL3063418949L
aL3489736273L
aL3346088079L
aI269505975
aL3049216190L
aI19739279
aI1393603976
aI533529603
aI233704756
aI583938358
aI138182116
aI39879120
aI25709609
aI183279521
aL2197078218L
aI110793585
aI517392967
aI222177693
aI759251
aI350169856
aL3420574769L
aI860252845
aL3242840227L
aI114130193
aI232120274
aL3509753654L
aI119161370
aL2972555345L
aI1530916794
aL2945959759L
aI1966253173
aI273984441
aL3135493823L
aL3432838535L
aL2409330439L
aI20707966
aI116429402
aL2334614718L
aI96682182
aL2746667072L
aI17497085
aL3375905733L
aL3346438133L
aI20031601
aI3108351
aL3388385957L
aI25073877
aI19988458
aI34837057
aI56413858
aI5988062
aI30043148
aL2987394058L
aI16816021
aI1364930179
aI317373303
aI23125257
aI246444102
aI326315947
aI144274618
aI16732770
aI31546412
aI7455352
aI70498392
aI45415894
aI254207829
aL2159322464L
aI140236482
aI495196813
aI1475988331
aL2231913055L
aL2544278864L
aI28588306
aI30359797
aL2704486915L
aL2462874699L
aL2426245616L
aI237591901
aL2149877280L
aL2425391863L
aI40099128
aI51912109
aI15130891
aL2832135288L
aL3108417284L
aL2394624246L
aI27652717
aL2445459474L
aI1375860338
aI93294948
aI475524030
aI983655260
aL2906862160L
aI627765164
aI397230151
aI201891203
aI101329036
aL2157355981L
aL2786541083L
aI176168308
aL3434346681L
aL3776036001L
aL3039818766L
aL3835766175L
aI84402174
aL2804263123L
aI14115408
aI102819479
aI147409568
aI119372054
aI1347071545
aI140912249
aI227070376
aI106498703
aI404422077
aI1141627460
aI611817117
aI106504911
aI16004376
aL3091473064L
aL3692034315L
aI17549691
aI52166809
aI23390520
aI805230144
aL2161913370L
aI62576224
aI62566252
aI49519788
aI61342056
aI62562916
aI394642779
aI66975479
aL2967229294L
aL3064653773L
aL3658480336L
aI133056605
aI14297693
aI208155240
aI788333744
aL2607601184L
aI114782468
aI11247222
aI47678782
aI14886375
aI14292717
aI373102216
aI498166332
aL2565429648L
aasS'followers'
p4
(lp5
(lp6
I18578905
aL3439298740L
aI1889266880
aL3984300018L
aL4157415958L
aI1705766478
aL3133432960L
aL3430462899L
aI486494732
aI300709127
aL2516029806L
aI367662868
aL2551992944L
aI1580054960
aL3315134870L
aL2308598342L
aL2713725350L
aL3082904350L
aI1923947209
aI48233377
aL3058848324L
aL2203436131L
aL3318819343L
aL3405443625L
aL3414592213L
aL2513339424L
aL3978456125L
aI611817117
aI112696718
aL3871379953L
aI26705006
aI1279746739
aL4032322725L
aI55395551
aL2890616938L
aL3154923455L
aL2341525668L
aL3947333397L
aI231388808
aI239617795
aL3654727816L
aL2254160856L
aI1183755601
aL2361661062L
aI15897179
aI21391703
aL3420442818L
aL3075079049L
aI48797303
aI358750258
aI104531614
aL3489736273L
aI1325091271
aL4024871747L
aL2461128220L
aI269505975
aI45415894
aI517392967
aL2426245616L
aL3278423881L
aI1040437730
aI1102478563
aI1030646029
aL3317455016L
aL4021386569L
aI860252845
aL3242840227L
aL3986442837L
aL3420574769L
aL2159322464L
aL3982566795L
aL3210776242L
aL3334692641L
aL2495688343L
aL3146933385L
aL3128522824L
aI88294437
aI174953869
aI995172852
aL3063301232L
aL2433301411L
aI100767876
aI251529914
aL3322376461L
aL3836922554L
aI1951893625
aL3120592708L
aL2987394058L
aL3460239046L
aL3384754253L
aL2313346898L
aI995324587
aL2445459474L
aI1375860338
aL2571110593L
aL2394624246L
aI93294948
aI826199695
aI497094379
aL2704486915L
aL3108417284L
aI627765164
aL2906862160L
aI1684287974
aI526601733
aL2786541083L
aL3827061969L
aL3039818766L
aL3835766175L
aL2804263123L
aL3776036001L
aL2967229294L
aL3658480336L
aI140236482
aI788333744
aL2607601184L
aasS'obj'
p7
ccopy_reg
_reconstructor
p8
(ctweepy.models
User
p9
c__builtin__
object
p10
Ntp11
Rp12
(dp13
S'follow_request_sent'
p14
I00
sS'has_extended_profile'
p15
I00
sS'profile_use_background_image'
p16
I01
sS'profile_sidebar_fill_color'
p17
VDDEEF6
p18
sS'id'
p19
L3650520912L
sS'verified'
p20
I00
sS'entities'
p21
(dp22
Vdescription
p23
(dp24
Vurls
p25
(lp26
sssS'profile_image_url_https'
p27
Vhttps://pbs.twimg.com/profile_images/656660126196109312/2fB5KJkR_normal.jpg
p28
sS'_json'
p29
(dp30
Vfollow_request_sent
p31
I00
sVhas_extended_profile
p32
I00
sVprofile_use_background_image
p33
I01
sVdefault_profile_image
p34
I00
sVid
p35
L3650520912L
sVprofile_background_image_url_https
p36
Vhttps://abs.twimg.com/images/themes/theme1/bg.png
p37
sVverified
p38
I00
sVprofile_text_color
p39
V333333
p40
sVprofile_image_url_https
p41
g28
sVprofile_sidebar_fill_color
p42
g18
sVentities
p43
g22
sVfollowers_count
p44
I116
sVprofile_sidebar_border_color
p45
VC0DEED
p46
sVid_str
p47
V3650520912
p48
sVprofile_background_color
p49
VC0DEED
p50
sVlisted_count
p51
I8
sVstatus
p52
(dp53
Vcontributors
p54
NsVtruncated
p55
I00
sVtext
p56
VRT @barrymohan81: Watch $VRX tomorrow. I like the base here. #ICEMAN
p57
sVin_reply_to_status_id
p58
Nsg35
L666099131354484736L
sVfavorite_count
p59
I0
sVsource
p60
V<a href="http://twitter.com/#!/download/ipad" rel="nofollow">Twitter for iPad</a>
p61
sVretweeted
p62
I00
sVcoordinates
p63
Nsg43
(dp64
Vsymbols
p65
(lp66
(dp67
Vindices
p68
(lp69
I24
aI28
asg56
VVRX
p70
sasVuser_mentions
p71
(lp72
(dp73
g35
L2186813068L
sg68
(lp74
I3
aI16
asg47
V2186813068
p75
sVscreen_name
p76
Vbarrymohan81
p77
sVname
p78
VBarry M
p79
sasVhashtags
p80
(lp81
(dp82
g68
(lp83
I61
aI68
asg56
VICEMAN
p84
sasg25
(lp85
ssVin_reply_to_screen_name
p86
Nsg47
V666099131354484736
p87
sVretweet_count
p88
I1
sVin_reply_to_user_id
p89
NsVfavorited
p90
I00
sVretweeted_status
p91
(dp92
Vlang
p93
Ven
p94
sg90
I00
sg43
(dp95
g65
(lp96
(dp97
g68
(lp98
I6
aI10
asg56
VVRX
p99
sasg71
(lp100
sg80
(lp101
(dp102
g68
(lp103
I43
aI50
asg56
VICEMAN
p104
sasg25
(lp105
ssg54
Nsg55
I00
sg56
VWatch $VRX tomorrow. I like the base here. #ICEMAN
p106
sVcreated_at
p107
VMon Nov 16 03:28:30 +0000 2015
p108
sg62
I00
sVin_reply_to_status_id_str
p109
Nsg63
NsVin_reply_to_user_id_str
p110
Nsg60
V<a href="http://twitter.com/download/iphone" rel="nofollow">Twitter for iPhone</a>
p111
sg58
Nsg86
Nsg47
V666095470905790464
p112
sVplace
p113
Nsg88
I1
sVgeo
p114
Nsg35
L666095470905790464L
sg59
I0
sg89
Nssg114
Nsg110
Nsg93
Ven
p115
sg107
VMon Nov 16 03:43:03 +0000 2015
p116
sg109
Nsg113
NssVis_translation_enabled
p117
I00
sVutc_offset
p118
NsVstatuses_count
p119
I297
sg23
VDaytrader--informational ONLY - not investment advice
p120
sVfriends_count
p121
I210
sVlocation
p122
VTexas
p123
sVprofile_link_color
p124
V0084B4
p125
sVprofile_image_url
p126
Vhttp://pbs.twimg.com/profile_images/656660126196109312/2fB5KJkR_normal.jpg
p127
sVfollowing
p128
I00
sVgeo_enabled
p129
I00
sVprofile_banner_url
p130
Vhttps://pbs.twimg.com/profile_banners/3650520912/1445581322
p131
sVprofile_background_image_url
p132
Vhttp://abs.twimg.com/images/themes/theme1/bg.png
p133
sg76
VDaytrader915
p134
sg93
Ven
p135
sVprofile_background_tile
p136
I00
sVfavourites_count
p137
I359
sg78
VAlejandro
p138
sVnotifications
p139
I00
sVurl
p140
Nsg107
VTue Sep 22 16:53:01 +0000 2015
p141
sVcontributors_enabled
p142
I00
sVtime_zone
p143
NsVprotected
p144
I00
sVdefault_profile
p145
I01
sVis_translator
p146
I00
ssS'contributors_enabled'
p147
I00
sS'profile_text_color'
p148
g40
sS'followers_count'
p149
I116
sS'profile_sidebar_border_color'
p150
g46
sS'id_str'
p151
g48
sS'default_profile_image'
p152
I00
sS'listed_count'
p153
I8
sS'status'
p154
g8
(ctweepy.models
Status
p155
g10
Ntp156
Rp157
(dp158
S'favorited'
p159
I00
sS'contributors'
p160
NsS'truncated'
p161
I00
sS'text'
p162
g57
sS'source_url'
p163
Vhttp://twitter.com/#!/download/ipad
p164
sS'in_reply_to_status_id'
p165
NsS'geo'
p166
Nsg19
L666099131354484736L
sS'favorite_count'
p167
I0
sS'lang'
p168
g115
sS'retweeted_status'
p169
g8
(g155
g10
Ntp170
Rp171
(dp172
g159
I00
sg160
Nsg161
I00
sg162
g106
sg163
Vhttp://twitter.com/download/iphone
p173
sg165
Nsg166
Nsg19
L666095470905790464L
sg167
I0
sg168
g94
sg21
g95
sS'created_at'
p174
cdatetime
datetime
p175
(S'\x07\xdf\x0b\x10\x03\x1c\x1e\x00\x00\x00'
p176
tp177
Rp178
sg29
g92
sS'coordinates'
p179
NsS'in_reply_to_user_id_str'
p180
NsS'source'
p181
VTwitter for iPhone
p182
sS'in_reply_to_status_id_str'
p183
NsS'in_reply_to_screen_name'
p184
Nsg151
g112
sS'retweeted'
p185
I00
sS'place'
p186
NsS'retweet_count'
p187
I1
sS'in_reply_to_user_id'
p188
Nsbsg21
g64
sg174
g175
(S'\x07\xdf\x0b\x10\x03+\x03\x00\x00\x00'
p189
tp190
Rp191
sg29
g53
sg179
Nsg180
Nsg181
VTwitter for iPad
p192
sg183
Nsg184
Nsg151
g87
sg185
I00
sg186
Nsg187
I1
sg188
NsbsS'is_translation_enabled'
p193
I00
sS'utc_offset'
p194
NsS'statuses_count'
p195
I297
sS'description'
p196
g120
sS'friends_count'
p197
I210
sS'location'
p198
g123
sS'profile_link_color'
p199
g125
sS'profile_image_url'
p200
g127
sS'notifications'
p201
I00
sS'geo_enabled'
p202
I00
sS'profile_background_color'
p203
g50
sS'profile_banner_url'
p204
g131
sS'profile_background_image_url'
p205
g133
sS'screen_name'
p206
g134
sg168
g135
sg1
I00
sS'profile_background_tile'
p207
I00
sS'favourites_count'
p208
I359
sS'name'
p209
g138
sS'url'
p210
Nsg174
g175
(S'\x07\xdf\t\x16\x105\x01\x00\x00\x00'
p211
tp212
Rp213
sS'profile_background_image_url_https'
p214
g37
sS'time_zone'
p215
NsS'protected'
p216
I00
sS'default_profile'
p217
I01
sS'is_translator'
p218
I00
sbs.