(dp0
S'following'
p1
(lp2
(lp3
I18396319
aI166612219
aI6786232
aI374395761
aI331614004
aI81075524
aL3154923455L
aI582390700
aL3436521372L
aI24410456
aI87591850
aL2409698425L
aI51689310
aI1953986233
aI20636215
aI34713362
aI475524030
aL2916305152L
aL2244895407L
aI412611622
aI127967449
aI730400376
aI843706801
aI93295809
aI244248703
aI10739112
aI63202368
aI316402194
aI19651092
aI124585235
aI30043148
aL2362504830L
aI83466368
aI337180581
aI32736252
aI34671618
aI21232827
aI21669980
aI496997835
aL2258061974L
aL2220183580L
aI41330603
aL2727199203L
aI25827743
aI1536791610
aI151930383
aI21810329
aI294099751
aI581351672
aI59393368
aI44411598
aI70960617
aI1487173322
aI484663513
aI507152530
aI79233326
aI47973374
aI375708293
aI19017675
aI70696481
aI407345942
aL2421073909L
aI1935609325
aI410070653
aL2292454922L
aI211699719
aI207441433
aL2977900810L
aI923263237
aI106323953
aI339899091
aI138717046
aI189722689
aI36048614
aI182284285
aI347464978
aI520503237
aI265245056
aI566637308
aI19811190
aI704799026
aI279642533
aI56436270
aI178609825
aL2815096300L
aI259288589
aI326745108
aI65681636
aI318666070
aI30857540
aI21879024
aI164326175
aI51205137
aI609548724
aI78265339
aI18991439
aI69620713
aI50033610
aI487118986
aI36777600
aI40129171
aI73058561
aI85617701
aI494422305
aI255199842
aI22026851
aL2334614718L
aI487063518
aI14096763
aI1960825746
aL2371458720L
aI172323296
aI42589787
aI21232428
aI56562803
aI21304029
aI69002929
aI38879127
aI1567883149
aI124690469
aI602938455
aI473451684
aI55354528
aI61762271
aI50480074
aL2148020647L
aI65466158
aI428140124
aI219054801
aI197869772
aI1856512344
aI381289719
aI24657356
aI466333756
aI55308734
aI438635797
aI22867489
aI129307017
aI18871874
aI17399040
aI38476367
aI898301664
aI338330795
aL2785148903L
aI28571999
aL2453385626L
aI25255663
aI232503690
aI17695167
aI1413027896
aI128616566
aI71975446
aI84365116
aI378208943
aI385313651
aI773531245
aI1001813990
aI352443434
aI544126975
aI38170599
aI235082515
aI186136458
aI40471897
aI22799257
aI455824771
aI18329181
aI29010710
aI127814172
aI207083993
aI189180763
aI20825522
aI1419231625
aI11702292
aI23808551
aI90275200
aI90999438
aI120099533
aI21354868
aI349816997
aI243318995
aI790309974
aI36041084
aI47621568
aI59805168
aI377561587
aI588081305
aI437507685
aI88952849
aI1704794828
aI118331219
aI332617373
aI449588356
aI930541790
aL2369417438L
aI1329243757
aI124841206
aI348345136
aI1041796952
aI160298969
aI1122358075
aI14935349
aI297380894
aI516419614
aI488080242
aI562406073
aI118198208
aI50269720
aI1228505299
aI67345697
aI267146130
aI17919393
aI511761774
aI553721053
aI27707080
aI27869848
aI714051110
aI347736686
aI288980311
aI30840386
aI288909699
aI21181806
aI17473062
aI15246621
aI22193361
aI65322179
aI18585538
aI68537333
aI22522178
aI397489668
aI52166809
aI440164765
aI24656325
aI17514954
aI472079320
aI18502842
aI34762845
aI424088195
aI17880354
aI202915788
aI97334517
aI58363
aI576240973
aI8442372
aI231401935
aI302545862
aI29203223
aI457824344
aI378334234
aI559802746
aI408659976
aI22905734
aI568924984
aI19988458
aI553822388
aI111984730
aI871755727
aI387158245
aI540073015
aI586407717
aI50501751
aI77528520
aI564038547
aI5831802
aI446160487
aI197756099
aI833026334
aI14886375
aI53091480
aI98439400
aI61342056
aI54330245
aI196721271
aI17799120
aI19138428
aI372460791
aI264996175
aI414268101
aI106725205
aI62562916
aI39879120
aI57268394
aI411803607
aI373502780
aI40909981
aI110539278
aI37284991
aI50206233
aI163538563
aI392739061
aI25163231
aI263440231
aI337070686
aI355172912
aI344423171
aI273538988
aI25356141
aI316462911
aI40140781
aI271211220
aI577441185
aI408422581
aI23484039
aI96783215
aI166131787
aI36367130
aI16373878
aI44060322
aI397041712
aI389551062
aI121902355
aI212168621
aI42674601
aI400066174
aI211951561
aI21183938
aI316485110
aI169864145
aI350958562
aI143096906
aI23074277
aI26223938
aI281390741
aI327484803
aI84402174
aI122089763
aI21810002
aI14465640
aI161666429
aI14751476
aI18856867
aasS'followers'
p4
(lp5
(lp6
I268285182
aL2860845668L
aI1583359764
aL2890616938L
aI1870084250
aI19851745
aL3947918553L
aL3946564281L
aL3154923455L
aI1183838114
aI121473195
aL2362504830L
aI316607970
aI199358027
aL3094935472L
aI872122615
aI127967449
aL3608808733L
aL3370343463L
aI20067997
aI446266346
aI713429732
aL3341675962L
aL2466169200L
aL3239762876L
aL2594296854L
aI265245056
aI1561733706
aI704799026
aI462370633
aL3073478049L
aI1444614408
aI333424986
aL3065083689L
aI303531344
aL2922115476L
aI14886375
aI611817117
aI346255213
aI308328105
aI1909758506
aL2332137835L
aI437507685
aL2832962430L
aI288222783
aI120099533
aI21354868
aI389660646
aL2257654620L
aL2378278153L
aI197756099
aI1329243757
aI457824344
aL2278200499L
aI1510129508
aI336984318
aI59595677
aI110527420
aI974438245
aI571588370
aI948070340
aI944550708
aI913097682
aI902285342
aI891407190
aI889758270
aI1245699895
aI440164765
aI387158245
aI369380219
aI430146541
aI329546374
aI476035071
aI77528520
aI326948387
aI98439400
aI21958792
aI252688800
aI569211600
aI454482427
aI564901500
aI90480482
aasS'obj'
p7
ccopy_reg
_reconstructor
p8
(ctweepy.models
User
p9
c__builtin__
object
p10
Ntp11
Rp12
(dp13
S'follow_request_sent'
p14
NsS'has_extended_profile'
p15
I00
sS'profile_use_background_image'
p16
I01
sS'profile_sidebar_fill_color'
p17
VDDEEF6
p18
sS'id'
p19
I367842499
sS'verified'
p20
I00
sS'entities'
p21
(dp22
Vdescription
p23
(dp24
Vurls
p25
(lp26
sssS'profile_image_url_https'
p27
Vhttps://abs.twimg.com/sticky/default_profile_images/default_profile_3_normal.png
p28
sS'_json'
p29
(dp30
Vfollow_request_sent
p31
NsVhas_extended_profile
p32
I00
sVprofile_use_background_image
p33
I01
sVdefault_profile_image
p34
I01
sVid
p35
I367842499
sVprofile_background_image_url_https
p36
Vhttps://abs.twimg.com/images/themes/theme1/bg.png
p37
sVverified
p38
I00
sVprofile_text_color
p39
V333333
p40
sVprofile_image_url_https
p41
g28
sVprofile_sidebar_fill_color
p42
g18
sVentities
p43
g22
sVfollowers_count
p44
I82
sVprofile_sidebar_border_color
p45
VC0DEED
p46
sVid_str
p47
V367842499
p48
sVprofile_background_color
p49
VC0DEED
p50
sVlisted_count
p51
I18
sVstatus
p52
(dp53
Vcontributors
p54
NsVtruncated
p55
I00
sVtext
p56
VRT @DougKass: Great read on buybacks\u000ahttps://t.co/AOzfXTBgbb
p57
sVin_reply_to_status_id
p58
Nsg35
L666304446171897856L
sVfavorite_count
p59
I0
sVsource
p60
V<a href="http://twitter.com/download/android" rel="nofollow">Twitter for Android</a>
p61
sVretweeted
p62
I00
sVcoordinates
p63
Nsg43
(dp64
Vsymbols
p65
(lp66
sVuser_mentions
p67
(lp68
(dp69
g35
I19988458
sVindices
p70
(lp71
I3
aI12
asg47
V19988458
p72
sVscreen_name
p73
VDougKass
p74
sVname
p75
VDouglas Kass
p76
sasVhashtags
p77
(lp78
sg25
(lp79
(dp80
Vurl
p81
Vhttps://t.co/AOzfXTBgbb
p82
sg70
(lp83
I37
aI60
asVexpanded_url
p84
Vhttp://www.reuters.com/investigates/special-report/usa-buybacks-cannibalized/
p85
sVdisplay_url
p86
Vreuters.com/investigates/s\u2026
p87
sassVin_reply_to_screen_name
p88
Nsg47
V666304446171897856
p89
sVretweet_count
p90
I4
sVin_reply_to_user_id
p91
NsVfavorited
p92
I00
sVretweeted_status
p93
(dp94
g54
Nsg55
I00
sg56
VGreat read on buybacks\u000ahttps://t.co/AOzfXTBgbb
p95
sg58
Nsg35
L666303712806232066L
sg59
I11
sg60
V<a href="https://about.twitter.com/products/tweetdeck" rel="nofollow">TweetDeck</a>
p96
sg62
I00
sg63
Nsg43
(dp97
g65
(lp98
sg67
(lp99
sg77
(lp100
sg25
(lp101
(dp102
g81
Vhttps://t.co/AOzfXTBgbb
p103
sg70
(lp104
I23
aI46
asg84
Vhttp://www.reuters.com/investigates/special-report/usa-buybacks-cannibalized/
p105
sg86
Vreuters.com/investigates/s\u2026
p106
sassg88
Nsg47
V666303712806232066
p107
sg90
I4
sg91
Nsg92
I00
sVgeo
p108
NsVin_reply_to_user_id_str
p109
NsVpossibly_sensitive
p110
I00
sVlang
p111
Ven
p112
sVcreated_at
p113
VMon Nov 16 17:15:59 +0000 2015
p114
sVin_reply_to_status_id_str
p115
NsVplace
p116
Nssg108
Nsg109
Nsg110
I00
sg111
Ven
p117
sg113
VMon Nov 16 17:18:53 +0000 2015
p118
sg115
Nsg116
NssVis_translation_enabled
p119
I00
sVutc_offset
p120
I7200
sVstatuses_count
p121
I7685
sg23
Vfrench trader : stocks/commodities/forex/bonds
p122
sVfriends_count
p123
I330
sVlocation
p124
VParis
p125
sVprofile_link_color
p126
V0084B4
p127
sVprofile_image_url
p128
Vhttp://abs.twimg.com/sticky/default_profile_images/default_profile_3_normal.png
p129
sVfollowing
p130
NsVgeo_enabled
p131
I00
sVprofile_background_image_url
p132
Vhttp://abs.twimg.com/images/themes/theme1/bg.png
p133
sg73
Vtraderedge74
p134
sg111
Vfr
p135
sVprofile_background_tile
p136
I00
sVfavourites_count
p137
I713
sg75
VEdouard
p138
sVnotifications
p139
Nsg81
Nsg113
VSun Sep 04 17:18:37 +0000 2011
p140
sVcontributors_enabled
p141
I00
sVtime_zone
p142
VAthens
p143
sVprotected
p144
I00
sVdefault_profile
p145
I01
sVis_translator
p146
I00
ssS'contributors_enabled'
p147
I00
sS'profile_text_color'
p148
g40
sS'followers_count'
p149
I82
sS'profile_sidebar_border_color'
p150
g46
sS'id_str'
p151
g48
sS'default_profile_image'
p152
I01
sS'listed_count'
p153
I18
sS'status'
p154
g8
(ctweepy.models
Status
p155
g10
Ntp156
Rp157
(dp158
S'favorited'
p159
I00
sS'contributors'
p160
NsS'truncated'
p161
I00
sS'text'
p162
VRT @DougKass: Great read on buybacks\u000ahttps://t.co/AOzfXTBgbb
p163
sS'source_url'
p164
Vhttp://twitter.com/download/android
p165
sS'possibly_sensitive'
p166
I00
sS'in_reply_to_status_id'
p167
NsS'geo'
p168
Nsg19
L666304446171897856L
sS'favorite_count'
p169
I0
sS'lang'
p170
g117
sS'retweeted_status'
p171
g8
(g155
g10
Ntp172
Rp173
(dp174
g159
I00
sg160
Nsg161
I00
sg162
VGreat read on buybacks\u000ahttps://t.co/AOzfXTBgbb
p175
sg164
Vhttps://about.twitter.com/products/tweetdeck
p176
sg166
I00
sg167
Nsg168
Nsg19
L666303712806232066L
sg169
I11
sg170
g112
sg21
g97
sS'created_at'
p177
cdatetime
datetime
p178
(S'\x07\xdf\x0b\x10\x11\x0f;\x00\x00\x00'
p179
tp180
Rp181
sg29
g94
sS'coordinates'
p182
NsS'in_reply_to_user_id_str'
p183
NsS'source'
p184
VTweetDeck
p185
sS'in_reply_to_status_id_str'
p186
NsS'in_reply_to_screen_name'
p187
Nsg151
g107
sS'retweeted'
p188
I00
sS'place'
p189
NsS'retweet_count'
p190
I4
sS'in_reply_to_user_id'
p191
Nsbsg21
g64
sg177
g178
(S'\x07\xdf\x0b\x10\x11\x125\x00\x00\x00'
p192
tp193
Rp194
sg29
g53
sg182
Nsg183
Nsg184
VTwitter for Android
p195
sg186
Nsg187
Nsg151
g89
sg188
I00
sg189
Nsg190
I4
sg191
NsbsS'is_translation_enabled'
p196
I00
sS'utc_offset'
p197
I7200
sS'statuses_count'
p198
I7685
sS'description'
p199
g122
sS'friends_count'
p200
I330
sS'location'
p201
g125
sS'profile_link_color'
p202
g127
sS'profile_image_url'
p203
g129
sS'notifications'
p204
NsS'geo_enabled'
p205
I00
sS'profile_background_color'
p206
g50
sS'profile_background_image_url'
p207
g133
sS'screen_name'
p208
g134
sg170
g135
sg1
I00
sS'profile_background_tile'
p209
I00
sS'favourites_count'
p210
I713
sS'name'
p211
g138
sS'url'
p212
Nsg177
g178
(S'\x07\xdb\t\x04\x11\x12%\x00\x00\x00'
p213
tp214
Rp215
sS'profile_background_image_url_https'
p216
g37
sS'time_zone'
p217
g143
sS'protected'
p218
I00
sS'default_profile'
p219
I01
sS'is_translator'
p220
I00
sbs.