(dp0
S'following'
p1
(lp2
(lp3
L3389241832L
aI243398352
aL2217186854L
aI15898634
aI38890420
aL3067313507L
aI47030292
aI28320528
aL3646567093L
aI22785938
aI53210455
aL2416307101L
aL2429659958L
aL2486034890L
aI18958102
aL2476562707L
aI307753350
aI132295511
aI182384817
aI76966092
aI26493482
aL2670741456L
aL3430740735L
aI369352648
aI281163681
aL2281513712L
aI68137157
aI17130359
aI18924737
aL2771384960L
aI187906124
aI225144766
aI109529039
aI9832442
aL2468749722L
aL3046577589L
aI219243512
aI15716971
aL3608857933L
aL3377158342L
aL2329236396L
aI372632579
aL3067758869L
aI1397936450
aI1297100576
aL2384555876L
aI187848580
aL3010598418L
aI634868288
aI825991525
aI32748534
aL3638410217L
aL3224057921L
aI84567829
aI936560438
aL3517794853L
aI13137022
aI895403810
aL3361516707L
aI394279338
aI14241791
aL2993031609L
aI1512588408
aI1545554515
aI97487983
aI637041203
aI16720424
aL4047767361L
aL2801179161L
aI17947981
aL2811917352L
aI17350542
aI1957367017
aL3107964997L
aI1254259734
aI1024244078
aL3662277508L
aI199698509
aL2196732500L
aI34022238
aL2808173822L
aI783789300
aI39930469
aL2938240534L
aL2940602930L
aI19623685
aL3386881817L
aI116557347
aI25207508
aL3070176224L
aI156940417
aL3145726547L
aL2898806649L
aI293635541
aL2866809930L
aL3419060666L
aI786223237
aI141748686
aI193048930
aI1364694404
aI788158068
aI18375963
aL3121737003L
aL3397312334L
aI22914266
aI60921062
aL3600874932L
aL2810007166L
aL2417844248L
aI118138874
aL2575113361L
aI15235335
aL2934104576L
aI22815781
aI459350894
aL2878533622L
aI415298013
aI20717821
aI1856980754
aI144400453
aL2784278855L
aI299364430
aL2745868903L
aI1709516838
aL2747122290L
aL2457899432L
aI223281772
aI11340132
aI448548465
aL2810558886L
aL3184535677L
aL3688791915L
aL3094465010L
aI186471695
aI8020002
aI14297050
aL2967609593L
aI35306670
aI34713362
aI948146718
aI3108351
aI1229568980
aI18539631
aL2999578253L
aL2827159009L
aL3270025830L
aL2791334923L
aL3448405529L
aL3405026375L
aL2842748377L
aL3167770658L
aI10207502
aL3098116670L
aI1635703381
aI976519393
aL2365377655L
aI430559243
aL3264658240L
aI844056498
aL2287646160L
aL2569182484L
aI20228233
aI75706915
aL2257035571L
aI25692368
aI87416722
aasS'followers'
p4
(lp5
(lp6
I600440164
aL2573801826L
aL2651131370L
aI124699164
aL3518589553L
aL3246448422L
aI963162110
aL3427367285L
aL3760333575L
aL2183729299L
aL3103216333L
aI928490268
aI51885242
aI198483889
aI1108555303
aI196915521
aL3319270716L
aI380071652
aL4076793275L
aL2992414321L
aL3312325452L
aI1403799013
aL2881014436L
aI873107586
aL2723167442L
aL3864687197L
aI243398352
aL3389241832L
aL3421882955L
aL2217186854L
aL3061590086L
aI15898634
aL3521997673L
aI38890420
aI47030292
aL3067313507L
aI28320528
aL3646567093L
aL3331325715L
aL2925878687L
aL2842652692L
aI22785938
aI53210455
aL3268358456L
aL2416307101L
aI202510181
aL3317950962L
aL2486034890L
aI511043145
aL2957596833L
aI1870236308
aI18958102
aI1870292305
aL2476562707L
aI307753350
aI132295511
aL2429659958L
aI76966092
aI182384817
aL2670741456L
aI26493482
aL3430740735L
aL3551004254L
aL3308918148L
aI369352648
aI281163681
aI68137157
aL2281513712L
aL4021922723L
aL3291537557L
aI18924737
aI17130359
aL2771384960L
aI187906124
aI225144766
aI109529039
aI9832442
aL2468749722L
aL3046577589L
aL3377158342L
aL3290116660L
aL3608857933L
aI15716971
aI219243512
aL2329236396L
aI372632579
aL4048404617L
aL2877013555L
aL3067758869L
aI1397936450
aI1297100576
aI384944070
aI634868288
aL2384555876L
aL3010598418L
aI187848580
aI825991525
aI32748534
aL3224057921L
aL3638410217L
aI84567829
aL3517794853L
aI936560438
aI13137022
aL3361516707L
aI895403810
aI394279338
aI14241791
aL2993031609L
aI1545554515
aI1512588408
aI97487983
aI637041203
aI16720424
aL4047767361L
aL2801179161L
aI17947981
aL2811917352L
aI17350542
aI1957367017
aL3107964997L
aI117980944
aI1254259734
aI1024244078
aL3662277508L
aI199698509
aL2196732500L
aI34022238
aL2808173822L
aI783789300
aI39930469
aL2940602930L
aL2938240534L
aL3386881817L
aI19623685
aI116557347
aI25207508
aL3070176224L
aI156940417
aL3145726547L
aL2898806649L
aI293635541
aL2866809930L
aL3419060666L
aI141748686
aI786223237
aI193048930
aI1364694404
aI18375963
aI788158068
aI22914266
aL3397312334L
aL3121737003L
aI60921062
aL3600874932L
aL2417844248L
aL2810007166L
aI118138874
aL2575113361L
aI15235335
aL2934104576L
aI22815781
aI459350894
aL2878533622L
aI415298013
aI20717821
aI144400453
aI1856980754
aL2784278855L
aI299364430
aL2745868903L
aL2747122290L
aL2457899432L
aI223281772
aI1709516838
aI11340132
aI448548465
aL2810558886L
aL3184535677L
aL3688791915L
aL3553228812L
aL3094465010L
aI186471695
aI8020002
aI14297050
aL3465509533L
aL2967609593L
aI1229568980
aI18539631
aL2717836526L
aL2999578253L
aL2827159009L
aL3448405529L
aL3270025830L
aL2791334923L
aL3405026375L
aL2842748377L
aL2959357873L
aL3167770658L
aI147570712
aL3083180709L
aI10207502
aL3098116670L
aI1635703381
aI182734840
aI976519393
aL2365377655L
aI430559243
aL2287646160L
aL2569182484L
aI75706915
aI20228233
aI844056498
aL2257035571L
aL3264658240L
aI25692368
aasS'obj'
p7
ccopy_reg
_reconstructor
p8
(ctweepy.models
User
p9
c__builtin__
object
p10
Ntp11
Rp12
(dp13
S'follow_request_sent'
p14
I00
sS'has_extended_profile'
p15
I00
sS'profile_use_background_image'
p16
I01
sS'profile_sidebar_fill_color'
p17
VDDEEF6
p18
sS'id'
p19
L3702639374L
sS'verified'
p20
I00
sS'entities'
p21
(dp22
Vdescription
p23
(dp24
Vurls
p25
(lp26
sssS'profile_image_url_https'
p27
Vhttps://pbs.twimg.com/profile_images/649176436524216320/V9DAy3Ph_normal.jpg
p28
sS'_json'
p29
(dp30
Vfollow_request_sent
p31
I00
sVhas_extended_profile
p32
I00
sVprofile_use_background_image
p33
I01
sVdefault_profile_image
p34
I00
sVid
p35
L3702639374L
sVprofile_background_image_url_https
p36
Vhttps://abs.twimg.com/images/themes/theme1/bg.png
p37
sVverified
p38
I00
sVprofile_text_color
p39
V333333
p40
sVprofile_image_url_https
p41
g28
sVprofile_sidebar_fill_color
p42
g18
sVentities
p43
g22
sVfollowers_count
p44
I216
sVprofile_sidebar_border_color
p45
VC0DEED
p46
sVid_str
p47
V3702639374
p48
sVprofile_background_color
p49
VC0DEED
p50
sVlisted_count
p51
I58
sVstatus
p52
(dp53
Vcontributors
p54
NsVtruncated
p55
I00
sVtext
p56
V[Reminder] Live Webcast: Why Agencies Need Marketing Automation https://t.co/hGCutquPZu
p57
sVin_reply_to_status_id
p58
Nsg35
L666319895995523072L
sVfavorite_count
p59
I0
sVsource
p60
V<a href="http://mobile.twitter.com" rel="nofollow">Mobile Web</a>
p61
sVretweeted
p62
I00
sVcoordinates
p63
Nsg43
(dp64
Vsymbols
p65
(lp66
sVuser_mentions
p67
(lp68
sVhashtags
p69
(lp70
sg25
(lp71
(dp72
Vurl
p73
Vhttps://t.co/hGCutquPZu
p74
sVindices
p75
(lp76
I64
aI87
asVexpanded_url
p77
Vhttp://searchengineland.com/reminder-live-webcast-why-agencies-need-marketing-automation-236157#.VkoeWJvM_rc.twitter
p78
sVdisplay_url
p79
Vsearchengineland.com/reminder-live-\u2026
p80
sassVin_reply_to_screen_name
p81
Nsg47
V666319895995523072
p82
sVretweet_count
p83
I0
sVin_reply_to_user_id
p84
NsVfavorited
p85
I00
sVgeo
p86
NsVin_reply_to_user_id_str
p87
NsVpossibly_sensitive
p88
I00
sVlang
p89
Ven
p90
sVcreated_at
p91
VMon Nov 16 18:20:17 +0000 2015
p92
sVin_reply_to_status_id_str
p93
NsVplace
p94
NssVis_translation_enabled
p95
I00
sVutc_offset
p96
NsVstatuses_count
p97
I3980
sg23
VSTARTUP/MARKETING/BEER/BIOTECH/LONDON/SOCIAL MEDIA/CURRENT AFFAIRS/FOOD/HEALTH/TECHNOLOGY
p98
sVfriends_count
p99
I166
sVlocation
p100
V
p101
sVprofile_link_color
p102
V0084B4
p103
sVprofile_image_url
p104
Vhttp://pbs.twimg.com/profile_images/649176436524216320/V9DAy3Ph_normal.jpg
p105
sVfollowing
p106
I00
sVgeo_enabled
p107
I00
sVprofile_background_image_url
p108
Vhttp://abs.twimg.com/images/themes/theme1/bg.png
p109
sVscreen_name
p110
Vmsreport10
p111
sg89
Ven
p112
sVprofile_background_tile
p113
I00
sVfavourites_count
p114
I36
sVname
p115
VNEWS & VIEWS
p116
sVnotifications
p117
I00
sg73
Nsg91
VSun Sep 27 10:26:03 +0000 2015
p118
sVcontributors_enabled
p119
I00
sVtime_zone
p120
NsVprotected
p121
I00
sVdefault_profile
p122
I01
sVis_translator
p123
I00
ssS'contributors_enabled'
p124
I00
sS'profile_text_color'
p125
g40
sS'followers_count'
p126
I216
sS'profile_sidebar_border_color'
p127
g46
sS'id_str'
p128
g48
sS'default_profile_image'
p129
I00
sS'listed_count'
p130
I58
sS'status'
p131
g8
(ctweepy.models
Status
p132
g10
Ntp133
Rp134
(dp135
S'favorited'
p136
I00
sS'contributors'
p137
NsS'truncated'
p138
I00
sS'text'
p139
g57
sS'source_url'
p140
Vhttp://mobile.twitter.com
p141
sS'possibly_sensitive'
p142
I00
sS'in_reply_to_status_id'
p143
NsS'geo'
p144
Nsg19
L666319895995523072L
sS'favorite_count'
p145
I0
sS'lang'
p146
g90
sg21
g64
sS'created_at'
p147
cdatetime
datetime
p148
(S'\x07\xdf\x0b\x10\x12\x14\x11\x00\x00\x00'
p149
tp150
Rp151
sg29
g53
sS'coordinates'
p152
NsS'in_reply_to_user_id_str'
p153
NsS'source'
p154
VMobile Web
p155
sS'in_reply_to_status_id_str'
p156
NsS'in_reply_to_screen_name'
p157
Nsg128
g82
sS'retweeted'
p158
I00
sS'place'
p159
NsS'retweet_count'
p160
I0
sS'in_reply_to_user_id'
p161
NsbsS'is_translation_enabled'
p162
I00
sS'utc_offset'
p163
NsS'statuses_count'
p164
I3980
sS'description'
p165
g98
sS'friends_count'
p166
I166
sS'location'
p167
g101
sS'profile_link_color'
p168
g103
sS'profile_image_url'
p169
g105
sS'notifications'
p170
I00
sS'geo_enabled'
p171
I00
sS'profile_background_color'
p172
g50
sS'profile_background_image_url'
p173
g109
sS'screen_name'
p174
g111
sg146
g112
sg1
I00
sS'profile_background_tile'
p175
I00
sS'favourites_count'
p176
I36
sS'name'
p177
g116
sS'url'
p178
Nsg147
g148
(S'\x07\xdf\t\x1b\n\x1a\x03\x00\x00\x00'
p179
tp180
Rp181
sS'profile_background_image_url_https'
p182
g37
sS'time_zone'
p183
NsS'protected'
p184
I00
sS'default_profile'
p185
I01
sS'is_translator'
p186
I00
sbs.