(dp0
S'following'
p1
(lp2
(lp3
I148711787
aI48047418
aL2802272246L
aI42632530
aL3578568973L
aI553036368
aI140912249
aI25827743
aI38053161
aI1534167900
aI271143276
aI7520262
aI262316297
aI93529573
aI1473431
aI257799442
aI72197085
aI20353621
aI407231524
aI127245578
aI34565806
aL3888024733L
aL3896629033L
aL2985903545L
aL3315764160L
aI466185506
aI483070118
aI218947362
aL2678090893L
aI15072071
aI14250809
aL3590181193L
aL3372838632L
aI300045948
aI244248703
aI233704756
aI19926609
aI15246621
aI39879120
aI320524842
aI47621568
aI21232827
aI286654612
aL3087449397L
aL2365754841L
aI229143589
aL2370424036L
aL3946143199L
aL3316761253L
aL2313346898L
aI134456391
aL2597643271L
aI545618159
aI714051110
aI160625399
aI15280716
aL2587613526L
aL3161642778L
aL2883356613L
aL2507152446L
aI65518478
aI7607892
aI70025109
aI601109375
aI386282837
aI23102962
aI372343193
aI15588025
aI1451620352
aI802310934
aI1062304548
aI582446081
aL3042243094L
aI898058054
aI487887580
aI17766107
aI37606449
aI32897012
aI1612686216
aI338875694
aI241502518
aI29708582
aI17108251
aI36309263
aL2516029806L
aI604517809
aI23135992
aI36499730
aI65577676
aI65589378
aI1533723949
aI57497901
aI19478383
aI16248319
aI35767916
aI71165327
aL3799792752L
aL2967229294L
aI122030129
aL2522529224L
aI1562679368
aI38804737
aI564718887
aI454938408
aI232136043
aI407659112
aI61608747
aL3081345050L
aI24410456
aI213292271
aI14216123
aL3117992765L
aL3305123857L
aL2551992944L
aL3274174237L
aI31726264
aL3751578322L
aI14115408
aI300338214
aI851544830
aI28445389
aI331056224
aI326315947
aI18378349
aI46348636
aI19337489
aI552175419
aL3370629837L
aI460818077
aL3920279115L
aL3086982554L
aI271211220
aI19988458
aI14292717
aI49753604
aI814968864
aL3727905020L
aI202915788
aI16359602
aI22522178
aI247857712
aI18560146
aI8524892
aI76001101
aL2799617712L
aL3281322560L
aL3369430214L
aI571172086
aI520263839
aI97334517
aI45415894
aL3044526195L
aI67025123
aI375980238
aI250758475
aI37284991
aI455824771
aL2530009602L
aI326745108
aL2364223692L
aI793371577
aL2962971390L
aI1168625677
aL2907403148L
aI21917683
aL2149231188L
aI93159806
aL3891124583L
aL3864652213L
aI431457290
aI19739279
aI264370502
aI46633066
aI46680168
aI21183938
aL2335560870L
aI13589212
aI18323489
aL3998520687L
aI368609835
aI215821062
aI29888058
aI39050208
aI136889848
aI98476633
aI118333572
aI57268394
aI823020805
aI25098482
aI126717954
aI21323268
aL3253692147L
aI23859421
aI859659930
aI33662065
aL3331100733L
aL3927089315L
aI18938646
aI20562637
aI115059160
aI58432995
aL2524087346L
aI28122828
aL3743506283L
aI426722004
aI1199928566
aI17483381
aI226637533
aI239733504
aI1202199901
aI33552797
aI103995478
aL2593475036L
aL3873358294L
aI203652149
aI43111757
aI178967251
aI526755766
aL2572822807L
aI126893127
aI137654240
aI564862274
aI90278799
aI454993110
aI583621348
aI181982452
aI138948273
aI77528520
aI97268285
aI404762538
aI135798140
aI152731757
aI289485255
aI241709263
aI317293844
aI385526290
aI381157332
aI22973017
aI22973525
aI22973153
aI136386053
aI23557976
aI23116322
aI104667619
aL3300332498L
aI234270553
aI464884249
aL2875131159L
aL3490565535L
aI1145721330
aI532400093
aL3395124783L
aL3393438658L
aL3395135895L
aI468605512
aI379925084
aI133806972
aI566634980
aL3870664162L
aL3874260279L
aI171030072
aI469259563
aL2925016827L
aI1719537756
aI18682950
aI782400517
aL3073241957L
aI1907914922
aL3869043856L
aI45562509
aI419343852
aI611644914
aI140050500
aI15349559
aI1073724031
aL3774615735L
aL3140096339L
aI281669642
aI995324587
aL2461907034L
aI27078621
aL3320880145L
aI341346597
aI532777421
aI27707080
aL2396670744L
aL2511518101L
aI302545862
aI253168011
aL3131541045L
aI1603354212
aI1098046362
aI72490663
aI23761005
aI127034427
aI18571616
aL2870552698L
aI24692676
aI736223888
aI213590592
aI14259632
aI1514346050
aI14788764
aI55020919
aI624413
aI84281104
aI360685668
aI1155522630
aI105107218
aL3146933385L
aI551532933
aL2362650762L
aL3147246544L
aL3139590424L
aL3128522824L
aL3334692641L
aL3016283598L
aI23074277
aI27652717
aI20243744
aI49556187
aL3269718774L
aI368825868
aI1844381635
aL2271178693L
aL2291869261L
aI21391703
aI66370198
aI404115840
aI1149751
aI338883356
aI5988062
aI33836064
aL2381609077L
aI945379525
aI138919327
aI174959232
aI810663320
aI102678194
aI30218929
aI402843177
aI1648420158
aI23756134
aasS'followers'
p4
(lp5
(lp6
L2852586606L
aL4157957243L
aL3152647095L
aL4108231581L
aL4064851695L
aL3366513286L
aI18578905
aL3456210023L
aI113084080
aL3183964856L
aI14601336
aL3184637045L
aL3383600722L
aL4109857947L
aI20971774
aL3309916472L
aI543821149
aI1244014266
aL3154126637L
aL2900830989L
aL3018847436L
aI151837602
aL4109175323L
aL3165625278L
aI808669524
aI1906335426
aI486064418
aL3983746634L
aI127967449
aL2906862160L
aL2802272246L
aI12975572
aL3904632212L
aL2149231188L
aL3542989823L
aI906001099
aL2489295018L
aL4040831358L
aL3300339330L
aL2551992944L
aL3429805103L
aI42912883
aI99561586
aI331056224
aI295330659
aI976592376
aL2164632236L
aL3099926523L
aL4150287058L
aI1580054960
aL3317408965L
aI1341832754
aL3182442700L
aL2148275342L
aL3305313785L
aI888084055
aL4057945480L
aI1020067598
aL3278845579L
aL2203398524L
aI189855234
aL3909553528L
aL3888024733L
aL3315764160L
aL3374476185L
aL4096598958L
aI1510196358
aL3316761253L
aL3374398697L
aI1924316509
aI357510852
aL4119281541L
aI1847308628
aL3954357319L
aL3953544733L
aL4077721821L
aL2776828547L
aI613280139
aI1964286157
aL3590181193L
aL2543456155L
aL2985903545L
aL4003377437L
aI547537854
aI15812297
aI444940567
aI819851174
aL4074919803L
aL3285950947L
aI248592793
aI26705006
aL4024871747L
aL2286097290L
aI251330873
aL3305123857L
aL3905243370L
aL3896629033L
aL3427544668L
aL3233343965L
aI27453762
aI573798359
aL3374501680L
aL3374436261L
aI59446165
aI384509985
aL3952765165L
aI15081182
aL2784891852L
aI93294948
aL3587389822L
aL3986070074L
aL3719800175L
aI299999222
aI320524842
aL3946143199L
aL2997374312L
aL2507152446L
aL3978527414L
aI232136043
aL2765781588L
aL3130944867L
aL3305442939L
aL2530009602L
aL3864652213L
aI134456391
aI1359266005
aL3086982554L
aI601109375
aI7607892
aI1907938308
aI1520768582
aL3395170581L
aI560068491
aL3953932814L
aL2467839642L
aL2394624246L
aI155546616
aI18114882
aL3232335848L
aI74736772
aL3370629837L
aI814968864
aL3340613691L
aI1375860338
aL2824101183L
aL2883356613L
aL3743506283L
aL2522529224L
aL4024275934L
aL2466373656L
aL3042243094L
aI17943171
aL3180364640L
aL2570176117L
aI211800056
aL2456921403L
aI793371577
aL3366382214L
aL2343231823L
aI564718887
aI843798122
aL3081345050L
aI1199928566
aI460818077
aI35767916
aI31891798
aL3751578322L
aL3250301273L
aI16248319
aL2907403148L
aL4016867104L
aI226637533
aL2999168682L
aI33167774
aI326029089
aL3876148872L
aL2361661062L
aL2928876109L
aL2511518101L
aI1966253173
aL3872697132L
aI1172027558
aI181982452
aI43111757
aL2929995018L
aL3873358294L
aL2604068238L
aL3004076055L
aL3028099823L
aL3020232160L
aI1145721330
aI147894652
aL3240069677L
aL3306314767L
aL2516029806L
aL3870664162L
aI583621348
aL2256819404L
aL3920347227L
aL3232478113L
aL2364223692L
aL3073241957L
aI1108555891
aI1907914922
aL3269718774L
aI341346597
aL3320880145L
aI27078621
aL3017071050L
aI995324587
aI102678194
aL3334692641L
aL2362650762L
aL3140096339L
aL3128522824L
aL3139590424L
aL3147246544L
aI402843177
aL3774615735L
aL3146933385L
aI21391703
aasS'obj'
p7
ccopy_reg
_reconstructor
p8
(ctweepy.models
User
p9
c__builtin__
object
p10
Ntp11
Rp12
(dp13
S'follow_request_sent'
p14
I00
sS'has_extended_profile'
p15
I00
sS'profile_use_background_image'
p16
I01
sS'profile_sidebar_fill_color'
p17
V000000
p18
sS'id'
p19
L3715813819L
sS'verified'
p20
I00
sS'entities'
p21
(dp22
Vurl
p23
(dp24
Vurls
p25
(lp26
(dp27
g23
Vhttp://t.co/hvGr2cvKGw
p28
sVindices
p29
(lp30
I0
aI22
asVexpanded_url
p31
Vhttp://www.algoment.com
p32
sVdisplay_url
p33
Valgoment.com
p34
sassVdescription
p35
(dp36
g25
(lp37
sssS'profile_image_url_https'
p38
Vhttps://pbs.twimg.com/profile_images/648546137440317442/XSd0RRLW_normal.png
p39
sS'_json'
p40
(dp41
Vfollow_request_sent
p42
I00
sVhas_extended_profile
p43
I00
sVprofile_use_background_image
p44
I01
sVdefault_profile_image
p45
I00
sVid
p46
L3715813819L
sVprofile_background_image_url_https
p47
Vhttps://abs.twimg.com/images/themes/theme14/bg.gif
p48
sVverified
p49
I00
sVprofile_text_color
p50
V000000
p51
sVprofile_image_url_https
p52
g39
sVprofile_sidebar_fill_color
p53
g18
sVentities
p54
g22
sVfollowers_count
p55
I221
sVprofile_sidebar_border_color
p56
V000000
p57
sVid_str
p58
V3715813819
p59
sVprofile_background_color
p60
V131516
p61
sVlisted_count
p62
I35
sVstatus
p63
(dp64
Vcontributors
p65
NsVtruncated
p66
I00
sVtext
p67
VRT @AlexFX00: DAX 30 Is Slightly Overbought Ahead of Crucial ZEW Index https://t.co/mZiQTu6EzZ https://t.co/awDVtuWyJK
p68
sVin_reply_to_status_id
p69
Nsg46
L666533662729576448L
sVfavorite_count
p70
I0
sVsource
p71
V<a href="http://twitter.com" rel="nofollow">Twitter Web Client</a>
p72
sVretweeted
p73
I00
sVcoordinates
p74
Nsg54
(dp75
Vsymbols
p76
(lp77
sVuser_mentions
p78
(lp79
(dp80
g46
I426722004
sg29
(lp81
I3
aI12
asg58
V426722004
p82
sVscreen_name
p83
VAlexFX00
p84
sVname
p85
VAlejandro Zambrano
p86
sasVhashtags
p87
(lp88
sg25
(lp89
(dp90
g23
Vhttps://t.co/mZiQTu6EzZ
p91
sg29
(lp92
I71
aI94
asg31
Vhttp://www.dailyfx.com/forex/technical/home/analysis/ger30/2015/11/17/DAX-30-Is-Slightly-Overbought-Ahead-of-Crucial-ZEW-Index.html
p93
sg33
Vdailyfx.com/forex/technica\u2026
p94
sasVmedia
p95
(lp96
(dp97
Vsource_user_id
p98
I426722004
sVsource_status_id_str
p99
V666532729052360704
p100
sg31
Vhttp://twitter.com/AlexFX00/status/666532729052360704/photo/1
p101
sg33
Vpic.twitter.com/awDVtuWyJK
p102
sg23
Vhttps://t.co/awDVtuWyJK
p103
sVmedia_url_https
p104
Vhttps://pbs.twimg.com/media/CT___CNWwAA7HfZ.png
p105
sVsource_user_id_str
p106
V426722004
p107
sVsource_status_id
p108
L666532729052360704L
sg58
V666532728263852032
p109
sVsizes
p110
(dp111
Vsmall
p112
(dp113
Vh
p114
I176
sVresize
p115
Vfit
p116
sVw
p117
I340
ssVlarge
p118
(dp119
g114
I530
sg115
Vfit
p120
sg117
I1024
ssVmedium
p121
(dp122
g114
I310
sg115
Vfit
p123
sg117
I600
ssVthumb
p124
(dp125
g114
I150
sg115
Vcrop
p126
sg117
I150
sssg29
(lp127
I95
aI118
asVtype
p128
Vphoto
p129
sg46
L666532728263852032L
sVmedia_url
p130
Vhttp://pbs.twimg.com/media/CT___CNWwAA7HfZ.png
p131
sassVin_reply_to_screen_name
p132
Nsg58
V666533662729576448
p133
sVretweet_count
p134
I2
sVin_reply_to_user_id
p135
NsVfavorited
p136
I00
sVretweeted_status
p137
(dp138
g65
Nsg66
I00
sg67
VDAX 30 Is Slightly Overbought Ahead of Crucial ZEW Index https://t.co/mZiQTu6EzZ https://t.co/awDVtuWyJK
p139
sg69
Nsg46
L666532729052360704L
sg70
I1
sg71
V<a href="http://twitter.com" rel="nofollow">Twitter Web Client</a>
p140
sg73
I00
sg74
Nsg54
(dp141
g76
(lp142
sg78
(lp143
sg87
(lp144
sg25
(lp145
(dp146
g23
Vhttps://t.co/mZiQTu6EzZ
p147
sg29
(lp148
I57
aI80
asg31
Vhttp://www.dailyfx.com/forex/technical/home/analysis/ger30/2015/11/17/DAX-30-Is-Slightly-Overbought-Ahead-of-Crucial-ZEW-Index.html
p149
sg33
Vdailyfx.com/forex/technica\u2026
p150
sasg95
(lp151
(dp152
g31
Vhttp://twitter.com/AlexFX00/status/666532729052360704/photo/1
p153
sg33
Vpic.twitter.com/awDVtuWyJK
p154
sg23
Vhttps://t.co/awDVtuWyJK
p155
sg104
Vhttps://pbs.twimg.com/media/CT___CNWwAA7HfZ.png
p156
sg58
V666532728263852032
p157
sg110
(dp158
g112
(dp159
g114
I176
sg115
Vfit
p160
sg117
I340
ssg118
(dp161
g114
I530
sg115
Vfit
p162
sg117
I1024
ssg121
(dp163
g114
I310
sg115
Vfit
p164
sg117
I600
ssg124
(dp165
g114
I150
sg115
Vcrop
p166
sg117
I150
sssg29
(lp167
I81
aI104
asg128
Vphoto
p168
sg46
L666532728263852032L
sg130
Vhttp://pbs.twimg.com/media/CT___CNWwAA7HfZ.png
p169
sassg132
Nsg58
V666532729052360704
p170
sg134
I2
sg135
Nsg136
I00
sVgeo
p171
NsVin_reply_to_user_id_str
p172
NsVpossibly_sensitive
p173
I00
sVlang
p174
Ven
p175
sVcreated_at
p176
VTue Nov 17 08:26:00 +0000 2015
p177
sVin_reply_to_status_id_str
p178
NsVplace
p179
Nssg171
Nsg172
Nsg173
I00
sg174
Ven
p180
sg176
VTue Nov 17 08:29:43 +0000 2015
p181
sg178
Nsg179
NssVis_translation_enabled
p182
I00
sVutc_offset
p183
NsVstatuses_count
p184
I1176
sg35
VAlgoment is a global markets quantitative research & automated trading technology company.We deliver quantitative research and automated trading strategies.
p185
sVfriends_count
p186
I343
sVlocation
p187
VUnited Kingdom
p188
sVprofile_link_color
p189
V6AD500
p190
sVprofile_image_url
p191
Vhttp://pbs.twimg.com/profile_images/648546137440317442/XSd0RRLW_normal.png
p192
sVfollowing
p193
I00
sVgeo_enabled
p194
I00
sVprofile_banner_url
p195
Vhttps://pbs.twimg.com/profile_banners/3715813819/1443644705
p196
sVprofile_background_image_url
p197
Vhttp://abs.twimg.com/images/themes/theme14/bg.gif
p198
sg83
Valgoment
p199
sg174
Ven
p200
sVprofile_background_tile
p201
I01
sVfavourites_count
p202
I6
sg85
Valgoment
p203
sVnotifications
p204
I00
sg23
Vhttp://t.co/hvGr2cvKGw
p205
sg176
VMon Sep 28 14:54:35 +0000 2015
p206
sVcontributors_enabled
p207
I00
sVtime_zone
p208
NsVprotected
p209
I00
sVdefault_profile
p210
I00
sVis_translator
p211
I00
ssS'contributors_enabled'
p212
I00
sS'profile_text_color'
p213
g51
sS'followers_count'
p214
I221
sS'profile_sidebar_border_color'
p215
g57
sS'id_str'
p216
g59
sS'default_profile_image'
p217
I00
sS'listed_count'
p218
I35
sS'status'
p219
g8
(ctweepy.models
Status
p220
g10
Ntp221
Rp222
(dp223
S'favorited'
p224
I00
sS'contributors'
p225
NsS'truncated'
p226
I00
sS'text'
p227
g68
sS'source_url'
p228
Vhttp://twitter.com
p229
sS'possibly_sensitive'
p230
I00
sS'in_reply_to_status_id'
p231
NsS'geo'
p232
Nsg19
L666533662729576448L
sS'favorite_count'
p233
I0
sS'lang'
p234
g180
sS'retweeted_status'
p235
g8
(g220
g10
Ntp236
Rp237
(dp238
g224
I00
sg225
Nsg226
I00
sg227
g139
sg228
Vhttp://twitter.com
p239
sg230
I00
sg231
Nsg232
Nsg19
L666532729052360704L
sg233
I1
sg234
g175
sg21
g141
sS'created_at'
p240
cdatetime
datetime
p241
(S'\x07\xdf\x0b\x11\x08\x1a\x00\x00\x00\x00'
p242
tp243
Rp244
sg40
g138
sS'coordinates'
p245
NsS'in_reply_to_user_id_str'
p246
NsS'source'
p247
VTwitter Web Client
p248
sS'in_reply_to_status_id_str'
p249
NsS'in_reply_to_screen_name'
p250
Nsg216
g170
sS'retweeted'
p251
I00
sS'place'
p252
NsS'retweet_count'
p253
I2
sS'in_reply_to_user_id'
p254
Nsbsg21
g75
sg240
g241
(S'\x07\xdf\x0b\x11\x08\x1d+\x00\x00\x00'
p255
tp256
Rp257
sg40
g64
sg245
Nsg246
Nsg247
VTwitter Web Client
p258
sg249
Nsg250
Nsg216
g133
sg251
I00
sg252
Nsg253
I2
sg254
NsbsS'is_translation_enabled'
p259
I00
sS'utc_offset'
p260
NsS'statuses_count'
p261
I1176
sS'description'
p262
g185
sS'friends_count'
p263
I343
sS'location'
p264
g188
sS'profile_link_color'
p265
g190
sS'profile_image_url'
p266
g192
sS'notifications'
p267
I00
sS'geo_enabled'
p268
I00
sS'profile_background_color'
p269
g61
sS'profile_banner_url'
p270
g196
sS'profile_background_image_url'
p271
g198
sS'screen_name'
p272
g199
sg234
g200
sg1
I00
sS'profile_background_tile'
p273
I01
sS'favourites_count'
p274
I6
sS'name'
p275
g203
sS'url'
p276
g205
sg240
g241
(S'\x07\xdf\t\x1c\x0e6#\x00\x00\x00'
p277
tp278
Rp279
sS'profile_background_image_url_https'
p280
g48
sS'time_zone'
p281
NsS'protected'
p282
I00
sS'default_profile'
p283
I00
sS'is_translator'
p284
I00
sbs.