(dp0
S'following'
p1
(lp2
(lp3
I214221719
aL2371990617L
aL4061676453L
aI127734195
aI855490663
aI311223050
aL2855149796L
aL3585208512L
aL3788722933L
aL2463349129L
aI310919378
aI755719922
aI1975766658
aL3835165452L
aI122443799
aI77716292
aL3848259073L
aL3906672555L
aI580859145
aL2425175522L
aI25249598
aI280346260
aL2876601573L
aI24776181
aI165083973
aL3041716167L
aI425909589
aL2292466974L
aL3364904379L
aI537060003
aI710838830
aL3847995917L
aI772114386
aL3726886230L
aI57543023
aL3213629798L
aL3831228400L
aL3437793833L
aL2327540606L
aI345097689
aL2965790153L
aL3309936997L
aI483249824
aI849672992
aL3401590131L
aI114101177
aI145700441
aI16993719
aI273488832
aL2238829236L
aI636291360
aI1338729139
aI81653032
aI177674652
aL2447314116L
aL2906777007L
aL3620733621L
aI108400832
aI1967776682
aI84926147
aI1239349850
aL2981668074L
aI255316225
aI525437899
aI1949299674
aL3346409171L
aL3376897726L
aL2827288398L
aL3882448277L
aL2830586651L
aI968898973
aI274190822
aL3513602713L
aL3806697194L
aL3885991282L
aI1584500023
aL3365799910L
aL3192683592L
aL2429563184L
aL3000894564L
aI708954980
aI29744794
aL3722663592L
aI13637732
aI246312032
aI383819643
aI142395411
aI413700867
aI860252845
aI50121971
aL3437320451L
aI952739916
aL3634762574L
aL2391566875L
aI122853821
aL2402070984L
aI897591948
aL3380499813L
aL2515241513L
aI178967251
aI605703664
aL3808916658L
aL3320806841L
aL3096674070L
aI583335577
aI43935818
aL3780985827L
aI596784906
aL3849562934L
aI197934198
aI340619868
aI625571713
aI288054215
aL3886117000L
aI18374519
aL2534675679L
aL3930644955L
aL2968256134L
aL3213495756L
aL3283963366L
aI1393544773
aL2361661062L
aI181411655
aI1673527249
aL3306248044L
aI118766215
aI45662016
aL3091351178L
aL3164997480L
aI1527472440
aI1933545475
aI508164428
aI266226672
aI1141197450
aL3278922089L
aL3097737689L
aI891259472
aI526601733
aL3242840227L
aL2800070870L
aL2911104058L
aL2981198021L
aL2935412449L
aL3341393788L
aL3731901754L
aL3648458606L
aL2911109272L
aL3718387157L
aL2513031072L
aL2372174256L
aL2259383122L
aI174965200
aL3193539926L
aI69350553
aasS'followers'
p4
(lp5
(lp6
L3281814577L
aL4132750115L
aI9555372
aI48486244
aL2711269183L
aL3401590131L
aI142395411
aL3213629798L
aL2371990617L
aL3213495756L
aL3319136443L
aL2448547801L
aI100185304
aL3356967793L
aI100181411
aL2981198021L
aL3084039291L
aL3030843400L
aL3320806841L
aL3409433439L
aI112696718
aI534291286
aI711443158
aI1694936220
aL3909124096L
aI85197520
aL3620733621L
aL3906567198L
aL3437793833L
aL3192683592L
aI1338729139
aL3164997480L
aI860252845
aL2361661062L
aL3278922089L
aI118766215
aI280346260
aI1584500023
aI805230144
aL2425175522L
aL2292466974L
aL3306248044L
aI580859145
aL2968256134L
aL3584980155L
aI555363380
aL3404039290L
aI526601733
aL2445064535L
aL3202767532L
aL3152854929L
aL2887269205L
aI849748010
aI1003837020
aL3624700340L
aL3763603332L
aL3749057413L
aL2804263123L
aI384235083
aL2957588359L
aL2911104058L
aL3835766175L
aL3341393788L
aL3501962422L
aI860037217
aL2203756381L
aL3648458606L
aL3731901754L
aL2972555345L
aL3244850525L
aL3184637045L
aI99147325
aI635580208
aI159591088
aL3213750129L
aI396999574
aL3375474618L
aI442195899
aL3371415013L
aL3111837451L
aL3441950476L
aI1375860338
aI891869581
aI100767876
aL3273812358L
aI786003600
aL3420574769L
aL3577886478L
aL3718387157L
aL2172423304L
aL2372174256L
aI141453630
aL3177303368L
aL2911109272L
aL3288942397L
aI30359797
aI185670425
aasS'obj'
p7
ccopy_reg
_reconstructor
p8
(ctweepy.models
User
p9
c__builtin__
object
p10
Ntp11
Rp12
(dp13
S'follow_request_sent'
p14
NsS'has_extended_profile'
p15
I00
sS'profile_use_background_image'
p16
I01
sS'profile_sidebar_fill_color'
p17
VDDEEF6
p18
sS'id'
p19
L3718789042L
sS'verified'
p20
I00
sS'entities'
p21
(dp22
Vdescription
p23
(dp24
Vurls
p25
(lp26
sssS'profile_image_url_https'
p27
Vhttps://pbs.twimg.com/profile_images/645617013818195969/0lry-mBI_normal.jpg
p28
sS'_json'
p29
(dp30
Vfollow_request_sent
p31
NsVhas_extended_profile
p32
I00
sVprofile_use_background_image
p33
I01
sVdefault_profile_image
p34
I00
sVid
p35
L3718789042L
sVprofile_background_image_url_https
p36
Vhttps://abs.twimg.com/images/themes/theme1/bg.png
p37
sVverified
p38
I00
sVprofile_text_color
p39
V333333
p40
sVprofile_image_url_https
p41
g28
sVprofile_sidebar_fill_color
p42
g18
sVentities
p43
g22
sVfollowers_count
p44
I97
sVprofile_sidebar_border_color
p45
VC0DEED
p46
sVid_str
p47
V3718789042
p48
sVprofile_background_color
p49
VC0DEED
p50
sVlisted_count
p51
I2
sVstatus
p52
(dp53
Vcontributors
p54
NsVtruncated
p55
I00
sVtext
p56
V$FBEC nice news out this morning. The @WolfShotEnergy already sold out on Amazon. And got rated #1 new best seller https://t.co/riA6iP0O6l
p57
sVin_reply_to_status_id
p58
Nsg35
L666257704550326272L
sVfavorite_count
p59
I0
sVsource
p60
V<a href="http://www.hootsuite.com" rel="nofollow">Hootsuite</a>
p61
sVretweeted
p62
I00
sVcoordinates
p63
Nsg43
(dp64
Vsymbols
p65
(lp66
(dp67
Vindices
p68
(lp69
I0
aI5
asg56
VFBEC
p70
sasVuser_mentions
p71
(lp72
(dp73
g35
L3246118910L
sg68
(lp74
I38
aI53
asg47
V3246118910
p75
sVscreen_name
p76
VWolfShotEnergy
p77
sVname
p78
VWolfShot
p79
sasVhashtags
p80
(lp81
sg25
(lp82
(dp83
Vurl
p84
Vhttps://t.co/riA6iP0O6l
p85
sg68
(lp86
I115
aI138
asVexpanded_url
p87
Vhttp://bit.ly/1LhRoc1
p88
sVdisplay_url
p89
Vbit.ly/1LhRoc1
p90
sassVin_reply_to_screen_name
p91
Nsg47
V666257704550326272
p92
sVretweet_count
p93
I0
sVin_reply_to_user_id
p94
NsVfavorited
p95
I00
sVgeo
p96
NsVin_reply_to_user_id_str
p97
NsVpossibly_sensitive
p98
I00
sVlang
p99
Ven
p100
sVcreated_at
p101
VMon Nov 16 14:13:09 +0000 2015
p102
sVin_reply_to_status_id_str
p103
NsVplace
p104
NssVis_translation_enabled
p105
I00
sVutc_offset
p106
NsVstatuses_count
p107
I51
sg23
VMom/Trader/Traveler
p108
sVfriends_count
p109
I154
sVlocation
p110
VNew York, NY
p111
sVprofile_link_color
p112
V0084B4
p113
sVprofile_image_url
p114
Vhttp://pbs.twimg.com/profile_images/645617013818195969/0lry-mBI_normal.jpg
p115
sVfollowing
p116
NsVgeo_enabled
p117
I00
sVprofile_background_image_url
p118
Vhttp://abs.twimg.com/images/themes/theme1/bg.png
p119
sg76
VTracyTrades
p120
sg99
Ven
p121
sVprofile_background_tile
p122
I00
sVfavourites_count
p123
I7
sg78
VTracy Hartford
p124
sVnotifications
p125
Nsg84
Nsg101
VSun Sep 20 15:04:40 +0000 2015
p126
sVcontributors_enabled
p127
I00
sVtime_zone
p128
NsVprotected
p129
I00
sVdefault_profile
p130
I01
sVis_translator
p131
I00
ssS'contributors_enabled'
p132
I00
sS'profile_text_color'
p133
g40
sS'followers_count'
p134
I97
sS'profile_sidebar_border_color'
p135
g46
sS'id_str'
p136
g48
sS'default_profile_image'
p137
I00
sS'listed_count'
p138
I2
sS'status'
p139
g8
(ctweepy.models
Status
p140
g10
Ntp141
Rp142
(dp143
S'favorited'
p144
I00
sS'contributors'
p145
NsS'truncated'
p146
I00
sS'text'
p147
g57
sS'source_url'
p148
Vhttp://www.hootsuite.com
p149
sS'possibly_sensitive'
p150
I00
sS'in_reply_to_status_id'
p151
NsS'geo'
p152
Nsg19
L666257704550326272L
sS'favorite_count'
p153
I0
sS'lang'
p154
g100
sg21
g64
sS'created_at'
p155
cdatetime
datetime
p156
(S'\x07\xdf\x0b\x10\x0e\r\t\x00\x00\x00'
p157
tp158
Rp159
sg29
g53
sS'coordinates'
p160
NsS'in_reply_to_user_id_str'
p161
NsS'source'
p162
VHootsuite
p163
sS'in_reply_to_status_id_str'
p164
NsS'in_reply_to_screen_name'
p165
Nsg136
g92
sS'retweeted'
p166
I00
sS'place'
p167
NsS'retweet_count'
p168
I0
sS'in_reply_to_user_id'
p169
NsbsS'is_translation_enabled'
p170
I00
sS'utc_offset'
p171
NsS'statuses_count'
p172
I51
sS'description'
p173
g108
sS'friends_count'
p174
I154
sS'location'
p175
g111
sS'profile_link_color'
p176
g113
sS'profile_image_url'
p177
g115
sS'notifications'
p178
NsS'geo_enabled'
p179
I00
sS'profile_background_color'
p180
g50
sS'profile_background_image_url'
p181
g119
sS'screen_name'
p182
g120
sg154
g121
sg1
I00
sS'profile_background_tile'
p183
I00
sS'favourites_count'
p184
I7
sS'name'
p185
g124
sS'url'
p186
Nsg155
g156
(S'\x07\xdf\t\x14\x0f\x04(\x00\x00\x00'
p187
tp188
Rp189
sS'profile_background_image_url_https'
p190
g37
sS'time_zone'
p191
NsS'protected'
p192
I00
sS'default_profile'
p193
I01
sS'is_translator'
p194
I00
sbs.