(dp0
S'following'
p1
(lp2
(lp3
L4061676453L
aI1575302786
aI969725959
aI379462183
aI905237568
aI1924528063
aI213276022
aI1690950752
aI1364492702
aI1727087473
aI1914658189
aI479815890
aI217451910
aI197231955
aI1338037699
aI1182411583
aL2759521281L
aI1030004947
aI1348767073
aI1309143805
aL2764476546L
aI1474249200
aI959322962
aI461010047
aI1381612446
aI761814445
aI1015006674
aI1486314859
aI1519424610
aI411391222
aI1388480586
aI966567822
aI463366674
aI1664579972
aI1218867781
aI1095111708
aI303623697
aI33991633
aI407919125
aL3419964612L
aI306961385
aI248627816
aI1057507160
aI570879850
aI105743254
aI1471009861
aL3329562581L
aI357639824
aI303238764
aI383664728
aI352368821
aI885788725
aI328343441
aI1006010528
aL3307252559L
aI1374601909
aL2891415801L
aI394813283
aI993318840
aI121306946
aL2386048203L
aL2660634488L
aI1375043084
aI1198082587
aI255988230
aI942750854
aI1706568913
aI109645387
aL3241233059L
aL3930644955L
aL3835721915L
aI25249598
aI481827717
aI53494137
aI27896255
aI465069109
aL3592404616L
aI731387161
aL3033685651L
aL2322511813L
aL3320876071L
aI716763971
aI26670218
aI724674919
aL3624087207L
aI1849904042
aL3290111898L
aL3327036204L
aL3409433439L
aL3728892258L
aL2470132934L
aL2972555345L
aI248988259
aI314005753
aL3218802421L
aI111700451
aL2305355246L
aL3797753112L
aL3084039291L
aI472494218
aI153442121
aI5023951
aI532513090
aL3884510956L
aL3439264492L
aI149473083
aI910469718
aI39952775
aI286751764
aI271239692
aI258613742
aL3150266912L
aL2779405483L
aI16419972
aL3827624474L
aI46996676
aI296518283
aL3435967634L
aI580890851
aL3853770347L
aL2325165709L
aL3585208512L
aL3911049976L
aI122443799
aL3035924422L
aL3835165452L
aL2236319479L
aL2654428027L
aL2845759790L
aL3821380466L
aI53867772
aI870643855
aL2382548687L
aI427828704
aI99354180
aL3777825854L
aL3262640149L
aL2936464020L
aI175857285
aI465688283
aI71687314
aL3221325143L
aL2963749012L
aL3272332610L
aI28755641
aL3097737689L
aL2800070870L
aL2911104058L
aL2981198021L
aL2935412449L
aL3341393788L
aL3731901754L
aL3648458606L
aL3718789042L
aL2911109272L
aI141453630
aI396999574
aI563095591
aL2437532460L
aI805230144
aI174965200
aL2259383122L
aL3193539926L
aI69350553
aL2492833240L
aL2372174256L
aL2513031072L
aI17093617
aasS'followers'
p4
(lp5
(lp6
I243667204
aL3585208512L
aI1644225481
aL4048553532L
aL4033117099L
aL4024132233L
aL2534492867L
aI280346260
aL3288582230L
aL3905243370L
aL3118084756L
aI77438460
aI100185304
aL3994329856L
aL2981198021L
aL3993524596L
aL3035924422L
aI711443158
aL3084039291L
aL3135493823L
aL2236319479L
aI1849904042
aI271239692
aL2936464020L
aI296518283
aI100767876
aI384235083
aL3346499692L
aI142395411
aI117390997
aL2847657647L
aL3722357472L
aL2445064535L
aL3108417284L
aL3263138839L
aL3501962422L
aL3319087985L
aL2901992178L
aL2496925290L
aI275309013
aL3832071141L
aI1003837020
aL3309959009L
aL3749527212L
aL3242336909L
aI1550403516
aL3749057413L
aI1684287974
aL3835766175L
aL3697334657L
aI540191849
aI341032951
aL3579380116L
aL2654631331L
aI179999450
aL3341393788L
aL3731901754L
aL2306835946L
aL3130958685L
aL3130997423L
aL2911104058L
aL3130941303L
aI396999574
aL3099824580L
aL2172423304L
aL3648458606L
aL2513031072L
aL3718789042L
aL2372174256L
aI141453630
aI112696718
aL2911109272L
aI563095591
aasS'obj'
p7
ccopy_reg
_reconstructor
p8
(ctweepy.models
User
p9
c__builtin__
object
p10
Ntp11
Rp12
(dp13
S'follow_request_sent'
p14
I00
sS'has_extended_profile'
p15
I01
sS'profile_use_background_image'
p16
I01
sS'profile_sidebar_fill_color'
p17
VDDEEF6
p18
sS'id'
p19
L3718387157L
sS'verified'
p20
I00
sS'entities'
p21
(dp22
Vdescription
p23
(dp24
Vurls
p25
(lp26
sssS'profile_image_url_https'
p27
Vhttps://pbs.twimg.com/profile_images/645604205839917056/5v7oovx5_normal.jpg
p28
sS'_json'
p29
(dp30
Vfollow_request_sent
p31
I00
sVhas_extended_profile
p32
I01
sVprofile_use_background_image
p33
I01
sVdefault_profile_image
p34
I00
sVid
p35
L3718387157L
sVprofile_background_image_url_https
p36
Vhttps://abs.twimg.com/images/themes/theme1/bg.png
p37
sVverified
p38
I00
sVprofile_text_color
p39
V333333
p40
sVprofile_image_url_https
p41
g28
sVprofile_sidebar_fill_color
p42
g18
sVentities
p43
g22
sVfollowers_count
p44
I73
sVprofile_sidebar_border_color
p45
VC0DEED
p46
sVid_str
p47
V3718387157
p48
sVprofile_background_color
p49
VC0DEED
p50
sVlisted_count
p51
I1
sVstatus
p52
(dp53
Vcontributors
p54
NsVtruncated
p55
I00
sVtext
p56
VRT @WolfShotEnergy: $FBEC News:  WolfShot Hemp Energy Now Available on @Amazon https://t.co/eXDvq6hWpo  &amp; Retail site (https://t.co/H65LHHz\u2026
p57
sVin_reply_to_status_id
p58
Nsg35
L664810563915091969L
sVfavorite_count
p59
I0
sVsource
p60
V<a href="http://www.hootsuite.com" rel="nofollow">Hootsuite</a>
p61
sVretweeted
p62
I00
sVcoordinates
p63
Nsg43
(dp64
Vsymbols
p65
(lp66
(dp67
Vindices
p68
(lp69
I20
aI25
asg56
VFBEC
p70
sasVuser_mentions
p71
(lp72
(dp73
g35
L3246118910L
sg68
(lp74
I3
aI18
asg47
V3246118910
p75
sVscreen_name
p76
VWolfShotEnergy
p77
sVname
p78
VWolfShot
p79
sa(dp80
g35
I20793816
sg68
(lp81
I71
aI78
asg47
V20793816
p82
sg76
Vamazon
p83
sg78
VAmazon
p84
sasVhashtags
p85
(lp86
sg25
(lp87
(dp88
Vurl
p89
Vhttps://t.co/eXDvq6hWpo
p90
sg68
(lp91
I79
aI102
asVexpanded_url
p92
Vhttp://bit.ly/1MDggjz
p93
sVdisplay_url
p94
Vbit.ly/1MDggjz
p95
sa(dp96
g89
Vhttps://t.co/H65LHHzPPD
p97
sg68
(lp98
I123
aI144
asg92
Vhttp://wolfenergyshot.com
p99
sg94
Vwolfenergyshot.com
p100
sassVin_reply_to_screen_name
p101
Nsg47
V664810563915091969
p102
sVretweet_count
p103
I13
sVin_reply_to_user_id
p104
NsVfavorited
p105
I00
sVretweeted_status
p106
(dp107
g54
Nsg55
I00
sg56
V$FBEC News:  WolfShot Hemp Energy Now Available on @Amazon https://t.co/eXDvq6hWpo  &amp; Retail site (https://t.co/H65LHHzPPD) is getting busy!
p108
sg58
Nsg35
L664801144875712512L
sg59
I2
sg60
V<a href="http://twitter.com" rel="nofollow">Twitter Web Client</a>
p109
sg62
I00
sg63
Nsg43
(dp110
g65
(lp111
(dp112
g68
(lp113
I0
aI5
asg56
VFBEC
p114
sasg71
(lp115
(dp116
g35
I20793816
sg68
(lp117
I51
aI58
asg47
V20793816
p118
sg76
Vamazon
p119
sg78
VAmazon
p120
sasg85
(lp121
sg25
(lp122
(dp123
g89
Vhttps://t.co/eXDvq6hWpo
p124
sg68
(lp125
I59
aI82
asg92
Vhttp://bit.ly/1MDggjz
p126
sg94
Vbit.ly/1MDggjz
p127
sa(dp128
g89
Vhttps://t.co/H65LHHzPPD
p129
sg68
(lp130
I103
aI126
asg92
Vhttp://wolfenergyshot.com
p131
sg94
Vwolfenergyshot.com
p132
sassg101
Nsg47
V664801144875712512
p133
sg103
I13
sg104
Nsg105
I00
sVgeo
p134
NsVin_reply_to_user_id_str
p135
NsVpossibly_sensitive
p136
I00
sVlang
p137
Ven
p138
sVcreated_at
p139
VThu Nov 12 13:45:19 +0000 2015
p140
sVin_reply_to_status_id_str
p141
NsVplace
p142
Nssg134
Nsg135
Nsg136
I00
sg137
Ven
p143
sg139
VThu Nov 12 14:22:44 +0000 2015
p144
sg141
Nsg142
NssVis_translation_enabled
p145
I00
sVutc_offset
p146
NsVstatuses_count
p147
I44
sg23
VDolphins, Heat, Canes Fanatic! Momentum trader. Everything is my own opinion
p148
sVfriends_count
p149
I168
sVlocation
p150
VMiami, FL
p151
sVprofile_link_color
p152
V0084B4
p153
sVprofile_image_url
p154
Vhttp://pbs.twimg.com/profile_images/645604205839917056/5v7oovx5_normal.jpg
p155
sVfollowing
p156
I00
sVgeo_enabled
p157
I00
sVprofile_background_image_url
p158
Vhttp://abs.twimg.com/images/themes/theme1/bg.png
p159
sg76
VCHasting98
p160
sg137
Ven
p161
sVprofile_background_tile
p162
I00
sVfavourites_count
p163
I8
sg78
VChris Hasting
p164
sVnotifications
p165
I00
sg89
Nsg139
VSun Sep 20 14:17:57 +0000 2015
p166
sVcontributors_enabled
p167
I00
sVtime_zone
p168
NsVprotected
p169
I00
sVdefault_profile
p170
I01
sVis_translator
p171
I00
ssS'contributors_enabled'
p172
I00
sS'profile_text_color'
p173
g40
sS'followers_count'
p174
I73
sS'profile_sidebar_border_color'
p175
g46
sS'id_str'
p176
g48
sS'default_profile_image'
p177
I00
sS'listed_count'
p178
I1
sS'status'
p179
g8
(ctweepy.models
Status
p180
g10
Ntp181
Rp182
(dp183
S'favorited'
p184
I00
sS'contributors'
p185
NsS'truncated'
p186
I00
sS'text'
p187
g57
sS'source_url'
p188
Vhttp://www.hootsuite.com
p189
sS'possibly_sensitive'
p190
I00
sS'in_reply_to_status_id'
p191
NsS'geo'
p192
Nsg19
L664810563915091969L
sS'favorite_count'
p193
I0
sS'lang'
p194
g143
sS'retweeted_status'
p195
g8
(g180
g10
Ntp196
Rp197
(dp198
g184
I00
sg185
Nsg186
I00
sg187
g108
sg188
Vhttp://twitter.com
p199
sg190
I00
sg191
Nsg192
Nsg19
L664801144875712512L
sg193
I2
sg194
g138
sg21
g110
sS'created_at'
p200
cdatetime
datetime
p201
(S'\x07\xdf\x0b\x0c\r-\x13\x00\x00\x00'
p202
tp203
Rp204
sg29
g107
sS'coordinates'
p205
NsS'in_reply_to_user_id_str'
p206
NsS'source'
p207
VTwitter Web Client
p208
sS'in_reply_to_status_id_str'
p209
NsS'in_reply_to_screen_name'
p210
Nsg176
g133
sS'retweeted'
p211
I00
sS'place'
p212
NsS'retweet_count'
p213
I13
sS'in_reply_to_user_id'
p214
Nsbsg21
g64
sg200
g201
(S'\x07\xdf\x0b\x0c\x0e\x16,\x00\x00\x00'
p215
tp216
Rp217
sg29
g53
sg205
Nsg206
Nsg207
VHootsuite
p218
sg209
Nsg210
Nsg176
g102
sg211
I00
sg212
Nsg213
I13
sg214
NsbsS'is_translation_enabled'
p219
I00
sS'utc_offset'
p220
NsS'statuses_count'
p221
I44
sS'description'
p222
g148
sS'friends_count'
p223
I168
sS'location'
p224
g151
sS'profile_link_color'
p225
g153
sS'profile_image_url'
p226
g155
sS'notifications'
p227
I00
sS'geo_enabled'
p228
I00
sS'profile_background_color'
p229
g50
sS'profile_background_image_url'
p230
g159
sS'screen_name'
p231
g160
sg194
g161
sg1
I00
sS'profile_background_tile'
p232
I00
sS'favourites_count'
p233
I8
sS'name'
p234
g164
sS'url'
p235
Nsg200
g201
(S'\x07\xdf\t\x14\x0e\x119\x00\x00\x00'
p236
tp237
Rp238
sS'profile_background_image_url_https'
p239
g37
sS'time_zone'
p240
NsS'protected'
p241
I00
sS'default_profile'
p242
I01
sS'is_translator'
p243
I00
sbs.