(dp0
S'following'
p1
(lp2
(lp3
L2434306537L
aL3708626476L
aI350132995
aI316283375
aI627765164
aL3394850381L
aI1480781917
aI574166062
aI47383148
aL2817966517L
aL3000404559L
aI585871830
aL4108323184L
aL3840546027L
aL2976727463L
aL2320755170L
aI36450488
aL3346269784L
aL3018809793L
aI19319290
aL4009561582L
aI127967449
aI14886375
aI157878520
aL2361661062L
aI936560438
aI1304060246
aI529018569
aI1360358396
aI317562281
aL2352562980L
aI1108126932
aI17010198
aI100767876
aI860252845
aL2315654938L
aL3001318950L
aL2984727962L
aI174965200
aL2511518101L
aL2844641049L
aL3884295673L
aI85197520
aI1433111766
aL2497134830L
aL2445064535L
aI47993676
aL3637162696L
aL2448547801L
aL2401224163L
aL3012980234L
aL2249335272L
aI583123413
aI250317700
aL2203436131L
aI214433021
aL2203768596L
aL2957588359L
aL2203736545L
aL2470197612L
aL3425010886L
aL2886226879L
aI128500019
aL3395170581L
aI303800471
aL2203474081L
aL2704486915L
aL3064946405L
aI45683950
aI43111757
aL3139590424L
aI60317232
aI43112319
aI233121515
aL2656800877L
aL3177519545L
aI592252072
aL2535776749L
aL3389718273L
aL2607601184L
aI843798122
aI36894359
aI134279494
aL3346980087L
aL2444104684L
aI134782830
aL3146648621L
aL3222291459L
aI413474832
aI296253096
aI420222544
aI511223459
aI91626506
aL3028659338L
aI921080898
aI25073877
aL3115865584L
aI26849804
aL2753490355L
aI18962418
aL2991546292L
aL3065277999L
aL2945522202L
aL2766768008L
aL2391736411L
aL2706598266L
aI52889007
aL2302754738L
aL2533540607L
aL2454124671L
aI881182010
aL2988826124L
aI48486244
aI30012714
aI114274087
aI265245056
aI316025462
aL3154923455L
aL2993883215L
aL2890616938L
aL2992414321L
aI107721194
aL2375681418L
aL2429539135L
aI704219118
aL3031923352L
aI1686907742
aL3003346917L
aL2401545469L
aI56424932
aL2822938479L
aI1719913338
aI60478078
aL3108436678L
aL2407200081L
aI603141461
aI799122090
aL3091318521L
aL2445459474L
aI262652488
aI217158764
aL3065083689L
aI1444614408
aI492335537
aI15897179
aI604701612
aI480063071
aL2967229294L
aI976797445
aI120672388
aI320524842
aI21598149
aI107646745
aI1530916794
aL2187356088L
aL2972367777L
aI148268103
aI862756034
aI409617637
aL2365863967L
aI1286540352
aL2472415335L
aL2516029806L
aL2961171227L
aI61575695
aL2962375990L
aL2825270328L
aL2253557707L
aI441248955
aI1057973035
aI413955323
aI595632928
aL2270841345L
aL2280064627L
aasS'followers'
p4
(lp5
(lp6
L2434306537L
aL3708626476L
aI350132995
aL4108364716L
aL3377829539L
aL4117430956L
aL3930897327L
aL3903603674L
aL4109685195L
aI316283375
aL4109140881L
aL2451845305L
aL4120078699L
aL4108272159L
aI234956680
aI1924312855
aL3983792294L
aI627765164
aL3394850381L
aI1480781917
aI708110208
aL4163310809L
aI574166062
aI47383148
aI90970076
aL2817966517L
aI306324505
aL4108323184L
aI1018957536
aL3234774708L
aI1719446408
aL3840546027L
aI52944689
aI398588725
aI1924310023
aL3688307962L
aL3647798534L
aL3378845367L
aL3319102108L
aL2800070870L
aL2320755170L
aI36450488
aI248260026
aL3346269784L
aL3578893212L
aL3018809793L
aI19319290
aL2551188847L
aL2837882056L
aL4009561582L
aL2968256134L
aI127967449
aI1870304113
aL4003017682L
aI14886375
aI157878520
aL2765781588L
aL2361661062L
aL2184412099L
aI936560438
aI1304060246
aL3864652213L
aI362859292
aI1360358396
aL3374436261L
aL3278885293L
aI317562281
aL3100220683L
aL3884295673L
aI1964253914
aI17010198
aI100767876
aI860252845
aL2315654938L
aL3001318950L
aI112696718
aL3986402843L
aL3012980234L
aL2984727962L
aI52483388
aL2511518101L
aL3019442781L
aI1884628062
aI85197520
aI1433111766
aL2445064535L
aL3637162696L
aI386492564
aI81432232
aL2448547801L
aL2401224163L
aL2249335272L
aI9555372
aI466877893
aL3891719759L
aI583123413
aL3689101221L
aI250317700
aI90964746
aL2203436131L
aI214433021
aL2203768596L
aL2957588359L
aL2203736545L
aL2470197612L
aI1912522274
aL2573065969L
aL3425010886L
aL2886226879L
aI128500019
aI1158151826
aL3395170581L
aL3092038396L
aI303800471
aL2502970082L
aL2203474081L
aL2704486915L
aL3064946405L
aI45683950
aI43111757
aI1900455446
aL3139590424L
aI60317232
aI43112319
aI233121515
aL2656800877L
aL3140096339L
aL3177519545L
aI592252072
aL2535776749L
aL3389718273L
aL2607601184L
aI843798122
aI36894359
aI134279494
aL2456385223L
aL2355818223L
aL3400906282L
aI114731959
aL3346980087L
aI316336788
aL3272617020L
aI316135636
aI134782830
aL3146648621L
aL3222291459L
aI413474832
aI296253096
aI420222544
aI1909239512
aL3086176222L
aI17030366
aI511223459
aI91626506
aL3028659338L
aI971129101
aI921080898
aL3254909413L
aL2233122444L
aI97501268
aI273918171
aL3115865584L
aL3219370802L
aI26849804
aL2753490355L
aL3245879661L
aI18962418
aL2991546292L
aL3065277999L
aI1656509761
aL2766768008L
aL2391736411L
aL2706598266L
aI52889007
aL2302754738L
aL3296439915L
aL3297678939L
aL2533540607L
aL2454124671L
aI1161205908
aI1322888335
aL2988826124L
aI881182010
aL3289869671L
aI48486244
aI30012714
aL2480970998L
aI1847302273
aI114274087
aL3071762462L
aI265245056
aI316025462
aL3154923455L
aL2993883215L
aI131043626
aL2890616938L
aL2992414321L
aL3164674528L
aI107721194
aL2375681418L
aI788184306
aL2441826812L
aL2429539135L
aL2437708379L
aI704219118
aI23429148
aL3031923352L
aI1686907742
aL3185728742L
aL3003346917L
aL2360009283L
aI56424932
aL2822938479L
aI1719913338
aL3198323093L
aI599556349
aL2589726306L
aL2490689094L
aI60478078
aL3108436678L
aL2407200081L
aI603141461
aI799122090
aI20195128
aL3091318521L
aL2445459474L
aI303531344
aI217158764
aI24724155
aL2842775182L
aL3128939960L
aI46956517
aI203981879
aL3058966145L
aI615329833
aI112057151
aL3131711752L
aL3121448921L
aL3130033169L
aL3112305997L
aI287885364
aL2574463550L
aI221497409
aI253010355
aI492335537
aI15897179
aI604701612
aI480063071
aI15756049
aI611817117
aL3073478049L
aL2967229294L
aI1444614408
aL3065083689L
aI862756034
aL2941468171L
aI320524842
aI120672388
aI976797445
aI21598149
aI1530916794
aI107646745
aL2444104684L
aL2972367777L
aL2187356088L
aI148268103
aL2365863967L
aI1286540352
aL2472415335L
aL2990706009L
aL2516029806L
aL2961171227L
aI61575695
aL2962375990L
aL2825270328L
aI1705766478
aL2149877280L
aL2253557707L
aI1057973035
aI413955323
aI595632928
aL2280064627L
aI156338013
aL2767912162L
aL2421776887L
aL2311682244L
aL2613986582L
aL2353739293L
aL2666720128L
aI283302980
aL2270841345L
aI95410681
aI127591460
aI1107140576
aI262652488
aasS'obj'
p7
ccopy_reg
_reconstructor
p8
(ctweepy.models
User
p9
c__builtin__
object
p10
Ntp11
Rp12
(dp13
S'follow_request_sent'
p14
NsS'has_extended_profile'
p15
I00
sS'profile_use_background_image'
p16
I01
sS'profile_sidebar_fill_color'
p17
VE6F6F9
p18
sS'id'
p19
I374101804
sS'verified'
p20
I00
sS'entities'
p21
(dp22
Vdescription
p23
(dp24
Vurls
p25
(lp26
sssS'profile_image_url_https'
p27
Vhttps://pbs.twimg.com/profile_images/2881828687/716ce78e8b33d46a5e9f374ac916ad63_normal.png
p28
sS'_json'
p29
(dp30
Vfollow_request_sent
p31
NsVhas_extended_profile
p32
I00
sVprofile_use_background_image
p33
I01
sVdefault_profile_image
p34
I00
sVid
p35
I374101804
sVprofile_background_image_url_https
p36
Vhttps://abs.twimg.com/images/themes/theme17/bg.gif
p37
sVverified
p38
I00
sVprofile_text_color
p39
V333333
p40
sVprofile_image_url_https
p41
g28
sVprofile_sidebar_fill_color
p42
g18
sVentities
p43
g22
sVfollowers_count
p44
I295
sVprofile_sidebar_border_color
p45
VDBE9ED
p46
sVid_str
p47
V374101804
p48
sVprofile_background_color
p49
VDBE9ED
p50
sVlisted_count
p51
I35
sVstatus
p52
(dp53
Vcontributors
p54
NsVtruncated
p55
I00
sVtext
p56
VRT @BakkenShale: US Warplanes Strike ISIS 116 Oil Trucks in Syria https://t.co/TO9Fut1Nlj #oil #syria
p57
sVin_reply_to_status_id
p58
Nsg35
L666358689687842818L
sVfavorite_count
p59
I0
sVsource
p60
V<a href="http://twitter.com" rel="nofollow">Twitter Web Client</a>
p61
sVretweeted
p62
I00
sVcoordinates
p63
Nsg43
(dp64
Vsymbols
p65
(lp66
sVuser_mentions
p67
(lp68
(dp69
g35
I48486244
sVindices
p70
(lp71
I3
aI15
asg47
V48486244
p72
sVscreen_name
p73
VBakkenShale
p74
sVname
p75
VOil, NatGas, Energy
p76
sasVhashtags
p77
(lp78
(dp79
g70
(lp80
I90
aI94
asg56
Voil
p81
sa(dp82
g70
(lp83
I95
aI101
asg56
Vsyria
p84
sasg25
(lp85
(dp86
Vurl
p87
Vhttps://t.co/TO9Fut1Nlj
p88
sg70
(lp89
I66
aI89
asVexpanded_url
p90
Vhttp://www.nytimes.com/2015/11/17/world/middleeast/us-strikes-syria-oil.html
p91
sVdisplay_url
p92
Vnytimes.com/2015/11/17/wor\u2026
p93
sassVin_reply_to_screen_name
p94
Nsg47
V666358689687842818
p95
sVretweet_count
p96
I4
sVin_reply_to_user_id
p97
NsVfavorited
p98
I00
sVretweeted_status
p99
(dp100
g54
Nsg55
I00
sg56
VUS Warplanes Strike ISIS 116 Oil Trucks in Syria https://t.co/TO9Fut1Nlj #oil #syria
p101
sg58
Nsg35
L666358629034012672L
sg59
I2
sg60
V<a href="http://twitter.com" rel="nofollow">Twitter Web Client</a>
p102
sg62
I00
sg63
Nsg43
(dp103
g65
(lp104
sg67
(lp105
sg77
(lp106
(dp107
g70
(lp108
I73
aI77
asg56
Voil
p109
sa(dp110
g70
(lp111
I78
aI84
asg56
Vsyria
p112
sasg25
(lp113
(dp114
g87
Vhttps://t.co/TO9Fut1Nlj
p115
sg70
(lp116
I49
aI72
asg90
Vhttp://www.nytimes.com/2015/11/17/world/middleeast/us-strikes-syria-oil.html
p117
sg92
Vnytimes.com/2015/11/17/wor\u2026
p118
sassg94
Nsg47
V666358629034012672
p119
sg96
I4
sg97
Nsg98
I00
sVgeo
p120
NsVin_reply_to_user_id_str
p121
NsVpossibly_sensitive
p122
I00
sVlang
p123
Ven
p124
sVcreated_at
p125
VMon Nov 16 20:54:12 +0000 2015
p126
sVin_reply_to_status_id_str
p127
NsVplace
p128
Nssg120
Nsg121
Nsg122
I00
sg123
Ven
p129
sg125
VMon Nov 16 20:54:26 +0000 2015
p130
sg127
Nsg128
NssVis_translation_enabled
p131
I00
sVutc_offset
p132
I-18000
sVstatuses_count
p133
I10635
sg23
Vswing trader,  enjoy m.d. ing!
p134
sVfriends_count
p135
I174
sVlocation
p136
V
p137
sVprofile_link_color
p138
VCC3366
p139
sVprofile_image_url
p140
Vhttp://pbs.twimg.com/profile_images/2881828687/716ce78e8b33d46a5e9f374ac916ad63_normal.png
p141
sVfollowing
p142
NsVgeo_enabled
p143
I00
sVprofile_background_image_url
p144
Vhttp://abs.twimg.com/images/themes/theme17/bg.gif
p145
sg73
Vnj46nick
p146
sg123
Ven
p147
sVprofile_background_tile
p148
I00
sVfavourites_count
p149
I5593
sg75
Vnj46nick
p150
sVnotifications
p151
Nsg87
Nsg125
VThu Sep 15 18:19:58 +0000 2011
p152
sVcontributors_enabled
p153
I00
sVtime_zone
p154
VEastern Time (US & Canada)
p155
sVprotected
p156
I00
sVdefault_profile
p157
I00
sVis_translator
p158
I00
ssS'contributors_enabled'
p159
I00
sS'profile_text_color'
p160
g40
sS'followers_count'
p161
I295
sS'profile_sidebar_border_color'
p162
g46
sS'id_str'
p163
g48
sS'default_profile_image'
p164
I00
sS'listed_count'
p165
I35
sS'status'
p166
g8
(ctweepy.models
Status
p167
g10
Ntp168
Rp169
(dp170
S'favorited'
p171
I00
sS'contributors'
p172
NsS'truncated'
p173
I00
sS'text'
p174
g57
sS'source_url'
p175
Vhttp://twitter.com
p176
sS'possibly_sensitive'
p177
I00
sS'in_reply_to_status_id'
p178
NsS'geo'
p179
Nsg19
L666358689687842818L
sS'favorite_count'
p180
I0
sS'lang'
p181
g129
sS'retweeted_status'
p182
g8
(g167
g10
Ntp183
Rp184
(dp185
g171
I00
sg172
Nsg173
I00
sg174
g101
sg175
Vhttp://twitter.com
p186
sg177
I00
sg178
Nsg179
Nsg19
L666358629034012672L
sg180
I2
sg181
g124
sg21
g103
sS'created_at'
p187
cdatetime
datetime
p188
(S'\x07\xdf\x0b\x10\x146\x0c\x00\x00\x00'
p189
tp190
Rp191
sg29
g100
sS'coordinates'
p192
NsS'in_reply_to_user_id_str'
p193
NsS'source'
p194
VTwitter Web Client
p195
sS'in_reply_to_status_id_str'
p196
NsS'in_reply_to_screen_name'
p197
Nsg163
g119
sS'retweeted'
p198
I00
sS'place'
p199
NsS'retweet_count'
p200
I4
sS'in_reply_to_user_id'
p201
Nsbsg21
g64
sg187
g188
(S'\x07\xdf\x0b\x10\x146\x1a\x00\x00\x00'
p202
tp203
Rp204
sg29
g53
sg192
Nsg193
Nsg194
VTwitter Web Client
p205
sg196
Nsg197
Nsg163
g95
sg198
I00
sg199
Nsg200
I4
sg201
NsbsS'is_translation_enabled'
p206
I00
sS'utc_offset'
p207
I-18000
sS'statuses_count'
p208
I10635
sS'description'
p209
g134
sS'friends_count'
p210
I174
sS'location'
p211
g137
sS'profile_link_color'
p212
g139
sS'profile_image_url'
p213
g141
sS'notifications'
p214
NsS'geo_enabled'
p215
I00
sS'profile_background_color'
p216
g50
sS'profile_background_image_url'
p217
g145
sS'screen_name'
p218
g146
sg181
g147
sg1
I00
sS'profile_background_tile'
p219
I00
sS'favourites_count'
p220
I5593
sS'name'
p221
g150
sS'url'
p222
Nsg187
g188
(S'\x07\xdb\t\x0f\x12\x13:\x00\x00\x00'
p223
tp224
Rp225
sS'profile_background_image_url_https'
p226
g37
sS'time_zone'
p227
g155
sS'protected'
p228
I00
sS'default_profile'
p229
I00
sS'is_translator'
p230
I00
sbs.