(dp0
S'following'
p1
(lp2
(lp3
I24458076
aI83473673
aL3270330318L
aI1377322334
aI1536791610
aI1180379185
aI1350976099
aL2502510013L
aI229246054
aI1244002999
aI910828603
aL2924075279L
aL2896309515L
aI18574232
aL2788207308L
aI351730761
aI188485201
aL3070937533L
aI719380360
aI21923455
aL3258224833L
aL3316202552L
aI182345692
aL2850249896L
aI1952336858
aL3259893108L
aL3306900596L
aL3299953585L
aI1286987184
aI1195080656
aI7212562
aI40336792
aI493974431
aI360222719
aI42552891
aI65738112
aI32738539
aI202831854
aI255175137
aI155997861
aI456295047
aI1644170264
aI28067320
aI807973735
aI12947382
aI10005212
aI27955973
aI254757841
aL2612582106L
aI16607099
aI1646385932
aI1710418020
aI718728986
aI521321191
aI25355724
aI35586563
aI1305940272
aI13451802
aI729468343
aI17602896
aI19870967
aI381688396
aI37921383
aL3121950808L
aI24258522
aI261561552
aI66786403
aL2820185434L
aL2716951720L
aI316934930
aI1624805604
aL3305493384L
aI139185720
aI23829268
aI148498799
aL2419220472L
aI18655891
aI91919470
aL3123201728L
aL2363028126L
aI63302020
aL2481111523L
aL3035295984L
aL2759742422L
aI1726416536
aI1736045221
aI902333888
aI110396781
aL2483271108L
aI22461067
aL3384184768L
aI88703900
aI1455032653
aI28420827
aI243939268
aL3355313961L
aI1015962704
aI972049663
aL3144928678L
aI205399718
aI40076725
aI1173045517
aI33466150
aI709226545
aI44228076
aI26369893
aI292090451
aL3187803215L
aI25025756
aL3254894580L
aI1648531873
aI16666262
aI14803953
aI20096001
aI284504731
aI224706419
aI384067229
aI1187763794
aI9695312
aI17577292
aI95711070
aI261793772
aL3045656889L
aL2203440420L
aI28370738
aI581971753
aI62610707
aI172904695
aI455973039
aL2997374312L
aI365657821
aL2781115008L
aI535932595
aI786793927
aI299364430
aI13557972
aI117856865
aI15164565
aI155627418
aL2517988075L
aI1526052913
aI18331560
aI575577512
aI55934105
aI19413393
aI370501852
aL2853830799L
aI365658546
aI472587261
aI806906060
aI222876790
aI393824512
aI25506954
aI174777159
aI28394336
aI32145040
aI208290586
aL2323982664L
aI160604871
aI84516004
aL3244056171L
aL3054787559L
aL3192028751L
aI90334660
aI1241977832
aI34146256
aI21759163
aI24771507
aL2579500110L
aL3069088539L
aI87813585
aI786293766
aL3151786104L
aL2807319442L
aI1084873346
aI164874718
aI1533006836
aL2738388116L
aL3241064373L
aI212127041
aI34951988
aL2220015630L
aI588352379
aI601001021
aI19539935
aI1512550418
aI18857913
aL3153026670L
aL2398459267L
aL2433667077L
aI23181999
aI403598464
aL3103714278L
aI499618721
aI1537478390
aI111222977
aI91274231
aI1403919698
aI1056328002
aI1437212226
aI1418745782
aI27747985
aL2286097290L
aI15110357
aI1287741464
aI702121489
aI20402945
aI23566984
aI1434683605
aI390463818
aI516325182
aI23634351
aI518782533
aI132368510
aI22314070
aI1639238282
aL2335072347L
aI555448499
aI361270172
aI391037985
aL2715115656L
aL3063032281L
aI241382835
aI47786101
aL2345778774L
aI74849324
aI17768307
aI23484734
aL2300284268L
aI402876893
aL2664166080L
aL2893511188L
aL2200540916L
aL2380451220L
aI18031704
aL2885532683L
aI44196397
aL2513341416L
aI266339346
aI1273146116
aL2800460956L
aI613826076
aL2336982583L
aI1015995660
aI141748686
aI300378623
aI270481972
aI31231597
aL2950651047L
aI480517935
aL2951481576L
aI106498703
aI67358777
aI28164923
aI16451932
aI15281391
aI91478624
aI15568127
aI14216123
aI41611750
aI21912695
aI47586577
aI62220263
aI41369172
aL2901322612L
aI1124472990
aI17978025
aI986235307
aI199431244
aI229943617
aI1618558825
aI297401085
aI317522823
aL2796437380L
aL2696044759L
aI442200814
aI1418955470
aI14724725
aI20643933
aI2771421
aI1362222102
aI15203862
aI23267228
aI14478644
aI16146823
aI18246129
aI50823141
aI326552109
aI57473694
aI1101279296
aI94889434
aI24479376
aI235441535
aI116904515
aI441951136
aI135249573
aI829673054
aI31451408
aI353990363
aI1244325504
aI1948294874
aI57795767
aI26588937
aI25291394
aI22941732
aI19344703
aI17967428
aI16029470
aI74486139
aL2883378225L
aL2299967275L
aI17484680
aI532552543
aI339787006
aI123311353
aI27821859
aI1481036377
aI1648629770
aI14353392
aI331162098
aI260741931
aI18898143
aI634926562
aI87707239
aI772368
aI21832608
aI15676118
aI17781955
aI111188612
aI330921167
aI29641317
aI1180504105
aI20472641
aI286942775
aI987982706
aI1173144415
aI24987131
aI17094323
aI23827692
aI36409908
aI263797483
aL2417641147L
aI32406656
aL2296857139L
aI480212555
aI19380829
aI52529345
aI158414847
aI549311748
aL2321292319L
aL2298812990L
aI713010134
aL2559110631L
aI934681
aI364477412
aI137077542
aI1548227732
aL2473789129L
aI844035216
aI16122915
aI94865995
aI1598455092
aI110009988
aI348667248
aI40943943
aI20382707
aI28851521
aI14854462
aI81891054
aI383811499
aI861585253
aI89739822
aI127362395
aI707861077
aI170863272
aI1430616829
aI55637679
aI554468819
aI268393114
aI284672007
aI60919541
aI112236047
aI16229651
aI17003765
aI142448676
aL2504566591L
aI14629315
aI1376745524
aI92568116
aI433617359
aL2319030042L
aI160941691
aI183133891
aI16887429
aI127517929
aI27233816
aI41880200
aI26937936
aI48054535
aI115024789
aI1172513887
aI177226801
aI543205075
aL2436102949L
aI1621209960
aI323019476
aI824922920
aI132394519
aI1270790202
aL2432304224L
aI1882281708
aI834006014
aI53768656
aI14821678
aL2395940689L
aL2337443358L
aI41170977
aI1663641961
aI1949913636
aI318841966
aI1633163803
aI349300271
aI493680134
aL2282671736L
aI1042103586
aI84408482
aI453181663
aI6427882
aI20180686
aI207773069
aI14266588
aI1363292538
aI381780063
aI1694521772
aI16669866
aI16458824
aI15601542
aI260822385
aL2440499917L
aI42938207
aI42584086
aI1915977241
aI17986973
aI1574273683
aI256596567
aI164516787
aI24790255
aI7837242
aI262275156
aI561447418
aI6486602
aI20439140
aI522444116
aI19477006
aI1576009190
aI3819701
aI1246759100
aI20607924
aI410060790
aL2344152775L
aI24741685
aI19601111
aI17034634
aI63833789
aI13334762
aI14952023
aI519958592
aI457033547
aI43001239
aL2354236214L
aI16402507
aI19312845
aI238099363
aI16913772
aI1157784678
aI80236632
aI492532196
aI243764863
aI331057915
aI624956093
aI398954599
aI410013106
aI27134962
aI335094746
aI919763606
aI1566432384
aI1482002306
aI1119448704
aI30282704
aI911510670
aI1890987415
aL2246744010L
aL2385678122L
aI358321187
aI68506041
aI134832355
aI266136984
aI35890043
aI37106040
aI40779625
aI175578826
aL2338762538L
aI73987740
aI219807531
aI20275150
aI65053086
aI19795404
aL2183317844L
aI1589385896
aL2316473670L
aI1043595799
aI390309503
aI479702228
aI125477000
aI477269214
aI1930410200
aI314291438
aI37964451
aI575854738
aI463100232
aL2355140808L
aI270145151
aI278822333
aI28371367
aI771041412
aI111991872
aI1415927408
aI596793393
aI802040575
aI995990701
aL2340874712L
aI232669481
aL2349609222L
aI1710514160
aI26281077
aI1549317560
aI1474682706
aI282127914
aI277709871
aI1342778618
aI1541941890
aI369031482
aI112747576
aI85724849
aI18599338
aI263342628
aI18140876
aI1358070427
aI480819245
aI17901282
aI69354263
aI211950381
aI1921222806
aI233810693
aI1918481876
aI270697622
aI613626869
aI129292928
aI365875069
aI21640893
aI60972923
aI34917592
aI123151917
aI184958361
aI146269275
aI34917790
aI206034095
aI28200735
aI225123799
aI150248263
aI472304182
aL2335250258L
aI255704940
aI204688509
aI88720913
aI123417995
aL2283181994L
aI1961975689
aI277715455
aI412641144
aI1491215444
aI1662785988
aI1713757866
aI26670808
aI27238662
aI18382863
aI27237742
aL2229578413L
aL2263767882L
aI402592850
aL2312502458L
aI509531549
aI809711760
aL2281044080L
aI17469289
aI91132611
aI19425947
aI9300262
aI49698488
aL2182391449L
aI29479859
aI20663500
aI61216579
aI15374426
aI362570655
aI15766628
aI36665547
aI15829003
aI23449774
aI218061205
aL2281894225L
aL2298104136L
aI1377805832
aI1248010915
aI1198817450
aI17515254
aI16621190
aI29330632
aI21700258
aI249414790
aI19732477
aI40321822
aI221827384
aI23492385
aI20696624
aI26288291
aI19405525
aI26238997
aI26298334
aI461676218
aI15706729
aI22292529
aI24224425
aI12594922
aI66219976
aI1428219750
aI73439482
aI30923681
aI1358062944
aI30770263
aI26541422
aI17220613
aI57097104
aI75691804
aI137365854
aI16877611
aI32192446
aI1559587680
aI89503894
aI124335068
aI48785884
aI1112465706
aI18173624
aI65289126
aI701615052
aI15687962
aI701625379
aI133880286
aI570218986
aI27042513
aI393852070
aI25533208
aI571083342
aI580097412
aI254218516
aI47285504
aI23016395
aI436292177
aI205302299
aI22676390
aI102278356
aI256573865
aI55748107
aI36686415
aI82939583
aI210921551
aI57084769
aI228794007
aI97540618
aI27698202
aI16740880
aI41612006
aI18091904
aI274119641
aI200913899
aI65992743
aI32939851
aI24523660
aI36528126
aI115093438
aI226765016
aI26527734
aI746579184
aI16605243
aI14375915
aI36485613
aI27697207
aI229636313
aI110066518
aI614722543
aI28220305
aI72870697
aI15617631
aI17393115
aI22498452
aI16223529
aI47905488
aI22518487
aI128990079
aI30152403
aI30022428
aI18224884
aI342327238
aI28620188
aI19688173
aI157102563
aI164134367
aI29155422
aI127026029
aI16688102
aI48624947
aL2192019594L
aI207229686
aI601218157
aI17008726
aI27091468
aI20710809
aI519862149
aI115516572
aI1425616446
aI549460929
aI873907645
aI586671909
aI1251969752
aI1498704344
aI1143247112
aI39791017
aI1520801851
aI1507055870
aI1658532282
aI34497630
aI1618624903
aI23374473
aI1601778894
aI1422862472
aI1531974024
aI1155706836
aI923218164
aI1360597614
aI1247607181
aI1558994624
aI1427759682
aI920351238
aI1177562682
aI465679807
aI769765364
aI601046375
aI172514499
aI397765224
aI422731987
aI289167707
aI383397499
aI372982669
aI297744868
aI379296557
aI310305026
aI128312101
aI135388964
aI1566185527
aI463413087
aI160776041
aI1609000416
aI69164213
aI17992804
aI1635594156
aI1911240588
aI76150700
aI1729350042
aI831710370
aI19465269
aI1205888934
aI84186552
aI1639691173
aI1392892314
aI1415733054
aI1850214998
aI1873017456
aI186652181
aI200145841
aI340731686
aI2563981
aI1528772270
aI180463340
aI62967906
aI25825382
aI167215976
aI207818752
aI595180375
aI722741936
aI164491938
aI424795847
aI491792422
aI387281462
aI95060299
aI250296385
aI46238160
aI352053266
aI19540483
aI1018652041
aI1002413198
aI550525229
aI625973816
aI27677483
aI49750261
aI1668652262
aI45055696
aI45143670
aI43403778
aI1599357794
aI102819523
aI246571305
aI174533632
aI382271636
aI42468577
aI22823970
aI16403943
aI10876852
aI890891
aI254282984
aI34422817
aI1206398228
aI1345702333
aI18945401
aI68707062
aI767545134
aI8637672
aI18880638
aI89235135
aI15294787
aI619687902
aI60642052
aI398092540
aI53153263
aI43192807
aI15227791
aI19058681
aI31353077
aI243381107
aI783214
aI13837292
aI31311757
aI382267114
aI56505125
aI31285982
aI103615607
aI238441114
aI14485018
aI1154498780
aI49219402
aI462210311
aI1570912478
aI26103360
aI218591577
aI453565344
aI26140710
aI22969812
aI85493094
aI438570178
aI33645850
aI414304780
aI1084308614
aI613858725
aI12650332
aI754190070
aI1534100570
aI18734310
aI28211935
aI117468728
aI73218364
aI39204454
aI30095789
aI20299862
aI111968804
aI24822280
aI157157264
aI418497252
aI59578815
aI96832013
aI1104655640
aI29663668
aI26946348
aI39635217
aI16157577
aI40215499
aI239760107
aI19841552
aI332509305
aI618256492
aI21365362
aI16814069
aI487107103
aI27347540
aI259352015
aI512063612
aI18881102
aI204485872
aI245616788
aI25326741
aI30723831
aI360714671
aI21426656
aI121492533
aI45599035
aI298210449
aI211956064
aI151925694
aI177012902
aI130216203
aI231573868
aI112030125
aI260544040
aI246356051
aI47515367
aI62554162
aI31914462
aI242100723
aI245015387
aI564774661
aI1415331
aI170424259
aI349602539
aI30065676
aI70201312
aI17455292
aI501990563
aI16365305
aI45587137
aI22808670
aI972651
aI38234856
aI28335710
aI297393967
aI185689362
aI16319797
aI18344425
aI76479319
aI16318652
aI18994444
aI19794306
aI238319766
aI150355398
aI36708321
aI267399199
aI185739738
aI262794965
aI88027681
aI26548315
aI166739404
aI1119539484
aI1552933032
aI20189084
aI15850297
aI19593182
aI30053829
aI301715055
aI22186858
aI30926148
aI112622036
aI15730053
aI27097871
aI40818079
aI66420490
aI15811342
aI12651622
aI16208467
aI160577468
aI15600799
aI18728980
aI27937405
aI224287785
aI17613550
aI17492846
aI39024033
aI13168792
aI23976386
aI373573313
aI32216988
aI195366854
aI94499861
aI50183016
aI18021820
aI28264034
aI46495396
aI85998054
aI36489080
aI78282397
aI118529349
aI101639458
aI100251085
aI111995936
aI71681726
aI190373509
aI95734006
aI39863180
aI16263989
aI625706483
aI21367604
aI293794570
aI37599351
aI607722976
aI106494199
aI929526265
aI17881816
aI26219238
aI589568610
aI12748572
aI102789042
aI520543984
aI252802322
aI621628020
aI868174886
aI298740311
aI121283211
aI456968746
aI111127036
aI1039518782
aI1276022011
aI325186039
aI770201618
aI320307173
aI19333617
aI1378528580
aI1523755454
aI567206079
aI1286638039
aI701489822
aI87403396
aI546267128
aI294311266
aI25439493
aI218823175
aI928962588
aI74569077
aI226285866
aI246599595
aI105326234
aI809273
aI17307429
aI2803191
aI193100641
aI74813709
aI21874395
aI17050737
aI378355908
aI173978918
aI48468185
aI464857068
aI10671602
aI15905925
aI16584443
aI1542382399
aI36072264
aI14787980
aI111364887
aI541915025
aI68915068
aI144483608
aI335320739
aI60919744
aI189502979
aI168949139
aI225151503
aI335295425
aI20602966
aI266146746
aI570332103
aI36240232
aI24229787
aI23506547
aI40005281
aI249317570
aI385174352
aI302733011
aI58422200
aI42632546
aI135574679
aI39608176
aI17884751
aI15382208
aI246712824
aI263791026
aI361634753
aI321005374
aI242207776
aI52592386
aI97848048
aI181580629
aI19055097
aI28201579
aI26854251
aI54718815
aI959161
aI38240133
aI15299996
aI14184942
aI15051243
aI39513054
aI14592411
aI222605258
aI28169603
aI108760753
aI172543561
aI354774436
aI24613244
aI137573705
aI20721986
aI19603556
aI71586602
aI56422080
aI48631118
aI14244682
aI20506360
aI197409561
aI21168528
aI16566677
aI56251132
aI110002081
aI22807200
aI28133490
aI41182491
aI17952647
aI29936071
aI19152104
aI22108128
aI24037404
aI108372272
aI13049362
aI283216221
aI15232635
aI22027437
aI20815181
aI18456424
aI14993622
aI33658564
aI9051482
aI63552184
aI29860364
aI1922861
aI196804035
aI46443549
aI620545737
aI78440953
aI912008407
aI290913457
aI808052034
aI24262944
aI870152899
aI407441153
aI18040878
aI213741197
aI145346276
aI34332457
aI14337705
aI13678962
aI373471064
aI167583967
aI249838336
aI1985381
aI7542702
aI17966374
aI15169032
aI778603358
aI72915446
aI79180970
aI15770852
aI717313
aI14344319
aI16409781
aI176471366
aI15135588
aI225980521
aI130615543
aI589362455
aI197967647
aI30954150
aI11522502
aI17641645
aI247483633
aI51140674
aI20291907
aI563159602
aI17000457
aI5692662
aI371883374
aI454353679
aI23121537
aI579172391
aI194425811
aI415167805
aI404471952
aI14092777
aI272331850
aI158630551
aI192947437
aI111722909
aI124401914
aI318785481
aI254903523
aI742149630
aI105001809
aI18665952
aI17692330
aI23632910
aI249902490
aI191504048
aI15122826
aI14075928
aI1496971
aI12773
aI338568973
aI465286381
aI344631348
aI14746161
aI217909967
aI262359254
aI161456486
aI53120768
aI31052535
aI30476007
aI102225147
aI1244767819
aI215436343
aI486699336
aI575014349
aI466633211
aI16347506
aI246225682
aI115148583
aI19424326
aI137117427
aI33676141
aI18220386
aI16305370
aI23280648
aI15328942
aI5796972
aI500042487
aI24840127
aI14749606
aI48492831
aI21056862
aI24966423
aI620469157
aI19002481
aI398949685
aI1119978745
aI1093172311
aI784304
aI67061327
aI281355297
aI178794876
aI203549409
aI833167063
aI23274910
aI245621952
aI808074422
aI620469823
aI318353826
aI596066205
aI60257871
aI46973152
aI56705653
aI18653699
aI65414320
aI18783665
aI19942991
aI11912362
aI217920201
aI67197351
aI578059268
aI213516160
aI19548850
aI1059194370
aI24740625
aI128659616
aI16331010
aI42040091
aI8824902
aI18032507
aI94141566
aI17299063
aI21040811
aI24712054
aI107957231
aI12925072
aI34430522
aI17788194
aI37774152
aI25389599
aI59283767
aI92367751
aI84092181
aI36197161
aI85815410
aI19175963
aI139930250
aI92717138
aI67792139
aI124020339
aI36743910
aI39922782
aI27558050
aI3530911
aI24275419
aI104235481
aI158843843
aI345673106
aI26829176
aI258217469
aI113034662
aI620468792
aI234508339
aI272680758
aI22532974
aI25073877
aI19195914
aI16145224
aI28164096
aI17444573
aI20020647
aI14824849
aI71876190
aI21506437
aI22412376
aI16658390
aI960734364
aI17581754
aI1029594343
aI249564928
aI158941108
aI261542893
aI312225429
aI939698184
aI512613427
aI1020232591
aI28448830
aI735039692
aI48448036
aI25830909
aI781789214
aI353864817
aI386976294
aI499336428
aI312170209
aI26465780
aI209622149
aI5692542
aI139636675
aI252890019
aI19671129
aI20632796
aI146598026
aI617580140
aI783765865
aI762487999
aI18181076
aI33522196
aI55270843
aI620468296
aI17860980
aI197865923
aI353094608
aI24736925
aI231580630
aI91765980
aI285299121
aI22083049
aI16116288
aI35018050
aI55935024
aI19575977
aI81111260
aI498961017
aI32482524
aI167155452
aI14691200
aI28035260
aI30274144
aI15791186
aI17287211
aI84358766
aI867196508
aI738974425
aI538359046
aI42752068
aI243905514
aI254004057
aI16178009
aI855911390
aI17355606
aI362181057
aI19555067
aI31360279
aI18222599
aI47817812
aI279319647
aI555708399
aI92444525
aI75974281
aI34345491
aI33990291
aI14939981
aI22575307
aI73273614
aI130617778
aI58598187
aI446672326
aI94700129
aI25925966
aI792160214
aI37705124
aI183356424
aI316795090
aI71026122
aI90665957
aI26787673
aI179932936
aI29805206
aI20518710
aI145323019
aI85386834
aI43404609
aI386189099
aI21231815
aI106246985
aI739068121
aI294689437
aI620383354
aI536622189
aI475088549
aI24016171
aI182194042
aI49717874
aI65477401
aI41509142
aI37370920
aI25939221
aI30973
aI15131310
aI28665877
aI38122489
aI23029453
aI40687298
aI54084665
aI23499716
aI139951730
aI15473958
aI30459968
aI40908929
aI94409059
aI62373285
aI379792086
aI91832829
aI291543178
aI35044408
aI454489474
aI255506875
aI116851398
aI608768436
aI330601670
aI456079914
aI247508036
aI360099026
aI24719760
aI248900032
aI62415732
aI40626514
aI120943272
aI17740885
aI185487499
aI108095136
aI246055470
aI61830970
aI33995409
aI235441031
aI23748699
aI985401
aI536494521
aI34301875
aI581217444
aI382135932
aI27815994
aI19336500
aI268941928
aI46939706
aI26020880
aI258663718
aI23679258
aI16012783
aI42384760
aI43139414
aI16786977
aI50146631
aI63796828
aI121820614
aI14677919
aI17993516
aI14947499
aI14279256
aI15485441
aI256881576
aI20575752
aI18048496
aI22685200
aI26053643
aI14245253
aI17979066
aI41435895
aI234521957
aI260523318
aI57982473
aI135679321
aI338084918
aI8320242
aI17910878
aI69921163
aI15433229
aI30313925
aI18948541
aI14307102
aI24019308
aI133115088
aI16463853
aI110827653
aI626433
aI96846955
aI2029191
aI18511475
aI25398075
aI12298152
aI100220864
aI42916356
aI24906723
aI114333828
aI259056490
aI374412577
aI131273875
aI182246984
aI527744749
aI73360755
aI65385527
aI19900778
aI18638557
aI166270127
aI35757323
aI138600717
aI454361505
aI111268876
aI5695632
aI121656574
aI14116807
aI2884771
aI34593728
aI16827333
aI20567939
aI80700514
aI64848333
aI30364057
aI16302242
aI18909248
aI37099824
aI119332735
aI14372486
aI62432717
aI23382777
aI32453930
aI95749490
aI420916152
aI221745757
aI152468842
aI25234311
aI37290954
aI33222102
aI75025395
aI158102435
aI44183608
aI19078594
aI294464661
aI71297990
aI115597898
aI69677863
aI104299103
aI180505807
aI27671325
aI25079119
aI11856932
aI15947602
aI192468772
aI531916701
aI449237769
aI96483973
aI104265917
aI5974052
aI294210173
aI26036495
aI462489802
aI464032631
aI110125323
aI87752359
aI20510068
aI155412101
aI21984945
aI372117186
aI23702397
aI28412100
aI25285302
aI88844256
aI18326837
aI87777436
aI207507805
aI14626738
aI15298399
aI259415300
aI27718497
aI20754457
aI148807607
aI16667262
aI61571035
aI48011046
aI33008640
aI388472947
aI210259466
aI23859156
aI408777591
aI15289575
aI29724393
aI20322929
aI31927467
aI19829645
aI16409683
aI28706024
aI21705616
aI18220175
aI413487212
aI3004231
aI24775528
aI50826280
aI74580436
aI6273552
aI19637934
aI62581962
aI15693493
aI62290422
aI6480682
aI17169320
aI17790274
aI16164520
aI65119912
aI76282798
aI331851556
aI39932652
aI35777497
aI22037660
aI371558714
aI14286262
aI14706239
aI31212366
aI16430887
aI14983499
aI134503948
aI76122124
aI25421094
aI287453496
aI231519997
aI352145373
aI278778939
aI409486555
aI38802447
aI18133405
aI24278900
aI969441
aI23006794
aI96821645
aI14181239
aI816653
aI19697415
aI131948686
aI109925483
aI128311920
aI17975036
aI159940734
aI18085871
aI29330030
aI41651800
aI36137344
aI1242511
aI231175831
aI35861227
aI18278629
aI40891771
aI2557521
aI26257166
aI39824409
aI14074515
aI66369181
aI39384517
aI16912739
aI11348282
aI15647676
aI28326909
aI8509492
aI36878896
aI44932521
aI12778882
aI12577772
aI25524283
aI17997273
aI18469707
aI14526680
aI314837110
aI14511951
aI84353161
aI19518053
aI40994985
aI76117833
aI19397785
aI287817450
aI36218527
aI156132825
aI259379883
aI96915603
aI24795163
aI25339865
aI19554706
aI110839423
aI138134695
aI22938645
aI6070762
aI79136000
aI205437050
aI7144422
aI159223609
aI738693
aI15902671
aI811377
aI26523333
aI24998445
aI55915000
aI155620016
aI332369465
aI394500748
aI48283632
aI41642691
aI19330043
aI59343352
aI9460682
aI21238450
aI178246193
aI62551664
aI157920439
aI48654999
aI459362054
aI17800797
aI219403168
aI297174372
aI234521228
aI114109965
aI17074440
aI196327319
aI42955173
aI34595228
aI255585594
aI15637375
aI190064982
aI113035141
aI119449559
aI330952431
aI421932607
aI25964384
aI16292457
aI225308736
aI204881628
aI20793816
aI17475575
aI21347710
aI61823313
aI756278
aI25987140
aI36363369
aI271050478
aI186606006
aI15492359
aI734493
aI284089166
aI26799554
aI16228398
aI34701524
aI39103342
aI23832022
aI80094297
aI32382050
aI17560096
aI36362259
aI15876379
aI62902439
aI50532092
aI23083404
aI18369265
aI24929621
aI91208190
aI49573859
aI228164716
aI61277941
aI21838634
aI85603854
aI34887161
aI377172042
aI23508439
aI46306646
aI66389143
aI15013823
aI24621955
aI17461978
aI26589987
aI26553086
aI30793542
aI15754281
aI50751556
aI130997057
aI34630995
aI1344951
aI34104616
aI17629860
aI16651871
aI104691452
aI26191233
aI15818391
aI14117843
aI34356968
aI34703080
aI38706884
aI65184105
aI34312227
aI14791918
aI37060788
aI18882058
aI119509520
aI16560657
aI30309979
aI2367911
aI31239408
aI8940342
aI54682125
aI244647053
aI23502877
aI87978035
aI28209292
aI12092012
aI16256615
aI19400827
aI135360688
aI89517005
aI23795109
aI55296432
aI108988637
aI33939390
aI250831586
aI25110374
aI6476742
aI19028953
aI21447363
aI29371948
aI27195114
aI63000269
aI20292942
aI15690382
aI18736115
aI16247383
aI86141342
aI18336787
aI15207270
aI16887507
aI136293558
aI68769736
aI20536157
aI285185591
aI368648704
aI19426551
aI19362299
aI79004558
aI21232507
aI267921808
aI22650211
aI14099695
aI260537964
aI50393960
aI22209176
aI15670515
aI74286565
aI7517222
aI12477472
aI10191272
aI14086744
aI34828850
aI819800
aI30261067
aI1068831
aI19739354
aI20529230
aI50115087
aI322318398
aI27576228
aI132490411
aI79293791
aI22940219
aI29412327
aI25233746
aI169686021
aI18610936
aI26565946
aI18222378
aI52939106
aI19248106
aI54951973
aI145499533
aI18395177
aI14230524
aI30782495
aI17696167
aI28897926
aI116362700
aI117778179
aI35787166
aI38127255
aI10228272
aI149726145
aI23967578
aI321814567
aI365708030
aI23151437
aI42519612
aI21761627
aI36240413
aI29103458
aI22679419
aI25365536
aI20108560
aI48410093
aI33514869
aI3108351
aI428333
aI1367531
aI759251
aI15163466
aI28785486
aI742143
aI1652541
aI7744592
aI813286
aI24752484
aI52551600
aI115485051
aI39288259
aI18785654
aI25545388
aI51263592
aI271504963
aI180503626
aI66369675
aI190366672
aI31447081
aI66981416
aI270949258
aI45605747
aI348714969
aI28870086
aI349290706
aI347448486
aI349139402
aI23642374
aI110485995
aI240734425
aI32135704
aI348662972
aI16332223
aI348807868
aI349163376
aI348915739
aI21454322
aI105211981
aI349360641
aI33583496
aI36550247
aI24109979
aI22922759
aI44666348
aI50464559
aI349359092
aI222365692
aI35094637
aI27982449
aI258182545
aI232300255
aI40519997
aasS'followers'
p4
(lp5
(lp6
I1422862472
aI351389366
aL4110079231L
aI24458076
aL4226184553L
aL2880959039L
aI17142944
aI75716339
aL3718453217L
aL2528128962L
aL4117017138L
aI1755307201
aI55644960
aL3280044296L
aL2567367234L
aI60972923
aI463100232
aL3325567985L
aL3377974754L
aI41652778
aL3658421661L
aL2778637802L
aL3241192785L
aI9117972
aL2849683681L
aL3657670457L
aL2947771445L
aL3327848058L
aI1952336858
aI1286987184
aL3384184768L
aI78530508
aI155997861
aI28067320
aL3090285699L
aL3319131914L
aL2993697833L
aI148498799
aL2419220472L
aI115432245
aL2363028126L
aL3279252690L
aL3324094541L
aI55089494
aL3305262882L
aL2483271108L
aI32406656
aI195366854
aL2835544397L
aI205399718
aI342442526
aL2381552262L
aL3187803215L
aL2992451618L
aL3254894580L
aI25025756
aI1171796402
aI218725461
aI1028302788
aI384067229
aI224706419
aL2426324298L
aI31179164
aI1615273622
aI860851
aL2296857139L
aI535932595
aL2781115008L
aI365657821
aI370501852
aI575577512
aL3241573484L
aL3055387405L
aI587080294
aI18349074
aI28394336
aI365658546
aI32145040
aI1939464290
aL3229948596L
aL2323982664L
aI28803677
aL3244056171L
aL3288398283L
aL2967657819L
aL2415821663L
aI24262944
aI259056263
aL3069088539L
aL2579500110L
aI1533006836
aI1084873346
aL2807319442L
aL3151786104L
aI164874718
aI21912695
aL3193453080L
aL3190663640L
aL3191662478L
aL3167029685L
aI601001021
aI18857913
aI499618721
aI23181999
aL2433667077L
aL3153026670L
aI1537478390
aI111222977
aL3094615128L
aI1403919698
aI27747985
aI23566984
aI1434683605
aL2345778774L
aI462210311
aL2810610634L
aI354774436
aL2934413361L
aI23484734
aL2300284268L
aL2768552889L
aI383957531
aI402876893
aL2380451220L
aL2513341416L
aI18031704
aL3119730782L
aI1273146116
aL2800460956L
aI1015995660
aI141748686
aL3116887197L
aI270481972
aL3098679712L
aI31231597
aL2269957598L
aL3074313919L
aL3094163268L
aI480517935
aL2696044759L
aI1418955470
aI760620566
aI272759794
aI24479376
aI26250653
aL2786838073L
aI71264765
aI88844256
aL2783022943L
aI1095154230
aI464857068
aL2917991231L
aI86208491
aI286942775
aI987982706
aL2227448072L
aI1548227732
aI137077542
aL2473789129L
aI1376745524
aI242288569
aL2504566591L
aI1634003509
aI1663641961
aL2436102949L
aI1621209960
aI323019476
aI824922920
aI17986973
aI1270790202
aL2432304224L
aI1882281708
aI14821678
aL2395940689L
aL2337443358L
aI41170977
aI1949913636
aI318841966
aI1633163803
aI1363292538
aI42938207
aI135388964
aI1915977241
aI1574273683
aL2344152775L
aI43001239
aL2425547851L
aL2354236214L
aL2263767882L
aI771041412
aL2355140808L
aL2355745616L
aI1415927408
aI596793393
aI802040575
aI995990701
aL2340874712L
aI25285302
aL2330506790L
aL2335250258L
aI255704940
aL2335935638L
aI519862149
aL2281894225L
aL2283181994L
aI412641144
aL2229578413L
aI923218164
aI873907645
aL2274923605L
aI1247607181
aI1377805832
aI19608360
aL2321270526L
aI1248010915
aL2312502458L
aI40321822
aI302733011
aL2192019594L
aI1276022011
aL2182391449L
aI1251969752
aI207229686
aI601218157
aI1131079014
aI371558714
aI1415733054
aI1609000416
aI2563981
aI1528772270
aI49219402
aI1570912478
aI218591577
aI553851850
aI741276409
aI26023706
aI555273561
aI144483608
aI520543984
aI13168792
aI25439493
aI68488475
aI66420490
aI1135342742
aI1668652262
aI1720953600
aI1691481170
aI1104655640
aI1599357794
aI883415917
aI1280577630
aI393805118
aI18344425
aI332509305
aI456079914
aI297393967
aI25326741
aI928962588
aI17050737
aI1119539484
aI621628020
aI808074422
aI912008407
aI596066205
aI407441153
aI620469823
aI870152899
aI332369465
aI20602966
aI1244767819
aI808052034
aI589568610
aI15770852
aI213741197
aI335295425
aI106494199
aI1378528580
aI189502979
aI541915025
aI108760753
aI959161
aI14244682
aI226285866
aI28169603
aI589362455
aI318353826
aI203549409
aI466633211
aI620469157
aI213516160
aI33939390
aI620468792
aI249564928
aI735039692
aI28448830
aI781789214
aI48448036
aI42752068
aI386976294
aI312170209
aI26465780
aI17860980
aI24736925
aI146598026
aI55270843
aI738974425
aI231519997
aI855911390
aI27982449
aI25925966
aI792160214
aI45767217
aI739068121
aI294689437
aI536622189
aI37705124
aI454489474
aI534293933
aI196327319
aI527744749
aI454361505
aI221745757
aI531916701
aI258182545
aI110125323
aI464032631
aI155412101
aI131273875
aI259415300
aI330952431
aI29103458
aI287453496
aI48283632
aI234521228
aI371985090
aI190064982
aI421932607
aI25987140
aI232300255
aI271050478
aI14791918
aI377172042
aI114333828
aI374412577
aI365708030
aI322318398
aasS'obj'
p7
ccopy_reg
_reconstructor
p8
(ctweepy.models
User
p9
c__builtin__
object
p10
Ntp11
Rp12
(dp13
S'follow_request_sent'
p14
NsS'has_extended_profile'
p15
I00
sS'profile_use_background_image'
p16
I01
sS'profile_sidebar_fill_color'
p17
VD9D6D9
p18
sS'id'
p19
I376475265
sS'verified'
p20
I00
sS'entities'
p21
(dp22
Vurl
p23
(dp24
Vurls
p25
(lp26
(dp27
g23
Vhttp://t.co/o8rXm9BSaN
p28
sVindices
p29
(lp30
I0
aI22
asVexpanded_url
p31
Vhttp://www.adrianmoseley.com
p32
sVdisplay_url
p33
Vadrianmoseley.com
p34
sassVdescription
p35
(dp36
g25
(lp37
sssS'profile_image_url_https'
p38
Vhttps://pbs.twimg.com/profile_images/660649664425934848/fIYiwUnU_normal.jpg
p39
sS'_json'
p40
(dp41
Vfollow_request_sent
p42
NsVhas_extended_profile
p43
I00
sVprofile_use_background_image
p44
I01
sVdefault_profile_image
p45
I00
sVid
p46
I376475265
sVprofile_background_image_url_https
p47
Vhttps://pbs.twimg.com/profile_background_images/471257190/2012-03-17_16.32.02__Copy_.jpg
p48
sVverified
p49
I00
sVprofile_text_color
p50
VF00000
p51
sVprofile_image_url_https
p52
g39
sVprofile_sidebar_fill_color
p53
g18
sVentities
p54
g22
sVfollowers_count
p55
I346
sVprofile_sidebar_border_color
p56
V969696
p57
sVid_str
p58
V376475265
p59
sVprofile_background_color
p60
VFFFFFF
p61
sVlisted_count
p62
I22
sVstatus
p63
(dp64
Vcontributors
p65
NsVtruncated
p66
I00
sVtext
p67
VRT @AdamSchefter: Denver's Peyton Manning has torn plantar fascia in right foot, league sources tell ESPN. Manning was battling plantar fas\u2026
p68
sVin_reply_to_status_id
p69
Nsg46
L666263053575454720L
sVfavorite_count
p70
I0
sVsource
p71
V<a href="http://twitter.com/download/android" rel="nofollow">Twitter for Android</a>
p72
sVretweeted
p73
I00
sVcoordinates
p74
Nsg54
(dp75
Vsymbols
p76
(lp77
sVuser_mentions
p78
(lp79
(dp80
g46
I51263592
sg29
(lp81
I3
aI16
asg58
V51263592
p82
sVscreen_name
p83
VAdamSchefter
p84
sVname
p85
VAdam Schefter
p86
sasVhashtags
p87
(lp88
sg25
(lp89
ssVin_reply_to_screen_name
p90
Nsg58
V666263053575454720
p91
sVretweet_count
p92
I1772
sVin_reply_to_user_id
p93
NsVfavorited
p94
I00
sVretweeted_status
p95
(dp96
Vlang
p97
Ven
p98
sg94
I00
sg54
(dp99
g76
(lp100
sg78
(lp101
sg87
(lp102
sg25
(lp103
ssg65
Nsg66
I00
sg67
VDenver's Peyton Manning has torn plantar fascia in right foot, league sources tell ESPN. Manning was battling plantar fasciitis; worsened.
p104
sVcreated_at
p105
VMon Nov 16 14:18:31 +0000 2015
p106
sg73
I00
sVin_reply_to_status_id_str
p107
Nsg74
NsVin_reply_to_user_id_str
p108
Nsg71
V<a href="http://www.facebook.com/twitter" rel="nofollow">Facebook</a>
p109
sg69
Nsg90
Nsg58
V666259055036362752
p110
sVplace
p111
Nsg92
I1772
sVgeo
p112
Nsg46
L666259055036362752L
sg70
I748
sg93
Nssg112
Nsg108
Nsg97
Ven
p113
sg105
VMon Nov 16 14:34:25 +0000 2015
p114
sg107
Nsg111
NssVis_translation_enabled
p115
I00
sVutc_offset
p116
I-21600
sVstatuses_count
p117
I10087
sg35
Vcomputers, electronics, movies, running, and football... what else is there? Instagram: Coolpolarbear
p118
sVfriends_count
p119
I2004
sVlocation
p120
VAustin, TX
p121
sVprofile_link_color
p122
V000000
p123
sVprofile_image_url
p124
Vhttp://pbs.twimg.com/profile_images/660649664425934848/fIYiwUnU_normal.jpg
p125
sVfollowing
p126
NsVgeo_enabled
p127
I01
sVprofile_banner_url
p128
Vhttps://pbs.twimg.com/profile_banners/376475265/1403408702
p129
sVprofile_background_image_url
p130
Vhttp://pbs.twimg.com/profile_background_images/471257190/2012-03-17_16.32.02__Copy_.jpg
p131
sg83
VAdrianMoseley
p132
sg97
Ven
p133
sVprofile_background_tile
p134
I00
sVfavourites_count
p135
I494
sg85
VAdrian Moseley
p136
sVnotifications
p137
Nsg23
Vhttp://t.co/o8rXm9BSaN
p138
sg105
VMon Sep 19 23:26:34 +0000 2011
p139
sVcontributors_enabled
p140
I00
sVtime_zone
p141
VCentral Time (US & Canada)
p142
sVprotected
p143
I00
sVdefault_profile
p144
I00
sVis_translator
p145
I00
ssS'contributors_enabled'
p146
I00
sS'profile_text_color'
p147
g51
sS'followers_count'
p148
I346
sS'profile_sidebar_border_color'
p149
g57
sS'id_str'
p150
g59
sS'default_profile_image'
p151
I00
sS'listed_count'
p152
I22
sS'status'
p153
g8
(ctweepy.models
Status
p154
g10
Ntp155
Rp156
(dp157
S'favorited'
p158
I00
sS'contributors'
p159
NsS'truncated'
p160
I00
sS'text'
p161
g68
sS'source_url'
p162
Vhttp://twitter.com/download/android
p163
sS'in_reply_to_status_id'
p164
NsS'geo'
p165
Nsg19
L666263053575454720L
sS'favorite_count'
p166
I0
sS'lang'
p167
g113
sS'retweeted_status'
p168
g8
(g154
g10
Ntp169
Rp170
(dp171
g158
I00
sg159
Nsg160
I00
sg161
g104
sg162
Vhttp://www.facebook.com/twitter
p172
sg164
Nsg165
Nsg19
L666259055036362752L
sg166
I748
sg167
g98
sg21
g99
sS'created_at'
p173
cdatetime
datetime
p174
(S'\x07\xdf\x0b\x10\x0e\x12\x1f\x00\x00\x00'
p175
tp176
Rp177
sg40
g96
sS'coordinates'
p178
NsS'in_reply_to_user_id_str'
p179
NsS'source'
p180
VFacebook
p181
sS'in_reply_to_status_id_str'
p182
NsS'in_reply_to_screen_name'
p183
Nsg150
g110
sS'retweeted'
p184
I00
sS'place'
p185
NsS'retweet_count'
p186
I1772
sS'in_reply_to_user_id'
p187
Nsbsg21
g75
sg173
g174
(S'\x07\xdf\x0b\x10\x0e"\x19\x00\x00\x00'
p188
tp189
Rp190
sg40
g64
sg178
Nsg179
Nsg180
VTwitter for Android
p191
sg182
Nsg183
Nsg150
g91
sg184
I00
sg185
Nsg186
I1772
sg187
NsbsS'is_translation_enabled'
p192
I00
sS'utc_offset'
p193
I-21600
sS'statuses_count'
p194
I10087
sS'description'
p195
g118
sS'friends_count'
p196
I2004
sS'location'
p197
g121
sS'profile_link_color'
p198
g123
sS'profile_image_url'
p199
g125
sS'notifications'
p200
NsS'geo_enabled'
p201
I01
sS'profile_background_color'
p202
g61
sS'profile_banner_url'
p203
g129
sS'profile_background_image_url'
p204
g131
sS'screen_name'
p205
g132
sg167
g133
sg1
I00
sS'profile_background_tile'
p206
I00
sS'favourites_count'
p207
I494
sS'name'
p208
g136
sS'url'
p209
g138
sg173
g174
(S'\x07\xdb\t\x13\x17\x1a"\x00\x00\x00'
p210
tp211
Rp212
sS'profile_background_image_url_https'
p213
g48
sS'time_zone'
p214
g142
sS'protected'
p215
I00
sS'default_profile'
p216
I00
sS'is_translator'
p217
I00
sbs.