(dp0
S'following'
p1
(lp2
(lp3
I466807858
aI151416134
aI264153788
aI20182642
aI1873179762
aI591335059
aI52166809
aL2313346898L
aI7520262
aI59853587
aI138404716
aI11247222
aI62562916
aI81157050
aL2259383122L
aI1928213371
aI1611543626
aI1918608625
aI209740782
aI1859014448
aI151120600
aI19040976
aL2156444033L
aI39604963
aI217425933
aI157448318
aI532174767
aI16158367
aI1499471820
aL3377428323L
aI314595470
aI891103214
aI72297981
aI410972733
aI747814944
aL2187136566L
aI163039104
aI1027427431
aI237831541
aI1088935081
aI94624543
aI518688821
aI78612362
aI197478610
aI41509482
aI395379502
aI584075425
aI94738901
aI288377691
aI172542185
aI7890622
aL2392274588L
aI43554881
aI370158546
aI1031517068
aI127034427
aI74158525
aI489811385
aI396403639
aI382019277
aI1148146464
aI267979000
aI19031637
aL3354308819L
aI1351962366
aI114571703
aI272833401
aI308217109
aI593889386
aI18549148
aI16292486
aI1869809930
aI594912306
aL3183545395L
aI116239091
aI546713551
aL2975091622L
aI1604445962
aI4302401
aI19921516
aI374741716
aL2216302500L
aI245684192
aI70369905
aL3420574769L
aI155366094
aI170428232
aL2409330439L
aI85209463
aI1410387692
aI312589347
aI24984285
aI109031831
aI45686204
aI27096075
aL2893191361L
aL2282577320L
aI186149774
aL3309084524L
aI586734515
aI131995760
aI1689434408
aI39085071
aI35572357
aI193838214
aI31546412
aI36990709
aI18265617
aI66398680
aI179527971
aI563084750
aL2187356088L
aL2857672014L
aI300463415
aI217488230
aI174767698
aI556527392
aI52875688
aI44391697
aI39983758
aI109744971
aL2465988823L
aI1045316010
aI261684929
aI909591775
aI17322369
aI1064700308
aI146128105
aI181734086
aI443918542
aI5832212
aI106504911
aI247857712
aI1473431
aI49663664
aI890031644
aI20636215
aI31001654
aI1551826970
aI84402174
aI18571616
aI14471524
aI379172971
aI26499870
aI21781653
aI21579390
aI65011309
aI265056090
aI453879184
aI15599390
aI18328191
aI28379748
aI497101610
aI21781219
aI71079219
aI39467526
aI156058889
aI983655260
aI51963389
aI52247245
aI44824361
aI184881902
aI47318829
aI19891705
aI204323741
aI1725697616
aI425938933
aI212531237
aI49620233
aI177585732
aI263440231
aI16259934
aI19739279
aI39294671
aI714051110
aL2149877280L
aL3078425347L
aL2663978234L
aI32359921
aI5988062
aI4898091
aI91478624
aI16184358
aL2809161682L
aL2657211457L
aL3483229101L
aI872655614
aL3234774708L
aI15281391
aI16451932
aI71165327
aI14216123
aI30627024
aI28894912
aL2960440083L
aL3235737276L
aL3117992765L
aI791782548
aL2821910612L
aI34837057
aI15130891
aI1152183398
aL2764841456L
aI25277152
aI102728705
aL3165625278L
aL3046242090L
aI479658434
aI1897110559
aI264941610
aI21535990
aI191461872
aL2346048230L
aI587778237
aI1578182210
aI157761266
aI25404329
aI1546206451
aI21358988
aI25197622
aL2203670220L
aI136510956
aI56531529
aI14693542
aI193963166
aI31948415
aI315705673
aI737842555
aI64403143
aI55475241
aI352229144
aI589071930
aI33815632
aI31004371
aI14716089
aI112367524
aI29531833
aI188558985
aL2400486198L
aI215268110
aI55996384
aI706566858
aI50262393
aL3294605529L
aI81790450
aI110654396
aI600444103
aI163823136
aI34575733
aI25605921
aL2715646770L
aL2462800638L
aI57172410
aI28996495
aI26042891
aI255169117
aI1444429448
aI27331535
aI176839290
aI1546201075
aI23462965
aI1975766658
aI141291190
aI17346074
aI48885883
aI1560511644
aL2411996256L
aL2286959491L
aI355076646
aI892355328
aL2800760610L
aL2380513332L
aI35603515
aL2347756675L
aL2999842234L
aI72595048
aI80727346
aL3327820536L
aI14933262
aI547049361
aI730913462
aI18616112
aI36343599
aI76529495
aI111714711
aI1008673387
aI15321486
aI42928272
aI1128681613
aI14560102
aI16427483
aI320710758
aI125664751
aI53215424
aI392738594
aI597684491
aL2248417272L
aI21268553
aI16636140
aI21328656
aI15352774
aI49905776
aI98488096
aI126413239
aL2999672518L
aI527036582
aI434567344
aI40665969
aI49385635
aI14401653
aI18222257
aI64897106
aI16429510
aI55989763
aI16012959
aI155066735
aI289138612
aI18240930
aI22385436
aI68353751
aI19716909
aI173961161
aI26567980
aI1371357031
aI278397456
aI344752927
aI252732212
aL2180678917L
aI21375592
aI18227213
aI70560550
aI553658449
aI257107541
aI1422472128
aI51002120
aI134337783
aI18711475
aL2778809762L
aI404333242
aI193494371
aI38290004
aL2306127457L
aI39634952
aI25128759
aI24716002
aL2420011614L
aI55308734
aI1640503226
aI282941979
aI39364502
aI38039320
aI17669982
aI241368494
aI52997653
aI458747417
aI110535828
aI29113916
aI28655703
aI217636406
aI47247213
aI42035239
aL2151099640L
aI271050864
aI1673739764
aI17927100
aI120004341
aI118228411
aI550663732
aI216494540
aI263197493
aI133553342
aI151262778
aI74906240
aI27828974
aI43669198
aI58200577
aI15658943
aI43571005
aI1929811644
aI136274193
aL2203791636L
aI18234636
aI23390520
aI28802292
aI276714687
aI403647191
aI15246621
aI59142968
aL2216333869L
aI100767876
aI139526643
aI340390126
aI246585278
aI227070376
aI107621873
aL2203702548L
aI19600070
aI728963185
aI253314279
aI277211728
aL2388074569L
aI381451423
aI196218576
aI435139136
aI242855031
aI625778999
aI296341409
aI595005545
aI1684452866
aL2924341198L
aI37266202
aI126947179
aI122422860
aI324608635
aI367567960
aL2402357802L
aI16980793
aI15355624
aI315952484
aI325686640
aI18270260
aI22621354
aI107542072
aI53980738
aL2203748851L
aI81229871
aI14221804
aI122896733
aI95692182
aI15987860
aI240030130
aI235648313
aI19853386
aL3006279621L
aI407620621
aI274276090
aI15171329
aI833026334
aL3375905733L
aI91853144
aI320295629
aI804930890
aI385400237
aI34581719
aL2779881561L
aL2396644586L
aL2710561359L
aI130618032
aI1292841054
aI43515506
aI268953053
aI304017913
aI1082072570
aI65543629
aI204941969
aI114356558
aI565969885
aI282741276
aI1160486412
aL2211917786L
aL2235278054L
aI78217150
aI710917302
aL2966251421L
aI218710967
aI407984028
aL3322493302L
aI36660226
aI41458395
aI195444215
aI51332399
aI139960419
aI70116816
aI14297693
aI1331817943
aI405077074
aL2547513904L
aI41012342
aI1141627460
aI237591901
aL2411493198L
aI317209355
aI144876165
aI81558749
aI1344737588
aI193968620
aI179962427
aI180926793
aI34331145
aI110352644
aI498166332
aI20115443
aI261876546
aI7517052
aI273294289
aI595184823
aI138944488
aI111054964
aI37564410
aI47209382
aL2999689781L
aI230723893
aI174590028
aI133056605
aI176805948
aI203787757
aI249120157
aI15897179
aI17520616
aI570079789
aI236428904
aI108637387
aI125706230
aI2395801
aI28072028
aI636441598
aI60113926
aI1577160728
aL3461031256L
aI148272213
aI47993676
aL2462874699L
aI1711713978
aI76116043
aI1566938418
aI1108126932
aL2437532460L
aL3263138839L
aL3728038817L
aL2890616938L
aL3621844515L
aI263692555
aL3041436165L
aL2906439339L
aI136889848
aI17108251
aI137417225
aL2506456014L
aL2968227417L
aI126717954
aL3667030577L
aI1694936220
aL2825421464L
aL2534236977L
aI46633066
aI36309263
aL3044526195L
aL3042173895L
aI574166062
aI29888058
aL2435354886L
aL2978204211L
aI249561245
aI26711583
aI27652717
aL2950905753L
aI166455740
aI121781782
aI116876723
aL2564035200L
aI434574997
aI572388408
aL3100748456L
aI597456497
aL3432538035L
aL3429805103L
aL2165438016L
aI713429732
aL3016283598L
aI112696718
aL3448582636L
aL2950107153L
aL3419133494L
aI944050200
aL2208625248L
aL2925232654L
aI805230144
aL2558180131L
aI22815781
aI15756049
aI47710180
aL2550039762L
aI18019689
aL2346652446L
aI16321535
aI384278963
aL3422951620L
aI18031854
aI29410799
aL2772167606L
aI81200887
aI16386547
aI1308403399
aI568646904
aI73112681
aL3422117578L
aL3319490281L
aL2915634197L
aI20074105
aI264081464
aI124631286
aI146460368
aL3401715220L
aL3099926523L
aL2502970082L
aL3091318521L
aI133675499
aI201318761
aL2370632544L
aI27806814
aI66975479
aI23755112
aL2187571819L
aI892057760
aI67386393
aI60478078
aI405016001
aI100112033
aL2994654131L
aI1047972295
aI902868768
aI31120002
aI71577325
aL2984399113L
aI98522869
aI18408384
aI14388879
aI17256937
aL3158957077L
aI30755301
aI331056224
aL3019912390L
aI43732904
aI89094168
aI183339368
aI485084559
aL3071611441L
aL3577886478L
aL3222741471L
aL3288837329L
aI333400397
aL2544971574L
aL3297343272L
aL3221070092L
aL3190164163L
aL3272212260L
aL2514951896L
aL3148844298L
aL2732644778L
aL3099489981L
aL3245678550L
aL3331469596L
aL3066075088L
aL2784891852L
aL2883356613L
aL3543418455L
aL2425391863L
aL3075121225L
aL3307347414L
aI1966253173
aL2841938708L
aI268081566
aI793371577
aL3232335848L
aL3401590131L
aL2902468109L
aI1926161696
aL3092613571L
aL3304977170L
aL2885824564L
aL2507152446L
aL2812358816L
aL3419749318L
aL3324915662L
aI119161370
aI1514346050
aI985618700
aI486048874
aL3412050041L
aI296253096
aI413474832
aL3398524018L
aL2520703418L
aL2468959886L
aL2341525668L
aL3308487211L
aI895615100
aL3164997480L
aL2776623554L
aL2587477320L
aL2470475939L
aL3392828963L
aI317562281
aL2463283153L
aL3042243094L
aL2967229294L
aL3397258901L
aL3439384893L
aL3373532524L
aI1467878490
aI1375860338
aI109200080
aL2597611519L
aL3060766426L
aL3014215809L
aL3395170581L
aL3283743962L
aL3111837451L
aL3177346952L
aL3315221527L
aL2500536774L
aI1124787104
aL2956577273L
aI15977038
aL3223130652L
aI431061432
aI843798122
aL3042237100L
aI397136529
aL3430881543L
aI312297123
aL2748417222L
aI309646880
aL3631389317L
aL3380718544L
aI452151127
aL2828486491L
aL3511637057L
aL3397142387L
aL2213173855L
aL3323047256L
aL3135493823L
aL3331100733L
aL3305558623L
aI215068830
aL3520813515L
aI44060322
aI266799789
aL2307828661L
aL3389630121L
aL3184637045L
aL3317146507L
aI104499427
aL3317753324L
aI102212196
aL2172423304L
aL3225783793L
aL3425010886L
aL3431312049L
aI517392967
aL2968256134L
aI1705766478
aI409612913
aI989646270
aI788333744
aI65681636
aL3275581777L
aL2159322464L
aI72928001
aL3392201579L
aI121158213
aI20065998
aI84444981
aL3115865584L
aI37065910
aI878385756
aI367662868
aL2950028089L
aI1854520208
aL3396435934L
aI157361346
aL2885532683L
aI101920008
aL2709718838L
aI179292426
aL2333374018L
aI93294948
aL2199824470L
aI808617751
aI1945935708
aL2748944294L
aL2587613526L
aL3177303368L
aI494500953
aI1221409188
aI25539759
aI150008368
aI20007094
aI57849762
aI184391585
aI46346274
aI302349992
aI26705006
aL2945959759L
aI96794524
aL3073241957L
aI83393093
aI409617637
aL3144040043L
aL3388556074L
aL3124661183L
aL3019144513L
aL3316761253L
aL2489295018L
aL3424925631L
aL2704486915L
aL3248503582L
aI368609835
aI402876893
aL3382363841L
aL3097239604L
aL2842349595L
aL2983490230L
aL2483973571L
aI214433021
aL3321265814L
aI872122615
aI26852476
aL3362624092L
aI148243590
aI51044259
aL2836045906L
aL3154923455L
aI41812773
aI148268103
aI417992966
aI976384854
aI379685317
aI849617886
aI30359797
aI18034541
aI310498944
aI242755419
aL3320777517L
aI1393603976
aI611817117
aI249433795
aL2999168682L
aL2678090893L
aI459051859
aL2987394058L
aL2850108884L
aI43111757
aL2803613749L
aL2394624246L
aL2271222612L
aI128500019
aL2516029806L
aL3210527171L
aL2361661062L
aI995324587
aI826126729
aL3084039291L
aI1473563539
aI1025411929
aI277800419
aL3293802296L
aL2157340112L
aI20187378
aI284241195
aI18906599
aI906735979
aI1891046233
aL2334614718L
aL2831386569L
aI25762392
aL2802272246L
aL3393529679L
aI341346597
aL2169049070L
aL2253557707L
aL3341405181L
aI133472920
aL2884024923L
aL3316130558L
aI327826158
aL2426918137L
aL2355374790L
aL2847302014L
aI113084080
aI48938064
aI53668939
aL3305488553L
aL3755871555L
aL2461907034L
aI254280603
aI348557830
aI9484732
aI193466320
aI3108351
aI18949452
aI34713362
aI624413
aI14886375
aI133808487
aI99412732
aI16001494
aI27761886
aI455824771
aI15971805
aI17549691
aasS'followers'
p4
(lp5
(lp6
I25095854
aI1245926706
aL3439298740L
aL3731901754L
aI732536311
aL3142984964L
aL2960531741L
aL2686526684L
aI347917266
aI22121189
aL2607663110L
aL2563924585L
aI808669694
aI1705766478
aL3983698274L
aL2826801403L
aL2560951296L
aL2855170383L
aL2866708264L
aL2578820839L
aL2723265539L
aL3420574769L
aI19935055
aL2149231188L
aL2992414321L
aI1483067683
aL3685778182L
aL4115639955L
aI1657866385
aI83786013
aI1337085834
aL3889023372L
aI1447028810
aL4189420580L
aI1510473181
aL4108928532L
aL4061650355L
aL3244601205L
aL3457702221L
aL2486034890L
aL3706464915L
aI90970076
aL2164089107L
aI150008368
aL2199397478L
aL3676842556L
aI927719113
aL3060295618L
aL3131387753L
aI597799971
aL3246752411L
aL4120054337L
aL3707991826L
aI10870512
aL2473909720L
aL4131558792L
aL3222358997L
aL3058848324L
aL2732644778L
aL3544379172L
aL2479766988L
aL3428684602L
aI99147325
aI35486742
aI217167883
aL4086878235L
aI134924270
aI15812297
aL3972046793L
aL3389592525L
aL3295286923L
aL2855305618L
aL3303680170L
aL2994913373L
aL3405443625L
aI250317700
aI434667525
aI204785772
aL2474109372L
aI945181927
aI1512636409
aI27219544
aL2995198806L
aL2462143862L
aL4068896722L
aI384509985
aI45017604
aL3322170233L
aI342950209
aL3489736273L
aL3917969176L
aL3871379953L
aI590413455
aI57869363
aI1183755601
aL3988573402L
aL2897825254L
aI148470463
aI384235083
aL3846160153L
aL2265846151L
aL3040045190L
aI92622940
aL3425010886L
aL2485698702L
aL2819787636L
aL2346652446L
aL3392201579L
aL2828486491L
aL4024871747L
aL3356967793L
aL2205024357L
aL3386956007L
aI27625014
aL4008687460L
aL2978468851L
aL4012944496L
aI325925520
aI1480403934
aL3041716167L
aL2981198021L
aL2914565039L
aL4025517089L
aL3415354269L
aL2466373656L
aL3990667934L
aL3304837269L
aL3221142817L
aL3981708033L
aL2787407948L
aL3242840227L
aL3311651502L
aL3424415393L
aL3986578391L
aL3955336757L
aL3826996775L
aL2461128220L
aL3327662013L
aL3980121137L
aL4001537181L
aI1926161696
aL2425391863L
aL3895570035L
aL3210776242L
aL2906439339L
aL2382326604L
aI1318484960
aL3454234940L
aL2212982334L
aL3654727816L
aI257445526
aL3042173895L
aL3242108174L
aL2469832928L
aL3247595188L
aL3989903141L
aL3018809793L
aI1688137668
aI341346597
aL2429563184L
aI452151127
aL3012257238L
aL2574157186L
aL2500536774L
aL3135493823L
aL3097239604L
aL3315221527L
aL3427214873L
aL2907935667L
aI338088518
aL3016002100L
aL2506456014L
aI365446733
aL2915293767L
aL3822136512L
aL3306248044L
aL3165625278L
aI1577160728
aL3867427874L
aL3483229101L
aI583123413
aI794921328
aL3221070092L
aI19671940
aI843798122
aL2595519847L
aL3309084524L
aL3028716520L
aL3305640702L
aL3763603332L
aL2384887634L
aI62529842
aL2781050528L
aI315509551
aL2900830989L
aI317481174
aI35784526
aL3128522824L
aL2968256134L
aI1082554946
aL3297214351L
aI562346664
aI47383148
aI1530916794
aL3225783793L
aL3891675623L
aL2765729481L
aL3397861937L
aI795604040
aI280346260
aI33167774
aL3210527171L
aL3898704375L
aL2748944294L
aI459091687
aL3397258901L
aL3073241957L
aI14507120
aL2468959886L
aL3645406754L
aL2550039762L
aL2936097834L
aL2465988823L
aL2987394058L
aL3108417284L
aL3776501236L
aL3306677094L
aI1684990752
aL3146933385L
aI74158525
aL2647194361L
aL3075079049L
aL3091733496L
aL3042243094L
aL3871193362L
aI18992010
aL3521132123L
aI486333683
aL2836122306L
aI1626715056
aL3693658272L
aI872655614
aI1531007624
aI100112033
aL3621844515L
aL3060766426L
aL3257585968L
aI45469201
aL2809161682L
aL3084039291L
aL3334692641L
aL3316761253L
aL3147246544L
aL3152854929L
aL3263120299L
aL3741164719L
aL2653180576L
aL3111945077L
aI15043404
aL3331100733L
aI317562281
aI242755419
aL3791513011L
aL2520102962L
aL3788722933L
aL3304977170L
aL3234774708L
aL3296849126L
aL3180364640L
aL3222741471L
aL3164997480L
aL3234692581L
aL3263138839L
aL3256062528L
aL2584877251L
aL3312036619L
aL3265598743L
aI434058011
aI615096072
aL3521820616L
aI1375860338
aL3591182726L
aL2455083919L
aI40951582
aI805230144
aI25762392
aL3487921454L
aI1371367364
aI100767876
aI45415894
aL2165676145L
aL3064309126L
aI934095842
aL3401590131L
aI148268103
aL3681151154L
aL2534236977L
aL3147528713L
aI52983175
aL2463283153L
aL3835766175L
aI399125922
aL3115865584L
aI24716002
aI305350770
aI574166062
aI37266202
aI944050200
aL3241405806L
aL2915634197L
aL3751687697L
aL3292894001L
aL2890616938L
aL3397142387L
aI497094379
aL3283743962L
aI113084080
aI214433021
aL3140096339L
aL2361661062L
aI1694936220
aL3706333273L
aI60771669
aL3139590424L
aI1221409188
aL3092613571L
aL2825421464L
aL2597611519L
aL2748417222L
aL3245678550L
aI268081566
aI1444429448
aI730913462
aI133472920
aI15756049
aI891869581
aL2824101183L
aL2435354886L
aI1308403399
aI25197622
aL3288837329L
aI1879173900
aL3046242090L
aI93420225
aL3024130608L
aL3177303368L
aI60478078
aL3303420990L
aL3439384893L
aI333400397
aL2821910612L
aL3117992765L
aI791782548
aI121158213
aI18408384
aL3235737276L
aI137417225
aL2960440083L
aI119161370
aL3075121225L
aI22385436
aL3306590388L
aL2968227417L
aI434574997
aL2828459470L
aL3323047256L
aL2804263123L
aL3389630121L
aL2370632544L
aI1684452866
aI249433795
aI14388879
aL3817131449L
aI96794524
aI76116043
aL3100748456L
aI296253096
aI42928272
aL3590556442L
aI434567344
aL3398524018L
aI83992846
aL3417150923L
aL2253557707L
aI309646880
aI43111757
aL3272212260L
aI98522869
aL3388556074L
aI84444981
aI892057760
aL2520703418L
aL3158957077L
aL3148844298L
aL2776623554L
aI902868768
aL2445064535L
aL3223130652L
aL2984399113L
aI1124787104
aI121781782
aI895615100
aI485084559
aL3099926523L
aL2884024923L
aI166455740
aL2883356613L
aI20187378
aI46346274
aI184391585
aL2802272246L
aL3071611441L
aL3042237100L
aL3066075088L
aL2956577273L
aL3044526195L
aL3014215809L
aI793371577
aL3297343272L
aL2885824564L
aL3373532524L
aI57849762
aL3317753324L
aL3177346952L
aI976384854
aL3341405181L
aI413474832
aL3232335848L
aL3099489981L
aL3520813515L
aL3396435934L
aI397136529
aI517392967
aL2394624246L
aI1891046233
aI788333744
aL3154923455L
aasS'obj'
p7
ccopy_reg
_reconstructor
p8
(ctweepy.models
User
p9
c__builtin__
object
p10
Ntp11
Rp12
(dp13
S'follow_request_sent'
p14
NsS'has_extended_profile'
p15
I00
sS'profile_use_background_image'
p16
I01
sS'profile_sidebar_fill_color'
p17
VDDEEF6
p18
sS'id'
p19
L3803301083L
sS'verified'
p20
I00
sS'entities'
p21
(dp22
Vurl
p23
(dp24
Vurls
p25
(lp26
(dp27
g23
Vhttp://t.co/DzUno6hxyF
p28
sVindices
p29
(lp30
I0
aI22
asVexpanded_url
p31
Vhttp://EventsTrend.com
p32
sVdisplay_url
p33
VEventsTrend.com
p34
sassVdescription
p35
(dp36
g25
(lp37
sssS'profile_image_url_https'
p38
Vhttps://pbs.twimg.com/profile_images/648768997580783616/taq5y0RZ_normal.jpg
p39
sS'_json'
p40
(dp41
Vfollow_request_sent
p42
NsVhas_extended_profile
p43
I00
sVprofile_use_background_image
p44
I01
sVdefault_profile_image
p45
I00
sVid
p46
L3803301083L
sVprofile_background_image_url_https
p47
Vhttps://abs.twimg.com/images/themes/theme1/bg.png
p48
sVverified
p49
I00
sVprofile_text_color
p50
V333333
p51
sVprofile_image_url_https
p52
g39
sVprofile_sidebar_fill_color
p53
g18
sVentities
p54
g22
sVfollowers_count
p55
I438
sVprofile_sidebar_border_color
p56
VC0DEED
p57
sVid_str
p58
V3803301083
p59
sVprofile_background_color
p60
VC0DEED
p61
sVlisted_count
p62
I48
sVstatus
p63
(dp64
Vcontributors
p65
NsVtruncated
p66
I00
sVtext
p67
V#Banco Bradesco Sa, $BBDO. #Stock price #forecast: 6.55 (+7.20%). Probability: 0%.\u000aMore on: https://t.co/YoYM3cGioE
p68
sVin_reply_to_status_id
p69
Nsg46
L666278104751411200L
sVfavorite_count
p70
I0
sVsource
p71
V<a href="http://www.eventstrend.com/" rel="nofollow">eventstrend</a>
p72
sVretweeted
p73
I00
sVcoordinates
p74
Nsg54
(dp75
Vsymbols
p76
(lp77
(dp78
g29
(lp79
I20
aI25
asg67
VBBDO
p80
sasVuser_mentions
p81
(lp82
sVhashtags
p83
(lp84
(dp85
g29
(lp86
I0
aI6
asg67
VBanco
p87
sa(dp88
g29
(lp89
I27
aI33
asg67
VStock
p90
sa(dp91
g29
(lp92
I40
aI49
asg67
Vforecast
p93
sasg25
(lp94
(dp95
g23
Vhttps://t.co/YoYM3cGioE
p96
sg29
(lp97
I92
aI115
asg31
Vhttp://EventsTrend.com/index.php?r=search/view&id=322
p98
sg33
VEventsTrend.com/index.php?r=se\u2026
p99
sassVin_reply_to_screen_name
p100
Nsg58
V666278104751411200
p101
sVretweet_count
p102
I0
sVin_reply_to_user_id
p103
NsVfavorited
p104
I00
sVgeo
p105
NsVin_reply_to_user_id_str
p106
NsVpossibly_sensitive
p107
I00
sVlang
p108
Ven
p109
sVcreated_at
p110
VMon Nov 16 15:34:13 +0000 2015
p111
sVin_reply_to_status_id_str
p112
NsVplace
p113
NssVis_translation_enabled
p114
I00
sVutc_offset
p115
I-39600
sVstatuses_count
p116
I6100
sg35
VFollow our extreme analytical algorithms and make a profit!
p117
sVfriends_count
p118
I901
sVlocation
p119
VUSA
p120
sVprofile_link_color
p121
V0084B4
p122
sVprofile_image_url
p123
Vhttp://pbs.twimg.com/profile_images/648768997580783616/taq5y0RZ_normal.jpg
p124
sVfollowing
p125
NsVgeo_enabled
p126
I00
sVprofile_background_image_url
p127
Vhttp://abs.twimg.com/images/themes/theme1/bg.png
p128
sVscreen_name
p129
Veventstrendcom
p130
sg108
Ven
p131
sVprofile_background_tile
p132
I00
sVfavourites_count
p133
I0
sVname
p134
VEventsTrend_com
p135
sVnotifications
p136
Nsg23
Vhttp://t.co/DzUno6hxyF
p137
sg110
VMon Sep 28 11:42:34 +0000 2015
p138
sVcontributors_enabled
p139
I00
sVtime_zone
p140
VInternational Date Line West
p141
sVprotected
p142
I00
sVdefault_profile
p143
I01
sVis_translator
p144
I00
ssS'contributors_enabled'
p145
I00
sS'profile_text_color'
p146
g51
sS'followers_count'
p147
I438
sS'profile_sidebar_border_color'
p148
g57
sS'id_str'
p149
g59
sS'default_profile_image'
p150
I00
sS'listed_count'
p151
I48
sS'status'
p152
g8
(ctweepy.models
Status
p153
g10
Ntp154
Rp155
(dp156
S'favorited'
p157
I00
sS'contributors'
p158
NsS'truncated'
p159
I00
sS'text'
p160
V#Banco Bradesco Sa, $BBDO. #Stock price #forecast: 6.55 (+7.20%). Probability: 0%.\u000aMore on: https://t.co/YoYM3cGioE
p161
sS'source_url'
p162
Vhttp://www.eventstrend.com/
p163
sS'possibly_sensitive'
p164
I00
sS'in_reply_to_status_id'
p165
NsS'geo'
p166
Nsg19
L666278104751411200L
sS'favorite_count'
p167
I0
sS'lang'
p168
g109
sg21
g75
sS'created_at'
p169
cdatetime
datetime
p170
(S'\x07\xdf\x0b\x10\x0f"\r\x00\x00\x00'
p171
tp172
Rp173
sg40
g64
sS'coordinates'
p174
NsS'in_reply_to_user_id_str'
p175
NsS'source'
p176
Veventstrend
p177
sS'in_reply_to_status_id_str'
p178
NsS'in_reply_to_screen_name'
p179
Nsg149
g101
sS'retweeted'
p180
I00
sS'place'
p181
NsS'retweet_count'
p182
I0
sS'in_reply_to_user_id'
p183
NsbsS'is_translation_enabled'
p184
I00
sS'utc_offset'
p185
I-39600
sS'statuses_count'
p186
I6100
sS'description'
p187
g117
sS'friends_count'
p188
I901
sS'location'
p189
g120
sS'profile_link_color'
p190
g122
sS'profile_image_url'
p191
g124
sS'notifications'
p192
NsS'geo_enabled'
p193
I00
sS'profile_background_color'
p194
g61
sS'profile_background_image_url'
p195
g128
sS'screen_name'
p196
g130
sg168
g131
sg1
I00
sS'profile_background_tile'
p197
I00
sS'favourites_count'
p198
I0
sS'name'
p199
g135
sS'url'
p200
g137
sg169
g170
(S'\x07\xdf\t\x1c\x0b*"\x00\x00\x00'
p201
tp202
Rp203
sS'profile_background_image_url_https'
p204
g48
sS'time_zone'
p205
g141
sS'protected'
p206
I00
sS'default_profile'
p207
I01
sS'is_translator'
p208
I00
sbs.