(dp0
S'following'
p1
(lp2
(lp3
I41634520
aI50769180
aL3108031272L
aI829735580
aI16710420
aI256563070
aI862002668
aI337719016
aI354133033
aI76966092
aL2252839610L
aI180503626
aI20895801
aI321796012
aI14464889
aI174316096
aL2896480906L
aI317336801
aL2203695764L
aI365661337
aL2314468920L
aI1717324226
aI53210455
aI50094643
aI120181792
aI43037025
aI173373241
aI459051859
aI21441630
aL2375981821L
aI1286514872
aL2209486970L
aI1941640466
aI339832905
aL2992414321L
aI41753918
aI1529271854
aL2966884768L
aI1024244078
aI531351424
aI34739735
aI20591919
aL3179517562L
aI12511062
aI303531344
aI1618641848
aI487247856
aI55254370
aI256628776
aL2825270328L
aL2604411032L
aI1306380096
aL3094274601L
aI1656413190
aI1381319731
aI60121599
aI18814734
aI310267329
aI65577676
aI27508150
aI14367719
aL2669756593L
aL2316246829L
aI346924655
aI410226900
aL2394624246L
aI19739279
aI611817117
aI18610043
aI1287297769
aI14828860
aL2788588083L
aI1277178181
aI14216123
aI20859500
aI10168082
aI1971858889
aI21343653
aL2744030978L
aI820031509
aL2665593223L
aL2758561189L
aI474974721
aI139103029
aI35767916
aI101756062
aI184477052
aI83554234
aI31891798
aI159111501
aI32789366
aL2264634042L
aI420541470
aI16248319
aI71165327
aI626027511
aI394090261
aI394106379
aI45931686
aI451965179
aI110247928
aI25292321
aI239614653
aI573283970
aI976319580
aI701452520
aI158111647
aI485034814
aI54379587
aI1538409192
aI1424181884
aI65589378
aI762288584
aI282381651
aI1404122768
aI621206572
aI1902886687
aI872242813
aL2586933196L
aI62815642
aI352372337
aI20321342
aI34460094
aI368115314
aI867894379
aI769700574
aI1085595140
aI1485773706
aI1975843194
aI113484482
aI86129724
aI455309376
aI163538563
aI1418339024
aI43111757
aI404056339
aI411786151
aI12524522
aI166597717
aI111634805
aI121225806
aI1360035901
aI7517052
aI34713362
aI817386
aI1177030422
aI555928038
aI33949552
aI22256645
aI15897179
aI19321565
aI177585732
aI72907355
aI162060435
aI1076426328
aI14721067
aI222625575
aI40897130
aI311239252
aI259953437
aI24878730
aI339039253
aI566677925
aI233250372
aI30818980
aI500704345
aI23314919
aI6088622
aI17880354
aI52050609
aI281648605
aI61342056
aI757803600
aI21098686
aI270453567
aI361230803
aI46265027
aI53939341
aI271138078
aI15808764
aI25676754
aI33543414
aI18856867
aI478293634
aI16712700
aI199640036
aI833825258
aI253518798
aI143683597
aI280758770
aI28445389
aI430528153
aI18002528
aI211951561
aI229141520
aI270896836
aI446390429
aI14886375
aI17790265
aI126717954
aI100592354
aI251379913
aI88558738
aI44824361
aI18719020
aI17780244
aI84402174
aI378334234
aI216852184
aI132673153
aI22324876
aI14933262
aI18791763
aI36167231
aI6017542
aI23484039
aI15110357
aI28347854
aI104237736
aI30951995
aI1754641
aI139986343
aI3108351
aI14463595
aI20702771
aI624413
aI28140646
aI21328656
aI73284188
aI282245814
aI106878438
aI18378349
aI19790872
aI15568127
aI15884341
aI16732770
aasS'followers'
p4
(lp5
(lp6
I1933042237
aI44914646
aL2490675820L
aL2906862160L
aI1927916960
aI592244584
aI954590804
aI114589092
aL2801625403L
aL3966555500L
aI1501139258
aL2762641654L
aI184383206
aI42912883
aI173167923
aL3108031272L
aI443336500
aI975450222
aL3675589653L
aI829735580
aI16710420
aI310359394
aL3308250273L
aI137796394
aL3301152754L
aI862002668
aL3236686660L
aI337719016
aI76966092
aI256203095
aI125793686
aL2252839610L
aL3450351803L
aI321796012
aI14464889
aL3406851406L
aI1645107314
aI174316096
aI55256214
aI447068307
aL2896480906L
aL2203695764L
aI317336801
aL3070091900L
aI365661337
aI1277178181
aL2314468920L
aI318676011
aI1717324226
aI971129101
aI53210455
aI43037025
aI120181792
aI50094643
aL2454283122L
aI459051859
aL2740559077L
aI1286514872
aL2209486970L
aL2375981821L
aI1941640466
aI17655554
aI339832905
aL2888735372L
aI390822751
aL2992414321L
aI176540776
aI1236937141
aI127967449
aI1529271854
aI1024244078
aI531351424
aI20591919
aL3087749309L
aL3179517562L
aI12511062
aI256563070
aI303531344
aI1618641848
aI487247856
aL2825270328L
aL2604411032L
aI1306380096
aL3094274601L
aI1656413190
aL3065432774L
aI1381319731
aI60121599
aI561654065
aI18472330
aI18814734
aI310267329
aL2316246829L
aL2669756593L
aI346924655
aL2719929684L
aI14367719
aI410226900
aL2394624246L
aI611817117
aI18610043
aI14828860
aI1287297769
aL2912585938L
aI83992624
aL2788588083L
aL2831153890L
aL2900136916L
aI1686543487
aI1971858889
aL2725973497L
aL2849283400L
aI21343653
aL2744030978L
aL2665593223L
aI31369038
aI256628776
aI1961041356
aL2515992392L
aL2414611958L
aL2758561189L
aI27508150
aI63818960
aI474974721
aI65577676
aI21105418
aI17018005
aI16049557
aI139103029
aL2289928014L
aI32789366
aI31891798
aI159111501
aI101756062
aI184477052
aI83554234
aI420541470
aI35767916
aI71165327
aI1612160077
aI16248319
aI352372337
aI62815642
aI21098686
aI20321342
aL2586933196L
aI872242813
aI34460094
aI1902886687
aI1443070345
aL2583265517L
aL2233122444L
aI1881318962
aI113484482
aL2371284247L
aI1404122768
aI621206572
aI257635313
aI43111757
aI411786151
aI282381651
aI1975843194
aI762288584
aI65589378
aI370465706
aI626027511
aI1424181884
aI1538409192
aI15298719
aI1485773706
aI121225806
aI54379587
aI19487147
aI1085595140
aI20859500
aI85849468
aI485034814
aI260091820
aI1177030422
aI583690730
aI237801571
aI19321565
aI15897179
aI1076426328
aI158111647
aI211951561
aI769700574
aI339039253
aI233250372
aI701452520
aI976319580
aI52050609
aI281648605
aI467214955
aI907801981
aI573283970
aI25676754
aI14579415
aI867894379
aI239614653
aI478293634
aI757803600
aI25292321
aI833825258
aI17880354
aI350681037
aI98186057
aI53939341
aI790278692
aI33949552
aI110247928
aI143683597
aI280758770
aI33543414
aI449684011
aI451965179
aI430528153
aI368115314
aI566677925
aI475345713
aI468193576
aI14307521
aI398618334
aI45931686
aI439241442
aI456360787
aI259953437
aI394268803
aI451659528
aI442957185
aI195968175
aI446390429
aI191790655
aI55254370
aI88558738
aI311239045
aI216852184
aI414281551
aI132673153
aI383320274
aI270896836
aI404516730
aI348129573
aI21927871
aI394106379
aI394090261
aI316915361
aI30951995
aI311239252
aI14463595
aI73284188
aI20702771
aasS'obj'
p7
ccopy_reg
_reconstructor
p8
(ctweepy.models
User
p9
c__builtin__
object
p10
Ntp11
Rp12
(dp13
S'follow_request_sent'
p14
NsS'has_extended_profile'
p15
I00
sS'profile_use_background_image'
p16
I01
sS'profile_sidebar_fill_color'
p17
VDDEEF6
p18
sS'id'
p19
I381490739
sS'verified'
p20
I00
sS'entities'
p21
(dp22
Vurl
p23
(dp24
Vurls
p25
(lp26
(dp27
g23
Vhttp://t.co/iqisAp4nPr
p28
sVindices
p29
(lp30
I0
aI22
asVexpanded_url
p31
Vhttp://www.tampadelphia.com
p32
sVdisplay_url
p33
Vtampadelphia.com
p34
sassVdescription
p35
(dp36
g25
(lp37
sssS'profile_image_url_https'
p38
Vhttps://pbs.twimg.com/profile_images/2848259690/b813327856a3383f522110fa0ece8ff7_normal.jpeg
p39
sS'_json'
p40
(dp41
Vfollow_request_sent
p42
NsVhas_extended_profile
p43
I00
sVprofile_use_background_image
p44
I01
sVdefault_profile_image
p45
I00
sVid
p46
I381490739
sVprofile_background_image_url_https
p47
Vhttps://abs.twimg.com/images/themes/theme1/bg.png
p48
sVverified
p49
I00
sVprofile_text_color
p50
V333333
p51
sVprofile_image_url_https
p52
g39
sVprofile_sidebar_fill_color
p53
g18
sVentities
p54
g22
sVfollowers_count
p55
I252
sVprofile_sidebar_border_color
p56
VC0DEED
p57
sVid_str
p58
V381490739
p59
sVprofile_background_color
p60
VC0DEED
p61
sVlisted_count
p62
I37
sVstatus
p63
(dp64
Vcontributors
p65
NsVtruncated
p66
I00
sVtext
p67
Vstanding O! https://t.co/Xv43PNK40j
p68
sVin_reply_to_status_id
p69
Nsg46
L666235887865495552L
sVfavorite_count
p70
I0
sVsource
p71
V<a href="http://twitter.com" rel="nofollow">Twitter Web Client</a>
p72
sVretweeted
p73
I00
sVcoordinates
p74
Nsg54
(dp75
Vsymbols
p76
(lp77
sVuser_mentions
p78
(lp79
sVhashtags
p80
(lp81
sg25
(lp82
(dp83
g23
Vhttps://t.co/Xv43PNK40j
p84
sg29
(lp85
I12
aI35
asg31
Vhttps://twitter.com/Mike_Beacham/status/666216564329435136
p86
sg33
Vtwitter.com/Mike_Beacham/s\u2026
p87
sassVin_reply_to_screen_name
p88
Nsg58
V666235887865495552
p89
sVretweet_count
p90
I0
sVin_reply_to_user_id
p91
NsVfavorited
p92
I00
sVgeo
p93
NsVin_reply_to_user_id_str
p94
NsVpossibly_sensitive
p95
I00
sVlang
p96
Ven
p97
sVcreated_at
p98
VMon Nov 16 12:46:28 +0000 2015
p99
sVin_reply_to_status_id_str
p100
NsVplace
p101
NssVis_translation_enabled
p102
I00
sVutc_offset
p103
I-18000
sVstatuses_count
p104
I10528
sg35
VFounder, Tampadelphia Fan Club (diehard fans of all Philly teams).  Investor.  Workouts!  Tech-y.  Proactive and high energy.  Things that sparkle n twinkle.
p105
sVfriends_count
p106
I236
sVlocation
p107
VTampa now, Philly then
p108
sVprofile_link_color
p109
V0084B4
p110
sVprofile_image_url
p111
Vhttp://pbs.twimg.com/profile_images/2848259690/b813327856a3383f522110fa0ece8ff7_normal.jpeg
p112
sVfollowing
p113
NsVgeo_enabled
p114
I00
sVprofile_background_image_url
p115
Vhttp://abs.twimg.com/images/themes/theme1/bg.png
p116
sVscreen_name
p117
Vtampadelphia1
p118
sg96
Ven
p119
sVprofile_background_tile
p120
I00
sVfavourites_count
p121
I174
sVname
p122
VPaul 
p123
sVnotifications
p124
Nsg23
Vhttp://t.co/iqisAp4nPr
p125
sg98
VWed Sep 28 12:36:39 +0000 2011
p126
sVcontributors_enabled
p127
I00
sVtime_zone
p128
VEastern Time (US & Canada)
p129
sVprotected
p130
I00
sVdefault_profile
p131
I01
sVis_translator
p132
I00
ssS'contributors_enabled'
p133
I00
sS'profile_text_color'
p134
g51
sS'followers_count'
p135
I252
sS'profile_sidebar_border_color'
p136
g57
sS'id_str'
p137
g59
sS'default_profile_image'
p138
I00
sS'listed_count'
p139
I37
sS'status'
p140
g8
(ctweepy.models
Status
p141
g10
Ntp142
Rp143
(dp144
S'favorited'
p145
I00
sS'contributors'
p146
NsS'truncated'
p147
I00
sS'text'
p148
g68
sS'source_url'
p149
Vhttp://twitter.com
p150
sS'possibly_sensitive'
p151
I00
sS'in_reply_to_status_id'
p152
NsS'geo'
p153
Nsg19
L666235887865495552L
sS'favorite_count'
p154
I0
sS'lang'
p155
g97
sg21
g75
sS'created_at'
p156
cdatetime
datetime
p157
(S'\x07\xdf\x0b\x10\x0c.\x1c\x00\x00\x00'
p158
tp159
Rp160
sg40
g64
sS'coordinates'
p161
NsS'in_reply_to_user_id_str'
p162
NsS'source'
p163
VTwitter Web Client
p164
sS'in_reply_to_status_id_str'
p165
NsS'in_reply_to_screen_name'
p166
Nsg137
g89
sS'retweeted'
p167
I00
sS'place'
p168
NsS'retweet_count'
p169
I0
sS'in_reply_to_user_id'
p170
NsbsS'is_translation_enabled'
p171
I00
sS'utc_offset'
p172
I-18000
sS'statuses_count'
p173
I10528
sS'description'
p174
g105
sS'friends_count'
p175
I236
sS'location'
p176
g108
sS'profile_link_color'
p177
g110
sS'profile_image_url'
p178
g112
sS'notifications'
p179
NsS'geo_enabled'
p180
I00
sS'profile_background_color'
p181
g61
sS'profile_background_image_url'
p182
g116
sS'screen_name'
p183
g118
sg155
g119
sg1
I00
sS'profile_background_tile'
p184
I00
sS'favourites_count'
p185
I174
sS'name'
p186
g123
sS'url'
p187
g125
sg156
g157
(S"\x07\xdb\t\x1c\x0c$'\x00\x00\x00"
p188
tp189
Rp190
sS'profile_background_image_url_https'
p191
g48
sS'time_zone'
p192
g129
sS'protected'
p193
I00
sS'default_profile'
p194
I01
sS'is_translator'
p195
I00
sbs.