(dp0
S'following'
p1
(lp2
(lp3
I482133423
aL2184412099L
aL2882796295L
aI77655670
aI321487574
aI432339233
aL4077721821L
aL4096598958L
aI15741883
aI9555372
aL3044595401L
aI519866717
aL3289917664L
aI611888584
aL4069485208L
aI1924316509
aL4098331521L
aI354360639
aL3194622424L
aL4108323184L
aI1584500023
aL2970306940L
aL3387939440L
aL2492255617L
aL2842086370L
aL3018809793L
aI860252845
aL2509198319L
aL2261698885L
aL3947270356L
aI512704181
aL3946564281L
aL3944877897L
aL3327820536L
aL2778655002L
aL3944869936L
aL2797122392L
aL2817071881L
aL3360697030L
aL4002068074L
aL2828573041L
aL2516029806L
aI408858964
aL3415354269L
aL2801207309L
aI752674674
aI116871279
aL3864652213L
aL3222291459L
aI87410376
aL3331100733L
aI18408384
aI181694440
aL3996231280L
aL3092585980L
aI251685356
aL3955336757L
aL2546447620L
aI1922367577
aL3135480239L
aL3181126173L
aL3409433439L
aL3322166246L
aL3066335590L
aI234745505
aI936560438
aI95559739
aI1861663298
aL3865334292L
aL3972753400L
aL2781050528L
aL2860845668L
aL2828756106L
aI127967449
aI788333744
aL2801334731L
aI92893983
aI175439376
aI1583359764
aL3298920242L
aL3289673974L
aL2992414321L
aI35828529
aL2678090893L
aL3044526195L
aI601109375
aI36894359
aI144986211
aL2427554983L
aI972838308
aI627765164
aL2394624246L
aI279030890
aL2365373972L
aL2373689929L
aL2846751165L
aL2827634815L
aL2788047050L
aL2775693165L
aL2812981805L
aI1923159170
aasS'followers'
p4
(lp5
(lp6
I20122700
aL4108364716L
aI24411256
aL3930897327L
aL2993894998L
aL3271229221L
aL2499255978L
aL3044887641L
aL4044420077L
aL4109685195L
aI1924312855
aI482133423
aI597799971
aL2184412099L
aL3984267617L
aL2882796295L
aI77655670
aL4077721821L
aL2552366984L
aI321487574
aI432339233
aI15741883
aL4096598958L
aI9555372
aL3044595401L
aL3289917664L
aI519866717
aI611888584
aL4069485208L
aI1924316509
aL4098331521L
aI354360639
aL3194622424L
aL4108323184L
aI1584500023
aL2492255617L
aL2970306940L
aL3387939440L
aL3018809793L
aL2842086370L
aL2907935667L
aL2444437262L
aL2647287229L
aI15812297
aI860252845
aL2261698885L
aL3947270356L
aI512704181
aL3946564281L
aL4048176140L
aI1230546306
aL4002068074L
aL3944877897L
aL2778655002L
aL3944869936L
aL2817071881L
aL2797122392L
aL3327820536L
aL3360697030L
aL2516029806L
aL2828573041L
aI408858964
aI752674674
aL2801207309L
aL3415354269L
aI116871279
aL3864652213L
aL3222291459L
aI87410376
aI18408384
aL3331100733L
aI181694440
aL3996231280L
aL3092585980L
aI251685356
aL3955336757L
aI426232054
aL2546447620L
aI1922367577
aL3135480239L
aL3409433439L
aL3066335590L
aI234745505
aI936560438
aI95559739
aI1861663298
aL3972753400L
aL3865334292L
aL3322166246L
aL2781050528L
aL2860845668L
aL2801334731L
aI127967449
aL2828756106L
aI788333744
aI175439376
aI92893983
aI1583359764
aL3298920242L
aL3289673974L
aI35828529
aL2992414321L
aL2678090893L
aL3044526195L
aI627765164
aI972838308
aL2427554983L
aI144986211
aI36894359
aI601109375
aL2394624246L
aL2812981805L
aL2788047050L
aL2775693165L
aL2846751165L
aL2827634815L
aL2365373972L
aL2373689929L
aI1923159170
aasS'obj'
p7
ccopy_reg
_reconstructor
p8
(ctweepy.models
User
p9
c__builtin__
object
p10
Ntp11
Rp12
(dp13
S'follow_request_sent'
p14
I00
sS'has_extended_profile'
p15
I00
sS'profile_use_background_image'
p16
I00
sS'profile_sidebar_fill_color'
p17
V000000
p18
sS'id'
p19
L3834138105L
sS'verified'
p20
I00
sS'entities'
p21
(dp22
Vurl
p23
(dp24
Vurls
p25
(lp26
(dp27
g23
Vhttp://t.co/ZrIfZMmWA1
p28
sVindices
p29
(lp30
I0
aI22
asVexpanded_url
p31
Vhttp://demo.fingraphs.com
p32
sVdisplay_url
p33
Vdemo.fingraphs.com
p34
sassVdescription
p35
(dp36
g25
(lp37
sssS'profile_image_url_https'
p38
Vhttps://pbs.twimg.com/profile_images/656429386661560320/5x91TVQ1_normal.png
p39
sS'_json'
p40
(dp41
Vfollow_request_sent
p42
I00
sVhas_extended_profile
p43
I00
sVprofile_use_background_image
p44
I00
sVdefault_profile_image
p45
I00
sVid
p46
L3834138105L
sVprofile_background_image_url_https
p47
Vhttps://abs.twimg.com/images/themes/theme1/bg.png
p48
sVverified
p49
I00
sVprofile_text_color
p50
V000000
p51
sVprofile_image_url_https
p52
g39
sVprofile_sidebar_fill_color
p53
g18
sVentities
p54
g22
sVfollowers_count
p55
I119
sVprofile_sidebar_border_color
p56
V000000
p57
sVid_str
p58
V3834138105
p59
sVprofile_background_color
p60
V000000
p61
sVlisted_count
p62
I44
sVstatus
p63
(dp64
Vcontributors
p65
NsVtruncated
p66
I00
sVtext
p67
V#UBS https://t.co/ZTIcvYqTx7 Pot. cont. Downtrend INTRAWEEK 60m-15m-4m combo chart $UBSG $SMI #Aktien https://t.co/rs9vancH67
p68
sVin_reply_to_status_id
p69
Nsg46
L666386153122242560L
sVfavorite_count
p70
I0
sVsource
p71
V<a href="http://www.fingraphs.com" rel="nofollow">CFinGraphs</a>
p72
sVretweeted
p73
I00
sVcoordinates
p74
Nsg54
(dp75
Vsymbols
p76
(lp77
(dp78
g29
(lp79
I83
aI88
asg67
VUBSG
p80
sa(dp81
g29
(lp82
I89
aI93
asg67
VSMI
p83
sasVuser_mentions
p84
(lp85
sVhashtags
p86
(lp87
(dp88
g29
(lp89
I0
aI4
asg67
VUBS
p90
sa(dp91
g29
(lp92
I94
aI101
asg67
VAktien
p93
sasg25
(lp94
(dp95
g23
Vhttps://t.co/ZTIcvYqTx7
p96
sg29
(lp97
I5
aI28
asg31
Vhttp://demo.FinGraphs.com
p98
sg33
Vdemo.FinGraphs.com
p99
sasVmedia
p100
(lp101
(dp102
g31
Vhttp://twitter.com/CFingraphs/status/666386153122242560/photo/1
p103
sg33
Vpic.twitter.com/rs9vancH67
p104
sg23
Vhttps://t.co/rs9vancH67
p105
sVmedia_url_https
p106
Vhttps://pbs.twimg.com/media/CT96rOBWEAA6gXY.png
p107
sg58
V666386152790822912
p108
sVsizes
p109
(dp110
Vlarge
p111
(dp112
Vh
p113
I796
sVresize
p114
Vfit
p115
sVw
p116
I968
ssVsmall
p117
(dp118
g113
I279
sg114
Vfit
p119
sg116
I340
ssVmedium
p120
(dp121
g113
I493
sg114
Vfit
p122
sg116
I600
ssVthumb
p123
(dp124
g113
I150
sg114
Vcrop
p125
sg116
I150
sssg29
(lp126
I102
aI125
asVtype
p127
Vphoto
p128
sg46
L666386152790822912L
sVmedia_url
p129
Vhttp://pbs.twimg.com/media/CT96rOBWEAA6gXY.png
p130
sassVin_reply_to_screen_name
p131
Nsg58
V666386153122242560
p132
sVretweet_count
p133
I0
sVin_reply_to_user_id
p134
NsVfavorited
p135
I00
sVgeo
p136
NsVin_reply_to_user_id_str
p137
NsVpossibly_sensitive
p138
I00
sVlang
p139
Ven
p140
sVcreated_at
p141
VMon Nov 16 22:43:34 +0000 2015
p142
sVin_reply_to_status_id_str
p143
NsVplace
p144
NssVis_translation_enabled
p145
I00
sVutc_offset
p146
I3600
sVstatuses_count
p147
I3952
sg35
VPromote your offer with a #FinGraphs Co-Branded Twitter a/c Post charts from your selection which Link back to your Co-Branded FinGraphs website
p148
sVfriends_count
p149
I101
sVlocation
p150
Vyour location & globally
p151
sVprofile_link_color
p152
V3B94D9
p153
sVprofile_image_url
p154
Vhttp://pbs.twimg.com/profile_images/656429386661560320/5x91TVQ1_normal.png
p155
sVfollowing
p156
I00
sVgeo_enabled
p157
I01
sVprofile_banner_url
p158
Vhttps://pbs.twimg.com/profile_banners/3834138105/1444037587
p159
sVprofile_background_image_url
p160
Vhttp://abs.twimg.com/images/themes/theme1/bg.png
p161
sVscreen_name
p162
VCFingraphs
p163
sg139
Ven
p164
sVprofile_background_tile
p165
I00
sVfavourites_count
p166
I6
sVname
p167
VCo-Branded FinGraphs
p168
sVnotifications
p169
I00
sg23
Vhttp://t.co/ZrIfZMmWA1
p170
sg141
VThu Oct 01 14:24:24 +0000 2015
p171
sVcontributors_enabled
p172
I00
sVtime_zone
p173
VBern
p174
sVprotected
p175
I00
sVdefault_profile
p176
I00
sVis_translator
p177
I00
ssS'contributors_enabled'
p178
I00
sS'profile_text_color'
p179
g51
sS'followers_count'
p180
I119
sS'profile_sidebar_border_color'
p181
g57
sS'id_str'
p182
g59
sS'default_profile_image'
p183
I00
sS'listed_count'
p184
I44
sS'status'
p185
g8
(ctweepy.models
Status
p186
g10
Ntp187
Rp188
(dp189
S'favorited'
p190
I00
sS'contributors'
p191
NsS'truncated'
p192
I00
sS'text'
p193
g68
sS'source_url'
p194
Vhttp://www.fingraphs.com
p195
sS'possibly_sensitive'
p196
I00
sS'in_reply_to_status_id'
p197
NsS'geo'
p198
Nsg19
L666386153122242560L
sS'favorite_count'
p199
I0
sS'lang'
p200
g140
sg21
g75
sS'created_at'
p201
cdatetime
datetime
p202
(S'\x07\xdf\x0b\x10\x16+"\x00\x00\x00'
p203
tp204
Rp205
sg40
g64
sS'coordinates'
p206
NsS'in_reply_to_user_id_str'
p207
NsS'source'
p208
VCFinGraphs
p209
sS'in_reply_to_status_id_str'
p210
NsS'in_reply_to_screen_name'
p211
Nsg182
g132
sS'retweeted'
p212
I00
sS'place'
p213
NsS'retweet_count'
p214
I0
sS'in_reply_to_user_id'
p215
NsbsS'is_translation_enabled'
p216
I00
sS'utc_offset'
p217
I3600
sS'statuses_count'
p218
I3952
sS'description'
p219
g148
sS'friends_count'
p220
I101
sS'location'
p221
g151
sS'profile_link_color'
p222
g153
sS'profile_image_url'
p223
g155
sS'notifications'
p224
I00
sS'geo_enabled'
p225
I01
sS'profile_background_color'
p226
g61
sS'profile_banner_url'
p227
g159
sS'profile_background_image_url'
p228
g161
sS'screen_name'
p229
g163
sg200
g164
sg1
I00
sS'profile_background_tile'
p230
I00
sS'favourites_count'
p231
I6
sS'name'
p232
g168
sS'url'
p233
g170
sg201
g202
(S'\x07\xdf\n\x01\x0e\x18\x18\x00\x00\x00'
p234
tp235
Rp236
sS'profile_background_image_url_https'
p237
g48
sS'time_zone'
p238
g174
sS'protected'
p239
I00
sS'default_profile'
p240
I00
sS'is_translator'
p241
I00
sbs.