(dp0
S'following'
p1
(lp2
(lp3
I237592074
aI629621591
aI258028535
aI103883488
aL3426014292L
aL2278259810L
aL2461364339L
aI71372467
aL3279143178L
aI190773758
aI286299293
aL2916305152L
aI188882079
aI14063950
aI312653402
aI296520276
aI216487079
aL3113719124L
aL2581358730L
aI140912249
aI26141091
aI109066090
aI255135151
aI54139776
aI478177435
aI1373112260
aI19209915
aI15296897
aL2493182384L
aI1928213371
aL2359057332L
aI572064418
aI40726636
aI17049899
aI1616185404
aI820031509
aI169489285
aL3280850588L
aI122511616
aI14031032
aI30513101
aI17174309
aI300923308
aI300338214
aI14216123
aI1347071545
aI16732770
aI39853973
aI132173493
aI27990259
aI1310746040
aI27162339
aI430841130
aI396294440
aL2169436064L
aI244526641
aI137322271
aI210862918
aI229966745
aI39467526
aI39294671
aI735536305
aI28659242
aI45539593
aI259354209
aI18944615
aI1001726569
aI243287822
aI50184013
aI18750157
aI1951639321
aI134234000
aI19520983
aI36746176
aI20793816
aI14751476
aI1228437768
aI279390084
aL2690637547L
aI1587232273
aI16651784
aI370238655
aI376154503
aL2293285394L
aI17632756
aI71323944
aI18719020
aI211951561
aL2290523166L
aL2232016410L
aI44060322
aI34176543
aI53167708
aI258970544
aI30074516
aI1055551057
aI67066114
aI18639734
aL2778611606L
aI448524565
aI110781385
aI37555599
aI31065027
aI61089299
aI24511803
aL3111141768L
aI113781050
aI1112905608
aI1641947366
aL2421582940L
aI47678782
aI1532465924
aI20913964
aI20596865
aI558213489
aI172836249
aI473227811
aL2593539817L
aI294120248
aI249792520
aI42956737
aI85654185
aI164315100
aI807095
aI14293310
aI15110357
aI28140646
aI624413
aI28164923
aI16827489
aI69620713
aI17033995
aI35002876
aI91478624
aI21323268
aI23221109
aI474022441
aI39085071
aI31954644
aL2590584788L
aI44438256
aI376347156
aI18378349
aI97334517
aI15693493
aI46954727
aI475524030
aI1370308412
aI32395417
aI163537857
aI26538229
aI18481050
aI120176950
aI248856369
aI1152105936
aI29595071
aI245562569
aI171353487
aL2830798469L
aI217887450
aI179330403
aI59590262
aI41655044
aI138061211
aI24230435
aI368914992
aI390019354
aI256147846
aI634269745
aI28181284
aI409591918
aI82214420
aI1053492764
aI888903264
aI433664446
aI1679092224
aI168186079
aI1272544088
aI820379341
aI194346014
aI1370906497
aI550249206
aI510653664
aI1375860338
aI16212685
aI488908283
aI236966922
aI27084414
aI19923144
aI28370738
aI890891
aI16331010
aI28870086
aI36362259
aI117270375
aI632341632
aI61892507
aI338330795
aI52553193
aL2207442626L
aI165432070
aI22092119
aI241789496
aI1898382380
aI23059499
aI100598125
aI73211713
aI20021214
aI163559269
aL2560893942L
aI47964412
aI15716974
aI388521433
aI142839300
aI274233761
aI15971805
aI240826569
aI166711687
aI1469603575
aI985885272
aI519009397
aI79233326
aI236953420
aI223905396
aI16515274
aI22536055
aI12101862
aI174300250
aI21215371
aI244969675
aI82711419
aI620161199
aI123276343
aI259034658
aI514781725
aI50323173
aI20460897
aI426857839
aI111054964
aI477960141
aI928336946
aI56815391
aI813286
aI61035388
aI39613642
aI38536306
aI90420314
aI234883102
aI119191281
aI76222604
aI40892016
aI14506253
aI84312619
aI44196397
aI1534167900
aI586671909
aI283982869
aI330736704
aI176206048
aI154167801
aI432497940
aI22445483
aI36359651
aI42360500
aI1099998199
aI46933773
aI183502719
aI23235056
aI463100829
aI1452409069
aI266313720
aI161011546
aI252279354
aI272162794
aI144975371
aI83720018
aI376217047
aI33710452
aI21258096
aI83722593
aI243442402
aI235335386
aI250831586
aI231594837
aI14250809
aI18560146
aI24227424
aI20015311
aI754897
aI3108351
aI16451932
aI14886375
aI18949452
aI20402945
aI14173315
aI4898091
aI16184358
aI34713362
aI205789121
aI67358777
aI6017542
aI21112249
aI133456687
aI1364930179
aI26565946
aI16672159
aI30690661
aI398205834
aI17106279
aI79099132
aI40047532
aI34701524
aI353243693
aI115597898
aI364664580
aI177203829
aI607747504
aI18856867
aI494502009
aI898371
aI594080668
aI299762129
aI25406383
aI317365634
aI22826668
aI139197031
aI418945981
aI21870997
aI522502126
aI759421598
aI838059984
aI13213122
aI1098393906
aI473489410
aI632365085
aI221796405
aI287286722
aI335438453
aI341915578
aI22036378
aI494422305
aI959297659
aI43585581
aI510535738
aI45265448
aI357032926
aI349297814
aI17697489
aI29055317
aI772426082
aI612792060
aI488171475
aI300544697
aI545653819
aI21787625
aI19723265
aI361291804
aI3004231
aI254145412
aI574731054
aI524484619
aI388601707
aI101067915
aI141226134
aI308634790
aI172750813
aI541292937
aI184647530
aI23218995
aI516771149
aI256289743
aI28183933
aI486942179
aI121509578
aI60809481
aI42703684
aI27898683
aI103950006
aI357725510
aI342782636
aI88361428
aI16435731
aI325655146
aI261074207
aI17464780
aI30474900
aI14075928
aI16228398
aI177335471
aI51263592
aI55307193
aI41366372
aI62587361
aI259118584
aI284089166
aI263799473
aI236012226
aI18730188
aI15429316
aI212709109
aI18948541
aI36686415
aI73058561
aI261939425
aI259379883
aI25521487
aI61550723
aI15455834
aI15935591
aI21277169
aI17299063
aI85375262
aI32765534
aI140070953
aI18479513
aI19426551
aI2557521
aI32135704
aI165844689
aI165511100
aI190813558
aI176231669
aI428333
aI21046354
aI14694202
aI21839893
aI108978886
aI3173651
aI43759623
aI41144996
aI12838532
aI16381558
aI14498484
aI7313362
aI23083404
aI28445293
aI16827901
aI28135508
aasS'followers'
p4
(lp5
(lp6
I118138874
aL3130850559L
aI31492315
aI495110565
aI237592074
aI310334067
aL3255402674L
aL3280850588L
aL2964287876L
aI35784526
aI100185304
aI1682397852
aL3241298009L
aI316584359
aL3262634978L
aL3490619053L
aL3545194632L
aL3439376128L
aI545346535
aL3615691459L
aL3306248044L
aI1966253173
aI1614542430
aL2581358730L
aI14031032
aL3379546426L
aL2493182384L
aL2773951369L
aL2461364339L
aL2534664916L
aI225939717
aI40726636
aI1499874577
aL3408165951L
aL2748253646L
aI363416799
aL3146276675L
aL2169436064L
aI994257902
aL3152654915L
aL3240290076L
aL3310984367L
aI848811998
aI20327711
aL3186176178L
aL2950666943L
aI63969804
aI139404921
aI16004376
aL2940698732L
aI1641947366
aI24172445
aL2593382503L
aI1160386730
aI172836249
aL2593539817L
aI39058088
aL3060314708L
aL2590584788L
aI1370308412
aI248856369
aL2276319560L
aI245562569
aI1862432078
aL2269605744L
aL2343468235L
aI24230435
aI321490384
aI29595071
aL2803643046L
aI767560770
aL2608477262L
aI83720018
aI488908283
aL2806049324L
aI222812107
aI1202389375
aI247788883
aI22092119
aI161940408
aI494361823
aI1038829398
aI78129351
aI52334929
aI49846371
aL2385882452L
aI50463387
aL2284464986L
aL2334012018L
aI43950136
aI36792985
aI101833376
aI928336946
aI827385037
aI236898119
aI532434867
aI1849273802
aI237749212
aI1572148164
aI1455442544
aI83722593
aI1099998199
aI161011546
aI1466469048
aI1452409069
aI463100829
aI133429464
aI252279354
aI1434192391
aI231594837
aI1413862028
aI717909264
aI632751276
aI158237818
aI353243693
aI19940861
aI21870997
aI198402770
aI1098393906
aI1084635552
aI20202981
aI838059984
aI335438453
aI341915578
aI545653819
aI143945941
aI723742393
aI916462490
aI45265448
aI144640463
aI826047584
aI759421598
aI418945981
aI603016887
aI522502126
aI361291804
aI19723265
aI17697489
aI139197031
aI101067915
aI141226134
aI564794248
aI80413776
aI179114263
aI58478222
aI298838238
aI255979152
aI556817157
aI501183854
aI161431819
aI541292937
aI23662679
aI22826668
aI473954596
aI486942179
aI289679443
aI74253600
aI319987258
aI49503650
aI299762129
aI417499089
aI18250477
aI221443860
aI16135058
aI388601707
aI50934430
aI356226305
aI88073649
aI103950006
aI317365634
aI308634790
aI165511100
aI300847676
aI13877772
aI94878747
aI280893007
aI236012226
aI258850942
aI212709109
aI28445293
aI261939425
aI22036378
aI165844689
aI255867333
aI239972958
aI26320417
aI176231669
aI139013949
aI225151608
aI208011798
aI14694202
aI165406574
aI116512236
aI21046354
aI81611200
aI77131665
aI64337718
aI25406383
aI16827901
aI23537332
aI51598769
aI47732313
aI41212915
aI28135508
aasS'obj'
p7
ccopy_reg
_reconstructor
p8
(ctweepy.models
User
p9
c__builtin__
object
p10
Ntp11
Rp12
(dp13
S'follow_request_sent'
p14
I00
sS'has_extended_profile'
p15
I00
sS'profile_use_background_image'
p16
I01
sS'profile_sidebar_fill_color'
p17
VDDEEF6
p18
sS'id'
p19
I38340645
sS'verified'
p20
I00
sS'entities'
p21
(dp22
Vdescription
p23
(dp24
Vurls
p25
(lp26
sssS'profile_image_url_https'
p27
Vhttps://pbs.twimg.com/profile_images/666272413282402304/2PNh9lWU_normal.jpg
p28
sS'_json'
p29
(dp30
Vfollow_request_sent
p31
I00
sVhas_extended_profile
p32
I00
sVprofile_use_background_image
p33
I01
sVdefault_profile_image
p34
I00
sVid
p35
I38340645
sVprofile_background_image_url_https
p36
Vhttps://abs.twimg.com/images/themes/theme1/bg.png
p37
sVverified
p38
I00
sVprofile_text_color
p39
V333333
p40
sVprofile_image_url_https
p41
g28
sVprofile_sidebar_fill_color
p42
g18
sVentities
p43
g22
sVfollowers_count
p44
I204
sVprofile_sidebar_border_color
p45
VC0DEED
p46
sVid_str
p47
V38340645
p48
sVprofile_background_color
p49
VC0DEED
p50
sVlisted_count
p51
I5
sVstatus
p52
(dp53
Vlang
p54
Ven
p55
sVfavorited
p56
I00
sg43
(dp57
Vsymbols
p58
(lp59
(dp60
Vindices
p61
(lp62
I0
aI5
asVtext
p63
Vqure
p64
sasVuser_mentions
p65
(lp66
sVhashtags
p67
(lp68
sg25
(lp69
ssVcontributors
p70
NsVtruncated
p71
I00
sg63
V$qure starter today 1/4 size $17.35
p72
sVcreated_at
p73
VMon Nov 16 20:17:49 +0000 2015
p74
sVretweeted
p75
I00
sVin_reply_to_status_id_str
p76
NsVcoordinates
p77
NsVin_reply_to_user_id_str
p78
NsVsource
p79
V<a href="http://twitter.com/download/iphone" rel="nofollow">Twitter for iPhone</a>
p80
sVin_reply_to_status_id
p81
NsVin_reply_to_screen_name
p82
Nsg47
V666349474978119681
p83
sVplace
p84
(dp85
Vcountry_code
p86
VUS
p87
sVurl
p88
Vhttps://api.twitter.com/1.1/geo/id/1d9a5370a355ab0c.json
p89
sVcountry
p90
VUnited States
p91
sVplace_type
p92
Vcity
p93
sVbounding_box
p94
(dp95
Vtype
p96
VPolygon
p97
sg77
(lp98
(lp99
(lp100
F-87.940033
aF41.644102
aa(lp101
F-87.523993
aF41.644102
aa(lp102
F-87.523993
aF42.0230669
aa(lp103
F-87.940033
aF42.0230669
aaassVcontained_within
p104
(lp105
sVfull_name
p106
VChicago, IL
p107
sVattributes
p108
(dp109
sg35
V1d9a5370a355ab0c
p110
sVname
p111
VChicago
p112
ssVretweet_count
p113
I0
sVgeo
p114
Nsg35
L666349474978119681L
sVfavorite_count
p115
I0
sVin_reply_to_user_id
p116
NssVis_translation_enabled
p117
I00
sVutc_offset
p118
I-21600
sVstatuses_count
p119
I2462
sg23
VBiotech and sports focused. Ideas are my own. All things Chicago. Horribly inappropriate, yet thoroughly enjoying myself.
p120
sVfriends_count
p121
I438
sVlocation
p122
VChicago, IL
p123
sVprofile_link_color
p124
V0084B4
p125
sVprofile_image_url
p126
Vhttp://pbs.twimg.com/profile_images/666272413282402304/2PNh9lWU_normal.jpg
p127
sVfollowing
p128
I00
sVgeo_enabled
p129
I01
sVprofile_banner_url
p130
Vhttps://pbs.twimg.com/profile_banners/38340645/1442859466
p131
sVprofile_background_image_url
p132
Vhttp://abs.twimg.com/images/themes/theme1/bg.png
p133
sVscreen_name
p134
VJustEk33
p135
sg54
Ven
p136
sVprofile_background_tile
p137
I00
sVfavourites_count
p138
I644
sg111
VTaylor Ek
p139
sVnotifications
p140
I00
sg88
Nsg73
VThu May 07 02:05:36 +0000 2009
p141
sVcontributors_enabled
p142
I00
sVtime_zone
p143
VCentral Time (US & Canada)
p144
sVprotected
p145
I00
sVdefault_profile
p146
I01
sVis_translator
p147
I00
ssS'contributors_enabled'
p148
I00
sS'profile_text_color'
p149
g40
sS'followers_count'
p150
I204
sS'profile_sidebar_border_color'
p151
g46
sS'id_str'
p152
g48
sS'default_profile_image'
p153
I00
sS'listed_count'
p154
I5
sS'status'
p155
g8
(ctweepy.models
Status
p156
g10
Ntp157
Rp158
(dp159
S'favorited'
p160
I00
sS'contributors'
p161
NsS'truncated'
p162
I00
sS'text'
p163
g72
sS'source_url'
p164
Vhttp://twitter.com/download/iphone
p165
sS'in_reply_to_status_id'
p166
NsS'geo'
p167
Nsg19
L666349474978119681L
sS'favorite_count'
p168
I0
sS'lang'
p169
g55
sg21
g57
sS'created_at'
p170
cdatetime
datetime
p171
(S'\x07\xdf\x0b\x10\x14\x111\x00\x00\x00'
p172
tp173
Rp174
sg29
g53
sS'coordinates'
p175
NsS'in_reply_to_user_id_str'
p176
NsS'source'
p177
VTwitter for iPhone
p178
sS'in_reply_to_status_id_str'
p179
NsS'in_reply_to_screen_name'
p180
Nsg152
g83
sS'retweeted'
p181
I00
sS'place'
p182
g8
(ctweepy.models
Place
p183
g10
Ntp184
Rp185
(dp186
S'country_code'
p187
g87
sS'url'
p188
g89
sS'country'
p189
g91
sS'place_type'
p190
g93
sS'bounding_box'
p191
g8
(ctweepy.models
BoundingBox
p192
g10
Ntp193
Rp194
(dp195
S'type'
p196
g97
sg175
g98
sbsS'contained_within'
p197
g8
(ctweepy.models
ResultSet
p198
c__builtin__
list
p199
(lp200
tp201
Rp202
(dp203
S'_since_id'
p204
NsS'_max_id'
p205
NsbsS'full_name'
p206
g107
sS'attributes'
p207
g109
sg19
g110
sS'name'
p208
g112
sbsS'retweet_count'
p209
I0
sS'in_reply_to_user_id'
p210
NsbsS'is_translation_enabled'
p211
I00
sS'utc_offset'
p212
I-21600
sS'statuses_count'
p213
I2462
sS'description'
p214
g120
sS'friends_count'
p215
I438
sS'location'
p216
g123
sS'profile_link_color'
p217
g125
sS'profile_image_url'
p218
g127
sS'notifications'
p219
I00
sS'geo_enabled'
p220
I01
sS'profile_background_color'
p221
g50
sS'profile_banner_url'
p222
g131
sS'profile_background_image_url'
p223
g133
sS'screen_name'
p224
g135
sg169
g136
sg1
I00
sS'profile_background_tile'
p225
I00
sS'favourites_count'
p226
I644
sg208
g139
sg188
Nsg170
g171
(S'\x07\xd9\x05\x07\x02\x05$\x00\x00\x00'
p227
tp228
Rp229
sS'profile_background_image_url_https'
p230
g37
sS'time_zone'
p231
g144
sS'protected'
p232
I00
sS'default_profile'
p233
I01
sS'is_translator'
p234
I00
sbs.