(dp0
S'following'
p1
(lp2
(lp3
L2993877650L
aI210684204
aI769837321
aL3525717857L
aI208242904
aL3070176224L
aL3254372836L
aI13137022
aI1549717748
aL2222098430L
aL3309824644L
aI26404997
aI473220464
aL3229887296L
aI52296517
aI58800236
aI20743268
aL2494058664L
aI430793034
aI17350542
aL3202282299L
aI17384380
aI229959024
aI81947660
aI17031865
aI569015256
aL2284397402L
aL2535349592L
aI1150654428
aL2429373188L
aI28718888
aI27715547
aI81195356
aL2976225976L
aI9555372
aL3023134047L
aI525005120
aI529794801
aL2778608971L
aI827561155
aI1002477324
aI119244178
aI113719382
aL2427550422L
aI531545749
aI1329050766
aI216129114
aI605518225
aL3406586714L
aL3493753996L
aL3313844651L
aI45918327
aI38274861
aI26589132
aI16658563
aI30373542
aI25359065
aI18211501
aI19315423
aI10383342
aI81095223
aI48313128
aI19950092
aI30051195
aI28329367
aI166617390
aI458861588
aI35872799
aI15552011
aI43836707
aI17025613
aasS'followers'
p4
(lp5
(lp6
L3938780776L
aI238525842
aI1870241088
aL2989415578L
aL3523276272L
aL2492255617L
aI493370971
aI18157947
aI1355519178
aI550036068
aI297599184
aL2573459012L
aL3681990143L
aI570200255
aL4064851695L
aL3408073139L
aL3986239337L
aL2540960136L
aL3196189341L
aI297003050
aI16529873
aL3313254264L
aI1306922149
aL3102724793L
aI1059672860
aI337736150
aL2942997984L
aI119721036
aL4197035003L
aL3732846256L
aL4252798632L
aL3014165168L
aI30221862
aL3916796594L
aI135409337
aI592144721
aL2697558894L
aL3543826699L
aI120207925
aI22862299
aL2920282657L
aI94005470
aL2577009770L
aI503170278
aL3331453199L
aI40375615
aL3943521139L
aI100975218
aL3133974666L
aL2860161890L
aL3987881374L
aL2754901827L
aL4188733467L
aL3438148869L
aL3201128189L
aL4017884933L
aI108045600
aI128859734
aI580251025
aI279762114
aL4175534419L
aL3621844038L
aL3256222738L
aI104674131
aI928490268
aI289914688
aI195256201
aL2402244380L
aL4111534643L
aL3122187911L
aI237079920
aI1017114817
aL2776744812L
aI214999110
aL4149888384L
aI118447616
aL3982718783L
aI324860404
aI211857984
aL2802990421L
aL4149887071L
aL2401452428L
aI404299686
aI16204520
aL3892157895L
aL2674690320L
aL2363852370L
aI211171710
aL3940863081L
aI605895993
aI1870274804
aI1513552153
aI77515943
aL3903548900L
aL3518589553L
aL3983375714L
aI849986432
aI626515184
aI1669131266
aI17476840
aL3389241832L
aL3556805053L
aI160255492
aI25402461
aL3984267617L
aL4196619866L
aL3293353246L
aL2925878687L
aL3019451557L
aI145664738
aL2904591375L
aI118763344
aI17599655
aL4035516268L
aI1337576478
aI1870223119
aI53685977
aI252748081
aL3061936956L
aI270937991
aL3139186757L
aI44460964
aI1164447728
aI1870301797
aL3268358456L
aI315766710
aL3078821203L
aI712526173
aL3315496315L
aL4172290753L
aI21841580
aI316246280
aL3331325715L
aI896634391
aI713998772
aI1058221447
aI380815419
aI78904092
aI210684204
aI315781388
aL3331202092L
aL4096473202L
aI14242942
aI351496274
aL2603670914L
aI316244138
aL3903695978L
aI10736862
aL2891432029L
aL3031804453L
aL2993877650L
aL2298344306L
aI595609177
aL2994061759L
aL4034065758L
aL3318935426L
aL3362515574L
aL4098311118L
aL2690153468L
aL2232134389L
aI276918379
aI1512072410
aI294377622
aI17565886
aL3074863403L
aI401462454
aI127967449
aL2995813426L
aI462067305
aI142176158
aI482223630
aI769837321
aI511223459
aI887429846
aI34011008
aI1716578083
aL3621755719L
aL2800930171L
aI269589438
aI88471653
aL3290116660L
aL3903363195L
aL2879317015L
aL2865692685L
aL4111621221L
aL3116218064L
aL4128793454L
aL2841521021L
aI92380595
aL3529144344L
aL2831559778L
aI592741603
aI1372857926
aL2450102586L
aL3690848661L
aI109235921
aI263412338
aL2599003902L
aI1488585199
aL3438074254L
aL3875282716L
aI316272920
aL3270455018L
aL2727341431L
aL4026506361L
aL2875294846L
aL4036158852L
aL3333496649L
aL2154475518L
aL2662205988L
aL3106874099L
aL2266573932L
aI60557916
aI828665858
aL3238298090L
aI19978588
aI50643323
aI90776087
aI1905343417
aL4087258065L
aI1471047924
aI47503235
aL3305569149L
aI291001777
aI75895692
aL4073161466L
aL3774089176L
aL2929319055L
aI29582714
aI71347513
aL2894810823L
aI9555372
aL3163184509L
aL3317417718L
aI49413866
aL2395261291L
aI154921975
aL2474473992L
aL2842154211L
aL3354537207L
aL2832066843L
aL2874934407L
aL2894941174L
aL3506149637L
aI120292147
aI46381649
aI63547155
aI580120744
aL3356027308L
aI180159966
aL4054693272L
aI1103337343
aL3289800926L
aL3070176224L
aL3587583735L
aL3361516707L
aI23474949
aL2602304198L
aI236884767
aL3118978727L
aL3092447105L
aI478376923
aI376211514
aI12705022
aL3944877897L
aL3944869936L
aL3660701655L
aI756734916
aL4057466477L
aL2374021070L
aI918415080
aL2900478638L
aL2831943288L
aI1639580689
aI322914934
aL2281563660L
aL3277728372L
aL3213954431L
aI352304765
aL3523161614L
aI473220464
aL4046953769L
aI26404997
aL3309824644L
aL3367071082L
aL2222098430L
aL2951226604L
aI13137022
aI1549717748
aL2813424226L
aI168418049
aI88734180
aL3978527414L
aL3962946020L
aL2799757448L
aI16710029
aI237903503
aL3263180598L
aI625901969
aI100567766
aL2300296157L
aI1911483907
aI1870233306
aI72701241
aL3970628713L
aL2402328356L
aL2310288379L
aI1952340558
aL3099574625L
aI170808650
aI17350542
aL2494058664L
aL3244944957L
aL2417184500L
aL3246676888L
aL3405556431L
aL4014919759L
aI366552822
aL3162319070L
aL2770704663L
aI1406016259
aI53593548
aL3887067252L
aL2279069323L
aI151125006
aL3418546072L
aI743345076
aL2189570761L
aL2566667371L
aL3770669057L
aI159503041
aL2895365000L
aI627663355
aI22108647
aI27217647
aL2466373656L
aI595560859
aI343283519
aL3023740861L
aL3202282299L
aI229959024
aL3656401354L
aI1702706971
aL3723789801L
aL2982805522L
aL3319678463L
aL3256997612L
aI388025573
aI81947660
aI173121440
aL2976225976L
aI81195356
aI27715547
aI28718888
aL2429373188L
aI1150654428
aL2731308270L
aL2535349592L
aI143401683
aL2880689664L
aI827561155
aL2778608971L
aI529794801
aI525005120
aI820026960
aL3093009767L
aI18548136
aI1002477324
aI119244178
aL3901890569L
aL3315168738L
aL3815293093L
aL3312745513L
aL3300089627L
aL3739634416L
aI1073570947
aL2369503381L
aL2427550422L
aL3813262093L
aI1329050766
aI216129114
aI605518225
aL3313844651L
aL3493753996L
aL3406586714L
aasS'obj'
p7
ccopy_reg
_reconstructor
p8
(ctweepy.models
User
p9
c__builtin__
object
p10
Ntp11
Rp12
(dp13
S'follow_request_sent'
p14
NsS'has_extended_profile'
p15
I00
sS'profile_use_background_image'
p16
I01
sS'profile_sidebar_fill_color'
p17
VDDEEF6
p18
sS'id'
p19
L3882428201L
sS'verified'
p20
I00
sS'entities'
p21
(dp22
Vdescription
p23
(dp24
Vurls
p25
(lp26
sssS'profile_image_url_https'
p27
Vhttps://pbs.twimg.com/profile_images/662777345544208384/vqFaqfq6_normal.jpg
p28
sS'_json'
p29
(dp30
Vfollow_request_sent
p31
NsVhas_extended_profile
p32
I00
sVprofile_use_background_image
p33
I01
sVdefault_profile_image
p34
I00
sVid
p35
L3882428201L
sVprofile_background_image_url_https
p36
Vhttps://abs.twimg.com/images/themes/theme1/bg.png
p37
sVverified
p38
I00
sVprofile_text_color
p39
V333333
p40
sVprofile_image_url_https
p41
g28
sVprofile_sidebar_fill_color
p42
g18
sVentities
p43
g22
sVfollowers_count
p44
I385
sVprofile_sidebar_border_color
p45
VC0DEED
p46
sVid_str
p47
V3882428201
p48
sVprofile_background_color
p49
VC0DEED
p50
sVlisted_count
p51
I408
sVstatus
p52
(dp53
Vcontributors
p54
NsVtruncated
p55
I00
sVtext
p56
VHow One Couples Million Dollar Real Estate Investment Goes to Single Family Homes: As I was sitting at my desk... https://t.co/lp3HeTluTH \u2026
p57
sVin_reply_to_status_id
p58
Nsg35
L666617707119296512L
sVfavorite_count
p59
I0
sVsource
p60
V<a href="http://ifttt.com" rel="nofollow">IFTTT</a>
p61
sVretweeted
p62
I00
sVcoordinates
p63
Nsg43
(dp64
Vsymbols
p65
(lp66
sVuser_mentions
p67
(lp68
sVhashtags
p69
(lp70
sg25
(lp71
(dp72
Vurl
p73
Vhttps://t.co/lp3HeTluTH
p74
sVindices
p75
(lp76
I114
aI137
asVexpanded_url
p77
Vhttp://bit.ly/1NZ8H7X
p78
sVdisplay_url
p79
Vbit.ly/1NZ8H7X
p80
sassVin_reply_to_screen_name
p81
Nsg47
V666617707119296512
p82
sVretweet_count
p83
I0
sVin_reply_to_user_id
p84
NsVfavorited
p85
I00
sVgeo
p86
NsVin_reply_to_user_id_str
p87
NsVpossibly_sensitive
p88
I00
sVlang
p89
Ven
p90
sVcreated_at
p91
VTue Nov 17 14:03:41 +0000 2015
p92
sVin_reply_to_status_id_str
p93
NsVplace
p94
NssVis_translation_enabled
p95
I00
sVutc_offset
p96
NsVstatuses_count
p97
I66229
sg23
VSundays Caravan of Open Houses we just mixed #brunch & #homes #openhouse #beautifulpeople #millenials #njhomes #realtor #realestate #sexyrealestate
p98
sVfriends_count
p99
I71
sVlocation
p100
VNew York, NY | Alpine, NJ 
p101
sVprofile_link_color
p102
V0084B4
p103
sVprofile_image_url
p104
Vhttp://pbs.twimg.com/profile_images/662777345544208384/vqFaqfq6_normal.jpg
p105
sVfollowing
p106
NsVgeo_enabled
p107
I00
sVprofile_banner_url
p108
Vhttps://pbs.twimg.com/profile_banners/3882428201/1444158334
p109
sVprofile_background_image_url
p110
Vhttp://abs.twimg.com/images/themes/theme1/bg.png
p111
sVscreen_name
p112
Vbrunchhomes
p113
sg89
Ven
p114
sVprofile_background_tile
p115
I00
sVfavourites_count
p116
I6
sVname
p117
VBruncHHomes
p118
sVnotifications
p119
Nsg73
Nsg91
VTue Oct 06 17:24:36 +0000 2015
p120
sVcontributors_enabled
p121
I00
sVtime_zone
p122
NsVprotected
p123
I00
sVdefault_profile
p124
I01
sVis_translator
p125
I00
ssS'contributors_enabled'
p126
I00
sS'profile_text_color'
p127
g40
sS'followers_count'
p128
I385
sS'profile_sidebar_border_color'
p129
g46
sS'id_str'
p130
g48
sS'default_profile_image'
p131
I00
sS'listed_count'
p132
I408
sS'status'
p133
g8
(ctweepy.models
Status
p134
g10
Ntp135
Rp136
(dp137
S'favorited'
p138
I00
sS'contributors'
p139
NsS'truncated'
p140
I00
sS'text'
p141
g57
sS'source_url'
p142
Vhttp://ifttt.com
p143
sS'possibly_sensitive'
p144
I00
sS'in_reply_to_status_id'
p145
NsS'geo'
p146
Nsg19
L666617707119296512L
sS'favorite_count'
p147
I0
sS'lang'
p148
g90
sg21
g64
sS'created_at'
p149
cdatetime
datetime
p150
(S'\x07\xdf\x0b\x11\x0e\x03)\x00\x00\x00'
p151
tp152
Rp153
sg29
g53
sS'coordinates'
p154
NsS'in_reply_to_user_id_str'
p155
NsS'source'
p156
VIFTTT
p157
sS'in_reply_to_status_id_str'
p158
NsS'in_reply_to_screen_name'
p159
Nsg130
g82
sS'retweeted'
p160
I00
sS'place'
p161
NsS'retweet_count'
p162
I0
sS'in_reply_to_user_id'
p163
NsbsS'is_translation_enabled'
p164
I00
sS'utc_offset'
p165
NsS'statuses_count'
p166
I66229
sS'description'
p167
g98
sS'friends_count'
p168
I71
sS'location'
p169
g101
sS'profile_link_color'
p170
g103
sS'profile_image_url'
p171
g105
sS'notifications'
p172
NsS'geo_enabled'
p173
I00
sS'profile_background_color'
p174
g50
sS'profile_banner_url'
p175
g109
sS'profile_background_image_url'
p176
g111
sS'screen_name'
p177
g113
sg148
g114
sg1
I00
sS'profile_background_tile'
p178
I00
sS'favourites_count'
p179
I6
sS'name'
p180
g118
sS'url'
p181
Nsg149
g150
(S'\x07\xdf\n\x06\x11\x18$\x00\x00\x00'
p182
tp183
Rp184
sS'profile_background_image_url_https'
p185
g37
sS'time_zone'
p186
NsS'protected'
p187
I00
sS'default_profile'
p188
I01
sS'is_translator'
p189
I00
sbs.