(dp0
S'following'
p1
(lp2
(lp3
I611115415
aI27551367
aI106800933
aL2177224099L
aI1563601933
aI15889747
aI73610350
aI542620966
aI154130614
aI1076916151
aI308996196
aI9273802
aI22311164
aI12255792
aI252672612
aI1217773032
aI820534716
aL3244574838L
aL2615610961L
aL2973928846L
aI256099962
aI337999162
aI104485726
aI189385490
aI589846947
aL4092648377L
aI33716594
aI1528558014
aI14124000
aI236953420
aI49780983
aI620346719
aI1631140573
aI20636215
aL3374756020L
aI14230772
aI189937269
aI119629014
aL2994873575L
aI40279135
aI159945461
aI43010876
aI329173077
aI22027300
aI108021761
aI1367911574
aL3796186942L
aI28353766
aL3012864711L
aI1089511015
aI41516710
aI211951561
aI342251338
aL2363049998L
aI392036106
aI201891014
aI817267405
aL2335870220L
aI36457630
aI21793923
aL2373382754L
aI410135456
aI112290748
aI294308781
aL3195244375L
aL3319948279L
aL2676762737L
aI1406283938
aL2362360406L
aL2371952437L
aI587814366
aI13298072
aI989952632
aI138157120
aI247861990
aI22582261
aI138286477
aI36138726
aI56398646
aI15003446
aI14343345
aI27473764
aI9985902
aI584023148
aI15984351
aL3033802253L
aL2621611160L
aL2151247592L
aI3763761
aI66704572
aL3044346069L
aI18215286
aI626461093
aI16888420
aL2835703969L
aI7698
aI25205292
aI468706090
aI25073877
aI7520262
aI281289020
aL2759368706L
aI26644466
aI15391371
aI1444915232
aI592080817
aI299311823
aI1403901656
aI174385219
aL2525906341L
aI84584464
aL3094462849L
aI72569645
aI53867772
aI389048586
aI129079450
aI16997512
aL2912458834L
aI1398550952
aI1623424387
aI1061092867
aI1411954058
aI9091592
aI69277202
aI14546665
aL2236826372L
aI431956153
aI54303382
aI913571004
aI374689164
aI1275833858
aL2840056540L
aL2798024798L
aI803172566
aI22867489
aI22954705
aI191948803
aI467790249
aI21277169
aI67938555
aI1944585612
aI991793432
aI172836249
aI23291900
aI1960825746
aL2177218392L
aI1491737586
aI24183360
aI15935591
aI23776856
aI36835665
aI1480908835
aI355992924
aI930625098
aI378208943
aI1534167900
aI71567590
aI553721053
aI234044087
aI80113709
aI21000248
aI863527548
aI365949960
aasS'followers'
p4
(lp5
(lp6
I486476991
aL3012864711L
aI475095494
aI872122615
aI1563601933
aI360539908
aI552137768
aL4162444218L
aI1304060246
aL3529734612L
aL3246752411L
aL4092648377L
aI1217773032
aL3980011745L
aI16032378
aI89217333
aL2994873575L
aL2827822904L
aI1367911574
aL3796186942L
aI85878128
aL3976287207L
aL3046641998L
aI1089511015
aL3241292421L
aL2204046445L
aL3777124993L
aL3319948279L
aI1406283938
aI482856632
aL3241384318L
aI1617752858
aI15494025
aL2220500209L
aL3014183025L
aI631174114
aI139053800
aL3452530941L
aI930801055
aL3420959824L
aI136739421
aL2329542374L
aL2842349595L
aI159431232
aL2855170383L
aI17058234
aI363498208
aI1123528016
aL2894225577L
aL3487606421L
aI22490935
aI1916668357
aL2262846954L
aI150008368
aI390288323
aI529319447
aI262716411
aL2925829623L
aI568595045
aI18452811
aL2393135197L
aI133806972
aL3423165635L
aL3019931009L
aI154130614
aI565928005
aI42417984
aI942445345
aL3078628062L
aI27473764
aI1612882902
aI1328247444
aL3232596839L
aL3033802253L
aI177238867
aI50686432
aL2731385984L
aI274236051
aI42547757
aI25205292
aI24452840
aI403539457
aI96366166
aI861749222
aL2606392971L
aL3241888604L
aI262046968
aL3062591661L
aL3154075038L
aL2467914348L
aL3085627927L
aI81080302
aI8079862
aI952377062
aI605074750
aI1360786974
aL2794756925L
aI16997512
aI68901890
aI320529407
aI54981281
aI173841737
aL3229358010L
aI191948803
aI68149089
aL3220748214L
aL3144375214L
aI262684838
aI1681735844
aI14149214
aL3279688587L
aL2759368706L
aI1228784640
aI148597344
aL3256849329L
aI23511286
aL2713725350L
aI20428698
aI26644466
aI290720535
aI1510962235
aI592355101
aI592080817
aI531631541
aI143772190
aL2969609447L
aL2261736836L
aI299311823
aI1464864852
aI239475029
aI231700722
aL2539367209L
aI45410583
aI327484803
aL3187115843L
aI75304289
aL2362360406L
aL2879610219L
aI1054379876
aI15250981
aI518954841
aL2888753306L
aI179571631
aL2669210610L
aI406431568
aI526394746
aI112145347
aI1893546468
aI84584464
aI129079450
aL3103165680L
aI92969998
aI202497749
aI113389297
aL3092541377L
aI160897950
aI1265784944
aI131193450
aI15155948
aL3078645288L
aI44115717
aL3000260752L
aI36226441
aI167198853
aI430049246
aI27112652
aI1530916794
aI353360235
aI9124732
aL2801681222L
aI1397796990
aI368881116
aL3063192901L
aL2899752808L
aL2902533176L
aI72569645
aL2730027469L
aI202640554
aL2997719688L
aI745684092
aI53867772
aL2457933276L
aL2998934749L
aI1408665517
aI132465980
aL3026321023L
aI318040353
aI369715653
aI80638799
aI16977380
aL2901992178L
aI150855063
aL2858402345L
aI576407335
aI389048586
aL3021138730L
aL2902521036L
aI399895499
aL2730722128L
aL2614579824L
aI344786354
aI38619984
aL2808072651L
aL2980440963L
aL2218040155L
aL2912458834L
aI233552556
aI15796242
aI15536640
aL2835703969L
aI1398550952
aL2828971463L
aI1623424387
aL2931879262L
aL2952124187L
aL2203764315L
aI1061092867
aI493444715
aI17866557
aL2152451035L
aI9091592
aL2954148620L
aI29623675
aI149425555
aI1046352450
aI14546665
aI174230987
aI15072994
aL2154829797L
aL2837231962L
aI431956153
aI1149154621
aI570960698
aL2451418584L
aI9551972
aI276401449
aI38323035
aI316485110
aI1738106528
aI1680486768
aL2533322305L
aI20802993
aI1269193458
aI1976794279
aI76177146
aI195037399
aL2785589833L
aL2498405053L
aL2745634878L
aI273422164
aI212930580
aI26765515
aI157353532
aI1921084129
aI64888916
aL2380183178L
aI190183439
aL2412368237L
aL2415917977L
aI1275833858
aI289643910
aI131747755
aI346696663
aI245581702
aL2840056540L
aI463185864
aI393489679
aI1274500627
aI315816678
aI1868612737
aI20416757
aL2843525518L
aI1303889694
aI909591775
aL2457560232L
aI224115194
aL2362114152L
aI17002327
aI1107783409
aL2836727081L
aI235339764
aI61197838
aI130187918
aI40140781
aL2794649026L
aI267936687
aI139182119
aI31320513
aI266726561
aL2359276710L
aI308139848
aI22129078
aI383205827
aI234701223
aI45327059
aI1037599832
aI447359539
aI33488160
aI570324105
aI860764818
aI509083501
aI81982989
aI537684689
aI280696662
aI475147811
aI972840883
aI492183137
aI15791793
aI332654428
aI1534974217
aI218686874
aL2511322578L
aI325889060
aL2314150308L
aI23014157
aI724482511
aL2598967407L
aI520040331
aI188870305
aI89025131
aL2327119878L
aL2666541274L
aL2802416158L
aI863465161
aI52563158
aL2761005397L
aI63348463
aL2774230682L
aI348775871
aI40057615
aI17644534
aI1187466656
aI26821705
aI23147740
aL2731507800L
aI57137210
aL2713786376L
aL2838419474L
aI1442693024
aI1066801676
aL2795218509L
aL2798024798L
aI321443944
aI60242862
aL2832962430L
aL2463610482L
aI269916011
aI1444915232
aI20218120
aI153403310
aI73981686
aL2360899099L
aI989952632
aI22867489
aI87500545
aI1495980464
aI280680687
aL2747506659L
aI134968232
aI382305957
aI17905268
aI1923545502
aI140822072
aI1016621952
aI784792796
aI148667650
aI1211706115
aI18820740
aL2319417366L
aL2754496074L
aI250260826
aI5276341
aI238548551
aI495652587
aI367968382
aI22694731
aI44162044
aL2707444309L
aI18991710
aI17113215
aI363330433
aI266672204
aI636559227
aI171925970
aI15905272
aL2251971486L
aI55279543
aL2732733462L
aI17481836
aL2560271406L
aL2147770080L
aI34587359
aI946274185
aI22954705
aI394236408
aI316579005
aI912403927
aI56910769
aI30967395
aI1963287259
aI172836249
aL2616417114L
aI22362221
aI1477739592
aI623370473
aI69974615
aL2173713247L
aL2576504976L
aI361980867
aI190533817
aI88678674
aI1425420145
aI175988497
aI1328282966
aI301580692
aL2608809756L
aI550453777
aI20169447
aI718179925
aL2589033192L
aL2163057708L
aI1492463035
aL2592095264L
aI633270676
aI766830276
aI308920912
aI181957463
aI19666225
aI630131003
aI21277169
aI360084190
aL2509504274L
aI25628919
aI374530057
aI321896620
aI316565216
aL2511518101L
aL2555093796L
aL2445820332L
aL2465517266L
aI15836463
aI146106341
aI1242559454
aI360654151
aI1295426742
aI253508184
aI376912750
aI19008537
aL2250719424L
aI1422392899
aI67082395
aI33927725
aI101837511
aI55189526
aI1422252558
aI495535461
aL2482561513L
aI262044678
aI902942041
aI34082014
aI749705101
aI49605610
aI380913086
aI51917112
aI482670026
aI23567795
aL2461054682L
aI16719670
aL2532135602L
aI924531805
aI974838799
aL2512418360L
aI1112744491
aI62055651
aI615768710
aL2274438054L
aI288608789
aI49023155
aI602188945
aI15254924
aI1082554946
aI48579837
aI355553288
aI16277711
aI67938555
aL2415308624L
aI3066611
aL2377164372L
aL2487211315L
aI77268706
aI11106452
aI19020162
aI14976589
aI1276052653
aI1661655266
aI120492411
aI1006417302
aI238633568
aL2471109811L
aI250549133
aI19639301
aI387887225
aL2472878970L
aI47695912
aI16888420
aI34468720
aI382131128
aL2514126515L
aI28369153
aI1253065585
aI186491600
aI128002844
aI26528042
aL2412407406L
aI1528558014
aI708682677
aI33962595
aI991793432
aL2340546421L
aI373838756
aI14309335
aI63611153
aL2295130488L
aL2394037158L
aI281792077
aI120099533
aL2398054130L
aI1560614923
aI1075076125
aI184391585
aI1962617911
aL2431925642L
aL2420211666L
aL2427025620L
aL2352488054L
aI82651305
aL2250794582L
aI23407191
aI431129431
aI287837379
aL2256777792L
aI1651201350
aI840477936
aI424515948
aL2209719038L
aI1470277454
aI414177770
aI593625883
aI1944585612
aL2213066251L
aI1975315776
aI10736312
aI20644194
aI28700397
aL2167000736L
aI16578227
aI1251066102
aI18235898
aI21394549
aI137260673
aI396927065
aI614728296
aI51183151
aI483209088
aI24137090
aL2353979912L
aI1382153222
aI394240127
aI61296576
aL2178423355L
aL2186865986L
aI40330422
aL2228434339L
aI15780942
aI70092489
aI191343870
aI516907944
aL2360163208L
aI326129227
aI492022981
aI71768444
aL2174041238L
aI312004959
aI165787706
aI1411120933
aI1682397852
aI1050595580
aL2334272356L
aI419521605
aL2359066342L
aI914200526
aI1933518942
aI477600304
aL2236826372L
aI1172836550
aI1228111952
aI415757832
aI731675526
aI261354349
aI1704720972
aL2347627314L
aI117661973
aI1870135885
aI21022691
aL2342056837L
aI18464365
aI991705832
aI26488926
aI1600303440
aI531227320
aI956124060
aL2236385004L
aI710813496
aI328678119
aL2332354056L
aL2330760192L
aI20264728
aI31339252
aL2276574722L
aI216885121
aI1321964358
aL2335956133L
aL2335974626L
aI357642634
aI46250587
aI178900268
aI225966517
aI1397481372
aI991633074
aI37706553
aI1398296443
aI1259932975
aI374689164
aI593351017
aI566825705
aI853885380
aI78407393
aI39182415
aI361207619
aI1134097794
aI195404027
aI434388153
aI619645224
aI14048321
aI851670715
aI307373964
aI1226651736
aI452026180
aI33299516
aI400238706
aI305474862
aI19672258
aI548791763
aI1619089357
aI51091276
aL2171399000L
aL2332569522L
aI33369809
aI1304118060
aL2326645687L
aL2196907358L
aI544484168
aI19850855
aI580339967
aI754830703
aL2202005767L
aI115389737
aI22411342
aL2294666647L
aI249758881
aL2303592204L
aL2308778407L
aI22427212
aI1491737586
aI1731491028
aI93166656
aI1446861246
aI634611633
aI267480114
aI1708659528
aI1863953996
aI322604043
aI121955367
aI1642519008
aI330102892
aI1355339924
aI81921431
aI467790249
aL2176059162L
aI296821379
aI568366220
aI93048148
aL2177218392L
aI1622697044
aI200905822
aI1092266935
aI1931273527
aI1252729802
aL2202032833L
aI1411954058
aL2233713018L
aI745699015
aI250809625
aI1050808790
aI23171357
aI420704141
aI20568345
aI738270056
aI329973694
aI410135456
aI389201227
aI75968922
aI98916998
aI145203734
aI14948012
aI1973804786
aI505193674
aI18506957
aI746304038
aI18135961
aI13724562
aI8718722
aI473050508
aL2223652729L
aI117293979
aI1927911110
aL2204941016L
aI46751530
aI433686461
aI43950136
aI429274863
aI407671273
aI1447845894
aL2173606679L
aI1938051860
aL2174467195L
aL2148726314L
aI1945469546
aI1290590526
aI1436271176
aI946630651
aI223144382
aI476035071
aI785648862
aI765243559
aI1688977561
aI1969457611
aI172828800
aI14055823
aI175323805
aI142898185
aI105495798
aI1674601278
aI65338974
aI1875045841
aI888039186
aI23157846
aI51175879
aI457790480
aI255246686
aI466895403
aI22869238
aI1885128386
aI11341862
aI36835665
aI1480908835
aI577145439
aI117392454
aI315991254
aI92256842
aI1667468461
aI1723212954
aI390896189
aI462626745
aI1719666607
aI1616420634
aI129939942
aI1694311884
aI149637409
aI121808116
aI1704725004
aI33485248
aI126970553
aI633140560
aI13600732
aI930625098
aI187722717
aI359082228
aI22287120
aI807611688
aI1169987628
aI380657484
aI1325618329
aI133007347
aI1619054084
aI29854129
aI18162750
aI47757340
aI30324647
aI18106725
aI1226309011
aI20586006
aI102874207
aI1114647745
aI62643434
aI787637804
aI31760159
aI10374422
aI468526082
aI609423633
aI88433531
aI38310411
aI71084476
aI216976231
aI15856695
aI1601755274
aI1318153154
aI333419416
aI99871836
aI177868486
aI17277371
aI1658753414
aI1617699252
aI1655341988
aI72863538
aI378208943
aI836933054
aI1655963936
aI1532465604
aI334218714
aI731600754
aI1238517937
aI113365577
aI1440188472
aI194816896
aI1613540180
aI46977225
aI74539159
aI540609380
aI466603274
aI55949954
aI49059777
aI199350244
aI357638981
aI125801215
aI374422525
aI1521548095
aI618548618
aI264508785
aI1485844555
aI217417494
aI72928001
aI469175897
aI1109158872
aI1538409192
aI1618570471
aI1370811625
aI1652983759
aI1651825459
aI1592123060
aI1659040508
aI343224461
aI50393981
aI17868705
aI549572833
aI1651481024
aI310268631
aI404124603
aI100567766
aI1428566574
aI23402806
aI1658088930
aI1253077796
aI254775607
aI1393424778
aI1656535622
aI1649368765
aI206837146
aI225176717
aI202686460
aI260813700
aI1254473594
aI25958053
aI1417395164
aI441260402
aI501107600
aI1358053130
aI745781221
aI26291536
aI246597981
aI115468611
aI1640892078
aI319372014
aI878855988
aI421997929
aI250537020
aI1135927568
aI337417566
aI808420429
aI438597665
aI333689104
aI40872095
aI95334148
aI1655720041
aI1641213235
aI1261902936
aI1489471572
aI1230593233
aI290020124
aI128441361
aI1145481290
aI1625561155
aI1549598412
aI1428554186
aI1599365155
aI37956361
aI108453488
aI224159200
aI286558270
aI1566938418
aI548587768
aI168387814
aI416897467
aI1632267271
aI355820674
aI635302535
aI103026889
aI1592398656
aI19757047
aI363912760
aI635908341
aI1228180284
aI61898012
aI360694537
aI1092685123
aI831260732
aI454289475
aI247958380
aI194837809
aI1025255053
aI14574802
aI1568781242
aI36354449
aI1635401365
aI1622143873
aI92761466
aI531080143
aI30292664
aI29749009
aI1584503450
aI467496838
aI182263731
aI273757517
aI631493447
aI1125214867
aI232572045
aI1551268280
aI15866378
aI636791134
aI443127510
aI494441587
aI245768879
aI81251436
aI219135010
aI245329494
aI1469406139
aI15288955
aI390750525
aI95965934
aI1461820334
aI1145014862
aI91919878
aI1346598841
aI15614030
aI462388252
aI208515516
aI28785545
aI14465760
aI20148238
aI387654738
aI299284890
aI229013317
aI302790874
aI1311363158
aI221968834
aI298097760
aI227565300
aI322394244
aI1401823836
aI291495638
aI1402137902
aI390090523
aI23107816
aI564676602
aI1420601743
aI1422630619
aI939112238
aI518527771
aI246645176
aI35465571
aI262547601
aI21475262
aI247857712
aI23101587
aI80600985
aI1187265998
aI1306245170
aI16834905
aI9985902
aI808612729
aI1410503959
aI1331072995
aI24183360
aI605737858
aI64675649
aI396993568
aI415115732
aI28528141
aI15273380
aI61237419
aI128592428
aI532602615
aI34114643
aI17139306
aI49974164
aI85693767
aI434870421
aI19054562
aI258271629
aI1237240938
aI519032560
aI584676580
aI597708432
aI62404778
aI52480432
aI598782647
aI19734667
aI981745964
aI197690024
aI915193602
aI330504063
aI1225910035
aI36504976
aI102310605
aI1169555252
aI38301391
aI185204993
aI77097316
aI787197728
aI1204829870
aI1044904310
aI47027966
aI743962339
aI18980660
aI1036784096
aI31476662
aI980075077
aI28852008
aI1160608314
aI281235382
aI266794471
aI634527902
aI126997181
aI268362028
aI409219831
aI114215234
aI101883939
aI979186710
aI196078442
aI236344000
aI163784039
aI138286477
aI23776856
aI411778324
aI23450320
aI336198904
aI106216445
aI749584628
aI1083581419
aI24054368
aI45679544
aI817389482
aI1053227130
aI532063345
aI36972273
aI20086718
aI406300975
aI769700574
aI168780056
aI21679654
aI902273202
aI600221036
aI229210300
aI324181533
aI128819708
aI14833248
aI966695636
aI15056060
aI338532559
aI518870657
aI830381238
aI844727730
aI1021120962
aI587905276
aI926884435
aI1032020678
aI983287272
aI94798618
aI106323497
aI33608936
aI465802423
aI600172270
aI345541679
aI24672952
aI15832595
aI502401046
aI495247742
aI322346412
aI946302571
aI20518321
aI1009239180
aI63953930
aI201767246
aI769341926
aI497912582
aI31013318
aI487964440
aI390949518
aI17818733
aI936443707
aI372759628
aI384401285
aI163679698
aI133155244
aI585202002
aI600961508
aI635238672
aI358942408
aI260628095
aI82397047
aI628285446
aI836241728
aI434045669
aI57765435
aI792871236
aI924628560
aI24682550
aI853878458
aI54316890
aI930509946
aI567239865
aI4120961
aI454609995
aI204560056
aI237041649
aI226608719
aI363240323
aI571102876
aI506242419
aI16829014
aI456106165
aI275183147
aI258943528
aI34671618
aI23291900
aI132410010
aI545837094
aI283631911
aI364539986
aI937980139
aI270765843
aI397319009
aI18853350
aI933473334
aI507723181
aI37768417
aI342646275
aI876366098
aI75984900
aI553721053
aI394194358
aI30969336
aI355553804
aI903808110
aI599519200
aI303246692
aI231609969
aI15933136
aI395402696
aI634980030
aI401636120
aI886837747
aI21913788
aI40681622
aI596352021
aI19637279
aI403743694
aI17920440
aI856919784
aI496617971
aI473463275
aI125045869
aI29524744
aI557307081
aI261067815
aI320768083
aI607554761
aI184940547
aI982816117
aI705914174
aI449651998
aI69943235
aI35736900
aI262652488
aI539615809
aI259030874
aI523904654
aI79638576
aI428444905
aI18992010
aI479075428
aI556927481
aI345117246
aI15915243
aI263236117
aI944582240
aI102114656
aI491385950
aI845025398
aI902534600
aI630638597
aI125008358
aI48389613
aI950067631
aI216764775
aI632619919
aI725984330
aI88923639
aI899093436
aI283996426
aI823104661
aI585994625
aI61284242
aI15669510
aI17593208
aI839832762
aI38698876
aI707971903
aI701846432
aI798572238
aI757528976
aI252653193
aI538603307
aI579813845
aI81125736
aI882015122
aI973147980
aI13712672
aI211754015
aI212909291
aI601558504
aI361128999
aI84543949
aI29800051
aI373762740
aI784331
aI495244051
aI247006547
aI36911860
aI773233016
aI56057700
aI260633777
aI575106566
aI812715062
aI812289296
aI222630635
aI813054480
aI356778047
aI520791571
aI46762213
aI458087515
aI473944828
aI322572499
aI375544803
aI151325994
aI20902237
aI132392929
aI83207597
aI879524778
aI59299751
aI39083057
aI250639664
aI313918242
aI302955152
aI916787869
aI113115734
aI886055347
aI23132251
aI241186279
aI264778914
aI613577227
aI887230358
aI115577618
aI178052035
aI789116658
aI15602069
aI957590293
aI932854213
aI392737950
aI213605320
aI863544133
aI36299994
aI508586982
aI261944315
aI21000248
aI953438534
aI148652090
aI32912028
aI365949960
aI21628222
aI481774694
aI190289627
aI225228402
aI21188046
aI452508898
aI369486076
aI108709420
aI505018573
aI273763469
aI17543352
aI845743225
aI306380230
aI385515118
aI541904753
aI184881902
aI261467074
aI773698488
aI437056893
aI23341395
aI627232706
aI608735857
aI594617702
aI18073620
aI309433671
aI117561069
aI9830932
aI26754630
aI909720456
aI31129058
aI543158608
aI21171053
aI930234691
aI602112301
aI705731912
aI77189555
aI495898865
aI597953482
aI391455669
aI900363715
aI901982472
aI924220608
aI509162547
aI350555526
aI930915547
aI95470913
aI845376722
aI59857088
aI357055728
aI778958568
aI16214018
aI168623990
aI787364436
aI527135053
aI435781468
aI922076797
aI352592930
aI379709403
aI868240866
aI119518329
aI434567344
aI907887884
aI39582208
aI209066828
aI901650708
aI837144722
aI898275955
aI15648660
aI241493038
aI246364719
aI49092481
aI42388191
aI899619492
aI206047885
aI919093212
aI253395214
aI222818870
aI146985345
aI16561237
aI92550138
aI207860033
aI902501552
aI132303921
aI319275230
aI466971751
aI31137628
aI250826850
aI386140632
aI339700114
aI260966454
aI928137913
aI173257525
aI40515410
aI161048246
aI745902392
aI21563872
aI519739560
aI845667661
aI111135304
aI168290400
aI262015668
aI38389252
aI226640798
aI572513029
aI177020988
aI115250050
aI849787916
aI40505612
aI813275268
aI365720623
aI148127843
aI77630885
aI577259744
aI219794476
aI755395453
aI76911285
aI397691787
aI752455591
aI50131624
aI512255952
aI29439594
aI14289197
aI376991370
aI903194744
aI810711853
aI494854563
aI190037596
aI293344616
aI850413260
aI226417847
aI249423107
aI400489805
aI277900320
aI402798755
aI193722943
aI907211208
aI569186166
aI736852574
aI791505176
aI244303359
aI766184628
aI333573022
aI183976412
aI15224137
aI17046810
aI489383440
aI579114650
aI603928660
aI240403916
aI353802450
aI781231602
aI252134609
aI376358339
aI275360777
aI16095749
aI16853365
aI19245655
aI112376788
aI285417155
aI145845537
aI551538946
aI555550128
aI18430529
aI80988230
aI41724337
aI330739067
aI824407262
aI83487650
aI806482064
aI107646745
aI628769783
aI724889982
aI811462406
aI18810328
aI677103
aI449521806
aI197734406
aI409038332
aI111835298
aI26233655
aI547788165
aI491322244
aI269752582
aI198495310
aI610942913
aI480877933
aI769878751
aI6054012
aI832594112
aI822015500
aI517801996
aI10101742
aI442079476
aI905880630
aI322496124
aI776346264
aI635324724
aI43314632
aI49303660
aI576890412
aI54493155
aI62592462
aI750718326
aI858449342
aI815575195
aI865686324
aI870299892
aI861792950
aI235421369
aI32674236
aI204605854
aI98387270
aI332943237
aI789970874
aI549708275
aI355992924
aI891459013
aI270194476
aI195683950
aI613955407
aI617248163
aI230474651
aI112900988
aI456934640
aI113181434
aI367044762
aI789721508
aI417599004
aI467790589
aI164624616
aI130628277
aI622328230
aI107432097
aI615154475
aI894073567
aI108465425
aI297454695
aI610129367
aI391193472
aI114230077
aI261889049
aI62168004
aI62852995
aI632916832
aI854770759
aI27913337
aI194353669
aI832323348
aI882305102
aI894757412
aI859618320
aI887934744
aI20567165
aI288641347
aI716769158
aI207546683
aI822848413
aI41013310
aI575138601
aI588939057
aI141823856
aI106562589
aI472299641
aI636888618
aI89158365
aI18119333
aI18316130
aI140502520
aI53714017
aI243841016
aI88057649
aI339604012
aI54023580
aI373775232
aI557568874
aI55965926
aI280577022
aI86575498
aI229848438
aI760290601
aI193996911
aI183692104
aI601611331
aI379062228
aI874823011
aI310863417
aI72189701
aI497851354
aI796489808
aI39659388
aI187287906
aI143670781
aI15741425
aI772596576
aI267352506
aI85205138
aI269615821
aI531291518
aI328950063
aI44525199
aI483229946
aI34655092
aI26346778
aI703764632
aI355986620
aI242985266
aI90875133
aI561703602
aI75262178
aI238229403
aI18368198
aI14955975
aI802402298
aI439622829
aI873034920
aI430146541
aI62176008
aI311179009
aI326502020
aI609349196
aI718325852
aI215945386
aI360043256
aI39294292
aI109255487
aI329545644
aI443415965
aI387638124
aI400713534
aI17858288
aI69849957
aI93087737
aI309114780
aI192781187
aI411766931
aI299209744
aI50413751
aI576519652
aI12766862
aI277237658
aI519583859
aI390301776
aI329167984
aI445797850
aI807360390
aI823276202
aI856082976
aI628346242
aI262038139
aI474769167
aI515749269
aI18838061
aI785338868
aI71627669
aI18099990
aI60136270
aI853752662
aI228917883
aI389982207
aI337713682
aI830789198
aI35825639
aI575185384
aI390030524
aI289708877
aI448995541
aI162206313
aI317745564
aI227720662
aI433643791
aI243858940
aI603227316
aI419524222
aI293327665
aI89377183
aI136619203
aI811831218
aI809145056
aI329003884
aI50198642
aI783248029
aI15406571
aI377287531
aI28310577
aI35954053
aI205611938
aI618453948
aI580657248
aI323580011
aI28833318
aI519439002
aI190891077
aI402256988
aI26858416
aI479741091
aI732013838
aI362096829
aI18576963
aI776903887
aI48102502
aI438208553
aI249159962
aI76668511
aI199439429
aI210834154
aI289204143
aI40168914
aI372809702
aI619609305
aI248189107
aI847658364
aI704895774
aI395499774
aI393782164
aI352710810
aI594566932
aI279384062
aI846311563
aI585409041
aI186947292
aI624600312
aI408428953
aI793805552
aI80113709
aI49298677
aI252688800
aI610198266
aI723365858
aI321572209
aI26857645
aI75910167
aI38114062
aI36495872
aI149884012
aI35302544
aI215465057
aI346933440
aI62407596
aI588921652
aI602357529
aI586147846
aI73285549
aI203321243
aI330128719
aI358905728
aI337077541
aI136505526
aI529497640
aI38555956
aI729164149
aI29275425
aI216803987
aI546418922
aI576741670
aI539963143
aI516566082
aI544604759
aI235648207
aI55157836
aasS'obj'
p7
ccopy_reg
_reconstructor
p8
(ctweepy.models
User
p9
c__builtin__
object
p10
Ntp11
Rp12
(dp13
S'follow_request_sent'
p14
I00
sS'has_extended_profile'
p15
I00
sS'profile_use_background_image'
p16
I01
sS'profile_sidebar_fill_color'
p17
VDDEEF6
p18
sS'id'
p19
I389868220
sS'verified'
p20
I00
sS'entities'
p21
(dp22
Vdescription
p23
(dp24
Vurls
p25
(lp26
sssS'profile_image_url_https'
p27
Vhttps://pbs.twimg.com/profile_images/651505451738075136/bJW6VuxS_normal.jpg
p28
sS'_json'
p29
(dp30
Vfollow_request_sent
p31
I00
sVhas_extended_profile
p32
I00
sVprofile_use_background_image
p33
I01
sVdefault_profile_image
p34
I00
sVid
p35
I389868220
sVprofile_background_image_url_https
p36
Vhttps://pbs.twimg.com/profile_background_images/663298809/2fv6r2naag59ljkeip12.jpeg
p37
sVverified
p38
I00
sVprofile_text_color
p39
V333333
p40
sVprofile_image_url_https
p41
g28
sVprofile_sidebar_fill_color
p42
g18
sVentities
p43
g22
sVfollowers_count
p44
I1778
sVprofile_sidebar_border_color
p45
VFFFFFF
p46
sVid_str
p47
V389868220
p48
sVprofile_background_color
p49
VBADFCD
p50
sVlisted_count
p51
I51
sVstatus
p52
(dp53
Vcontributors
p54
NsVtruncated
p55
I00
sVtext
p56
VRT @BarbarianCap: ""five firms \u2013AMZN, GOOGL, MSFT, FB, and GE\u2013 totaling 9% of the equity cap of the index have actd for more than 100% of t\u2026
p57
sVin_reply_to_status_id
p58
Nsg35
L666477994563805184L
sVfavorite_count
p59
I0
sVsource
p60
V<a href="http://twitter.com" rel="nofollow">Twitter Web Client</a>
p61
sVretweeted
p62
I00
sVcoordinates
p63
Nsg43
(dp64
Vsymbols
p65
(lp66
sVuser_mentions
p67
(lp68
(dp69
g35
I34939208
sVindices
p70
(lp71
I3
aI16
asg47
V34939208
p72
sVscreen_name
p73
VBarbarianCap
p74
sVname
p75
VBarbarian Capital
p76
sasVhashtags
p77
(lp78
sg25
(lp79
ssVin_reply_to_screen_name
p80
Nsg47
V666477994563805184
p81
sVretweet_count
p82
I16
sVin_reply_to_user_id
p83
NsVfavorited
p84
I00
sVretweeted_status
p85
(dp86
Vlang
p87
Ven
p88
sg84
I00
sg43
(dp89
g65
(lp90
sg67
(lp91
sg77
(lp92
sg25
(lp93
ssg54
Nsg55
I00
sg56
V""five firms \u2013AMZN, GOOGL, MSFT, FB, and GE\u2013 totaling 9% of the equity cap of the index have actd for more than 100% of the S&amp;P500 YTD rtrn"
p94
sVcreated_at
p95
VMon Nov 16 13:55:19 +0000 2015
p96
sg62
I00
sVin_reply_to_status_id_str
p97
Nsg63
NsVin_reply_to_user_id_str
p98
Nsg60
V<a href="http://twitter.com" rel="nofollow">Twitter Web Client</a>
p99
sg58
Nsg80
Nsg47
V666253215915253761
p100
sVplace
p101
Nsg82
I16
sVgeo
p102
Nsg35
L666253215915253761L
sg59
I10
sg83
Nssg102
Nsg98
Nsg87
Ven
p103
sg95
VTue Nov 17 04:48:31 +0000 2015
p104
sg97
Nsg101
NssVis_translation_enabled
p105
I00
sVutc_offset
p106
NsVstatuses_count
p107
I2227
sg23
V
p108
sVfriends_count
p109
I163
sVlocation
p110
VWyoming, Ohio
p111
sVprofile_link_color
p112
VFF0000
p113
sVprofile_image_url
p114
Vhttp://pbs.twimg.com/profile_images/651505451738075136/bJW6VuxS_normal.jpg
p115
sVfollowing
p116
I00
sVgeo_enabled
p117
I00
sVprofile_banner_url
p118
Vhttps://pbs.twimg.com/profile_banners/389868220/1444165135
p119
sVprofile_background_image_url
p120
Vhttp://pbs.twimg.com/profile_background_images/663298809/2fv6r2naag59ljkeip12.jpeg
p121
sg73
VNASTrading
p122
sg87
Ven
p123
sVprofile_background_tile
p124
I00
sVfavourites_count
p125
I1193
sg75
VNat Stewart
p126
sVnotifications
p127
I00
sVurl
p128
Nsg95
VThu Oct 13 03:31:14 +0000 2011
p129
sVcontributors_enabled
p130
I00
sVtime_zone
p131
NsVprotected
p132
I00
sVdefault_profile
p133
I00
sVis_translator
p134
I00
ssS'contributors_enabled'
p135
I00
sS'profile_text_color'
p136
g40
sS'followers_count'
p137
I1778
sS'profile_sidebar_border_color'
p138
g46
sS'id_str'
p139
g48
sS'default_profile_image'
p140
I00
sS'listed_count'
p141
I51
sS'status'
p142
g8
(ctweepy.models
Status
p143
g10
Ntp144
Rp145
(dp146
S'favorited'
p147
I00
sS'contributors'
p148
NsS'truncated'
p149
I00
sS'text'
p150
g57
sS'source_url'
p151
Vhttp://twitter.com
p152
sS'in_reply_to_status_id'
p153
NsS'geo'
p154
Nsg19
L666477994563805184L
sS'favorite_count'
p155
I0
sS'lang'
p156
g103
sS'retweeted_status'
p157
g8
(g143
g10
Ntp158
Rp159
(dp160
g147
I00
sg148
Nsg149
I00
sg150
g94
sg151
Vhttp://twitter.com
p161
sg153
Nsg154
Nsg19
L666253215915253761L
sg155
I10
sg156
g88
sg21
g89
sS'created_at'
p162
cdatetime
datetime
p163
(S'\x07\xdf\x0b\x10\r7\x13\x00\x00\x00'
p164
tp165
Rp166
sg29
g86
sS'coordinates'
p167
NsS'in_reply_to_user_id_str'
p168
NsS'source'
p169
VTwitter Web Client
p170
sS'in_reply_to_status_id_str'
p171
NsS'in_reply_to_screen_name'
p172
Nsg139
g100
sS'retweeted'
p173
I00
sS'place'
p174
NsS'retweet_count'
p175
I16
sS'in_reply_to_user_id'
p176
Nsbsg21
g64
sg162
g163
(S'\x07\xdf\x0b\x11\x040\x1f\x00\x00\x00'
p177
tp178
Rp179
sg29
g53
sg167
Nsg168
Nsg169
VTwitter Web Client
p180
sg171
Nsg172
Nsg139
g81
sg173
I00
sg174
Nsg175
I16
sg176
NsbsS'is_translation_enabled'
p181
I00
sS'utc_offset'
p182
NsS'statuses_count'
p183
I2227
sS'description'
p184
g108
sS'friends_count'
p185
I163
sS'location'
p186
g111
sS'profile_link_color'
p187
g113
sS'profile_image_url'
p188
g115
sS'notifications'
p189
I00
sS'geo_enabled'
p190
I00
sS'profile_background_color'
p191
g50
sS'profile_banner_url'
p192
g119
sS'profile_background_image_url'
p193
g121
sS'screen_name'
p194
g122
sg156
g123
sg1
I00
sS'profile_background_tile'
p195
I00
sS'favourites_count'
p196
I1193
sS'name'
p197
g126
sS'url'
p198
Nsg162
g163
(S'\x07\xdb\n\r\x03\x1f\x0e\x00\x00\x00'
p199
tp200
Rp201
sS'profile_background_image_url_https'
p202
g37
sS'time_zone'
p203
NsS'protected'
p204
I00
sS'default_profile'
p205
I00
sS'is_translator'
p206
I00
sbs.