(dp0
S'following'
p1
(lp2
(lp3
I574455122
aI574534224
aI188011599
aI564734731
aI318710324
aI431813544
aI567233549
aI94179986
aI31181674
aI14921141
aI113148404
aI24994219
aI499117049
aI1482467328
aI105178925
aI205826299
aI52049661
aI132168646
aL2709565866L
aL2557481184L
aI243240891
aL3129130894L
aI255517988
aI285218400
aI13742652
aI126078987
aI612815144
aI84681236
aI30062010
aI21976508
aI97050993
aL2401790076L
aI115512512
aI19980906
aI130872315
aI35759453
aI50440966
aI17158205
aI136505371
aI39025860
aI438897828
aI26796271
aI109335353
aI35743357
aI26000795
aI59609286
aI14627400
aI114546046
aI15749983
aI28589885
aI18313623
aI26520742
aI36383045
aI42949148
aI22514609
aI1479748051
aI295256096
aL2525400230L
aI55018922
aL2717463590L
aI54240860
aI106519652
aL2986046435L
aI36728196
aI318373970
aI132970182
aI398082307
aI16688718
aI24890551
aI74151802
aI30915929
aI250166945
aI19347818
aI19348972
aL3233463099L
aI15266125
aI175776564
aI479788050
aI501877375
aI828167179
aL2149025803L
aI1526951354
aI103702180
aI171196945
aI463416419
aI65291342
aI27943271
aI262796423
aI101746961
aI313337535
aI160920264
aI229164627
aI19657732
aI148980335
aI215106991
aI468997831
aI1498490514
aI1111992338
aL2401529857L
aL3893699659L
aL3357131471L
aL3386513775L
aL3526421482L
aI1579484778
aI51175210
aI151432667
aL2852439028L
aL3755921662L
aL3090400905L
aL3913264102L
aI17556990
aI21432301
aI17601174
aI14956372
aI103012115
aI115138692
aI38228683
aI509149961
aI361830235
aI282012623
aI3108351
aI8942262
aI989496667
aL3293476440L
aI380588101
aL3742538801L
aI1657356692
aI18201801
aI155773828
aI62816265
aI23993734
aI26576457
aL3579223455L
aI273922155
aI61593294
aI481297682
aI58494029
aI34685994
aI21090480
aI34352990
aI46430342
aI487624974
aI16656851
aI204910970
aI29711511
aI20683724
aI84324967
aI28577601
aI53167839
aI36754163
aI17545687
aI20535752
aI20991021
aI77026634
aI545202357
aI16529238
aI73136543
aI73134924
aI92245322
aI205671915
aI15010370
aI311542894
aI122973991
aL2496638089L
aL3343406969L
aI125647440
aI194133424
aI34997783
aI41888066
aI15904273
aI287453334
aI1849173318
aI607316347
aL2472124664L
aI249759177
aL2932829526L
aI29246547
aI29247574
aI14524152
aI29334444
aI77881369
aI56443153
aI96010929
aL2423659573L
aL2851074680L
aI1343903714
aI1918360826
aL2529800118L
aI245132157
aI19984932
aI36710827
aI15999286
aI14095706
aI91478624
aI133874181
aI17351940
aI15552011
aI41600293
aL2243013444L
aI22853776
aL3317502725L
aI71046648
aL3107922182L
aI302433212
aI29235844
aL3353396199L
aL2750687210L
aI22423110
aL3214623117L
aL3063911895L
aI27911944
aI87975575
aI23357735
aL2414757164L
aL2742469653L
aI221093764
aI24641746
aI14718975
aI395539119
aI150991470
aI24167590
aI339804858
aI946444958
aL2849971143L
aI57016932
aI22953861
aI38949480
aI27650674
aI27697863
aI108613975
aI19977449
aI52401028
aI193260113
aI327446619
aI111363757
aI1072365488
aI193259313
aI17490078
aI191938610
aI271530768
aI290183897
aI168669843
aI1560600085
aI264342957
aI226126627
aL3131069554L
aI36396863
aI113719382
aL3172719597L
aI1248868412
aI209209543
aI122420026
aL3169285956L
aI627664984
aI74567808
aL2741361816L
aI25528231
aI72641707
aI584296177
aI724426286
aI930585332
aL2813714419L
aL3044610058L
aI281080650
aL3014203953L
aI1250405262
aI827678168
aI79508346
aL2785211026L
aL2420297126L
aL2989194596L
aI185414272
aI1848903967
aI117528461
aI88436642
aI1196571007
aL2800090690L
aI1503919692
aI481444667
aL2169381319L
aI108844170
aL2840716708L
aI631161059
aI194665218
aI771230786
aI1534498646
aI440172330
aI856461624
aI174798648
aI193892822
aL2214685962L
aI917918702
aI95711804
aI1281454064
aI58889909
aI264414851
aI17795099
aI248358971
aI17869707
aI25583634
aI67974257
aI716115620
aI360804371
aI182083716
aI185346211
aI347291326
aI515944827
aI150768530
aI264308018
aL2213141335L
aI263925136
aI309183187
aI1638723236
aI262361096
aI262899936
aI1517479178
aI532982309
aI1958559187
aI240444993
aI78453019
aI83010133
aI98805870
aI262777342
aI141227907
aI218692304
aI16512868
aI293821130
aI499992503
aI197084724
aI256656052
aI600433764
aI349285017
aI185340386
aI555374092
aI221133931
aI589171937
aI148833778
aI271606525
aI1020341090
aI53055009
aI1418919662
aI104931707
aI75123708
aI95733696
aI89220346
aI622185098
aI333420383
aI980269681
aI263788160
aI209235224
aI214140896
aI226709968
aI846398384
aI492319522
aI414779132
aI23947566
aI265015442
aI90722956
aI24227600
aI5631612
aI47979952
aI18083720
aI27910336
aI20455758
aI275100866
aI30191678
aI28126717
aI42644393
aI48982378
aI314542577
aI18951494
aI108382988
aI18863815
aI14583400
aI116710152
aI146212505
aI143198015
aI19661294
aI186129806
aI101858534
aI299112358
aI847123669
aI413485609
aI126000232
aI16033565
aI18753846
aI50476895
aI1074187496
aI16661296
aI20622594
aI5225991
aI16568227
aI18023887
aI7614292
aI17963922
aI16517711
aI12804422
aI17057271
aI15485441
aI15057943
aI327886826
aI327885378
aI327854900
aI330195855
aasS'followers'
p4
(lp5
(lp6
L2437058066L
aL4129811413L
aL2801879084L
aL3586036094L
aL3298436781L
aL4197695163L
aI1541595644
aL3906499284L
aL4071667040L
aL3543826699L
aL3905411004L
aL3090400905L
aL3578595557L
aI270430076
aL4062040213L
aI1228545349
aI126078987
aL3933506715L
aL4064683977L
aL3936175275L
aL3037171885L
aL3099574625L
aI110608919
aL3966050173L
aL2291852702L
aL2521279076L
aL4027059309L
aI1111992338
aL3873494782L
aL3526421482L
aL4070992228L
aL3386513775L
aI1579484778
aL3357131471L
aI41598618
aI142430512
aL3893699659L
aI51175210
aL3755921662L
aI226404538
aI253634444
aI151432667
aL3528589819L
aL3306314767L
aL3306226566L
aL3306289880L
aL3403196877L
aI491675372
aI69112295
aL2444176616L
aL2505618696L
aI608305476
aI1561815968
aL3647249415L
aI74567808
aI22311903
aI44740307
aI515944827
aI194133424
aL2401529857L
aI21432301
aI198587625
aI545526535
aL3837184632L
aL2802927965L
aI380588101
aL2666975766L
aL3808602563L
aI273922155
aL3317502725L
aI339548478
aI607316347
aI740954192
aI152022960
aasS'obj'
p7
ccopy_reg
_reconstructor
p8
(ctweepy.models
User
p9
c__builtin__
object
p10
Ntp11
Rp12
(dp13
S'follow_request_sent'
p14
NsS'has_extended_profile'
p15
I00
sS'profile_use_background_image'
p16
I00
sS'profile_sidebar_fill_color'
p17
V000000
p18
sS'id'
p19
L3910776615L
sS'verified'
p20
I00
sS'entities'
p21
(dp22
Vurl
p23
(dp24
Vurls
p25
(lp26
(dp27
g23
Vhttp://t.co/eBjjD544Ds
p28
sVindices
p29
(lp30
I0
aI22
asVexpanded_url
p31
Vhttp://www.hodgekittrellsir.com
p32
sVdisplay_url
p33
Vhodgekittrellsir.com
p34
sassVdescription
p35
(dp36
g25
(lp37
sssS'profile_image_url_https'
p38
Vhttps://pbs.twimg.com/profile_images/660213239213481984/Vl4nQ7fo_normal.jpg
p39
sS'_json'
p40
(dp41
Vfollow_request_sent
p42
NsVhas_extended_profile
p43
I00
sVprofile_use_background_image
p44
I00
sVdefault_profile_image
p45
I00
sVid
p46
L3910776615L
sVprofile_background_image_url_https
p47
Vhttps://abs.twimg.com/images/themes/theme1/bg.png
p48
sVverified
p49
I00
sVprofile_text_color
p50
V000000
p51
sVprofile_image_url_https
p52
g39
sVprofile_sidebar_fill_color
p53
g18
sVentities
p54
g22
sVfollowers_count
p55
I74
sVprofile_sidebar_border_color
p56
V000000
p57
sVid_str
p58
V3910776615
p59
sVprofile_background_color
p60
V000000
p61
sVlisted_count
p62
I4
sVstatus
p63
(dp64
Vlang
p65
Ven
p66
sVfavorited
p67
I00
sg54
(dp68
Vsymbols
p69
(lp70
sVuser_mentions
p71
(lp72
sVhashtags
p73
(lp74
sg25
(lp75
ssVcontributors
p76
NsVtruncated
p77
I00
sVtext
p78
VPrayers to all the victims and families of those lost in the Paris attack.
p79
sVcreated_at
p80
VSat Nov 14 01:44:24 +0000 2015
p81
sVretweeted
p82
I00
sVin_reply_to_status_id_str
p83
NsVcoordinates
p84
NsVin_reply_to_user_id_str
p85
NsVsource
p86
V<a href="http://twitter.com" rel="nofollow">Twitter Web Client</a>
p87
sVin_reply_to_status_id
p88
NsVin_reply_to_screen_name
p89
Nsg58
V665344497711190016
p90
sVplace
p91
NsVretweet_count
p92
I0
sVgeo
p93
Nsg46
L665344497711190016L
sVfavorite_count
p94
I0
sVin_reply_to_user_id
p95
NssVis_translation_enabled
p96
I00
sVutc_offset
p97
I-28800
sVstatuses_count
p98
I206
sg35
V
p99
sVfriends_count
p100
I404
sVlocation
p101
VRaleigh, North Carolina
p102
sVprofile_link_color
p103
VABB8C2
p104
sVprofile_image_url
p105
Vhttp://pbs.twimg.com/profile_images/660213239213481984/Vl4nQ7fo_normal.jpg
p106
sVfollowing
p107
NsVgeo_enabled
p108
I00
sVprofile_banner_url
p109
Vhttps://pbs.twimg.com/profile_banners/3910776615/1444412077
p110
sVprofile_background_image_url
p111
Vhttp://abs.twimg.com/images/themes/theme1/bg.png
p112
sVscreen_name
p113
Vtbresciabroker
p114
sg65
Ven
p115
sVprofile_background_tile
p116
I00
sVfavourites_count
p117
I0
sVname
p118
VTRUE BRESCIA
p119
sVnotifications
p120
Nsg23
Vhttp://t.co/eBjjD544Ds
p121
sg80
VFri Oct 09 17:27:24 +0000 2015
p122
sVcontributors_enabled
p123
I00
sVtime_zone
p124
VPacific Time (US & Canada)
p125
sVprotected
p126
I00
sVdefault_profile
p127
I00
sVis_translator
p128
I00
ssS'contributors_enabled'
p129
I00
sS'profile_text_color'
p130
g51
sS'followers_count'
p131
I74
sS'profile_sidebar_border_color'
p132
g57
sS'id_str'
p133
g59
sS'default_profile_image'
p134
I00
sS'listed_count'
p135
I4
sS'status'
p136
g8
(ctweepy.models
Status
p137
g10
Ntp138
Rp139
(dp140
S'favorited'
p141
I00
sS'contributors'
p142
NsS'truncated'
p143
I00
sS'text'
p144
g79
sS'source_url'
p145
Vhttp://twitter.com
p146
sS'in_reply_to_status_id'
p147
NsS'geo'
p148
Nsg19
L665344497711190016L
sS'favorite_count'
p149
I0
sS'lang'
p150
g66
sg21
g68
sS'created_at'
p151
cdatetime
datetime
p152
(S'\x07\xdf\x0b\x0e\x01,\x18\x00\x00\x00'
p153
tp154
Rp155
sg40
g64
sS'coordinates'
p156
NsS'in_reply_to_user_id_str'
p157
NsS'source'
p158
VTwitter Web Client
p159
sS'in_reply_to_status_id_str'
p160
NsS'in_reply_to_screen_name'
p161
Nsg133
g90
sS'retweeted'
p162
I00
sS'place'
p163
NsS'retweet_count'
p164
I0
sS'in_reply_to_user_id'
p165
NsbsS'is_translation_enabled'
p166
I00
sS'utc_offset'
p167
I-28800
sS'statuses_count'
p168
I206
sS'description'
p169
g99
sS'friends_count'
p170
I404
sS'location'
p171
g102
sS'profile_link_color'
p172
g104
sS'profile_image_url'
p173
g106
sS'notifications'
p174
NsS'geo_enabled'
p175
I00
sS'profile_background_color'
p176
g61
sS'profile_banner_url'
p177
g110
sS'profile_background_image_url'
p178
g112
sS'screen_name'
p179
g114
sg150
g115
sg1
I00
sS'profile_background_tile'
p180
I00
sS'favourites_count'
p181
I0
sS'name'
p182
g119
sS'url'
p183
g121
sg151
g152
(S'\x07\xdf\n\t\x11\x1b\x18\x00\x00\x00'
p184
tp185
Rp186
sS'profile_background_image_url_https'
p187
g48
sS'time_zone'
p188
g125
sS'protected'
p189
I00
sS'default_profile'
p190
I00
sS'is_translator'
p191
I00
sbs.