(dp0
S'following'
p1
(lp2
(lp3
I271710717
aI1370890770
aI217832358
aI333975406
aI193699648
aI299858828
aL3147168772L
aI58487329
aI480689717
aL2206921700L
aL4056555857L
aL2438453299L
aL2236319479L
aI207275263
aL2400886622L
aL2429497441L
aL2356293246L
aL3395958363L
aL2839468319L
aL2930079705L
aI923277409
aI547216864
aI513739938
aL3315330618L
aI1302235303
aI344454663
aI463162523
aI30884873
aL3173498883L
aL2793474891L
aI337761893
aL2399310369L
aL3040509299L
aL3148353021L
aI145154620
aI728700470
aL3707593635L
aI560507396
aI162437804
aI709620126
aI247392416
aL3055348719L
aI912956047
aI267829489
aI25892484
aI47383148
aL3302764360L
aI1508130139
aI45168108
aL2831551173L
aI22607674
aI27852472
aL3903563479L
aI65616769
aL3962947754L
aI262299347
aI581914827
aI520412366
aI791947416
aL2904437742L
aI164964711
aI439825740
aI19079767
aI430099416
aL2753743832L
aL2869302790L
aI1898333556
aL2225276335L
aI18408384
aI853224026
aL3066075088L
aI1358646475
aL3190398715L
aL3296766520L
aL2299783723L
aI798394423
aI777255126
aI405715257
aI23696937
aI49311606
aI56466050
aI76289917
aL2806535294L
aI1666239632
aI273502693
aI976923020
aI103114247
aL3343108541L
aL3695371646L
aI1578889626
aI30568867
aI1624826304
aL3826431378L
aI1871982090
aI1940463205
aL3316585348L
aI18057450
aasS'followers'
p4
(lp5
(lp6
L4036448007L
aL2277632947L
aL3050114183L
aL2203735422L
aL3311757942L
aL3329834423L
aL2203715713L
aI1924312855
aI119434842
aI1118828030
aI71347513
aI1091295002
aI127967449
aL3106064356L
aL2429497441L
aI315798884
aL3356798416L
aI271710717
aI1370890770
aL3741164719L
aL3300447672L
aI1924310023
aI217832358
aI255103050
aI333975406
aL3683971032L
aL3147246544L
aL4057945480L
aI193699648
aL3008971965L
aI121158213
aL3147168772L
aL3118978727L
aL3972972494L
aI480689717
aI299858828
aL2206921700L
aL4111207343L
aL3319463222L
aL3544379172L
aL4056555857L
aI1577160728
aL2438453299L
aI1279878134
aI271732971
aL3208283594L
aL2356293246L
aL3018809793L
aI207275263
aL2236319479L
aL3395958363L
aL2400886622L
aL3431353480L
aI1183838114
aL2839468319L
aI344454663
aL3315330618L
aL2823162434L
aI210040223
aI923277409
aI547216864
aI1302235303
aI513739938
aL2647287229L
aL3274668836L
aL3424409830L
aI30884873
aI463162523
aL3173498883L
aL2399310369L
aL4065792314L
aL3871379953L
aL2793474891L
aI337761893
aI145154620
aL4024871747L
aI24312027
aI537122882
aI1530674035
aL3493450637L
aL2266573932L
aL3040509299L
aL2997099314L
aL3148353021L
aI728700470
aL3707593635L
aI247392416
aI560507396
aI709620126
aI162437804
aI23013169
aL3055348719L
aL3028261480L
aI1398654900
aI912956047
aI308997977
aI82935987
aL3900128357L
aI267829489
aL3083526756L
aL3807550767L
aL2150035392L
aI25892484
aL3004076055L
aL3004092964L
aL3004094524L
aI1470741235
aL3004101868L
aI270372848
aL2644886827L
aL3004104388L
aL3004120918L
aI47383148
aI21841580
aL2958769801L
aL3214456469L
aI316250065
aL2874447922L
aL3302764360L
aI1508130139
aI730100292
aL2831551173L
aI45168108
aL3947270356L
aI791947416
aL3883704746L
aL3917932455L
aL3903563479L
aI43127411
aI1035880526
aL2586273553L
aI27852472
aI22607674
aI65616769
aL3962947754L
aI262299347
aI1049373715
aI93796519
aI307620998
aI439825740
aL2477886097L
aL2904437742L
aI520412366
aL3334692641L
aL2505615402L
aI581914827
aL3944869936L
aI164964711
aI19079767
aL3280461007L
aL2468497981L
aI91899366
aI58487329
aI118766215
aL3791090114L
aL3956183325L
aI80612347
aL2753743832L
aL2864620413L
aI430099416
aI36894359
aL2516029806L
aL2869302790L
aL3417442029L
aL3374955358L
aI801657973
aL3942166813L
aI15069354
aI459091687
aL3223130652L
aI1306380096
aI1169827650
aL3653125822L
aI1898333556
aL2995866097L
aL3993590153L
aI1620013886
aI25289674
aL2225276335L
aI1049897107
aL2444383308L
aL3902844012L
aL3902394313L
aL3902262553L
aI929543910
aI1893904681
aL3881306473L
aI1935716222
aL3438937700L
aL3424966545L
aL3429077667L
aI609304305
aI499100663
aI11912612
aL2817966517L
aI152122390
aL2288740951L
aI39462822
aL2322936865L
aI921080898
aI311852242
aI604393879
aI142426053
aI28105461
aI1358646475
aI236539594
aL2883284058L
aI1270144232
aL3102414112L
aL2411068094L
aI125300190
aI127200107
aL3688599269L
aI298756290
aI1535921808
aI40012474
aL2466185695L
aL3902935634L
aL3903113894L
aL3902310014L
aL3874222752L
aL3905576010L
aL3224077231L
aL3192472578L
aL3327236773L
aI1964257994
aI39783087
aL2460666368L
aI853224026
aL3403547631L
aL2969298882L
aL3011598397L
aI23218742
aL3031192491L
aL3163236943L
aL3066075088L
aI1386338574
aL2147765809L
aI39036289
aI19379419
aI101978028
aL3184153457L
aL2286839743L
aL3296766520L
aL3012070668L
aL3128522824L
aI777255126
aL3646829234L
aL3090281978L
aL3613529841L
aL3190398715L
aL2605384560L
aL3409433439L
aI798394423
aL3243648855L
aI80518085
aI1317272010
aI539721796
aL2699727945L
aI1160519468
aI147278419
aL3012637231L
aL2299783723L
aL3101673194L
aI430092847
aI573952371
aI405715257
aL3523090812L
aL3040982853L
aI1250152915
aI18408384
aL3237812404L
aI1292751308
aL3066012281L
aI1884394862
aI49311606
aI336264627
aI29150319
aL2822391895L
aI330746187
aL3047330333L
aL3257808875L
aI922788600
aL3267922279L
aL2373904190L
aL3995377043L
aI256346497
aL2524792174L
aI138699608
aI23696937
aI1395587484
aI131911943
aI1180622503
aI56466050
aL2451811337L
aI205874482
aL2752295816L
aL2806535294L
aI57582361
aI1486273537
aL3343108541L
aL2978486463L
aL3218641968L
aI38434023
aI207659718
aI52740347
aL2542130834L
aL2942323255L
aI184545959
aI315787368
aI1666239632
aI273502693
aI1659216888
aL3339692899L
aL3251410482L
aI18483485
aL3293993767L
aI170794340
aI976923020
aI127807272
aL2926244659L
aL3236780339L
aI266042053
aL2256962322L
aL3078726125L
aL3427545658L
aI602052614
aL3695371646L
aI403973553
aI1684070401
aI76289917
aI381282818
aI83686303
aL2876488316L
aI596237687
aI103114247
aL2871999101L
aI857461968
aI769010702
aI66584857
aL3697716027L
aI343143638
aI77903047
aI30568867
aI733510825
aL2283716100L
aL3826431378L
aL3375769929L
aI1578889626
aL2312865546L
aL2512958136L
aL3511912992L
aL3428181683L
aI1603999094
aL3000956851L
aI379300844
aI1031351010
aL3019052096L
aL3854677942L
aI1940463205
aI33760141
aI1871982090
aI1259852635
aL2786375862L
aI45735688
aL2285443592L
aL2990447314L
aI147827317
aI765587592
aI261252118
aL2299216254L
aI139960419
aL3299868405L
aI1624826304
aL3875282716L
aI411768356
aI706867458
aL2412869176L
aL2813424226L
aI23792669
aL2556358842L
aI25334471
aI1457507978
aI25322198
aI794117106
aL3289892117L
aI202212607
aL2326306957L
aL3249534049L
aI103346588
aI581158417
aL3232424015L
aL2299245055L
aI1264631082
aI149131106
aI244746802
aL3316585348L
aI18057450
aasS'obj'
p7
ccopy_reg
_reconstructor
p8
(ctweepy.models
User
p9
c__builtin__
object
p10
Ntp11
Rp12
(dp13
S'follow_request_sent'
p14
NsS'has_extended_profile'
p15
I00
sS'profile_use_background_image'
p16
I00
sS'profile_sidebar_fill_color'
p17
V000000
p18
sS'id'
p19
L3927880092L
sS'verified'
p20
I00
sS'entities'
p21
(dp22
Vurl
p23
(dp24
Vurls
p25
(lp26
(dp27
g23
Vhttp://t.co/UbE6w7nNwQ
p28
sVindices
p29
(lp30
I0
aI22
asVexpanded_url
p31
Vhttp://tmarketing.gosocials.net
p32
sVdisplay_url
p33
Vtmarketing.gosocials.net
p34
sassVdescription
p35
(dp36
g25
(lp37
sssS'profile_image_url_https'
p38
Vhttps://pbs.twimg.com/profile_images/655464011287302148/nTYJf29Z_normal.jpg
p39
sS'_json'
p40
(dp41
Vfollow_request_sent
p42
NsVhas_extended_profile
p43
I00
sVprofile_use_background_image
p44
I00
sVdefault_profile_image
p45
I00
sVid
p46
L3927880092L
sVprofile_background_image_url_https
p47
Vhttps://abs.twimg.com/images/themes/theme1/bg.png
p48
sVverified
p49
I00
sVprofile_text_color
p50
V000000
p51
sVprofile_image_url_https
p52
g39
sVprofile_sidebar_fill_color
p53
g18
sVentities
p54
g22
sVfollowers_count
p55
I398
sVprofile_sidebar_border_color
p56
V000000
p57
sVid_str
p58
V3927880092
p59
sVprofile_background_color
p60
V000000
p61
sVlisted_count
p62
I58
sVstatus
p63
(dp64
Vcontributors
p65
NsVtruncated
p66
I00
sVtext
p67
VRT @andrebuklaw: Asian Stocks Overview: Alibaba Group Holding Ltd (NYSE:BABA), Siliconware Precision Industries ... #Facebook #android #app\u2026
p68
sVin_reply_to_status_id
p69
Nsg46
L662390226434658308L
sVfavorite_count
p70
I0
sVsource
p71
V<a href="http://twitter.com" rel="nofollow">Twitter Web Client</a>
p72
sVretweeted
p73
I00
sVcoordinates
p74
Nsg54
(dp75
Vsymbols
p76
(lp77
sVuser_mentions
p78
(lp79
(dp80
g46
L3299794136L
sg29
(lp81
I3
aI15
asg58
V3299794136
p82
sVscreen_name
p83
Vandrebuklaw
p84
sVname
p85
VAndre Abouzzaty
p86
sasVhashtags
p87
(lp88
(dp89
g29
(lp90
I116
aI125
asg67
VFacebook
p91
sa(dp92
g29
(lp93
I126
aI134
asg67
Vandroid
p94
sa(dp95
g29
(lp96
I135
aI139
asg67
Vapp
p97
sasg25
(lp98
ssVin_reply_to_screen_name
p99
Nsg58
V662390226434658308
p100
sVretweet_count
p101
I2
sVin_reply_to_user_id
p102
NsVfavorited
p103
I00
sVretweeted_status
p104
(dp105
Vlang
p106
Ven
p107
sg103
I00
sg54
(dp108
g76
(lp109
sg78
(lp110
sg87
(lp111
(dp112
g29
(lp113
I99
aI108
asg67
VFacebook
p114
sa(dp115
g29
(lp116
I109
aI117
asg67
Vandroid
p117
sa(dp118
g29
(lp119
I118
aI122
asg67
Vapp
p120
sasg25
(lp121
ssg65
Nsg66
I00
sg67
VAsian Stocks Overview: Alibaba Group Holding Ltd (NYSE:BABA), Siliconware Precision Industries ... #Facebook #android #app go to smarturl.i\u2026
p122
sVcreated_at
p123
VMon Oct 26 14:06:53 +0000 2015
p124
sg73
I00
sVin_reply_to_status_id_str
p125
Nsg74
NsVin_reply_to_user_id_str
p126
Nsg71
V<a href="http://ifttt.com" rel="nofollow">IFTTT</a>
p127
sg69
Nsg99
Nsg58
V658645981551075330
p128
sVplace
p129
Nsg101
I2
sVgeo
p130
Nsg46
L658645981551075330L
sg70
I0
sg102
Nssg130
Nsg126
Nsg106
Ven
p131
sg123
VThu Nov 05 22:05:11 +0000 2015
p132
sg125
Nsg129
NssVis_translation_enabled
p133
I00
sVutc_offset
p134
NsVstatuses_count
p135
I2397
sg35
VT- Marketing is World Wide Digital marketing Company Belongs to GoSocials.
p136
sVfriends_count
p137
I97
sVlocation
p138
VFlorence-Graham, CA
p139
sVprofile_link_color
p140
VABB8C2
p141
sVprofile_image_url
p142
Vhttp://pbs.twimg.com/profile_images/655464011287302148/nTYJf29Z_normal.jpg
p143
sVfollowing
p144
NsVgeo_enabled
p145
I00
sVprofile_banner_url
p146
Vhttps://pbs.twimg.com/profile_banners/3927880092/1445109795
p147
sVprofile_background_image_url
p148
Vhttp://abs.twimg.com/images/themes/theme1/bg.png
p149
sg83
VKrist_tmarket
p150
sg106
Ven
p151
sVprofile_background_tile
p152
I00
sVfavourites_count
p153
I0
sg85
VKrist_tmarket
p154
sVnotifications
p155
Nsg23
Vhttp://t.co/UbE6w7nNwQ
p156
sg123
VSat Oct 17 19:21:14 +0000 2015
p157
sVcontributors_enabled
p158
I00
sVtime_zone
p159
NsVprotected
p160
I00
sVdefault_profile
p161
I00
sVis_translator
p162
I00
ssS'contributors_enabled'
p163
I00
sS'profile_text_color'
p164
g51
sS'followers_count'
p165
I398
sS'profile_sidebar_border_color'
p166
g57
sS'id_str'
p167
g59
sS'default_profile_image'
p168
I00
sS'listed_count'
p169
I58
sS'status'
p170
g8
(ctweepy.models
Status
p171
g10
Ntp172
Rp173
(dp174
S'favorited'
p175
I00
sS'contributors'
p176
NsS'truncated'
p177
I00
sS'text'
p178
g68
sS'source_url'
p179
Vhttp://twitter.com
p180
sS'in_reply_to_status_id'
p181
NsS'geo'
p182
Nsg19
L662390226434658308L
sS'favorite_count'
p183
I0
sS'lang'
p184
g131
sS'retweeted_status'
p185
g8
(g171
g10
Ntp186
Rp187
(dp188
g175
I00
sg176
Nsg177
I00
sg178
g122
sg179
Vhttp://ifttt.com
p189
sg181
Nsg182
Nsg19
L658645981551075330L
sg183
I0
sg184
g107
sg21
g108
sS'created_at'
p190
cdatetime
datetime
p191
(S'\x07\xdf\n\x1a\x0e\x065\x00\x00\x00'
p192
tp193
Rp194
sg40
g105
sS'coordinates'
p195
NsS'in_reply_to_user_id_str'
p196
NsS'source'
p197
VIFTTT
p198
sS'in_reply_to_status_id_str'
p199
NsS'in_reply_to_screen_name'
p200
Nsg167
g128
sS'retweeted'
p201
I00
sS'place'
p202
NsS'retweet_count'
p203
I2
sS'in_reply_to_user_id'
p204
Nsbsg21
g75
sg190
g191
(S'\x07\xdf\x0b\x05\x16\x05\x0b\x00\x00\x00'
p205
tp206
Rp207
sg40
g64
sg195
Nsg196
Nsg197
VTwitter Web Client
p208
sg199
Nsg200
Nsg167
g100
sg201
I00
sg202
Nsg203
I2
sg204
NsbsS'is_translation_enabled'
p209
I00
sS'utc_offset'
p210
NsS'statuses_count'
p211
I2397
sS'description'
p212
g136
sS'friends_count'
p213
I97
sS'location'
p214
g139
sS'profile_link_color'
p215
g141
sS'profile_image_url'
p216
g143
sS'notifications'
p217
NsS'geo_enabled'
p218
I00
sS'profile_background_color'
p219
g61
sS'profile_banner_url'
p220
g147
sS'profile_background_image_url'
p221
g149
sS'screen_name'
p222
g150
sg184
g151
sg1
I00
sS'profile_background_tile'
p223
I00
sS'favourites_count'
p224
I0
sS'name'
p225
g154
sS'url'
p226
g156
sg190
g191
(S'\x07\xdf\n\x11\x13\x15\x0e\x00\x00\x00'
p227
tp228
Rp229
sS'profile_background_image_url_https'
p230
g48
sS'time_zone'
p231
NsS'protected'
p232
I00
sS'default_profile'
p233
I00
sS'is_translator'
p234
I00
sbs.