(dp0
S'following'
p1
(lp2
(lp3
L2342591485L
aL2902354823L
aL3849442453L
aI6968182
aL4039269982L
aI57683365
aI39264827
aI750919909
aI300338214
aI526743588
aI85590450
aI395069899
aI17085087
aI15358759
aI14675685
aI14840869
aI224372609
aL2781050528L
aL2743641378L
aI61216579
aI36665547
aI15829003
aI20663500
aI21021891
aI79962986
aI23663732
aI13528832
aI104712573
aI108021761
aI56505125
aL3403314244L
aI2837841
aI226804803
aL2934841809L
aL3302354807L
aI45552145
aI1688716423
aL2996672860L
aL2448859862L
aL2577380516L
aI53978117
aI1612504999
aI816653
aI575011946
aL3346392219L
aI127613373
aL2909310806L
aI62624207
aI141453630
aI35941034
aI17002481
aI84444981
aI69476342
aI374538632
aI604610969
aL2752838548L
aL3057435082L
aI23145378
aI302349992
aI51205137
aL2564147353L
aI25387183
aI36670025
aI18017198
aI13735782
aL2600389056L
aI67683728
aI20182642
aI18858395
aI28135853
aI28134618
aI23484039
aI15108702
aI264834791
aL2885805268L
aI26775476
aI386270039
aI104509652
aI382301115
aI250758475
aI21459600
aI818081647
aI87416722
aI7587032
aI30018058
aI252549882
aI551373363
aI274673392
aI207507805
aI309285803
aI1694447893
aI539499219
aI113390942
aL3040832363L
aI8841372
aL2796938558L
aI28785486
aL2858171394L
aI267908574
aI10194682
aI543598566
aL2534559344L
aI18294197
aI13171622
aL2570479190L
aI18294275
aI16184358
aL2463681456L
aI104952689
aI1672120591
aL2334614718L
aI196508393
aL2355225980L
aI39585367
aI5695032
aI18175018
aI33474655
aI2890961
aI14372486
aI48289662
aI1344951
aI15460048
aI7905122
aI19661363
aI14885549
aI15808647
aI9737032
aI14539324
aI73147282
aI42703075
aI621583
aI10977192
aI15955754
aI31540671
aI1367531
aI15012486
aI6017542
aI428333
aI15754281
aI14677919
aI807095
aI2884771
aI14511951
aI2097571
aI51241574
aI2467791
aI16664681
aI16816021
aI87777436
aI194137231
aI337853585
aI742143
aI3108351
aI39795576
aI103891103
aI25983654
aI18682917
aI8724862
aI7717612
aI19606528
aI17813899
aI14293310
aI14800270
aI32359921
aI248836670
aI310822370
aI98736295
aI25053299
aI21736388
aI7313362
aI21696535
aI163060897
aI41537564
aI1976890536
aI1289738107
aI19777078
aI19790872
aI339436740
aI40342628
aI292743269
aI164596794
aI84402174
aI102325185
aI348224496
aI518139679
aI453853182
aI274184658
aI273181052
aL2999671493L
aI359756765
aI127176250
aL2563262155L
aI1241258612
aI112085932
aI129051309
aI14116807
aI50393960
aI30919868
aI11023052
aI14342661
aI428653913
aI278691695
aI34681960
aI588472951
aI19546277
aI96206175
aI4898091
aI36082429
aI1613693713
aL2447547871L
aI15812482
aL2281099280L
aI252751061
aI254136706
aI237764259
aI28172926
aI16670996
aI115754870
aI167562319
aI300929831
aI64643056
aI14209243
aI70414500
aI104349985
aI20562637
aI15281391
aI1979190776
aI309122688
aI28164923
aI20449296
aI1652541
aI60642052
aI39879120
aI30261067
aI6070762
aI829442994
aI110974198
aI153495347
aI138182116
aI358377682
aI112441291
aI5988062
aI11014272
aI16334857
aI35002876
aI69620713
aI104237736
aI21328656
aI370808273
aI14412844
aI72928001
aI288980311
aI39462935
aI143949701
aI74950627
aI12794362
aI22873424
aI728874619
aI1163804689
aI26899727
aI16298073
aI46165612
aI1797991
aI1287070148
aI30043148
aI45953808
aI15426758
aI296924721
aI995576238
aI34713362
aI223970563
aI105189580
aI21799563
aI314005753
aI240826569
aI56413858
aI15568127
aI19262500
aI67358777
aI992182100
aI151998296
aI182876615
aI23059499
aI1958752610
aI5402612
aI18326925
aI54979079
aI27707080
aI80374332
aI61212645
aI235322186
aI160798206
aI23756134
aI253167239
aI1178011
aI41331822
aI338559800
aI41330603
aI191781601
aI79320096
aI84281104
aI1155522630
aI38237581
aI426159377
aI204881628
aI360685668
aI468703129
aI37718217
aI229141520
aI17622474
aI306850457
aI326315947
aI271211220
aI23892927
aI44060322
aI166597717
aI199640036
aI404422077
aI106498703
aI14216123
aI16732770
aI16228398
aI26819104
aI14886375
aI904243855
aI624413
aI28140646
aI18949452
aI91478624
aI15110357
aI26574283
aI20402945
aI14878174
aI24578794
aI14115408
aI68739089
aI14292717
aI58549122
aI542439883
aI586116334
aI263197731
aI1534167900
aI140912249
aI55354779
aI42921095
aI17044562
aI17079136
aasS'followers'
p4
(lp5
(lp6
L4103090355L
aI591331840
aL4111081587L
aI981236256
aI552090046
aI849617886
aL3382360792L
aL2860845668L
aL2394624246L
aL2934243762L
aL2817966517L
aL2781050528L
aL3188234281L
aI28145495
aL3238290853L
aL2892452101L
aI324965640
aI141453630
aL3319689306L
aL3293656669L
aL3379016667L
aI69476342
aL2686353036L
aI604610969
aI83816216
aI358377682
aI1877627366
aL2950669977L
aI1877833393
aI1302133536
aL3166053728L
aI84444981
aL3160472540L
aI303531344
aL3152920558L
aI556774183
aL2985013655L
aL2440396358L
aI247128561
aL3013985596L
aL2596244366L
aL2752838548L
aI1911736388
aL3065083689L
aL3073478049L
aL2218904408L
aI1423715634
aI1672120591
aI65461558
aL3026099092L
aL3049578353L
aI1281335977
aI287885364
aI611817117
aI518139679
aL2912496057L
aL2782744421L
aI27473764
aL2522306774L
aL2447547871L
aI15812482
aI74950627
aI831157224
aL2490542179L
aasS'obj'
p7
ccopy_reg
_reconstructor
p8
(ctweepy.models
User
p9
c__builtin__
object
p10
Ntp11
Rp12
(dp13
S'follow_request_sent'
p14
NsS'has_extended_profile'
p15
I00
sS'profile_use_background_image'
p16
I01
sS'profile_sidebar_fill_color'
p17
VDDEEF6
p18
sS'id'
p19
I408677509
sS'verified'
p20
I00
sS'entities'
p21
(dp22
Vdescription
p23
(dp24
Vurls
p25
(lp26
sssS'profile_image_url_https'
p27
Vhttps://abs.twimg.com/sticky/default_profile_images/default_profile_2_normal.png
p28
sS'_json'
p29
(dp30
Vfollow_request_sent
p31
NsVhas_extended_profile
p32
I00
sVprofile_use_background_image
p33
I01
sVdefault_profile_image
p34
I01
sVid
p35
I408677509
sVprofile_background_image_url_https
p36
Vhttps://abs.twimg.com/images/themes/theme1/bg.png
p37
sVverified
p38
I00
sVprofile_text_color
p39
V333333
p40
sVprofile_image_url_https
p41
g28
sVprofile_sidebar_fill_color
p42
g18
sVentities
p43
g22
sVfollowers_count
p44
I64
sVprofile_sidebar_border_color
p45
VC0DEED
p46
sVid_str
p47
V408677509
p48
sVprofile_background_color
p49
VC0DEED
p50
sVlisted_count
p51
I11
sVstatus
p52
(dp53
Vcontributors
p54
NsVtruncated
p55
I00
sVtext
p56
VLeon Cooperman Omega Advisors Appears To Have Added To Its $MGM Position In The Most Recent Quarter https://t.co/DDQUgGxiZn @grassosteve
p57
sVin_reply_to_status_id
p58
Nsg35
L666468493827694592L
sVfavorite_count
p59
I0
sVsource
p60
V<a href="http://twitter.com" rel="nofollow">Twitter Web Client</a>
p61
sVretweeted
p62
I00
sVcoordinates
p63
Nsg43
(dp64
Vsymbols
p65
(lp66
(dp67
Vindices
p68
(lp69
I59
aI63
asg56
VMGM
p70
sasVuser_mentions
p71
(lp72
(dp73
g35
I300338214
sg68
(lp74
I124
aI136
asg47
V300338214
p75
sVscreen_name
p76
Vgrassosteve
p77
sVname
p78
VSteve Grasso
p79
sasVhashtags
p80
(lp81
sg25
(lp82
(dp83
Vurl
p84
Vhttps://t.co/DDQUgGxiZn
p85
sg68
(lp86
I100
aI123
asVexpanded_url
p87
Vhttp://stks.co/r3BdU
p88
sVdisplay_url
p89
Vstks.co/r3BdU
p90
sassVin_reply_to_screen_name
p91
Nsg47
V666468493827694592
p92
sVretweet_count
p93
I0
sVin_reply_to_user_id
p94
NsVfavorited
p95
I00
sVgeo
p96
NsVin_reply_to_user_id_str
p97
NsVpossibly_sensitive
p98
I00
sVlang
p99
Ven
p100
sVcreated_at
p101
VTue Nov 17 04:10:45 +0000 2015
p102
sVin_reply_to_status_id_str
p103
NsVplace
p104
NssVis_translation_enabled
p105
I00
sVutc_offset
p106
I-18000
sVstatuses_count
p107
I2891
sg23
V
p108
sVfriends_count
p109
I347
sVlocation
p110
g108
sVprofile_link_color
p111
V0084B4
p112
sVprofile_image_url
p113
Vhttp://abs.twimg.com/sticky/default_profile_images/default_profile_2_normal.png
p114
sVfollowing
p115
NsVgeo_enabled
p116
I00
sVprofile_background_image_url
p117
Vhttp://abs.twimg.com/images/themes/theme1/bg.png
p118
sg76
V01TRADER
p119
sg99
Ven
p120
sVprofile_background_tile
p121
I00
sVfavourites_count
p122
I28
sg78
VTrader
p123
sVnotifications
p124
Nsg84
Nsg101
VWed Nov 09 18:59:19 +0000 2011
p125
sVcontributors_enabled
p126
I00
sVtime_zone
p127
VEastern Time (US & Canada)
p128
sVprotected
p129
I00
sVdefault_profile
p130
I01
sVis_translator
p131
I00
ssS'contributors_enabled'
p132
I00
sS'profile_text_color'
p133
g40
sS'followers_count'
p134
I64
sS'profile_sidebar_border_color'
p135
g46
sS'id_str'
p136
g48
sS'default_profile_image'
p137
I01
sS'listed_count'
p138
I11
sS'status'
p139
g8
(ctweepy.models
Status
p140
g10
Ntp141
Rp142
(dp143
S'favorited'
p144
I00
sS'contributors'
p145
NsS'truncated'
p146
I00
sS'text'
p147
g57
sS'source_url'
p148
Vhttp://twitter.com
p149
sS'possibly_sensitive'
p150
I00
sS'in_reply_to_status_id'
p151
NsS'geo'
p152
Nsg19
L666468493827694592L
sS'favorite_count'
p153
I0
sS'lang'
p154
g100
sg21
g64
sS'created_at'
p155
cdatetime
datetime
p156
(S'\x07\xdf\x0b\x11\x04\n-\x00\x00\x00'
p157
tp158
Rp159
sg29
g53
sS'coordinates'
p160
NsS'in_reply_to_user_id_str'
p161
NsS'source'
p162
VTwitter Web Client
p163
sS'in_reply_to_status_id_str'
p164
NsS'in_reply_to_screen_name'
p165
Nsg136
g92
sS'retweeted'
p166
I00
sS'place'
p167
NsS'retweet_count'
p168
I0
sS'in_reply_to_user_id'
p169
NsbsS'is_translation_enabled'
p170
I00
sS'utc_offset'
p171
I-18000
sS'statuses_count'
p172
I2891
sS'description'
p173
g108
sS'friends_count'
p174
I347
sS'location'
p175
g108
sS'profile_link_color'
p176
g112
sS'profile_image_url'
p177
g114
sS'notifications'
p178
NsS'geo_enabled'
p179
I00
sS'profile_background_color'
p180
g50
sS'profile_background_image_url'
p181
g118
sS'screen_name'
p182
g119
sg154
g120
sg1
I00
sS'profile_background_tile'
p183
I00
sS'favourites_count'
p184
I28
sS'name'
p185
g123
sS'url'
p186
Nsg155
g156
(S'\x07\xdb\x0b\t\x12;\x13\x00\x00\x00'
p187
tp188
Rp189
sS'profile_background_image_url_https'
p190
g37
sS'time_zone'
p191
g128
sS'protected'
p192
I00
sS'default_profile'
p193
I01
sS'is_translator'
p194
I00
sbs.