(dp0
S'following'
p1
(lp2
(lp3
I168857946
aL3374756020L
aI20636215
aL3270934908L
aI1141526462
aI342251338
aI1473023792
aI16017475
aI310661570
aI593715538
aI1537728620
aI42712551
aI17893558
aI573356661
aL2912072247L
aL3508060755L
aL2916305152L
aL2525906341L
aL3147797812L
aI586
aI24927996
aL2829966924L
aL2471879203L
aL3180922284L
aI21241717
aI492177195
aL3307587808L
aL3044346069L
aI1026998328
aL3195244375L
aI24494880
aI86390214
aI1900686864
aI913571004
aI522739053
aI296924721
aI355866075
aI174385219
aI71643224
aI430349843
aI28353766
aL2151247592L
aI764842830
aI214479702
aI930541790
aI472426245
aI392678967
aL3045630879L
aL2350614757L
aI134924270
aI1000262514
aI210081276
aL3042872774L
aI33747430
aL2803822165L
aI7822742
aI1526228120
aI21323092
aL3010725104L
aL2676762737L
aI1579422614
aI367237250
aI336689771
aL3013857625L
aI35864576
aI18223590
aI46804450
aI30857540
aI46393249
aI117237387
aI15072071
aI15072581
aI45334322
aI112290748
aI41516710
aI33104659
aI633238141
aI17997789
aI18083786
aI71567590
aI392297645
aI26755480
aI44196397
aI33216611
aI1345580348
aI501169396
aI57268394
aI318677697
aI53166362
aL2391013189L
aI25902514
aI88866737
aL2234837311L
aL2843956641L
aL2180688258L
aI195504210
aI31186367
aI1542533869
aI66666549
aI137862496
aI9484732
aL2585696372L
aI78067917
aI283734762
aI846278640
aI14798101
aI21460063
aI1046449657
aI747434023
aI20078032
aI374672240
aI585824858
aI15836769
aI564686965
aI14128318
aI234270825
aI789339462
aI537402498
aI1281661806
aI34713362
aI771538680
aI403244280
aI9402622
aI176644153
aI1242286285
aI1400029272
aI78310275
aI32359921
aL2238364357L
aI13270942
aI332617373
aL2189503302L
aI22434603
aI553713584
aL2303751216L
aI50102861
aI14860428
aI27801361
aI1364930179
aI1363084489
aI16228398
aI93723527
aI3108351
aI38936142
aL2293093106L
aI132310833
aI176698373
aI358482230
aL2257013497L
aI469533050
aI731285798
aI220830664
aL2225276335L
aI87498576
aI463306588
aI470438993
aI22728078
aI94407669
aI349851520
aI1162102843
aI24410456
aI284278132
aI352947624
aI16955517
aI21810002
aI110711694
aI273294289
aI16397306
aI424443240
aI22186782
aI15018904
aI67382798
aI1436915060
aI15485461
aI219142329
aI17367452
aI60308942
aI18589072
aI17638681
aI399786075
aI28009503
aI628687435
aI49559901
aI239983916
aI176963020
aI246438886
aI108215134
aI65694678
aI16622626
aI1548736957
aI380437111
aI205338413
aI22522178
aI126236800
aI20562637
aI15568127
aI18949452
aI30815103
aI80833706
aI1081
aI12696
aI331688286
aI212135556
aI23997102
aI574211764
aasS'followers'
p4
(lp5
(lp6
I893834852
aI50023045
aL4180431132L
aL2201201916L
aL3246752411L
aI42744149
aI1934214655
aL2734440944L
aL3192695580L
aI15805621
aI1087348448
aI369558538
aI486966960
aI36926967
aI1906418779
aI21051972
aL3317931497L
aI1479950066
aL3118887869L
aL3952810994L
aI1141526462
aI273130577
aI461301869
aL2168888629L
aI399194405
aI582051792
aI21625586
aI355327939
aI1000595706
aL3126992415L
aI1852421292
aI1537728620
aI593715538
aI307538973
aL2477693448L
aI310661570
aI1024773986
aI14039612
aI185420483
aI147078321
aL3426176358L
aL2649720252L
aI467952708
aI1147860302
aI14089946
aL2283414524L
aI32908444
aI573356661
aI122186657
aI259775375
aI37118260
aI877210315
aI163712927
aI29452416
aI94543583
aL2253857671L
aL2912072247L
aL2582235452L
aI1238372887
aI709905230
aI470045755
aI321430176
aI890088571
aL2846512318L
aI1400334576
aL3087268593L
aI338386032
aI304981327
aI158769203
aI38368292
aL2967158481L
aL3472626381L
aI260406733
aI1733404680
aL3306309824L
aL2993111050L
aI18301946
aI17640399
aI105879991
aI353089258
aI516485886
aI21241717
aI101470439
aI35810278
aI17674939
aI1444992709
aI15451340
aI479152148
aL3147797812L
aI250317700
aI492177195
aI48597416
aI317790170
aL3307587808L
aI37304223
aI28515690
aI334107206
aI24509631
aI726538688
aL3044346069L
aI150033118
aI20428698
aI18482366
aL2852710163L
aI44540101
aI293847121
aI26644466
aI1236711312
aI1239226393
aI21985176
aL2969885901L
aL2824641751L
aI15570773
aL2618322746L
aI205558974
aI1074605712
aI228141236
aI29100694
aI560591804
aI24494880
aI801388950
aI206289023
aL2932344033L
aI19474034
aL3062972193L
aL3246093638L
aI1688799540
aI31877372
aL3326562023L
aL3326598688L
aI635746337
aI464859535
aI1047769478
aL3195244375L
aI16154947
aL2304984000L
aI88610091
aL2530747105L
aI17854271
aI1319346258
aI1026998328
aI28390192
aL2710649403L
aI48289525
aI25918247
aL2151247592L
aI196244136
aI1877793086
aL2951495316L
aL2906295467L
aI288436132
aL3171512279L
aI472426245
aI18869255
aL2174395206L
aI229727780
aI275260027
aI240098298
aL2803822165L
aI622610307
aI392678967
aI173351402
aL3045630879L
aL2350614757L
aI134924270
aL2940189201L
aI295807182
aI771538680
aI406431568
aI474549019
aI593316801
aL2437949395L
aI1042738260
aI7822742
aI256191160
aL3010725104L
aI1641387920
aI127725564
aI89545497
aI66263774
aI15700513
aI1858068444
aI34100346
aL2951888973L
aL3011784192L
aI1469975672
aI65453528
aL2648205018L
aI270521534
aL3013857625L
aI336689771
aI362472904
aI45334322
aI126501301
aI433040997
aL2493410136L
aI18083786
aI289732126
aI22917694
aI363845082
aI501169396
aI62031573
aI210519773
aI70488686
aL2918857596L
aI1945462926
aL2827783427L
aI22416905
aI318677697
aL2864279753L
aI28975430
aL2391013189L
aI25902514
aI283371340
aL2917930186L
aI726579614
aI636614898
aL2910329351L
aI13423622
aI526584236
aI768669128
aL2888453297L
aL2904841291L
aL2234837311L
aI88866737
aL2788007839L
aL2180688258L
aI53166362
aL2886514826L
aI64813332
aI320173166
aL2850782433L
aL2843956641L
aL2846834859L
aI78629722
aL2815231871L
aI80732499
aL2741855666L
aL2839777914L
aL2799601048L
aI1229789761
aI1264194128
aI517808265
aL2202064120L
aI360132736
aI1951177560
aI1046449657
aL2695422536L
aI308404259
aI1072484450
aI497626218
aI872394470
aL2427458012L
aI33015404
aI33508406
aI56991705
aL2172757537L
aI551082054
aI243045900
aL2231444689L
aL2180358044L
aI1281661806
aL2594300995L
aI50252810
aI44271170
aI404355064
aI51467844
aI933186804
aL2495332741L
aL2552924906L
aI338001639
aI372044595
aI145128083
aI1713077701
aI13270942
aI60373712
aL2357359778L
aI193590927
aI27799417
aI436923352
aI784728434
aI278802227
aI107747940
aI389319582
aI1400029272
aI220066276
aI31194694
aI340570318
aL2408101196L
aI234913604
aI219142329
aL2212571771L
aI16397306
aI59143641
aL2384196037L
aI24822626
aI463199654
aI22434603
aI50102861
aI1121338736
aL2353603872L
aL2334087092L
aL2344403648L
aI21728667
aI1573827114
aI790131776
aI1363084489
aI1682497381
aI109924249
aI1534767079
aI86595032
aI629243420
aI1542089959
aL2311145456L
aI1568240965
aI1021167462
aL2313448922L
aI1644038545
aI45720896
aI17141630
aI1891239362
aL2293093106L
aI132310833
aI1385206807
aI325413884
aI424443240
aI176698373
aL2257013497L
aI469533050
aL2245798142L
aI585824858
aI1604463200
aI731285798
aI220830664
aI110782268
aL2225276335L
aI1137780602
aI87498576
aI7865962
aL2198484208L
aI463306588
aI107494301
aI501251381
aI135301685
aI470438993
aI327676463
aI134354451
aI22728078
aI16829101
aI429874309
aI94407669
aI194614632
aI1162102843
aI349851520
aI390432827
aI1700730090
aI1687313688
aI1725918805
aI65694678
aI1699811917
aI438714974
aI24104198
aI1458731028
aI15568127
aI110711694
aI273294289
aI302128211
aI22186782
aI17638681
aI15018904
aI194599951
aI345839239
aI1436915060
aI24807188
aI17815988
aI28009503
aI239983916
aI49559901
aI25555295
aI139785809
aI418079450
aI628687435
aI108215134
aI380437111
aI176963020
aI16622626
aI574211764
aI246438886
aI412466626
aI619775466
aI205338413
aI1548736957
aI1675342183
aI126236800
aI127971121
aI33037793
aI212135556
aI30815103
aI23997102
aasS'obj'
p7
ccopy_reg
_reconstructor
p8
(ctweepy.models
User
p9
c__builtin__
object
p10
Ntp11
Rp12
(dp13
S'follow_request_sent'
p14
NsS'has_extended_profile'
p15
I00
sS'profile_use_background_image'
p16
I01
sS'profile_sidebar_fill_color'
p17
VDDEEF6
p18
sS'id'
p19
I409017659
sS'verified'
p20
I00
sS'entities'
p21
(dp22
Vdescription
p23
(dp24
Vurls
p25
(lp26
sssS'profile_image_url_https'
p27
Vhttps://pbs.twimg.com/profile_images/483585326670028801/v0sGALKV_normal.png
p28
sS'_json'
p29
(dp30
Vfollow_request_sent
p31
NsVhas_extended_profile
p32
I00
sVprofile_use_background_image
p33
I01
sVdefault_profile_image
p34
I00
sVid
p35
I409017659
sVprofile_background_image_url_https
p36
Vhttps://pbs.twimg.com/profile_background_images/378800000055022013/85a2061ecfeeb5fef01987fad06a75ef.jpeg
p37
sVverified
p38
I00
sVprofile_text_color
p39
V333333
p40
sVprofile_image_url_https
p41
g28
sVprofile_sidebar_fill_color
p42
g18
sVentities
p43
g22
sVfollowers_count
p44
I399
sVprofile_sidebar_border_color
p45
VFFFFFF
p46
sVid_str
p47
V409017659
p48
sVprofile_background_color
p49
V120C1C
p50
sVlisted_count
p51
I20
sVstatus
p52
(dp53
Vcontributors
p54
NsVtruncated
p55
I00
sVtext
p56
VRT @DonutShorts: NYC farebox rev down 11.1% y/y Jul-Oct, worst of the Uber era\u000ahttps://t.co/iMaddpvkyS $TAXI $CNOB $SBNY @hvmcapital https:\u2026
p57
sVin_reply_to_status_id
p58
Nsg35
L666336914887307265L
sVfavorite_count
p59
I0
sVsource
p60
V<a href="http://twitter.com" rel="nofollow">Twitter Web Client</a>
p61
sVretweeted
p62
I00
sVcoordinates
p63
Nsg43
(dp64
Vsymbols
p65
(lp66
(dp67
Vindices
p68
(lp69
I103
aI108
asg56
VTAXI
p70
sa(dp71
g68
(lp72
I109
aI114
asg56
VCNOB
p73
sa(dp74
g68
(lp75
I115
aI120
asg56
VSBNY
p76
sasVuser_mentions
p77
(lp78
(dp79
g35
L2803822165L
sg68
(lp80
I3
aI15
asg47
V2803822165
p81
sVscreen_name
p82
VDonutShorts
p83
sVname
p84
VDonut Shorts
p85
sa(dp86
g35
L3045630879L
sg68
(lp87
I121
aI132
asg47
V3045630879
p88
sg82
Vhvmcapital
p89
sg84
VHVM Capital
p90
sasVhashtags
p91
(lp92
sg25
(lp93
(dp94
Vurl
p95
Vhttps://t.co/iMaddpvkyS
p96
sg68
(lp97
I79
aI102
asVexpanded_url
p98
Vhttp://www.thestreet.com/story/13367110/1/new-york-city-taxi-revenue-accelerates-decline-in-uber-era.html
p99
sVdisplay_url
p100
Vthestreet.com/story/13367110\u2026
p101
sasVmedia
p102
(lp103
(dp104
Vsource_user_id
p105
L2803822165L
sVsource_status_id_str
p106
V666333836444348416
p107
sg98
Vhttp://twitter.com/DonutShorts/status/666333836444348416/photo/1
p108
sg100
Vpic.twitter.com/jT8iLlOjI1
p109
sg95
Vhttps://t.co/jT8iLlOjI1
p110
sVmedia_url_https
p111
Vhttps://pbs.twimg.com/media/CT9LF93WsAARhjL.jpg
p112
sVsource_user_id_str
p113
V2803822165
p114
sVsource_status_id
p115
L666333836444348416L
sg47
V666333835752288256
p116
sVsizes
p117
(dp118
Vlarge
p119
(dp120
Vh
p121
I516
sVresize
p122
Vfit
p123
sVw
p124
I620
ssVsmall
p125
(dp126
g121
I282
sg122
Vfit
p127
sg124
I340
ssVmedium
p128
(dp129
g121
I499
sg122
Vfit
p130
sg124
I600
ssVthumb
p131
(dp132
g121
I150
sg122
Vcrop
p133
sg124
I150
sssg68
(lp134
I139
aI140
asVtype
p135
Vphoto
p136
sg35
L666333835752288256L
sVmedia_url
p137
Vhttp://pbs.twimg.com/media/CT9LF93WsAARhjL.jpg
p138
sassVin_reply_to_screen_name
p139
Nsg47
V666336914887307265
p140
sVretweet_count
p141
I2
sVin_reply_to_user_id
p142
NsVfavorited
p143
I00
sVretweeted_status
p144
(dp145
g54
Nsg55
I00
sg56
VNYC farebox rev down 11.1% y/y Jul-Oct, worst of the Uber era\u000ahttps://t.co/iMaddpvkyS $TAXI $CNOB $SBNY @hvmcapital https://t.co/jT8iLlOjI1
p146
sg58
Nsg35
L666333836444348416L
sg59
I1
sg60
V<a href="http://twitter.com" rel="nofollow">Twitter Web Client</a>
p147
sg62
I00
sg63
Nsg43
(dp148
g65
(lp149
(dp150
g68
(lp151
I86
aI91
asg56
VTAXI
p152
sa(dp153
g68
(lp154
I92
aI97
asg56
VCNOB
p155
sa(dp156
g68
(lp157
I98
aI103
asg56
VSBNY
p158
sasg77
(lp159
(dp160
g35
L3045630879L
sg68
(lp161
I104
aI115
asg47
V3045630879
p162
sg82
Vhvmcapital
p163
sg84
VHVM Capital
p164
sasg91
(lp165
sg25
(lp166
(dp167
g95
Vhttps://t.co/iMaddpvkyS
p168
sg68
(lp169
I62
aI85
asg98
Vhttp://www.thestreet.com/story/13367110/1/new-york-city-taxi-revenue-accelerates-decline-in-uber-era.html
p170
sg100
Vthestreet.com/story/13367110\u2026
p171
sasg102
(lp172
(dp173
g98
Vhttp://twitter.com/DonutShorts/status/666333836444348416/photo/1
p174
sg100
Vpic.twitter.com/jT8iLlOjI1
p175
sg95
Vhttps://t.co/jT8iLlOjI1
p176
sg111
Vhttps://pbs.twimg.com/media/CT9LF93WsAARhjL.jpg
p177
sg47
V666333835752288256
p178
sg117
(dp179
g119
(dp180
g121
I516
sg122
Vfit
p181
sg124
I620
ssg125
(dp182
g121
I282
sg122
Vfit
p183
sg124
I340
ssg128
(dp184
g121
I499
sg122
Vfit
p185
sg124
I600
ssg131
(dp186
g121
I150
sg122
Vcrop
p187
sg124
I150
sssg68
(lp188
I116
aI139
asg135
Vphoto
p189
sg35
L666333835752288256L
sg137
Vhttp://pbs.twimg.com/media/CT9LF93WsAARhjL.jpg
p190
sassg139
Nsg47
V666333836444348416
p191
sg141
I2
sg142
Nsg143
I00
sVgeo
p192
NsVin_reply_to_user_id_str
p193
NsVpossibly_sensitive
p194
I00
sVlang
p195
Ven
p196
sVcreated_at
p197
VMon Nov 16 19:15:41 +0000 2015
p198
sVin_reply_to_status_id_str
p199
NsVplace
p200
Nssg192
Nsg193
Nsg194
I00
sg195
Ven
p201
sg197
VMon Nov 16 19:27:55 +0000 2015
p202
sg199
Nsg200
NssVis_translation_enabled
p203
I00
sVutc_offset
p204
I-18000
sVstatuses_count
p205
I2496
sg23
VThe views expressed on this account are my own and do not reflect the views of any company. Do your own DD.
p206
sVfriends_count
p207
I205
sVlocation
p208
V
p209
sVprofile_link_color
p210
V0084B4
p211
sVprofile_image_url
p212
Vhttp://pbs.twimg.com/profile_images/483585326670028801/v0sGALKV_normal.png
p213
sVfollowing
p214
NsVgeo_enabled
p215
I00
sVprofile_background_image_url
p216
Vhttp://pbs.twimg.com/profile_background_images/378800000055022013/85a2061ecfeeb5fef01987fad06a75ef.jpeg
p217
sg82
Vjwthn
p218
sg195
Ven
p219
sVprofile_background_tile
p220
I01
sVfavourites_count
p221
I885
sg84
VJordan Wathen
p222
sVnotifications
p223
Nsg95
Nsg197
VThu Nov 10 05:25:10 +0000 2011
p224
sVcontributors_enabled
p225
I00
sVtime_zone
p226
VEastern Time (US & Canada)
p227
sVprotected
p228
I00
sVdefault_profile
p229
I00
sVis_translator
p230
I00
ssS'contributors_enabled'
p231
I00
sS'profile_text_color'
p232
g40
sS'followers_count'
p233
I399
sS'profile_sidebar_border_color'
p234
g46
sS'id_str'
p235
g48
sS'default_profile_image'
p236
I00
sS'listed_count'
p237
I20
sS'status'
p238
g8
(ctweepy.models
Status
p239
g10
Ntp240
Rp241
(dp242
S'favorited'
p243
I00
sS'contributors'
p244
NsS'truncated'
p245
I00
sS'text'
p246
VRT @DonutShorts: NYC farebox rev down 11.1% y/y Jul-Oct, worst of the Uber era\u000ahttps://t.co/iMaddpvkyS $TAXI $CNOB $SBNY @hvmcapital https:\u2026
p247
sS'source_url'
p248
Vhttp://twitter.com
p249
sS'possibly_sensitive'
p250
I00
sS'in_reply_to_status_id'
p251
NsS'geo'
p252
Nsg19
L666336914887307265L
sS'favorite_count'
p253
I0
sS'lang'
p254
g201
sS'retweeted_status'
p255
g8
(g239
g10
Ntp256
Rp257
(dp258
g243
I00
sg244
Nsg245
I00
sg246
VNYC farebox rev down 11.1% y/y Jul-Oct, worst of the Uber era\u000ahttps://t.co/iMaddpvkyS $TAXI $CNOB $SBNY @hvmcapital https://t.co/jT8iLlOjI1
p259
sg248
Vhttp://twitter.com
p260
sg250
I00
sg251
Nsg252
Nsg19
L666333836444348416L
sg253
I1
sg254
g196
sg21
g148
sS'created_at'
p261
cdatetime
datetime
p262
(S'\x07\xdf\x0b\x10\x13\x0f)\x00\x00\x00'
p263
tp264
Rp265
sg29
g145
sS'coordinates'
p266
NsS'in_reply_to_user_id_str'
p267
NsS'source'
p268
VTwitter Web Client
p269
sS'in_reply_to_status_id_str'
p270
NsS'in_reply_to_screen_name'
p271
Nsg235
g191
sS'retweeted'
p272
I00
sS'place'
p273
NsS'retweet_count'
p274
I2
sS'in_reply_to_user_id'
p275
Nsbsg21
g64
sg261
g262
(S'\x07\xdf\x0b\x10\x13\x1b7\x00\x00\x00'
p276
tp277
Rp278
sg29
g53
sg266
Nsg267
Nsg268
VTwitter Web Client
p279
sg270
Nsg271
Nsg235
g140
sg272
I00
sg273
Nsg274
I2
sg275
NsbsS'is_translation_enabled'
p280
I00
sS'utc_offset'
p281
I-18000
sS'statuses_count'
p282
I2496
sS'description'
p283
g206
sS'friends_count'
p284
I205
sS'location'
p285
g209
sS'profile_link_color'
p286
g211
sS'profile_image_url'
p287
g213
sS'notifications'
p288
NsS'geo_enabled'
p289
I00
sS'profile_background_color'
p290
g50
sS'profile_background_image_url'
p291
g217
sS'screen_name'
p292
g218
sg254
g219
sg1
I00
sS'profile_background_tile'
p293
I01
sS'favourites_count'
p294
I885
sS'name'
p295
g222
sS'url'
p296
Nsg261
g262
(S'\x07\xdb\x0b\n\x05\x19\n\x00\x00\x00'
p297
tp298
Rp299
sS'profile_background_image_url_https'
p300
g37
sS'time_zone'
p301
g227
sS'protected'
p302
I00
sS'default_profile'
p303
I00
sS'is_translator'
p304
I00
sbs.