(dp0
S'following'
p1
(lp2
(lp3
I1300564945
aI1316984502
aI316457587
aI106837876
aI155033718
aI49813854
aI115754870
aI64643056
aI1132127155
aI111063398
aI1270533235
aI209653574
aI85584628
aI234148489
aI325364160
aI337853346
aI975185863
aI138560447
aL2548138436L
aI1129909226
aI15072071
aI18938646
aI26538229
aI512405794
aI15063486
aI29372407
aI1674451921
aI17469492
aI20094138
aI19338715
aI289384598
aI323019003
aI19344930
aI27226503
aI4805841
aI1196328007
aI287413569
aI12804862
aI564025768
aI56562803
aI957044036
aI603941707
aI112085932
aI206378828
aI249834807
aL3273250608L
aI117167427
aI624417120
aI221088088
aI361980867
aI133387034
aI1208010614
aI291824262
aI485874998
aI91458149
aI87979522
aI181168139
aI89805993
aI137561483
aI594026078
aI55304038
aI183976412
aI364282535
aI1652541
aI214138704
aI169098825
aI16000097
aI36090655
aI310382248
aI47693093
aI33556419
aI634470885
aI386108964
aI22157556
aI267764853
aI437789543
aI277507876
aI18194126
aI17000169
aI283047655
aL2900791006L
aI485996514
aL2232365010L
aI39613642
aI221867890
aI145945910
aI323259257
aI1635591025
aI456331203
aI397427506
aI67715156
aI626758199
aI481361073
aI1548392329
aI18452059
aI1173165432
aI122104299
aI1127626405
aI55257257
aI58053264
aI33358785
aI267423856
aI216756261
aI330522886
aI34714619
aI18856867
aL2637277193L
aI355598270
aL2884939922L
aI127967449
aI16663272
aI154669589
aI86582499
aI123607950
aI600599578
aI577361893
aI44196397
aI45401607
aI353751900
aI287699138
aL2721619373L
aL3227845834L
aI860879665
aI24579349
aI27674257
aI113869503
aI94568875
aI365992964
aI54277933
aI628423426
aI557485303
aI73703817
aI1631311214
aI1738697474
aI19059966
aL2986414395L
aI50395933
aI1187776388
aI229210300
aI372480530
aI484827296
aI356927068
aI1160280199
aI956372323
aI137159672
aI164791515
aI249807121
aI636247276
aI581113276
aI390214828
aI134569512
aI252692620
aI501922659
aL2824424612L
aI227707042
aI198019138
aI31112537
aL2484325873L
aI41270848
aI304571486
aI519694852
aI980992446
aI40534231
aI18524851
aI93295809
aasS'followers'
p4
(lp5
(lp6
L2466373656L
aI1316984502
aI316268049
aI1868735647
aL2821387060L
aI263219964
aI311654967
aI99147325
aI1423794644
aL2726345108L
aI39063407
aI450051862
aI361980867
aI1857869838
aL3884295673L
aI111063398
aL3867542712L
aI849748010
aL2722919119L
aL3273250608L
aI289384598
aL2548138436L
aL3445889777L
aL3710185695L
aL3485883796L
aL3271766593L
aL3017580097L
aL2898560489L
aI40534231
aL3301885998L
aL3530136557L
aI1160280199
aI512405794
aI87719951
aI25412106
aI15063486
aI91318162
aI29372407
aI4805841
aI971315328
aL3018809793L
aL3329562073L
aI1288711902
aI33271107
aI320524842
aL2673002813L
aL3402482392L
aL3199024834L
aL2341143283L
aI1308326208
aI79545857
aI957044036
aL3370434286L
aI1851586814
aI603941707
aI61808408
aI17010913
aI335335861
aI1769665736
aI1635591025
aL2741820234L
aI1127626405
aI1366900622
aL3120826990L
aL3130086361L
aI33358785
aI310382248
aI227707042
aI581113276
aI305060694
aL3254296568L
aL3181910916L
aL3374082303L
aL3349326273L
aI485996514
aI98754530
aI287699138
aL3300624185L
aI127967449
aI956372323
aL2884939922L
aI137159672
aL3227845834L
aL2484325873L
aI267794247
aL2338698260L
aL2721619373L
aI519694852
aL2901887256L
aI40455643
aI27244113
aI569516382
aI58962103
aasS'obj'
p7
ccopy_reg
_reconstructor
p8
(ctweepy.models
User
p9
c__builtin__
object
p10
Ntp11
Rp12
(dp13
S'follow_request_sent'
p14
I00
sS'has_extended_profile'
p15
I00
sS'profile_use_background_image'
p16
I01
sS'profile_sidebar_fill_color'
p17
V000000
p18
sS'id'
p19
I411800488
sS'verified'
p20
I00
sS'entities'
p21
(dp22
Vurl
p23
(dp24
Vurls
p25
(lp26
(dp27
g23
Vhttp://t.co/jhHoy2aIcX
p28
sVindices
p29
(lp30
I0
aI22
asVexpanded_url
p31
Vhttp://miningwealth.com
p32
sVdisplay_url
p33
Vminingwealth.com
p34
sassVdescription
p35
(dp36
g25
(lp37
sssS'profile_image_url_https'
p38
Vhttps://pbs.twimg.com/profile_images/616293724050468864/Tg0kv1S7_normal.png
p39
sS'_json'
p40
(dp41
Vfollow_request_sent
p42
I00
sVhas_extended_profile
p43
I00
sVprofile_use_background_image
p44
I01
sVdefault_profile_image
p45
I00
sVid
p46
I411800488
sVprofile_background_image_url_https
p47
Vhttps://abs.twimg.com/images/themes/theme1/bg.png
p48
sVverified
p49
I00
sVprofile_text_color
p50
V000000
p51
sVprofile_image_url_https
p52
g39
sVprofile_sidebar_fill_color
p53
g18
sVentities
p54
g22
sVfollowers_count
p55
I93
sVprofile_sidebar_border_color
p56
V000000
p57
sVid_str
p58
V411800488
p59
sVprofile_background_color
p60
VF5F6FA
p61
sVlisted_count
p62
I8
sVstatus
p63
(dp64
Vcontributors
p65
NsVtruncated
p66
I00
sVtext
p67
VUcore's pilot plant is huge, expensive! @ucore @Molycorp @TexasRareEarth @Investor_Intel  @MDLres  https://t.co/10biEtX9IO
p68
sVin_reply_to_status_id
p69
Nsg46
L666328787332673537L
sVfavorite_count
p70
I0
sVsource
p71
V<a href="http://twitter.com/download/iphone" rel="nofollow">Twitter for iPhone</a>
p72
sVretweeted
p73
I00
sVcoordinates
p74
Nsg54
(dp75
Vsymbols
p76
(lp77
sVuser_mentions
p78
(lp79
(dp80
g46
I229210300
sg29
(lp81
I40
aI46
asg58
V229210300
p82
sVscreen_name
p83
Vucore
p84
sVname
p85
VUcore Rare Metals
p86
sa(dp87
g46
I54277933
sg29
(lp88
I47
aI56
asg58
V54277933
p89
sg83
VMolycorp
p90
sg85
VMolycorp, Inc.
p91
sa(dp92
g46
I227707042
sg29
(lp93
I57
aI72
asg58
V227707042
p94
sg83
VTexasRareEarth
p95
sg85
VTexas Rare Earth
p96
sa(dp97
g46
I123915259
sg29
(lp98
I73
aI88
asg58
V123915259
p99
sg83
VInvestor_Intel
p100
sg85
VInvestorIntel
p101
sa(dp102
g46
I252692620
sg29
(lp103
I90
aI97
asg58
V252692620
p104
sg83
VMDLres
p105
sg85
VMedallion Resources
p106
sasVhashtags
p107
(lp108
sg25
(lp109
(dp110
g23
Vhttps://t.co/10biEtX9IO
p111
sg29
(lp112
I99
aI122
asg31
Vhttp://finance.yahoo.com/news/ucore-updates-superlig-r-1-142736671.html?.tsrc=applewf
p113
sg33
Vfinance.yahoo.com/news/ucore-upd\u2026
p114
sassVin_reply_to_screen_name
p115
Nsg58
V666328787332673537
p116
sVretweet_count
p117
I0
sVin_reply_to_user_id
p118
NsVfavorited
p119
I00
sVgeo
p120
NsVin_reply_to_user_id_str
p121
NsVpossibly_sensitive
p122
I00
sVlang
p123
Ven
p124
sVcreated_at
p125
VMon Nov 16 18:55:37 +0000 2015
p126
sVin_reply_to_status_id_str
p127
NsVplace
p128
NssVis_translation_enabled
p129
I00
sVutc_offset
p130
I-28800
sVstatuses_count
p131
I586
sg35
V
p132
sVfriends_count
p133
I165
sVlocation
p134
g132
sVprofile_link_color
p135
V8DC63F
p136
sVprofile_image_url
p137
Vhttp://pbs.twimg.com/profile_images/616293724050468864/Tg0kv1S7_normal.png
p138
sVfollowing
p139
I00
sVgeo_enabled
p140
I00
sVprofile_banner_url
p141
Vhttps://pbs.twimg.com/profile_banners/411800488/1435770991
p142
sVprofile_background_image_url
p143
Vhttp://abs.twimg.com/images/themes/theme1/bg.png
p144
sg83
VTheWealthMiner
p145
sg123
Ven
p146
sVprofile_background_tile
p147
I00
sVfavourites_count
p148
I67
sg85
VBen Kramer
p149
sVnotifications
p150
I00
sg23
Vhttp://t.co/jhHoy2aIcX
p151
sg125
VSun Nov 13 22:08:45 +0000 2011
p152
sVcontributors_enabled
p153
I00
sVtime_zone
p154
VPacific Time (US & Canada)
p155
sVprotected
p156
I00
sVdefault_profile
p157
I00
sVis_translator
p158
I00
ssS'contributors_enabled'
p159
I00
sS'profile_text_color'
p160
g51
sS'followers_count'
p161
I93
sS'profile_sidebar_border_color'
p162
g57
sS'id_str'
p163
g59
sS'default_profile_image'
p164
I00
sS'listed_count'
p165
I8
sS'status'
p166
g8
(ctweepy.models
Status
p167
g10
Ntp168
Rp169
(dp170
S'favorited'
p171
I00
sS'contributors'
p172
NsS'truncated'
p173
I00
sS'text'
p174
g68
sS'source_url'
p175
Vhttp://twitter.com/download/iphone
p176
sS'possibly_sensitive'
p177
I00
sS'in_reply_to_status_id'
p178
NsS'geo'
p179
Nsg19
L666328787332673537L
sS'favorite_count'
p180
I0
sS'lang'
p181
g124
sg21
g75
sS'created_at'
p182
cdatetime
datetime
p183
(S'\x07\xdf\x0b\x10\x127%\x00\x00\x00'
p184
tp185
Rp186
sg40
g64
sS'coordinates'
p187
NsS'in_reply_to_user_id_str'
p188
NsS'source'
p189
VTwitter for iPhone
p190
sS'in_reply_to_status_id_str'
p191
NsS'in_reply_to_screen_name'
p192
Nsg163
g116
sS'retweeted'
p193
I00
sS'place'
p194
NsS'retweet_count'
p195
I0
sS'in_reply_to_user_id'
p196
NsbsS'is_translation_enabled'
p197
I00
sS'utc_offset'
p198
I-28800
sS'statuses_count'
p199
I586
sS'description'
p200
g132
sS'friends_count'
p201
I165
sS'location'
p202
g132
sS'profile_link_color'
p203
g136
sS'profile_image_url'
p204
g138
sS'notifications'
p205
I00
sS'geo_enabled'
p206
I00
sS'profile_background_color'
p207
g61
sS'profile_banner_url'
p208
g142
sS'profile_background_image_url'
p209
g144
sS'screen_name'
p210
g145
sg181
g146
sg1
I00
sS'profile_background_tile'
p211
I00
sS'favourites_count'
p212
I67
sS'name'
p213
g149
sS'url'
p214
g151
sg182
g183
(S'\x07\xdb\x0b\r\x16\x08-\x00\x00\x00'
p215
tp216
Rp217
sS'profile_background_image_url_https'
p218
g48
sS'time_zone'
p219
g155
sS'protected'
p220
I00
sS'default_profile'
p221
I00
sS'is_translator'
p222
I00
sbs.