(dp0
S'following'
p1
(lp2
(lp3
I49663664
aI222153018
aI19732644
aI404829420
aI22042797
aI34650193
aI1547430696
aL2286097290L
aI23368614
aI25882361
aI170428232
aL2473493376L
aI428653913
aI152634265
aL2493331801L
aI7517052
aI131101374
aL2562779562L
aI278975121
aI250758475
aI27922928
aI29854129
aI198422025
aL3142921586L
aI949976822
aL3289966113L
aI166597717
aI33342927
aI878385756
aL2992695580L
aL2294728376L
aI571172086
aL2981421573L
aI230194530
aL3128522824L
aL2937436447L
aI380517563
aI1567870381
aL2666757324L
aI285738285
aL2566340030L
aI29501977
aI31546412
aI84365116
aI68833497
aI785935140
aI27162339
aI403855355
aI983655260
aI39264827
aI14292717
aL3184637045L
aI271211220
aI470878108
aI110793585
aI81083473
aI36221607
aI23074277
aI154016102
aI73951647
aI27652717
aI100592354
aI93159806
aI84655479
aL3073054155L
aI122225052
aI241502518
aI19079480
aI17108251
aI17428473
aI224466293
aI264370502
aI57441903
aI46680168
aI59677940
aI20665040
aI29888058
aI17049899
aI76276558
aI79710995
aI18323489
aI29708582
aI39050208
aI33973843
aI21277169
aI46633066
aI126717954
aI22264891
aI19651092
aI177585732
aI39294671
aI42454520
aL3165625278L
aI252300935
aI367235898
aI788333744
aI123290555
aI297977320
aL2517112130L
aI761886852
aI48218522
aI28022257
aI8523822
aI299900985
aI345971761
aL2488386728L
aL3146648621L
aI594080668
aI112696718
aI550663732
aL2584747452L
aI21787625
aI28987332
aI134234000
aI17019152
aI35727881
aI18625669
aI49573859
aI23976386
aI1118307878
aI35224440
aL2721419676L
aI1528201992
aI493804255
aI30359797
aI17780244
aL3062135689L
aI1279746739
aI214433021
aI30308557
aI276817112
aI375481345
aI125854580
aI22256645
aI15588657
aI20609518
aI17266725
aI15492359
aI1691181
aL3152800648L
aI839896928
aI108724358
aI78109350
aI230989430
aI50393960
aI198975780
aI19923144
aI30973
aI813286
aI82142636
aI302545862
aL2334614718L
aI136842204
aI28489821
aI1499852552
aI53215424
aL2259177605L
aI32437966
aI46729539
aI62905954
aI311053470
aL2466381240L
aI47586577
aI545618159
aI430841130
aI61342056
aI475524030
aL2383861202L
aI1132377396
aI608984665
aI1697850385
aI922423794
aL2830319046L
aI28072911
aI547312188
aL2657312282L
aI1670698730
aI36293963
aI28055624
aI37644878
aI208821174
aL2794891583L
aI36209643
aI155091706
aI84659355
aL2407090081L
aI1557751686
aI924300294
aI487089304
aL2922115476L
aI17236302
aL2722167346L
aL2924431226L
aI125187717
aI463499893
aI249200458
aI294022887
aL2936273911L
aI15224743
aI230517296
aL2882666339L
aI1170603042
aI1389493454
aL2172667923L
aL2366235115L
aI1345672002
aL2838025403L
aI353112583
aI487168268
aL2609121098L
aL3101627200L
aI1286540352
aL2484300788L
aI43214991
aI400364870
aL3119308631L
aI119799182
aL2829448048L
aI1696907700
aI383803243
aL3012591177L
aI253780371
aL2975288998L
aI797149178
aI963114896
aI303531344
aI208751220
aI961860907
aI1289738107
aI20275809
aL2346124812L
aL2383103132L
aI282783570
aI102273167
aI819694076
aL3238786319L
aI158965213
aI16483885
aI370733496
aI241217879
aL3184804580L
aL3244275257L
aI222134670
aL2992414321L
aI465354485
aI1529271854
aI399111305
aI16740715
aL3194173092L
aI361196291
aI1635581
aL2619566014L
aI22255654
aI20551702
aI14260608
aI14090418
aI9810192
aI5768872
aI1724401
aI25206461
aI17578470
aI16262391
aI15744118
aI15507144
aI14600116
aI10697882
aI12217
aI20
aI17801805
aI16461706
aI1717291
aI17784293
aI5968272
aI756129
aI16248319
aI5252591
aI14749070
aI26551204
aI3725701
aI40972132
aI14886375
aI29856819
aI15110357
aI16896485
aI5120691
aI20402945
aI25053299
aI621523
aI34197952
aI8161232
aI91478624
aI4898091
aI247857712
aI21394549
aI16451485
aI5831802
aI14098332
aI16271629
aI262763182
aI5768632
aI27990259
aI377714371
aI254207829
aI40099128
aI27828974
aI72907355
aI54619566
aI144876165
aI59853587
aI81157050
aI138404716
aI96682182
aI23390520
aI39085071
aI15971805
aI34837057
aI38053161
aI15130891
aI17549691
aL2481341197L
aI14250809
aI16359602
aI19739279
aI25827743
aI47087332
aI16228398
aI17790265
aI65681636
aI18560146
aI624413
aI203652149
aI18378349
aI52166809
aI15568127
aI15281391
aI14216123
aI455824771
aasS'followers'
p4
(lp5
(lp6
I634104898
aI256020248
aI86974856
aI53210455
aL3983557158L
aL3438034504L
aL2964459628L
aL3420842229L
aI247789316
aL3129099890L
aI1908146466
aI26141573
aI53912253
aI46691793
aI54418467
aL4086878235L
aL3405443625L
aL3947413216L
aI300769892
aL3391134549L
aL4043566468L
aI921730896
aL3395170581L
aL3184725019L
aI16835187
aI395124568
aL3928323495L
aL2874052606L
aL3379280433L
aL3184654566L
aL2683677198L
aL2159322464L
aL3763030214L
aL3753864012L
aL2445064535L
aL3690260420L
aI15159503
aI35784526
aI141453630
aI1611593304
aI45888842
aL3669843615L
aL2794397342L
aL3476901613L
aI502123506
aI1608442351
aI31927893
aI292479830
aI724661646
aI778991412
aL3318068167L
aI1581751332
aI1006888675
aL3220045713L
aL3416160975L
aI563542799
aI64188310
aI1730623327
aL3057886001L
aL3349441653L
aI861564194
aL3214967082L
aL2463463452L
aI76730512
aI764723516
aL2771664892L
aL2424218279L
aI218616503
aI1640681918
aI119477806
aI52263996
aI311769744
aL2359918926L
aI1077816180
aI1648456634
aI110733652
aL3397142387L
aL3206090698L
aL3298081650L
aL2937163504L
aL3245388668L
aI258677746
aI1530916794
aL2959065475L
aL3280455104L
aI452562463
aL2988742673L
aI421553136
aI228539878
aL3379571009L
aL2578820839L
aL3077673902L
aI16032378
aI540248372
aI971129101
aI29007672
aL3345802384L
aL3258360944L
aL3259902001L
aI18587683
aL2740945858L
aL2154598213L
aI31563005
aI188068145
aI371485727
aL3245327761L
aL3141677299L
aL2845776194L
aL3328835968L
aI364390350
aL2316727016L
aI1715105173
aL2930422354L
aI215803776
aI1279746739
aL2319582618L
aI342985543
aI224459010
aI52969587
aI132861356
aL3239354876L
aL3039814856L
aI174702068
aI63969804
aI102910671
aI171400813
aI543602693
aI31662943
aL3233336820L
aL2921163544L
aI944749620
aL2249751139L
aI136319486
aL3192919122L
aI566013136
aI1638851473
aI907346244
aL3156974425L
aL2619566014L
aL2562779562L
aL3065060260L
aL2174496253L
aL2863728680L
aI881245190
aI18381004
aI164696746
aI361765577
aL2266136726L
aL2855145099L
aL3198054315L
aL2620875659L
aI977782442
aL3293961142L
aI632464676
aI296253096
aL2801280973L
aI1326074076
aL2807263266L
aL3295264960L
aI917788064
aL3185918196L
aI23368614
aI499973782
aI91114089
aI211316225
aI1884107546
aL3195423205L
aI600580896
aI23390520
aI16548435
aL2493331801L
aI228560154
aI636533024
aI131101374
aI278975121
aI1408168609
aI12728672
aI92342279
aL2295731515L
aL2290394114L
aI108724358
aL2291658427L
aL3289966113L
aL3142921586L
aI396753215
aI33342927
aL3247019787L
aL3290376081L
aL3184637045L
aL3068956190L
aI465819176
aI571172086
aL2981421573L
aL2992695580L
aI380517563
aI214433021
aL3128522824L
aL2347544035L
aL3146648621L
aI616371649
aI345971761
aL3285140931L
aL2488386728L
aL3206415436L
aI42454520
aL2517112130L
aL3288823025L
aI28022257
aI123290555
aI367235898
aI299900985
aI761886852
aL3165625278L
aI8523822
aL2522505554L
aI839896928
aL3152800648L
aI1631621070
aI597799971
aI381490739
aI453179318
aI319657086
aL2154081344L
aL3188571541L
aI215827525
aL2584747452L
aI1118307878
aL2227575534L
aL2721419676L
aI1528201992
aI197105257
aL2983437791L
aI35224440
aL2824084457L
aI513923065
aI301704024
aI18683073
aI174135877
aI230989430
aI45167431
aI16462209
aI28489821
aI46729539
aL2341525668L
aL2258136452L
aI65681636
aL2466381240L
aI148243590
aI361196291
aI16740715
aL3194173092L
aI399111305
aL3037033974L
aI1529271854
aL2992414321L
aI465354485
aI70806831
aL3191638836L
aL3070217556L
aI342156110
aI222134670
aL3184804580L
aI241217879
aI294293035
aI158965213
aI16483885
aI370733496
aL3238786319L
aI249200458
aL2383103132L
aI282783570
aI102273167
aI303531344
aI208751220
aI961860907
aI963114896
aI797149178
aL2975288998L
aI383803243
aL3012591177L
aI253780371
aL2275230932L
aI1696907700
aL2829448048L
aI400364870
aL3119308631L
aI119799182
aI43214991
aL2484300788L
aI1286540352
aL2609121098L
aL3101627200L
aI487168268
aI353112583
aL2838025403L
aI35922675
aI503884863
aI1345672002
aL2989418722L
aI24452481
aL2965242117L
aI32551786
aI59143641
aI39570187
aI54868945
aL3024463172L
aI1972012520
aL2994422057L
aI59339728
aL3024172402L
aL3012386288L
aI1664807874
aI611817117
aL2982013384L
aL2831947267L
aI20385337
aL2335833378L
aI41037188
aL2887480798L
aI1560282486
aL2747954020L
aL2961171227L
aI23400557
aI528895471
aI43554881
aI747357996
aI846779454
aI222153018
aL2366235115L
aL2172667923L
aI109168265
aL2367636398L
aI1389493454
aI1262450942
aL2327474569L
aI768205358
aL2963927937L
aL2930500861L
aL2932711177L
aL2581142510L
aI836970397
aI1170603042
aI84766146
aI239572001
aL2882666339L
aI230517296
aL2944674522L
aI229677708
aI15224743
aL2936273911L
aI294022887
aL2283796038L
aL2934976144L
aI420552100
aL2934253866L
aI463499893
aI125187717
aI17236302
aL2722167346L
aL2924431226L
aL2922115476L
aL2930210701L
aI487089304
aL2407090081L
aI1557751686
aI84659355
aI155091706
aI36209643
aI493804255
aI68511813
aL2794891583L
aI90946903
aI366856552
aL2786759892L
aL2150632133L
aI114942055
aI18515878
aI125770006
aI1314005341
aI37644878
aI208821174
aI28055624
aL2481341197L
aI36293963
aI15439229
aI71695598
aI1032276320
aI1670698730
aL2657312282L
aI547312188
aL2830319046L
aI36789143
aI28072911
aI922423794
aI1697850385
aI608984665
aI24732019
aI1854747224
aI53749754
aL2383861202L
aI1132377396
aI160758494
aI149297036
aL2822734422L
aI19218858
aI68689464
aI267815011
aL2723922536L
aI1633729740
aI1894653319
aI472119247
aI232787378
aI60848970
aI1104400440
aL2567348113L
aI15294349
aL2300562162L
aL2161566596L
aI264347744
aI149329007
aI82430861
aI93458341
aL2251635536L
aI1241963102
aI183891134
aI103709113
aI1226575850
aL2763657692L
aI56697237
aI595539415
aI113075102
aI798733094
aI536090640
aI306606550
aI179479097
aI47472429
aI509399824
aI606321838
aI110428999
aL2309034115L
aI1195799390
aI995470718
aI47602066
aL2777392879L
aI23408355
aL2371129896L
aL2773922455L
aI19565763
aL2170233621L
aI297133095
aI302273348
aI199762872
aI278639186
aI42770206
aI500242318
aI244702210
aL2546724938L
aI432535561
aL2334665523L
aL2151443198L
aI490714432
aI1327618064
aI623312681
aI218229086
aI42962298
aI20274912
aI234744359
aI303566541
aI946900020
aI1408210586
aI1905530630
aL2465261384L
aI40646221
aI222681600
aI263998646
aL2174713091L
aI107315153
aI340037225
aI69861855
aI514099301
aI420106088
aI59621777
aI150888024
aL2305952286L
aL2414285460L
aI551952665
aL2565760134L
aL2679187031L
aL2608304072L
aL2600024990L
aL2545966472L
aI246001067
aI725577499
aL2592390284L
aL2420565433L
aI73274272
aI1179487964
aI60233197
aI244596846
aI461556931
aI65089025
aI1246273074
aI1004987252
aI317976403
aL2403160034L
aL2557574066L
aL2433729504L
aI149162244
aL2449542794L
aI1612027483
aI122464190
aI536892398
aI987374887
aI43218100
aL2324724422L
aI322604043
aI39550152
aL2546486780L
aI142134602
aI455765779
aI176544261
aI173857875
aI93913891
aI23062602
aI495382967
aL2175816453L
aI315841211
aI1009173906
aI383421935
aI33028184
aI18039418
aL2393259019L
aL2237072323L
aI18089738
aL2470986216L
aI872956878
aI1167632820
aL2468435382L
aI1168744994
aI825901074
aI322172123
aI525628532
aL2460611124L
aI35596278
aI276089088
aI164565322
aL2453210005L
aI39590173
aI360633713
aI1857936109
aL2427874238L
aI260452688
aL2424650046L
aL2416788026L
aL2419556311L
aL2442105532L
aI608678288
aI717640623
aL2374172425L
aL2412884298L
aI352710810
aI545516558
aL2410990740L
aI14676138
aL2344531388L
aI1589067948
aI615205819
aL2409150423L
aI113621061
aI47757340
aI1263280003
aI367937662
aI16431116
aI14362370
aI1944518827
aI161177528
aI548902156
aI139520776
aI22641505
aI41606196
aI1143851010
aI262439039
aI32530169
aI55387389
aI37548400
aI1583887908
aI553258818
aL2300628026L
aI147835345
aI1060254799
aI160798961
aI63915255
aL2353353226L
aI701037970
aI1663013922
aL2149752678L
aI29157032
aI216568195
aI946308601
aI215004987
aI24788866
aI39242763
aL2335721140L
aI63006284
aI1656469730
aI887503700
aI1471420998
aI900577399
aI98560220
aI221080504
aI307532505
aI1428866749
aI243424418
aI40300931
aI546435279
aI224753238
aI618228289
aI19779144
aL2324066406L
aI351658542
aI1935969883
aI16857735
aI53580253
aI15098137
aI1647883590
aI202618004
aI17846232
aL2309491010L
aI191596017
aI229934704
aL2299158898L
aI229459201
aI239306553
aI628635025
aL2295728555L
aL2300358949L
aL2295299276L
aI404196012
aI636825671
aI150688218
aI1139936731
aI870204384
aI102212551
aI15717762
aL2278947788L
aL2172202791L
aI1292475114
aI621053575
aI1710459800
aI73717954
aI1134224167
aL2159995795L
aI34578922
aI62183490
aI494972402
aI491737853
aI18172068
aI979646064
aL2158991294L
aI126731503
aI37340004
aI247834920
aI181724637
aI337730822
aI19067959
aL2275011600L
aI1355043804
aL2277921451L
aI26823787
aI1707702480
aI429874309
aI178944565
aI1957737757
aL2180253732L
aL2259177605L
aL2270644075L
aI55267104
aI388194461
aI228495352
aI272713117
aL2247809551L
aI108772968
aI158244478
aL2186207556L
aL2238432169L
aI247449754
aL2238240039L
aI1596786836
aI248648091
aI1383391782
aI365212839
aI368956386
aI1177147178
aL2154453597L
aI216885121
aI195885303
aI1924731618
aI904325767
aI75140843
aL2209154691L
aI573224081
aI408082141
aI27331112
aL2245838412L
aI467123916
aI1727611316
aI22450993
aI1711545408
aI1352398908
aI73223397
aI537442469
aL2233713018L
aI1376233632
aI113805475
aL2153360666L
aI1854233083
aI344761835
aI112804051
aI66618173
aI1075911079
aL2230597321L
aI291965445
aI37478790
aI587569606
aI414904961
aI28353915
aI1131909030
aI19739279
aL2224918477L
aI1012002762
aI1317807865
aI183337800
aI18610847
aI586839054
aI1277004986
aI204319668
aI18215417
aI1448029112
aL2154117756L
aI43950136
aI436248154
aI281830434
aL2159288396L
aI281441067
aI1858856527
aL2184599918L
aI873533648
aL2186398309L
aL2155201019L
aI24839840
aI320512742
aI232665271
aI28635899
aI995421186
aI323590815
aI57568759
aI511970896
aI34481131
aI173148760
aI1117868658
aL2172367447L
aI875733744
aI169205668
aI29394765
aI131990331
aL2158947115L
aI1880340950
aI377424245
aI473517830
aI17378480
aI236432925
aL2151886287L
aI369033073
aI602123182
aI235946395
aI1833293616
aI199888740
aL2162002177L
aI357617833
aI411945161
aI6459
aI594685195
aI38008093
aI16602464
aI494419233
aI1135602049
aI720476374
aI237969452
aI246353302
aI107620316
aI1051507094
aI1379799276
aI857095219
aI382981093
aI458602870
aI35826330
aI1085476476
aI1638387686
aI28277905
aI542914064
aI382438642
aI1244299537
aI1031436283
aI11686922
aI244310858
aI144284700
aI636540777
aI1002909236
aI428591339
aI175004773
aI289719606
aI24223507
aI543054262
aI425246531
aI600308717
aI585934344
aI580919195
aI1927375218
aI336280066
aI185114602
aI1918421592
aI887742882
aI161989724
aI105546783
aI1452499015
aI280220535
aI1924225952
aI153506628
aI144105155
aI825286027
aI513460868
aI21430460
aI1897590733
aI259471751
aI43537226
aI22707237
aI628047761
aI540031297
aI242532498
aI11419742
aI222507714
aI186821338
aI703326025
aI1036786248
aI177949299
aI404275636
aI15456556
aI14629171
aI971737734
aI904968246
aI1475988331
aI385112096
aI516314783
aI202470965
aI1264531285
aI216888388
aI18682080
aI505048611
aI244305981
aI83449798
aI486772650
aI1238807382
aI1708109809
aI34382258
aI25542337
aI1657806883
aI311154958
aI16536516
aI323041138
aI209529286
aI37820054
aI1442418726
aI48132502
aI1289742170
aI105003229
aI176252896
aI619645224
aI88289966
aI788960198
aI11413382
aI721383318
aI329787485
aI14951510
aI47719793
aI587905276
aI375541220
aI521721432
aI299398022
aI460749035
aI494322672
aI35571801
aI527018393
aI496617971
aI407205792
aI527211018
aI52288216
aI517708486
aI322419798
aI266444487
aI338890045
aI20062925
aI19732644
aI213752101
aI287977991
aI117210045
aI15893707
aI10670632
aI238932123
aI238933281
aI135092336
aI176868970
aI57376542
aI146703852
aI118374262
aI95551208
aI16252467
aI43182147
aI14886375
aI65522933
aI19172490
aI32280447
aI53750828
aI27328911
aI64667428
aasS'obj'
p7
ccopy_reg
_reconstructor
p8
(ctweepy.models
User
p9
c__builtin__
object
p10
Ntp11
Rp12
(dp13
S'follow_request_sent'
p14
I00
sS'has_extended_profile'
p15
I00
sS'profile_use_background_image'
p16
I01
sS'profile_sidebar_fill_color'
p17
VDDEEF6
p18
sS'id'
p19
I41753918
sS'verified'
p20
I00
sS'entities'
p21
(dp22
Vurl
p23
(dp24
Vurls
p25
(lp26
(dp27
g23
Vhttp://t.co/ajg5YvfVLB
p28
sVindices
p29
(lp30
I0
aI22
asVexpanded_url
p31
Vhttp://us19.chatzy.com/financialtraderchat
p32
sVdisplay_url
p33
Vus19.chatzy.com/financialtrade\u2026
p34
sassVdescription
p35
(dp36
g25
(lp37
sssS'profile_image_url_https'
p38
Vhttps://pbs.twimg.com/profile_images/611573430354231296/BEUgfTMp_normal.jpg
p39
sS'_json'
p40
(dp41
Vfollow_request_sent
p42
I00
sVhas_extended_profile
p43
I00
sVprofile_use_background_image
p44
I01
sVdefault_profile_image
p45
I00
sVid
p46
I41753918
sVprofile_background_image_url_https
p47
Vhttps://abs.twimg.com/images/themes/theme1/bg.png
p48
sVverified
p49
I00
sVprofile_text_color
p50
V333333
p51
sVprofile_image_url_https
p52
g39
sVprofile_sidebar_fill_color
p53
g18
sVentities
p54
g22
sVfollowers_count
p55
I924
sVprofile_sidebar_border_color
p56
VC0DEED
p57
sVid_str
p58
V41753918
p59
sVprofile_background_color
p60
VC0DEED
p61
sVlisted_count
p62
I55
sVstatus
p63
(dp64
Vlang
p65
Ven
p66
sVfavorited
p67
I00
sg54
(dp68
Vsymbols
p69
(lp70
(dp71
g29
(lp72
I0
aI4
asVtext
p73
VQQQ
p74
sasVuser_mentions
p75
(lp76
sVhashtags
p77
(lp78
sg25
(lp79
ssVcontributors
p80
NsVtruncated
p81
I00
sg73
V$QQQ very nice 50ema technical bounce today
p82
sVcreated_at
p83
VMon Nov 16 22:13:29 +0000 2015
p84
sVretweeted
p85
I00
sVin_reply_to_status_id_str
p86
NsVcoordinates
p87
NsVin_reply_to_user_id_str
p88
NsVsource
p89
V<a href="http://stocktwits.com" rel="nofollow">StockTwits Web</a>
p90
sVin_reply_to_status_id
p91
NsVin_reply_to_screen_name
p92
Nsg58
V666378583137370112
p93
sVplace
p94
NsVretweet_count
p95
I0
sVgeo
p96
Nsg46
L666378583137370112L
sVfavorite_count
p97
I0
sVin_reply_to_user_id
p98
NssVis_translation_enabled
p99
I00
sVutc_offset
p100
I-21600
sVstatuses_count
p101
I17767
sg35
VYour mind is your biggest asset. Confidence is your best friend. Armed with both you can print money in the markets.
p102
sVfriends_count
p103
I337
sVlocation
p104
VUSA
p105
sVprofile_link_color
p106
V0084B4
p107
sVprofile_image_url
p108
Vhttp://pbs.twimg.com/profile_images/611573430354231296/BEUgfTMp_normal.jpg
p109
sVfollowing
p110
I00
sVgeo_enabled
p111
I00
sVprofile_banner_url
p112
Vhttps://pbs.twimg.com/profile_banners/41753918/1431876456
p113
sVprofile_background_image_url
p114
Vhttp://abs.twimg.com/images/themes/theme1/bg.png
p115
sVscreen_name
p116
Vfinancialtrader
p117
sg65
Ven
p118
sVprofile_background_tile
p119
I00
sVfavourites_count
p120
I21
sVname
p121
VFinancialTrader
p122
sVnotifications
p123
I00
sg23
Vhttp://t.co/ajg5YvfVLB
p124
sg83
VFri May 22 04:37:28 +0000 2009
p125
sVcontributors_enabled
p126
I00
sVtime_zone
p127
VCentral Time (US & Canada)
p128
sVprotected
p129
I00
sVdefault_profile
p130
I01
sVis_translator
p131
I00
ssS'contributors_enabled'
p132
I00
sS'profile_text_color'
p133
g51
sS'followers_count'
p134
I924
sS'profile_sidebar_border_color'
p135
g57
sS'id_str'
p136
g59
sS'default_profile_image'
p137
I00
sS'listed_count'
p138
I55
sS'status'
p139
g8
(ctweepy.models
Status
p140
g10
Ntp141
Rp142
(dp143
S'favorited'
p144
I00
sS'contributors'
p145
NsS'truncated'
p146
I00
sS'text'
p147
g82
sS'source_url'
p148
Vhttp://stocktwits.com
p149
sS'in_reply_to_status_id'
p150
NsS'geo'
p151
Nsg19
L666378583137370112L
sS'favorite_count'
p152
I0
sS'lang'
p153
g66
sg21
g68
sS'created_at'
p154
cdatetime
datetime
p155
(S'\x07\xdf\x0b\x10\x16\r\x1d\x00\x00\x00'
p156
tp157
Rp158
sg40
g64
sS'coordinates'
p159
NsS'in_reply_to_user_id_str'
p160
NsS'source'
p161
VStockTwits Web
p162
sS'in_reply_to_status_id_str'
p163
NsS'in_reply_to_screen_name'
p164
Nsg136
g93
sS'retweeted'
p165
I00
sS'place'
p166
NsS'retweet_count'
p167
I0
sS'in_reply_to_user_id'
p168
NsbsS'is_translation_enabled'
p169
I00
sS'utc_offset'
p170
I-21600
sS'statuses_count'
p171
I17767
sS'description'
p172
g102
sS'friends_count'
p173
I337
sS'location'
p174
g105
sS'profile_link_color'
p175
g107
sS'profile_image_url'
p176
g109
sS'notifications'
p177
I00
sS'geo_enabled'
p178
I00
sS'profile_background_color'
p179
g61
sS'profile_banner_url'
p180
g113
sS'profile_background_image_url'
p181
g115
sS'screen_name'
p182
g117
sg153
g118
sg1
I00
sS'profile_background_tile'
p183
I00
sS'favourites_count'
p184
I21
sS'name'
p185
g122
sS'url'
p186
g124
sg154
g155
(S'\x07\xd9\x05\x16\x04%\x1c\x00\x00\x00'
p187
tp188
Rp189
sS'profile_background_image_url_https'
p190
g48
sS'time_zone'
p191
g128
sS'protected'
p192
I00
sS'default_profile'
p193
I01
sS'is_translator'
p194
I00
sbs.