(dp0
S'following'
p1
(lp2
(lp3
I133178410
aL2320795783L
aI1214785736
aL2788398967L
aI110539278
aI27801361
aI7993232
aI1948015062
aI25762392
aI283102442
aL2422191284L
aL2301734311L
aL2561710956L
aI38197397
aI338521549
aI37469211
aL2835276183L
aI18646108
aI103550181
aI27759798
aI852247602
aI39264827
aI155541003
aI292777349
aI18856867
aI196820948
aI106181394
aI391815569
aI281610530
aI19400611
aI138848141
aI151852884
aI15800081
aI377714371
aI40300931
aI1374663338
aI1908766783
aI49519788
aI487269903
aI192533447
aI23390520
aI16319797
aI229861081
aI18481050
aI482488649
aI279098520
aI259059584
aI331969440
aI455309376
aI178028834
aI515662394
aI455773247
aI15648660
aI1090358641
aL2240985324L
aI106456933
aI1016272682
aI121820614
aI1630682036
aI636441598
aI208155240
aI26705006
aI317437245
aI106498703
aI1219301940
aI14216123
aI780517974
aI1457943090
aI9507322
aI17139109
aI108657905
aI320365482
aI1307445236
aI1126189962
aI989088871
aI607532523
aI16297481
aI1674653173
aI1686393126
aI289556231
aI1526137868
aI320385432
aI357785117
aI36293963
aI1633051956
aI247449754
aI963181812
aI1093261778
aI498853341
aI552134921
aI276911103
aI29628277
aI436248154
aI50764888
aI43950136
aI9681052
aI985943988
aI172836249
aI32570672
aI22522178
aI33615152
aI59578815
aI389269230
aI306287543
aI122791246
aI287497021
aI1314139800
aI106725205
aI102819479
aI159155016
aI36110149
aI1534167900
aI138404716
aI15431856
aI36782237
aI26208862
aI16411666
aI192759988
aI34743251
aI45055696
aI39922782
aI106246985
aI25073877
aI72907355
aI19143910
aI296427730
aI254207829
aI107114063
aI95749490
aI20108560
aI19722699
aI816653
aI11518842
aI783214
aL2190588800L
aI1858823539
aI62515374
aI178939490
aI40099128
aI37918984
aI775319148
aI21375592
aI819069871
aI237743174
aI26636078
aI556921214
aI17842366
aI261467074
aI1164649520
aI446917744
aI84964090
aI1923837649
aI17616049
aI41705068
aI38613491
aI1665476762
aI49637104
aI1958752610
aI1879821056
aI240685830
aI419727770
aI550623954
aI342854746
aI1559356620
aI1499050572
aI1522011848
aI6459
aI1193298518
aI397319009
aI618647107
aI529192106
aI82214420
aI346782326
aI10257092
aI222177693
aI16732770
aI263197731
aI23059499
aI14292717
aI14115408
aI70761442
aI50769002
aI427154396
aI37831315
aI36723629
aI117886292
aI191575604
aI360014692
aI403694719
aI371251189
aI14886375
aI624413
aI15568127
aI20402945
aI103457965
aI38074970
aI16513082
aI15921229
aI386130772
aI1652541
aI20017714
aasS'followers'
p4
(lp5
(lp6
I453210489
aI39051892
aL3304015033L
aL2383505065L
aL3064230009L
aI37564818
aI19103794
aL3946770635L
aI56585905
aI34858521
aI1393529635
aI1341452822
aL3236626923L
aL3976287207L
aI23991451
aL3065771958L
aL3084880359L
aL3793665389L
aL2341525668L
aL3308250273L
aL3328018634L
aL2817468704L
aI130073824
aL2820674952L
aL3044084388L
aI789607381
aI291373794
aL3146116360L
aL3298319064L
aI1108898803
aL3241888604L
aL3233697104L
aI1670278124
aI964641726
aL2330801192L
aI40465510
aI76421187
aL3079099332L
aI95234050
aI404862157
aL2320795783L
aI25001616
aL3242429108L
aI43016828
aI1548984246
aI553834430
aL2729901715L
aI556102917
aI211691778
aI102797593
aL2431112274L
aI17987417
aI1654035020
aI463513623
aL3158172703L
aI977782442
aL2891053657L
aI1442392237
aL3292909683L
aI1162144112
aI315097447
aI265875890
aI611817117
aI1809913831
aL3185230166L
aI492248877
aL2686353036L
aI792223669
aI1640749813
aI804097207
aL2773591949L
aL2666770634L
aL2509577877L
aI875286644
aI303531344
aI170037226
aL2997788563L
aL3142420061L
aI1529380254
aL2416604011L
aL3115297716L
aL3042432817L
aI91524039
aI232087439
aL2989418722L
aI25762392
aL2422191284L
aL3050725742L
aI1545815724
aL2301734311L
aL2948879195L
aI192759988
aL2913023527L
aI471615293
aI20842752
aI1286540352
aL2273862972L
aI1688113298
aI20411005
aI1911556146
aL2472016988L
aI1475745116
aI394749164
aI397594252
aI316513037
aL2982148246L
aL2902022981L
aI59143641
aI1528538274
aI36089353
aL2831153890L
aL2854867879L
aL2918492597L
aL2369054690L
aL2303053614L
aI1966154155
aI487089304
aI1597211118
aI18031655
aL2561710956L
aI1467804924
aI416311594
aL2753440416L
aL2885639245L
aL2209574718L
aI56228541
aI59069256
aI17242381
aL2907540824L
aL2573412902L
aI38197397
aI93313164
aI58068597
aI557668178
aI373875321
aI264308166
aL2585223750L
aL2793376878L
aI65815884
aL2544046111L
aL2516905895L
aI1604687408
aI1167632820
aI805230144
aL2465128316L
aI79781117
aL2839660531L
aL2820185426L
aI1284288757
aL2811015769L
aL2720125268L
aI467947795
aL2743419222L
aL2790328340L
aI26297845
aI1496945653
aL2328086981L
aI1426695192
aI218229086
aI35204335
aI31369038
aL2170233621L
aI887742882
aL2749536625L
aI373188738
aL2720068988L
aI231582881
aI254793747
aL2180883289L
aL2310259742L
aI251658677
aI159826858
aL2657429448L
aL2649257467L
aL2511518101L
aI34943146
aI904968246
aI1085211530
aL2597286888L
aI52252883
aL2432314381L
aL2361266774L
aI26333635
aI949381904
aI1685825136
aL2570334018L
aI18892351
aI42464535
aI1244393550
aL2384815778L
aL2376466788L
aL2575297941L
aL2573242097L
aI1526404644
aI389656853
aL2495491237L
aI583084359
aL2522689474L
aI321896620
aL2519944321L
aL2483895428L
aI561711397
aL2516823858L
aL2339875027L
aI24585143
aL2193465356L
aL2150632133L
aI52864419
aL2547643083L
aL2429288503L
aI111950394
aI25067212
aI137041960
aL2428015284L
aI189166408
aI21926595
aL2164069346L
aI63322829
aI110547073
aI300769892
aI496672923
aL2387297778L
aL2455693183L
aI57748806
aI262810151
aL2197839551L
aL2460925059L
aI33966896
aI124106799
aI400964160
aL2423203669L
aL2419590156L
aI190709146
aI375562299
aI394854582
aL2374172425L
aI579988320
aI712995869
aI103315664
aI370098731
aL2370373714L
aI616427890
aI1659070093
aL2384497278L
aI38737968
aI101509152
aI62737232
aL2344859484L
aL2396908212L
aI1342650378
aI182808623
aI1268476141
aI628635025
aL2385537276L
aI159513440
aL2384371891L
aI22357284
aL2383163496L
aI187283932
aI532777973
aL2375659116L
aL2259185185L
aI26894013
aI43945539
aI1322751546
aI196820948
aI31096613
aL2240157846L
aI37709636
aI555435836
aI47488927
aI1402583736
aI1030141561
aI26931785
aI46639936
aI30711039
aI51229225
aI500285522
aI36049338
aI291990034
aI709521411
aI390450593
aL2238413617L
aI67810918
aI355727441
aI48764307
aI282424104
aI604536757
aI733717446
aI23587187
aI391815569
aI18968571
aI378302346
aI1190875200
aI1897868282
aI296586231
aI33570022
aI1928255082
aI472217438
aI310264015
aI97209147
aI395078653
aI555275062
aI6977292
aI47602066
aI1879821056
aI1123508761
aL2350417452L
aI276195566
aI1702482906
aL2224009784L
aI133769260
aL2303763960L
aI499505440
aI238005989
aI171648504
aI89062049
aL2335063172L
aL2320089211L
aI21718195
aI90515838
aI119009642
aL2327503843L
aI43971534
aI272392941
aI40300931
aI242375795
aI730833420
aI451464993
aL2328015528L
aI49519788
aI49613868
aL2309328294L
aI1908766783
aI242607215
aI1273298390
aI48311190
aI259059584
aI33090704
aI276089088
aI329454031
aI1418264892
aI191645809
aI601604086
aI165913986
aI262071997
aL2240903528L
aI373489488
aL2256820085L
aL2273688650L
aI1952831822
aI1123867346
aL2291614436L
aL2292894925L
aI227694018
aI1634448685
aI146746470
aI340037225
aL2169297120L
aI274823472
aI23390520
aI700415543
aI37340004
aI1090358641
aI15648660
aI122868476
aI39035316
aL2269278865L
aI230339199
aI143509053
aI1912519352
aI335079707
aI1035747830
aI17599124
aI626250748
aI18207092
aI1630682036
aI995986945
aI34390826
aL2168533758L
aI26705006
aI1923911630
aI366314459
aI780517974
aI129353374
aI1457943090
aI172836249
aI985943988
aI43950136
aI436248154
aI276911103
aI498853341
aI1314139800
aI1093261778
aI963181812
aI247449754
aI1633051956
aI36293963
aI357785117
aI446917744
aI41705068
aI17616049
aI211316225
aI1923837649
aI84964090
aI1526137868
aI1164649520
aI397319009
aI1583026250
aI1674653173
aI1193298518
aI16297481
aI607532523
aI6459
aI1499050572
aI989088871
aI1559356620
aI261467074
aI1126189962
aI26609292
aI1307445236
aI1327615152
aI320365482
aI108657905
aI341230862
aI608815342
aI225209033
aI17139109
aI627058217
aI215139578
aI506015588
aI389682834
aI494902478
aI159677880
aI456904541
aI385292343
aI430705178
aI37831315
aI117886292
aI36723629
aI191575604
aI360014692
aI403694719
aI103457965
aI386787305
aasS'obj'
p7
ccopy_reg
_reconstructor
p8
(ctweepy.models
User
p9
c__builtin__
object
p10
Ntp11
Rp12
(dp13
S'follow_request_sent'
p14
NsS'has_extended_profile'
p15
I00
sS'profile_use_background_image'
p16
I01
sS'profile_sidebar_fill_color'
p17
VDDEEF6
p18
sS'id'
p19
I423695486
sS'verified'
p20
I00
sS'entities'
p21
(dp22
Vdescription
p23
(dp24
Vurls
p25
(lp26
sssS'profile_image_url_https'
p27
Vhttps://pbs.twimg.com/profile_images/378800000733248254/0747cf9bd4367be93eba60c96372686b_normal.jpeg
p28
sS'_json'
p29
(dp30
Vfollow_request_sent
p31
NsVhas_extended_profile
p32
I00
sVprofile_use_background_image
p33
I01
sVdefault_profile_image
p34
I00
sVid
p35
I423695486
sVprofile_background_image_url_https
p36
Vhttps://pbs.twimg.com/profile_background_images/378800000114976865/675ac16111c7ddaf537ed4bf3f3d35b0.jpeg
p37
sVverified
p38
I00
sVprofile_text_color
p39
V333333
p40
sVprofile_image_url_https
p41
g28
sVprofile_sidebar_fill_color
p42
g18
sVentities
p43
g22
sVfollowers_count
p44
I445
sVprofile_sidebar_border_color
p45
V000000
p46
sVid_str
p47
V423695486
p48
sVprofile_background_color
p49
VC0DEED
p50
sVlisted_count
p51
I35
sVstatus
p52
(dp53
Vcontributors
p54
NsVtruncated
p55
I00
sVtext
p56
VRT @FantasyAlarm: Friends of @FantasyAlarm Protect Fantasy Sports. Sign the Petition Now #FantasyForAll https://t.co/Rtk2EGRMRB @FSTA https\u2026
p57
sVin_reply_to_status_id
p58
Nsg35
L665279823900598272L
sVfavorite_count
p59
I0
sVsource
p60
V<a href="https://about.twitter.com/products/tweetdeck" rel="nofollow">TweetDeck</a>
p61
sVretweeted
p62
I00
sVcoordinates
p63
Nsg43
(dp64
Vsymbols
p65
(lp66
sVuser_mentions
p67
(lp68
(dp69
g35
I58559901
sVindices
p70
(lp71
I3
aI16
asg47
V58559901
p72
sVscreen_name
p73
VFantasyAlarm
p74
sVname
p75
VFantasy Alarm
p76
sa(dp77
g35
I58559901
sg70
(lp78
I29
aI42
asg47
V58559901
p79
sg73
VFantasyAlarm
p80
sg75
VFantasy Alarm
p81
sa(dp82
g35
I44817219
sg70
(lp83
I128
aI133
asg47
V44817219
p84
sg73
VFSTA
p85
sg75
VSarah Peters
p86
sasVhashtags
p87
(lp88
(dp89
g70
(lp90
I89
aI103
asg56
VFantasyForAll
p91
sasg25
(lp92
(dp93
Vurl
p94
Vhttps://t.co/Rtk2EGRMRB
p95
sg70
(lp96
I104
aI127
asVexpanded_url
p97
Vhttp://bit.ly/1knd15t
p98
sVdisplay_url
p99
Vbit.ly/1knd15t
p100
sasVmedia
p101
(lp102
(dp103
Vsource_user_id
p104
I58559901
sVsource_status_id_str
p105
V665260851440386048
p106
sg97
Vhttp://twitter.com/FantasyAlarm/status/665260851440386048/photo/1
p107
sg99
Vpic.twitter.com/sMIXPbaOma
p108
sg94
Vhttps://t.co/sMIXPbaOma
p109
sVmedia_url_https
p110
Vhttps://pbs.twimg.com/media/CTt7ODaVAAAXL8K.jpg
p111
sVsource_user_id_str
p112
V58559901
p113
sVsource_status_id
p114
L665260851440386048L
sg47
V665260851331399680
p115
sVsizes
p116
(dp117
Vlarge
p118
(dp119
Vh
p120
I330
sVresize
p121
Vfit
p122
sVw
p123
I200
ssVsmall
p124
(dp125
g120
I330
sg121
Vfit
p126
sg123
I200
ssVmedium
p127
(dp128
g120
I330
sg121
Vfit
p129
sg123
I200
ssVthumb
p130
(dp131
g120
I150
sg121
Vcrop
p132
sg123
I150
sssg70
(lp133
I139
aI140
asVtype
p134
Vphoto
p135
sg35
L665260851331399680L
sVmedia_url
p136
Vhttp://pbs.twimg.com/media/CTt7ODaVAAAXL8K.jpg
p137
sassVin_reply_to_screen_name
p138
Nsg47
V665279823900598272
p139
sVretweet_count
p140
I2
sVin_reply_to_user_id
p141
NsVfavorited
p142
I00
sVretweeted_status
p143
(dp144
g54
Nsg55
I00
sg56
VFriends of @FantasyAlarm Protect Fantasy Sports. Sign the Petition Now #FantasyForAll https://t.co/Rtk2EGRMRB @FSTA https://t.co/sMIXPbaOma
p145
sg58
Nsg35
L665260851440386048L
sg59
I2
sg60
V<a href="http://sproutsocial.com" rel="nofollow">Sprout Social</a>
p146
sg62
I00
sg63
Nsg43
(dp147
g65
(lp148
sg67
(lp149
(dp150
g35
I58559901
sg70
(lp151
I11
aI24
asg47
V58559901
p152
sg73
VFantasyAlarm
p153
sg75
VFantasy Alarm
p154
sa(dp155
g35
I44817219
sg70
(lp156
I110
aI115
asg47
V44817219
p157
sg73
VFSTA
p158
sg75
VSarah Peters
p159
sasg87
(lp160
(dp161
g70
(lp162
I71
aI85
asg56
VFantasyForAll
p163
sasg25
(lp164
(dp165
g94
Vhttps://t.co/Rtk2EGRMRB
p166
sg70
(lp167
I86
aI109
asg97
Vhttp://bit.ly/1knd15t
p168
sg99
Vbit.ly/1knd15t
p169
sasg101
(lp170
(dp171
g97
Vhttp://twitter.com/FantasyAlarm/status/665260851440386048/photo/1
p172
sg99
Vpic.twitter.com/sMIXPbaOma
p173
sg94
Vhttps://t.co/sMIXPbaOma
p174
sg110
Vhttps://pbs.twimg.com/media/CTt7ODaVAAAXL8K.jpg
p175
sg47
V665260851331399680
p176
sg116
(dp177
g118
(dp178
g120
I330
sg121
Vfit
p179
sg123
I200
ssg124
(dp180
g120
I330
sg121
Vfit
p181
sg123
I200
ssg127
(dp182
g120
I330
sg121
Vfit
p183
sg123
I200
ssg130
(dp184
g120
I150
sg121
Vcrop
p185
sg123
I150
sssg70
(lp186
I116
aI139
asg134
Vphoto
p187
sg35
L665260851331399680L
sg136
Vhttp://pbs.twimg.com/media/CTt7ODaVAAAXL8K.jpg
p188
sassg138
Nsg47
V665260851440386048
p189
sg140
I2
sg141
Nsg142
I00
sVgeo
p190
NsVin_reply_to_user_id_str
p191
NsVpossibly_sensitive
p192
I00
sVlang
p193
Ven
p194
sVcreated_at
p195
VFri Nov 13 20:12:01 +0000 2015
p196
sVin_reply_to_status_id_str
p197
NsVplace
p198
Nssg190
Nsg191
Nsg192
I00
sg193
Ven
p199
sg195
VFri Nov 13 21:27:24 +0000 2015
p200
sg197
Nsg198
NssVis_translation_enabled
p201
I00
sVutc_offset
p202
NsVstatuses_count
p203
I2244
sg23
VBeen trading pennies, options, and big board stocks for 15+ years.
p204
sVfriends_count
p205
I201
sVlocation
p206
VNorCal
p207
sVprofile_link_color
p208
V0084B4
p209
sVprofile_image_url
p210
Vhttp://pbs.twimg.com/profile_images/378800000733248254/0747cf9bd4367be93eba60c96372686b_normal.jpeg
p211
sVfollowing
p212
NsVgeo_enabled
p213
I00
sVprofile_background_image_url
p214
Vhttp://pbs.twimg.com/profile_background_images/378800000114976865/675ac16111c7ddaf537ed4bf3f3d35b0.jpeg
p215
sg73
VInvestorWisdom
p216
sg193
Ven
p217
sVprofile_background_tile
p218
I01
sVfavourites_count
p219
I95
sg75
VFuture Tech Investor
p220
sVnotifications
p221
Nsg94
Nsg195
VMon Nov 28 20:38:54 +0000 2011
p222
sVcontributors_enabled
p223
I00
sVtime_zone
p224
NsVprotected
p225
I00
sVdefault_profile
p226
I00
sVis_translator
p227
I00
ssS'contributors_enabled'
p228
I00
sS'profile_text_color'
p229
g40
sS'followers_count'
p230
I445
sS'profile_sidebar_border_color'
p231
g46
sS'id_str'
p232
g48
sS'default_profile_image'
p233
I00
sS'listed_count'
p234
I35
sS'status'
p235
g8
(ctweepy.models
Status
p236
g10
Ntp237
Rp238
(dp239
S'favorited'
p240
I00
sS'contributors'
p241
NsS'truncated'
p242
I00
sS'text'
p243
g57
sS'source_url'
p244
Vhttps://about.twitter.com/products/tweetdeck
p245
sS'possibly_sensitive'
p246
I00
sS'in_reply_to_status_id'
p247
NsS'geo'
p248
Nsg19
L665279823900598272L
sS'favorite_count'
p249
I0
sS'lang'
p250
g199
sS'retweeted_status'
p251
g8
(g236
g10
Ntp252
Rp253
(dp254
g240
I00
sg241
Nsg242
I00
sg243
g145
sg244
Vhttp://sproutsocial.com
p255
sg246
I00
sg247
Nsg248
Nsg19
L665260851440386048L
sg249
I2
sg250
g194
sg21
g147
sS'created_at'
p256
cdatetime
datetime
p257
(S'\x07\xdf\x0b\r\x14\x0c\x01\x00\x00\x00'
p258
tp259
Rp260
sg29
g144
sS'coordinates'
p261
NsS'in_reply_to_user_id_str'
p262
NsS'source'
p263
VSprout Social
p264
sS'in_reply_to_status_id_str'
p265
NsS'in_reply_to_screen_name'
p266
Nsg232
g189
sS'retweeted'
p267
I00
sS'place'
p268
NsS'retweet_count'
p269
I2
sS'in_reply_to_user_id'
p270
Nsbsg21
g64
sg256
g257
(S'\x07\xdf\x0b\r\x15\x1b\x18\x00\x00\x00'
p271
tp272
Rp273
sg29
g53
sg261
Nsg262
Nsg263
VTweetDeck
p274
sg265
Nsg266
Nsg232
g139
sg267
I00
sg268
Nsg269
I2
sg270
NsbsS'is_translation_enabled'
p275
I00
sS'utc_offset'
p276
NsS'statuses_count'
p277
I2244
sS'description'
p278
g204
sS'friends_count'
p279
I201
sS'location'
p280
g207
sS'profile_link_color'
p281
g209
sS'profile_image_url'
p282
g211
sS'notifications'
p283
NsS'geo_enabled'
p284
I00
sS'profile_background_color'
p285
g50
sS'profile_background_image_url'
p286
g215
sS'screen_name'
p287
g216
sg250
g217
sg1
I00
sS'profile_background_tile'
p288
I01
sS'favourites_count'
p289
I95
sS'name'
p290
g220
sS'url'
p291
Nsg256
g257
(S'\x07\xdb\x0b\x1c\x14&6\x00\x00\x00'
p292
tp293
Rp294
sS'profile_background_image_url_https'
p295
g37
sS'time_zone'
p296
NsS'protected'
p297
I00
sS'default_profile'
p298
I00
sS'is_translator'
p299
I00
sbs.