(dp0
S'following'
p1
(lp2
(lp3
I284241195
aI92162698
aL2992414321L
aI34146256
aI413955323
aL3284754595L
aL2887202853L
aL2891417613L
aI627261958
aI120588923
aI618380483
aI569209566
aI321157898
aI17143411
aI58785071
aI84334372
aI135622752
aI22878216
aL2829149155L
aI14770568
aI14886375
aL2548598250L
aI1392528138
aI1930146834
aI24511803
aI386339471
aL2483093335L
aI17647477
aI44503856
aL2548166449L
aI1680622674
aI498404030
aI602080822
aI547099339
aI28571999
aI472829432
aL2885532683L
aI12166762
aI593986363
aI49605610
aI230186350
aI1245151753
aI70513691
aI202016968
aI1388320520
aI87818409
aI40533912
aI205789121
aI7144422
aI247249007
aI1337585012
aL2372242664L
aI15568127
aI18721712
aI172836249
aI515034648
aI19046269
aI1098307922
aI57733504
aI229377415
aI494494595
aI819768577
aI37683392
aI1018807597
aI46954727
aI182201545
aI41487562
aI513479888
aI346708669
aI35002876
aI15764136
aI55020919
aI20339060
aI119788592
aI90964278
aI169001534
aI103982058
aI18539631
aI173487739
aI354399766
aI302128211
aI443828228
aI104237736
aI24775410
aI87725458
aI111441302
aI20888115
aI1140451
aI17622474
aI268895913
aI168857946
aI815728290
aI14579415
aI20179628
aI463100829
aI45564482
aI932818526
aI200184154
aI616485017
aI14800270
aI60642052
aI33792634
aI15836769
aI850455458
aI314768563
aI315002750
aI401784119
aI816653
aI16896485
aI2735591
aI1344951
aI551442334
aI14276189
aI23756134
aI17976147
aI21323268
aI18498217
aI25053299
aI48377097
aI23484039
aI19988458
aI1754641
aI39264827
aI28164923
aI89043072
aI17522615
aI16892243
aI621523
aI421794008
aI21312469
aI10165242
aI107112589
aI407706577
aI15905103
aI112987520
aI629156906
aI25103045
aI16090230
aI495919249
aI400855830
aI297156789
aI28863674
aI340390126
aI19329432
aI80925436
aI16386284
aI16732770
aI8524892
aI9571022
aI21257194
aI6017542
aI5988062
aI28347854
aI14514804
aI18622869
aI44358989
aI20402945
aI15281391
aI16184358
aI67358777
aI14259632
aI16955517
aI34713362
aI3108351
aasS'followers'
p4
(lp5
(lp6
I19713521
aL2800615036L
aL4157415958L
aL2216515440L
aI232698219
aI19068720
aI284241195
aI442808661
aL3134776331L
aI257035711
aL4028548934L
aI507903720
aI81195356
aL3993366554L
aL3703989615L
aL3400872232L
aL4008687460L
aI500477146
aI25209070
aL2301502174L
aL3270330318L
aL3741461729L
aI516584199
aL2992414321L
aL3284754595L
aI413955323
aI23486558
aI1879598838
aI165170876
aI260344806
aI569209566
aI29599774
aI7721172
aL3404608443L
aI582206340
aI1897311810
aL3220886269L
aI708428554
aL2606493942L
aI18791507
aI82379762
aI321157898
aI245807883
aI125116915
aI100812796
aI148615250
aI1659385489
aI597799971
aL2645683376L
aI138966824
aI293966765
aI1319044506
aI751695354
aI22878216
aL2829149155L
aL3021486432L
aI14770568
aI231137053
aL2548598250L
aL2522951749L
aI247078393
aI357940576
aI365794100
aI140627410
aI413704957
aI64419367
aI144385943
aL3229678053L
aI1877926819
aL2950759276L
aI19775221
aI708823454
aI245970080
aI253017030
aI1392528138
aI1305940272
aI269110516
aI174913216
aI1930146834
aI133873301
aL3073478049L
aI945792516
aI167840958
aL2781259315L
aI382214358
aI60812740
aI28637775
aL3068188172L
aL2269754869L
aL2348723979L
aI472829432
aL3027501082L
aI87201670
aI326972014
aI494789356
aI182000915
aL2950509382L
aI228890889
aI752502115
aL2157162181L
aL3008533790L
aI24648540
aL2574760620L
aL2989887329L
aI119914289
aI190408726
aI178130011
aL2899117175L
aI103455422
aI186815040
aL2904098999L
aI271727141
aI1365731336
aI60209305
aI461302410
aI2424091
aI28285841
aI1573291172
aL2825658271L
aI15868713
aL2800874294L
aI27277783
aL2616119636L
aI243974329
aI500574298
aL2484493573L
aI389760738
aI309430990
aI357633030
aI59879251
aI381416186
aI1337585012
aL2610612656L
aI16853422
aI25331604
aI18360692
aI14356360
aI1382875340
aI30869913
aI22411342
aI381797048
aI791797687
aI28551943
aI415094400
aI26801410
aI489571577
aI289706519
aI128098329
aI410292561
aI210690387
aI247249007
aI34669164
aL2371316676L
aI70896766
aI593931512
aI193353562
aI1349746844
aI98653785
aL2305285964L
aL2275795436L
aL2208753833L
aI1630682036
aI80157151
aI139892153
aI1591547521
aI277279376
aI19046269
aI57733504
aI158943508
aI1641173695
aI114476085
aI541689521
aI42741439
aI317896444
aI19052353
aI49097310
aI400232659
aI920207508
aI487625557
aI1006572312
aI1239465038
aI814024988
aI754331240
aI460205250
aI815728290
aI363753832
aI205809773
aI173487739
aI354399766
aI18539631
aI443828228
aI302128211
aI463100829
aI14579415
aI751232023
aI314768563
aI315002750
aI389638791
aI254380830
aI380025262
aI75482484
aI311075461
aI43726335
aI107112589
aI407706577
aI266824042
aI629156906
aI16090230
aI25103045
aI495919249
aI631375714
aI625647022
aI297156789
aI607318791
aI340390126
aI592262616
aI400855830
aI275076111
aI14984849
aI47265235
aI131895033
aI20696531
aI428531520
aI124236245
aI487290836
aI549446082
aI377111408
aI22309454
aI222508474
aI90964278
aI518130864
aI91020488
aasS'obj'
p7
ccopy_reg
_reconstructor
p8
(ctweepy.models
User
p9
c__builtin__
object
p10
Ntp11
Rp12
(dp13
S'follow_request_sent'
p14
I00
sS'has_extended_profile'
p15
I00
sS'profile_use_background_image'
p16
I00
sS'profile_sidebar_fill_color'
p17
VDDEEF6
p18
sS'id'
p19
I423985204
sS'verified'
p20
I00
sS'entities'
p21
(dp22
Vurl
p23
(dp24
Vurls
p25
(lp26
(dp27
g23
Vhttp://t.co/Lj32cBVBFJ
p28
sVindices
p29
(lp30
I0
aI22
asVexpanded_url
p31
Vhttp://www.marketsnacks.com
p32
sVdisplay_url
p33
Vmarketsnacks.com
p34
sassVdescription
p35
(dp36
g25
(lp37
sssS'profile_image_url_https'
p38
Vhttps://pbs.twimg.com/profile_images/607163058746761217/0Nch_u9N_normal.png
p39
sS'_json'
p40
(dp41
Vfollow_request_sent
p42
I00
sVhas_extended_profile
p43
I00
sVprofile_use_background_image
p44
I00
sVdefault_profile_image
p45
I00
sVid
p46
I423985204
sVprofile_background_image_url_https
p47
Vhttps://pbs.twimg.com/profile_background_images/436697695/facebookIconGreen.jpg
p48
sVverified
p49
I00
sVprofile_text_color
p50
V333333
p51
sVprofile_image_url_https
p52
g39
sVprofile_sidebar_fill_color
p53
g18
sVentities
p54
g22
sVfollowers_count
p55
I232
sVprofile_sidebar_border_color
p56
V000000
p57
sVid_str
p58
V423985204
p59
sVprofile_background_color
p60
V21DC99
p61
sVlisted_count
p62
I33
sVstatus
p63
(dp64
Vcontributors
p65
NsVtruncated
p66
I00
sVtext
p67
VThe mathematical case for not freaking out about #firstdates https://t.co/B9hggH7JMU #statistics
p68
sVin_reply_to_status_id
p69
Nsg46
L665202690767630336L
sVfavorite_count
p70
I0
sVsource
p71
V<a href="http://www.hootsuite.com" rel="nofollow">Hootsuite</a>
p72
sVretweeted
p73
I00
sVcoordinates
p74
Nsg54
(dp75
Vsymbols
p76
(lp77
sVuser_mentions
p78
(lp79
sVhashtags
p80
(lp81
(dp82
g29
(lp83
I49
aI60
asg67
Vfirstdates
p84
sa(dp85
g29
(lp86
I85
aI96
asg67
Vstatistics
p87
sasg25
(lp88
(dp89
g23
Vhttps://t.co/B9hggH7JMU
p90
sg29
(lp91
I61
aI84
asg31
Vhttp://qz.com/541680/the-mathematical-case-for-not-freaking-out-about-first-dates/
p92
sg33
Vqz.com/541680/the-mat\u2026
p93
sassVin_reply_to_screen_name
p94
Nsg58
V665202690767630336
p95
sVretweet_count
p96
I0
sVin_reply_to_user_id
p97
NsVfavorited
p98
I00
sVgeo
p99
NsVin_reply_to_user_id_str
p100
NsVpossibly_sensitive
p101
I00
sVlang
p102
Ven
p103
sVcreated_at
p104
VFri Nov 13 16:20:55 +0000 2015
p105
sVin_reply_to_status_id_str
p106
NsVplace
p107
NssVis_translation_enabled
p108
I00
sVutc_offset
p109
I-18000
sVstatuses_count
p110
I1973
sg35
VStart Your Day with Your Recommended Daily Serving of Digestible Financial News in a E-Newsletter - Subscribe!
p111
sVfriends_count
p112
I164
sVlocation
p113
VNew York City, NY
p114
sVprofile_link_color
p115
V21DC99
p116
sVprofile_image_url
p117
Vhttp://pbs.twimg.com/profile_images/607163058746761217/0Nch_u9N_normal.png
p118
sVfollowing
p119
I00
sVgeo_enabled
p120
I00
sVprofile_banner_url
p121
Vhttps://pbs.twimg.com/profile_banners/423985204/1433935990
p122
sVprofile_background_image_url
p123
Vhttp://pbs.twimg.com/profile_background_images/436697695/facebookIconGreen.jpg
p124
sVscreen_name
p125
VMarketSnacks
p126
sg102
Ven
p127
sVprofile_background_tile
p128
I00
sVfavourites_count
p129
I38
sVname
p130
VMarketSnacks
p131
sVnotifications
p132
I00
sg23
Vhttp://t.co/Lj32cBVBFJ
p133
sg104
VTue Nov 29 05:20:03 +0000 2011
p134
sVcontributors_enabled
p135
I00
sVtime_zone
p136
VEastern Time (US & Canada)
p137
sVprotected
p138
I00
sVdefault_profile
p139
I00
sVis_translator
p140
I00
ssS'contributors_enabled'
p141
I00
sS'profile_text_color'
p142
g51
sS'followers_count'
p143
I232
sS'profile_sidebar_border_color'
p144
g57
sS'id_str'
p145
g59
sS'default_profile_image'
p146
I00
sS'listed_count'
p147
I33
sS'status'
p148
g8
(ctweepy.models
Status
p149
g10
Ntp150
Rp151
(dp152
S'favorited'
p153
I00
sS'contributors'
p154
NsS'truncated'
p155
I00
sS'text'
p156
g68
sS'source_url'
p157
Vhttp://www.hootsuite.com
p158
sS'possibly_sensitive'
p159
I00
sS'in_reply_to_status_id'
p160
NsS'geo'
p161
Nsg19
L665202690767630336L
sS'favorite_count'
p162
I0
sS'lang'
p163
g103
sg21
g75
sS'created_at'
p164
cdatetime
datetime
p165
(S'\x07\xdf\x0b\r\x10\x147\x00\x00\x00'
p166
tp167
Rp168
sg40
g64
sS'coordinates'
p169
NsS'in_reply_to_user_id_str'
p170
NsS'source'
p171
VHootsuite
p172
sS'in_reply_to_status_id_str'
p173
NsS'in_reply_to_screen_name'
p174
Nsg145
g95
sS'retweeted'
p175
I00
sS'place'
p176
NsS'retweet_count'
p177
I0
sS'in_reply_to_user_id'
p178
NsbsS'is_translation_enabled'
p179
I00
sS'utc_offset'
p180
I-18000
sS'statuses_count'
p181
I1973
sS'description'
p182
g111
sS'friends_count'
p183
I164
sS'location'
p184
g114
sS'profile_link_color'
p185
g116
sS'profile_image_url'
p186
g118
sS'notifications'
p187
I00
sS'geo_enabled'
p188
I00
sS'profile_background_color'
p189
g61
sS'profile_banner_url'
p190
g122
sS'profile_background_image_url'
p191
g124
sS'screen_name'
p192
g126
sg163
g127
sg1
I00
sS'profile_background_tile'
p193
I00
sS'favourites_count'
p194
I38
sS'name'
p195
g131
sS'url'
p196
g133
sg164
g165
(S'\x07\xdb\x0b\x1d\x05\x14\x03\x00\x00\x00'
p197
tp198
Rp199
sS'profile_background_image_url_https'
p200
g48
sS'time_zone'
p201
g137
sS'protected'
p202
I00
sS'default_profile'
p203
I00
sS'is_translator'
p204
I00
sbs.