(dp0
S'following'
p1
(lp2
(lp3
L3691380685L
aL3701196732L
aI1251417968
aL2315284873L
aI61447735
aI76858507
aI19854174
aL2860023607L
aI73593143
aI6356522
aI81033585
aI77509999
aI21985976
aI258923616
aL3323700128L
aI476199422
aI199110089
aI423194660
aI65448361
aI161318053
aL2632716033L
aI216374020
aL2694870830L
aI31135086
aI37034483
aI167452533
aI33915298
aL2264849412L
aL2870588424L
aI50285810
aL3317671597L
aI14523609
aI1109329332
aL2564923532L
aI1289738107
aI1945904293
aL2332009105L
aI168442728
aL3310515620L
aI287661993
aI51552352
aI39488770
aI420408759
aI64392342
aI397077052
aL2208054775L
aI566204082
aI400926239
aL3259747554L
aI13031352
aI234275467
aI524247573
aI108006063
aI18891834
aL3824992574L
aI728228053
aI339524137
aI44704537
aI63796828
aI545609435
aI178654269
aI56039856
aI372346211
aI17937017
aL2859741091L
aI122413212
aI1060713474
aL2423268438L
aL3257547548L
aL2504569472L
aI176185477
aI224645928
aL3580859838L
aI101695592
aI635299387
aI75332011
aI98601073
aI37021659
aI87869831
aI553575999
aI1374676734
aI251981780
aL2974642825L
aI177134089
aI1139649950
aL3820423514L
aI238044935
aI1316756868
aI451310724
aI164668921
aL2782696033L
aI128276901
aL3313150099L
aI119701322
aI1174027950
aL2794441796L
aL2317300873L
aI22522178
aI487736815
aI386292874
aI525821517
aI131102007
aI272408338
aI53045908
aI46045384
aL2889711734L
aL2993573785L
aL3056947008L
aI85105071
aI87629490
aI86479411
aL3490279753L
aI258283931
aI74453322
aI114968505
aI75987959
aI1534167900
aI89158871
aI56044924
aI392546933
aI504408218
aI44092347
aI119048275
aI602865727
aI41306381
aI20763017
aL2280265123L
aI548747112
aI27762318
aI1891089511
aL2215937899L
aI36326146
aL2331972013L
aL3363030369L
aI33450437
aI295658596
aL2547893780L
aI36325225
aI631810714
aI112094343
aI60937837
aI46056150
aI127863830
aI257431719
aI219617448
aI188994965
aI140534955
aL2708915372L
aL2836652732L
aI17540673
aI78280351
aI122658025
aL2496873565L
aL3310628762L
aI105434685
aI56362316
aI1851675228
aI1369793654
aI5988062
aI15338256
aL2349706958L
aI62274930
aL2744421848L
aI52698379
aI8167022
aL2431800348L
aI36894968
aI64763019
aI102334275
aI151976652
aI60284531
aI390539489
aI6375502
aI125928961
aI227370719
aI15954704
aI158589693
aI75237089
aI40511506
aL2960639635L
aI14514804
aI157945614
aI74947464
aL3083470118L
aL2460254126L
aL3131553193L
aI306699569
aL3313143320L
aI79539419
aI14300638
aL2312262702L
aI116433899
aI151090823
aI16448593
aI147994804
aI102031009
aI77888423
aI17813899
aI108021761
aI14800270
aI319485914
aL2193540194L
aI275401736
aI84780766
aL2272533127L
aL3300633006L
aI37158721
aL2267884933L
aI245687754
aL2331822642L
aI115290759
aI272314739
aI255924292
aI91406312
aI57868917
aI14093371
aI21271771
aI274674160
aI66290131
aI407620902
aI411034263
aI595234260
aI102285890
aI420943164
aI80784434
aI81083096
aI50279781
aI39743812
aI43855487
aI9294762
aI37918984
aI331434993
aI81091668
aI337650972
aI90830064
aI67358777
aI20562637
aI4898091
aL3271574719L
aI36964108
aI325129680
aI48903054
aI59486068
aI610514513
aI843056064
aI59574807
aI228362847
aI16489912
aI14162012
aI80089336
aL3283490310L
aI55222123
aI8933572
aL2227695199L
aI373790696
aI116341752
aI1245878760
aI618726011
aI591967473
aI163396860
aI194056408
aI276394575
aI1734341046
aI60955471
aI473745411
aI59421201
aL2644953866L
aI48908879
aI75336429
aI304738707
aI274381313
aI89043072
aI85768153
aI110480226
aI15804695
aI1626294277
aI104083947
aI156609745
aI226020413
aI558654135
aI28271460
aI369680637
aL2425729363L
aI47995732
aI116356889
aL2859443173L
aI104487939
aL2729506932L
aI31146207
aI452127918
aI485769605
aL3310685269L
aI129096662
aI35771264
aI1017390109
aI96495092
aI403932172
aI1833721604
aL3182127173L
aI1478888342
aI114389234
aI227925963
aI54095114
aL2375040733L
aI84819628
aI76115890
aI38609016
aI239672078
aI497813545
aI46872357
aI150929289
aI111527504
aI81524409
aI46315938
aI12110592
aI83047883
aI1652160312
aI43150419
aI1448269069
aI28730285
aL3065340554L
aI33871248
aL2570204940L
aI118058555
aI129405295
aI85044183
aI66073600
aI1542531098
aI250423100
aI61500688
aI1376515897
aI19178688
aI16609467
aI820534716
aI1728148718
aI150328294
aI135546401
aI75229192
aI133791729
aI145632386
aI97530284
aL2824712976L
aI100392687
aI79915959
aI135846598
aI62744505
aI91637167
aI67024015
aI1178827399
aI1570087200
aI1108929162
aI730698806
aI1037039454
aI1503861390
aI54205305
aL2966532212L
aI554877017
aI956134448
aI106685924
aI598242424
aI97152508
aI327416363
aI89394976
aL3282306775L
aI108344291
aI15240897
aI65034245
aI81790450
aI100426799
aI28354183
aI14841588
aI318515615
aL2532890035L
aI434805065
aI117361529
aI124688402
aL2896344954L
aI225139803
aI559675462
aI149773762
aI5520952
aL2989553946L
aI26464328
aI193724488
aI26244629
aI53344015
aI213572570
aI382571958
aI15568127
aL2706232585L
aI379108598
aI95572118
aI1346439824
aI1484431592
aI17850606
aL2278730354L
aI1412319144
aI264689938
aI516334020
aL2613083048L
aI141208596
aI1913306017
aI31170586
aI34208984
aI22205952
aI225012752
aI44839509
aL2513339424L
aI20664363
aI375369317
aL2386418257L
aL2791212072L
aI1447949844
aI287156977
aI1072993274
aI30040452
aI1324334436
aL2852001858L
aI154845236
aL2438120870L
aI53920732
aI87988885
aI92996353
aI119655455
aI366120135
aI61142267
aI21658034
aI881750562
aI83339039
aL2875356517L
aI263236469
aI738816258
aI143776014
aI17732182
aI96087281
aI34713362
aI161607945
aI705479414
aI18992010
aI615089071
aI37905814
aI57073389
aI14978221
aI470407269
aI538610119
aI45298449
aI18453548
aI29368590
aI26965339
aI725194435
aI533068752
aI90439657
aI35770843
aI140668732
aI58243368
aL2183816041L
aI1933369219
aI246296202
aI493925156
aI63044947
aL2765754919L
aI522104347
aI24906691
aL2331632952L
aL2879587880L
aL2848815697L
aI761416190
aI113832847
aI77417639
aI75969040
aI127934664
aI1658572099
aI23125257
aI54105833
aI40161156
aI468204769
aI22128321
aI1111282716
aI111416258
aI64122591
aI1020245023
aI34589718
aI238243492
aI40098752
aI125593434
aI21653244
aI28162128
aI29149536
aI24110876
aI38467662
aI125664751
aI439876343
aI22947371
aI14240056
aI23612049
aI73083993
aI706566858
aI158173116
aI34228937
aI239904518
aL2420151889L
aI468931966
aI33853480
aI15653887
aI140701143
aI523491496
aI121407739
aI500704345
aI1364930179
aI265781396
aI126858738
aI107455715
aI129094395
aI471741741
aI18839785
aI277434037
aI83297832
aasS'followers'
p4
(lp5
(lp6
L4011363192L
aL2992414321L
aL3317398447L
aI1328360287
aL3493450637L
aL3283490310L
aL3957056419L
aL2997445771L
aL3579854532L
aL3437389934L
aL3290455331L
aL3319367846L
aL2454567926L
aI76174027
aL2267884933L
aL2482635354L
aL3318562848L
aL3824992574L
aI61142267
aI97152508
aI535585233
aI18393250
aI30591679
aL2354398217L
aL2974642825L
aI251981780
aI116944112
aI41310753
aI1374676734
aI553575999
aI87869831
aI420864576
aL2669235854L
aI1417233644
aI37021659
aI116889403
aI94991825
aI303849499
aL3012034346L
aI98601073
aL2899081406L
aL2318463210L
aI75332011
aI66290131
aI274674160
aL2513339424L
aL2386418257L
aI1910104832
aI472752514
aasS'obj'
p7
ccopy_reg
_reconstructor
p8
(ctweepy.models
User
p9
c__builtin__
object
p10
Ntp11
Rp12
(dp13
S'follow_request_sent'
p14
NsS'has_extended_profile'
p15
I00
sS'profile_use_background_image'
p16
I01
sS'profile_sidebar_fill_color'
p17
VDDEEF6
p18
sS'id'
p19
I427532623
sS'verified'
p20
I00
sS'entities'
p21
(dp22
Vdescription
p23
(dp24
Vurls
p25
(lp26
sssS'profile_image_url_https'
p27
Vhttps://abs.twimg.com/sticky/default_profile_images/default_profile_0_normal.png
p28
sS'_json'
p29
(dp30
Vfollow_request_sent
p31
NsVhas_extended_profile
p32
I00
sVprofile_use_background_image
p33
I01
sVdefault_profile_image
p34
I01
sVid
p35
I427532623
sVprofile_background_image_url_https
p36
Vhttps://abs.twimg.com/images/themes/theme1/bg.png
p37
sVverified
p38
I00
sVprofile_text_color
p39
V333333
p40
sVprofile_image_url_https
p41
g28
sVprofile_sidebar_fill_color
p42
g18
sVentities
p43
g22
sVfollowers_count
p44
I49
sVprofile_sidebar_border_color
p45
VC0DEED
p46
sVid_str
p47
V427532623
p48
sVprofile_background_color
p49
VC0DEED
p50
sVlisted_count
p51
I2
sVstatus
p52
(dp53
Vcontributors
p54
NsVtruncated
p55
I00
sVtext
p56
VRT @shyamsek: By inference, payments looks better to him over e-com. @vijayshekhar has good reasons to smile. https://t.co/wb0MIhH5Op
p57
sVin_reply_to_status_id
p58
Nsg35
L666492720337174528L
sVfavorite_count
p59
I0
sVsource
p60
V<a href="http://twitter.com" rel="nofollow">Twitter Web Client</a>
p61
sVretweeted
p62
I00
sVcoordinates
p63
Nsg43
(dp64
Vsymbols
p65
(lp66
sVuser_mentions
p67
(lp68
(dp69
g35
I127934664
sVindices
p70
(lp71
I3
aI12
asg47
V127934664
p72
sVscreen_name
p73
Vshyamsek
p74
sVname
p75
VShyam Sekhar
p76
sa(dp77
g35
I17239667
sg70
(lp78
I69
aI82
asg47
V17239667
p79
sg73
Vvijayshekhar
p80
sg75
VVijay Shekhar
p81
sasVhashtags
p82
(lp83
sg25
(lp84
(dp85
Vurl
p86
Vhttps://t.co/wb0MIhH5Op
p87
sg70
(lp88
I110
aI133
asVexpanded_url
p89
Vhttps://twitter.com/techmeme/status/666469839024685056
p90
sVdisplay_url
p91
Vtwitter.com/techmeme/statu\u2026
p92
sassVin_reply_to_screen_name
p93
Nsg47
V666492720337174528
p94
sVretweet_count
p95
I1
sVin_reply_to_user_id
p96
NsVfavorited
p97
I00
sVretweeted_status
p98
(dp99
g54
Nsg55
I00
sg56
VBy inference, payments looks better to him over e-com. @vijayshekhar has good reasons to smile. https://t.co/wb0MIhH5Op
p100
sg58
Nsg35
L666482588379287553L
sg59
I4
sg60
V<a href="http://twitter.com/#!/download/ipad" rel="nofollow">Twitter for iPad</a>
p101
sg62
I00
sg63
Nsg43
(dp102
g65
(lp103
sg67
(lp104
(dp105
g35
I17239667
sg70
(lp106
I55
aI68
asg47
V17239667
p107
sg73
Vvijayshekhar
p108
sg75
VVijay Shekhar
p109
sasg82
(lp110
sg25
(lp111
(dp112
g86
Vhttps://t.co/wb0MIhH5Op
p113
sg70
(lp114
I96
aI119
asg89
Vhttps://twitter.com/techmeme/status/666469839024685056
p115
sg91
Vtwitter.com/techmeme/statu\u2026
p116
sassg93
Nsg47
V666482588379287553
p117
sg95
I1
sg96
Nsg97
I00
sVgeo
p118
NsVin_reply_to_user_id_str
p119
NsVpossibly_sensitive
p120
I00
sVlang
p121
Ven
p122
sVcreated_at
p123
VTue Nov 17 05:06:46 +0000 2015
p124
sVin_reply_to_status_id_str
p125
NsVplace
p126
Nssg118
Nsg119
Nsg120
I00
sg121
Ven
p127
sg123
VTue Nov 17 05:47:02 +0000 2015
p128
sg125
Nsg126
NssVis_translation_enabled
p129
I00
sVutc_offset
p130
NsVstatuses_count
p131
I513
sg23
V
p132
sVfriends_count
p133
I517
sVlocation
p134
g132
sVprofile_link_color
p135
V0084B4
p136
sVprofile_image_url
p137
Vhttp://abs.twimg.com/sticky/default_profile_images/default_profile_0_normal.png
p138
sVfollowing
p139
NsVgeo_enabled
p140
I00
sVprofile_background_image_url
p141
Vhttp://abs.twimg.com/images/themes/theme1/bg.png
p142
sg73
Vcharlyxavier88
p143
sg121
Ven
p144
sVprofile_background_tile
p145
I00
sVfavourites_count
p146
I61
sg75
VCharly Xavier
p147
sVnotifications
p148
Nsg86
Nsg123
VSat Dec 03 17:02:13 +0000 2011
p149
sVcontributors_enabled
p150
I00
sVtime_zone
p151
NsVprotected
p152
I00
sVdefault_profile
p153
I01
sVis_translator
p154
I00
ssS'contributors_enabled'
p155
I00
sS'profile_text_color'
p156
g40
sS'followers_count'
p157
I49
sS'profile_sidebar_border_color'
p158
g46
sS'id_str'
p159
g48
sS'default_profile_image'
p160
I01
sS'listed_count'
p161
I2
sS'status'
p162
g8
(ctweepy.models
Status
p163
g10
Ntp164
Rp165
(dp166
S'favorited'
p167
I00
sS'contributors'
p168
NsS'truncated'
p169
I00
sS'text'
p170
g57
sS'source_url'
p171
Vhttp://twitter.com
p172
sS'possibly_sensitive'
p173
I00
sS'in_reply_to_status_id'
p174
NsS'geo'
p175
Nsg19
L666492720337174528L
sS'favorite_count'
p176
I0
sS'lang'
p177
g127
sS'retweeted_status'
p178
g8
(g163
g10
Ntp179
Rp180
(dp181
g167
I00
sg168
Nsg169
I00
sg170
g100
sg171
Vhttp://twitter.com/#!/download/ipad
p182
sg173
I00
sg174
Nsg175
Nsg19
L666482588379287553L
sg176
I4
sg177
g122
sg21
g102
sS'created_at'
p183
cdatetime
datetime
p184
(S'\x07\xdf\x0b\x11\x05\x06.\x00\x00\x00'
p185
tp186
Rp187
sg29
g99
sS'coordinates'
p188
NsS'in_reply_to_user_id_str'
p189
NsS'source'
p190
VTwitter for iPad
p191
sS'in_reply_to_status_id_str'
p192
NsS'in_reply_to_screen_name'
p193
Nsg159
g117
sS'retweeted'
p194
I00
sS'place'
p195
NsS'retweet_count'
p196
I1
sS'in_reply_to_user_id'
p197
Nsbsg21
g64
sg183
g184
(S'\x07\xdf\x0b\x11\x05/\x02\x00\x00\x00'
p198
tp199
Rp200
sg29
g53
sg188
Nsg189
Nsg190
VTwitter Web Client
p201
sg192
Nsg193
Nsg159
g94
sg194
I00
sg195
Nsg196
I1
sg197
NsbsS'is_translation_enabled'
p202
I00
sS'utc_offset'
p203
NsS'statuses_count'
p204
I513
sS'description'
p205
g132
sS'friends_count'
p206
I517
sS'location'
p207
g132
sS'profile_link_color'
p208
g136
sS'profile_image_url'
p209
g138
sS'notifications'
p210
NsS'geo_enabled'
p211
I00
sS'profile_background_color'
p212
g50
sS'profile_background_image_url'
p213
g142
sS'screen_name'
p214
g143
sg177
g144
sg1
I00
sS'profile_background_tile'
p215
I00
sS'favourites_count'
p216
I61
sS'name'
p217
g147
sS'url'
p218
Nsg183
g184
(S'\x07\xdb\x0c\x03\x11\x02\r\x00\x00\x00'
p219
tp220
Rp221
sS'profile_background_image_url_https'
p222
g37
sS'time_zone'
p223
NsS'protected'
p224
I00
sS'default_profile'
p225
I01
sS'is_translator'
p226
I00
sbs.