(dp0
S'following'
p1
(lp2
(lp3
L3392786044L
aI109350515
aL2694919677L
aI261705971
aL4174666959L
aL4171917519L
aI15079601
aI102094857
aI718407582
aI31108162
aL2603835019L
aL2598520766L
aL2835024523L
aI11247222
aI12922502
aL2194567321L
aI124267729
aI241583523
aI1526285174
aI1517257135
aI22631369
aI816653
aL3374756020L
aI179538557
aL2785104246L
aI1461649975
aL4002706213L
aI95084967
aL2180731460L
aI318393064
aI206978292
aI320524842
aI574437392
aI565059874
aI904726514
aI1469603575
aI22302444
aI76511168
aI492703455
aI331614004
aI250665539
aI243189335
aI63467040
aI17513869
aL3438521639L
aL2343862982L
aI60113926
aL2247941353L
aI40149174
aI25073877
aI1534167900
aL2927337815L
aI843492522
aI87775422
aI1272124782
aI234756585
aI22490503
aI66830686
aI55020919
aL2796938558L
aL2217186854L
aL3100250551L
aL2344420430L
aL2344619544L
aI61661638
aI267867165
aI1193872682
aI543584088
aI28212513
aI100024370
aI121161437
aI1551265794
aI82550344
aI138141969
aI467790249
aI133877732
aL2296933478L
aI1900708207
aI21241717
aI346257282
aL2803822165L
aL2149782648L
aL2992631827L
aI105107218
aL3111141768L
aI142475902
aI247857712
aI89225644
aI1648349564
aI1235862138
aL2387917249L
aI821976098
aL2306868572L
aI242763001
aI194137231
aI274065465
aI11877492
aI14179819
aI18917882
aI64489946
aI1330448880
aI459483899
aI726538688
aI709905230
aI1683654618
aI20119344
aI22027300
aI17540673
aL2582235452L
aI1435713126
aI388610424
aI33216611
aI7557352
aI19258766
aL3169837353L
aI562406073
aI27800220
aI95249944
aI1277178181
aI303531344
aI120687853
aI23221109
aL2525906341L
aL2177224099L
aI15808780
aI24958488
aI583938358
aI1394399438
aI1365750296
aL2467914348L
aI1615566792
aI430841130
aI6017542
aI190393612
aI189565756
aI25918247
aL2149877280L
aI1935646201
aI32674236
aI301471997
aI23291900
aI110331791
aI16728404
aI228141236
aI23633168
aI160298969
aI607507412
aI21689176
aI22810429
aI87679233
aI309005035
aI52849759
aI18856867
aI16598957
aI523300593
aI102560560
aL2175195204L
aI1849482031
aI1631140573
aI486139568
aI884935388
aI14465640
aI29240701
aL2904048429L
aI494655876
aL2784957115L
aL2426574114L
aI163537857
aL2188619364L
aI1702226689
aI45846574
aL3009929451L
aI49321890
aI44429768
aI960665076
aI10464212
aL2922115476L
aI154130614
aI234516403
aL2741144950L
aI260943149
aI1532234701
aI1543592424
aL2151247592L
aI167140833
aI1473431
aI325658649
aI33999013
aI25709609
aI16451932
aI15281391
aI39549428
aI1033377608
aI1961333743
aL2313837474L
aI15108702
aI166505377
aI18719020
aI108021761
aI624852565
aI15108530
aI472600930
aI1603748720
aI61197838
aI325616823
aI172023851
aI40471897
aI327587245
aI1431342590
aI355866075
aI1260131623
aI560528318
aI15003446
aI18907155
aI100592354
aI17813899
aI1289436835
aI199803906
aI22783783
aI45909386
aI118399469
aI45904948
aI67686357
aI48743445
aI17623773
aI28007217
aI40909981
aI21572528
aI98151325
aI125773679
aI14173032
aI509310462
aI428638836
aI937852190
aI16063762
aI232120274
aI143651355
aI14669951
aI104257356
aI747839485
aI616604522
aI20636215
aI1338288000
aI564795916
aI166597717
aI299661515
aI376936946
aI168679374
aI599577204
aI25739434
aI348772885
aI18883336
aI16282024
aI3108351
aI337853346
aI137480027
aI14289197
aI1005180732
aI19378633
aI358482230
aI35499699
aI906797108
aI1209579391
aI216798259
aI220016580
aI86582499
aI818071
aI72928001
aI45660395
aI29231456
aI18175161
aI236953420
aI851632189
aI180502648
aI24227424
aI64341848
aI30322151
aI258537744
aI262609895
aI21055792
aI69063562
aI84402174
aI223238349
aI16397306
aI77099691
aI16955517
aI34939208
aI17893558
aI7517052
aI55007147
aI263875901
aI20449296
aI25053299
aI18223590
aI27073265
aI17469289
aI9979012
aI16746076
aI28175577
aI35002876
aI19546277
aI8841372
aI1652541
aI17629860
aI14511951
aI15012486
aI28785486
aI23484039
aI67358777
aI15754281
aI14886375
aI49753604
aI44060322
aI14096763
aI24410456
aI249758564
aI20562637
aI20402945
aI2467791
aI19224439
aI18481050
aI1717291
aI15836769
aI51241574
aI428333
aI18639734
aI17622474
aI33792634
aI18949452
aI32359921
aI1754641
aI624413
aI5988062
aI91478624
aI15110357
aI21328656
aI15764136
aI28140646
aI807095
aI4898091
aI34713362
aI229858277
aI246114807
aI6730222
aI14276189
aI14216123
aI19988458
aasS'followers'
p4
(lp5
(lp6
L2399977093L
aL3119263957L
aL2957291715L
aL2445459474L
aL3174393298L
aI551940798
aL3154126637L
aL3377887888L
aI296320946
aI25034151
aL4174666959L
aI624935877
aI1924312855
aI1861663298
aI80685163
aL4171917519L
aL2785121515L
aI156307328
aL2544750963L
aI46328322
aL2780766853L
aL3148891231L
aL4124512755L
aI259816092
aI1289436835
aI16317166
aL2704486915L
aL4113444803L
aL3058848324L
aL4086878235L
aL2394624246L
aI345319403
aL3623166495L
aI1461649975
aI316438252
aL3418947335L
aL3184633140L
aL3837586812L
aL2354654251L
aI1921640281
aL3427544668L
aI324671163
aI42912883
aI88294437
aI296351501
aI352396899
aL2933929945L
aI318393064
aL2839834980L
aI320524842
aI45415894
aL2967616690L
aL2912072247L
aL3449217321L
aL2794397342L
aI1529917477
aL3911049976L
aI1074268982
aI95548545
aL2236826372L
aI40149174
aI266256843
aI1261010773
aI105107218
aL2778901544L
aI390601734
aI234756585
aI309005035
aI1035869406
aL2855786751L
aL3028160926L
aI139133793
aI1663750862
aI1065931086
aL2846512318L
aL3243247881L
aI27553871
aI292033046
aI494655876
aL2929566887L
aL3438521639L
aL2834280701L
aI1193872682
aL3440004257L
aI250317700
aI890088571
aL3391951743L
aL3394495934L
aL3469218934L
aI924238368
aI885746797
aI223238349
aL2306868572L
aI1943583966
aI38346932
aI42744149
aI1703246636
aI211939192
aL3078628062L
aL2312496720L
aL3344287432L
aL2308173414L
aL2310231702L
aL2307977996L
aL2310383323L
aL2309419315L
aL2992631827L
aL2449447567L
aI405306688
aL2477693448L
aL3108165408L
aL2309144120L
aL2260665274L
aL2649356107L
aL2892189022L
aL3062972193L
aI1579101626
aI262684838
aI349410802
aI380685065
aL3220748214L
aI821976098
aI3478771
aI259554796
aL3245602815L
aL3245638120L
aI124062774
aI1877135052
aL2951556888L
aL2583433433L
aI52161170
aI303531344
aL3144487414L
aI138351621
aI704925008
aL3138350212L
aL3065626680L
aL3077493794L
aL3080880998L
aL3131289652L
aL3134010410L
aI55026167
aL3128666228L
aI1365750296
aI1615566792
aI1593293448
aI246135402
aL3105546006L
aL3102329427L
aI291366964
aL2149877280L
aL3087952901L
aI32674236
aI20367547
aI169193350
aI59471021
aI607507412
aI23633168
aI235229700
aI16728404
aI110331791
aI19716909
aI144326869
aI196726960
aI597454500
aI1417751
aI16371383
aI21689176
aI1943738756
aI81387532
aI806886643
aL3009929451L
aI134924270
aI29929419
aI419244907
aI1059254029
aL2927337815L
aL2665605642L
aI122276973
aI63009370
aL2922115476L
aI95084967
aI356130277
aI1655842032
aI234516403
aL2828971463L
aI42015335
aI1167473689
aI264390124
aL2917238896L
aL2918889271L
aI737597372
aI1692476521
aI176577174
aI256046818
aL2752076368L
aL2483299902L
aI1732939916
aI705221179
aL2517554893L
aI16419972
aI58670477
aI16480205
aL2826892200L
aI1543592424
aL2306054896L
aI260943149
aI29241687
aI1020987282
aI248382106
aL2235178292L
aI705287022
aI728843108
aI7918092
aI1893206408
aI145869403
aI385108265
aI186851201
aI53828706
aI193986226
aI15003446
aI189160791
aI702365721
aI44971011
aL2777056040L
aI14231017
aI272431459
aI243189335
aL2746310976L
aL2745445540L
aL2449097069L
aI95108387
aI54368746
aI157153498
aL2741144950L
aL2720380322L
aI45846574
aI14335724
aI1328282966
aL2313837474L
aI442070823
aI60407575
aI607081695
aL2247769476L
aI1412771047
aI1272865687
aI1604157355
aI305073940
aI227565300
aI261009042
aI166505377
aI60994253
aI749443261
aI32558132
aL2237212519L
aL2421165148L
aL2398036020L
aI575332630
aI1150969206
aL2415308624L
aI108021761
aI182448525
aL2429627902L
aI328898039
aI1100994266
aL2282402046L
aL2351291324L
aI1853045281
aL2351906845L
aL2222474671L
aI513384431
aL2296442599L
aL2291444886L
aL2321540005L
aI316485110
aL2212995808L
aI761532852
aI36834501
aL2322778264L
aI534967776
aI1409089592
aI1304006089
aL2170763221L
aI37346992
aI371058649
aI21437682
aI1979492497
aI974171791
aI18550150
aL2276677086L
aI420482047
aL2266829149L
aI19002407
aI930801055
aI95911389
aI361344030
aI154130614
aI624852565
aI81884561
aI220208450
aI36348667
aI34939208
aI40901186
aI30714816
aI258213340
aL2252628025L
aL2252123240L
aL2252179075L
aI216565147
aI44977843
aI392973215
aI25739434
aL2186700722L
aI17893558
aI294362032
aI313643983
aI232940078
aL2228561718L
aI26021870
aI121330743
aI46648016
aI1042738260
aI27800220
aI27473764
aI362187725
aI801388950
aI389002310
aI190393339
aI596805219
aI1285318309
aL2194897311L
aI25727484
aI78381211
aI1276972182
aL2188561081L
aI352772761
aL2180443945L
aL2174395206L
aI48783009
aI243598034
aL2152113112L
aL2151247592L
aI42915729
aI189565756
aI134539141
aI428604204
aI52989535
aI21241717
aI1956729721
aI1950289315
aI358482230
aI213636132
aI937852190
aI1033377608
aI339039253
aI713689280
aI24032908
aI49780983
aI577145439
aI327587245
aI1255582892
aI573308121
aI574437392
aI177186309
aI731839622
aI412709297
aI862128438
aI351635112
aI621553811
aI32477193
aI309335415
aI334111539
aI443921734
aI116252429
aI492703455
aI148491803
aI589536648
aI181024553
aI706780663
aI600533628
aI15808780
aI140149665
aI163250680
aI802864981
aI431771904
aI1202270096
aI1330448880
aI95249944
aI40043358
aI150841541
aI930629371
aI80656005
aI182070768
aI22513064
aI18175161
aI1702326950
aI331629510
aI100592354
aI1591243369
aI1548825542
aI1652149952
aI1675181053
aI48743445
aI26908967
aI67686357
aI28007217
aI40909981
aI20449296
aI462630524
aI180556387
aI18223590
aI428638836
aI288436132
aI956446760
aI35227172
aI17639794
aI1209579391
aI1538119250
aI1583243796
aI249761850
aI541238341
aI1338288000
aI14687777
aI177387193
aI30292664
aI124267729
aI348772885
aI1342588046
aI263970850
aI33951079
aI18883336
aI17517897
aI78854855
aI20620055
aI1428584168
aI387479023
aI604871206
aI179955540
aI1179210919
aI181130068
aI1334102011
aI1280078521
aI952403167
aI145128083
aI16397306
aI14289197
aI19378633
aI133007347
aI1369550598
aI1362101713
aI40066901
aI1215844412
aI21225559
aI604491384
aI315342095
aI20187649
aI461577379
aI728201605
aI747651116
aI494720824
aI1201817984
aI14276189
aI72928001
aI241640314
aI371450085
aI69317214
aI303246692
aI542232168
aI319716657
aI18056398
aI37154481
aI122028557
aI14540228
aI217654205
aI323719791
aI154006824
aI72712692
aI189521514
aI71610097
aI258537744
aI373149147
aI14579415
aI946957866
aI789801356
aI262609895
aI400699983
aI13724562
aI38112578
aI9554662
aI89538046
aI4534291
aI163108268
aI865699375
aI506147961
aI839814842
aI278345375
aI423107365
aI32123121
aI87906631
aI180502648
aI131520068
aI139848857
aI274313155
aI408490730
aI77099691
aI55074841
aI29215884
aI136101639
aI22091315
aI17469289
aI20703161
aI286725529
aI25277152
aI118922123
aI14886375
aI476883962
aI482415608
aI470895504
aI372407619
aI396700229
aasS'obj'
p7
ccopy_reg
_reconstructor
p8
(ctweepy.models
User
p9
c__builtin__
object
p10
Ntp11
Rp12
(dp13
S'follow_request_sent'
p14
NsS'has_extended_profile'
p15
I00
sS'profile_use_background_image'
p16
I01
sS'profile_sidebar_fill_color'
p17
VDDEEF6
p18
sS'id'
p19
I436707351
sS'verified'
p20
I00
sS'entities'
p21
(dp22
Vurl
p23
(dp24
Vurls
p25
(lp26
(dp27
g23
Vhttp://t.co/5vfrJ5GnK8
p28
sVindices
p29
(lp30
I0
aI22
asVexpanded_url
p31
Vhttp://newsgrade.blogspot.com
p32
sVdisplay_url
p33
Vnewsgrade.blogspot.com
p34
sassVdescription
p35
(dp36
g25
(lp37
sssS'profile_image_url_https'
p38
Vhttps://pbs.twimg.com/profile_images/378800000329644683/bdc347d7d728c6d20f7ee328d21e09aa_normal.jpeg
p39
sS'_json'
p40
(dp41
Vfollow_request_sent
p42
NsVhas_extended_profile
p43
I00
sVprofile_use_background_image
p44
I01
sVdefault_profile_image
p45
I00
sVid
p46
I436707351
sVprofile_background_image_url_https
p47
Vhttps://pbs.twimg.com/profile_background_images/438678496059998209/rky_6nhH.jpeg
p48
sVverified
p49
I00
sVprofile_text_color
p50
V333333
p51
sVprofile_image_url_https
p52
g39
sVprofile_sidebar_fill_color
p53
g18
sVentities
p54
g22
sVfollowers_count
p55
I521
sVprofile_sidebar_border_color
p56
V000000
p57
sVid_str
p58
V436707351
p59
sVprofile_background_color
p60
VC0DEED
p61
sVlisted_count
p62
I34
sVstatus
p63
(dp64
Vcontributors
p65
NsVtruncated
p66
I00
sVtext
p67
VBarron's hypes tiny fund Hood River Sm Cap w &lt; $100 mil.Investors will notice when $TITN blows up https://t.co/75IZYclbi6 via @barronsonline
p68
sVin_reply_to_status_id
p69
Nsg46
L666614559491272704L
sVfavorite_count
p70
I0
sVsource
p71
V<a href="http://twitter.com" rel="nofollow">Twitter Web Client</a>
p72
sVretweeted
p73
I00
sVcoordinates
p74
Nsg54
(dp75
Vsymbols
p76
(lp77
(dp78
g29
(lp79
I86
aI91
asg67
VTITN
p80
sasVuser_mentions
p81
(lp82
(dp83
g46
I20449296
sg29
(lp84
I129
aI143
asg58
V20449296
p85
sVscreen_name
p86
Vbarronsonline
p87
sVname
p88
VBarron's 
p89
sasVhashtags
p90
(lp91
sg25
(lp92
(dp93
g23
Vhttps://t.co/75IZYclbi6
p94
sg29
(lp95
I101
aI124
asg31
Vhttp://on.barrons.com/1Mv2GL1
p96
sg33
Von.barrons.com/1Mv2GL1
p97
sassVin_reply_to_screen_name
p98
Nsg58
V666614559491272704
p99
sVretweet_count
p100
I0
sVin_reply_to_user_id
p101
NsVfavorited
p102
I00
sVgeo
p103
NsVin_reply_to_user_id_str
p104
NsVpossibly_sensitive
p105
I00
sVlang
p106
Ven
p107
sVcreated_at
p108
VTue Nov 17 13:51:10 +0000 2015
p109
sVin_reply_to_status_id_str
p110
NsVplace
p111
NssVis_translation_enabled
p112
I00
sVutc_offset
p113
I-18000
sVstatuses_count
p114
I8541
sg35
VA Numbers Guy #bull #bear  Founder of Equities Research LLC.
p115
sVfriends_count
p116
I347
sVlocation
p117
VU.S.A.
p118
sVprofile_link_color
p119
V4A913C
p120
sVprofile_image_url
p121
Vhttp://pbs.twimg.com/profile_images/378800000329644683/bdc347d7d728c6d20f7ee328d21e09aa_normal.jpeg
p122
sVfollowing
p123
NsVgeo_enabled
p124
I01
sVprofile_banner_url
p125
Vhttps://pbs.twimg.com/profile_banners/436707351/1433910415
p126
sVprofile_background_image_url
p127
Vhttp://pbs.twimg.com/profile_background_images/438678496059998209/rky_6nhH.jpeg
p128
sg86
VStockPicker908
p129
sg106
Ven
p130
sVprofile_background_tile
p131
I01
sVfavourites_count
p132
I1006
sg88
Vtom renna
p133
sVnotifications
p134
Nsg23
Vhttp://t.co/5vfrJ5GnK8
p135
sg108
VWed Dec 14 13:32:35 +0000 2011
p136
sVcontributors_enabled
p137
I00
sVtime_zone
p138
VEastern Time (US & Canada)
p139
sVprotected
p140
I00
sVdefault_profile
p141
I00
sVis_translator
p142
I00
ssS'contributors_enabled'
p143
I00
sS'profile_text_color'
p144
g51
sS'followers_count'
p145
I521
sS'profile_sidebar_border_color'
p146
g57
sS'id_str'
p147
g59
sS'default_profile_image'
p148
I00
sS'listed_count'
p149
I34
sS'status'
p150
g8
(ctweepy.models
Status
p151
g10
Ntp152
Rp153
(dp154
S'favorited'
p155
I00
sS'contributors'
p156
NsS'truncated'
p157
I00
sS'text'
p158
g68
sS'source_url'
p159
Vhttp://twitter.com
p160
sS'possibly_sensitive'
p161
I00
sS'in_reply_to_status_id'
p162
NsS'geo'
p163
Nsg19
L666614559491272704L
sS'favorite_count'
p164
I0
sS'lang'
p165
g107
sg21
g75
sS'created_at'
p166
cdatetime
datetime
p167
(S'\x07\xdf\x0b\x11\r3\n\x00\x00\x00'
p168
tp169
Rp170
sg40
g64
sS'coordinates'
p171
NsS'in_reply_to_user_id_str'
p172
NsS'source'
p173
VTwitter Web Client
p174
sS'in_reply_to_status_id_str'
p175
NsS'in_reply_to_screen_name'
p176
Nsg147
g99
sS'retweeted'
p177
I00
sS'place'
p178
NsS'retweet_count'
p179
I0
sS'in_reply_to_user_id'
p180
NsbsS'is_translation_enabled'
p181
I00
sS'utc_offset'
p182
I-18000
sS'statuses_count'
p183
I8541
sS'description'
p184
g115
sS'friends_count'
p185
I347
sS'location'
p186
g118
sS'profile_link_color'
p187
g120
sS'profile_image_url'
p188
g122
sS'notifications'
p189
NsS'geo_enabled'
p190
I01
sS'profile_background_color'
p191
g61
sS'profile_banner_url'
p192
g126
sS'profile_background_image_url'
p193
g128
sS'screen_name'
p194
g129
sg165
g130
sg1
I00
sS'profile_background_tile'
p195
I01
sS'favourites_count'
p196
I1006
sS'name'
p197
g133
sS'url'
p198
g135
sg166
g167
(S'\x07\xdb\x0c\x0e\r #\x00\x00\x00'
p199
tp200
Rp201
sS'profile_background_image_url_https'
p202
g48
sS'time_zone'
p203
g139
sS'protected'
p204
I00
sS'default_profile'
p205
I00
sS'is_translator'
p206
I00
sbs.