(dp0
S'following'
p1
(lp2
(lp3
I238581630
aI140593969
aI385096134
aI9695312
aI250362250
aI1369614386
aI360685668
aI48486244
aI575889578
aI538711854
aI73782019
aI1297336626
aI443425235
aI429909272
aI299364430
aI165503959
aI27814665
aI59166197
aI15307727
aL3300869821L
aI14377584
aI43111757
aI24775410
aI41003633
aI33846451
aI64844802
aI185808487
aI53215424
aI91478624
aL2888729354L
aI22330739
aI246444102
aI236953420
aL3657147557L
aI41140372
aL3984807149L
aI481607218
aI498392326
aI15897179
aI11626052
aL2836451415L
aI13824412
aI18948541
aI46237849
aI10202
aI8453452
aI376249618
aI40587059
aI349249475
aI259725229
aI1386338574
aL3947481623L
aL2961578114L
aL2482710715L
aI61661638
aI627695874
aI36110149
aL2342215530L
aI15296897
aI227822148
aI128241358
aL2679055230L
aI20068679
aI136862815
aI122208388
aI24713327
aI17226114
aI1394399438
aI375656120
aL3409500819L
aL3046987561L
aL2203769940L
aI20571756
aI1154945172
aI422705503
aI317826655
aL2396531562L
aI21606457
aI100154514
aL3031272246L
aI309940093
aI241777816
aI16475896
aI214275273
aI747839485
aI253390262
aL2833107434L
aI583724410
aI236377257
aI469523426
aI35551926
aI44144706
aI44060322
aI26345490
aI16248319
aI17151344
aI49605610
aI1705766478
aI75304097
aI1129324334
aI23633023
aL2450454150L
aI273984441
aI65483021
aI278639186
aI267768064
aI424323309
aI17904829
aI31399121
aI19576991
aI1869471378
aI768900236
aI260230248
aI539137467
aI85253884
aI22522178
aI1636590253
aI16798109
aI12742212
aI332617373
aI221838349
aI20562637
aI742143
aI5402612
aI15108702
aI23484039
aI28162128
aI69620713
aI595822244
aL2440446554L
aI172836249
aI483577021
aI121158213
aI248900032
aI28369153
aI282123511
aI222436278
aI19955575
aI14854462
aI20386617
aI22085184
aI1496971
aI408484701
aI13735782
aI59916471
aI65577676
aI114782468
aI17549691
aI25330246
aI241789496
aI5943622
aI387887225
aI1534167900
aI262763182
aI104367241
aI175266735
aI137066519
aI3108351
aI21328656
aI44196397
aI168631912
aI1364930179
aI16910406
aI574857684
aI468583731
aI15905925
aI21370989
aI14240065
aI40288377
aI16225240
aI29844055
aI220086346
aI17740885
aI25421094
aI14292717
aI16004376
aI14687772
aI23561980
aI17622474
aI14115408
aI35002876
aI16184358
aI20567939
aI16461545
aI6730222
aI15319698
aI288956125
aI118407843
aI217531979
aI16732770
aI15281391
aI106498703
aI21228708
aI8320242
aI14939981
aI36289217
aI15962388
aI25110374
aI22190585
aI338084918
aI23835270
aI96829836
aI149726145
aI16242081
aI21358655
aI101935800
aI56871360
aI26574283
aI14385046
aI14229928
aI13264142
aI54879118
aI790205
aI93957809
aI50393960
aI657863
aI42226885
aI5746452
aI50940456
aI13
aI749963
aI6708952
aI8161232
aI221568664
aI318677697
aI462288557
aI171555329
aI454749787
aI381998669
aI552127175
aI461494812
aI436358680
aI20402945
aI1754641
aI11912362
aI34713362
aI16827489
aI5988062
aI19546277
aI19397785
aI19058681
aI16228398
aI32453930
aI17461978
aI35936474
aI23083404
aI31927467
aI116362700
aI17560096
aI29547045
aI22940219
aI27195114
aI29330030
aI18858395
aI23756134
aI356800344
aI18639734
aI169686021
aI127249991
aI194137231
aI17513682
aI18378349
aI235322186
aI23059499
aI19224439
aI14250809
aI40909981
aI69875528
aI756129
aI9810192
aI1724401
aI22255654
aI5968272
aI15110357
aI18949452
aI624413
aI15568127
aI4898091
aI14749070
aI25027806
aI18222378
aI18220175
aI45203497
aI22658011
aI19671129
aI35831704
aI72073289
aI14216123
aI14276189
aI2837841
aI14886375
aI133808487
aasS'followers'
p4
(lp5
(lp6
L3904482673L
aI218482249
aL4191499035L
aI93294948
aL2878533622L
aL4108364716L
aL3832320674L
aL3373197444L
aL4131307752L
aL2588062514L
aL3298428356L
aI393641648
aL3671672247L
aL3139990918L
aI1244047045
aL3099926523L
aL4165511779L
aI24411256
aI1629244514
aI250362250
aI1369614386
aI1924312855
aI1487502889
aI1861663298
aI48486244
aI1297336626
aI1964214006
aI275682405
aL2485076407L
aL3211615624L
aI253386524
aI232487911
aI299364430
aL3222431790L
aL3152708218L
aL3605148390L
aL2527494464L
aI1964214570
aI23959413
aI817136666
aL2576692186L
aI232966858
aI43111757
aI14377584
aI385337150
aL3518589553L
aL3796186942L
aI36140198
aL2477718558L
aL2965242904L
aL2647522825L
aI905960539
aI334331683
aI9555372
aI55207986
aL3264704008L
aI425192466
aL2325605352L
aI1923926642
aI220266778
aL3317055180L
aL2467326104L
aL3904675502L
aL4073471472L
aI116909103
aI1382336750
aI1923947209
aI498392326
aI15897179
aI211800056
aL3523301232L
aI17010913
aI396999574
aI1386338574
aI40587059
aL4032676815L
aL3947481623L
aL2957596833L
aI981334892
aL2203769940L
aI429909272
aI153553542
aI32554593
aL3385205086L
aI292067642
aL2853455963L
aL3438571209L
aI17226114
aL3388410448L
aI27911807
aL3423630556L
aL2949986344L
aL3421627696L
aI277011413
aL3405031457L
aI56434584
aL3293436272L
aL3287746916L
aL2866117489L
aL3374961497L
aL3061381125L
aL2227688395L
aL3156144905L
aL2211449521L
aI417954270
aL2151875748L
aI577159294
aL3331585270L
aI124596859
aI26507146
aI492694708
aL3290760196L
aL2928435513L
aI126782516
aI876310196
aI130242671
aL2173992230L
aI1877943349
aL2951523228L
aL3102413539L
aL2566500632L
aL2798893836L
aL3020444953L
aL2922115476L
aL2938631995L
aL2914529223L
aI27553172
aI140741484
aL2825834506L
aI35005340
aI630450037
aI16248319
aI100154514
aI355471469
aI8191362
aI1705766478
aI335740993
aI394493930
aI1376726258
aI26345490
aL2450454150L
aI27606553
aI434098372
aI263420236
aI278639186
aI168912913
aL2511570714L
aI243331655
aI33161614
aI54879118
aI1607773544
aI82697242
aL2499548304L
aI15738599
aI768900236
aI613543027
aI147759481
aL2433698185L
aL2392484990L
aL2361174996L
aI38793405
aL2345252392L
aI52792454
aI22870443
aI121158213
aI483577021
aL2464211558L
aI28369153
aI84708371
aL2389473716L
aI506848527
aL2382702458L
aI282123511
aI105570086
aI14886375
aI97257162
aI741406254
aI304597194
aI59916471
aI65589378
aI65577676
aI180496593
aL2321473584L
aI270371271
aI278759360
aL2434508924L
aI42981724
aI113043981
aI612780847
aI15281391
aL2285486156L
aI188332836
aL2409820447L
aI1469491268
aI491720731
aI16845223
aL2383750123L
aI253010836
aI75492136
aI3382
aI516644169
aI387887225
aI1154837850
aI50787961
aI61678867
aI227711751
aI1923460038
aI1646569885
aI168631912
aI1433448487
aI76460079
aI1578354762
aI166382456
aI1106582940
aI37178703
aI223570419
aI1525593343
aI1533653216
aI1466531401
aI321353153
aI520537640
aI1263423978
aI184823127
aI85478752
aI1210410956
aI290163305
aI763717914
aI763712816
aI763713493
aI763666430
aI97317558
aI25277152
aI613543772
aI462388251
aI25800155
aI737055302
aI479207868
aI15733436
aI35808840
aI635765145
aI901520294
aI972869336
aI111024014
aI17222634
aI912037328
aI26247518
aI367619482
aI17013973
aI799407067
aI40050816
aI618084625
aI844191608
aI368700630
aI821756912
aI821698230
aI552765250
aI21958792
aI351990993
aI81160050
aI834506581
aI300464415
aI28506139
aI280445345
aI118890985
aI449046896
aI277825862
aI462288557
aI20803798
aI87474270
aI435848095
aI374638659
aI18123693
aI175266735
aI137066519
aI461494812
aI32865892
aI726728378
aI27069235
aI141783486
aI722768250
aI436358680
aI259572637
aI54712862
aI471694604
aI436682533
aI337079805
aI74185959
aI482415608
aI35572112
aI454749787
aI17139109
aI452682717
aI434279995
aI356800344
aI265880558
aI437134732
aI414124933
aI442320509
aI442347723
aI442347551
aI255135835
aI431879069
aI37726956
aI398818716
aI389236377
aI403694905
aI311842908
aI250195134
aI256118012
aI239574347
aI366309036
aI379154414
aI18936639
aI430201626
aI339097827
aI69875528
aI127249991
aI129197440
aI324541839
aI213196712
aI255126580
aI377842409
aI425626614
aI431035583
aI382005383
aI338811513
aasS'obj'
p7
ccopy_reg
_reconstructor
p8
(ctweepy.models
User
p9
c__builtin__
object
p10
Ntp11
Rp12
(dp13
S'follow_request_sent'
p14
I00
sS'has_extended_profile'
p15
I00
sS'profile_use_background_image'
p16
I01
sS'profile_sidebar_fill_color'
p17
VDDEEF6
p18
sS'id'
p19
I436799344
sS'verified'
p20
I00
sS'entities'
p21
(dp22
Vdescription
p23
(dp24
Vurls
p25
(lp26
sssS'profile_image_url_https'
p27
Vhttps://pbs.twimg.com/profile_images/664182154348376064/DBNVncdx_normal.jpg
p28
sS'_json'
p29
(dp30
Vfollow_request_sent
p31
I00
sVhas_extended_profile
p32
I00
sVprofile_use_background_image
p33
I01
sVdefault_profile_image
p34
I00
sVid
p35
I436799344
sVprofile_background_image_url_https
p36
Vhttps://pbs.twimg.com/profile_background_images/713453476/46c3a446b5f82dcfe8c19718787fc918.jpeg
p37
sVverified
p38
I00
sVprofile_text_color
p39
V333333
p40
sVprofile_image_url_https
p41
g28
sVprofile_sidebar_fill_color
p42
g18
sVentities
p43
g22
sVfollowers_count
p44
I326
sVprofile_sidebar_border_color
p45
VFFFFFF
p46
sVid_str
p47
V436799344
p48
sVprofile_background_color
p49
VE6E6E6
p50
sVlisted_count
p51
I21
sVstatus
p52
(dp53
Vcontributors
p54
NsVtruncated
p55
I00
sVtext
p56
VRT @newswithvalue: $WDAY:\u000a\u000aRBC Capital Maintains Workday (WDAY) to Outperform with Price \u2026:\u000a\u000ahttps://t.co/BZWgrDBf6i
p57
sVin_reply_to_status_id
p58
Nsg35
L666513301036244992L
sVfavorite_count
p59
I0
sVsource
p60
V<a href="http://twitter.com/download/android" rel="nofollow">Twitter for Android</a>
p61
sVretweeted
p62
I00
sVcoordinates
p63
Nsg43
(dp64
Vsymbols
p65
(lp66
(dp67
Vindices
p68
(lp69
I19
aI24
asg56
VWDAY
p70
sasVuser_mentions
p71
(lp72
(dp73
g35
L2342215530L
sg68
(lp74
I3
aI17
asg47
V2342215530
p75
sVscreen_name
p76
Vnewswithvalue
p77
sVname
p78
VBreaking News Now
p79
sasVhashtags
p80
(lp81
sg25
(lp82
(dp83
Vurl
p84
Vhttps://t.co/BZWgrDBf6i
p85
sg68
(lp86
I93
aI116
asVexpanded_url
p87
Vhttp://StockNewsHour.com/wday-rbc-capital-maintains-workday-wday-to-outperform-with-price/
p88
sVdisplay_url
p89
VStockNewsHour.com/wday-rbc-capit\u2026
p90
sassVin_reply_to_screen_name
p91
Nsg47
V666513301036244992
p92
sVretweet_count
p93
I1
sVin_reply_to_user_id
p94
NsVfavorited
p95
I00
sVretweeted_status
p96
(dp97
g54
Nsg55
I00
sg56
V$WDAY:\u000a\u000aRBC Capital Maintains Workday (WDAY) to Outperform with Price \u2026:\u000a\u000ahttps://t.co/BZWgrDBf6i
p98
sg58
Nsg35
L666511875601997824L
sg59
I0
sg60
V<a href="http://www.newsflowing.com" rel="nofollow">NFIG</a>
p99
sg62
I00
sg63
Nsg43
(dp100
g65
(lp101
(dp102
g68
(lp103
I0
aI5
asg56
VWDAY
p104
sasg71
(lp105
sg80
(lp106
sg25
(lp107
(dp108
g84
Vhttps://t.co/BZWgrDBf6i
p109
sg68
(lp110
I74
aI97
asg87
Vhttp://StockNewsHour.com/wday-rbc-capital-maintains-workday-wday-to-outperform-with-price/
p111
sg89
VStockNewsHour.com/wday-rbc-capit\u2026
p112
sassg91
Nsg47
V666511875601997824
p113
sg93
I1
sg94
Nsg95
I00
sVgeo
p114
NsVin_reply_to_user_id_str
p115
NsVpossibly_sensitive
p116
I00
sVlang
p117
Ven
p118
sVcreated_at
p119
VTue Nov 17 07:03:08 +0000 2015
p120
sVin_reply_to_status_id_str
p121
NsVplace
p122
Nssg114
Nsg115
Nsg116
I00
sg117
Ven
p123
sg119
VTue Nov 17 07:08:48 +0000 2015
p124
sg121
Nsg122
NssVis_translation_enabled
p125
I00
sVutc_offset
p126
I-18000
sVstatuses_count
p127
I7287
sg23
VTurning Hip Hop Stocks, \u000ainto Wall Street Success! \u000aHip Hop Stocks L.L.C. \u000aHip Hop has 50 Million Members\u000a\u000a$1 Trillion in buying power.
p128
sVfriends_count
p129
I292
sVlocation
p130
VWorldwide!
p131
sVprofile_link_color
p132
V000000
p133
sVprofile_image_url
p134
Vhttp://pbs.twimg.com/profile_images/664182154348376064/DBNVncdx_normal.jpg
p135
sVfollowing
p136
I00
sVgeo_enabled
p137
I00
sVprofile_banner_url
p138
Vhttps://pbs.twimg.com/profile_banners/436799344/1447628103
p139
sVprofile_background_image_url
p140
Vhttp://pbs.twimg.com/profile_background_images/713453476/46c3a446b5f82dcfe8c19718787fc918.jpeg
p141
sg76
Vhiphopstocks
p142
sg117
Ven
p143
sVprofile_background_tile
p144
I01
sVfavourites_count
p145
I393
sg78
VWall Street Hip Hop
p146
sVnotifications
p147
I00
sg84
Nsg119
VWed Dec 14 16:00:14 +0000 2011
p148
sVcontributors_enabled
p149
I00
sVtime_zone
p150
VEastern Time (US & Canada)
p151
sVprotected
p152
I00
sVdefault_profile
p153
I00
sVis_translator
p154
I00
ssS'contributors_enabled'
p155
I00
sS'profile_text_color'
p156
g40
sS'followers_count'
p157
I326
sS'profile_sidebar_border_color'
p158
g46
sS'id_str'
p159
g48
sS'default_profile_image'
p160
I00
sS'listed_count'
p161
I21
sS'status'
p162
g8
(ctweepy.models
Status
p163
g10
Ntp164
Rp165
(dp166
S'favorited'
p167
I00
sS'contributors'
p168
NsS'truncated'
p169
I00
sS'text'
p170
VRT @newswithvalue: $WDAY:\u000a\u000aRBC Capital Maintains Workday (WDAY) to Outperform with Price \u2026:\u000a\u000ahttps://t.co/BZWgrDBf6i
p171
sS'source_url'
p172
Vhttp://twitter.com/download/android
p173
sS'possibly_sensitive'
p174
I00
sS'in_reply_to_status_id'
p175
NsS'geo'
p176
Nsg19
L666513301036244992L
sS'favorite_count'
p177
I0
sS'lang'
p178
g123
sS'retweeted_status'
p179
g8
(g163
g10
Ntp180
Rp181
(dp182
g167
I00
sg168
Nsg169
I00
sg170
V$WDAY:\u000a\u000aRBC Capital Maintains Workday (WDAY) to Outperform with Price \u2026:\u000a\u000ahttps://t.co/BZWgrDBf6i
p183
sg172
Vhttp://www.newsflowing.com
p184
sg174
I00
sg175
Nsg176
Nsg19
L666511875601997824L
sg177
I0
sg178
g118
sg21
g100
sS'created_at'
p185
cdatetime
datetime
p186
(S'\x07\xdf\x0b\x11\x07\x03\x08\x00\x00\x00'
p187
tp188
Rp189
sg29
g97
sS'coordinates'
p190
NsS'in_reply_to_user_id_str'
p191
NsS'source'
p192
VNFIG
p193
sS'in_reply_to_status_id_str'
p194
NsS'in_reply_to_screen_name'
p195
Nsg159
g113
sS'retweeted'
p196
I00
sS'place'
p197
NsS'retweet_count'
p198
I1
sS'in_reply_to_user_id'
p199
Nsbsg21
g64
sg185
g186
(S'\x07\xdf\x0b\x11\x07\x080\x00\x00\x00'
p200
tp201
Rp202
sg29
g53
sg190
Nsg191
Nsg192
VTwitter for Android
p203
sg194
Nsg195
Nsg159
g92
sg196
I00
sg197
Nsg198
I1
sg199
NsbsS'is_translation_enabled'
p204
I00
sS'utc_offset'
p205
I-18000
sS'statuses_count'
p206
I7287
sS'description'
p207
VTurning Hip Hop Stocks, \u000ainto Wall Street Success! \u000aHip Hop Stocks L.L.C. \u000aHip Hop has 50 Million Members\u000a\u000a$1 Trillion in buying power.
p208
sS'friends_count'
p209
I292
sS'location'
p210
g131
sS'profile_link_color'
p211
g133
sS'profile_image_url'
p212
g135
sS'notifications'
p213
I00
sS'geo_enabled'
p214
I00
sS'profile_background_color'
p215
g50
sS'profile_banner_url'
p216
g139
sS'profile_background_image_url'
p217
g141
sS'screen_name'
p218
g142
sg178
g143
sg1
I00
sS'profile_background_tile'
p219
I01
sS'favourites_count'
p220
I393
sS'name'
p221
g146
sS'url'
p222
Nsg185
g186
(S'\x07\xdb\x0c\x0e\x10\x00\x0e\x00\x00\x00'
p223
tp224
Rp225
sS'profile_background_image_url_https'
p226
g37
sS'time_zone'
p227
g151
sS'protected'
p228
I00
sS'default_profile'
p229
I00
sS'is_translator'
p230
I00
sbs.