(dp0
S'following'
p1
(lp2
(lp3
I129939890
aI14085070
aL2192408730L
aI90544961
aI1924312855
aI166103095
aI181426642
aL3131519945L
aI1281844824
aI380104286
aI15428397
aI514781725
aL2752355256L
aL2286920017L
aI1564429700
aI346433456
aI76966092
aI1376602561
aI402596222
aI224778333
aL2969803301L
aI30245510
aL2929324307L
aL2931154869L
aI267815352
aI61550723
aI33014441
aI19597908
aL3241943533L
aL2991839630L
aI29208414
aI161372707
aI14687741
aI16564580
aI353457568
aI346721189
aI1433910990
aI93655345
aL2953437898L
aI111207319
aI39952775
aI17197344
aI540951393
aI262935568
aI47650331
aI17236217
aI8963722
aI13787402
aI275686563
aI60642052
aL2532942559L
aI25950355
aI27013292
aI44418062
aL2918339181L
aI47678782
aI71210524
aI274233761
aI102527566
aL2534664916L
aI1588976107
aI429169198
aI32615991
aI466062053
aI86626845
aI275690183
aI575796665
aI632341632
aI1344951
aI2890961
aI816653
aI23642374
aI47964412
aI140912249
aI243801041
aI14292717
aI39264827
aI22522178
aI555493986
aI18294275
aI44438256
aI5746452
aI169489285
aI244969675
aI6527972
aI23330343
aI56121651
aI48110818
aI46145761
aI41650624
aI5252591
aI22877733
aasS'followers'
p4
(lp5
(lp6
L2966527019L
aL3686635097L
aL4126237583L
aL2192408730L
aL3700970361L
aL3199966653L
aI166103095
aI1924312855
aI90544961
aI1861663298
aI181426642
aI1281844824
aI145062108
aL3131519945L
aI362915200
aL3733014740L
aI380104286
aI1364657870
aI844389278
aI1945085910
aL3255332046L
aI24330853
aL2752355256L
aL3171873773L
aI890088571
aL2286920017L
aI838789050
aI19010961
aI1564429700
aI1370362818
aI346433456
aI76966092
aI1376602561
aI108607339
aL3131224419L
aI402596222
aI224778333
aL2969803301L
aI402876893
aI30245510
aL2929324307L
aL2931154869L
aI51341059
aL2314478967L
aI267815352
aI33014441
aL2349355000L
aI37599351
aI19597908
aL3241943533L
aL2991839630L
aI29208414
aL2445777054L
aI433134446
aI85436137
aI467066383
aI16564580
aI353457568
aI346721189
aL3296102923L
aL2327430428L
aI864741392
aI93655345
aL2987831295L
aL2266956253L
aL2898526274L
aI33292567
aI39952775
aL2149752678L
aL2857632877L
aL2614996071L
aI111207319
aI262935568
aL2149554923L
aL3173339008L
aL2742682237L
aI1648506408
aL3188262614L
aL2744996868L
aI22998694
aL3156828167L
aI12962312
aI1433671309
aL3195500800L
aI1164477524
aL3083687831L
aI356333494
aL2918339181L
aL2997788563L
aI20009578
aL2297810047L
aL3135683812L
aI1475745116
aI48110818
aI223678784
aI427710747
aL2534664916L
aI1617053174
aL3034687258L
aL2917093862L
aI250317700
aL2911070687L
aL2429522737L
aI43751586
aL2809836559L
aL2653015388L
aI23161106
aL2699722675L
aL2724436802L
aI35493761
aI185917360
aI1076559277
aI30967190
aL2730473843L
aL2643780234L
aL2528104688L
aL2587800410L
aI457831418
aI36293963
aI25489197
aL2342330640L
aI52154040
aI280255434
aI58404128
aI247788883
aI707563142
aI515542041
aI388091876
aI184993804
aL2470883774L
aI48706362
aI429169198
aI203981879
aI184548177
aI159530589
aI25706118
aI19084583
aI260856314
aI24732019
aI764723516
aL2156871641L
aI172678444
aI177154444
aI228906743
aI1359377120
aI257491812
aI24181284
aI172074865
aI633285508
aI575796665
aI17480298
aI449128723
aI915109064
aI1076500188
aI238003441
aI26903825
aI207808058
aI189759857
aI27170537
aI1482587328
aI279203549
aI522343410
aI551427994
aI555493986
aI34837514
aI161760790
aI22877733
aasS'obj'
p7
ccopy_reg
_reconstructor
p8
(ctweepy.models
User
p9
c__builtin__
object
p10
Ntp11
Rp12
(dp13
S'follow_request_sent'
p14
NsS'has_extended_profile'
p15
I00
sS'profile_use_background_image'
p16
I01
sS'profile_sidebar_fill_color'
p17
VDDEEF6
p18
sS'id'
p19
I463177571
sS'verified'
p20
I00
sS'entities'
p21
(dp22
Vurl
p23
(dp24
Vurls
p25
(lp26
(dp27
g23
Vhttp://t.co/d2oLrTJO7L
p28
sVindices
p29
(lp30
I0
aI22
asVexpanded_url
p31
Vhttp://seekingalpha.com/author/marty-chilberg/instablog
p32
sVdisplay_url
p33
Vseekingalpha.com/author/marty-c\u2026
p34
sassVdescription
p35
(dp36
g25
(lp37
sssS'profile_image_url_https'
p38
Vhttps://pbs.twimg.com/profile_images/460107361525329920/jXN4tufO_normal.jpeg
p39
sS'_json'
p40
(dp41
Vfollow_request_sent
p42
NsVhas_extended_profile
p43
I00
sVprofile_use_background_image
p44
I01
sVdefault_profile_image
p45
I00
sVid
p46
I463177571
sVprofile_background_image_url_https
p47
Vhttps://abs.twimg.com/images/themes/theme1/bg.png
p48
sVverified
p49
I00
sVprofile_text_color
p50
V333333
p51
sVprofile_image_url_https
p52
g39
sVprofile_sidebar_fill_color
p53
g18
sVentities
p54
g22
sVfollowers_count
p55
I167
sVprofile_sidebar_border_color
p56
VC0DEED
p57
sVid_str
p58
V463177571
p59
sVprofile_background_color
p60
VC0DEED
p61
sVlisted_count
p62
I118
sVstatus
p63
(dp64
Vlang
p65
Ven
p66
sVfavorited
p67
I00
sg54
(dp68
Vsymbols
p69
(lp70
(dp71
g29
(lp72
I34
aI39
asVtext
p73
VSQNM
p74
sa(dp75
g29
(lp76
I50
aI55
asg73
VNTRA
p77
sasVuser_mentions
p78
(lp79
sVhashtags
p80
(lp81
sg25
(lp82
ssVcontributors
p83
NsVtruncated
p84
I00
sg73
VThinking about a pairs trade long $SQNM and short $NTRA.  Natera is still on the path Sequenom has now left re: unreimb testing
p85
sVcreated_at
p86
VMon Nov 16 16:11:38 +0000 2015
p87
sVretweeted
p88
I00
sVin_reply_to_status_id_str
p89
NsVcoordinates
p90
NsVin_reply_to_user_id_str
p91
NsVsource
p92
V<a href="http://twitter.com" rel="nofollow">Twitter Web Client</a>
p93
sVin_reply_to_status_id
p94
NsVin_reply_to_screen_name
p95
Nsg58
V666287520297058304
p96
sVplace
p97
NsVretweet_count
p98
I0
sVgeo
p99
Nsg46
L666287520297058304L
sVfavorite_count
p100
I1
sVin_reply_to_user_id
p101
NssVis_translation_enabled
p102
I00
sVutc_offset
p103
I-25200
sVstatuses_count
p104
I2645
sg35
VSeahawks & Bears.  Red Wine preferred.  Fundamentals but trade bio's.  Golf when I can find the ball.
p105
sVfriends_count
p106
I92
sVlocation
p107
VBellevue, WA
p108
sVprofile_link_color
p109
V0084B4
p110
sVprofile_image_url
p111
Vhttp://pbs.twimg.com/profile_images/460107361525329920/jXN4tufO_normal.jpeg
p112
sVfollowing
p113
NsVgeo_enabled
p114
I00
sVprofile_background_image_url
p115
Vhttp://abs.twimg.com/images/themes/theme1/bg.png
p116
sVscreen_name
p117
Vmchilberg
p118
sg65
Ven
p119
sVprofile_background_tile
p120
I00
sVfavourites_count
p121
I242
sVname
p122
VMarty Chilberg
p123
sVnotifications
p124
Nsg23
Vhttp://t.co/d2oLrTJO7L
p125
sg86
VFri Jan 13 20:24:48 +0000 2012
p126
sVcontributors_enabled
p127
I00
sVtime_zone
p128
VArizona
p129
sVprotected
p130
I00
sVdefault_profile
p131
I01
sVis_translator
p132
I00
ssS'contributors_enabled'
p133
I00
sS'profile_text_color'
p134
g51
sS'followers_count'
p135
I167
sS'profile_sidebar_border_color'
p136
g57
sS'id_str'
p137
g59
sS'default_profile_image'
p138
I00
sS'listed_count'
p139
I118
sS'status'
p140
g8
(ctweepy.models
Status
p141
g10
Ntp142
Rp143
(dp144
S'favorited'
p145
I00
sS'contributors'
p146
NsS'truncated'
p147
I00
sS'text'
p148
g85
sS'source_url'
p149
Vhttp://twitter.com
p150
sS'in_reply_to_status_id'
p151
NsS'geo'
p152
Nsg19
L666287520297058304L
sS'favorite_count'
p153
I1
sS'lang'
p154
g66
sg21
g68
sS'created_at'
p155
cdatetime
datetime
p156
(S'\x07\xdf\x0b\x10\x10\x0b&\x00\x00\x00'
p157
tp158
Rp159
sg40
g64
sS'coordinates'
p160
NsS'in_reply_to_user_id_str'
p161
NsS'source'
p162
VTwitter Web Client
p163
sS'in_reply_to_status_id_str'
p164
NsS'in_reply_to_screen_name'
p165
Nsg137
g96
sS'retweeted'
p166
I00
sS'place'
p167
NsS'retweet_count'
p168
I0
sS'in_reply_to_user_id'
p169
NsbsS'is_translation_enabled'
p170
I00
sS'utc_offset'
p171
I-25200
sS'statuses_count'
p172
I2645
sS'description'
p173
g105
sS'friends_count'
p174
I92
sS'location'
p175
g108
sS'profile_link_color'
p176
g110
sS'profile_image_url'
p177
g112
sS'notifications'
p178
NsS'geo_enabled'
p179
I00
sS'profile_background_color'
p180
g61
sS'profile_background_image_url'
p181
g116
sS'screen_name'
p182
g118
sg154
g119
sg1
I00
sS'profile_background_tile'
p183
I00
sS'favourites_count'
p184
I242
sS'name'
p185
g123
sS'url'
p186
g125
sg155
g156
(S'\x07\xdc\x01\r\x14\x180\x00\x00\x00'
p187
tp188
Rp189
sS'profile_background_image_url_https'
p190
g48
sS'time_zone'
p191
g129
sS'protected'
p192
I00
sS'default_profile'
p193
I01
sS'is_translator'
p194
I00
sbs.