(dp0
S'following'
p1
(lp2
(lp3
I44999727
aI135351670
aI16450292
aI326054696
aI16067035
aI62889225
aI16155586
aI285773673
aI163430184
aI19575406
aI119802433
aI896221
aI21061259
aI18249084
aI12615582
aI22873424
aI14326090
aI522489747
aI15568127
aL3017654325L
aI16583846
aI20542450
aI14861285
aL2307675307L
aI17104751
aI19090219
aI36396550
aI16340571
aI412603357
aL3949799062L
aI372548499
aI23036385
aI14500993
aI14892839
aI14539324
aI3496641
aI386175411
aI14616957
aI21982720
aI8962882
aI19040598
aI14626496
aI18427900
aI20263710
aI15469101
aI6642152
aI202003
aI14115912
aI16246929
aI16242081
aI7745472
aI10454572
aI1236101
aI2195241
aI15958614
aL2786302236L
aI15293504
aI24421464
aI215309395
aI75706915
aL2207972657L
aI17350542
aI34977164
aI183749519
aI15825547
aI41078332
aI25568187
aI8099262
aI36773483
aI234135259
aI155317806
aI272469786
aI36098873
aI577212618
aI67378195
aI29271892
aI59386332
aI419123518
aI1345240902
aL3784991359L
aL3871288941L
aI14922740
aL2423989879L
aL3825541709L
aI8162302
aI14404427
aI1966282008
aL3010965342L
aI97012706
aI222691723
aL3667177457L
aI3819701
aI18155505
aL2801997228L
aI435111357
aI382685028
aI792338988
aI15442689
aI534756259
aI267908574
aI14618805
aI29735775
aI289502013
aI267283568
aI16319797
aI18994444
aI201846344
aI68449292
aI1504196406
aI62178427
aI492533551
aI49165567
aI21464305
aI89551657
aI175500549
aI103141738
aI180735196
aI11300082
aI417366772
aL2828434820L
aI26914403
aI23621993
aI15145507
aI33656176
aI66918585
aI849979362
aL2347280558L
aI21764726
aI37781849
aI29329674
aI500704345
aL2174219034L
aI101803450
aI222736897
aI266887195
aL2369976187L
aI431525588
aI256754533
aI269556490
aI22518183
aI5392522
aI140556011
aI6017542
aI1652541
aI265973270
aI89434927
aI214392785
aI250090860
aI20141939
aI123580666
aI214049458
aI42623930
aI39601084
aI72913592
aL2200368961L
aI224439499
aI46859971
aI262137017
aI45831321
aI196558317
aL2351316419L
aI712546718
aI15646238
aI75051887
aI1738681524
aI809760
aI386788466
aI22872643
aI191678703
aI898124258
aI14166714
aI159121042
aI16298441
aI30211023
aI20860169
aI25806962
aI20355415
aI207814967
aI91483468
aI449312711
aI23862337
aI299761896
aI58832970
aI260406642
aI38717077
aI93023083
aI56558568
aI20012063
aI428333
aI26257024
aI352947624
aI3108351
aI1516298550
aI227017108
aI95431448
aI175888835
aI388873237
aI972651
aI19637934
aI811377
aI5695632
aI22084427
aI15626145
aI398112519
aI227573958
aI17173775
aI133957823
aI153470677
aI469517478
aI458590241
aI6427882
aI386194881
aI62771079
aI44975964
aI277596517
aI21761683
aI273374265
aI19920360
aI15196761
aI224006727
aI759251
aI14920785
aI17008726
aI816653
aI384953260
aI31206614
aI14353392
aI162611402
aI284791144
aI62858030
aI116362700
aI17242874
aI31974883
aI627801611
aI15846407
aI57475538
aI230793248
aI378847985
aI55946383
aI354267162
aI285995005
aI807095
aI20460105
aI50374439
aI9481382
aI1407963324
aI53153263
aI14819891
aI17909306
aI278778939
aI35111977
aI34097876
aI32340805
aI202405441
aI21812693
aI17093617
aI26565946
aI17919972
aI25521487
aI21324258
aI35015768
aI16825289
aI66699013
aI259379883
aI15693493
aI6173842
aI21148293
aI355743494
aI18227068
aI106837463
aI66561957
aI119810237
aI15131310
aI27195114
aI223575714
aI40497917
aI133825148
aI14511951
aI1329243086
aI89721493
aI15098005
aI586893699
aI25589776
aI42693825
aI25572539
aI179150049
aI36044344
aI107819912
aI114998401
aI334425857
aI408164510
aI14144552
aI112848373
aI209128573
aI351293427
aI114628210
aI100818788
aI348836793
aI18744957
aI35718010
aI95515846
aI287858376
aI62581962
aI276284561
aI124813927
aI21506437
aI286254876
aI175913182
aI224489924
aI347410433
aI286637477
aI124818259
aI12416632
aI98371710
aI182924422
aI130176143
aI225937925
aI24258786
aI238136315
aI25276705
aI25922772
aI42876643
aI48094779
aI19147357
aI24165925
aI62872830
aI25925897
aI145316698
aI140643083
aI213304424
aI203660143
aI27698177
aI18948541
aI208625591
aI80877382
aI19877186
aI20464660
aI18417012
aI86121240
aI23487052
aI55156586
aI16547488
aI18456780
aI94360081
aI28638191
aI21522384
aI30731656
aI3558671
aI140179975
aI95086797
aI16192673
aI83205848
aI23546600
aI104338666
aI29733937
aI18233931
aI19520958
aI17596937
aI42303420
aI16752993
aI81139357
aI76717187
aI16271933
aI14678157
aI16441971
aI31279992
aI22424995
aI25113800
aI48945720
aI29840295
aI19058681
aasS'followers'
p4
(lp5
(lp6
I837274958
aI267390486
aI14445775
aI1923709316
aL3857881819L
aL4138717947L
aI21170191
aI16450292
aI59145708
aL3091521399L
aL4178312975L
aL3363574034L
aI247164424
aL2702045630L
aL2423489562L
aL3220201621L
aL2881731502L
aL3912406872L
aL2750104362L
aI135945569
aI182384817
aI79343232
aI18316059
aI476731128
aI60349138
aI566859182
aI109200080
aL3317418242L
aL2307675307L
aI14836762
aI190895297
aI264962685
aL2734702540L
aL3307458996L
aI19090219
aL2593789177L
aL3781793729L
aI419123518
aL2207972657L
aI75706915
aI34977164
aI17350542
aL3825541709L
aI215309395
aI59386332
aI272469786
aI29271892
aI14404427
aI1345240902
aL3244806213L
aI222691723
aL3667177457L
aI100627679
aL3302808091L
aI25791729
aL3010965342L
aI91372665
aI792338988
aI534756259
aL3114193961L
aI207814967
aI235362301
aL3075684272L
aL2453847912L
aL3030975161L
aI175500549
aI379014822
aI288320142
aI11300082
aI16441971
aI54306634
aI49854541
aI103141738
aI16220957
aI901958852
aL2828434820L
aI15145507
aI23621993
aI26914403
aL2617549148L
aL2310288379L
aI1525486483
aI140232642
aI1153042548
aI37781849
aI29329674
aL2347280558L
aI21764726
aL2287360940L
aL2284539336L
aL2240689002L
aI711053949
aL2310203905L
aL2299801988L
aL2286736848L
aL2200368961L
aI1601790008
aL2351316419L
aI15646238
aI75051887
aI23487052
aI1738681524
aI449312711
aI38717077
aI23862337
aI260406642
aI1516298550
aI1566823477
aI19754262
aI175888835
aI328320925
aI133957823
aI1483392638
aI62771079
aI44975964
aI21761683
aI1408611181
aI384588740
aI14706821
aI291955108
aI9481382
aI273374265
aI19920360
aI162611402
aI62858030
aI766993700
aI285995005
aI100974966
aI1412343715
aI1407963324
aI1329243086
aI1222900716
aI89721493
aI179150049
aI20464660
aI501185438
aI42693825
aI335909138
aI72913592
aI25572539
aI465313072
aI408164510
aI334425857
aI163205140
aI80441181
aI262411511
aI410257603
aI351293427
aI31638008
aI114628210
aI72367042
aI286637477
aI35718010
aI308559283
aI248361126
aI16051035
aI272521978
aI182924422
aI130176143
aI24258786
aI109951805
aI16818325
aI38411131
aI44326187
aI238136315
aI98371710
aI45959489
aI236376168
aI19450490
aI220688220
aI232070457
aI25925897
aI25922772
aI42876643
aI136300535
aI226205342
aI47143412
aI48094779
aI188046377
aI226289875
aI33656176
aI211539508
aI205844038
aI16896356
aI72602024
aI213304424
aI27698177
aI15230754
aI25127724
aI39915980
aI158848967
aI163997019
aI30970704
aI80877382
aI17329717
aI199928346
aI20404822
aI14924401
aI108817905
aI194835217
aI79807452
aI183676198
aI141350954
aI31117752
aI181942174
aI143827460
aI32965016
aI136279013
aI145925821
aI127913393
aI137785773
aI123657077
aI42303420
aI3558671
aI21522384
aI140179975
aI85570685
aI165723712
aI95086797
aI14514258
aI42903370
aI16192673
aI63669011
aI122402038
aI31255174
aI37346901
aI58569487
aI139627339
aI22987625
aI113104625
aI16969042
aI23546600
aI23010207
aI75477381
aI83205848
aI37367169
aI95221702
aI115736568
aI89789645
aI17964726
aI104338666
aI24935708
aI104986174
aI21278966
aI99193400
aI16905036
aI23019003
aI101485856
aI18084709
aI14825096
aI87636127
aI53398599
aI18233931
aI81139357
aI34321727
aI76441551
aI70245777
aI46116615
aI31279992
aI16139070
aI25113800
aI49219860
aI48945720
aI48409404
aasS'obj'
p7
ccopy_reg
_reconstructor
p8
(ctweepy.models
User
p9
c__builtin__
object
p10
Ntp11
Rp12
(dp13
S'follow_request_sent'
p14
NsS'has_extended_profile'
p15
I00
sS'profile_use_background_image'
p16
I00
sS'profile_sidebar_fill_color'
p17
VF1755D
p18
sS'id'
p19
I48895012
sS'verified'
p20
I00
sS'entities'
p21
(dp22
Vurl
p23
(dp24
Vurls
p25
(lp26
(dp27
g23
Vhttp://t.co/aAx5psVHCW
p28
sVindices
p29
(lp30
I0
aI22
asVexpanded_url
p31
Vhttp://www.lizrows.com
p32
sVdisplay_url
p33
Vlizrows.com
p34
sassVdescription
p35
(dp36
g25
(lp37
sssS'profile_image_url_https'
p38
Vhttps://pbs.twimg.com/profile_images/438832929394155520/pYhmjS52_normal.jpeg
p39
sS'_json'
p40
(dp41
Vfollow_request_sent
p42
NsVhas_extended_profile
p43
I00
sVprofile_use_background_image
p44
I00
sVdefault_profile_image
p45
I00
sVid
p46
I48895012
sVprofile_background_image_url_https
p47
Vhttps://pbs.twimg.com/profile_background_images/156463684/x0ed155b1321f67857d2eb7613671f8b.jpg
p48
sVverified
p49
I00
sVprofile_text_color
p50
V140705
p51
sVprofile_image_url_https
p52
g39
sVprofile_sidebar_fill_color
p53
g18
sVentities
p54
g22
sVfollowers_count
p55
I264
sVprofile_sidebar_border_color
p56
VFC0011
p57
sVid_str
p58
V48895012
p59
sVprofile_background_color
p60
V98D9B5
p61
sVlisted_count
p62
I17
sVstatus
p63
(dp64
Vcontributors
p65
NsVtruncated
p66
I00
sVtext
p67
VRT @mikeindustries: Interesting large-scale design thinking experiment at IBM. Execs, PMs, and Eng all getting trained up: https://t.co/T2D\u2026
p68
sVin_reply_to_status_id
p69
Nsg46
L666297512320352256L
sVfavorite_count
p70
I0
sVsource
p71
V<a href="http://twitter.com" rel="nofollow">Twitter Web Client</a>
p72
sVretweeted
p73
I00
sVcoordinates
p74
Nsg54
(dp75
Vsymbols
p76
(lp77
sVuser_mentions
p78
(lp79
(dp80
g46
I74523
sg29
(lp81
I3
aI18
asg58
V74523
p82
sVscreen_name
p83
Vmikeindustries
p84
sVname
p85
VMike Davidson
p86
sasVhashtags
p87
(lp88
sg25
(lp89
(dp90
g23
Vhttps://t.co/T2DgfFYGWJ
p91
sg29
(lp92
I123
aI140
asg31
Vhttp://www.nytimes.com/2015/11/15/business/ibms-design-centered-strategy-to-set-free-the-squares.html?nytmobile=0&_r=0
p93
sg33
Vnytimes.com/2015/11/15/bus\u2026
p94
sassVin_reply_to_screen_name
p95
Nsg58
V666297512320352256
p96
sVretweet_count
p97
I3
sVin_reply_to_user_id
p98
NsVfavorited
p99
I00
sVretweeted_status
p100
(dp101
g65
Nsg66
I00
sg67
VInteresting large-scale design thinking experiment at IBM. Execs, PMs, and Eng all getting trained up: https://t.co/T2DgfFYGWJ
p102
sg69
Nsg46
L665685509495091200L
sg70
I28
sg71
V<a href="http://itunes.apple.com/us/app/twitter/id409789998?mt=12" rel="nofollow">Twitter for Mac</a>
p103
sg73
I00
sg74
Nsg54
(dp104
g76
(lp105
sg78
(lp106
sg87
(lp107
sg25
(lp108
(dp109
g23
Vhttps://t.co/T2DgfFYGWJ
p110
sg29
(lp111
I103
aI126
asg31
Vhttp://www.nytimes.com/2015/11/15/business/ibms-design-centered-strategy-to-set-free-the-squares.html?nytmobile=0&_r=0
p112
sg33
Vnytimes.com/2015/11/15/bus\u2026
p113
sassg95
Nsg58
V665685509495091200
p114
sg97
I3
sg98
Nsg99
I00
sVgeo
p115
NsVin_reply_to_user_id_str
p116
NsVpossibly_sensitive
p117
I00
sVlang
p118
Ven
p119
sVcreated_at
p120
VSun Nov 15 00:19:27 +0000 2015
p121
sVin_reply_to_status_id_str
p122
NsVplace
p123
Nssg115
Nsg116
Nsg117
I00
sg118
Ven
p124
sg120
VMon Nov 16 16:51:20 +0000 2015
p125
sg122
Nsg123
NssVis_translation_enabled
p126
I00
sVutc_offset
p127
I-21600
sVstatuses_count
p128
I2225
sg35
VIBMer, Social Media Geek, Ocean Rower, Guinness World Record Holder. All thoughts are my own.
p129
sVfriends_count
p130
I371
sVlocation
p131
VNew York
p132
sVprofile_link_color
p133
V05FAAA
p134
sVprofile_image_url
p135
Vhttp://pbs.twimg.com/profile_images/438832929394155520/pYhmjS52_normal.jpeg
p136
sVfollowing
p137
NsVgeo_enabled
p138
I01
sVprofile_banner_url
p139
Vhttps://pbs.twimg.com/profile_banners/48895012/1393460897
p140
sVprofile_background_image_url
p141
Vhttp://pbs.twimg.com/profile_background_images/156463684/x0ed155b1321f67857d2eb7613671f8b.jpg
p142
sg83
VLizRows
p143
sg118
Ven
p144
sVprofile_background_tile
p145
I00
sVfavourites_count
p146
I44
sg85
VLizRows
p147
sVnotifications
p148
Nsg23
Vhttp://t.co/aAx5psVHCW
p149
sg120
VSat Jun 20 01:51:57 +0000 2009
p150
sVcontributors_enabled
p151
I00
sVtime_zone
p152
VCentral Time (US & Canada)
p153
sVprotected
p154
I00
sVdefault_profile
p155
I00
sVis_translator
p156
I00
ssS'contributors_enabled'
p157
I00
sS'profile_text_color'
p158
g51
sS'followers_count'
p159
I264
sS'profile_sidebar_border_color'
p160
g57
sS'id_str'
p161
g59
sS'default_profile_image'
p162
I00
sS'listed_count'
p163
I17
sS'status'
p164
g8
(ctweepy.models
Status
p165
g10
Ntp166
Rp167
(dp168
S'favorited'
p169
I00
sS'contributors'
p170
NsS'truncated'
p171
I00
sS'text'
p172
g68
sS'source_url'
p173
Vhttp://twitter.com
p174
sS'possibly_sensitive'
p175
I00
sS'in_reply_to_status_id'
p176
NsS'geo'
p177
Nsg19
L666297512320352256L
sS'favorite_count'
p178
I0
sS'lang'
p179
g124
sS'retweeted_status'
p180
g8
(g165
g10
Ntp181
Rp182
(dp183
g169
I00
sg170
Nsg171
I00
sg172
g102
sg173
Vhttp://itunes.apple.com/us/app/twitter/id409789998?mt=12
p184
sg175
I00
sg176
Nsg177
Nsg19
L665685509495091200L
sg178
I28
sg179
g119
sg21
g104
sS'created_at'
p185
cdatetime
datetime
p186
(S'\x07\xdf\x0b\x0f\x00\x13\x1b\x00\x00\x00'
p187
tp188
Rp189
sg40
g101
sS'coordinates'
p190
NsS'in_reply_to_user_id_str'
p191
NsS'source'
p192
VTwitter for Mac
p193
sS'in_reply_to_status_id_str'
p194
NsS'in_reply_to_screen_name'
p195
Nsg161
g114
sS'retweeted'
p196
I00
sS'place'
p197
NsS'retweet_count'
p198
I3
sS'in_reply_to_user_id'
p199
Nsbsg21
g75
sg185
g186
(S'\x07\xdf\x0b\x10\x103\x14\x00\x00\x00'
p200
tp201
Rp202
sg40
g64
sg190
Nsg191
Nsg192
VTwitter Web Client
p203
sg194
Nsg195
Nsg161
g96
sg196
I00
sg197
Nsg198
I3
sg199
NsbsS'is_translation_enabled'
p204
I00
sS'utc_offset'
p205
I-21600
sS'statuses_count'
p206
I2225
sS'description'
p207
g129
sS'friends_count'
p208
I371
sS'location'
p209
g132
sS'profile_link_color'
p210
g134
sS'profile_image_url'
p211
g136
sS'notifications'
p212
NsS'geo_enabled'
p213
I01
sS'profile_background_color'
p214
g61
sS'profile_banner_url'
p215
g140
sS'profile_background_image_url'
p216
g142
sS'screen_name'
p217
g143
sg179
g144
sg1
I00
sS'profile_background_tile'
p218
I00
sS'favourites_count'
p219
I44
sS'name'
p220
g147
sS'url'
p221
g149
sg185
g186
(S'\x07\xd9\x06\x14\x0139\x00\x00\x00'
p222
tp223
Rp224
sS'profile_background_image_url_https'
p225
g48
sS'time_zone'
p226
g153
sS'protected'
p227
I00
sS'default_profile'
p228
I00
sS'is_translator'
p229
I00
sbs.