(dp0
S'following'
p1
(lp2
(lp3
I47993676
aL2429563184L
aI1611543626
aI1634191356
aL2259383122L
aL2462874699L
aL2369252467L
aI14482286
aI103183441
aL2324768587L
aasS'followers'
p4
(lp5
(lp6
I128033273
aI246645857
aL2854871056L
aL2174041238L
aI521374230
aL3331675066L
aI1263288692
aL3316714507L
aI234956680
aL4154785274L
aI428843665
aI1568220338
aL3149232323L
aL2430639870L
aI1494377268
aI90970076
aL2869894089L
aI48486244
aL4092684672L
aI37597352
aI1053144343
aL4116086795L
aL3309232460L
aL2359413307L
aI536457858
aL3496751237L
aI1008942500
aL2323015076L
aI409690179
aL2616353262L
aI396999574
aI617200907
aI209033977
aL3319136443L
aI1088639744
aI348892768
aL3238145919L
aL2942496556L
aI226438054
aL2519695783L
aI374101804
aI237572995
aI418789040
aI1543406868
aI47993676
aL2314289604L
aL3170291055L
aL3261031729L
aL3228915578L
aL3194679635L
aL2875817634L
aI630412799
aI34684511
aL3139925485L
aI14772617
aL2568152518L
aL3976287207L
aI15230523
aI18158661
aL2767912162L
aL2670337844L
aL2948612109L
aL3390069436L
aI29050584
aL3793472712L
aL3938929401L
aI276003470
aI240526672
aI1865062033
aI541679305
aI249000344
aI24586836
aL3388556074L
aL3108417284L
aL2924413182L
aL2364853214L
aI426806293
aI108400832
aI175857285
aL2358784585L
aI15841703
aL2187937911L
aL2686353036L
aI29325637
aI118846656
aL2314238719L
aL3778760535L
aI80117324
aI554777853
aI38683421
aL3764323035L
aI402369160
aL3142931202L
aI519080782
aL2828536458L
aL2254215271L
aI1263007015
aL3663176299L
aI104029695
aI33780879
aL3660610340L
aL3660432974L
aI1638559783
aL2837891638L
aI900942445
aI518566330
aL2868424164L
aL2837882056L
aI730833420
aI468312367
aI502382121
aL2966889492L
aL2290705919L
aL2397967218L
aI106212178
aI1467878490
aL3444395774L
aL3432665068L
aI863949547
aI52834245
aI396927453
aI159332029
aL2520242224L
aI1300910989
aL3167673070L
aL2926070175L
aI39043402
aL2330801192L
aI480164859
aL3662605336L
aI31263953
aL2997440620L
aL2419651428L
aI351072185
aI47276855
aI874419354
aL3007937578L
aL3524506092L
aI351032649
aI622669824
aL2553614516L
aI252865089
aL2836608100L
aL3322020138L
aL2972555345L
aI1859014448
aL2781050528L
aL2948659810L
aI36196824
aI1094331576
aL2928911564L
aL3260170826L
aL2941170923L
aI707036708
aL2380905156L
aL2971943505L
aL3241888604L
aI1868067469
aI1087036688
aI995287412
aI851345840
aI595890045
aL2869315401L
aL3029062961L
aI531005111
aI11686922
aL3068830979L
aI757472568
aL3313318066L
aL2981818882L
aL2478391129L
aL2426889916L
aL3281617836L
aL3330135317L
aL3395828014L
aI522776421
aL2534551595L
aI82633295
aI180176098
aL2387611368L
aI1905488742
aI75161457
aI1281496315
aI414595984
aI333754174
aI26263794
aI1257448795
aI123796975
aI356309408
aL3293794905L
aI258416313
aI40300931
aI787224260
aI902790079
aI23335544
aI294576830
aL2196837308L
aI354628255
aI1656547706
aL3395443655L
aI881608580
aL3071545133L
aI365965140
aI160322110
aI128416696
aI906938905
aI262288440
aL3293662579L
aI256302693
aI1845191160
aL3291394603L
aI26685638
aL2465601685L
aL3383177213L
aI572033695
aI274464365
aI299126098
aL3269349758L
aI71824428
aL2417812602L
aI1726566457
aL3247834005L
aL2942631153L
aL2494669124L
aL2312724108L
aI78758271
aI397601158
aI587398262
aI797062526
aL2969912229L
aI595632928
aL2888040037L
aI107646745
aI15897179
aI244029923
aI942067057
aI1228116126
aL2327314973L
aI120672388
aL2465030485L
aI785003724
aI715229059
aI524768352
aI95805926
aI9681052
aI19304535
aL2179990499L
aI451580217
aI528330020
aL2412831349L
aL3365162213L
aI469871634
aL2331348205L
aL3258657151L
aL2420011614L
aI1633340946
aL3222415339L
aI519459980
aL3081680575L
aI1378194942
aI20171343
aI976797445
aL2374531620L
aL2430846618L
aL3183844462L
aI951982802
aI1402824210
aI633700631
aL3222639192L
aI240353345
aI265880585
aI703022150
aL3241978688L
aI594162137
aI741467216
aI1286540352
aI250317700
aI986118085
aI137768351
aI262935830
aI729738607
aI29225536
aI310681376
aL2324768587L
aI103183441
aasS'obj'
p7
ccopy_reg
_reconstructor
p8
(ctweepy.models
User
p9
c__builtin__
object
p10
Ntp11
Rp12
(dp13
S'follow_request_sent'
p14
NsS'has_extended_profile'
p15
I00
sS'profile_use_background_image'
p16
I01
sS'profile_sidebar_fill_color'
p17
VDDEEF6
p18
sS'id'
p19
I529018569
sS'verified'
p20
I00
sS'entities'
p21
(dp22
Vdescription
p23
(dp24
Vurls
p25
(lp26
(dp27
Vurl
p28
Vhttp://t.co/Wn5jQoUgCP
p29
sVindices
p30
(lp31
I0
aI22
asVexpanded_url
p32
Vhttp://mychartcoach.com/Forums/forum/ospreyeye-board/
p33
sVdisplay_url
p34
Vmychartcoach.com/Forums/forum/o\u2026
p35
sasssS'profile_image_url_https'
p36
Vhttps://pbs.twimg.com/profile_images/625826766037200896/RPJBZwAk_normal.png
p37
sS'_json'
p38
(dp39
Vfollow_request_sent
p40
NsVhas_extended_profile
p41
I00
sVprofile_use_background_image
p42
I01
sVdefault_profile_image
p43
I00
sVid
p44
I529018569
sVprofile_background_image_url_https
p45
Vhttps://abs.twimg.com/images/themes/theme1/bg.png
p46
sVverified
p47
I00
sVprofile_text_color
p48
V333333
p49
sVprofile_image_url_https
p50
g37
sVprofile_sidebar_fill_color
p51
g18
sVentities
p52
g22
sVfollowers_count
p53
I285
sVprofile_sidebar_border_color
p54
VC0DEED
p55
sVid_str
p56
V529018569
p57
sVprofile_background_color
p58
VC0DEED
p59
sVlisted_count
p60
I13
sVstatus
p61
(dp62
Vlang
p63
Ven
p64
sVfavorited
p65
I00
sg52
(dp66
Vsymbols
p67
(lp68
(dp69
g30
(lp70
I0
aI5
asVtext
p71
VZFGN
p72
sasVuser_mentions
p73
(lp74
sVhashtags
p75
(lp76
sg25
(lp77
ssVcontributors
p78
NsVtruncated
p79
I00
sg71
V$ZFGN - Fast STO @ 99.21 on daily chart -signaling temporarily overbought - 45 is a previous resistance zone on RSI -bulls want RSI above 50
p80
sVcreated_at
p81
VMon Nov 16 19:49:18 +0000 2015
p82
sVretweeted
p83
I00
sVin_reply_to_status_id_str
p84
NsVcoordinates
p85
NsVin_reply_to_user_id_str
p86
NsVsource
p87
V<a href="http://stocktwits.com" rel="nofollow">StockTwits Web</a>
p88
sVin_reply_to_status_id
p89
NsVin_reply_to_screen_name
p90
Nsg56
V666342299899576321
p91
sVplace
p92
NsVretweet_count
p93
I0
sVgeo
p94
Nsg44
L666342299899576321L
sVfavorite_count
p95
I0
sVin_reply_to_user_id
p96
NssVis_translation_enabled
p97
I00
sVutc_offset
p98
NsVstatuses_count
p99
I3179
sg23
Vhttp://t.co/Wn5jQoUgCP
p100
sVfriends_count
p101
I10
sVlocation
p102
V
p103
sVprofile_link_color
p104
V0084B4
p105
sVprofile_image_url
p106
Vhttp://pbs.twimg.com/profile_images/625826766037200896/RPJBZwAk_normal.png
p107
sVfollowing
p108
NsVgeo_enabled
p109
I00
sVprofile_background_image_url
p110
Vhttp://abs.twimg.com/images/themes/theme1/bg.png
p111
sVscreen_name
p112
VMyChartCoachcom
p113
sg63
Ven
p114
sVprofile_background_tile
p115
I00
sVfavourites_count
p116
I0
sVname
p117
VOspreyeye 
p118
sVnotifications
p119
Nsg28
Nsg81
VMon Mar 19 02:01:12 +0000 2012
p120
sVcontributors_enabled
p121
I00
sVtime_zone
p122
NsVprotected
p123
I00
sVdefault_profile
p124
I01
sVis_translator
p125
I00
ssS'contributors_enabled'
p126
I00
sS'profile_text_color'
p127
g49
sS'followers_count'
p128
I285
sS'profile_sidebar_border_color'
p129
g55
sS'id_str'
p130
g57
sS'default_profile_image'
p131
I00
sS'listed_count'
p132
I13
sS'status'
p133
g8
(ctweepy.models
Status
p134
g10
Ntp135
Rp136
(dp137
S'favorited'
p138
I00
sS'contributors'
p139
NsS'truncated'
p140
I00
sS'text'
p141
g80
sS'source_url'
p142
Vhttp://stocktwits.com
p143
sS'in_reply_to_status_id'
p144
NsS'geo'
p145
Nsg19
L666342299899576321L
sS'favorite_count'
p146
I0
sS'lang'
p147
g64
sg21
g66
sS'created_at'
p148
cdatetime
datetime
p149
(S'\x07\xdf\x0b\x10\x131\x12\x00\x00\x00'
p150
tp151
Rp152
sg38
g62
sS'coordinates'
p153
NsS'in_reply_to_user_id_str'
p154
NsS'source'
p155
VStockTwits Web
p156
sS'in_reply_to_status_id_str'
p157
NsS'in_reply_to_screen_name'
p158
Nsg130
g91
sS'retweeted'
p159
I00
sS'place'
p160
NsS'retweet_count'
p161
I0
sS'in_reply_to_user_id'
p162
NsbsS'is_translation_enabled'
p163
I00
sS'utc_offset'
p164
NsS'statuses_count'
p165
I3179
sS'description'
p166
g100
sS'friends_count'
p167
I10
sS'location'
p168
g103
sS'profile_link_color'
p169
g105
sS'profile_image_url'
p170
g107
sS'notifications'
p171
NsS'geo_enabled'
p172
I00
sS'profile_background_color'
p173
g59
sS'profile_background_image_url'
p174
g111
sS'screen_name'
p175
g113
sg147
g114
sg1
I00
sS'profile_background_tile'
p176
I00
sS'favourites_count'
p177
I0
sS'name'
p178
g118
sS'url'
p179
Nsg148
g149
(S'\x07\xdc\x03\x13\x02\x01\x0c\x00\x00\x00'
p180
tp181
Rp182
sS'profile_background_image_url_https'
p183
g46
sS'time_zone'
p184
NsS'protected'
p185
I00
sS'default_profile'
p186
I01
sS'is_translator'
p187
I00
sbs.