(dp0
S'following'
p1
(lp2
(lp3
I231706630
aL2181233851L
aI34837057
aI164355105
aI889840760
aI23390520
aI14885549
aL2369652488L
aI71165241
aL2316464970L
aI227879769
aL2226739236L
aI42562446
aI81157050
aL2981421573L
aL2964287876L
aI755071644
aI236953420
aI344538987
aI479790894
aI326969835
aL2719032029L
aI1027173822
aI1282121312
aL2517112130L
aI27828974
aL2959662729L
aI14216123
aI1029487634
aI17503180
aI234985016
aL2656903800L
aI16732770
aI203652149
aI20402945
aI18436514
aI160924991
aI7520262
aL2353511190L
aI1534167900
aI15897179
aL2577642199L
aI20106796
aI16534711
aI5988062
aI14372486
aI14788764
aI25827743
aI14872237
aI383927121
aI14800270
aI783214
aI14078377
aI150118498
aI268361752
aI11247222
aI14515205
aI156913327
aI104952689
aI61292961
aI396077559
aL2334665523L
aI498166332
aI17743976
aI557379987
aI15631238
aI17824922
aI27023228
aI80374332
aI375340663
aI15469101
aI118719914
aI201296379
aI4767021
aI1343486720
aI230930518
aI17986973
aI17266725
aI119068103
aI14580438
aI26570717
aI10937622
aI18165866
aI23962323
aI1344951
aI624413
aI14886375
aI19546277
aI23059499
aI34743251
aI13298072
aI17901282
aI12101862
aI16184358
aI19380829
aI65450350
aI16746076
aI8841372
aI150832830
aI25093616
aI115711911
aI321517519
aI17813899
aI321124833
aI16896485
aI16069024
aI637167903
aI44196397
aI20562637
aI19154824
aI187357347
aI130684475
aI595211619
aI602406088
aI11740902
aI16225240
aI16228398
aI29856819
aI20545055
aI206435365
aI44726105
aI163544781
aI618420295
aI128379255
aI15588657
aI23151437
aI972651
aI23832022
aI23612826
aI315002750
aI350616699
aI37993692
aI25073877
aI20609518
aI14511951
aI129280923
aI5520952
aI39623638
aI19407053
aI91478624
aI8453452
aI8161232
aI86879744
aI36806880
aI67095962
aI90758171
aI759251
aI25110374
aasS'followers'
p4
(lp5
(lp6
L2847971041L
aI425870454
aI1653453276
aI1087860428
aL3236760904L
aI802319448
aL2796754428L
aL2463277092L
aL2842349595L
aL3421529534L
aL3330413428L
aI43570256
aI1180169191
aI12101862
aI609304305
aL3361515675L
aL3181688905L
aI40300931
aL2764193091L
aI622546104
aL2341525668L
aL3214715369L
aI1877135052
aL2951603983L
aI15455022
aL2317919850L
aI45683950
aI604536757
aI632467298
aL2719032029L
aL3003840671L
aI22411342
aL2960816189L
aL2984995294L
aI852345468
aL2846061576L
aI247609940
aI1606787551
aI225380381
aL2577642199L
aI896300208
aL2728138830L
aL2792681082L
aL2817623676L
aI241606986
aI421794008
aI383927121
aI15897179
aI953644316
aI96707157
aI1496613648
aL2657028648L
aL2408038189L
aI45929602
aI150135718
aI275628283
aI396077559
aL2355542322L
aL2304275222L
aL2446093724L
aL2417191154L
aL2429843260L
aL2378447239L
aI66395800
aL2314480101L
aL2305406556L
aI226403285
aI463097204
aI37993692
aI74304307
aI333565721
aI1503078368
aI409658281
aI77130405
aI383959892
aI1873769984
aI3382
aI1472183226
aI43201650
aI887875369
aI298333233
aI318218250
aI553899052
aI1096488176
aI882494600
aI721211912
aI1214936874
aI857894006
aI64712563
aI1040778979
aI362733872
aI1126963278
aI1075532550
aI917387388
aI44726105
aI937394186
aI392414151
aI163544781
aI741472272
aI482268305
aI487011765
aI50814251
aI188010971
aI198336289
aI397998671
aI357512910
aI340786047
aI249218107
aI375464192
aI341854659
aI295858474
aI345159548
aI349111597
aI187275563
aI266258349
aI164773768
aI362937073
aI358700633
aI101355570
aI360891391
aI233697281
aI113235392
aI343023101
aI191321755
aI227169460
aI67194809
aI354069372
aI285910671
aI347232391
aI23612826
aI338708254
aI274768975
aI61844201
aI150612118
aI299272888
aI334967221
aI342917318
aI164175794
aI84989798
aI94895351
aI244275589
aI345487166
aI349864773
aI350616699
aI37531847
aI349343897
aI50482526
aI310788280
aI234443219
aI113930431
aI204180548
aI209055127
aI257508897
aI97746729
aI256681583
aI140990680
aI17027102
aI242002752
aI135668769
aI90307678
aI71041930
aI45498817
aI63640225
aI60678056
aI54509833
aI14299369
aI53265126
aasS'obj'
p7
ccopy_reg
_reconstructor
p8
(ctweepy.models
User
p9
c__builtin__
object
p10
Ntp11
Rp12
(dp13
S'follow_request_sent'
p14
NsS'has_extended_profile'
p15
I00
sS'profile_use_background_image'
p16
I01
sS'profile_sidebar_fill_color'
p17
VEFEFEF
p18
sS'id'
p19
I53095982
sS'verified'
p20
I00
sS'entities'
p21
(dp22
Vdescription
p23
(dp24
Vurls
p25
(lp26
sssS'profile_image_url_https'
p27
Vhttps://pbs.twimg.com/profile_images/606889859328974848/_9u50oq__normal.jpg
p28
sS'_json'
p29
(dp30
Vfollow_request_sent
p31
NsVhas_extended_profile
p32
I00
sVprofile_use_background_image
p33
I01
sVdefault_profile_image
p34
I00
sVid
p35
I53095982
sVprofile_background_image_url_https
p36
Vhttps://abs.twimg.com/images/themes/theme14/bg.gif
p37
sVverified
p38
I00
sVprofile_text_color
p39
V333333
p40
sVprofile_image_url_https
p41
g28
sVprofile_sidebar_fill_color
p42
g18
sVentities
p43
g22
sVfollowers_count
p44
I167
sVprofile_sidebar_border_color
p45
VEEEEEE
p46
sVid_str
p47
V53095982
p48
sVprofile_background_color
p49
V131516
p50
sVlisted_count
p51
I6
sVstatus
p52
(dp53
Vlang
p54
Vtl
p55
sVfavorited
p56
I00
sg43
(dp57
Vsymbols
p58
(lp59
(dp60
Vindices
p61
(lp62
I0
aI5
asVtext
p63
Vnete
p64
sasVuser_mentions
p65
(lp66
sVhashtags
p67
(lp68
sg25
(lp69
ssVcontributors
p70
NsVtruncated
p71
I00
sg63
V$nete patience haha
p72
sVcreated_at
p73
VMon Nov 16 21:00:38 +0000 2015
p74
sVretweeted
p75
I00
sVin_reply_to_status_id_str
p76
NsVcoordinates
p77
NsVin_reply_to_user_id_str
p78
NsVsource
p79
V<a href="http://twitter.com/download/iphone" rel="nofollow">Twitter for iPhone</a>
p80
sVin_reply_to_status_id
p81
NsVin_reply_to_screen_name
p82
Nsg47
V666360247632715779
p83
sVplace
p84
NsVretweet_count
p85
I0
sVgeo
p86
Nsg35
L666360247632715779L
sVfavorite_count
p87
I0
sVin_reply_to_user_id
p88
NssVis_translation_enabled
p89
I00
sVutc_offset
p90
I-21600
sVstatuses_count
p91
I2523
sg23
VDreamer. Entrepreneur. Believe & Success. #NoPasaNada. Expressing my opinions
p92
sVfriends_count
p93
I148
sVlocation
p94
VWorldwide
p95
sVprofile_link_color
p96
V009999
p97
sVprofile_image_url
p98
Vhttp://pbs.twimg.com/profile_images/606889859328974848/_9u50oq__normal.jpg
p99
sVfollowing
p100
NsVgeo_enabled
p101
I00
sVprofile_banner_url
p102
Vhttps://pbs.twimg.com/profile_banners/53095982/1427044147
p103
sVprofile_background_image_url
p104
Vhttp://abs.twimg.com/images/themes/theme14/bg.gif
p105
sVscreen_name
p106
VHMB7World
p107
sg54
Ven
p108
sVprofile_background_tile
p109
I01
sVfavourites_count
p110
I111
sVname
p111
VHector
p112
sVnotifications
p113
NsVurl
p114
Nsg73
VThu Jul 02 15:38:10 +0000 2009
p115
sVcontributors_enabled
p116
I00
sVtime_zone
p117
VCentral Time (US & Canada)
p118
sVprotected
p119
I00
sVdefault_profile
p120
I00
sVis_translator
p121
I00
ssS'contributors_enabled'
p122
I00
sS'profile_text_color'
p123
g40
sS'followers_count'
p124
I167
sS'profile_sidebar_border_color'
p125
g46
sS'id_str'
p126
g48
sS'default_profile_image'
p127
I00
sS'listed_count'
p128
I6
sS'status'
p129
g8
(ctweepy.models
Status
p130
g10
Ntp131
Rp132
(dp133
S'favorited'
p134
I00
sS'contributors'
p135
NsS'truncated'
p136
I00
sS'text'
p137
g72
sS'source_url'
p138
Vhttp://twitter.com/download/iphone
p139
sS'in_reply_to_status_id'
p140
NsS'geo'
p141
Nsg19
L666360247632715779L
sS'favorite_count'
p142
I0
sS'lang'
p143
g55
sg21
g57
sS'created_at'
p144
cdatetime
datetime
p145
(S'\x07\xdf\x0b\x10\x15\x00&\x00\x00\x00'
p146
tp147
Rp148
sg29
g53
sS'coordinates'
p149
NsS'in_reply_to_user_id_str'
p150
NsS'source'
p151
VTwitter for iPhone
p152
sS'in_reply_to_status_id_str'
p153
NsS'in_reply_to_screen_name'
p154
Nsg126
g83
sS'retweeted'
p155
I00
sS'place'
p156
NsS'retweet_count'
p157
I0
sS'in_reply_to_user_id'
p158
NsbsS'is_translation_enabled'
p159
I00
sS'utc_offset'
p160
I-21600
sS'statuses_count'
p161
I2523
sS'description'
p162
g92
sS'friends_count'
p163
I148
sS'location'
p164
g95
sS'profile_link_color'
p165
g97
sS'profile_image_url'
p166
g99
sS'notifications'
p167
NsS'geo_enabled'
p168
I00
sS'profile_background_color'
p169
g50
sS'profile_banner_url'
p170
g103
sS'profile_background_image_url'
p171
g105
sS'screen_name'
p172
g107
sg143
g108
sg1
I00
sS'profile_background_tile'
p173
I01
sS'favourites_count'
p174
I111
sS'name'
p175
g112
sS'url'
p176
Nsg144
g145
(S'\x07\xd9\x07\x02\x0f&\n\x00\x00\x00'
p177
tp178
Rp179
sS'profile_background_image_url_https'
p180
g37
sS'time_zone'
p181
g118
sS'protected'
p182
I00
sS'default_profile'
p183
I00
sS'is_translator'
p184
I00
sbs.