(dp0
S'following'
p1
(lp2
(lp3
I15416505
aI133056605
aI236953420
aL3032773094L
aL2838276994L
aI528770977
aI203652149
aL2662031333L
aL3315134870L
aI19319290
aI20382026
aI777011756
aI926793032
aL3364525713L
aI112872946
aI2890961
aI19739279
aI310358069
aL3029276675L
aI19419395
aI15281391
aL2976727463L
aI185310946
aI14115408
aI65681636
aI954590804
aL2950028089L
aI25073877
aI66746952
aL2186813068L
aI42912883
aI26775476
aI430841130
aI404422077
aL3154923455L
aI259471396
aL2422703600L
aI545618159
aL2893191361L
aI6968182
aI237591901
aI102527566
aI360855408
aL2967229294L
aI292777349
aI9833332
aI1041050238
aI16515274
aI1593672432
aI246585278
aI1027173822
aI128177017
aI39085071
aI433664446
aI1607155250
aI26574283
aI799122090
aI43901066
aI632341632
aI69350553
aI17841130
aL2803633062L
aI15130891
aI1551826970
aI72442349
aI784890702
aL2228460174L
aL3021772625L
aL2964287876L
aI409194010
aL2364889134L
aI1430796462
aI118399469
aI821618390
aI47993676
aI42119682
aI37564410
aI113308086
aI231642014
aI1105089212
aL2486504240L
aI381696140
aI1564125781
aI37555599
aI140149665
aI27990259
aI14802885
aI35002876
aL2196092280L
aI1626294277
aI30818980
aI15296897
aI495660523
aL2172423304L
aI245181129
aI550249206
aI96682182
aL2461556142L
aI84312619
aI195002495
aI241789496
aL2448524059L
aI322794935
aI1375860338
aL2355785412L
aI477020565
aI14250809
aL2303157007L
aI72928001
aI40300931
aI122072130
aI624721120
aI42921095
aI193586700
aI40099128
aI1524309085
aL2334614718L
aI220859339
aI352443434
aI376367767
aI189788477
aI1888644360
aI831258415
aI31546412
aI1534167900
aI1187422273
aI230723893
aI41458395
aI992182100
aL2525900713L
aI44060322
aI403855355
aI18433619
aI966726223
aI49637104
aI131849629
aI133483902
aI511397343
aL2546542518L
aI206277247
aI30359797
aI1308512629
aL2440897582L
aI590302232
aI348915143
aL2216333869L
aL2161913370L
aL2536415746L
aI555296885
aI95961590
aI35826330
aI249492195
aI1665576224
aL2149877280L
aI874438663
aI583123413
aL2439520662L
aI160123949
aI174965200
aI125210248
aI37469211
aL2462874699L
aI1237381830
aL2409671676L
aI583552801
aI117103149
aI177785238
aI22092119
aI168715580
aI106885045
aI805230144
aI246823608
aI180975419
aI166597717
aI1928213371
aI197282701
aI372571442
aI477030090
aI1139977934
aI416311594
aI1452408337
aI513171146
aI1711713978
aI223630945
aI1949142445
aL2259383122L
aI1958752610
aI23059499
aI40586737
aL2231502417L
aI11247222
aI622472992
aI121370906
aI340037225
aI1727328390
aI579400237
aI1337904764
aI1418934828
aI380500399
aL2336837967L
aI475524030
aI547255284
aI947043115
aI284335003
aI53714715
aI300706809
aI276587551
aI217288199
aI1059290383
aI39264827
aI28445389
aI14292717
aI1347071545
aI17549691
aI34837057
aI30043148
aI21958792
aI514846185
aI40898910
aI47247213
aI820031509
aI75354209
aI262652488
aI347716422
aI317826655
aI44196397
aI106504911
aI51912109
aI72907355
aI53215424
aI15971805
aI139526643
aI1700905320
aI20800915
aI916003861
aI1559356620
aI121158213
aI301471997
aI14051297
aI193542064
aI23390520
aI498166332
aI16451932
aI16732770
aI34713362
aI16184358
aI102094857
aI15897179
aI36116095
aI154346268
aI1002457902
aI219526902
aI1223724236
aI790062926
aI571393276
aI569542024
aI408659976
aI394296834
aI15110357
aI373102216
aI624413
aI14216123
aI20402945
aasS'followers'
p4
(lp5
(lp6
L4157415958L
aL3006358500L
aL3905481792L
aI521374230
aI90970076
aL3235016854L
aL3120145617L
aI797062526
aL4118007045L
aI84444981
aL3242211040L
aL4138083707L
aL3242840227L
aL2563924585L
aL3007704313L
aI803587754
aL3583033515L
aL4086878235L
aI1024275523
aI1859428514
aL4076167468L
aI248260026
aL3236728035L
aL3280650074L
aI318393064
aI1353760507
aI19319290
aL3315134870L
aL2448524059L
aL3852923173L
aI240526672
aI598865116
aI1040437730
aL2502970082L
aL3245043604L
aL3858613402L
aL3264704824L
aI86164346
aL3689318123L
aL3376137613L
aI211810106
aL3570405203L
aI100767876
aL3243062241L
aI876315032
aL3364525713L
aI398360021
aL2804263123L
aI1041050238
aL2483093335L
aL3254008736L
aL3661531396L
aI39043402
aL2752140987L
aL3186161958L
aL3302760278L
aL3313924485L
aI1007689958
aL2950028089L
aL2453657886L
aI1363248452
aL2887204842L
aL2465283662L
aI30164070
aL2250823561L
aI1286540352
aL2412959286L
aI163944333
aL3154923455L
aL3307147749L
aI42912883
aI588526698
aI281369833
aL3323728491L
aI231884511
aI1446791540
aI17947619
aI9681052
aI33318026
aI417405939
aI30441768
aI1531007624
aI422982642
aL2986162709L
aL3233673608L
aI21880032
aL3189276834L
aL3181768002L
aI536457858
aI270062834
aI294980444
aL3233951736L
aL3154096965L
aL3305684614L
aL3305548702L
aI799078489
aI977782442
aI276399368
aL2764193091L
aL2753471751L
aL2772167606L
aI39267182
aI322922436
aI892524936
aI43554881
aI554290220
aL2898683149L
aL2922234899L
aL2573412902L
aI15398477
aL2913985833L
aL3151793112L
aI1530916794
aL2922507431L
aL3081680575L
aL2224310420L
aL3144487414L
aL2222114406L
aL3120906103L
aI1475745116
aL2275230932L
aL2752838548L
aI318580508
aL3010707224L
aI701037120
aI161368630
aI784890702
aL2445064535L
aI585767084
aI929297238
aL2970492213L
aI632467298
aL2364889134L
aL2180982188L
aI414409139
aI229549640
aI550676175
aI1444296577
aL2369056889L
aL2690326619L
aI389498933
aL2961171227L
aI32674236
aI183003784
aI36089353
aI1054075800
aL2902701221L
aL2715523250L
aL2472016988L
aI815324431
aI19050920
aI293239334
aL2912496057L
aL2904310156L
aI64938443
aI1857328459
aL2917925022L
aL2414611958L
aI1626294277
aI1592976126
aL2753440416L
aL2431134733L
aI141664113
aL2838950547L
aI495660523
aI725577499
aI62226476
aI126352674
aI250317700
aL2871909582L
aL2360899099L
aL2563948637L
aI120672388
aL2517112130L
aI344793159
aL2844139760L
aI1955136079
aL2609739210L
aI493444715
aL2807091939L
aL2465128316L
aI140540706
aL2781181877L
aL2422634400L
aI40300931
aI532434867
aI23335544
aI109043438
aI1371097844
aI1036611673
aI71411854
aI1256810102
aL2172423304L
aI34578922
aL2723922536L
aL2187683478L
aI31369038
aI333534004
aL2786780479L
aL2415379496L
aI624721120
aI567446577
aI1694311884
aI989768389
aI1472003192
aI289206404
aL2740678412L
aI161663765
aL2272090700L
aI44321543
aI385208005
aL2563858976L
aL2444104684L
aI237591901
aL2457933276L
aI1167632820
aL2465030030L
aL2572365420L
aI340405550
aI67525628
aL2543187162L
aI95992209
aL2400495522L
aL2499667608L
aL2546542518L
aI16049299
aL2540289055L
aL2234499834L
aI730833420
aI1344189493
aI57456207
aL2510900658L
aL2508400868L
aL2480036570L
aI1489471572
aI1056313532
aL2491714454L
aI64099527
aI174965200
aI1069228003
aL2409463046L
aL2460049529L
aL2409739332L
aL2397720821L
aL2469663601L
aL2149877280L
aI874438663
aI1660650536
aL2310145046L
aI87567131
aL2190638618L
aI22092119
aL2432425152L
aI276477936
aI805230144
aI148373
aL2437888014L
aL2439485132L
aI1099358575
aI235224826
aL2411990700L
aI145030451
aL2408005956L
aI984971822
aL2418138744L
aI358731989
aL2409742129L
aI805893590
aI628635025
aI49432825
aI419574878
aI1497630312
aI349385819
aI1273506308
aL2378344416L
aL2383159674L
aI101612719
aL2334144680L
aL2197885489L
aI28302904
aI437084460
aI43950136
aL2293630404L
aL2336837967L
aI992078251
aL2272330147L
aI70225622
aI857697518
aI75045534
aI217288199
aI443105226
aI1611593304
aI414187875
aI1731491028
aL2258568811L
aI315841211
aI937928353
aI166739983
aL2216039120L
aI527018393
aL2190310947L
aI205962495
aI339039253
aI746304038
aI504714141
aI244702210
aI17812536
aI1313386770
aI52114687
aI1701053191
aI1700965188
aI1700970476
aI1915853636
aI20742322
aI15897179
aI1700905320
aI121158213
aI436769107
aI302128211
aI154346268
aI912750548
aI394296834
aI539484826
aI385195003
aI17137254
aasS'obj'
p7
ccopy_reg
_reconstructor
p8
(ctweepy.models
User
p9
c__builtin__
object
p10
Ntp11
Rp12
(dp13
S'follow_request_sent'
p14
NsS'has_extended_profile'
p15
I00
sS'profile_use_background_image'
p16
I01
sS'profile_sidebar_fill_color'
p17
VDDEEF6
p18
sS'id'
p19
I559940893
sS'verified'
p20
I00
sS'entities'
p21
(dp22
Vdescription
p23
(dp24
Vurls
p25
(lp26
sssS'profile_image_url_https'
p27
Vhttps://pbs.twimg.com/profile_images/664605207553273856/HDDqTNwe_normal.jpg
p28
sS'_json'
p29
(dp30
Vfollow_request_sent
p31
NsVhas_extended_profile
p32
I00
sVprofile_use_background_image
p33
I01
sVdefault_profile_image
p34
I00
sVid
p35
I559940893
sVprofile_background_image_url_https
p36
Vhttps://abs.twimg.com/images/themes/theme1/bg.png
p37
sVverified
p38
I00
sVprofile_text_color
p39
V333333
p40
sVprofile_image_url_https
p41
g28
sVprofile_sidebar_fill_color
p42
g18
sVentities
p43
g22
sVfollowers_count
p44
I325
sVprofile_sidebar_border_color
p45
VC0DEED
p46
sVid_str
p47
V559940893
p48
sVprofile_background_color
p49
VC0DEED
p50
sVlisted_count
p51
I22
sVstatus
p52
(dp53
Vlang
p54
Ven
p55
sVfavorited
p56
I00
sg43
(dp57
Vsymbols
p58
(lp59
(dp60
Vindices
p61
(lp62
I0
aI3
asVtext
p63
VMW
p64
sasVuser_mentions
p65
(lp66
sVhashtags
p67
(lp68
sg25
(lp69
ssVcontributors
p70
NsVtruncated
p71
I00
sg63
V$MW red to green should give it squeeze pop
p72
sVcreated_at
p73
VMon Nov 16 19:08:14 +0000 2015
p74
sVretweeted
p75
I00
sVin_reply_to_status_id_str
p76
NsVcoordinates
p77
NsVin_reply_to_user_id_str
p78
NsVsource
p79
V<a href="http://twitter.com/download/iphone" rel="nofollow">Twitter for iPhone</a>
p80
sVin_reply_to_status_id
p81
NsVin_reply_to_screen_name
p82
Nsg47
V666331961674342401
p83
sVplace
p84
NsVretweet_count
p85
I0
sVgeo
p86
Nsg35
L666331961674342401L
sVfavorite_count
p87
I0
sVin_reply_to_user_id
p88
NssVis_translation_enabled
p89
I00
sVutc_offset
p90
NsVstatuses_count
p91
I1987
sg23
VOptions and Equities Trader. In continues search for better trade ideas. All tweets are my OPINIONS, always do the appropriate research.
p92
sVfriends_count
p93
I263
sVlocation
p94
V
p95
sVprofile_link_color
p96
V0084B4
p97
sVprofile_image_url
p98
Vhttp://pbs.twimg.com/profile_images/664605207553273856/HDDqTNwe_normal.jpg
p99
sVfollowing
p100
NsVgeo_enabled
p101
I00
sVprofile_banner_url
p102
Vhttps://pbs.twimg.com/profile_banners/559940893/1434429553
p103
sVprofile_background_image_url
p104
Vhttp://abs.twimg.com/images/themes/theme1/bg.png
p105
sVscreen_name
p106
Vadamwnsx
p107
sg54
Ven
p108
sVprofile_background_tile
p109
I00
sVfavourites_count
p110
I355
sVname
p111
VAdamwnsx
p112
sVnotifications
p113
NsVurl
p114
Nsg73
VSat Apr 21 23:48:55 +0000 2012
p115
sVcontributors_enabled
p116
I00
sVtime_zone
p117
NsVprotected
p118
I00
sVdefault_profile
p119
I01
sVis_translator
p120
I00
ssS'contributors_enabled'
p121
I00
sS'profile_text_color'
p122
g40
sS'followers_count'
p123
I325
sS'profile_sidebar_border_color'
p124
g46
sS'id_str'
p125
g48
sS'default_profile_image'
p126
I00
sS'listed_count'
p127
I22
sS'status'
p128
g8
(ctweepy.models
Status
p129
g10
Ntp130
Rp131
(dp132
S'favorited'
p133
I00
sS'contributors'
p134
NsS'truncated'
p135
I00
sS'text'
p136
g72
sS'source_url'
p137
Vhttp://twitter.com/download/iphone
p138
sS'in_reply_to_status_id'
p139
NsS'geo'
p140
Nsg19
L666331961674342401L
sS'favorite_count'
p141
I0
sS'lang'
p142
g55
sg21
g57
sS'created_at'
p143
cdatetime
datetime
p144
(S'\x07\xdf\x0b\x10\x13\x08\x0e\x00\x00\x00'
p145
tp146
Rp147
sg29
g53
sS'coordinates'
p148
NsS'in_reply_to_user_id_str'
p149
NsS'source'
p150
VTwitter for iPhone
p151
sS'in_reply_to_status_id_str'
p152
NsS'in_reply_to_screen_name'
p153
Nsg125
g83
sS'retweeted'
p154
I00
sS'place'
p155
NsS'retweet_count'
p156
I0
sS'in_reply_to_user_id'
p157
NsbsS'is_translation_enabled'
p158
I00
sS'utc_offset'
p159
NsS'statuses_count'
p160
I1987
sS'description'
p161
g92
sS'friends_count'
p162
I263
sS'location'
p163
g95
sS'profile_link_color'
p164
g97
sS'profile_image_url'
p165
g99
sS'notifications'
p166
NsS'geo_enabled'
p167
I00
sS'profile_background_color'
p168
g50
sS'profile_banner_url'
p169
g103
sS'profile_background_image_url'
p170
g105
sS'screen_name'
p171
g107
sg142
g108
sg1
I00
sS'profile_background_tile'
p172
I00
sS'favourites_count'
p173
I355
sS'name'
p174
g112
sS'url'
p175
Nsg143
g144
(S'\x07\xdc\x04\x15\x1707\x00\x00\x00'
p176
tp177
Rp178
sS'profile_background_image_url_https'
p179
g37
sS'time_zone'
p180
NsS'protected'
p181
I00
sS'default_profile'
p182
I01
sS'is_translator'
p183
I00
sbs.