(dp0
S'following'
p1
(lp2
(lp3
I17790265
aI16483885
aI15485461
aI15079601
aI14886375
aasS'followers'
p4
(lp5
(lp6
L4186563074L
aI1582674716
aI1376498784
aI1266505848
aI98676606
aI1381406359
aI13959682
aL2858291089L
aI48514393
aI800931355
aI935327048
aL2450102586L
aI216240115
aL4128235109L
aI41999388
aI250317700
aI597799971
aI1924310023
aI1400272116
aI135521225
aI583390156
aI310447748
aI483327627
aI1583359764
aL2515081515L
aI343885358
aL2598724200L
aL3345893447L
aL3397236852L
aI774826328
aI492248877
aI65959761
aI204181677
aL2534932512L
aL2270350376L
aL3065083689L
aL3065060260L
aL3064934625L
aI303531344
aI805230144
aL2924900835L
aI611817117
aL2902416723L
aL2348485149L
aI406690270
aL2904252338L
aI272141779
aI226093705
aI1322544876
aL2891372246L
aL2332423958L
aL2500324632L
aI635690732
aL2796474459L
aL2466604381L
aI330595077
aI82600921
aI82680033
aL2795634439L
aL2684904492L
aI355596609
aL2453840976L
aL2389097911L
aL2377112299L
aL2731776206L
aI19947650
aI537007259
aI184391585
aL2353809931L
aI1650708732
aL2351906845L
aL2654759520L
aL2572927435L
aI251205934
aL2511126487L
aL2661650823L
aL2511518101L
aI306536475
aI515824453
aI348121557
aL2501487170L
aI1368221490
aI33429951
aL2551425938L
aI1480868203
aI135680117
aL2483895428L
aL2351094534L
aL2443235262L
aI48842759
aL2495966802L
aI523707258
aI103994854
aL2168716656L
aI17968587
aI352801717
aI19373243
aI293294219
aI1275929029
aI13362342
aL2457763392L
aL2507703113L
aI16626285
aI1174157066
aI473536623
aI17749926
aI247788883
aL2475465085L
aI207759460
aI240023271
aI28968214
aI51912109
aI267198208
aI183515361
aL2469410414L
aI114005929
aI30217291
aI74479749
aI714221329
aI605490451
aI446472894
aI306544782
aI256180632
aI1090225106
aL2433572658L
aI581231211
aI407845148
aI40861378
aI116431218
aL2426125164L
aI1075556388
aL2402099004L
aI45440317
aI20771265
aI1052848710
aI50206233
aI976694113
aL2223766213L
aI45692284
aI104079354
aL2368733657L
aL2427480274L
aI589969295
aI100019106
aI1075378592
aI374957912
aL2398339722L
aI38760142
aI184548177
aI1455804402
aI74973339
aI91079371
aL2330861131L
aI1092279181
aI830142764
aL2409929901L
aI66118762
aL2385838350L
aI707947641
aL2384938772L
aI1962617911
aI1291381316
aL2371573009L
aI1206244309
aL2312879636L
aL2273756884L
aL2354181944L
aL2366440854L
aL2327445744L
aI1633051956
aL2363894569L
aI128369982
aI408791588
aI66975479
aL2361226832L
aI18242276
aL2355354128L
aL2323998410L
aL2305297196L
aI516074392
aL2213573473L
aL2347174759L
aI244214676
aI1897486644
aI18542774
aI1008560000
aI167641946
aL2349299018L
aI20856106
aI256082987
aI1622058866
aI10825962
aI365890958
aL2342270863L
aL2342114478L
aI224247308
aI1326659983
aI1255639658
aL2311997035L
aI548857056
aI1109189558
aI223604962
aL2308486555L
aL2331081966L
aI1654761470
aL2329699742L
aI582495445
aI103624226
aI1642056596
aI54789776
aL2170285122L
aI267831188
aI625938577
aI43950136
aI1485773706
aI113024185
aI116892268
aL2295173779L
aI159874112
aL2282402046L
aI1966960082
aI1086452665
aI75207534
aI1051076034
aI43233733
aI65089025
aI46094980
aI75984900
aI1905570560
aI296277444
aI36778144
aI891953395
aI1613176782
aI1273320391
aI24803082
aI285911030
aI1671379158
aI411012986
aI76468053
aI361829058
aI841962468
aI601933007
aL2286636325L
aI1083696931
aI585877566
aI373024688
aI131184295
aI1415147268
aI1510793149
aI307230882
aI379172971
aI462399019
aI350747872
aI153449955
aL2275379058L
aI1355043804
aL2247348344L
aI846344222
aI971629440
aL2211197258L
aI219851476
aI1728430490
aI271979861
aI425516077
aI461435826
aI277116961
aI194242433
aI213150960
aI1604707010
aI1567983506
aI543145434
aI1707814765
aI30450728
aI185386901
aI245225074
aI1732821624
aI266388355
aI148606502
aI68499935
aL2221458486L
aI1561392450
aI40980890
aI169434167
aI460451960
aI36293963
aI102392793
aI33344184
aI327533973
aI36589341
aL2180323520L
aL2163421022L
aI1903142576
aI124779106
aI1622372106
aI87014559
aI269609845
aI229339453
aI73697100
aI1968756600
aL2155315856L
aI427657792
aL2153307756L
aI904968246
aL2148858230L
aI74145395
aI113202525
aI151267983
aI498383654
aI414177770
aI140067152
aI48212695
aI1548263323
aI80233424
aI79781117
aI1897095260
aI55389338
aI1601968928
aI1264531285
aI24038819
aI1446910213
aI1671701090
aI61560150
aI16662316
aI83008685
aI1845191160
aI1572148164
aI507194416
aI577150603
aI177233283
aI14128412
aI1374395378
aI500352766
aI228838266
aI757734566
aI203287497
aI1514847842
aI1455442544
aI1700169451
aI25836665
aI380478666
aI1614116971
aI737499006
aI1280429880
aI1664631758
aI989088871
aI544484168
aI166399998
aI1374730560
aI590374788
aI1580814175
aI43057756
aI104611058
aI1620544105
aI41883411
aI193432271
aI255653769
aI184104745
aI1591243369
aI1580965604
aI1592398656
aI1525957261
aI307358375
aI937208143
aI1591795490
aI48499674
aI167216567
aI871828321
aI213631641
aI136386400
aI1511687148
aI20662241
aI1442812034
aI401951727
aI14204201
aI25277152
aI1260433093
aI1093720086
aI1371351422
aI24461812
aI1393996380
aI1395590304
aI23950701
aI1260279984
aI1272318973
aI1104203401
aI771045654
aI956382744
aI232940007
aI24519183
aI36735839
aI1027644768
aI1252173416
aI241468607
aI165832306
aI1209198613
aI814089295
aI10079142
aI233186216
aI211196054
aI38008025
aI236428904
aI1064011616
aI1025597155
aI339039253
aI869548694
aI388498405
aI390353098
aI1001004902
aI176033198
aI627207709
aI15440685
aI730417099
aI443977571
aI168754476
aI888246984
aI731733637
aI602028991
aI411915434
aI243113284
aI160727195
aI28668219
aI225384840
aI588028450
aI41219985
aI407762722
aI510140885
aasS'obj'
p7
ccopy_reg
_reconstructor
p8
(ctweepy.models
User
p9
c__builtin__
object
p10
Ntp11
Rp12
(dp13
S'follow_request_sent'
p14
NsS'has_extended_profile'
p15
I00
sS'profile_use_background_image'
p16
I01
sS'profile_sidebar_fill_color'
p17
VDDEEF6
p18
sS'id'
p19
I565538332
sS'verified'
p20
I00
sS'entities'
p21
(dp22
Vurl
p23
(dp24
Vurls
p25
(lp26
(dp27
g23
Vhttp://t.co/u5AEanTvP3
p28
sVindices
p29
(lp30
I0
aI22
asVexpanded_url
p31
Vhttp://www.zolmax.com
p32
sVdisplay_url
p33
Vzolmax.com
p34
sassVdescription
p35
(dp36
g25
(lp37
(dp38
g23
Vhttp://t.co/SHZtZA5fhb
p39
sg29
(lp40
I14
aI36
asg31
Vhttp://Zolmax.com
p41
sg33
VZolmax.com
p42
sasssS'profile_image_url_https'
p43
Vhttps://pbs.twimg.com/profile_images/2172961480/zolmax_big_normal.jpg
p44
sS'_json'
p45
(dp46
Vfollow_request_sent
p47
NsVhas_extended_profile
p48
I00
sVprofile_use_background_image
p49
I01
sVdefault_profile_image
p50
I00
sVid
p51
I565538332
sVprofile_background_image_url_https
p52
Vhttps://abs.twimg.com/images/themes/theme1/bg.png
p53
sVverified
p54
I00
sVprofile_text_color
p55
V333333
p56
sVprofile_image_url_https
p57
g44
sVprofile_sidebar_fill_color
p58
g18
sVentities
p59
g22
sVfollowers_count
p60
I426
sVprofile_sidebar_border_color
p61
VC0DEED
p62
sVid_str
p63
V565538332
p64
sVprofile_background_color
p65
VC0DEED
p66
sVlisted_count
p67
I31
sVstatus
p68
(dp69
Vcontributors
p70
NsVtruncated
p71
I00
sVtext
p72
VFacebook Activated Safety Check While Attacks Took Place in Paris https://t.co/TkuM2QyQuk
p73
sVin_reply_to_status_id
p74
Nsg51
L665588338812985344L
sVfavorite_count
p75
I0
sVsource
p76
V<a href="http://ifttt.com" rel="nofollow">IFTTT</a>
p77
sVretweeted
p78
I00
sVcoordinates
p79
Nsg59
(dp80
Vsymbols
p81
(lp82
sVuser_mentions
p83
(lp84
sVhashtags
p85
(lp86
sg25
(lp87
(dp88
g23
Vhttps://t.co/TkuM2QyQuk
p89
sg29
(lp90
I66
aI89
asg31
Vhttp://ift.tt/1j0YuuS
p91
sg33
Vift.tt/1j0YuuS
p92
sassVin_reply_to_screen_name
p93
Nsg63
V665588338812985344
p94
sVretweet_count
p95
I0
sVin_reply_to_user_id
p96
NsVfavorited
p97
I00
sVgeo
p98
NsVin_reply_to_user_id_str
p99
NsVpossibly_sensitive
p100
I00
sVlang
p101
Ven
p102
sVcreated_at
p103
VSat Nov 14 17:53:20 +0000 2015
p104
sVin_reply_to_status_id_str
p105
NsVplace
p106
NssVis_translation_enabled
p107
I00
sVutc_offset
p108
NsVstatuses_count
p109
I105010
sg35
VZolmax News - http://t.co/SHZtZA5fhb
p110
sVfriends_count
p111
I5
sVlocation
p112
V
p113
sVprofile_link_color
p114
V0084B4
p115
sVprofile_image_url
p116
Vhttp://pbs.twimg.com/profile_images/2172961480/zolmax_big_normal.jpg
p117
sVfollowing
p118
NsVgeo_enabled
p119
I00
sVprofile_background_image_url
p120
Vhttp://abs.twimg.com/images/themes/theme1/bg.png
p121
sVscreen_name
p122
VZolmaxNews
p123
sg101
Ven
p124
sVprofile_background_tile
p125
I00
sVfavourites_count
p126
I0
sVname
p127
VZolmax News
p128
sVnotifications
p129
Nsg23
Vhttp://t.co/u5AEanTvP3
p130
sg103
VSat Apr 28 15:46:12 +0000 2012
p131
sVcontributors_enabled
p132
I00
sVtime_zone
p133
NsVprotected
p134
I00
sVdefault_profile
p135
I01
sVis_translator
p136
I00
ssS'contributors_enabled'
p137
I00
sS'profile_text_color'
p138
g56
sS'followers_count'
p139
I426
sS'profile_sidebar_border_color'
p140
g62
sS'id_str'
p141
g64
sS'default_profile_image'
p142
I00
sS'listed_count'
p143
I31
sS'status'
p144
g8
(ctweepy.models
Status
p145
g10
Ntp146
Rp147
(dp148
S'favorited'
p149
I00
sS'contributors'
p150
NsS'truncated'
p151
I00
sS'text'
p152
g73
sS'source_url'
p153
Vhttp://ifttt.com
p154
sS'possibly_sensitive'
p155
I00
sS'in_reply_to_status_id'
p156
NsS'geo'
p157
Nsg19
L665588338812985344L
sS'favorite_count'
p158
I0
sS'lang'
p159
g102
sg21
g80
sS'created_at'
p160
cdatetime
datetime
p161
(S'\x07\xdf\x0b\x0e\x115\x14\x00\x00\x00'
p162
tp163
Rp164
sg45
g69
sS'coordinates'
p165
NsS'in_reply_to_user_id_str'
p166
NsS'source'
p167
VIFTTT
p168
sS'in_reply_to_status_id_str'
p169
NsS'in_reply_to_screen_name'
p170
Nsg141
g94
sS'retweeted'
p171
I00
sS'place'
p172
NsS'retweet_count'
p173
I0
sS'in_reply_to_user_id'
p174
NsbsS'is_translation_enabled'
p175
I00
sS'utc_offset'
p176
NsS'statuses_count'
p177
I105010
sS'description'
p178
g110
sS'friends_count'
p179
I5
sS'location'
p180
g113
sS'profile_link_color'
p181
g115
sS'profile_image_url'
p182
g117
sS'notifications'
p183
NsS'geo_enabled'
p184
I00
sS'profile_background_color'
p185
g66
sS'profile_background_image_url'
p186
g121
sS'screen_name'
p187
g123
sg159
g124
sg1
I00
sS'profile_background_tile'
p188
I00
sS'favourites_count'
p189
I0
sS'name'
p190
g128
sS'url'
p191
g130
sg160
g161
(S'\x07\xdc\x04\x1c\x0f.\x0c\x00\x00\x00'
p192
tp193
Rp194
sS'profile_background_image_url_https'
p195
g53
sS'time_zone'
p196
NsS'protected'
p197
I00
sS'default_profile'
p198
I01
sS'is_translator'
p199
I00
sbs.