(dp0
S'following'
p1
(lp2
(lp3
I136136326
aI1107765690
aI19790872
aI25360971
aI404422077
aI106498703
aI16732770
aI133420513
aI15110357
aI3108351
aI1278852289
aI455309376
aI39085071
aI34837057
aI98736295
aI870398245
aI39264827
aL2678090893L
aI47678782
aL2172423304L
aL3026828761L
aI25321854
aI21328656
aI14292717
aI14115408
aI15568127
aI1393603976
aI14886375
aI788333744
aI37718217
aI25073877
aI231575164
aI263197731
aI1596541134
aI39879120
aI80676273
aI37000209
aI490868308
aI58311760
aI16228398
aL3094060520L
aL3303293865L
aI369091302
aL2500134024L
aI248836670
aI44060322
aI624413
aI28164923
aI114782468
aI553036368
aI119372054
aI242515931
aI14385239
aI39275966
aI38887838
aI13735782
aI16451932
aI67197351
aI280491046
aI199792983
aI202396203
aL2220644058L
aI611289409
aI16222584
aI35865630
aI708360108
aL2220640015L
aI262799542
aI189652312
aI14216123
aI131901392
aI35825744
aL2429482110L
aI762083989
aI23112066
aI40155862
aI211022199
aI15097417
aI96846955
aI48240574
aI115869360
aI14437523
aI36392778
aI61198802
aI75544059
aI29546945
aI50537131
aI1713229992
aI27896360
aI348861660
aI69350767
aI14942684
aI14942701
aI58598187
aI34225849
aI1876028119
aI1397082944
aI100029670
aL2159188736L
aI18170896
aI20641995
aI25395727
aI1523654846
aI142528310
aI303048990
aI524727876
aI1583922524
aI43591572
aI21257232
aI176297188
aI14880616
aI34738598
aI9835622
aI1534695066
aI1321392372
aI22777708
aI121899325
aI158014897
aI27825390
aI403632664
aI605824568
aI19329393
aI20545055
aI1219521733
aI599767159
aI33396542
aI23645988
aI4276531
aI67920551
aI566264563
aI430744802
aI122530604
aI48789384
aI35859588
aI467740197
aI19397785
aI6427882
aI36098990
aI33452466
aI35348026
aI251164136
aI21719255
aI102496411
aI28109359
aI26628211
aI25907032
aI17074714
aI58742577
aI241546412
aI277546050
aI356882524
aI14621484
aI14972063
aI38531995
aI102254970
aI77384798
aI17919972
aI277848044
aI130997057
aI200913899
aI17199170
aI14790899
aI14920785
aI104288093
aI56783491
aI30503160
aI48100887
aI40752044
aI24133713
aI511488503
aI77041369
aI16205428
aI40935962
aI121626258
aI219173620
aI166270127
aI15846407
aI15224867
aI18456892
aI21326100
aI24901698
aI96915603
aI20419295
aI17029979
aI25203361
aI21910850
aI16977384
aI16869718
aI15033845
aI27685955
aI507762718
aI56405314
aasS'followers'
p4
(lp5
(lp6
I1112887076
aL3087543714L
aL2992414321L
aI313087828
aL3905481792L
aI250362250
aI891869581
aL2394624246L
aL3241239413L
aL4086878235L
aL3854311035L
aL2341525668L
aL3236798200L
aI102179908
aL2208580462L
aI188526246
aL2172423304L
aI14886375
aI353289134
aI218922058
aI1375860338
aI788333744
aL3382645158L
aI1621264393
aI16515274
aI585490397
aI975254695
aL3305714846L
aI301228253
aI863824434
aL2289618368L
aL2949209458L
aI305832508
aL3143256111L
aI135767303
aL3119583206L
aI64496398
aI611817117
aL2830350175L
aI19278548
aL2889221917L
aL2960738626L
aL2719179689L
aI349498026
aI18851415
aI15033845
aL2299083688L
aI1735006590
aI34225849
aI21092137
aI53141922
aI382546318
aI100920958
aI993994717
aI485585497
aI454464548
aasS'obj'
p7
ccopy_reg
_reconstructor
p8
(ctweepy.models
User
p9
c__builtin__
object
p10
Ntp11
Rp12
(dp13
S'follow_request_sent'
p14
NsS'has_extended_profile'
p15
I00
sS'profile_use_background_image'
p16
I01
sS'profile_sidebar_fill_color'
p17
VDDEEF6
p18
sS'id'
p19
I567113946
sS'verified'
p20
I00
sS'entities'
p21
(dp22
Vdescription
p23
(dp24
Vurls
p25
(lp26
sssS'profile_image_url_https'
p27
Vhttps://pbs.twimg.com/profile_images/580570218608640000/A6QanMkK_normal.jpg
p28
sS'_json'
p29
(dp30
Vfollow_request_sent
p31
NsVhas_extended_profile
p32
I00
sVprofile_use_background_image
p33
I01
sVdefault_profile_image
p34
I00
sVid
p35
I567113946
sVprofile_background_image_url_https
p36
Vhttps://abs.twimg.com/images/themes/theme1/bg.png
p37
sVverified
p38
I00
sVprofile_text_color
p39
V333333
p40
sVprofile_image_url_https
p41
g28
sVprofile_sidebar_fill_color
p42
g18
sVentities
p43
g22
sVfollowers_count
p44
I56
sVprofile_sidebar_border_color
p45
VC0DEED
p46
sVid_str
p47
V567113946
p48
sVprofile_background_color
p49
VC0DEED
p50
sVlisted_count
p51
I9
sVstatus
p52
(dp53
Vcontributors
p54
NsVtruncated
p55
I00
sVtext
p56
VRT @JoshZumbrun: The definitive ranking of which Federal Reserve officials you should pay attention to: https://t.co/6tN1nGfPuF https://t.c\u2026
p57
sVin_reply_to_status_id
p58
Nsg35
L666259877438824448L
sVfavorite_count
p59
I0
sVsource
p60
V<a href="http://twitter.com/#!/download/ipad" rel="nofollow">Twitter for iPad</a>
p61
sVretweeted
p62
I00
sVcoordinates
p63
Nsg43
(dp64
Vsymbols
p65
(lp66
sVuser_mentions
p67
(lp68
(dp69
g35
I289462808
sVindices
p70
(lp71
I3
aI15
asg47
V289462808
p72
sVscreen_name
p73
VJoshZumbrun
p74
sVname
p75
VJosh Zumbrun
p76
sasVhashtags
p77
(lp78
sg25
(lp79
(dp80
Vurl
p81
Vhttps://t.co/6tN1nGfPuF
p82
sg70
(lp83
I104
aI127
asVexpanded_url
p84
Vhttp://on.wsj.com/1QqfIQK
p85
sVdisplay_url
p86
Von.wsj.com/1QqfIQK
p87
sasVmedia
p88
(lp89
(dp90
Vsource_user_id
p91
I289462808
sVsource_status_id_str
p92
V666257512790929408
p93
sg84
Vhttp://twitter.com/JoshZumbrun/status/666257512790929408/photo/1
p94
sg86
Vpic.twitter.com/mQOH2yMiTN
p95
sg81
Vhttps://t.co/mQOH2yMiTN
p96
sVmedia_url_https
p97
Vhttps://pbs.twimg.com/media/CT8FrYIW4AAKtfK.jpg
p98
sVsource_user_id_str
p99
V289462808
p100
sVsource_status_id
p101
L666257512790929408L
sg47
V666257512644141056
p102
sVsizes
p103
(dp104
Vsmall
p105
(dp106
Vh
p107
I133
sVresize
p108
Vfit
p109
sVw
p110
I340
ssVlarge
p111
(dp112
g107
I402
sg108
Vfit
p113
sg110
I1024
ssVmedium
p114
(dp115
g107
I235
sg108
Vfit
p116
sg110
I600
ssVthumb
p117
(dp118
g107
I150
sg108
Vcrop
p119
sg110
I150
sssg70
(lp120
I139
aI140
asVtype
p121
Vphoto
p122
sg35
L666257512644141056L
sVmedia_url
p123
Vhttp://pbs.twimg.com/media/CT8FrYIW4AAKtfK.jpg
p124
sassVin_reply_to_screen_name
p125
Nsg47
V666259877438824448
p126
sVretweet_count
p127
I86
sVin_reply_to_user_id
p128
NsVfavorited
p129
I00
sVretweeted_status
p130
(dp131
g54
Nsg55
I00
sg56
VThe definitive ranking of which Federal Reserve officials you should pay attention to: https://t.co/6tN1nGfPuF https://t.co/mQOH2yMiTN
p132
sg58
Nsg35
L666257512790929408L
sg59
I92
sg60
V<a href="http://bufferapp.com" rel="nofollow">Buffer</a>
p133
sg62
I00
sg63
Nsg43
(dp134
g65
(lp135
sg67
(lp136
sg77
(lp137
sg25
(lp138
(dp139
g81
Vhttps://t.co/6tN1nGfPuF
p140
sg70
(lp141
I87
aI110
asg84
Vhttp://on.wsj.com/1QqfIQK
p142
sg86
Von.wsj.com/1QqfIQK
p143
sasg88
(lp144
(dp145
g84
Vhttp://twitter.com/JoshZumbrun/status/666257512790929408/photo/1
p146
sg86
Vpic.twitter.com/mQOH2yMiTN
p147
sg81
Vhttps://t.co/mQOH2yMiTN
p148
sg97
Vhttps://pbs.twimg.com/media/CT8FrYIW4AAKtfK.jpg
p149
sg47
V666257512644141056
p150
sg103
(dp151
g105
(dp152
g107
I133
sg108
Vfit
p153
sg110
I340
ssg111
(dp154
g107
I402
sg108
Vfit
p155
sg110
I1024
ssg114
(dp156
g107
I235
sg108
Vfit
p157
sg110
I600
ssg117
(dp158
g107
I150
sg108
Vcrop
p159
sg110
I150
sssg70
(lp160
I111
aI134
asg121
Vphoto
p161
sg35
L666257512644141056L
sg123
Vhttp://pbs.twimg.com/media/CT8FrYIW4AAKtfK.jpg
p162
sassg125
Nsg47
V666257512790929408
p163
sg127
I86
sg128
Nsg129
I00
sVgeo
p164
NsVin_reply_to_user_id_str
p165
NsVpossibly_sensitive
p166
I00
sVlang
p167
Ven
p168
sVcreated_at
p169
VMon Nov 16 14:12:24 +0000 2015
p170
sVin_reply_to_status_id_str
p171
NsVplace
p172
Nssg164
Nsg165
Nsg166
I00
sg167
Ven
p173
sg169
VMon Nov 16 14:21:47 +0000 2015
p174
sg171
Nsg172
NssVis_translation_enabled
p175
I00
sVutc_offset
p176
NsVstatuses_count
p177
I27
sg23
V
p178
sVfriends_count
p179
I192
sVlocation
p180
g178
sVprofile_link_color
p181
V0084B4
p182
sVprofile_image_url
p183
Vhttp://pbs.twimg.com/profile_images/580570218608640000/A6QanMkK_normal.jpg
p184
sVfollowing
p185
NsVgeo_enabled
p186
I01
sVprofile_banner_url
p187
Vhttps://pbs.twimg.com/profile_banners/567113946/1443121925
p188
sVprofile_background_image_url
p189
Vhttp://abs.twimg.com/images/themes/theme1/bg.png
p190
sg73
VFlkate298
p191
sg167
Ven
p192
sVprofile_background_tile
p193
I00
sVfavourites_count
p194
I1295
sg75
VKate
p195
sVnotifications
p196
Nsg81
Nsg169
VMon Apr 30 08:07:35 +0000 2012
p197
sVcontributors_enabled
p198
I00
sVtime_zone
p199
NsVprotected
p200
I00
sVdefault_profile
p201
I01
sVis_translator
p202
I00
ssS'contributors_enabled'
p203
I00
sS'profile_text_color'
p204
g40
sS'followers_count'
p205
I56
sS'profile_sidebar_border_color'
p206
g46
sS'id_str'
p207
g48
sS'default_profile_image'
p208
I00
sS'listed_count'
p209
I9
sS'status'
p210
g8
(ctweepy.models
Status
p211
g10
Ntp212
Rp213
(dp214
S'favorited'
p215
I00
sS'contributors'
p216
NsS'truncated'
p217
I00
sS'text'
p218
g57
sS'source_url'
p219
Vhttp://twitter.com/#!/download/ipad
p220
sS'possibly_sensitive'
p221
I00
sS'in_reply_to_status_id'
p222
NsS'geo'
p223
Nsg19
L666259877438824448L
sS'favorite_count'
p224
I0
sS'lang'
p225
g173
sS'retweeted_status'
p226
g8
(g211
g10
Ntp227
Rp228
(dp229
g215
I00
sg216
Nsg217
I00
sg218
g132
sg219
Vhttp://bufferapp.com
p230
sg221
I00
sg222
Nsg223
Nsg19
L666257512790929408L
sg224
I92
sg225
g168
sg21
g134
sS'created_at'
p231
cdatetime
datetime
p232
(S'\x07\xdf\x0b\x10\x0e\x0c\x18\x00\x00\x00'
p233
tp234
Rp235
sg29
g131
sS'coordinates'
p236
NsS'in_reply_to_user_id_str'
p237
NsS'source'
p238
VBuffer
p239
sS'in_reply_to_status_id_str'
p240
NsS'in_reply_to_screen_name'
p241
Nsg207
g163
sS'retweeted'
p242
I00
sS'place'
p243
NsS'retweet_count'
p244
I86
sS'in_reply_to_user_id'
p245
Nsbsg21
g64
sg231
g232
(S'\x07\xdf\x0b\x10\x0e\x15/\x00\x00\x00'
p246
tp247
Rp248
sg29
g53
sg236
Nsg237
Nsg238
VTwitter for iPad
p249
sg240
Nsg241
Nsg207
g126
sg242
I00
sg243
Nsg244
I86
sg245
NsbsS'is_translation_enabled'
p250
I00
sS'utc_offset'
p251
NsS'statuses_count'
p252
I27
sS'description'
p253
g178
sS'friends_count'
p254
I192
sS'location'
p255
g178
sS'profile_link_color'
p256
g182
sS'profile_image_url'
p257
g184
sS'notifications'
p258
NsS'geo_enabled'
p259
I01
sS'profile_background_color'
p260
g50
sS'profile_banner_url'
p261
g188
sS'profile_background_image_url'
p262
g190
sS'screen_name'
p263
g191
sg225
g192
sg1
I00
sS'profile_background_tile'
p264
I00
sS'favourites_count'
p265
I1295
sS'name'
p266
g195
sS'url'
p267
Nsg231
g232
(S'\x07\xdc\x04\x1e\x08\x07#\x00\x00\x00'
p268
tp269
Rp270
sS'profile_background_image_url_https'
p271
g37
sS'time_zone'
p272
NsS'protected'
p273
I00
sS'default_profile'
p274
I01
sS'is_translator'
p275
I00
sbs.