(dp0
S'following'
p1
(lp2
sS'followers'
p3
(lp4
(lp5
I424239558
aL4147237933L
aL3091351178L
aI1924312855
aI1861663298
aI105812026
aI50705048
aI9555372
aL4032841407L
aL2921103852L
aL2509375009L
aI248260026
aI1861916791
aI24052737
aI232332187
aI708110208
aI198869640
aI9757572
aI1004925650
aI802319448
aL2259028105L
aL2614904274L
aI1318081920
aI30265289
aI118766215
aI159332029
aI36894359
aI397512317
aI1581955406
aI407048032
aI1462240951
aI554290220
aL2885083769L
aI1861049119
aI1571456736
aI1838108192
aI30599116
aI1370332508
aI415904631
aL2817966517L
aL2242298871L
aI330095940
aL2603361477L
aI458116495
aI590041316
aL2883020982L
aI1553068034
aI300769892
aL3298385043L
aL3246307430L
aL3189457958L
aI221457806
aI1961041356
aL3220748214L
aL2646525344L
aI595609177
aI327031320
aI19103794
aI213111914
aI597799971
aL2826358751L
aI87201670
aI23928840
aI492248877
aI29025910
aI768205358
aL2434605238L
aL3012561618L
aI281830434
aL2709308803L
aI393144539
aL3124080848L
aL3109719996L
aL2936273911L
aI58119425
aI221497409
aI371825502
aL2488414315L
aI72206523
aI379523284
aI462972687
aL3073478049L
aL2976865088L
aI34578922
aI22187319
aL3061377122L
aL3065060260L
aL3065083689L
aL2869315401L
aL3030906803L
aI127542891
aI109287515
aI271770903
aL2948879195L
aI976797445
aI112919355
aL3011820468L
aL2472016988L
aI15829057
aI567591641
aL2273862972L
aI46029518
aI275877314
aL3002194367L
aI303531344
aL2400796212L
aI331416289
aI144580017
aL2182793322L
aL2933882627L
aL2180273576L
aI611817117
aI229959024
aL2904098999L
aL2890110061L
aL2850153861L
aI82212736
aI17242381
aI256852928
aI127967449
aL2431134733L
aL2533540607L
aI272089043
aL2837882056L
aI1167632820
aI140540706
aI381307704
aI14902429
aL2832302612L
aL2537803892L
aL2575084262L
aI315861062
aI347608683
aI564742380
aI580760045
aI179376826
aL2488298821L
aI1019032993
aI1522878282
aI1260312480
aI1260317359
aI1260199729
aI1260175986
aL2754709239L
aI1041288457
aL2151443198L
aL2485913306L
aI1251657080
aI149190911
aI522920774
aI1670698730
aI514099301
aI321162838
aI279164845
aI1572825480
aI1542430249
aI465048359
aL2351143748L
aL2723746882L
aI132709960
aI981236256
aL2353739293L
aL2416312254L
aI1730136512
aL2610059570L
aI785300166
aL2383856649L
aL2611639226L
aL2258493584L
aL2361571374L
aI862148749
aL2471315245L
aI249435600
aI1286540352
aI1426695192
aI43423179
aL2401214052L
aL2324399801L
aI1232341356
aL2453821321L
aI122341732
aL2569647232L
aL2458440042L
aL2470490005L
aI411266141
aI317562281
aI1933006464
aI272832534
aL2426080478L
aI1949809724
aI31679959
aI599449330
aL2193403644L
aL2469751760L
aI19464543
aI20298592
aL2407217852L
aI212565732
aL2425702800L
aL2412487410L
aI1726324753
aL2439485132L
aL2185041662L
aI1107310580
aL2180318517L
aI464136718
aI1130067577
aI141023169
aL2336826736L
aI112633795
aL2378081970L
aL2377987405L
aI807339626
aI532434867
aI435057871
aL2365876541L
aI76135839
aI706941763
aI1663013922
aI578383794
aI85408166
aL2312552792L
aI388011737
aL2333839562L
aL2334468648L
aI628635025
aI1925595032
aL2282402046L
aI1452408337
aI110584500
aI410217149
aI331779344
aI879376561
aI630439865
aL2243965990L
aI25091158
aI20702715
aI528939023
aI16975907
aI119799182
aI756108222
aI1882683181
aI1961012094
aI6459
aI23243207
aI24585143
aI419574878
aI731108575
aI1942399370
aI857697518
aI384444876
aI399942912
aI1898087468
aI51180623
aI101897917
aI1865437291
aI1184162857
aI419049891
aI797149178
aI1705797217
aI705540042
aI232442708
aI272681232
aI51075845
aI250317700
aI308487039
aI827118715
aI1027711771
aI359044969
aI264326180
aI752412720
aI282320967
aI375541220
aI370829911
aI487635660
aI259517435
aI376806326
aI529027742
aI282107729
aI67952965
aI558850174
aI553427936
aI544722833
aI558849647
aI523600334
aI560641146
aI498474930
aI549906483
aI553508892
aI553422919
aI533596923
aI553029023
aI553068867
aI553028515
aI23812310
aI553341325
aI278600987
aI469425667
aI548379458
aI552471207
aI417516153
aI412149434
aI133575658
aI237588887
aI160727195
aasS'obj'
p6
ccopy_reg
_reconstructor
p7
(ctweepy.models
User
p8
c__builtin__
object
p9
Ntp10
Rp11
(dp12
S'follow_request_sent'
p13
I00
sS'has_extended_profile'
p14
I00
sS'profile_use_background_image'
p15
I01
sS'profile_sidebar_fill_color'
p16
VDDEEF6
p17
sS'id'
p18
I575576964
sS'verified'
p19
I00
sS'entities'
p20
(dp21
Vdescription
p22
(dp23
Vurls
p24
(lp25
sssS'profile_image_url_https'
p26
Vhttps://abs.twimg.com/sticky/default_profile_images/default_profile_4_normal.png
p27
sS'_json'
p28
(dp29
Vfollow_request_sent
p30
I00
sVhas_extended_profile
p31
I00
sVprofile_use_background_image
p32
I01
sVdefault_profile_image
p33
I01
sVid
p34
I575576964
sVprofile_background_image_url_https
p35
Vhttps://abs.twimg.com/images/themes/theme1/bg.png
p36
sVverified
p37
I00
sVprofile_text_color
p38
V333333
p39
sVprofile_image_url_https
p40
g27
sVprofile_sidebar_fill_color
p41
g17
sVentities
p42
g21
sVfollowers_count
p43
I305
sVprofile_sidebar_border_color
p44
VC0DEED
p45
sVid_str
p46
V575576964
p47
sVprofile_background_color
p48
VC0DEED
p49
sVlisted_count
p50
I35
sVstatus
p51
(dp52
Vcontributors
p53
NsVtruncated
p54
I00
sVtext
p55
VThe Hunt: Peter: $PMCB PharmaCyte Biotech Discusses Major Milestones Ahead of https://t.co/5W0FsVwg9u
p56
sVin_reply_to_status_id
p57
Nsg34
L666500595872759808L
sVfavorite_count
p58
I0
sVsource
p59
V<a href="http://dlvr.it" rel="nofollow">dlvr.it</a>
p60
sVretweeted
p61
I00
sVcoordinates
p62
Nsg42
(dp63
Vsymbols
p64
(lp65
(dp66
Vindices
p67
(lp68
I17
aI22
asg55
VPMCB
p69
sasVuser_mentions
p70
(lp71
sVhashtags
p72
(lp73
sg24
(lp74
(dp75
Vurl
p76
Vhttps://t.co/5W0FsVwg9u
p77
sg67
(lp78
I78
aI101
asVexpanded_url
p79
Vhttp://dlvr.it/Cm7rsQ
p80
sVdisplay_url
p81
Vdlvr.it/Cm7rsQ
p82
sassVin_reply_to_screen_name
p83
Nsg46
V666500595872759808
p84
sVretweet_count
p85
I0
sVin_reply_to_user_id
p86
NsVfavorited
p87
I00
sVgeo
p88
NsVin_reply_to_user_id_str
p89
NsVpossibly_sensitive
p90
I00
sVlang
p91
Ven
p92
sVcreated_at
p93
VTue Nov 17 06:18:19 +0000 2015
p94
sVin_reply_to_status_id_str
p95
NsVplace
p96
NssVis_translation_enabled
p97
I00
sVutc_offset
p98
NsVstatuses_count
p99
I230380
sg22
V
p100
sVfriends_count
p101
I0
sVlocation
p102
g100
sVprofile_link_color
p103
V0084B4
p104
sVprofile_image_url
p105
Vhttp://abs.twimg.com/sticky/default_profile_images/default_profile_4_normal.png
p106
sVfollowing
p107
I00
sVgeo_enabled
p108
I00
sVprofile_background_image_url
p109
Vhttp://abs.twimg.com/images/themes/theme1/bg.png
p110
sVscreen_name
p111
VPerforM84697233
p112
sg91
Ven
p113
sVprofile_background_tile
p114
I00
sVfavourites_count
p115
I0
sVname
p116
VPerfor Mance
p117
sVnotifications
p118
I00
sg76
Nsg93
VWed May 09 16:33:36 +0000 2012
p119
sVcontributors_enabled
p120
I00
sVtime_zone
p121
NsVprotected
p122
I00
sVdefault_profile
p123
I01
sVis_translator
p124
I00
ssS'contributors_enabled'
p125
I00
sS'profile_text_color'
p126
g39
sS'followers_count'
p127
I305
sS'profile_sidebar_border_color'
p128
g45
sS'id_str'
p129
g47
sS'default_profile_image'
p130
I01
sS'listed_count'
p131
I35
sS'status'
p132
g7
(ctweepy.models
Status
p133
g9
Ntp134
Rp135
(dp136
S'favorited'
p137
I00
sS'contributors'
p138
NsS'truncated'
p139
I00
sS'text'
p140
g56
sS'source_url'
p141
Vhttp://dlvr.it
p142
sS'possibly_sensitive'
p143
I00
sS'in_reply_to_status_id'
p144
NsS'geo'
p145
Nsg18
L666500595872759808L
sS'favorite_count'
p146
I0
sS'lang'
p147
g92
sg20
g63
sS'created_at'
p148
cdatetime
datetime
p149
(S'\x07\xdf\x0b\x11\x06\x12\x13\x00\x00\x00'
p150
tp151
Rp152
sg28
g52
sS'coordinates'
p153
NsS'in_reply_to_user_id_str'
p154
NsS'source'
p155
Vdlvr.it
p156
sS'in_reply_to_status_id_str'
p157
NsS'in_reply_to_screen_name'
p158
Nsg129
g84
sS'retweeted'
p159
I00
sS'place'
p160
NsS'retweet_count'
p161
I0
sS'in_reply_to_user_id'
p162
NsbsS'is_translation_enabled'
p163
I00
sS'utc_offset'
p164
NsS'statuses_count'
p165
I230380
sS'description'
p166
g100
sS'friends_count'
p167
I0
sS'location'
p168
g100
sS'profile_link_color'
p169
g104
sS'profile_image_url'
p170
g106
sS'notifications'
p171
I00
sS'geo_enabled'
p172
I00
sS'profile_background_color'
p173
g49
sS'profile_background_image_url'
p174
g110
sS'screen_name'
p175
g112
sg147
g113
sg1
I00
sS'profile_background_tile'
p176
I00
sS'favourites_count'
p177
I0
sS'name'
p178
g117
sS'url'
p179
Nsg148
g149
(S'\x07\xdc\x05\t\x10!$\x00\x00\x00'
p180
tp181
Rp182
sS'profile_background_image_url_https'
p183
g36
sS'time_zone'
p184
NsS'protected'
p185
I00
sS'default_profile'
p186
I01
sS'is_translator'
p187
I00
sbs.