(dp0
S'following'
p1
(lp2
(lp3
L3322960514L
aI509073574
aI443378519
aI484094125
aL2955256331L
aI401681146
aI257315590
aI1683673790
aI107300246
aL2728551676L
aI831958452
aL2176467930L
aI768400358
aI387204261
aL2912092794L
aL2825867793L
aL2512739436L
aL3007255801L
aI865596042
aI15085591
aI1241971280
aL2950703172L
aI995796817
aL2155613873L
aI154294520
aI410132202
aI934873675
aI1613264491
aI353334919
aI231623292
aI405836994
aI308318069
aI273514858
aI320573433
aL2265159589L
aI17094761
aI62971680
aI48504743
aI22085184
aI16380610
aI22171007
aI18033062
aI27943891
aI15891115
aI24429991
aI38709939
aI326892739
aI991401038
aI468017777
aI363469427
aI1191326252
aL2429615017L
aI568780721
aI78166174
aI124516333
aI525574597
aI352145373
aI95023423
aI412695215
aI162137697
aI1161412962
aI327002070
aI588898960
aI32671930
aI1258468716
aI54125396
aI962208114
aI412648419
aI415891522
aI792254449
aI558128838
aI316038819
aI490038307
aI306643813
aI1293560143
aI716931978
aI1166707572
aL2270745474L
aL2293886233L
aI896872524
aI448341550
aI190463627
aI514827403
aI348915555
aI722557200
aI1274202714
aI347578009
aI494268009
aI623387132
aI346936464
aI783716377
aI522689454
aI64571585
aI713220841
aI1896256544
aI1855915872
aI1444598953
aI410548384
aI294876691
aI113207699
aI201565728
aI1242730543
aI563246079
aI347035763
aI174932645
aI66476631
aI362007691
aI594687877
aI414926753
aI515026811
aI265721383
aI1102883695
aI857304870
aI457584259
aI486255909
aI1084226790
aI401643644
aI1027454358
aI205302299
aI279406727
aI781804052
aI1059194370
aI412725362
aI473499473
aI360981833
aI244676343
aI398317108
aI366823191
aI359943981
aI500286219
aI964953102
aI300070429
aI956687144
aI928562772
aI362188863
aI23151437
aI321574532
aI578677212
aI396970372
aI344511537
aI248407202
aI234505176
aI856628214
aI367844026
aI375875540
aI346126848
aI213537685
aI399127140
aI412746329
aI380483804
aI257975765
aI163778184
aI373143402
aI23561980
aI471514114
aI350582586
aI410334360
aI222871074
aI595850926
aI172098884
aI20567939
aI297203045
aI20322929
aI605133294
aI262484579
aI586321124
aI450439071
aI59326156
aI261726569
aI420798564
aI403638172
aI344428588
aI54458981
aI406019342
aI476988026
aI541110129
aI490982935
aI359576646
aI515097154
aI69492363
aI499178549
aI380720614
aI28566218
aI590770914
aI588070253
aI54028058
aI415077866
aI533353206
aI261578445
aI357734825
aI422393147
aI586255907
aI66521495
aI412507277
aI445953073
aI104037801
aI257590123
aasS'followers'
p4
(lp5
(lp6
I1028810210
aI872125404
aI520703676
aI21904136
aI422938202
aI44961868
aL3644130737L
aI167781199
aL2604969368L
aI267709335
aI147759481
aL3322960514L
aI1093813626
aL3192640115L
aI290705631
aI384937940
aL2368580978L
aL2358656184L
aL2360978156L
aL2360053164L
aI583079090
aL3105651918L
aL2955256331L
aL2752602243L
aI1059722641
aL2577889273L
aI1031465984
aL3024766363L
aL2858445746L
aL2176467930L
aL2512739436L
aL3007255801L
aI270453961
aL2920987369L
aL2862520810L
aL2959656513L
aL2950703172L
aL2918255233L
aL2920236669L
aL2912092794L
aL2839291787L
aL2786773203L
aI715514670
aL2808592184L
aI362188863
aL2786673926L
aI231623292
aI1959891180
aI355989772
aI934873675
aL2701602508L
aI1613264491
aL2606021106L
aI1962117006
aI21248045
aI1274202714
aI855069253
aI308318069
aL2422450369L
aL2590400877L
aL2265159589L
aL2566533965L
aI326892739
aI446500157
aI424347628
aI431262739
aL2467195219L
aL2267982222L
aI244379366
aL2426656302L
aI588898960
aL2327901428L
aL2163696768L
aI700159693
aI327002070
aL2396368472L
aI321671949
aI54125396
aI156997406
aI792254449
aI435597367
aI415891522
aI43250775
aI316038819
aI306643813
aI494268009
aI162908932
aI1679428993
aI1166707572
aI896872524
aI514827403
aI1850125838
aI348915555
aI722557200
aI344530576
aI623387132
aL2160731250L
aI346936464
aL2222320082L
aI31110054
aI1896140102
aI439496538
aI1855915872
aI713220841
aI131387854
aL2203204543L
aI211492371
aI982540117
aI1117812306
aL2180443119L
aI1287723786
aI1971766489
aI1444598953
aI410548384
aI294876691
aI113207699
aI473540935
aI1242730543
aI563246079
aI1496795497
aI410132202
aI798234950
aI1301859074
aI515026811
aI414926753
aI29341887
aI576611653
aI1549066813
aI1539158436
aI946394798
aI497100028
aI1514188026
aI1112497260
aI1027454358
aI401643644
aI457584259
aI486255909
aI1439189610
aI865596042
aI859657375
aI320513262
aI279406727
aI405826016
aI1199500422
aI981660462
aI291383062
aI1387848840
aI554845159
aI96149171
aI491430327
aI501021044
aI201565728
aI558379828
aI1259549016
aI208236499
aI1151766150
aI1154382306
aI1260399446
aI1268419879
aI435438616
aI964953102
aI1241971280
aI435474847
aI1158195686
aI420522551
aI1100184589
aI259502089
aI448560136
aI1183541083
aI43768660
aI997957854
aI406653832
aI752852563
aI321574532
aI196778704
aI396970372
aI272224463
aI1054283701
aI1053864302
aI995796817
aI616294726
aI344511537
aI1023363414
aI332455777
aI979804040
aI975113653
aI88985131
aI551421106
aI956687144
aI745420213
aI852072859
aI262211031
aI234505176
aI344428588
aI578677212
aI788403372
aI483623197
aI869184902
aI348256675
aI493324514
aI855854761
aI522762435
aI856628214
aI65927028
aI346890672
aI375875540
aI262425238
aI28036812
aI636695102
aI424785778
aI386329412
aI158051637
aI412507277
aI347689698
aI29328572
aI280536483
aI232452081
aI222871074
aI386083791
aI41839443
aI257975765
aI724814905
aI163778184
aI373143402
aI110814587
aI774878298
aI362140621
aI365590694
aI764859606
aI406444297
aI362007691
aI729925556
aI410334360
aI385746614
aI243651410
aI404342872
aI270152228
aI411187456
aI229737001
aI635032760
aI594687877
aI605133294
aI297203045
aI403638172
aI262484579
aI347035763
aI59326156
aI62405755
aI432124207
aI179794412
aI365871876
aI261726569
aI386590193
aI350582586
aI420798564
aI367183413
aI360981833
aI450439071
aI359479473
aI346126848
aI406019342
aI599815331
aI499178549
aI600229039
aI476988026
aI599833119
aI308339485
aI396780894
aI432618877
aI355117804
aI341678017
aI515097154
aI69492363
aI359576646
aI422393147
aI54028058
aI380720614
aI359943981
aI357734825
aI316049593
aI588070253
aI415077866
aI104037801
aI332027418
aI257590123
aI445953073
aI365587608
aasS'obj'
p7
ccopy_reg
_reconstructor
p8
(ctweepy.models
User
p9
c__builtin__
object
p10
Ntp11
Rp12
(dp13
S'follow_request_sent'
p14
NsS'has_extended_profile'
p15
I00
sS'profile_use_background_image'
p16
I01
sS'profile_sidebar_fill_color'
p17
VDDEEF6
p18
sS'id'
p19
I590217527
sS'verified'
p20
I00
sS'entities'
p21
(dp22
Vurl
p23
(dp24
Vurls
p25
(lp26
(dp27
g23
Vhttp://t.co/YiiarUnI1e
p28
sVindices
p29
(lp30
I0
aI22
asVexpanded_url
p31
Vhttp://youtu.be/o1PUcCgQdwE
p32
sVdisplay_url
p33
Vyoutu.be/o1PUcCgQdwE
p34
sassVdescription
p35
(dp36
g25
(lp37
(dp38
g23
Vhttp://t.co/laAUPV4MBx
p39
sg29
(lp40
I99
aI121
asg31
Vhttp://soundcloud.com/kidd-cj-3
p41
sg33
Vsoundcloud.com/kidd-cj-3
p42
sasssS'profile_image_url_https'
p43
Vhttps://pbs.twimg.com/profile_images/655804172634206208/GWMpYUCn_normal.jpg
p44
sS'_json'
p45
(dp46
Vfollow_request_sent
p47
NsVhas_extended_profile
p48
I00
sVprofile_use_background_image
p49
I01
sVdefault_profile_image
p50
I00
sVid
p51
I590217527
sVprofile_background_image_url_https
p52
Vhttps://abs.twimg.com/images/themes/theme1/bg.png
p53
sVverified
p54
I00
sVprofile_text_color
p55
V333333
p56
sVprofile_image_url_https
p57
g44
sVprofile_sidebar_fill_color
p58
g18
sVentities
p59
g22
sVfollowers_count
p60
I287
sVprofile_sidebar_border_color
p61
VC0DEED
p62
sVid_str
p63
V590217527
p64
sVprofile_background_color
p65
VC0DEED
p66
sVlisted_count
p67
I1
sVstatus
p68
(dp69
Vcontributors
p70
NsVtruncated
p71
I00
sVtext
p72
V2 people followed me and one person unfollowed me // automatically checked by https://t.co/IvKbKOY9m2
p73
sVin_reply_to_status_id
p74
Nsg51
L666531193735806976L
sVfavorite_count
p75
I0
sVsource
p76
V<a href="http://fllwrs.com" rel="nofollow">fllwrs</a>
p77
sVretweeted
p78
I00
sVcoordinates
p79
Nsg59
(dp80
Vsymbols
p81
(lp82
sVuser_mentions
p83
(lp84
sVhashtags
p85
(lp86
sg25
(lp87
(dp88
g23
Vhttps://t.co/IvKbKOY9m2
p89
sg29
(lp90
I78
aI101
asg31
Vhttp://fllwrs.com
p91
sg33
Vfllwrs.com
p92
sassVin_reply_to_screen_name
p93
Nsg63
V666531193735806976
p94
sVretweet_count
p95
I0
sVin_reply_to_user_id
p96
NsVfavorited
p97
I00
sVgeo
p98
NsVin_reply_to_user_id_str
p99
NsVpossibly_sensitive
p100
I00
sVlang
p101
Ven
p102
sVcreated_at
p103
VTue Nov 17 08:19:54 +0000 2015
p104
sVin_reply_to_status_id_str
p105
NsVplace
p106
NssVis_translation_enabled
p107
I00
sVutc_offset
p108
I-25200
sVstatuses_count
p109
I3675
sg35
VYoung Rapper comin out of madison IL for booking, features, and verses email Cowilliams5@yahoo.com http://t.co/laAUPV4MBx
p110
sVfriends_count
p111
I197
sVlocation
p112
VMadsion, Killinois
p113
sVprofile_link_color
p114
V0084B4
p115
sVprofile_image_url
p116
Vhttp://pbs.twimg.com/profile_images/655804172634206208/GWMpYUCn_normal.jpg
p117
sVfollowing
p118
NsVgeo_enabled
p119
I01
sVprofile_banner_url
p120
Vhttps://pbs.twimg.com/profile_banners/590217527/1405574367
p121
sVprofile_background_image_url
p122
Vhttp://abs.twimg.com/images/themes/theme1/bg.png
p123
sVscreen_name
p124
VCorryTooFly
p125
sg101
Ven
p126
sVprofile_background_tile
p127
I00
sVfavourites_count
p128
I1036
sVname
p129
VKidd CJ
p130
sVnotifications
p131
Nsg23
Vhttp://t.co/YiiarUnI1e
p132
sg103
VFri May 25 18:41:58 +0000 2012
p133
sVcontributors_enabled
p134
I00
sVtime_zone
p135
VArizona
p136
sVprotected
p137
I00
sVdefault_profile
p138
I01
sVis_translator
p139
I00
ssS'contributors_enabled'
p140
I00
sS'profile_text_color'
p141
g56
sS'followers_count'
p142
I287
sS'profile_sidebar_border_color'
p143
g62
sS'id_str'
p144
g64
sS'default_profile_image'
p145
I00
sS'listed_count'
p146
I1
sS'status'
p147
g8
(ctweepy.models
Status
p148
g10
Ntp149
Rp150
(dp151
S'favorited'
p152
I00
sS'contributors'
p153
NsS'truncated'
p154
I00
sS'text'
p155
g73
sS'source_url'
p156
Vhttp://fllwrs.com
p157
sS'possibly_sensitive'
p158
I00
sS'in_reply_to_status_id'
p159
NsS'geo'
p160
Nsg19
L666531193735806976L
sS'favorite_count'
p161
I0
sS'lang'
p162
g102
sg21
g80
sS'created_at'
p163
cdatetime
datetime
p164
(S'\x07\xdf\x0b\x11\x08\x136\x00\x00\x00'
p165
tp166
Rp167
sg45
g69
sS'coordinates'
p168
NsS'in_reply_to_user_id_str'
p169
NsS'source'
p170
Vfllwrs
p171
sS'in_reply_to_status_id_str'
p172
NsS'in_reply_to_screen_name'
p173
Nsg144
g94
sS'retweeted'
p174
I00
sS'place'
p175
NsS'retweet_count'
p176
I0
sS'in_reply_to_user_id'
p177
NsbsS'is_translation_enabled'
p178
I00
sS'utc_offset'
p179
I-25200
sS'statuses_count'
p180
I3675
sS'description'
p181
g110
sS'friends_count'
p182
I197
sS'location'
p183
g113
sS'profile_link_color'
p184
g115
sS'profile_image_url'
p185
g117
sS'notifications'
p186
NsS'geo_enabled'
p187
I01
sS'profile_background_color'
p188
g66
sS'profile_banner_url'
p189
g121
sS'profile_background_image_url'
p190
g123
sS'screen_name'
p191
g125
sg162
g126
sg1
I00
sS'profile_background_tile'
p192
I00
sS'favourites_count'
p193
I1036
sS'name'
p194
g130
sS'url'
p195
g132
sg163
g164
(S'\x07\xdc\x05\x19\x12):\x00\x00\x00'
p196
tp197
Rp198
sS'profile_background_image_url_https'
p199
g53
sS'time_zone'
p200
g136
sS'protected'
p201
I00
sS'default_profile'
p202
I01
sS'is_translator'
p203
I00
sbs.