(dp0
S'following'
p1
(lp2
(lp3
L2770779569L
aI18639734
aI23249152
aI258028535
aI47708973
aL2465030030L
aL2293885094L
aL2426574114L
aI409194010
aI818081647
aI926793032
aI380500399
aI64242521
aI136136326
aI14289197
aI312653402
aI820031509
aL3159953704L
aL2275337142L
aI838267922
aI20800915
aI707464219
aL2999735878L
aI41458395
aI37040959
aI93913891
aI16999433
aI770904320
aI22140382
aL2999760448L
aL2302479052L
aI125686737
aL2546788616L
aL2830371145L
aL2992367496L
aI397136529
aL2595918914L
aI218430551
aI32570672
aI54243900
aL3069932476L
aI49637104
aL3248519726L
aL2796938558L
aI61466645
aI1859386484
aI466333756
aL3290849920L
aI28353766
aI342595907
aI807279259
aL3232061137L
aI1611593304
aI72907355
aI1001192245
aI24819650
aI41599396
aL2341445778L
aL3385298543L
aL2338557668L
aI928967952
aI41239267
aI313714566
aI84365116
aI150094848
aL3094040781L
aL2468072484L
aI1419760604
aI23484039
aL2607477037L
aI1262364356
aL3261057500L
aI46673773
aI709249044
aI285261825
aL2259177605L
aL2824057875L
aI37555599
aL2433296083L
aL2416355760L
aI112872946
aI89491245
aI904039608
aI14117843
aI14620190
aI37918984
aI388066444
aL3346438133L
aL2471482538L
aI560528318
aI234044087
aI299661515
aI15633653
aL2941118449L
aI1399951764
aI19074331
aI414093082
aL2344623210L
aI1033654686
aI632341632
aI37469211
aI14216123
aL3036184249L
aI559118898
aI311099164
aL2319600132L
aI1413027896
aI201296379
aI78081412
aI21323268
aI127903829
aI1669946192
aL3093313565L
aL2974809074L
aL3100250551L
aL2842349595L
aL2828536458L
aI18481050
aI1685702551
aI147491390
aI273645645
aL2448524059L
aI20382026
aI30820266
aL2272207286L
aI84402174
aL2341530906L
aI206820388
aI412611622
aL3195664436L
aL2343862982L
aI26775476
aI483932144
aI127567372
aI925752595
aL2413104151L
aI52123263
aL2893191361L
aI151140821
aI3108351
aL3154923455L
aL2704486915L
aI410827049
aI1036219842
aI1689434408
aL2244024828L
aI1380942740
aL2482153424L
aL2409330439L
aI79233326
aI1451912564
aI790175954
aI863003467
aI460678801
aI140912249
aI223589965
aI17549691
aL2280064627L
aL2339480196L
aL3006530915L
aI14228535
aI44438256
aI81157050
aI130684475
aI44705869
aI245069853
aL2231850896L
aI1041050238
aI821618390
aI1621638852
aI15296897
aI26066268
aL2407502291L
aI66975479
aI564964181
aI992182100
aI53215424
aI89538046
aI1928213371
aI31546412
aI1059530150
aL2746667072L
aI133483902
aL3184637045L
aI1360035901
aI17266725
aI100024370
aI82162291
aL2316310555L
aI77304134
aI788333744
aL2520719083L
aI248836670
aI61342056
aI101105765
aI47678782
aI714051110
aI24609836
aL2710561359L
aI501444644
aI139986343
aI270039471
aI1944646057
aL2400650774L
aI7822742
aL3065473699L
aL2971808979L
aI21394549
aL2648357839L
aI73615940
aI301638595
aI102094857
aI102527566
aI34379992
aI84312619
aI16595597
aI168715580
aI377714371
aI28645057
aI245888816
aI302545862
aI11247222
aI1607155250
aI1217108497
aI475524030
aI15897179
aI317437245
aI26410257
aI586734515
aI49620233
aI1673739764
aI108021761
aI193838214
aI43950136
aI222954248
aI47247213
aI397230151
aI1539164581
aI1187422273
aI34582316
aI1639603778
aI23368614
aI56121651
aI42119682
aI72442349
aI297848618
aI1228537610
aI72928001
aI28140646
aI274233761
aI17841130
aI15110357
aI34713362
aI71295439
aI24227424
aI14173032
aI163648850
aI166597717
aI7520262
aI44060322
aI624413
aI21328656
aI23059499
aI82142636
aI37284991
aI71454795
aI250758475
aI54664941
aI21232827
aI51912109
aI27922928
aI264370502
aI14250809
aI60113926
aI17780244
aI19143910
aI203652149
aL2295371424L
aI29748372
aI40099128
aL2565429648L
aI18433619
aL2364889134L
aI36990709
aI52126417
aI43111757
aL2334614718L
aI139526643
aI430841130
aI1308512629
aI1152105936
aI55561590
aI262652488
aI75354209
aI545618159
aI403855355
aI35404934
aL2186813068L
aI50463387
aI373102216
aI201891203
aI59853587
aL2695859095L
aI468637232
aI904810278
aI443918542
aI955733059
aI190092133
aI19739279
aI23390520
aI65681636
aI550663732
aI18856867
aI49663664
aI96682182
aI514835972
aI15971805
aI262144590
aI15568127
aI41822624
aI423565223
aI47757340
aI29315609
aI237591901
aI6761682
aI168679374
aI27762318
aI236953420
aI613131698
aI416311594
aasS'followers'
p4
(lp5
(lp6
L3161642778L
aL4117183767L
aL4109697221L
aL3843268475L
aI316453591
aL3551327352L
aI1923926642
aL3120145617L
aI50185177
aI48486244
aL4120054337L
aL4050544955L
aL2529664742L
aI1857985849
aL2159322464L
aI54666131
aL3405443625L
aL4086878235L
aI396999574
aI1906343022
aI18548136
aL2968256134L
aL3213750129L
aI1281237642
aL2495688343L
aL3069932476L
aI794921328
aL2830371145L
aL2704486915L
aI397136529
aI100767876
aL3108417284L
aL3241286511L
aL3261057500L
aI1393603976
aL3154923455L
aL3184637045L
aL2938844052L
aL3242374707L
aI30359797
aL3232209754L
aL2338557668L
aI45415894
aI1607155250
aL3300640980L
aI121158213
aL2543761170L
aI1375860338
aL3065060260L
aL3351720195L
aL2828536458L
aL3187160877L
aI1719506780
aL3233951736L
aL3297520583L
aI790175954
aL3012483408L
aL2753471751L
aL2764193091L
aI413704957
aI44705869
aL2517112130L
aL3187400455L
aI585141197
aI788333744
aL3014390235L
aL2433268352L
aI17455826
aI1955136079
aI611817117
aL2981421573L
aL2772010364L
aI315189503
aI1530916794
aL3045004801L
aI1539164581
aL2364889134L
aI43111757
aL3043482424L
aL2982376125L
aL2932638662L
aL2600389056L
aL2853387560L
aL2740415981L
aL2711875154L
aL2733712953L
aL2695859095L
aL2721161421L
aI82261865
aI47757340
aI25136349
aI37432252
aasS'obj'
p7
ccopy_reg
_reconstructor
p8
(ctweepy.models
User
p9
c__builtin__
object
p10
Ntp11
Rp12
(dp13
S'follow_request_sent'
p14
I00
sS'has_extended_profile'
p15
I00
sS'profile_use_background_image'
p16
I01
sS'profile_sidebar_fill_color'
p17
VDDEEF6
p18
sS'id'
p19
I600041771
sS'verified'
p20
I00
sS'entities'
p21
(dp22
Vdescription
p23
(dp24
Vurls
p25
(lp26
sssS'profile_image_url_https'
p27
Vhttps://pbs.twimg.com/profile_images/443000075409575936/IqIn0yC__normal.jpeg
p28
sS'_json'
p29
(dp30
Vfollow_request_sent
p31
I00
sVhas_extended_profile
p32
I00
sVprofile_use_background_image
p33
I01
sVdefault_profile_image
p34
I00
sVid
p35
I600041771
sVprofile_background_image_url_https
p36
Vhttps://abs.twimg.com/images/themes/theme1/bg.png
p37
sVverified
p38
I00
sVprofile_text_color
p39
V333333
p40
sVprofile_image_url_https
p41
g28
sVprofile_sidebar_fill_color
p42
g18
sVentities
p43
g22
sVfollowers_count
p44
I92
sVprofile_sidebar_border_color
p45
VC0DEED
p46
sVid_str
p47
V600041771
p48
sVprofile_background_color
p49
VC0DEED
p50
sVlisted_count
p51
I4
sVstatus
p52
(dp53
Vlang
p54
Ven
p55
sVfavorited
p56
I00
sg43
(dp57
Vsymbols
p58
(lp59
(dp60
Vindices
p61
(lp62
I0
aI5
asVtext
p63
VMESO
p64
sasVuser_mentions
p65
(lp66
sVhashtags
p67
(lp68
sg25
(lp69
ssVcontributors
p70
NsVtruncated
p71
I00
sg63
V$MESO has 2 drugs in phase 3????
p72
sVcreated_at
p73
VFri Nov 13 16:31:39 +0000 2015
p74
sVretweeted
p75
I00
sVin_reply_to_status_id_str
p76
NsVcoordinates
p77
NsVin_reply_to_user_id_str
p78
NsVsource
p79
V<a href="http://twitter.com/download/android" rel="nofollow">Twitter for Android</a>
p80
sVin_reply_to_status_id
p81
NsVin_reply_to_screen_name
p82
Nsg47
V665205393874751488
p83
sVplace
p84
NsVretweet_count
p85
I0
sVgeo
p86
Nsg35
L665205393874751488L
sVfavorite_count
p87
I0
sVin_reply_to_user_id
p88
NssVis_translation_enabled
p89
I00
sVutc_offset
p90
NsVstatuses_count
p91
I392
sg23
Vinvestor,any trades I post are NOT recommedations!.I do not give advice about stocks.
p92
sVfriends_count
p93
I330
sVlocation
p94
Va/c
p95
sVprofile_link_color
p96
V0084B4
p97
sVprofile_image_url
p98
Vhttp://pbs.twimg.com/profile_images/443000075409575936/IqIn0yC__normal.jpeg
p99
sVfollowing
p100
I00
sVgeo_enabled
p101
I00
sVprofile_background_image_url
p102
Vhttp://abs.twimg.com/images/themes/theme1/bg.png
p103
sVscreen_name
p104
Vtraderal1
p105
sg54
Ven
p106
sVprofile_background_tile
p107
I00
sVfavourites_count
p108
I855
sVname
p109
Valberto rivera
p110
sVnotifications
p111
I00
sVurl
p112
Nsg73
VTue Jun 05 11:41:37 +0000 2012
p113
sVcontributors_enabled
p114
I00
sVtime_zone
p115
NsVprotected
p116
I00
sVdefault_profile
p117
I01
sVis_translator
p118
I00
ssS'contributors_enabled'
p119
I00
sS'profile_text_color'
p120
g40
sS'followers_count'
p121
I92
sS'profile_sidebar_border_color'
p122
g46
sS'id_str'
p123
g48
sS'default_profile_image'
p124
I00
sS'listed_count'
p125
I4
sS'status'
p126
g8
(ctweepy.models
Status
p127
g10
Ntp128
Rp129
(dp130
S'favorited'
p131
I00
sS'contributors'
p132
NsS'truncated'
p133
I00
sS'text'
p134
g72
sS'source_url'
p135
Vhttp://twitter.com/download/android
p136
sS'in_reply_to_status_id'
p137
NsS'geo'
p138
Nsg19
L665205393874751488L
sS'favorite_count'
p139
I0
sS'lang'
p140
g55
sg21
g57
sS'created_at'
p141
cdatetime
datetime
p142
(S"\x07\xdf\x0b\r\x10\x1f'\x00\x00\x00"
p143
tp144
Rp145
sg29
g53
sS'coordinates'
p146
NsS'in_reply_to_user_id_str'
p147
NsS'source'
p148
VTwitter for Android
p149
sS'in_reply_to_status_id_str'
p150
NsS'in_reply_to_screen_name'
p151
Nsg123
g83
sS'retweeted'
p152
I00
sS'place'
p153
NsS'retweet_count'
p154
I0
sS'in_reply_to_user_id'
p155
NsbsS'is_translation_enabled'
p156
I00
sS'utc_offset'
p157
NsS'statuses_count'
p158
I392
sS'description'
p159
g92
sS'friends_count'
p160
I330
sS'location'
p161
g95
sS'profile_link_color'
p162
g97
sS'profile_image_url'
p163
g99
sS'notifications'
p164
I00
sS'geo_enabled'
p165
I00
sS'profile_background_color'
p166
g50
sS'profile_background_image_url'
p167
g103
sS'screen_name'
p168
g105
sg140
g106
sg1
I00
sS'profile_background_tile'
p169
I00
sS'favourites_count'
p170
I855
sS'name'
p171
g110
sS'url'
p172
Nsg141
g142
(S'\x07\xdc\x06\x05\x0b)%\x00\x00\x00'
p173
tp174
Rp175
sS'profile_background_image_url_https'
p176
g37
sS'time_zone'
p177
NsS'protected'
p178
I00
sS'default_profile'
p179
I01
sS'is_translator'
p180
I00
sbs.