(dp0
S'following'
p1
(lp2
sS'followers'
p3
(lp4
(lp5
I42402732
aI1924312855
aI1583359764
aI1924310023
aL2441935978L
aL3809724919L
aI1135701325
aL2603176856L
aI1667214625
aL2180870413L
aL3077842766L
aI1411929169
aL2581019786L
aI62985043
aI1302017845
aI51570722
aI306662477
aI20193762
aI1634282490
aI14067269
aL2800986959L
aL3301540820L
aI1462240951
aI619212995
aI972980449
aI390793858
aI242073510
aI430386676
aI275260027
aI142492658
aL2234758190L
aI35359528
aI597799971
aI862199132
aL2429650615L
aI20732836
aI314324021
aI579988320
aI243618345
aI33150159
aI971129101
aI409602694
aI54394183
aI437584467
aI377330000
aL3194846497L
aL3220401883L
aL3176714328L
aI322366215
aL3025773202L
aI341031417
aI236990836
aI248254335
aI455263458
aL2571145477L
aI90758418
aL3139484672L
aI340933791
aI550483768
aI99144994
aL3169249704L
aI1604707010
aI20053729
aI174078146
aI919800697
aI354340256
aI303531344
aI866486821
aI198869640
aI39499749
aI315740027
aI438614859
aI45683950
aI43691415
aI1587580320
aL2973481539L
aI69476342
aL2372705905L
aI50871548
aL2948879195L
aL2209850584L
aI170763960
aI17007782
aI164938066
aL3017849575L
aI756108222
aI1242823806
aI1394788638
aI33612993
aI241892348
aI259927034
aI11023952
aI1275929029
aI250317700
aI28749902
aI73465031
aI91544161
aI335057998
aI504692485
aI323289579
aI342861027
aI25598050
aI267893949
aI96506203
aL2952847093L
aL2924464447L
aI175109105
aL2325678660L
aI487089304
aL2649674906L
aI52274621
aI247044094
aI1274952758
aI53023335
aL2412763650L
aI175451620
aI872376037
aL2612179520L
aI26384380
aI22181201
aI18634258
aI312758133
aI20604380
aI1975315776
aI140540706
aI121439458
aL2378107208L
aI120672388
aI47651476
aI35227172
aI135121834
aL2812352367L
aI1286695747
aL2808930026L
aI148419241
aI68499935
aL2803985268L
aL2760310822L
aI14237032
aL2369056889L
aI216120316
aI808379899
aI1569646314
aL2303053614L
aI345432047
aI475480971
aL2697114774L
aI400936007
aI238174807
aI35428389
aI210541126
aL2586933196L
aI21997093
aI350956833
aI1597392253
aI1510539757
aI449128723
aI77341082
aI567351439
aI215389020
aI20273321
aI141066262
aI18208387
aI989983399
aI498383654
aI18260470
aI310433836
aI375272150
aI340010002
aI787637804
aI14428704
aI16511533
aI155920248
aI11483272
aI55612755
aI33286321
aI283619537
aI17370325
aI18573153
aI161590330
aI616227533
aI23155782
aL2282402046L
aI83518253
aI501816596
aI340470018
aI245225701
aI1112888077
aI9154802
aI15428281
aI1708032175
aI32553501
aI47963316
aI498415396
aI20940682
aI14409639
aI335402964
aI159209423
aI402929013
aI5875682
aI302586342
aI365977897
aI17540951
aI556509518
aI201919494
aI43971991
aL2165191669L
aI264326180
aI390605967
aI89119209
aI64783984
aI63901070
aI249246689
aI1845191160
aI1640402070
aI1618160197
aI1907487656
aI10137352
aI167100588
aI403774126
aI340041416
aI1705583594
aI34917284
aI549795344
aI1379275105
aI1599605738
aI397328991
aI15349546
aI213940708
aI1624588772
aI317336870
aI228557220
aI17213187
aI304180020
aI344928944
aI1335477031
aI215466014
aI30846613
aI762440340
aI71651168
aI691593
aI246367776
aI804588912
aI1336205096
aI327749312
aI43413331
aI1227859237
aI762326510
aI35643668
aI33238078
aI22161611
aI766815774
aI762890378
aI21003769
aI14177585
aasS'obj'
p6
ccopy_reg
_reconstructor
p7
(ctweepy.models
User
p8
c__builtin__
object
p9
Ntp10
Rp11
(dp12
S'follow_request_sent'
p13
NsS'has_extended_profile'
p14
I00
sS'profile_use_background_image'
p15
I00
sS'profile_sidebar_fill_color'
p16
VDDEEF6
p17
sS'id'
p18
I601422914
sS'verified'
p19
I00
sS'entities'
p20
(dp21
Vurl
p22
(dp23
Vurls
p24
(lp25
(dp26
g22
Vhttp://t.co/snwtNP5nGX
p27
sVindices
p28
(lp29
I0
aI22
asVexpanded_url
p30
Vhttp://estimize.com
p31
sVdisplay_url
p32
Vestimize.com
p33
sassVdescription
p34
(dp35
g24
(lp36
sssS'profile_image_url_https'
p37
Vhttps://pbs.twimg.com/profile_images/3592105237/d6252cf7e725d9538fdd876854f9fb71_normal.png
p38
sS'_json'
p39
(dp40
Vfollow_request_sent
p41
NsVhas_extended_profile
p42
I00
sVprofile_use_background_image
p43
I00
sVdefault_profile_image
p44
I00
sVid
p45
I601422914
sVprofile_background_image_url_https
p46
Vhttps://pbs.twimg.com/profile_background_images/584804240/57gxxfnus6fgl5enh4ma.jpeg
p47
sVverified
p48
I00
sVprofile_text_color
p49
V333333
p50
sVprofile_image_url_https
p51
g38
sVprofile_sidebar_fill_color
p52
g17
sVentities
p53
g21
sVfollowers_count
p54
I255
sVprofile_sidebar_border_color
p55
VFFFFFF
p56
sVid_str
p57
V601422914
p58
sVprofile_background_color
p59
VFFFFFF
p60
sVlisted_count
p61
I19
sVstatus
p62
(dp63
Vcontributors
p64
NsVtruncated
p65
I00
sVtext
p66
V@TrembFredrick Your estimate for $TPC Q3 2015 has been scored \u2013 https://t.co/JlQ0ywcGT6
p67
sVin_reply_to_status_id
p68
Nsg45
L666229920499113984L
sVfavorite_count
p69
I0
sVsource
p70
V<a href="http://www.estimize.com" rel="nofollow">EstimizeNotifications</a>
p71
sVretweeted
p72
I00
sVcoordinates
p73
Nsg53
(dp74
Vsymbols
p75
(lp76
(dp77
g28
(lp78
I33
aI37
asg66
VTPC
p79
sasVuser_mentions
p80
(lp81
(dp82
g45
I1510539757
sg28
(lp83
I0
aI14
asg57
V1510539757
p84
sVscreen_name
p85
VTrembFredrick
p86
sVname
p87
VFrederick Tremblay
p88
sasVhashtags
p89
(lp90
sg24
(lp91
(dp92
g22
Vhttps://t.co/JlQ0ywcGT6
p93
sg28
(lp94
I64
aI87
asg30
Vhttp://www.estimize.com/tpc/fq3-2015/estimates/258079
p95
sg32
Vestimize.com/tpc/fq3-2015/e\u2026
p96
sassVin_reply_to_screen_name
p97
VTrembFredrick
p98
sg57
V666229920499113984
p99
sVretweet_count
p100
I0
sVin_reply_to_user_id
p101
I1510539757
sVfavorited
p102
I00
sVgeo
p103
NsVin_reply_to_user_id_str
p104
V1510539757
p105
sVpossibly_sensitive
p106
I00
sVlang
p107
Ven
p108
sVcreated_at
p109
VMon Nov 16 12:22:45 +0000 2015
p110
sVin_reply_to_status_id_str
p111
NsVplace
p112
NssVis_translation_enabled
p113
I00
sVutc_offset
p114
NsVstatuses_count
p115
I84800
sg34
VReceive notifications of important events taking place on the Estimize platform specific to you.
p116
sVfriends_count
p117
I0
sVlocation
p118
VNew York, NY
p119
sVprofile_link_color
p120
V0084B4
p121
sVprofile_image_url
p122
Vhttp://pbs.twimg.com/profile_images/3592105237/d6252cf7e725d9538fdd876854f9fb71_normal.png
p123
sVfollowing
p124
NsVgeo_enabled
p125
I00
sVprofile_background_image_url
p126
Vhttp://pbs.twimg.com/profile_background_images/584804240/57gxxfnus6fgl5enh4ma.jpeg
p127
sg85
VEstimizeNotify
p128
sg107
Ven
p129
sVprofile_background_tile
p130
I00
sVfavourites_count
p131
I0
sg87
VEstimize
p132
sVnotifications
p133
Nsg22
Vhttp://t.co/snwtNP5nGX
p134
sg109
VThu Jun 07 00:50:44 +0000 2012
p135
sVcontributors_enabled
p136
I00
sVtime_zone
p137
NsVprotected
p138
I00
sVdefault_profile
p139
I00
sVis_translator
p140
I00
ssS'contributors_enabled'
p141
I00
sS'profile_text_color'
p142
g50
sS'followers_count'
p143
I255
sS'profile_sidebar_border_color'
p144
g56
sS'id_str'
p145
g58
sS'default_profile_image'
p146
I00
sS'listed_count'
p147
I19
sS'status'
p148
g7
(ctweepy.models
Status
p149
g9
Ntp150
Rp151
(dp152
S'favorited'
p153
I00
sS'contributors'
p154
NsS'truncated'
p155
I00
sS'text'
p156
g67
sS'source_url'
p157
Vhttp://www.estimize.com
p158
sS'possibly_sensitive'
p159
I00
sS'in_reply_to_status_id'
p160
NsS'geo'
p161
Nsg18
L666229920499113984L
sS'favorite_count'
p162
I0
sS'lang'
p163
g108
sg20
g74
sS'created_at'
p164
cdatetime
datetime
p165
(S'\x07\xdf\x0b\x10\x0c\x16-\x00\x00\x00'
p166
tp167
Rp168
sg39
g63
sS'coordinates'
p169
NsS'in_reply_to_user_id_str'
p170
g105
sS'source'
p171
VEstimizeNotifications
p172
sS'in_reply_to_status_id_str'
p173
NsS'in_reply_to_screen_name'
p174
g98
sg145
g99
sS'retweeted'
p175
I00
sS'place'
p176
NsS'retweet_count'
p177
I0
sS'in_reply_to_user_id'
p178
I1510539757
sbsS'is_translation_enabled'
p179
I00
sS'utc_offset'
p180
NsS'statuses_count'
p181
I84800
sS'description'
p182
g116
sS'friends_count'
p183
I0
sS'location'
p184
g119
sS'profile_link_color'
p185
g121
sS'profile_image_url'
p186
g123
sS'notifications'
p187
NsS'geo_enabled'
p188
I00
sS'profile_background_color'
p189
g60
sS'profile_background_image_url'
p190
g127
sS'screen_name'
p191
g128
sg163
g129
sg1
I00
sS'profile_background_tile'
p192
I00
sS'favourites_count'
p193
I0
sS'name'
p194
g132
sS'url'
p195
g134
sg164
g165
(S'\x07\xdc\x06\x07\x002,\x00\x00\x00'
p196
tp197
Rp198
sS'profile_background_image_url_https'
p199
g47
sS'time_zone'
p200
NsS'protected'
p201
I00
sS'default_profile'
p202
I00
sS'is_translator'
p203
I00
sbs.