(dp0
S'following'
p1
(lp2
(lp3
L2272207286L
aL2208381632L
aL2227396142L
aI27746125
aI317041794
aI599477579
aI418036639
aI1457218807
aI20737672
aI133420513
aI1852555963
aI1499852552
aI37065910
aI316462911
aI34740363
aI22101927
aI38434286
aI1134531883
aI14117774
aI16347506
aL3070937533L
aI182495200
aI45921165
aI38438222
aI291428201
aI19752348
aI562618320
aI46939857
aI1211706115
aI455868450
aI16314005
aI476227352
aI379501471
aL2323118640L
aI232743364
aI131102007
aI103760972
aL3060678379L
aL2832246523L
aL3179906354L
aI20264905
aI7520262
aI15601977
aI21394549
aI80697114
aI1588068188
aI16888420
aI160584696
aI397230151
aI8317872
aI276714687
aI365321928
aI27162339
aI59393368
aI1438162062
aI121750974
aI56815298
aI21917683
aL2493246408L
aI843112550
aI292777349
aL2217099931L
aI184881902
aI38476367
aI545618159
aI363112193
aI1053412615
aI27093808
aI40897130
aI316485110
aI461452739
aI56910769
aI258929520
aI15079601
aI983655260
aI31001654
aI17583317
aI1473431
aI59117354
aI1681619094
aI618228289
aI244248703
aI403855355
aL2898532140L
aI40938160
aI31997610
aI41908847
aI1122192223
aI46759952
aI19398213
aI1705752529
aI20264866
aI20950481
aI209907837
aI406423017
aI593370001
aI37106040
aI85967617
aI502313153
aI397517401
aI19314586
aI27862658
aI61830970
aI327622963
aI1202367997
aI382798676
aI818603016
aI21176324
aI17446621
aI1630896181
aI17695167
aI19251838
aL2616142874L
aI813417452
aI15915843
aI446642685
aI16371383
aI204832963
aI572225652
aI829554127
aI1485188648
aI7836182
aI44695601
aI14972202
aI784856
aI226231298
aI336116660
aI41635170
aL2230004666L
aI17220817
aI353864817
aI1064700308
aI273538988
aI47786101
aI1413027896
aI66447279
aI298047906
aI44984439
aI271060845
aI57339949
aI57625403
aI41675868
aI212304085
aI45854669
aI44992488
aI18726942
aI36771809
aI17471979
aI37982404
aI1345672002
aI85253884
aI1528558014
aI20793816
aI456997996
aI540756488
aI3705681
aI21354868
aI38448277
aI19725644
aI47247213
aI60783724
aL2295293390L
aL2389130670L
aI1668463603
aL2317229408L
aI511402689
aI37710752
aI54414905
aI19777398
aI151280096
aI180463340
aI49663664
aI912824402
aI129946529
aI1468330632
aI23116280
aI232120274
aI376499282
aI1932437030
aI610443456
aI1956726278
aI18944615
aI1953323880
aI20998647
aI21388284
aI42956737
aI17768984
aI610675443
aI74594552
aI475524030
aI430841130
aI26705006
aI31127446
aI278694321
aI102212196
aI29062886
aI1939860914
aI53993942
aI72907355
aI20402945
aI63238541
aI272972289
aI596744235
aI1707775416
aI23481561
aI24680689
aI341915578
aI20450112
aI172068476
aI41012342
aI34743251
aI228515266
aI56411751
aI49883265
aI17172869
aI35017255
aI57700994
aI19651092
aI587735364
aI35865630
aI22163953
aI22998166
aI40679590
aI13298072
aI565248659
aI44196397
aI45241945
aI1534167900
aI100024370
aI701667727
aI139263686
aI22650300
aI51241574
aI993756841
aI44498216
aI43111757
aI477789152
aI271138078
aI23484039
aI15224867
aI16029780
aI428333
aI13201312
aI1401009632
aI49753604
aI441123653
aI378208943
aI67418441
aI15876379
aI130997057
aI36439939
aI193542064
aI431061432
aI1048236180
aI1411617228
aI17977954
aI16191793
aI48028397
aI34687493
aI18687463
aI17810254
aI9409552
aI7573792
aI126067662
aI17866834
aI11856342
aI32135704
aI1305995330
aI133880286
aI50374439
aI250831586
aI21000248
aI11833002
aI1056149466
aI19739279
aI20542450
aI54619566
aI250758475
aI1141627460
aI21232827
aI264370502
aI82142636
aI38507043
aI1384442401
aI17927100
aI954590804
aI16631821
aI20683419
aI989429790
aI279289365
aI71945531
aI260473647
aI256573865
aI428653913
aI27961547
aI61898653
aI44030337
aI84402174
aI15808764
aI119383866
aI1332095168
aI142157505
aI58808528
aI253168011
aI1132090693
aI36597548
aI263812431
aI1098364164
aI1148951203
aI1154735898
aI1152279248
aI1330457336
aI326315947
aI1364930179
aI15130891
aI25163231
aI247857712
aI500042487
aI36686415
aI15485441
aI490982935
aI407977463
aI22088714
aI1383966032
aI254207829
aI7302282
aI783214
aI22631898
aI22522178
aI257805760
aI19988458
aI978908012
aI531384436
aI1201661238
aI271211220
aI20562637
aI558446365
aI37284991
aI714051110
aI61342056
aI107242543
aI521936274
aI555928038
aI404056339
aI15935591
aI16303106
aI16827489
aI455366870
aI224466293
aI455977179
aI123930213
aI25827743
aI53215424
aI38053161
aI17880354
aI43399264
aI455309376
aI253062405
aI42712551
aI338330795
aI131948686
aI21328656
aI27698202
aI97334517
aI82143051
aI27922928
aI23368614
aI462950376
aI20246842
aI52166809
aI26257166
aI65681636
aI24227424
aI203652149
aI550663732
aI50863281
aI205056015
aI472974408
aI31614413
aI1000262514
aI21841004
aI995378850
aI19362299
aI83888782
aI42987732
aI202470965
aI461212126
aI19750789
aI14115408
aI16403943
aI48893889
aI36362259
aI135386078
aI19426551
aI87954771
aI58919137
aI34767359
aI87277455
aI52581783
aI33615152
aI55458823
aI123417995
aI84365116
aI53120768
aI20950232
aI16672159
aI28870086
aI20963461
aI35385104
aI48492831
aI120019718
aI15729027
aI455824771
aI18856867
aI18034541
aI168570138
aI51263592
aI20899023
aI78105431
aI59578815
aI85398638
aI108318595
aI123204436
aI240734425
aI127621803
aI40927173
aasS'followers'
p4
(lp5
(lp6
I1304060246
aL2986233663L
aI1935646201
aI42912883
aL2208381632L
aL3947413216L
aI248260026
aI318393064
aL3261057500L
aI1884628062
aI189901963
aL3863573056L
aI1183838114
aI1211706115
aI38837865
aL3150177589L
aI100767876
aL2972555345L
aI562618320
aL2323118640L
aL2323122638L
aL3130080730L
aI239088847
aI1116396168
aI1870252058
aI262791506
aL3073478049L
aL2483093335L
aI343227013
aL3065060260L
aL3064934625L
aI27079921
aI303531344
aL2961171227L
aI14886375
aI23368614
aI1360944860
aI976592376
aL2911070687L
aI611817117
aL2876744782L
aI187889407
aL2842256665L
aI406423017
aL2569657599L
aI449899053
aI126640430
aI1705752529
aI50785471
aI17768984
aI829554127
aI1345672002
aL2230004666L
aI184881902
aI492333194
aI57625403
aI257805760
aI131990331
aI21354868
aL2389130670L
aL2317229408L
aI26705006
aI65681636
aI1953323880
aI341915578
aI43111757
aI71945531
aasS'obj'
p7
ccopy_reg
_reconstructor
p8
(ctweepy.models
User
p9
c__builtin__
object
p10
Ntp11
Rp12
(dp13
S'follow_request_sent'
p14
I00
sS'has_extended_profile'
p15
I00
sS'profile_use_background_image'
p16
I01
sS'profile_sidebar_fill_color'
p17
VDDEEF6
p18
sS'id'
p19
I602288530
sS'verified'
p20
I00
sS'entities'
p21
(dp22
Vdescription
p23
(dp24
Vurls
p25
(lp26
sssS'profile_image_url_https'
p27
Vhttps://pbs.twimg.com/profile_images/584185942023340034/r0C8FM1g_normal.jpg
p28
sS'_json'
p29
(dp30
Vfollow_request_sent
p31
I00
sVhas_extended_profile
p32
I00
sVprofile_use_background_image
p33
I01
sVdefault_profile_image
p34
I00
sVid
p35
I602288530
sVprofile_background_image_url_https
p36
Vhttps://pbs.twimg.com/profile_background_images/717076550/2f6ce855dcfe4bf4de202370fdd6c7ba.jpeg
p37
sVverified
p38
I00
sVprofile_text_color
p39
V333333
p40
sVprofile_image_url_https
p41
g28
sVprofile_sidebar_fill_color
p42
g18
sVentities
p43
g22
sVfollowers_count
p44
I67
sVprofile_sidebar_border_color
p45
VFFFFFF
p46
sVid_str
p47
V602288530
p48
sVprofile_background_color
p49
VC0DEED
p50
sVlisted_count
p51
I27
sVstatus
p52
(dp53
Vcontributors
p54
NsVtruncated
p55
I00
sVtext
p56
VRT @jedimarkus77: $ES_F (DEC) Pivot Tuesday, November 17, 2015\u000a \u000aR3: 2087.50\u000aR2: 2074.33\u000aR1: 2061.17\u000a \u000aP: 2037.83\u000a \u000aS1: 2024.67\u000aS2: 2001.33\u2026
p57
sVin_reply_to_status_id
p58
Nsg35
L666387460914413568L
sVfavorite_count
p59
I0
sVsource
p60
V<a href="http://twitter.com/download/iphone" rel="nofollow">Twitter for iPhone</a>
p61
sVretweeted
p62
I00
sVcoordinates
p63
Nsg43
(dp64
Vsymbols
p65
(lp66
(dp67
Vindices
p68
(lp69
I18
aI23
asg56
VES_F
p70
sasVuser_mentions
p71
(lp72
(dp73
g35
I317041794
sg68
(lp74
I3
aI16
asg47
V317041794
p75
sVscreen_name
p76
Vjedimarkus77
p77
sVname
p78
Vjedimarkus
p79
sasVhashtags
p80
(lp81
sg25
(lp82
ssVin_reply_to_screen_name
p83
Nsg47
V666387460914413568
p84
sVretweet_count
p85
I1
sVin_reply_to_user_id
p86
NsVfavorited
p87
I00
sVretweeted_status
p88
(dp89
Vlang
p90
Ven
p91
sg87
I00
sg43
(dp92
g65
(lp93
(dp94
g68
(lp95
I0
aI5
asg56
VES_F
p96
sasg71
(lp97
sg80
(lp98
sg25
(lp99
ssg54
Nsg55
I00
sg56
V$ES_F (DEC) Pivot Tuesday, November 17, 2015\u000a \u000aR3: 2087.50\u000aR2: 2074.33\u000aR1: 2061.17\u000a \u000aP: 2037.83\u000a \u000aS1: 2024.67\u000aS2: 2001.33\u000aS3: 1988.17
p100
sVcreated_at
p101
VMon Nov 16 22:41:44 +0000 2015
p102
sg62
I00
sVin_reply_to_status_id_str
p103
Nsg63
NsVin_reply_to_user_id_str
p104
Nsg60
V<a href="http://twitter.com" rel="nofollow">Twitter Web Client</a>
p105
sg58
Nsg83
Nsg47
V666385692818341888
p106
sVplace
p107
Nsg85
I1
sVgeo
p108
Nsg35
L666385692818341888L
sg59
I0
sg86
Nssg108
Nsg104
Nsg90
Ven
p109
sg101
VMon Nov 16 22:48:46 +0000 2015
p110
sg103
Nsg107
NssVis_translation_enabled
p111
I00
sVutc_offset
p112
I-28800
sVstatuses_count
p113
I10152
sg23
VEquities, Options, NFL fan, Husband & Father
p114
sVfriends_count
p115
I426
sVlocation
p116
VSan Jose, CA
p117
sVprofile_link_color
p118
V0084B4
p119
sVprofile_image_url
p120
Vhttp://pbs.twimg.com/profile_images/584185942023340034/r0C8FM1g_normal.jpg
p121
sVfollowing
p122
I00
sVgeo_enabled
p123
I00
sVprofile_banner_url
p124
Vhttps://pbs.twimg.com/profile_banners/602288530/1398266679
p125
sVprofile_background_image_url
p126
Vhttp://pbs.twimg.com/profile_background_images/717076550/2f6ce855dcfe4bf4de202370fdd6c7ba.jpeg
p127
sg76
Vmkochman1
p128
sg90
Ven
p129
sVprofile_background_tile
p130
I00
sVfavourites_count
p131
I622
sg78
VMatt K
p132
sVnotifications
p133
I00
sVurl
p134
Nsg101
VThu Jun 07 23:20:46 +0000 2012
p135
sVcontributors_enabled
p136
I00
sVtime_zone
p137
VPacific Time (US & Canada)
p138
sVprotected
p139
I00
sVdefault_profile
p140
I00
sVis_translator
p141
I00
ssS'contributors_enabled'
p142
I00
sS'profile_text_color'
p143
g40
sS'followers_count'
p144
I67
sS'profile_sidebar_border_color'
p145
g46
sS'id_str'
p146
g48
sS'default_profile_image'
p147
I00
sS'listed_count'
p148
I27
sS'status'
p149
g8
(ctweepy.models
Status
p150
g10
Ntp151
Rp152
(dp153
S'favorited'
p154
I00
sS'contributors'
p155
NsS'truncated'
p156
I00
sS'text'
p157
VRT @jedimarkus77: $ES_F (DEC) Pivot Tuesday, November 17, 2015\u000a \u000aR3: 2087.50\u000aR2: 2074.33\u000aR1: 2061.17\u000a \u000aP: 2037.83\u000a \u000aS1: 2024.67\u000aS2: 2001.33\u2026
p158
sS'source_url'
p159
Vhttp://twitter.com/download/iphone
p160
sS'in_reply_to_status_id'
p161
NsS'geo'
p162
Nsg19
L666387460914413568L
sS'favorite_count'
p163
I0
sS'lang'
p164
g109
sS'retweeted_status'
p165
g8
(g150
g10
Ntp166
Rp167
(dp168
g154
I00
sg155
Nsg156
I00
sg157
V$ES_F (DEC) Pivot Tuesday, November 17, 2015\u000a \u000aR3: 2087.50\u000aR2: 2074.33\u000aR1: 2061.17\u000a \u000aP: 2037.83\u000a \u000aS1: 2024.67\u000aS2: 2001.33\u000aS3: 1988.17
p169
sg159
Vhttp://twitter.com
p170
sg161
Nsg162
Nsg19
L666385692818341888L
sg163
I0
sg164
g91
sg21
g92
sS'created_at'
p171
cdatetime
datetime
p172
(S'\x07\xdf\x0b\x10\x16),\x00\x00\x00'
p173
tp174
Rp175
sg29
g89
sS'coordinates'
p176
NsS'in_reply_to_user_id_str'
p177
NsS'source'
p178
VTwitter Web Client
p179
sS'in_reply_to_status_id_str'
p180
NsS'in_reply_to_screen_name'
p181
Nsg146
g106
sS'retweeted'
p182
I00
sS'place'
p183
NsS'retweet_count'
p184
I1
sS'in_reply_to_user_id'
p185
Nsbsg21
g64
sg171
g172
(S'\x07\xdf\x0b\x10\x160.\x00\x00\x00'
p186
tp187
Rp188
sg29
g53
sg176
Nsg177
Nsg178
VTwitter for iPhone
p189
sg180
Nsg181
Nsg146
g84
sg182
I00
sg183
Nsg184
I1
sg185
NsbsS'is_translation_enabled'
p190
I00
sS'utc_offset'
p191
I-28800
sS'statuses_count'
p192
I10152
sS'description'
p193
g114
sS'friends_count'
p194
I426
sS'location'
p195
g117
sS'profile_link_color'
p196
g119
sS'profile_image_url'
p197
g121
sS'notifications'
p198
I00
sS'geo_enabled'
p199
I00
sS'profile_background_color'
p200
g50
sS'profile_banner_url'
p201
g125
sS'profile_background_image_url'
p202
g127
sS'screen_name'
p203
g128
sg164
g129
sg1
I00
sS'profile_background_tile'
p204
I00
sS'favourites_count'
p205
I622
sS'name'
p206
g132
sS'url'
p207
Nsg171
g172
(S'\x07\xdc\x06\x07\x17\x14.\x00\x00\x00'
p208
tp209
Rp210
sS'profile_background_image_url_https'
p211
g37
sS'time_zone'
p212
g138
sS'protected'
p213
I00
sS'default_profile'
p214
I00
sS'is_translator'
p215
I00
sbs.