(dp0
S'following'
p1
(lp2
(lp3
I249677516
aI636846279
aI36989671
aI16548243
aI475210759
aL3304153003L
aL4242286993L
aI348045137
aL3137090694L
aI1063897602
aI1903991912
aI477073574
aL2154475518L
aI308997977
aI17486092
aI491748291
aI115679415
aI310424310
aI1617269616
aI574144575
aL3191220634L
aL3236806048L
aI1932019164
aL3897819438L
aL3836989287L
aI15650882
aI44945327
aI93224770
aI531201141
aI96442308
aI594887216
aL4108323184L
aI540998751
aI64474358
aI42950930
aI64474365
aL3016041541L
aL3043352032L
aI133236790
aI1236599971
aI1041442471
aI4620451
aL4108364716L
aI185808487
aI50298947
aI1705766478
aI31407357
aL3247786459L
aI46315077
aL3425946024L
aI465485660
aI66209943
aL3432120672L
aI14184699
aI8981662
aI20543305
aI108997531
aI23181999
aL2445459474L
aI913142450
aI15912890
aL3240523204L
aL2501522820L
aL3307203824L
aL4181581153L
aI826537184
aI109441206
aI113002345
aI1959885517
aI39000115
aI8839632
aL3488700859L
aI1546577725
aI321572161
aI1443250843
aI1169698538
aI893923441
aI1167301902
aI129834917
aI15669672
aI19985444
aI19613267
aI27629961
aI55268034
aI163853853
aI52992670
aL2370787236L
aI853150752
aL2192030256L
aL3605796205L
aL2871914770L
aL3440693962L
aL3990358228L
aL3981225735L
aL3950481494L
aL2371155744L
aI336638653
aL3307164840L
aI90970076
aI350946239
aI920500903
aI284441324
aI1300899146
aI27958450
aI14361155
aL3688791915L
aI175365931
aI440213036
aI23484039
aI120547823
aI326709764
aI1118451
aL3029130591L
aI102488708
aI14116807
aL3788921057L
aI205437050
aI239760107
aI10228272
aL3252508898L
aI327672977
aL2981624516L
aI130238301
aI20686232
aI20791372
aI171632862
aL2427499363L
aI1638654294
aI15643141
aI285693924
aL2714031800L
aI275197387
aI521301785
aI1642328502
aI1675860950
aI1935629324
aI1637407016
aI77180390
aI18585712
aL3303330627L
aL2370874585L
aI14662354
aI15012486
aI14173315
aI28785486
aI6017542
aI51241574
aI18424289
aI315779591
aI22240612
aI17239494
aI33639964
aI19079625
aI47647570
aI23102350
aI27842754
aI14389225
aI69276033
aI127124659
aI111379271
aI40881512
aL2511173870L
aI14635399
aI279360261
aL3151107979L
aL3151078652L
aI14821314
aI48478726
aI32052963
aI17814635
aI24671555
aI149760844
aI629097517
aI843112550
aI487736815
aL3437729399L
aI199110089
aI30823468
aI196008378
aI420040298
aL3242705034L
aI128472974
aI142977623
aI169291609
aI742747086
aI1897969111
aI14676905
aI87397874
aI40252886
aL3068621889L
aL2814256422L
aL3049216190L
aL3403233928L
aL3139143346L
aI25692368
aL3084179561L
aI19013044
aI38466830
aI55070643
aI160643251
aI941878034
aI214908555
aI8775672
aI31310158
aI54885400
aI106597684
aI10126672
aI19611483
aI173419734
aI359428392
aI17689864
aI1019802864
aL2734157666L
aI37210963
aI75028838
aI46130283
aI93637779
aI76525772
aI15716004
aI16330790
aI19659231
aI41633850
aI40028791
aI108554712
aL2523936499L
aL3509753654L
aI24882415
aI807095
aI742143
aI5402612
aI4970411
aI112405785
aI459989874
aI367709007
aI24506246
aI823905
aI201870414
aL3028020069L
aI128500019
aI1180379185
aI343958195
aI61442211
aI34876970
aI44309594
aI271441733
aI328967731
aI627006111
aL3788026512L
aI385139471
aI90467603
aL2636906900L
aI108146158
aI72724162
aI813286
aI1536791610
aL2359926157L
aI15647676
aI17629860
aI1601560154
aL3063349679L
aI9624742
aI66369181
aI15007149
aI1093090866
aI14159148
aI30313925
aI1330457336
aI19397785
aI36042554
aI16228398
aI1367531
aI428333
aI3108351
aI1652541
aL2394624246L
aL3091880403L
aI274091784
aI1056711619
aI260651160
aI21784439
aI58805929
aI102661513
aI108253213
aI212191404
aI28254715
aI14276734
aI20766036
aI256060066
aI248653960
aI191493851
aI24723039
aI26799530
aI47436923
aI14164235
aI17989166
aI119421760
aI326379776
aI301003174
aI157886521
aI37908683
aI16314859
aI19489239
aI432557320
aI15987296
aI58562226
aI85796380
aI52660746
aI18576537
aI141084952
aI17061263
aI201389881
aI80642566
aL3238034886L
aI79633819
aI26618468
aI288164866
aI118130628
aI42882879
aI171150036
aI69116286
aI372271040
aI320319587
aI43969372
aI299776368
aI242746308
aI1670481992
aI1578609060
aL2847657647L
aI1726207638
aI280543999
aI972040844
aI260234121
aI41791694
aI313885927
aI6062112
aI246220040
aI192899133
aI132880191
aI444921429
aL2242580173L
aI46220856
aI52863597
aI14070891
aI11232732
aI194347664
aI18774477
aI193336046
aI238285207
aI18746273
aI15293735
aI15662569
aI60620992
aI15921684
aI44134466
aI16876667
aI42869411
aI15117459
aI26853548
aI18646280
aI14944532
aI14982625
aI30258963
aI13176312
aI41147062
aI107172099
aI15519544
aI28184452
aI67059584
aI15461733
aI24919888
aI159588456
aI153784150
aI16580226
aI50115087
aI18194898
aI25565646
aI52758395
aI20060293
aI1311415333
aI185237887
aI289278574
aI44331635
aI383764210
aI1257845899
aI289076761
aI614536075
aI189664027
aI189660705
aI374209360
aI375478760
aI1002513128
aI1357422229
aL3379546426L
aL3407632767L
aI302242208
aI15143478
aI37710752
aI253536357
aI17384099
aI103865085
aI21436960
aI252997533
aI31099613
aI70650192
aI29161746
aI21348913
aI61017613
aI16883630
aI428885306
aI16057477
aI18207302
aI27259806
aI16549201
aI17901352
aI173961833
aI230568060
aI756059810
aL2155491151L
aI970967419
aI1210938492
aI111185604
aI110860172
aL2347557425L
aL2723405994L
aL2198872086L
aL2317551288L
aI1495055863
aI373633084
aI525771367
aI222653190
aI192483660
aI1575924043
aI772798080
aI1000645291
aI268612232
aI50635700
aI850064496
aI1403472564
aI951418284
aI91668732
aI459358661
aI1515553154
aI1611012270
aI1334926861
aI931110926
aI1203963950
aL2409024618L
aL2215966867L
aI17372204
aI226320142
aI567523972
aI39768085
aI18640935
aI29491488
aI17997341
aI20064348
aI32422915
aI14790432
aI18481779
aI16833526
aI291294443
aI19408552
aI121482708
aI17136419
aI500704345
aI35784526
aI386787305
aI41598656
aI307369812
aI39512236
aI33197337
aI239689265
aI44367399
aI212308700
aI28620185
aI15139258
aI18731032
aI78507562
aI44389414
aI30357082
aI499202239
aI144367359
aI32252135
aL2957627335L
aI39288218
aI58923515
aL2728602270L
aI45008085
aI177613157
aI414276371
aI1436829577
aL3361326747L
aI1684305187
aL2149877280L
aI121158213
aL2802272246L
aL2331589730L
aI262149339
aL3317361650L
aL3430308293L
aL3154923455L
aI1395054624
aL3348285701L
aL3265245109L
aL3351468351L
aI104984884
aL2372174256L
aI1393603976
aL2772167606L
aI860252845
aL3497869400L
aI14587949
aI100767876
aL2574767547L
aI609372856
aI90704666
aI604281093
aL2469832928L
aL2480055180L
aL2432613518L
aI35826330
aI284335003
aI64405995
aI251227559
aI251218614
aI306043018
aI628541578
aI167954895
aI237113750
aI1726560480
aI381478558
aI141291190
aI91895951
aI200663868
aI148124574
aI1672464121
aI1861049119
aL2411650028L
aL2513031072L
aI91418281
aI88321965
aI118840585
aI188850279
aI161368630
aI153053178
aI110352644
aI110356405
aI131995760
aI99412732
aI16001494
aI61127928
aI71330112
aL2570230224L
aI1563410299
aI301471997
aL2997440620L
aI1266281
aI595517498
aL3158346408L
aI204232294
aI15165502
aL2331619862L
aI594617548
aI1495146036
aL2238294582L
aI1108126932
aI437113133
aI328676961
aI14807898
aI1522369135
aI8963722
aI130681675
aL3383800258L
aL3019670890L
aI260692993
aI588073719
aI47993676
aL2397967218L
aL2250792378L
aL3358756905L
aI1334806249
aL2972555345L
aI148272213
aL2462874699L
aI59853587
aL2437532460L
aI1711713978
aI1337904764
aI595184823
aL2310322662L
aI415086512
aL2969878245L
aI19237409
aL2377974836L
aI148067835
aI186561659
aL3238444778L
aI142804171
aI50393960
aI17842366
aI17471979
aI11348282
aI380964327
aL2932434639L
aI545863995
aI390625716
aI15227791
aI18090142
aI15500649
aI16029857
aI15009735
aI133067266
aI12415722
aI14936377
aI22139698
aI78133467
aI138725262
aI155660904
aI19989052
aI92306628
aI114707315
aI23833837
aI189671070
aI602326074
aI601320686
aI114685387
aI374212227
aL2698306693L
aI1164212276
aL2462134867L
aI1010457445
aI1049603172
aL2429306144L
aL2704990703L
aL2457224256L
aL2975453053L
aL2804649250L
aI1114066080
aI1671159378
aI1369223119
aL2237490042L
aI1216102052
aI584074418
aL2288388510L
aL2549588761L
aI19090198
aI1131955134
aI566465566
aI398350077
aI79105945
aI432350866
aI79673440
aI81077830
aI159928788
aI848870910
aI555370548
aI1323039744
aI956201978
aI741448608
aI80378065
aI266889869
aI10379542
aI588983351
aI15560223
aI30261067
aI819800
aI14372486
aI2890961
aI275686563
aI11666332
aI21502055
aI79885859
aI356321581
aI151960625
aI118094981
aI278731526
aI376362889
aI214266361
aI183326407
aI16817883
aI12
aI749963
aI14885549
aI621583
aI25562270
aI42703075
aI73147282
aI19661363
aI7905122
aI37499588
aI306861760
aI1344951
aI49225169
aI80221623
aI60151625
aI19111192
aI20563800
aI32372834
aI21581503
aI138805593
aI10454572
aI15648491
aI15180686
aI29863688
aI16677622
aI43166813
aI99159987
aI1631142410
aI99160458
aI5747502
aI30825971
aI1907206045
aI200598702
aI27409596
aI189253902
aI188046098
aI15234407
aI22971980
aI23959074
aI15431856
aI86977818
aI1394399438
aI33602654
aI29472803
aI8295072
aI34554134
aI19802879
aI23503181
aI19789439
aI17781165
aI34743251
aI180200031
aI25066853
aI15473958
aI446905492
aI15165493
aI39525731
aI841386619
aI298704421
aI588425671
aI174779491
aI17548327
aL2511136694L
aL2202364496L
aI38032276
aI14761842
aI86001541
aI54607099
aI2811851
aI11518842
aasS'followers'
p4
(lp5
(lp6
I312887209
aL2949313007L
aI426119276
aI636846279
aL3184637045L
aL4242286993L
aI1063897602
aI491748291
aI308997977
aI39510422
aI1603547006
aI477073574
aL2154475518L
aI115679415
aL3298917651L
aL3836989287L
aL3304153003L
aL4108323184L
aI594887216
aL4108364716L
aI31407357
aI1705766478
aL3978361395L
aI50298947
aI46315077
aL3425946024L
aL2445459474L
aI23181999
aI893923441
aI109441206
aL3240523204L
aI321572161
aL4181581153L
aI826537184
aL2501522820L
aL3432120672L
aI1169698538
aL2992414321L
aL4163923301L
aI1860295368
aL2469832928L
aI459271193
aI853150752
aI336638653
aL3519181094L
aL4140161969L
aL3950481494L
aL3488700859L
aL3990358228L
aL2871914770L
aL3605796205L
aI110608919
aI90970076
aL4127275227L
aI920500903
aI27958450
aI1300899146
aL3688791915L
aL3224626709L
aL4120054337L
aI583817765
aL4087956255L
aI60213983
aI77180390
aL4087057991L
aL3029130591L
aI939159410
aI105491345
aL3275345234L
aI1252547748
aL2430607902L
aI1596269713
aI1638654294
aL2316073297L
aL2166735512L
aL2312609288L
aL2312251076L
aI1151973462
aL2370787236L
aL2427499363L
aL2434062092L
aL2698474596L
aL2178423914L
aL2902520595L
aI1037982954
aI1865580872
aI891464624
aI416765077
aL3994519654L
aI1932019164
aL2394624246L
aI985410115
aL2370874585L
aL2714051581L
aL3152220284L
aL3437729399L
aI420040298
aL2718484378L
aL3979407677L
aL3139143346L
aI25692368
aL2814256422L
aI100185304
aL2328265230L
aI93637779
aI279360261
aI1495146036
aL2523936499L
aL3916491976L
aI42912883
aI128500019
aL3832134859L
aI256060066
aL3788026512L
aL3958894889L
aL2312494016L
aI848760134
aI80642566
aI320319587
aI196156755
aI90467603
aL2529664742L
aL2654839015L
aI1357422229
aI252997533
aI523453552
aI33197337
aL3910074201L
aI1118003827
aI1897969111
aL3750739962L
aI35784526
aL3864055157L
aL3361326747L
aI1436829577
aI121158213
aL2981624516L
aL2802272246L
aL2238294582L
aL3241288077L
aL3188178606L
aL3154923455L
aL2772167606L
aI148124574
aI327672977
aL2454651108L
aL3497869400L
aL3252508898L
aL3306931399L
aI100767876
aL3236806445L
aL3236724724L
aL3184589492L
aL3633052521L
aL2250792378L
aL2997440620L
aL2972555345L
aI1334806249
aI1034130692
aI1371569605
aL2804649250L
aI1218121501
aI380996001
aL2457224256L
aI321545622
aL2202364496L
aasS'obj'
p7
ccopy_reg
_reconstructor
p8
(ctweepy.models
User
p9
c__builtin__
object
p10
Ntp11
Rp12
(dp13
S'follow_request_sent'
p14
NsS'has_extended_profile'
p15
I00
sS'profile_use_background_image'
p16
I01
sS'profile_sidebar_fill_color'
p17
VDDEEF6
p18
sS'id'
p19
I604833820
sS'verified'
p20
I00
sS'entities'
p21
(dp22
Vdescription
p23
(dp24
Vurls
p25
(lp26
sssS'profile_image_url_https'
p27
Vhttps://pbs.twimg.com/profile_images/665399560500588544/rCCZGzxT_normal.jpg
p28
sS'_json'
p29
(dp30
Vfollow_request_sent
p31
NsVhas_extended_profile
p32
I00
sVprofile_use_background_image
p33
I01
sVdefault_profile_image
p34
I00
sVid
p35
I604833820
sVprofile_background_image_url_https
p36
Vhttps://abs.twimg.com/images/themes/theme1/bg.png
p37
sVverified
p38
I00
sVprofile_text_color
p39
V333333
p40
sVprofile_image_url_https
p41
g28
sVprofile_sidebar_fill_color
p42
g18
sVentities
p43
g22
sVfollowers_count
p44
I166
sVprofile_sidebar_border_color
p45
VC0DEED
p46
sVid_str
p47
V604833820
p48
sVprofile_background_color
p49
VC0DEED
p50
sVlisted_count
p51
I1
sVstatus
p52
(dp53
Vcontributors
p54
NsVtruncated
p55
I00
sVtext
p56
VRT @WAKEUPPEOPL3: Think about it... https://t.co/QWspUFGCrP
p57
sVin_reply_to_status_id
p58
Nsg35
L666361413149978624L
sVfavorite_count
p59
I0
sVsource
p60
V<a href="http://twitter.com/download/android" rel="nofollow">Twitter for Android</a>
p61
sVretweeted
p62
I00
sVcoordinates
p63
Nsg43
(dp64
Vsymbols
p65
(lp66
sVuser_mentions
p67
(lp68
(dp69
g35
I286742737
sVindices
p70
(lp71
I3
aI16
asg47
V286742737
p72
sVscreen_name
p73
VWAKEUPPEOPL3
p74
sVname
p75
VOpen Your Mind
p76
sasVhashtags
p77
(lp78
sg25
(lp79
sVmedia
p80
(lp81
(dp82
Vsource_user_id
p83
I286742737
sVsource_status_id_str
p84
V656206218466193408
p85
sVexpanded_url
p86
Vhttp://twitter.com/WAKEUPPEOPL3/status/656206218466193408/photo/1
p87
sVdisplay_url
p88
Vpic.twitter.com/QWspUFGCrP
p89
sVurl
p90
Vhttps://t.co/QWspUFGCrP
p91
sVmedia_url_https
p92
Vhttps://pbs.twimg.com/media/CRtQAvLUkAAEpuo.jpg
p93
sVsource_user_id_str
p94
V286742737
p95
sVsource_status_id
p96
L656206218466193408L
sg47
V656206144306712576
p97
sVsizes
p98
(dp99
Vlarge
p100
(dp101
Vh
p102
I844
sVresize
p103
Vfit
p104
sVw
p105
I720
ssVsmall
p106
(dp107
g102
I398
sg103
Vfit
p108
sg105
I340
ssVmedium
p109
(dp110
g102
I703
sg103
Vfit
p111
sg105
I600
ssVthumb
p112
(dp113
g102
I150
sg103
Vcrop
p114
sg105
I150
sssg70
(lp115
I36
aI59
asVtype
p116
Vphoto
p117
sg35
L656206144306712576L
sVmedia_url
p118
Vhttp://pbs.twimg.com/media/CRtQAvLUkAAEpuo.jpg
p119
sassVin_reply_to_screen_name
p120
Nsg47
V666361413149978624
p121
sVretweet_count
p122
I5271
sVin_reply_to_user_id
p123
NsVfavorited
p124
I00
sVretweeted_status
p125
(dp126
g54
Nsg55
I00
sg56
VThink about it... https://t.co/QWspUFGCrP
p127
sg58
Nsg35
L656206218466193408L
sg59
I5728
sg60
V<a href="http://twitter.com/download/android" rel="nofollow">Twitter for Android</a>
p128
sg62
I00
sg63
Nsg43
(dp129
g65
(lp130
sg67
(lp131
sg77
(lp132
sg25
(lp133
sg80
(lp134
(dp135
g86
Vhttp://twitter.com/WAKEUPPEOPL3/status/656206218466193408/photo/1
p136
sg88
Vpic.twitter.com/QWspUFGCrP
p137
sg90
Vhttps://t.co/QWspUFGCrP
p138
sg92
Vhttps://pbs.twimg.com/media/CRtQAvLUkAAEpuo.jpg
p139
sg47
V656206144306712576
p140
sg98
(dp141
g100
(dp142
g102
I844
sg103
Vfit
p143
sg105
I720
ssg106
(dp144
g102
I398
sg103
Vfit
p145
sg105
I340
ssg109
(dp146
g102
I703
sg103
Vfit
p147
sg105
I600
ssg112
(dp148
g102
I150
sg103
Vcrop
p149
sg105
I150
sssg70
(lp150
I18
aI41
asg116
Vphoto
p151
sg35
L656206144306712576L
sg118
Vhttp://pbs.twimg.com/media/CRtQAvLUkAAEpuo.jpg
p152
sassg120
Nsg47
V656206218466193408
p153
sg122
I5271
sg123
Nsg124
I00
sVgeo
p154
NsVin_reply_to_user_id_str
p155
NsVpossibly_sensitive
p156
I01
sVlang
p157
Ven
p158
sVcreated_at
p159
VMon Oct 19 20:32:08 +0000 2015
p160
sVin_reply_to_status_id_str
p161
NsVplace
p162
Nssg154
Nsg155
Nsg156
I00
sg157
Ven
p163
sg159
VMon Nov 16 21:05:15 +0000 2015
p164
sg161
Nsg162
NssVis_translation_enabled
p165
I00
sVutc_offset
p166
NsVstatuses_count
p167
I1466
sg23
V
p168
sVfriends_count
p169
I750
sVlocation
p170
g168
sVprofile_link_color
p171
V0084B4
p172
sVprofile_image_url
p173
Vhttp://pbs.twimg.com/profile_images/665399560500588544/rCCZGzxT_normal.jpg
p174
sVfollowing
p175
NsVgeo_enabled
p176
I01
sVprofile_banner_url
p177
Vhttps://pbs.twimg.com/profile_banners/604833820/1447478591
p178
sVprofile_background_image_url
p179
Vhttp://abs.twimg.com/images/themes/theme1/bg.png
p180
sg73
Vk_carey1297
p181
sg157
Ven
p182
sVprofile_background_tile
p183
I00
sVfavourites_count
p184
I534
sg75
Vkenneth carey
p185
sVnotifications
p186
Nsg90
Nsg159
VSun Jun 10 20:49:28 +0000 2012
p187
sVcontributors_enabled
p188
I00
sVtime_zone
p189
NsVprotected
p190
I00
sVdefault_profile
p191
I01
sVis_translator
p192
I00
ssS'contributors_enabled'
p193
I00
sS'profile_text_color'
p194
g40
sS'followers_count'
p195
I166
sS'profile_sidebar_border_color'
p196
g46
sS'id_str'
p197
g48
sS'default_profile_image'
p198
I00
sS'listed_count'
p199
I1
sS'status'
p200
g8
(ctweepy.models
Status
p201
g10
Ntp202
Rp203
(dp204
S'favorited'
p205
I00
sS'contributors'
p206
NsS'truncated'
p207
I00
sS'text'
p208
g57
sS'source_url'
p209
Vhttp://twitter.com/download/android
p210
sS'possibly_sensitive'
p211
I00
sS'in_reply_to_status_id'
p212
NsS'geo'
p213
Nsg19
L666361413149978624L
sS'favorite_count'
p214
I0
sS'lang'
p215
g163
sS'retweeted_status'
p216
g8
(g201
g10
Ntp217
Rp218
(dp219
g205
I00
sg206
Nsg207
I00
sg208
g127
sg209
Vhttp://twitter.com/download/android
p220
sg211
I01
sg212
Nsg213
Nsg19
L656206218466193408L
sg214
I5728
sg215
g158
sg21
g129
sS'created_at'
p221
cdatetime
datetime
p222
(S'\x07\xdf\n\x13\x14 \x08\x00\x00\x00'
p223
tp224
Rp225
sg29
g126
sS'coordinates'
p226
NsS'in_reply_to_user_id_str'
p227
NsS'source'
p228
VTwitter for Android
p229
sS'in_reply_to_status_id_str'
p230
NsS'in_reply_to_screen_name'
p231
Nsg197
g153
sS'retweeted'
p232
I00
sS'place'
p233
NsS'retweet_count'
p234
I5271
sS'in_reply_to_user_id'
p235
Nsbsg21
g64
sg221
g222
(S'\x07\xdf\x0b\x10\x15\x05\x0f\x00\x00\x00'
p236
tp237
Rp238
sg29
g53
sg226
Nsg227
Nsg228
VTwitter for Android
p239
sg230
Nsg231
Nsg197
g121
sg232
I00
sg233
Nsg234
I5271
sg235
NsbsS'is_translation_enabled'
p240
I00
sS'utc_offset'
p241
NsS'statuses_count'
p242
I1466
sS'description'
p243
g168
sS'friends_count'
p244
I750
sS'location'
p245
g168
sS'profile_link_color'
p246
g172
sS'profile_image_url'
p247
g174
sS'notifications'
p248
NsS'geo_enabled'
p249
I01
sS'profile_background_color'
p250
g50
sS'profile_banner_url'
p251
g178
sS'profile_background_image_url'
p252
g180
sS'screen_name'
p253
g181
sg215
g182
sg1
I00
sS'profile_background_tile'
p254
I00
sS'favourites_count'
p255
I534
sS'name'
p256
g185
sS'url'
p257
Nsg221
g222
(S'\x07\xdc\x06\n\x141\x1c\x00\x00\x00'
p258
tp259
Rp260
sS'profile_background_image_url_https'
p261
g37
sS'time_zone'
p262
NsS'protected'
p263
I00
sS'default_profile'
p264
I01
sS'is_translator'
p265
I00
sbs.