(dp0
S'following'
p1
(lp2
(lp3
I3848271
aI481700882
aI466333756
aI21328656
aI69620713
aI34713362
aI5943622
aL3133951304L
aI284766382
aI360268919
aI360506305
aI135775256
aI64901907
aI1693488732
aL2203759645L
aI34379992
aL2203715906L
aI81251436
aL2544862219L
aI222979537
aI48177993
aI1572538159
aI285929331
aI18867344
aI842588407
aI1148064458
aI555362613
aI38105549
aI129242098
aI297429306
aI274325818
aI570043126
aI32442137
aI38038502
aI1300687932
aI813613921
aI171275005
aI59019225
aI16213437
aI28172926
aI33514869
aI428333
aI20536157
aI435319405
aI172101296
aI23486523
aI14668111
aI18858395
aI742143
aI9484732
aI21138770
aI28164923
aI16912892
aI207245279
aI80903194
aI431907614
aI117839245
aI250213000
aI376436409
aI249758564
aI278161486
aI71340937
aI42555311
aI23395189
aI475137184
aI20760831
aI19536881
aI297759628
aI28289402
aI19643448
aI1292563332
aI258819961
aI165805708
aI459569811
aI68870274
aI191177057
aI14428875
aI374047963
aI101354384
aI1376840120
aI121841565
aI20687745
aI264834791
aI36047098
aI151191872
aI374538632
aI17087210
aI86750181
aI164400667
aI399958787
aI815636605
aI26223938
aI262332851
aI117899448
aI19224439
aI30913882
aI217367297
aI741283129
aI415566272
aI20169416
aI337734671
aI23365046
aI63799947
aI382651107
aI193466320
aI23751864
aI305224217
aI636998432
aI327484803
aI1209991243
aI218733924
aI19613907
aI368947418
aI533466282
aI552725668
aI185270017
aI22810429
aI57151992
aI106900380
aI224240358
aI114599241
aI347939511
aI30980068
aI30893732
aI21907474
aI934718568
aI335907491
aI191017334
aI919547016
aI76824894
aI46489733
aI73623921
aI92281665
aI22088714
aI89043072
aI21335867
aI1572314828
aI198279395
aI115102888
aI862338355
aI95860826
aI1532324738
aI45345217
aI1296173918
aI14816358
aI56413858
aI14669951
aI1553788086
aI1273570525
aI7822742
aI1531465964
aI1472917399
aI326135084
aI186457332
aI33455414
aI498230342
aI1273004371
aI628617221
aI402920321
aI148816676
aI1484550762
aI1552363020
aI115468611
aI141766330
aI1513154688
aI385843071
aI1554033445
aI215775552
aI232503690
aI397108935
aI443030806
aI62960968
aI254577035
aI56532650
aI559042850
aI226010520
aI1555593566
aI533363343
aI255945982
aI518516525
aI320367255
aI1363586426
aI76626858
aI346479672
aI399495508
aI15812184
aI256119866
aI339039253
aI91571187
aI292161284
aI1552359090
aI1558882554
aI156254947
aI160758969
aI1542489440
aI542914064
aI92066400
aI235194733
aI327673375
aI168423664
aI102486025
aI1213764458
aI1545841698
aI88979814
aI285696661
aI428696427
aI1537027386
aI1343807281
aI285733869
aI359845798
aI1549063801
aI515066386
aI860291011
aI36543402
aI221670530
aI234939242
aI241509527
aI269230112
aI425327913
aI1561947433
aI304277322
aI329494898
aI559917292
aI1469363912
aI241644998
aI320097959
aI498872161
aI467790249
aI1524182203
aI1465740445
aI506992410
aI39090646
aI1385103518
aI732545172
aI286087173
aI1300352052
aI102651751
aI1301108318
aI1289381690
aI103638318
aI284392041
aI447792990
aI1531416488
aI227699810
aI883519514
aI595928811
aI25120271
aI21280169
aI5726842
aI16005828
aI17889970
aI657863
aI37570179
aI84648166
aI25357429
aI19970874
aI19766202
aI34379253
aI196721271
aI17980077
aI234350334
aI22264376
aI23708855
aI14964645
aI21068544
aI21908491
aI30403935
aI8943
aI15437723
aI139038979
aI18234140
aI391811759
aI441123653
aI21910141
aI33662065
aI22973525
aI22973153
aI1433788794
aI14860631
aI22973017
aI23116322
aI1292841054
aI16831557
aI381157332
aI317293844
aI23557976
aI394240127
aI70025109
aI385526290
aI600221036
aI47946068
aI106949676
aI1566959041
aI436059258
aI478572867
aI520892960
aI20636215
aI110331791
aI631699008
aI274537469
aI329836709
aI872270828
aI1410667316
aI1445309358
aI624920658
aI486476991
aI410452291
aI1546312183
aI289384598
aI96919445
aI1515253357
aI1426256012
aI101588305
aI43144298
aI592089130
aI1046627899
aI433859040
aI1559446164
aI972321114
aI400839033
aI36990709
aI28802292
aI21158941
aI32292259
aI18845345
aI44824361
aI14250809
aI71391768
aI728963185
aI36660226
aI55969908
aI361982756
aI51332399
aI4302401
aI379735438
aI106648136
aI133483902
aI20705828
aI66398680
aI17108251
aI63131413
aI486064418
aI15339180
aI236980640
aI1410387692
aI37427056
aI43104074
aI263440231
aI425938933
aI195444215
aI19903328
aI346694297
aI282741276
aI85209463
aI31001654
aI20828494
aI55561590
aI54369383
aI17049899
aI19624608
aI66641637
aI274489820
aI7557352
aI1114974127
aI49333562
aI14844736
aI185367180
aI21594964
aI51142507
aI65543629
aI162525034
aI31388263
aI463812743
aI66206579
aI29888058
aI313644208
aI1481909731
aI138404716
aI407990469
aI262198693
aI788333744
aI37780659
aI554878666
aI541254114
aI113376637
aI23148889
aI26410257
aI70369905
aI335825854
aI1380880022
aI77817229
aI762937724
aI1137014833
aI27096422
aI111577796
aI464837779
aI740368950
aI246585278
aI964705218
aI107542072
aI19921516
aI78217150
aI231494313
aI35245042
aI164019380
aI87769438
aI59853587
aI496648028
aI16292486
aI272833401
aI55626399
aI50899191
aI43058944
aI496297790
aI37237248
aI609345372
aI390979138
aI8030232
aI16374428
aI304902458
aI552464427
aI204941969
aI43244004
aI58200577
aI125228250
aI175004773
aI833026334
aI383576761
aI234780497
aI224687404
aI377561587
aI19000087
aI760365205
aI568924984
aI23089789
aI255249826
aI577414033
aI159347639
aI64861097
aI80600985
aI234185155
aI20652557
aI1609107739
aI1498237788
aI240362190
aI40773967
aI232661448
aI522446602
aI45640092
aI399436951
aI22120436
aI131722145
aI117293247
aI485392008
aI863613199
aI262336139
aI36562820
aI803587754
aI330499432
aI138345696
aI107489135
aI1583243796
aI431061432
aI23616349
aI74896511
aI182257618
aI721233068
aI1069228003
aI231123745
aI1223851086
aI488740638
aI18776045
aI381307704
aI501157154
aI615257710
aI879376561
aI344104127
aI1065696756
aI100650665
aI1444928898
aI503096485
aI45607709
aI32528932
aI458989076
aI17736920
aI314385813
aI421417191
aI56121651
aI548047409
aI82463403
aI414268101
aI1367524087
aI983827232
aI29737876
aI52630491
aI1092267594
aI1520114490
aI296946119
aI452309944
aI293712995
aI590046242
aI24005592
aI300897985
aI264274146
aI833724163
aI1526583577
aI214433021
aI1418425322
aI158410229
aI116539476
aI577445009
aI202398928
aI1603883088
aI68702349
aI78644968
aI22943150
aI1609295287
aI1489471572
aI425935315
aI351072185
aI772321020
aI15122690
aL2636260160L
aI474480658
aI51974160
aI189251882
aL2477744731L
aI32408523
aI108187167
aL2505126759L
aL2271222612L
aL2649356107L
aI361980867
aL2585121139L
aI464114810
aL2201402059L
aL2461021099L
aI42463934
aL2703625524L
aI1079599076
aI1202389375
aI369535157
aI114353740
aI455765779
aI132616802
aI874438663
aI260230248
aI1931683578
aI56967901
aI36196824
aI21354868
aI1462724419
aL2704486915L
aI91279573
aI251366372
aI138182116
aI30816260
aI17093617
aI1673289421
aI500071314
aI570082512
aI15337385
aI1413209407
aL2248394754L
aI394097275
aL2236687747L
aI1016559936
aI494123100
aI1201394262
aI618408678
aI485084559
aI37786317
aI283826638
aL2240620153L
aI29803338
aI821118710
aI1967357994
aI1308512629
aI353284595
aL2151712411L
aI179709141
aI1198947871
aI449423963
aL2250712148L
aI1000679882
aI30790582
aI88176063
aI157399557
aL2162067553L
aI1014650666
aI1358961289
aI113155938
aI131514296
aI89274782
aI712995869
aL2149366734L
aI141677989
aI235820725
aI284133102
aI16626564
aI276097812
aL2251254882L
aL2250611149L
aI509807920
aI131849629
aI426266164
aI1515320252
aI60150406
aI35462574
aL2251519010L
aI155878981
aI708882413
aI1219146007
aI1954503433
aI192170074
aI64359632
aI367774200
aI14297693
aL2194795980L
aI137292432
aL2249157379L
aI124221041
aL2253781555L
aI1173857328
aI472407295
aL2201692890L
aI595052075
aI1608295704
aI1662365659
aI1471276669
aI1200986130
aI1364763769
aL2255264546L
aI23161106
aI544793182
aI810726385
aI1928249916
aI179420251
aL2220011674L
aI356800344
aL2257086276L
aL2258063702L
aI857986112
aL2258506501L
aI497094379
aL2181103753L
aL2248663404L
aI531331282
aI296331958
aI263960264
aL2240400700L
aI185114602
aI226840603
aI74085348
aI507759216
aI48716879
aI1253051654
aI1891211114
aI364813066
aI623115560
aI91133629
aI502513566
aL2259796970L
aI114914819
aL2243193332L
aI429211692
aI362511038
aI484872997
aL2213211066L
aI488963679
aI216571599
aI333848935
aI383680319
aL2234180766L
aI1934206651
aI475950891
aI207387179
aI164817791
aI481819481
aI1654975046
aI225071408
aL2188107847L
aL2214818162L
aI1162963999
aI1025183257
aI348659023
aL2222186718L
aI271536062
aI356600327
aI105818261
aI1939637378
aI39085028
aI253626606
aI501816596
aI537935951
aI169193350
aI465048419
aL2263022744L
aI387493902
aI25958053
aI618228289
aI349246422
aI1324467492
aI1659187664
aI1401387342
aI246090407
aI1569380275
aL2263597579L
aI493698534
aL2197170631L
aI424832354
aL2222416850L
aI76421187
aI49699849
aI122072130
aI1038949766
aI359769461
aI41712080
aI34585436
aI1539353510
aI413365485
aL2249691282L
aL2150008115L
aL2240425394L
aL2150092140L
aI469016734
aI629725459
aI271250983
aI1035187218
aI1671880753
aI1167824977
aL2257059349L
aI57727998
aI1315859666
aI244695425
aI463245558
aI290900763
aI136791586
aI973147980
aI296388511
aI391689074
aI198759891
aI569017744
aI733061653
aI282955863
aI53952649
aI274740595
aI178073808
aL2268243960L
aI594841662
aL2268287648L
aI1605126720
aI26277328
aI33787443
aI1942973269
aI613187612
aI552295722
aI1578098460
aI1343934636
aI93240819
aI1055080658
aI196016034
aI1675342622
aI1324573705
aI513010561
aI1117488643
aI250665539
aI14016032
aI68499935
aI506771867
aI604616126
aI15818915
aI43371661
aI191896181
aI344323771
aI1557159588
aI929131862
aI1060518144
aI558767461
aI574446043
aI1671497496
aI355192912
aI16903239
aI1410434960
aI154846221
aI383328955
aI986055476
aI1949688001
aI1323987619
aI45673756
aI711208287
aI28858121
aI439174815
aI1568249940
aI395849879
aI1340307960
aI122803713
aI720246472
aI51911230
aI1602749996
aI298837102
aI15850665
aI32846837
aI303362437
aI493240179
aI22140382
aI284234987
aI1287284935
aI1964624935
aI532767632
aI1705797217
aI20485632
aI1703710226
aI732757862
aI1546604210
aI37251739
aI454005805
aI179744777
aI1977776798
aI1511525551
aI1949572394
aI94170483
aI370564193
aI501369526
aI74684374
aI1546777536
aI1368654320
aI973403148
aI96764938
aI1562665934
aI1712570784
aI1692107234
aI206126775
aI1367551969
aI1678761102
aI1470616130
aI77492202
aI1377751346
aI64319551
aI986278748
aI1043906124
aI1484051827
aI347317279
aI1932081620
aI439511693
aI545497395
aI1582111202
aI1485714704
aI1465948674
aI497226427
aI184934207
aI284255047
aI1590955446
aI1654378777
aL2156456207L
aI317147446
aI257419973
aI1934087150
aI53193880
aI169296908
aL2149371230L
aI286256333
aI406575280
aI1953411703
aI617792318
aI254488161
aI111506825
aI23546673
aI951025411
aI1388067565
aL2167525794L
aI269010221
aI705049893
aI746304038
aI17891717
aI278434938
aI1438970604
aI1599791275
aI25105638
aI78040986
aI1557437527
aI123340498
aI19346357
aI82663847
aI92245371
aI1546180440
aL2165768431L
aL2179962404L
aI36589341
aI265544951
aI516788778
aI1247899422
aI36293963
aI1572991748
aI35300425
aI1696316496
aI207980143
aI1180861081
aI27640693
aL2172423304L
aI1595353332
aI13169472
aI247574631
aI40173650
aI276167744
aI1543911535
aI34817559
aI456336837
aI1126543844
aI1561760659
aI481345593
aI16391942
aI72464305
aI106788474
aI1646901080
aI447477801
aI52838815
aI1020917588
aI1566362437
aI13339612
aI1354925822
aI494568595
aL2185268595L
aI332672563
aI341032605
aI902467094
aI1585983950
aI1601334324
aL2193871513L
aI1947576001
aI1967300131
aL2178302637L
aI108178282
aI1591939194
aI1219431073
aI1199494146
aI1102938302
aI556858205
aI1582591520
aI325076912
aL2179304359L
aL2153271643L
aI1575356988
aI1950075084
aI1673331030
aI1644078498
aI1542414650
aI1074792578
aI313137050
aI825959790
aL2190310947L
aL2188250996L
aL2214795062L
aI76407129
aI1594846902
aL2151383667L
aI1031958241
aI384445020
aI14141562
aL2216039120L
aI16172615
aI20020182
aI65783344
aI1086869112
aI1963154750
aI438319384
aI1562726018
aI1567735844
aI516996844
aI1412247547
aL2201597182L
aI816654434
aI257805371
aI1541257207
aI1576457204
aI482581321
aL2223601890L
aI903752173
aI31456431
aI114257774
aI100232808
aI17523339
aI75581520
aI979171417
aI1727637648
aI380086603
aI937928353
aI1570651352
aI454890242
aI1039956540
aI1544806724
aI31270821
aI14939066
aI26672533
aI1546171657
aI1578772111
aI556321713
aI39502036
aI361434861
aI355749870
aI1628479676
aI820633123
aL2211618419L
aI18320417
aI41702554
aI17599124
aI133020339
aI38093153
aI40012474
aI175586562
aI1671832849
aI1545665058
aI129019194
aI1630682036
aL2249322228L
aI887588203
aI28690599
aI861027847
aI257860373
aL2203873532L
aI851091174
aI411572481
aI253401380
aI554588035
aI164657144
aI429185589
aI29475996
aI163985877
aI559798931
aI56772142
aI580142006
aI560612047
aI298740311
aI20336437
aI121924431
aL2220609516L
aI1845191160
aL2260851210L
aI1629202952
aI100775910
aI246166721
aI1662514854
aI1564853089
aI18802520
aI1125414144
aI1676324030
aI780896978
aI525443004
aL2259874338L
aI269825034
aI18040789
aI1567965721
aI420857086
aL2266121546L
aI18007197
aI1363168777
aI1365434419
aI1371760910
aI1377010747
aI1381899889
aI1382687048
aI1384710446
aI1391109277
aI1393977726
aI1397354186
aI1404972823
aI1406560508
aI1407269485
aI1408637486
aI1407297788
aI1414222519
aI1415592788
aI1425134526
aI1425785198
aI1432822452
aI1434430898
aI1438236270
aI1438450512
aI1441488986
aI1442460259
aI1452408337
aI1457218807
aI1457254722
aI1458312356
aI1461901274
aI1462974912
aI1465032378
aI1469179446
aI1470261637
aI1470428431
aI1470983732
aI1476010452
aI1476028855
aI1485692239
aI1490652164
aI1497549590
aI1497636434
aI1498536354
aI1499553194
aI1499838512
aI1512574530
aI1515793572
aI1517005315
aI1521191947
aI1526516052
aI1535091866
aI1536929611
aI1541392958
aI1541407772
aI1541414791
aI1546496719
aI1552747069
aI1561828129
aI1566508117
aI1572616332
aI1581585452
aI1589233718
aI1596868460
aI1600951256
aI1604017232
aI1604673104
aI1607315496
aI1610662303
aI1615178484
aI1618038493
aI1620571056
aI1623700098
aI1625146818
aI1626213499
aI1626873242
aI1628712265
aI1631158441
aI1631655458
aI1633721120
aI1641484224
aI1645627172
aI1642818043
aI1641626540
aI1655616163
aI1656752372
aI1657560361
aI1658275704
aI1658262506
aI1661706018
aI1662654139
aI1672598977
aI1674097892
aI1674442459
aI1674500965
aI1676116770
aI1676135581
aI1676299297
aI1676338525
aI357106081
aI127591460
aI1329361722
aI878344909
aI1228762405
aI575590882
aI307196791
aI47247213
aI820031509
aI104143185
aI30617999
aI240824784
aI1379991968
aI40300931
aI19759280
aI603923548
aL2187288788L
aI273516047
aI170038384
aI53807673
aI514997936
aI138230417
aI977194280
aI17120562
aI16673128
aI1849056762
aI382459177
aI196296812
aI66972753
aI429874309
aI125210248
aI45175974
aI258659606
aI1633051956
aI1563365528
aI1313386770
aI1566766766
aI368508123
aI4456791
aI110539278
aI197282701
aI154726606
aI30132097
aI44339653
aI72907355
aI745409221
aI174547154
aI467796546
aI461607890
aI29113916
aI21277169
aI21758900
aI24103368
aI61342056
aI34046445
aI51912109
aI102527566
aI62562916
aI15368728
aI11833002
aI78636068
aI23232045
aI56585069
aI14374484
aasS'followers'
p4
(lp5
(lp6
L2563697250L
aL2286482328L
aL2216384054L
aL3357445990L
aL3983792294L
aL3006358500L
aI629573379
aI16260176
aL2385922296L
aL4110011242L
aI551791436
aI227341173
aL4061553623L
aI216936416
aI18578905
aL2962811482L
aL2415817560L
aI1692107234
aL2159322464L
aL4132750115L
aL4060623993L
aI9555372
aL2982013384L
aL4120220561L
aL3082485706L
aI26745304
aI1360916118
aI832391983
aI878976828
aI631770998
aI72907355
aI1077816180
aI17598825
aI1699551560
aI1907967908
aI26869382
aL2944882926L
aL3888807612L
aL3888514334L
aI1280537641
aL3245736120L
aI41460089
aL2434524748L
aL3261908492L
aL3891107353L
aL3887829499L
aL2792409770L
aI15812297
aL3225095774L
aL3246480234L
aL3237877112L
aL3279529542L
aL3301185816L
aL3228415425L
aL3355408691L
aL3309232460L
aL2920941902L
aI113395003
aI1532324738
aI753647960
aL2969774003L
aL3138509449L
aI91010436
aI942445345
aI32858138
aI221678900
aL2393250978L
aL2841233056L
aL3420574769L
aL3411908593L
aL3152421680L
aI330457394
aI151468104
aL3395828014L
aI1884628062
aI138695909
aI1606350984
aI237608814
aI17183739
aL2429563184L
aI53749754
aI344467598
aI31077414
aI1339862269
aL2178628141L
aL3004181738L
aL3955733716L
aL3365324806L
aL3423140537L
aL3904330283L
aL2929743297L
aI184479959
aI803709853
aI1166158615
aL2675056488L
aI17514210
aL3233591649L
aI45312166
aI330712549
aI27725616
aI506384273
aI1310999635
aI1140120170
aL3380969764L
aI1935601249
aL3657253099L
aI183003784
aI31015956
aI100575105
aL2786541083L
aL2838637524L
aI945181927
aL3811262715L
aI1096235684
aI285929331
aI23274773
aI554290220
aL3362388111L
aL3353765292L
aL2732564846L
aI348113692
aI319589702
aI60233197
aI82246662
aI300044459
aL3635935614L
aL3458622015L
aI191634902
aI1965988873
aL2600570690L
aL3139505808L
aI942063967
aI746982198
aI162363693
aL3008370010L
aL3326605666L
aI38569170
aL2254215271L
aL2256302183L
aL3476901613L
aI339673424
aL3324435277L
aL2660702952L
aL2717797428L
aL3487921454L
aL3561180255L
aI127967449
aL3439853480L
aI942275976
aI742031233
aL3220170861L
aL2834280701L
aI16677030
aL3251866076L
aI964731438
aI124095540
aI1363248452
aI242884991
aI13730542
aI17868607
aI270418163
aI26685638
aL2940178763L
aL3331821985L
aI1031958241
aL3319250586L
aI526579138
aL2620045739L
aI27985361
aI66398680
aI137342610
aI332883608
aI1086869112
aI81543575
aI1624588772
aI21067539
aL2884271597L
aI18040878
aI18177613
aL3393059849L
aL3237921639L
aL3336005975L
aI37490814
aL3287898060L
aL3388310314L
aI34610263
aL3244466174L
aI101588305
aI426597614
aI51488983
aI21354868
aI66660267
aL3281215040L
aL2465030030L
aI69223313
aI195504624
aI19989343
aL3253306171L
aI971129101
aL3069663838L
aI1700418835
aI213674372
aI103098856
aL3246483205L
aI15045793
aI112827432
aI15823891
aL3151793112L
aL2894342694L
aL3254613253L
aI23117251
aI23032984
aI361259643
aI572817343
aI541075495
aI301363956
aI148186622
aI14789306
aI453086255
aL3342813142L
aI564323526
aI1632579248
aI475959396
aL3133951304L
aI114942055
aL3219435264L
aI224690771
aL3333159892L
aI323811966
aL3248137548L
aI848225995
aI274273153
aI1591939194
aL3188262614L
aI389648302
aL3098686788L
aI1149954571
aI539193424
aI392432815
aL2236687747L
aI473072119
aI166566340
aI280492519
aI103867526
aI705366662
aI1730797100
aL3305548702L
aI66643722
aI34629649
aI192228063
aI235602164
aI1728090409
aL3162911248L
aL3293450943L
aI107778512
aI196480443
aL3242747681L
aI1281496315
aL2310555529L
aL2304250645L
aL3109694747L
aL3213003358L
aI519635525
aI175857285
aI34844235
aL2658868024L
aI485700865
aI41006273
aI234456123
aI17326287
aL2518395770L
aI492248877
aI36816237
aL2957165426L
aL2975288998L
aL2174670518L
aL2735778677L
aI1067349001
aL2901992178L
aI215351588
aI303531344
aL3030507401L
aI232662491
aL2390660095L
aI45004206
aL2389973078L
aI71355794
aI48333453
aI109125498
aI379683528
aI21155531
aI1110435644
aI27050642
aI779229188
aI21243773
aI450319488
aI970632378
aI386249288
aL3068737362L
aI81991982
aI31662943
aI18570091
aL3010456960L
aI250649908
aI295371875
aI1519426268
aI22129622
aI429298597
aL2710294886L
aI72593091
aI17674939
aI354453655
aL2298346465L
aI1157750240
aI421293572
aL2791169333L
aI195917254
aL2884914856L
aL3144418887L
aL2434329860L
aI18128325
aI17669982
aL3038637228L
aI931302144
aL2209523333L
aL3041409708L
aI188871837
aI434174425
aI57220775
aI1169776650
aI22643878
aI995470718
aL2746019806L
aI369051083
aI1139761345
aI307538973
aL2398532839L
aI930554833
aI171320748
aL2981965502L
aI776567822
aL3125844217L
aL3081680575L
aI787239624
aI181308621
aL2936410170L
aI1447114993
aI32576401
aL2229131115L
aI109774496
aI1021169419
aI385140156
aL2846659211L
aI238075554
aL3034699066L
aI22427212
aI462876613
aL3083269819L
aL2517882261L
aI605735945
aI1673766146
aI396929465
aI529583478
aI384651856
aI372157235
aL2984454733L
aI297848618
aL3035563437L
aL2901175252L
aI628266343
aI159631140
aL2550039762L
aL3012292625L
aL2342472029L
aL2989418722L
aI526525944
aL3027633146L
aI587262199
aL3019240317L
aI196695111
aI179626151
aI556603720
aL2988742673L
aI1849209800
aI1413068754
aI19162578
aI716172960
aI367066121
aI603430704
aI1633878673
aI171618312
aI100842967
aI287699802
aL2831233235L
aI263440231
aI71909090
aI491054813
aI294723052
aI1529917477
aI256869237
aI20817676
aI484872997
aI534767102
aL2978750830L
aI182538977
aI61627457
aI26092247
aL2601973309L
aI70379882
aL2155225520L
aI1599165498
aI558100763
aL2444104684L
aI333629339
aI444023903
aI1002031308
aL2992594098L
aI289104912
aI19756871
aI86227920
aL2360769247L
aL2986413533L
aI35643668
aL2981919515L
aI1060948909
aI983827232
aL2977506995L
aL2981151811L
aI257256232
aI209660639
aI1600951256
aI14374484
aL2296817701L
aI411563116
aI772975940
aI36293963
aI93432180
aI243004651
aL2797710999L
aI49105771
aI54868945
aL2973705610L
aL2975249593L
aI43469504
aI106648136
aL2970328504L
aI257104111
aI18114882
aI64901907
aL2682812180L
aI1019032993
aL2358645925L
aL2524217959L
aL2961250324L
aI637337314
aL2919569220L
aL2500184389L
aI1398449324
aL2669831612L
aI352942016
aI1693488732
aI375870179
aI503096485
aI14182398
aI1191563706
aL2888147013L
aI600631008
aI22465370
aI203138551
aI868311446
aL2920720174L
aL2823428100L
aI1581585452
aL2842238508L
aL2918492597L
aI26861927
aL2544862219L
aI81251436
aL2931629447L
aI45345217
aI48177993
aI1357039026
aI37907210
aI181776007
aL2926135601L
aL2852560016L
aL2903109712L
aL2389718366L
aL2836547152L
aI13169472
aL2924431226L
aL2924610949L
aI487089304
aL2911511920L
aI1611593304
aI19503145
aL2919620047L
aI611817117
aI760365205
aI452210464
aI327484803
aI401632581
aI28447634
aL2581405240L
aI1467804924
aI32846837
aL2753440416L
aI129242098
aL2906444760L
aI250317700
aI169296908
aI511348867
aI869985108
aL2267879068L
aL2877581249L
aI396927453
aI1038846890
aI218734345
aL2598747459L
aI1264282129
aI18319308
aI273790989
aI136446702
aI302273348
aL2356248426L
aL2504024748L
aI282667495
aI361980867
aL2883878790L
aL2751905177L
aI1316988320
aL2285315035L
aI333213436
aL2833149947L
aI297817296
aI486515481
aI527305674
aI108187167
aL2485450356L
aI378209779
aI98727642
aI106565071
aL2836122306L
aL2783590419L
aI85241641
aL2149877280L
aL2820891938L
aI26792201
aI1605126720
aL2820586376L
aI449128723
aL2617858273L
aL2482585438L
aL2628212391L
aI408131743
aI303645829
aI586163203
aI198279395
aI429185589
aI114788093
aI600221036
aI413459570
aI1849056762
aL2406902881L
aI399657047
aI1328282966
aI84766146
aL2535859135L
aI62960968
aI1079599076
aI712995869
aI70895159
aI14964645
aI1653418304
aI23161106
aI1376840120
aI218733924
aI415566272
aI44981573
aI14428875
aI1273570525
aL2723922536L
aI15812184
aI468531454
aL2383917714L
aI1273004371
aL2703625524L
aL2748872930L
aI1569380275
aI541254114
aI1611952848
aL2172423304L
aI22943150
aI43144298
aI853959488
aI106949676
aI23148889
aL2523807409L
aI214433021
aI19903328
aI286087173
aI56967901
aI1418425322
aI102486025
aI39239894
aI269230112
aI220822172
aI431061432
aI1465740445
aI17940799
aI168423664
aI82463403
aI51974160
aI394240127
aI182257618
aI428696427
aI447792990
aL2704486915L
aL2201402059L
aI343667409
aI906703950
aL2725075764L
aI482581321
aI54663171
aL2645967157L
aI1254502022
aL2544098874L
aI26672533
aL2409554736L
aI498846168
aI1950075084
aL2608197973L
aI372497502
aI28314909
aI222979537
aI350305919
aI735035510
aI77492202
aI113202525
aI23847937
aI31456431
aI463001582
aI58821514
aI223289043
aI16623139
aL2545966472L
aI267728499
aL2426080478L
aL2203107328L
aI209226282
aI253863826
aL2573523368L
aI323602749
aI199762872
aL2573216372L
aL2285506903L
aI351072185
aI236803330
aL2321086393L
aL2576692186L
aI619992895
aI398956615
aI63969804
aI1642818043
aL2385593534L
aI220698906
aL2511518101L
aI809746734
aI1013912029
aI874438663
aI113088271
aI49127001
aI891352764
aI441964818
aI68499935
aI522920774
aI1485773706
aL2271902304L
aI180968375
aL2218417812L
aI43016828
aL2481295878L
aI273516047
aI157646878
aI792774194
aI903948823
aL2507839997L
aI62871387
aI426855720
aI1626213499
aI1039956540
aL2249186018L
aI352772429
aI357599560
aI14939066
aI183515361
aI282717528
aL2514098739L
aL2346981049L
aI132616802
aL2460017191L
aI82084504
aI1016559936
aI266296542
aI265544951
aI506771867
aI485084559
aL2414134034L
aI1257303086
aI1712570784
aI241983312
aL2476082855L
aI1671897061
aI1659070093
aL2375821476L
aI898787353
aI1673339772
aL2264608729L
aI260299501
aI1059844759
aI191896181
aI17599124
aI1200986130
aI307196791
aI1567965721
aI1241418678
aI1132278318
aI1485714704
aI1562726018
aL2174713091L
aL2401960592L
aL2400243139L
aL2274875012L
aI38093153
aI225071408
aI440911647
aL2387580066L
aI1683692564
aI1110269586
aI54953526
aL2380405520L
aI556858205
aL2363951019L
aI394097275
aI15310363
aI54666131
aL2384716696L
aI973403148
aI1322751546
aI310264015
aI104143185
aI711208287
aI75430508
aL2363035710L
aI805230144
aI85616008
aL2360250152L
aI499253528
aI1587371136
aL2334079800L
aL2354600846L
aI94170483
aL2300066043L
aL2355398222L
aI401218770
aI548857056
aI154846221
aI353913640
aI258659606
aI211316225
aI17105023
aI1641626540
aI38836929
aI1942973269
aI188325213
aI1546777536
aI363768640
aI18320417
aI1552747069
aL2181369800L
aI1441488986
aI361777602
aL2322515619L
aL2272330147L
aI1345012656
aI119266812
aI286256333
aL2318773415L
aI1955493762
aI545497395
aI188112447
aI418789040
aI1964624935
aI207980143
aL2317447840L
aI47247213
aI951025411
aI105557568
aI1476080822
aI1678761102
aI50504279
aI290900763
aL2240620153L
aI184908803
aI16079604
aL2265291695L
aL2311956601L
aI452461443
aI447477801
aI484519277
aI274351168
aI108018253
aI64656814
aI1498536354
aI111506825
aI40173650
aI502513566
aI23613736
aL2147697984L
aI300195767
aI257419973
aL2241092966L
aI454890242
aI355749870
aL2298899623L
aI617792318
aI1829455344
aI476007923
aI29803338
aL2291614436L
aI348659023
aI622111302
aI513010561
aI123340498
aI287727974
aL2221631784L
aI861027847
aI27974301
aI1542414650
aI1072195178
aI488401419
aI53193880
aI26277328
aI15337385
aI424832354
aI33787443
aI1671497496
aI705049893
aL2250611149L
aI1020917588
aI1654378777
aI72464305
aI481819481
aI64319551
aI196296812
aI902467094
aL2222575416L
aI278434938
aI501816596
aI96764938
aI500071314
aL2264899290L
aI82663847
aI386570935
aL2272172215L
aI303362437
aI580142006
aI1364763769
aI497226427
aI1000679882
aI973147980
aI488963679
aI383328955
aI257635313
aI1324573705
aI16903239
aI20336437
aI916171476
aI17093617
aI1219431073
aI560612047
aI178073808
aL2258202151L
aI367774200
aI501841854
aI1055080658
aI1410434960
aI18040789
aI13339612
aI604616126
aI929131862
aL2248663404L
aI1595353332
aI370564193
aI136791586
aI123105148
aI1452408337
aI75581520
aI937928353
aI501369526
aL2249691282L
aI216571599
aI1253051654
aI1543911535
aI516788778
aI1517005315
aI1954503433
aI825959790
aI133020339
aI1539353510
aI269010221
aI1060518144
aI531331282
aI732757862
aI1117488643
aI1696316496
aI1546180440
aI40012474
aI1641484224
aI333848935
aI20020182
aI1671832849
aI29475996
aI25958053
aL2153271643L
aI76407129
aI1601334324
aI1947576001
aI276167744
aI1845191160
aI192170074
aI1561828129
aI429211692
aI1949688001
aL2201597182L
aI1371760910
aI19346357
aI185114602
aL2268287648L
aI1438236270
aI554588035
aI283826638
aL2220011674L
aI1470983732
aI1572991748
aI1388067565
aI149522619
aI278486085
aI365212839
aI223682049
aI603923548
aI312004959
aL2256955262L
aI1226357095
aI348494802
aL2253790298L
aL2253833192L
aI22103267
aI225021009
aI1329361722
aI101134781
aL2235102168L
aI615329833
aI253189449
aL2163182701L
aI62344611
aI65783344
aL2212719878L
aI43950136
aI344323771
aI383680319
aI114438335
aI259006781
aI575582187
aI523975311
aI93458341
aI848391416
aI1143851010
aI1663013922
aI1880350249
aI74104397
aI1271012437
aI602036552
aI904968246
aI120407404
aI1573525471
aI17812536
aI10374422
aI21634972
aI746304038
aL2174542388L
aI933610500
aI1036611673
aI41276816
aI1281858456
aI945620994
aI1881519127
aI577548799
aI1522413073
aI514657635
aI436248154
aI387799474
aI73974967
aI1926988536
aI7460312
aI35017869
aI17145393
aI1872827750
aI453331412
aI40587394
aI21362150
aI569801803
aI496388316
aI1065696342
aI1259932975
aI1693761763
aI1661013168
aI1688512446
aI46999099
aI66972753
aI1686839640
aI24629430
aI565502432
aI49550564
aI409599785
aI60113926
aI243731570
aI29031547
aI35245492
aI249265610
aI199903465
aI588463085
aI513923065
aI334938920
aI143775794
aI1436703936
aI293258038
aI1554344598
aI343062437
aI352918306
aI517972990
aI16564365
aI209573719
aI548597565
aI49330035
aI30215648
aI1109686992
aI48545920
aI215792945
aI585480635
aI19242581
aI1469047854
aI1398667308
aI1454322932
aI64502507
aI513847827
aI1364388348
aI168416706
aI1089813205
aI1433345880
aI1056977388
aI206988626
aI440683973
aI571928144
aI11128572
aI1406723742
aI716004236
aI1412639804
aI278664450
aI158877679
aI84220531
aI70665073
aI1363388125
aI435139136
aI1262787654
aI77760434
aI1385845801
aI246156230
aI57513755
aI511970896
aI89753164
aI185899834
aI1309193646
aI515074403
aI486524508
aI100529440
aI172346874
aI736008372
aI234653145
aI31001450
aI1271337638
aI1309178065
aI371733107
aI1290389882
aI1290357878
aI1290353083
aI1310316313
aI1281172500
aI1281201025
aI1309930728
aI1280438720
aI1286682210
aI1286756256
aI1281214146
aI77949867
aI1281154716
aI1308923941
aI1277205991
aI1280583078
aI1266274436
aI1234650060
aI1169024934
aI1197207091
aI1286722969
aI1283109223
aI1286779790
aI1274203436
aI1282412047
aI1290559153
aI808195921
aI1273675237
aI1286627742
aI1277504744
aI1273560468
aI1266329431
aI1263053935
aI1266850820
aI1296476126
aI583086292
aI1280650598
aI1261879459
aI605718420
aI1280306928
aI1267997107
aI1265999935
aI1280561221
aI1283155184
aI1290454154
aI1290150055
aI1286730516
aI1261728205
aI733090428
aI1286669646
aI1274258046
aI528275311
aI626301218
aI1272907195
aI1018730598
aI77134432
aI410688526
aI1277124337
aI1351821108
aI563670593
aI1326193238
aI1280580775
aI1281142081
aI1290166148
aI1281068910
aI849762386
aI573172393
aI566594509
aI591113433
aI1278894043
aI1281225259
aI1287216416
aI1103019384
aI1286733974
aI1282830030
aI1279609748
aI1274567276
aI1277390022
aI1274237432
aI1280798678
aI605673609
aI1267968415
aI605585419
aI1280674260
aI602926592
aI1261271624
aI1267908056
aI1279959110
aI605596391
aI1273569546
aI1279583006
aI1266263480
aI1273640708
aI1290458772
aI608462100
aI566745471
aI996635077
aI1267814868
aI1280503874
aI1281217891
aI1282825711
aI760914853
aI1280676553
aI1051601082
aI1349515440
aI1135866133
aI1002154495
aI1266359688
aI28888372
aI381970235
aI566742708
aI545074955
aI495909565
aI72128642
aI1156271966
aI1265968728
aI1266507013
aI310284328
aI529682978
aI1266855942
aI1273691388
aI1279892989
aI1286967673
aI1277210990
aI1280492312
aI1283125724
aI1286843852
aI1264518900
aI566653100
aI1280433307
aI423033440
aI605679145
aI1267856982
aI1265113423
aI429479057
aI566659879
aI497748282
aI1281164785
aI605752794
aI1280288215
aI1276962354
aI1268200908
aI714063624
aI425428944
aI941577008
aI727511635
aI1287245898
aI605714736
aI87338713
aI605706225
aI605627828
aI724595904
aI566732460
aI306837745
aI566644675
aI722326044
aI1149080562
aI68294322
aI1267762388
aI1267842062
aI566688885
aI280050705
aI992827106
aI973469792
aI1243546898
aI566648587
aI1280345366
aI307755512
aI1267727617
aI1261662222
aI44097736
aI1341407678
aI1267794674
aI1267297532
aI1272960426
aI1343409626
aI1343408018
aI1279633003
aI862325894
aI1258547916
aI1261185301
aI1276767320
aI1280394109
aI321571553
aI802903867
aI1267933992
aI344884809
aI566720100
aI1268261083
aI1273644763
aI459327176
aI392064847
aI23216025
aI1337189556
aI566694900
aI163528990
aI700605180
aI1176966595
aI1242914845
aI1265309934
aI1268129299
aI1267524128
aI1273624321
aI1266032203
aI1277431358
aI1277494652
aI1277157294
aI1264840266
aI1265132544
aI1253278470
aI1268195401
aI964857546
aI1273614439
aI1267012610
aI1266243680
aI1267633548
aI1267779728
aI1266464160
aI1264459734
aI1264972279
aI1266204355
aI1261349948
aI1266412988
aI1262056602
aI1266982411
aI1339456423
aI1262867640
aI1267153711
aI1266703148
aI1266069948
aI1265031289
aI1266839090
aI36639047
aI1259413010
aI1267272181
aI1260539995
aI1264918742
aI1262454528
aI1267122313
aI566666123
aI1264898641
aI1266093468
aI1260728286
aI1263115982
aI1266802339
aI1266142723
aI1260607044
aI1266748560
aI1266768984
aI1266732583
aI1259247338
aI1260715860
aI1267210628
aI393760683
aI1334366184
aI28544035
aI264085236
aI493436963
aI310816792
aI50725075
aI1054550095
aI1302133536
aI1283215838
aI1150121532
aI1291620312
aI15023736
aI165113271
aI276010155
aI17162201
aI369162851
aI67000429
aI66962425
aI152170574
aI50381253
aI98205552
aI113678194
aI602926892
aI445902563
aI478572867
aI40300931
aI22695664
aI38008025
aI17002327
aI950521346
aI771593750
aI714728444
aI397269069
aI479754092
aI1184954402
aI873259488
aI107553121
aI918936019
aI540800598
aI782835986
aI1114817694
aI945302340
aI813640082
aI1022157986
aI622304934
aI898126813
aI585682219
aI1013207028
aI1048898197
aI309409499
aI1171235280
aI1065811081
aI155846208
aI570579851
aI219363305
aI1089016796
aI554954437
aI708370466
aI216422937
aI1019168503
aI589886148
aI267812043
aI194985870
aI283189329
aI435203855
aI284802305
aI884250684
aI1109927917
aI735507194
aI232069348
aI1175200735
aI1174184628
aI1172048078
aI1000414050
aI345770690
aI187810320
aI1165103443
aI1000043964
aI236911583
aI430487288
aI609944380
aI233859609
aI25653164
aI1168076316
aI109529840
aI984129330
aI121380657
aI16255048
aI828880896
aI1150025066
aI65836085
aI185585600
aI226850002
aI1154127182
aI112141002
aI189515186
aI371279706
aI139695949
aI1043999976
aI1110603096
aI222348421
aI106663908
aI1029057643
aI438936518
aI1115674884
aI51352848
aI1121381557
aI1097390796
aI1052430805
aI213161533
aI221084272
aI833121608
aI141690998
aI504019529
aI283795991
aI63398846
aI357878541
aI927444620
aI1184654425
aI585516899
aI543373033
aI726470694
aI368974850
aI452879778
aI603233718
aI548655753
aI525583472
aI492557565
aI1157790301
aI1099968115
aI1057321567
aI1028333114
aI272721363
aI517323459
aI1041340440
aI1184184536
aI150799694
aI190082912
aI964480140
aI1168013120
aI281147091
aI367829181
aI1167865184
aI354209166
aI534878741
aI1094848314
aI1184266507
aI1183786237
aI736624741
aI225805695
aI151764113
aI1136572261
aI1051804435
aI165000034
aI312813916
aI1051841173
aI882976927
aI1119575455
aI316208047
aI1171208359
aI1017032990
aI1097485123
aI293770505
aI475936699
aI980939269
aI250866314
aI174569586
aI419293623
aI487562153
aI1184508546
aI748950072
aI416242470
aI1170322652
aI391780411
aI357008710
aI146037120
aI815550456
aI513785981
aI1148769710
aI1147430996
aI873127022
aI538170682
aI765992040
aI1056522019
aI605610929
aI544247318
aI203482740
aI237831072
aI1154543676
aI507965980
aI460794649
aI966984302
aI621172571
aI460820850
aI178899061
aI312620822
aI124824607
aI590323914
aI275129865
aI876399428
aI1170435619
aI216308258
aI564712312
aI424448062
aI514851569
aI816193784
aI356277291
aI952857018
aI338211404
aI894432085
aI773527590
aI1100825858
aI980995363
aI471382403
aI1049502578
aI636342443
aI160284870
aI836245812
aI17880672
aI322773297
aI489022370
aI294644411
aI565426742
aI97778978
aI302585408
aI303400986
aI337083241
aI992285514
aI75711158
aI49096978
aI326607614
aI771179521
aI213274840
aI452182669
aI237142227
aI995510226
aI366314459
aI20206745
aI268066923
aI228541888
aI253323891
aI739189194
aI557426295
aI1094955242
aI29283925
aI373171215
aI454609995
aI445012902
aI927972883
aI55561590
aI21696482
aI476038973
aI135693452
aI1068823549
aI745981110
aI41693778
aI769700574
aI99337673
aI60225411
aI8493192
aI35789352
aI19067959
aI68689464
aI20865513
aI61217161
aI554878666
aI553252810
aI999149024
aI38637622
aI856919784
aI989712835
aI977125087
aI719153521
aI242504468
aI143495587
aI288347087
aI71610097
aI186642305
aI17937722
aI54813081
aI182324191
aI99949592
aI73703817
aI155042970
aI148606502
aI125770006
aI58008142
aI740224896
aI926286212
aI255895131
aI717510673
aI717540056
aI717413144
aI717248982
aI717234314
aI717108450
aI716972736
aI716991018
aI716905562
aI716924486
aI741936026
aI716711197
aI716457865
aI716358402
aI716233956
aI716261990
aI633470548
aI717522542
aI717535452
aI717461486
aI717444128
aI717470886
aI717365893
aI717416544
aI717331772
aI717325998
aI717316608
aI717321128
aI717331710
aI717336822
aI717297426
aI717325710
aI717280339
aI717255853
aI633121852
aI748136328
aI717250771
aI717228794
aI741983389
aI741976664
aI717185418
aI717181447
aI717185420
aI717161852
aI717056378
aI717119737
aI717085933
aI717048355
aI716986986
aI717023850
aI716987210
aI716982240
aI716963407
aI717029989
aI716991871
aI716983333
aI716978881
aI716880703
aI716906011
aI716896855
aI716838811
aI716848476
aI716822018
aI716821771
aI716828281
aI716764236
aI716775840
aI716801659
aI716731952
aI716728159
aI741974468
aI741971251
aI741951613
aI741930636
aI741950269
aI741961748
aI741953678
aI741945414
aI741970189
aI741936438
aI741948115
aI716677855
aI716656867
aI716610325
aI716662556
aI716577900
aI716517506
aI716444887
aI632981030
aI716457372
aI716434326
aI716448426
aI716411143
aI716364625
aI716327936
aI716334637
aI716328763
aI716269369
aI632991273
aI716256559
aI716218040
aI716255546
aI716286968
aI716242033
aI716228706
aI741924944
aI747891366
aI632804358
aI717670004
aI717575058
aI717561962
aI633734889
aI717625392
aI717571052
aI717588254
aI719840756
aI718463983
aI717199506
aI632312355
aI632191484
aI632251719
aI623581932
aI935640236
aI39181812
aI925770205
aI34992519
aI917925530
aI232768716
aI90758418
aI489601766
aI41043910
aI890140364
aI15368728
aI112040982
aI287621364
aI217404805
aI37626665
aI23534672
aI385138724
aI460885094
aI339039253
aI44300398
aI605188962
aI605095162
aI602587330
aI568064960
aI565788214
aI579137394
aI553594554
aI572430065
aI582905498
aI586540330
aI592254502
aI600884150
aI602826057
aI600872216
aI571971408
aI586788663
aI554321515
aI581186359
aI592230001
aI565487537
aI566224915
aI590396020
aI574014738
aI594949513
aI566402715
aI571994586
aI585424310
aI585606366
aI591906870
aI553567686
aI553564366
aI554498354
aI568291306
aI582973211
aI554440604
aI579253404
aI551283410
aI595018868
aI598711769
aI590486790
aI570900110
aI592747693
aI584709209
aI598305619
aI594889220
aI584137064
aI572126647
aI566505744
aI584923376
aI585445169
aI561454906
aI578730484
aI592682134
aI574865053
aI589009457
aI565712079
aI563301093
aI566603586
aI568201122
aI547928362
aI565686019
aI572226327
aI554612341
aI578860173
aI574872676
aI589982510
aI579016168
aI551020096
aI582732025
aI576126895
aI584952991
aI576620253
aI569491430
aI584814828
aI571652944
aI634970588
aI630881164
aI630925140
aI634227278
aI589440567
aI589357406
aI589358383
aI589360690
aI589360468
aI589356272
aI589438044
aI589355906
aI589437324
aI589357063
aI589437087
aI589434033
aI589434942
aI589357252
aI589356766
aI589357117
aI589352816
aI589354612
aI589355353
aI589355680
aI589432761
aI589351457
aI589349048
aI589352236
aI589354492
aI589353322
aI589349393
aI589348832
aI589352146
aI589426431
aI589352182
aI589348007
aI589347557
aI589344584
aI589346705
aI589346879
aI589428969
aI589428123
aI589347223
aI589347187
aI589424757
aI589346569
aI589424247
aI589342178
aI589342733
aI589341053
aI589423797
aI589340426
aI589344283
aI589342303
aI589343635
aI589420644
aI589339457
aI589343299
aI589422021
aI589336445
aI589421505
aI589338956
aI589339621
aI589341724
aI589342252
aI589337648
aI589419408
aI589420077
aI589335989
aI589336808
aI589334450
aI589417326
aI589339987
aI589417785
aI589417641
aI589333205
aI589334819
aI589416315
aI589415481
aI589333847
aI589336153
aI589333502
aI589415607
aI589332278
aI589331399
aI589335562
aI589334560
aI589330612
aI589335388
aI589334377
aI589413864
aI589330493
aI589332805
aI589330025
aI589327811
aI589329722
aI589329311
aI589329314
aI589328366
aI589329088
aI589330444
aI589331029
aI589331050
aI589326569
aI589328920
aI589326143
aI589329097
aI589328686
aI589406211
aI589323959
aI589328260
aI589320338
aI589402323
aI589326115
aI700840250
aI589401711
aI589322467
aI700836458
aI589400307
aI589320985
aI589314074
aI589398561
aI634132427
aI589320385
aI700824140
aI589316189
aI589318876
aI589393194
aI634134316
aI589315208
aI589397100
aI634126667
aI589314419
aI700813458
aI589395561
aI589396185
aI634129711
aI589313675
aI589316524
aI634194174
aI589316668
aI589312271
aI700897208
aI589312376
aI589312103
aI700890914
aI589311404
aI589392546
aI700778928
aI589394493
aI589314400
aI634192218
aI589310777
aI700776066
aI589309910
aI589392066
aI634114219
aI589308344
aI589308650
aI634108930
aI589312450
aI589312876
aI700773715
aI589306304
aI589389282
aI634179792
aI589306952
aI637346699
aI589311829
aI589381299
aI589307366
aI700886852
aI589309384
aI589387251
aI700884457
aI589388253
aI637348879
aI589305320
aI589307569
aI637342247
aI589386990
aI589307923
aI589304084
aI589303463
aI589303376
aI589306741
aI637335431
aI589384872
aI589306579
aI700763534
aI589302407
aI589384164
aI589381353
aI589300364
aI700880220
aI589383993
aI589304989
aI700877365
aI589304410
aI589303501
aI589303108
aI589285196
aI700759974
aI589382691
aI633727260
aI589301626
aI700754228
aI589380717
aI589294856
aI633263288
aI589379664
aI589379307
aI589379259
aI589378974
aI589299757
aI589378290
aI589378092
aI589298707
aI589377612
aI589293881
aI700974792
aI589294256
aI589297240
aI700972206
aI589376817
aI589296748
aI700965164
aI589296733
aI589376319
aI700956512
aI589292120
aI589296697
aI589290956
aI589373913
aI700947061
aI589294957
aI589372878
aI700939856
aI589285454
aI589289243
aI700933212
aI589372041
aI589372014
aI700931743
aI589289642
aI589288523
aI700928456
aI589291888
aI589287356
aI700924021
aI589370565
aI589369929
aI700917396
aI589405833
aI589405323
aI589404801
aI589403904
aI589325119
aI589321334
aI589320515
aI589320623
aI589318538
aI589323538
aI589290061
aI589369083
aI620513310
aI620431379
aI620435701
aI620428451
aI620430662
aI620435299
aI620434774
aI620434264
aI620433949
aI620428901
aI620428415
aI620432533
aI620428172
aI620428220
aI620427782
aI620427446
aI620504688
aI620431228
aI620429458
aI620428564
aI620505240
aI620428219
aI620422844
aI620396849
aI620477574
aI620476809
aI620400136
aI635581742
aI635579564
aI635579630
aI635584195
aI635579219
aI635577479
aI635657880
aI635580970
aI635654709
aI635655093
aI635654262
aI635577520
aI635576626
aI635574694
aI635574574
aI635568914
aI635568662
aI635573089
aI635573308
aI635568353
aI635648388
aI635648409
aI635571661
aI635571013
aI635570671
aI635565431
aI635639802
aI635645703
aI635563628
aI635563775
aI635644062
aI635567266
aI635641950
aI635566510
aI635565895
aI635640438
aI635560775
aI635641131
aI635557538
aI635558947
aI635556584
aI635636472
aI635560051
aI635635965
aI635557480
aI635556043
aI635634384
aI635552390
aI635633823
aI635552348
aI635552489
aI635552018
aI635551829
aI635632086
aI635632038
aI635555905
aI635550719
aI635631321
aI635552140
aI635627076
aI635549360
aI635548610
aI635552776
aI635626839
aI635546159
aI635546522
aI635546039
aI635551060
aI635550124
aI635545169
aI635620731
aI635544772
aI635542261
aI635615799
aI635541832
aI635536232
aI635536517
aI635534330
aI635534351
aI635533556
aI635533445
aI635534060
aI635614623
aI635614419
aI635612907
aI635612358
aI635535739
aI635610990
aI635610729
aI635610585
aI635533375
aI635526671
aI635531494
aI635527682
aI635527469
aI635530564
aI635606316
aI635605641
aI635524211
aI635518943
aI635522597
aI635528209
aI635522981
aI635525929
aI635603514
aI635526940
aI635526592
aI635602722
aI635600214
aI635602422
aI635601912
aI635601102
aI635519237
aI635519183
aI635518244
aI635520271
aI635599503
aI635522785
aI635513993
aI635516885
aI635516225
aI635514686
aI635520796
aI635511803
aI635592177
aI635511386
aI635515807
aI635515333
aI635591172
aI635589462
aI635587494
aI635585418
aI635509987
aI635505407
aI635508163
aI635508148
aI635507386
aI635501366
aI635582262
aI635501582
aI623082191
aI623083363
aI623080466
aI623083132
aI623075756
aI623155338
aI623070479
aI623150652
aI623065472
aI623071444
aI623067329
aI623147751
aI623146449
aI623146266
aI623064083
aI623068333
aI623060633
aI623057057
aI623056451
aI623049251
aI623053997
aI623053706
aI623134650
aI623130807
aI623055337
aI623054599
aI623048897
aI623130090
aI623044229
aI623043884
aI623123247
aI623123712
aI623123181
aI623039978
aI623040257
aI623038769
aI623031875
aI623036117
aI623116953
aI623038633
aI623037460
aI623037835
aI623030393
aI623030870
aI623027210
aI623034715
aI623109057
aI623108370
aI623030206
aI623027872
aI623107071
aI623105364
aI623027974
aI623104218
aI623103852
aI623027191
aI623026462
aI623102754
aI623102568
aI623101989
aI623018354
aI623019985
aI623020207
aI623015132
aI623011568
aI344843408
aI628545752
aI728789420
aI498860966
aI538360616
aI36702199
aI375541220
aI25568582
aI619698958
aI165121628
aI403076729
aI40663884
aI568408406
aI467919369
aI493009943
aI25277152
aI442946887
aI21250735
aI478930600
aI424721501
aI219181873
aI374089576
aI481256384
aI28422295
aI23157846
aI17715967
aI59143641
aI135639555
aI321242028
aI37123865
aI18858894
aI180975419
aI240267709
aI39310714
aI20569904
aI107634739
aI94902042
aI86458995
aI69271520
aI41005889
aI16709242
aI64460202
aI63425774
aasS'obj'
p7
ccopy_reg
_reconstructor
p8
(ctweepy.models
User
p9
c__builtin__
object
p10
Ntp11
Rp12
(dp13
S'follow_request_sent'
p14
NsS'has_extended_profile'
p15
I00
sS'profile_use_background_image'
p16
I01
sS'profile_sidebar_fill_color'
p17
VDAECF4
p18
sS'id'
p19
I60705191
sS'verified'
p20
I00
sS'entities'
p21
(dp22
Vurl
p23
(dp24
Vurls
p25
(lp26
(dp27
g23
Vhttp://t.co/c5ABYKWYD1
p28
sVindices
p29
(lp30
I0
aI22
asVexpanded_url
p31
Vhttp://www.stockconsultant.com
p32
sVdisplay_url
p33
Vstockconsultant.com
p34
sassVdescription
p35
(dp36
g25
(lp37
sssS'profile_image_url_https'
p38
Vhttps://pbs.twimg.com/profile_images/476023382824079360/VtR7ei53_normal.png
p39
sS'_json'
p40
(dp41
Vfollow_request_sent
p42
NsVhas_extended_profile
p43
I00
sVprofile_use_background_image
p44
I01
sVdefault_profile_image
p45
I00
sVid
p46
I60705191
sVprofile_background_image_url_https
p47
Vhttps://pbs.twimg.com/profile_background_images/671949563/d5e76d78ffcb821cd4fedb2dffe5105d.png
p48
sVverified
p49
I00
sVprofile_text_color
p50
V663B12
p51
sVprofile_image_url_https
p52
g39
sVprofile_sidebar_fill_color
p53
g18
sVentities
p54
g22
sVfollowers_count
p55
I2395
sVprofile_sidebar_border_color
p56
V000000
p57
sVid_str
p58
V60705191
p59
sVprofile_background_color
p60
VC6E2EE
p61
sVlisted_count
p62
I45
sVstatus
p63
(dp64
Vcontributors
p65
NsVtruncated
p66
I00
sVtext
p67
V$HMSY Hms (Holdings) stock breakout watch above 11.93 https://t.co/AALP4ma8q7                   #stocks https://t.co/tHakOtdE7w
p68
sVin_reply_to_status_id
p69
Nsg46
L666358322711412737L
sVfavorite_count
p70
I0
sVsource
p71
V<a href="http://twitter.com" rel="nofollow">Twitter Web Client</a>
p72
sVretweeted
p73
I00
sVcoordinates
p74
Nsg54
(dp75
Vsymbols
p76
(lp77
(dp78
g29
(lp79
I0
aI5
asg67
VHMSY
p80
sasVuser_mentions
p81
(lp82
sVhashtags
p83
(lp84
(dp85
g29
(lp86
I96
aI103
asg67
Vstocks
p87
sasg25
(lp88
(dp89
g23
Vhttps://t.co/AALP4ma8q7
p90
sg29
(lp91
I54
aI77
asg31
Vhttp://goo.gl/O8qHY2
p92
sg33
Vgoo.gl/O8qHY2
p93
sasVmedia
p94
(lp95
(dp96
g31
Vhttp://twitter.com/StockConsultant/status/666358322711412737/photo/1
p97
sg33
Vpic.twitter.com/tHakOtdE7w
p98
sg23
Vhttps://t.co/tHakOtdE7w
p99
sVmedia_url_https
p100
Vhttps://pbs.twimg.com/media/CT9hXPoUEAAR-bB.png
p101
sg58
V666358321834627072
p102
sVsizes
p103
(dp104
Vsmall
p105
(dp106
Vh
p107
I146
sVresize
p108
Vfit
p109
sVw
p110
I340
ssVlarge
p111
(dp112
g107
I440
sg108
Vfit
p113
sg110
I1024
ssVmedium
p114
(dp115
g107
I257
sg108
Vfit
p116
sg110
I600
ssVthumb
p117
(dp118
g107
I150
sg108
Vcrop
p119
sg110
I150
sssg29
(lp120
I104
aI127
asVtype
p121
Vphoto
p122
sg46
L666358321834627072L
sVmedia_url
p123
Vhttp://pbs.twimg.com/media/CT9hXPoUEAAR-bB.png
p124
sassVin_reply_to_screen_name
p125
Nsg58
V666358322711412737
p126
sVretweet_count
p127
I1
sVin_reply_to_user_id
p128
NsVfavorited
p129
I00
sVgeo
p130
NsVin_reply_to_user_id_str
p131
NsVpossibly_sensitive
p132
I00
sVlang
p133
Ven
p134
sVcreated_at
p135
VMon Nov 16 20:52:59 +0000 2015
p136
sVin_reply_to_status_id_str
p137
NsVplace
p138
NssVis_translation_enabled
p139
I00
sVutc_offset
p140
I-18000
sVstatuses_count
p141
I4999
sg35
VGreat online tool that since 1999 has provided stock targets, trade quality, P/L ratios, real support & resistance levels, screener and more! Not invest advice.
p142
sVfriends_count
p143
I1217
sVlocation
p144
VUSA
p145
sVprofile_link_color
p146
V0044CC
p147
sVprofile_image_url
p148
Vhttp://pbs.twimg.com/profile_images/476023382824079360/VtR7ei53_normal.png
p149
sVfollowing
p150
NsVgeo_enabled
p151
I00
sVprofile_banner_url
p152
Vhttps://pbs.twimg.com/profile_banners/60705191/1402327455
p153
sVprofile_background_image_url
p154
Vhttp://pbs.twimg.com/profile_background_images/671949563/d5e76d78ffcb821cd4fedb2dffe5105d.png
p155
sVscreen_name
p156
VStockConsultant
p157
sg133
Ven
p158
sVprofile_background_tile
p159
I00
sVfavourites_count
p160
I36
sVname
p161
VDan Chapman
p162
sVnotifications
p163
Nsg23
Vhttp://t.co/c5ABYKWYD1
p164
sg135
VMon Jul 27 20:46:08 +0000 2009
p165
sVcontributors_enabled
p166
I00
sVtime_zone
p167
VEastern Time (US & Canada)
p168
sVprotected
p169
I00
sVdefault_profile
p170
I00
sVis_translator
p171
I00
ssS'contributors_enabled'
p172
I00
sS'profile_text_color'
p173
g51
sS'followers_count'
p174
I2395
sS'profile_sidebar_border_color'
p175
g57
sS'id_str'
p176
g59
sS'default_profile_image'
p177
I00
sS'listed_count'
p178
I45
sS'status'
p179
g8
(ctweepy.models
Status
p180
g10
Ntp181
Rp182
(dp183
S'favorited'
p184
I00
sS'contributors'
p185
NsS'truncated'
p186
I00
sS'text'
p187
g68
sS'source_url'
p188
Vhttp://twitter.com
p189
sS'possibly_sensitive'
p190
I00
sS'in_reply_to_status_id'
p191
NsS'geo'
p192
Nsg19
L666358322711412737L
sS'favorite_count'
p193
I0
sS'lang'
p194
g134
sg21
g75
sS'created_at'
p195
cdatetime
datetime
p196
(S'\x07\xdf\x0b\x10\x144;\x00\x00\x00'
p197
tp198
Rp199
sg40
g64
sS'coordinates'
p200
NsS'in_reply_to_user_id_str'
p201
NsS'source'
p202
VTwitter Web Client
p203
sS'in_reply_to_status_id_str'
p204
NsS'in_reply_to_screen_name'
p205
Nsg176
g126
sS'retweeted'
p206
I00
sS'place'
p207
NsS'retweet_count'
p208
I1
sS'in_reply_to_user_id'
p209
NsbsS'is_translation_enabled'
p210
I00
sS'utc_offset'
p211
I-18000
sS'statuses_count'
p212
I4999
sS'description'
p213
g142
sS'friends_count'
p214
I1217
sS'location'
p215
g145
sS'profile_link_color'
p216
g147
sS'profile_image_url'
p217
g149
sS'notifications'
p218
NsS'geo_enabled'
p219
I00
sS'profile_background_color'
p220
g61
sS'profile_banner_url'
p221
g153
sS'profile_background_image_url'
p222
g155
sS'screen_name'
p223
g157
sg194
g158
sg1
I00
sS'profile_background_tile'
p224
I00
sS'favourites_count'
p225
I36
sS'name'
p226
g162
sS'url'
p227
g164
sg195
g196
(S'\x07\xd9\x07\x1b\x14.\x08\x00\x00\x00'
p228
tp229
Rp230
sS'profile_background_image_url_https'
p231
g48
sS'time_zone'
p232
g168
sS'protected'
p233
I00
sS'default_profile'
p234
I00
sS'is_translator'
p235
I00
sbs.