(dp0
S'following'
p1
(lp2
(lp3
I18916432
aI81887593
aI193756258
aI18690231
aI16139049
aL3684391577L
aL4024402228L
aI447061276
aI272042407
aL3290364847L
aI338330795
aI78156215
aI8999792
aL3279143178L
aI24247327
aI43132686
aI28321329
aI19355816
aI518592848
aI603219453
aI71325712
aL2362580712L
aI11317392
aI881305597
aI397462571
aI407982776
aI21323251
aI111054964
aI228845995
aI72831048
aI39803367
aI16661704
aI13467372
aL3231924888L
aL2707535059L
aI14294848
aI326184086
aL2472630098L
aI89491245
aI148897633
aI49628920
aI406061118
aI74794492
aI90416226
aI16830572
aI18148466
aI410099400
aI32450040
aI43901066
aI396294440
aI439362597
aI39906381
aI218615098
aI373694654
aI1330055544
aL2850231718L
aI17889970
aI567657016
aI478902310
aI42403787
aI47678782
aI921330608
aI318053222
aI375723077
aI16228479
aI1536791610
aI216065709
aI95292805
aI254363245
aI15752608
aL2987202453L
aI342376519
aI35773039
aI14677919
aI15164565
aI1962804476
aL2798773418L
aI65098049
aI305221233
aI1616185404
aI9300262
aL3092047397L
aI1684423190
aI236526490
aI244655353
aI7313362
aI602321455
aI22522178
aI44060322
aI879161563
aL2802062539L
aI199407558
aL2964587993L
aI226010598
aI1499708725
aI18821994
aL2862555526L
aI572225652
aI1439892554
aI316389142
aL2317351705L
aI20186316
aI601883336
aI38530021
aI883107948
aI1314073868
aI813286
aI30313925
aI32624460
aI238349193
aI18001417
aI289311242
aI75627815
aI31484145
aI53039176
aI285229008
aI21880115
aI413578650
aI327577091
aI41290390
aI492806249
aI429169198
aI466062053
aI27814665
aI1308741
aI1153584362
aI23504313
aI604969770
aL2853410805L
aI311099164
aI1449170516
aI15008539
aI34340707
aI110420252
aI407986586
aI16950628
aL2805609188L
aI84072624
aI91180720
aI158414847
aI16129920
aI16955870
aI744650100
aL2398137084L
aL2361631088L
aI378835531
aI873399943
aI701359482
aI1080058020
aI21415346
aI33792634
aI95273513
aL2596470522L
aI21366207
aI334944709
aI28144343
aI22172380
aL2269298755L
aI340481793
aI863003467
aI344752927
aI15944436
aI931450722
aI140514522
aI1137810302
aI62882514
aL2559285546L
aI558050407
aI285295566
aI24357211
aI389319582
aI14062554
aI19495715
aI20815041
aI23961341
aI16150688
aI837301315
aI20187065
aI309728693
aI17393219
aI1001726569
aI1945222574
aI325777887
aI1581518347
aI11859132
aI607534509
aI116229964
aI38271276
aI57411021
aI64453378
aI171691486
aI52701041
aL2377459800L
aI42703163
aI293618490
aI19019298
aI77229725
aI16203586
aI409194010
aI1320073344
aI22790881
aI543876839
aI1704701516
aI219846823
aI44196397
aI778427430
aI582117237
aI24959190
aI30217291
aI20410279
aI35306978
aI16629477
aI398129689
aI200634860
aI36814136
aI46145761
aI1060997204
aI1323471396
aI102754598
aI287465957
aI50753411
aI52490958
aI442879082
aI77907514
aI1711239283
aI13649002
aI213413457
aI70757632
aI59172808
aI446784969
aI1338554190
aI86125016
aI71372467
aI22054220
aI339790344
aI18198832
aI18843227
aI252877176
aI888903264
aI632341632
aI168186079
aI19717430
aI442298073
aI166711687
aI190773758
aI229246832
aI274233761
aI16700029
aI112872946
aI103011458
aI43475268
aI62871181
aI244969675
aI243801041
aI1267730028
aI321533846
aI102094857
aI106425549
aI18067749
aI19731643
aI561161210
aI509394947
aI525865502
aI20275094
aI20811694
aI98927466
aI59157393
aI48615954
aI67135236
aI16368620
aI128323841
aI38859709
aI400783007
aI64908451
aasS'followers'
p4
(lp5
(lp6
L3231924888L
aL3233881253L
aI278606054
aL2889777647L
aL2482407307L
aI293063038
aI193756258
aI25038173
aI126416038
aI250317700
aL4037202616L
aI602321455
aI16139049
aI35784526
aL3684391577L
aL4024402228L
aI339673424
aI32501037
aI222812107
aI771962304
aI95273513
aI19355816
aI71325712
aI407982776
aI1234900130
aI228845995
aL3229434941L
aL3094652785L
aI386673439
aL3107317869L
aI254671145
aI14153106
aL2898526274L
aL3367902533L
aL2928796848L
aI79547213
aL2223552085L
aI960747870
aI39842218
aI396294440
aL2236152487L
aI57326684
aI478902310
aI274233761
aI42403787
aI1898382380
aL2300258166L
aI311099164
aI14104847
aI342376519
aL2987202453L
aL2899666071L
aL3092047397L
aI13649002
aI953811583
aI1475745116
aI879161563
aI226010598
aI51548916
aL2650062139L
aL2385490910L
aI82151473
aL2520210456L
aI292098928
aI41290390
aL2810480733L
aI24959190
aI744650100
aI344752927
aI12787442
aL2596470522L
aL2722193379L
aL2755078432L
aI185728888
aI22172380
aI30820266
aI778792758
aI77910206
aI438699432
aI888903264
aI35400960
aI1670827172
aI1349920183
aI1581518347
aI171691486
aI19926983
aL2377459800L
aI769914362
aI1704701516
aI549641782
aI20275094
aI29755987
aI561161210
aI1267730028
aI1586921203
aI287465957
aI442879082
aI293618490
aI18771233
aI38859709
aI591417239
aI159119622
aI921330608
aI400783007
aI1323471396
aI1004846696
aI14870952
aI490426329
aI472840156
aI580921801
aI64908451
aasS'obj'
p7
ccopy_reg
_reconstructor
p8
(ctweepy.models
User
p9
c__builtin__
object
p10
Ntp11
Rp12
(dp13
S'follow_request_sent'
p14
I00
sS'has_extended_profile'
p15
I00
sS'profile_use_background_image'
p16
I01
sS'profile_sidebar_fill_color'
p17
VDDEEF6
p18
sS'id'
p19
I610454843
sS'verified'
p20
I00
sS'entities'
p21
(dp22
Vurl
p23
(dp24
Vurls
p25
(lp26
(dp27
g23
Vhttp://t.co/3LN6oiuJTJ
p28
sVindices
p29
(lp30
I0
aI22
asVexpanded_url
p31
Vhttp://www.globaltort.com
p32
sVdisplay_url
p33
Vglobaltort.com
p34
sassVdescription
p35
(dp36
g25
(lp37
(dp38
g23
Vhttp://t.co/YVCDWRMo2V
p39
sg29
(lp40
I132
aI154
asg31
Vhttp://Globaltort.com
p41
sg33
VGlobaltort.com
p42
sasssS'profile_image_url_https'
p43
Vhttps://pbs.twimg.com/profile_images/547261139076149248/TUrW1JaS_normal.jpeg
p44
sS'_json'
p45
(dp46
Vfollow_request_sent
p47
I00
sVhas_extended_profile
p48
I00
sVprofile_use_background_image
p49
I01
sVdefault_profile_image
p50
I00
sVid
p51
I610454843
sVprofile_background_image_url_https
p52
Vhttps://abs.twimg.com/images/themes/theme1/bg.png
p53
sVverified
p54
I00
sVprofile_text_color
p55
V333333
p56
sVprofile_image_url_https
p57
g44
sVprofile_sidebar_fill_color
p58
g18
sVentities
p59
g22
sVfollowers_count
p60
I111
sVprofile_sidebar_border_color
p61
VC0DEED
p62
sVid_str
p63
V610454843
p64
sVprofile_background_color
p65
VC0DEED
p66
sVlisted_count
p67
I14
sVstatus
p68
(dp69
Vcontributors
p70
NsVtruncated
p71
I00
sVtext
p72
VPictures of now hidden rooms in Chicago's Union Station. Imagine ...... Kudos to Hinz and team https://t.co/QRQ3NIwnv3 via @crainschicago
p73
sVin_reply_to_status_id
p74
Nsg51
L666465353388675072L
sVfavorite_count
p75
I0
sVsource
p76
V<a href="http://twitter.com" rel="nofollow">Twitter Web Client</a>
p77
sVretweeted
p78
I00
sVcoordinates
p79
Nsg59
(dp80
Vsymbols
p81
(lp82
sVuser_mentions
p83
(lp84
(dp85
g51
I18148466
sg29
(lp86
I123
aI137
asg63
V18148466
p87
sVscreen_name
p88
VCrainsChicago
p89
sVname
p90
VCrain's Chicago
p91
sasVhashtags
p92
(lp93
sg25
(lp94
(dp95
g23
Vhttps://t.co/QRQ3NIwnv3
p96
sg29
(lp97
I95
aI118
asg31
Vhttps://shar.es/15Vkah
p98
sg33
Vshar.es/15Vkah
p99
sassVin_reply_to_screen_name
p100
Nsg63
V666465353388675072
p101
sVretweet_count
p102
I0
sVin_reply_to_user_id
p103
NsVfavorited
p104
I00
sVgeo
p105
NsVin_reply_to_user_id_str
p106
NsVpossibly_sensitive
p107
I00
sVlang
p108
Ven
p109
sVcreated_at
p110
VTue Nov 17 03:58:17 +0000 2015
p111
sVin_reply_to_status_id_str
p112
NsVplace
p113
NssVis_translation_enabled
p114
I00
sVutc_offset
p115
I-18000
sVstatuses_count
p116
I1222
sg35
VToxic tort lawyer working at the science and law intersection; two great daughters, and love scuba, golf, gardening, and writing at http://t.co/YVCDWRMo2V
p117
sVfriends_count
p118
I274
sVlocation
p119
VChicago
p120
sVprofile_link_color
p121
V0084B4
p122
sVprofile_image_url
p123
Vhttp://pbs.twimg.com/profile_images/547261139076149248/TUrW1JaS_normal.jpeg
p124
sVfollowing
p125
I00
sVgeo_enabled
p126
I01
sVprofile_background_image_url
p127
Vhttp://abs.twimg.com/images/themes/theme1/bg.png
p128
sg88
Vkirklsp
p129
sg108
Ven
p130
sVprofile_background_tile
p131
I00
sVfavourites_count
p132
I1037
sg90
VKirk Hartley
p133
sVnotifications
p134
I00
sg23
Vhttp://t.co/3LN6oiuJTJ
p135
sg110
VSun Jun 17 02:54:43 +0000 2012
p136
sVcontributors_enabled
p137
I00
sVtime_zone
p138
VEastern Time (US & Canada)
p139
sVprotected
p140
I00
sVdefault_profile
p141
I01
sVis_translator
p142
I00
ssS'contributors_enabled'
p143
I00
sS'profile_text_color'
p144
g56
sS'followers_count'
p145
I111
sS'profile_sidebar_border_color'
p146
g62
sS'id_str'
p147
g64
sS'default_profile_image'
p148
I00
sS'listed_count'
p149
I14
sS'status'
p150
g8
(ctweepy.models
Status
p151
g10
Ntp152
Rp153
(dp154
S'favorited'
p155
I00
sS'contributors'
p156
NsS'truncated'
p157
I00
sS'text'
p158
g73
sS'source_url'
p159
Vhttp://twitter.com
p160
sS'possibly_sensitive'
p161
I00
sS'in_reply_to_status_id'
p162
NsS'geo'
p163
Nsg19
L666465353388675072L
sS'favorite_count'
p164
I0
sS'lang'
p165
g109
sg21
g80
sS'created_at'
p166
cdatetime
datetime
p167
(S'\x07\xdf\x0b\x11\x03:\x11\x00\x00\x00'
p168
tp169
Rp170
sg45
g69
sS'coordinates'
p171
NsS'in_reply_to_user_id_str'
p172
NsS'source'
p173
VTwitter Web Client
p174
sS'in_reply_to_status_id_str'
p175
NsS'in_reply_to_screen_name'
p176
Nsg147
g101
sS'retweeted'
p177
I00
sS'place'
p178
NsS'retweet_count'
p179
I0
sS'in_reply_to_user_id'
p180
NsbsS'is_translation_enabled'
p181
I00
sS'utc_offset'
p182
I-18000
sS'statuses_count'
p183
I1222
sS'description'
p184
g117
sS'friends_count'
p185
I274
sS'location'
p186
g120
sS'profile_link_color'
p187
g122
sS'profile_image_url'
p188
g124
sS'notifications'
p189
I00
sS'geo_enabled'
p190
I01
sS'profile_background_color'
p191
g66
sS'profile_background_image_url'
p192
g128
sS'screen_name'
p193
g129
sg165
g130
sg1
I00
sS'profile_background_tile'
p194
I00
sS'favourites_count'
p195
I1037
sS'name'
p196
g133
sS'url'
p197
g135
sg166
g167
(S'\x07\xdc\x06\x11\x026+\x00\x00\x00'
p198
tp199
Rp200
sS'profile_background_image_url_https'
p201
g53
sS'time_zone'
p202
g139
sS'protected'
p203
I00
sS'default_profile'
p204
I01
sS'is_translator'
p205
I00
sbs.