(dp0
S'following'
p1
(lp2
(lp3
L2662031333L
aL2482153424L
aI51912109
aL2338557668L
aL3232061137L
aI76966092
aI365864534
aI564964181
aI36221607
aI1473563539
aI45115075
aL3065473699L
aI23074277
aL3118326603L
aL2888048134L
aL3087477273L
aL2171294112L
aI1308512629
aI118278429
aL2556602405L
aI305931207
aL2364889134L
aL2878778492L
aI43554881
aI34869402
aL2731989089L
aL2826829364L
aL2409330439L
aI625680149
aI25212511
aI95345829
aL2962233953L
aI499848146
aI1923879936
aI125637380
aI1657888705
aL2186813068L
aL2910356904L
aL2362840470L
aI81093825
aI142863244
aL2412520862L
aI414904961
aI964377397
aI716233985
aI626836550
aL2440753004L
aL2893011991L
aI75297153
aL2591860116L
aI552131179
aL2752524304L
aL2151395848L
aI996051864
aI551462946
aI96682182
aL2910511506L
aI250317700
aI1076916151
aI1092305288
aL2187356088L
aL2334614718L
aL2804263123L
aI1098307922
aL2697028960L
aI197509837
aI632341632
aL2534761215L
aL2172423304L
aL2161913370L
aL2780766853L
aL2800760610L
aI963181812
aI170428232
aI237591901
aI1306003812
aI966726223
aI59853587
aI81157050
aI11247222
aI23390520
aI236953420
aI168679374
aI486139568
aI884935388
aI955733059
aI172023851
aI102819479
aI31546412
aI62562916
aI464994347
aI19636948
aasS'followers'
p4
(lp5
(lp6
I517392967
aI32135630
aL4014400402L
aI1115940860
aL3618352157L
aI554290220
aL2956770017L
aL3311497333L
aL3064606339L
aL4019793562L
aL3028160926L
aL3514200808L
aI250317700
aI26810321
aL3753511755L
aL2463277092L
aI15897179
aI902139157
aL3394740286L
aL3182720419L
aL3345276202L
aL3284001350L
aI258462194
aL2886097756L
aI1228116126
aL3225593376L
aL2981421573L
aI363768640
aL2888684238L
aL2602136161L
aL2886873157L
aL2584877251L
aI142863244
aI81876691
aI742848162
aL2883181229L
aI23320177
aI1058517072
aI512395960
aL2956504887L
aI280042241
aL2482153424L
aI190777222
aL3065473699L
aI113281232
aL2857164193L
aL3118141071L
aL3143289078L
aL3118326603L
aI578077682
aL2360095705L
aL3058966145L
aL2888048134L
aI338543800
aI1444614408
aI21309607
aI426303973
aL3087477273L
aL2363006780L
aI26823787
aL3062992753L
aL2993289950L
aL3065591250L
aL2610350617L
aI16857735
aL3001315609L
aL3068293059L
aL3028524569L
aI1456956342
aI312471892
aL2316310555L
aI385252238
aI129885693
aI14228535
aI305931207
aI96697770
aI557168759
aI607638633
aL2768428199L
aL2364889134L
aL2878778492L
aI43554881
aI34869402
aI611817117
aL2826829364L
aL2376070188L
aI25212511
aI499848146
aL2983471170L
aI37998370
aI95345829
aI716879264
aI1710459800
aL2962233953L
aI1923879936
aI81093825
aI125637380
aL2362840470L
aI1657888705
aL2186813068L
aL2440753004L
aL2893011991L
aL2910511506L
aL2187356088L
aL2830903194L
aL2172423304L
aL2780766853L
aL2800760610L
aI1519572230
aI775092691
aI24830678
aI464994347
aI633386123
aasS'obj'
p7
ccopy_reg
_reconstructor
p8
(ctweepy.models
User
p9
c__builtin__
object
p10
Ntp11
Rp12
(dp13
S'follow_request_sent'
p14
I00
sS'has_extended_profile'
p15
I00
sS'profile_use_background_image'
p16
I01
sS'profile_sidebar_fill_color'
p17
VDDEEF6
p18
sS'id'
p19
I634020001
sS'verified'
p20
I00
sS'entities'
p21
(dp22
Vdescription
p23
(dp24
Vurls
p25
(lp26
sssS'profile_image_url_https'
p27
Vhttps://pbs.twimg.com/profile_images/2395914695/0zffar8mr5iuh09qbnb0_normal.jpeg
p28
sS'_json'
p29
(dp30
Vfollow_request_sent
p31
I00
sVhas_extended_profile
p32
I00
sVprofile_use_background_image
p33
I01
sVdefault_profile_image
p34
I00
sVid
p35
I634020001
sVprofile_background_image_url_https
p36
Vhttps://abs.twimg.com/images/themes/theme1/bg.png
p37
sVverified
p38
I00
sVprofile_text_color
p39
V333333
p40
sVprofile_image_url_https
p41
g28
sVprofile_sidebar_fill_color
p42
g18
sVentities
p43
g22
sVfollowers_count
p44
I113
sVprofile_sidebar_border_color
p45
VC0DEED
p46
sVid_str
p47
V634020001
p48
sVprofile_background_color
p49
VC0DEED
p50
sVlisted_count
p51
I6
sVstatus
p52
(dp53
Vcontributors
p54
NsVtruncated
p55
I00
sVtext
p56
VRT @barrymohan81: Traded $UVXY $VRX $FIT $CLVS $CXRX $RLYP $HIMX $JNUG $STRP $CELG $EROS $BLUE $CHTR  #ICEMAN
p57
sVin_reply_to_status_id
p58
Nsg35
L666378364807159808L
sVfavorite_count
p59
I0
sVsource
p60
V<a href="http://twitter.com" rel="nofollow">Twitter Web Client</a>
p61
sVretweeted
p62
I00
sVcoordinates
p63
Nsg43
(dp64
Vsymbols
p65
(lp66
(dp67
Vindices
p68
(lp69
I25
aI30
asg56
VUVXY
p70
sa(dp71
g68
(lp72
I31
aI35
asg56
VVRX
p73
sa(dp74
g68
(lp75
I36
aI40
asg56
VFIT
p76
sa(dp77
g68
(lp78
I41
aI46
asg56
VCLVS
p79
sa(dp80
g68
(lp81
I47
aI52
asg56
VCXRX
p82
sa(dp83
g68
(lp84
I53
aI58
asg56
VRLYP
p85
sa(dp86
g68
(lp87
I59
aI64
asg56
VHIMX
p88
sa(dp89
g68
(lp90
I65
aI70
asg56
VJNUG
p91
sa(dp92
g68
(lp93
I71
aI76
asg56
VSTRP
p94
sa(dp95
g68
(lp96
I77
aI82
asg56
VCELG
p97
sa(dp98
g68
(lp99
I83
aI88
asg56
VEROS
p100
sa(dp101
g68
(lp102
I89
aI94
asg56
VBLUE
p103
sa(dp104
g68
(lp105
I95
aI100
asg56
VCHTR
p106
sasVuser_mentions
p107
(lp108
(dp109
g35
L2186813068L
sg68
(lp110
I3
aI16
asg47
V2186813068
p111
sVscreen_name
p112
Vbarrymohan81
p113
sVname
p114
VBarry M
p115
sasVhashtags
p116
(lp117
(dp118
g68
(lp119
I102
aI109
asg56
VICEMAN
p120
sasg25
(lp121
ssVin_reply_to_screen_name
p122
Nsg47
V666378364807159808
p123
sVretweet_count
p124
I3
sVin_reply_to_user_id
p125
NsVfavorited
p126
I00
sVretweeted_status
p127
(dp128
Vlang
p129
Vde
p130
sg126
I00
sg43
(dp131
g65
(lp132
(dp133
g68
(lp134
I7
aI12
asg56
VUVXY
p135
sa(dp136
g68
(lp137
I13
aI17
asg56
VVRX
p138
sa(dp139
g68
(lp140
I18
aI22
asg56
VFIT
p141
sa(dp142
g68
(lp143
I23
aI28
asg56
VCLVS
p144
sa(dp145
g68
(lp146
I29
aI34
asg56
VCXRX
p147
sa(dp148
g68
(lp149
I35
aI40
asg56
VRLYP
p150
sa(dp151
g68
(lp152
I41
aI46
asg56
VHIMX
p153
sa(dp154
g68
(lp155
I47
aI52
asg56
VJNUG
p156
sa(dp157
g68
(lp158
I53
aI58
asg56
VSTRP
p159
sa(dp160
g68
(lp161
I59
aI64
asg56
VCELG
p162
sa(dp163
g68
(lp164
I65
aI70
asg56
VEROS
p165
sa(dp166
g68
(lp167
I71
aI76
asg56
VBLUE
p168
sa(dp169
g68
(lp170
I77
aI82
asg56
VCHTR
p171
sasg107
(lp172
sg116
(lp173
(dp174
g68
(lp175
I84
aI91
asg56
VICEMAN
p176
sasg25
(lp177
ssg54
Nsg55
I00
sg56
VTraded $UVXY $VRX $FIT $CLVS $CXRX $RLYP $HIMX $JNUG $STRP $CELG $EROS $BLUE $CHTR  #ICEMAN
p178
sVcreated_at
p179
VMon Nov 16 21:02:36 +0000 2015
p180
sg62
I00
sVin_reply_to_status_id_str
p181
Nsg63
NsVin_reply_to_user_id_str
p182
Nsg60
V<a href="http://twitter.com/download/iphone" rel="nofollow">Twitter for iPhone</a>
p183
sg58
Nsg122
Nsg47
V666360744326397952
p184
sVplace
p185
Nsg124
I3
sVgeo
p186
Nsg35
L666360744326397952L
sg59
I3
sg125
Nssg186
Nsg182
Nsg129
Vde
p187
sg179
VMon Nov 16 22:12:37 +0000 2015
p188
sg181
Nsg185
NssVis_translation_enabled
p189
I00
sVutc_offset
p190
NsVstatuses_count
p191
I396
sg23
V
p192
sVfriends_count
p193
I92
sVlocation
p194
g192
sVprofile_link_color
p195
V0084B4
p196
sVprofile_image_url
p197
Vhttp://pbs.twimg.com/profile_images/2395914695/0zffar8mr5iuh09qbnb0_normal.jpeg
p198
sVfollowing
p199
I00
sVgeo_enabled
p200
I00
sVprofile_background_image_url
p201
Vhttp://abs.twimg.com/images/themes/theme1/bg.png
p202
sg112
Vgsmokez91
p203
sg129
Ven
p204
sVprofile_background_tile
p205
I00
sVfavourites_count
p206
I385
sg114
VGnanesh Para
p207
sVnotifications
p208
I00
sVurl
p209
Nsg179
VThu Jul 12 20:17:17 +0000 2012
p210
sVcontributors_enabled
p211
I00
sVtime_zone
p212
NsVprotected
p213
I00
sVdefault_profile
p214
I01
sVis_translator
p215
I00
ssS'contributors_enabled'
p216
I00
sS'profile_text_color'
p217
g40
sS'followers_count'
p218
I113
sS'profile_sidebar_border_color'
p219
g46
sS'id_str'
p220
g48
sS'default_profile_image'
p221
I00
sS'listed_count'
p222
I6
sS'status'
p223
g8
(ctweepy.models
Status
p224
g10
Ntp225
Rp226
(dp227
S'favorited'
p228
I00
sS'contributors'
p229
NsS'truncated'
p230
I00
sS'text'
p231
g57
sS'source_url'
p232
Vhttp://twitter.com
p233
sS'in_reply_to_status_id'
p234
NsS'geo'
p235
Nsg19
L666378364807159808L
sS'favorite_count'
p236
I0
sS'lang'
p237
g187
sS'retweeted_status'
p238
g8
(g224
g10
Ntp239
Rp240
(dp241
g228
I00
sg229
Nsg230
I00
sg231
g178
sg232
Vhttp://twitter.com/download/iphone
p242
sg234
Nsg235
Nsg19
L666360744326397952L
sg236
I3
sg237
g130
sg21
g131
sS'created_at'
p243
cdatetime
datetime
p244
(S'\x07\xdf\x0b\x10\x15\x02$\x00\x00\x00'
p245
tp246
Rp247
sg29
g128
sS'coordinates'
p248
NsS'in_reply_to_user_id_str'
p249
NsS'source'
p250
VTwitter for iPhone
p251
sS'in_reply_to_status_id_str'
p252
NsS'in_reply_to_screen_name'
p253
Nsg220
g184
sS'retweeted'
p254
I00
sS'place'
p255
NsS'retweet_count'
p256
I3
sS'in_reply_to_user_id'
p257
Nsbsg21
g64
sg243
g244
(S'\x07\xdf\x0b\x10\x16\x0c%\x00\x00\x00'
p258
tp259
Rp260
sg29
g53
sg248
Nsg249
Nsg250
VTwitter Web Client
p261
sg252
Nsg253
Nsg220
g123
sg254
I00
sg255
Nsg256
I3
sg257
NsbsS'is_translation_enabled'
p262
I00
sS'utc_offset'
p263
NsS'statuses_count'
p264
I396
sS'description'
p265
g192
sS'friends_count'
p266
I92
sS'location'
p267
g192
sS'profile_link_color'
p268
g196
sS'profile_image_url'
p269
g198
sS'notifications'
p270
I00
sS'geo_enabled'
p271
I00
sS'profile_background_color'
p272
g50
sS'profile_background_image_url'
p273
g202
sS'screen_name'
p274
g203
sg237
g204
sg1
I00
sS'profile_background_tile'
p275
I00
sS'favourites_count'
p276
I385
sS'name'
p277
g207
sS'url'
p278
Nsg243
g244
(S'\x07\xdc\x07\x0c\x14\x11\x11\x00\x00\x00'
p279
tp280
Rp281
sS'profile_background_image_url_https'
p282
g37
sS'time_zone'
p283
NsS'protected'
p284
I00
sS'default_profile'
p285
I01
sS'is_translator'
p286
I00
sbs.