(dp0
S'following'
p1
(lp2
(lp3
I199247233
aI28494155
aI352708644
aI24532904
aI243659351
aL3853477573L
aL2964351843L
aI813286
aI28177043
aI21119272
aI337853585
aL2383100191L
aI827364816
aI29442313
aL3223556041L
aL3282566394L
aI29300352
aI26574283
aL3226470553L
aL3105065684L
aI242482017
aL3103918915L
aI434545375
aL3025941941L
aI43775786
aI18707907
aI127726547
aI890891
aI299938132
aL2566466744L
aI16560705
aI20279424
aI66844489
aI204832963
aI5988062
aL2282567388L
aI55080293
aI139162440
aI14075928
aI313022235
aL2363575772L
aI49751516
aI23059499
aI781237837
aI27071443
aI235548686
aI15736490
aI325229087
aL2223317310L
aI544788988
aI629642240
aL2178155011L
aI1301213238
aI1893985632
aI1893936032
aI1828233288
aI1496203854
aI1454121074
aI1249032410
aI211787112
aI1382133858
aI1138555735
aI32110862
aI178947275
aI900740238
aI15436794
aI850431836
aI739475959
aI179156562
aI20402945
aI60771737
aI96821645
aI17590505
aI599222107
aI611935480
aI131853207
aI43031296
aI169581842
aI89685575
aI145749056
aI44166798
aI555626415
aI553812661
aI139123753
aI511201384
aI18139461
aI489567148
aI480444654
aI68860774
aI397701987
aI38438875
aI3108351
aI71801957
aI95431448
aI412710268
aI46004234
aI11866582
aI255282399
aI358495242
aI213297924
aI22993662
aI22084427
aI42405873
aI40918816
aI68776935
aI286824375
aI31126587
aI22707255
aI224808296
aI19307427
aI258404983
aI19120850
aI147808431
aI230610688
aI93733494
aI16590047
aI164883034
aI142936740
aI23615985
aI26998990
aI152376148
aI23723263
aI30777451
aI95998351
aI65271387
aI63532547
aI807095
aI57744048
aI17000333
aI15163577
aI20946132
aI23530526
aI51188290
aI15293774
aI17675877
aI39857186
aasS'followers'
p4
(lp5
(lp6
I28494155
aL3311051917L
aL2743257077L
aL3192544504L
aI210735868
aL3650123114L
aI342234549
aI569683254
aL3025941941L
aI25162823
aI622584951
aI827364816
aI83962281
aL3318225205L
aL3426364119L
aL3189193172L
aL3223556041L
aL3388100200L
aL3282566394L
aI620510503
aI422030037
aL3093978199L
aL3226470553L
aL3105065684L
aI468028173
aI242482017
aL3251729309L
aL3242359193L
aL3151988426L
aL3135794362L
aI595762012
aL2985882035L
aI339326574
aL2687793667L
aI175988155
aL2981979136L
aI129852858
aL2863396902L
aL2762632653L
aL2566466744L
aL2280276376L
aI16560705
aL2780692328L
aL2547012002L
aI131853207
aI509194662
aL2494952052L
aI260570640
aI544788988
aI329012783
aI50638805
aL2421217394L
aI313022235
aL2363575772L
aL2258441544L
aI703661459
aI155614437
aI1349826398
aI90644989
aI15736490
aI979207812
aI1855998469
aI55080293
aI35589692
aL2178155011L
aI566797934
aI143666718
aI629642240
aI1301213238
aI1607031996
aI224383754
aI72391808
aI921917258
aI1893985632
aI1893936032
aI1828233288
aI757800972
aI514722624
aI1496203854
aI158237818
aI1431492876
aI1454121074
aI1249032410
aI15436794
aI1382133858
aI840647239
aI68394259
aI1112362056
aI998020428
aI314160755
aI1138555735
aI120543209
aI42223225
aI1052890046
aI570285966
aI23092953
aI95998351
aI178947275
aI922236404
aI900740238
aI781237837
aI35424395
aI850431836
aI739475959
aI356919876
aI179156562
aI60771737
aI635441081
aI360727882
aI611935480
aI611791581
aI599222107
aI203215678
aI145749056
aI555626415
aI556905988
aI553812661
aI89685575
aI275954872
aI139123753
aI526831035
aI121853078
aI37253563
aI480444654
aI248389878
aI511201384
aI459635169
aI18658095
aI340634382
aI489567148
aI397701987
aI60715474
aI484170672
aI22993662
aI38438875
aI241977845
aI403669001
aI71801957
aI376287172
aI46004234
aI412710268
aI190209604
aI53096959
aI188496964
aI219342908
aI219362945
aI213297924
aI17065602
aI366142590
aI358495242
aI118514750
aI337877925
aI299938132
aI97621484
aI16571353
aI68776935
aI282544053
aI286824375
aI22729905
aI15559874
aI22682062
aI224808296
aI20159758
aI19307427
aI22707255
aI235548686
aI84343936
aI142936740
aI19958746
aI258404983
aI19120850
aI183645001
aI19625805
aI190483329
aI238586946
aI27515738
aI230610688
aI16590047
aI164883034
aI23615985
aI15670342
aI224033764
aI24907898
aI152376148
aI43031296
aI23723263
aI184555374
aI91945249
aI30777451
aI127587952
aI145340692
aI89701805
aI129422133
aI115480357
aI14260146
aI17654913
aI30574949
aI119821251
aI111093574
aI65271387
aI18058955
aI99138440
aI20048798
aI57744048
aI15163577
aI33446524
aI51188290
aI20946132
aI23530526
aI63532547
aI15293774
aI17675877
aasS'obj'
p7
ccopy_reg
_reconstructor
p8
(ctweepy.models
User
p9
c__builtin__
object
p10
Ntp11
Rp12
(dp13
S'follow_request_sent'
p14
NsS'has_extended_profile'
p15
I00
sS'profile_use_background_image'
p16
I01
sS'profile_sidebar_fill_color'
p17
VC0DFEC
p18
sS'id'
p19
I64193232
sS'verified'
p20
I00
sS'entities'
p21
(dp22
Vdescription
p23
(dp24
Vurls
p25
(lp26
sssS'profile_image_url_https'
p27
Vhttps://pbs.twimg.com/profile_images/2684814789/13972e1fa64057336c817a048e0c215c_normal.jpeg
p28
sS'_json'
p29
(dp30
Vfollow_request_sent
p31
NsVhas_extended_profile
p32
I00
sVprofile_use_background_image
p33
I01
sVdefault_profile_image
p34
I00
sVid
p35
I64193232
sVprofile_background_image_url_https
p36
Vhttps://abs.twimg.com/images/themes/theme15/bg.png
p37
sVverified
p38
I00
sVprofile_text_color
p39
V333333
p40
sVprofile_image_url_https
p41
g28
sVprofile_sidebar_fill_color
p42
g18
sVentities
p43
g22
sVfollowers_count
p44
I212
sVprofile_sidebar_border_color
p45
VA8C7F7
p46
sVid_str
p47
V64193232
p48
sVprofile_background_color
p49
V022330
p50
sVlisted_count
p51
I8
sVstatus
p52
(dp53
Vcontributors
p54
NsVtruncated
p55
I00
sVtext
p56
VRT @stoolpresidente: RT @JoeMcGrath89: @stoolpresidente @FeitsBarstool game winning FG and Brady hugging everyone https://t.co/39Dbj5TKFm
p57
sVin_reply_to_status_id
p58
Nsg35
L666066352935825408L
sVfavorite_count
p59
I0
sVsource
p60
V<a href="http://twitter.com/download/android" rel="nofollow">Twitter for Android</a>
p61
sVretweeted
p62
I00
sVcoordinates
p63
Nsg43
(dp64
Vsymbols
p65
(lp66
sVuser_mentions
p67
(lp68
(dp69
g35
I43775786
sVindices
p70
(lp71
I3
aI19
asg47
V43775786
p72
sVscreen_name
p73
Vstoolpresidente
p74
sVname
p75
VDavid Portnoy
p76
sa(dp77
g35
I29055482
sg70
(lp78
I24
aI37
asg47
V29055482
p79
sg73
VJoeMcGrath89
p80
sg75
VJoe Mac
p81
sa(dp82
g35
I43775786
sg70
(lp83
I39
aI55
asg47
V43775786
p84
sg73
Vstoolpresidente
p85
sg75
VDavid Portnoy
p86
sa(dp87
g35
I186320027
sg70
(lp88
I56
aI70
asg47
V186320027
p89
sg73
VFeitsBarstool
p90
sg75
VFeitelberg
p91
sasVhashtags
p92
(lp93
sg25
(lp94
sVmedia
p95
(lp96
(dp97
Vsource_user_id
p98
I29055482
sVsource_status_id_str
p99
V666063928359673856
p100
sVexpanded_url
p101
Vhttp://twitter.com/JoeMcGrath89/status/666063928359673856/video/1
p102
sVdisplay_url
p103
Vpic.twitter.com/39Dbj5TKFm
p104
sVurl
p105
Vhttps://t.co/39Dbj5TKFm
p106
sVmedia_url_https
p107
Vhttps://pbs.twimg.com/ext_tw_video_thumb/666063712822804480/pu/img/QYDFq6GMx-HEp1mJ.jpg
p108
sVsource_user_id_str
p109
V29055482
p110
sVsource_status_id
p111
L666063928359673856L
sg47
V666063712822804480
p112
sVsizes
p113
(dp114
Vsmall
p115
(dp116
Vh
p117
I191
sVresize
p118
Vfit
p119
sVw
p120
I340
ssVlarge
p121
(dp122
g117
I576
sg118
Vfit
p123
sg120
I1024
ssVmedium
p124
(dp125
g117
I338
sg118
Vfit
p126
sg120
I600
ssVthumb
p127
(dp128
g117
I150
sg118
Vcrop
p129
sg120
I150
sssg70
(lp130
I114
aI137
asVtype
p131
Vphoto
p132
sg35
L666063712822804480L
sVmedia_url
p133
Vhttp://pbs.twimg.com/ext_tw_video_thumb/666063712822804480/pu/img/QYDFq6GMx-HEp1mJ.jpg
p134
sassVin_reply_to_screen_name
p135
Nsg47
V666066352935825408
p136
sVretweet_count
p137
I316
sVin_reply_to_user_id
p138
NsVfavorited
p139
I00
sVretweeted_status
p140
(dp141
g54
Nsg55
I00
sg56
VRT @JoeMcGrath89: @stoolpresidente @FeitsBarstool game winning FG and Brady hugging everyone https://t.co/39Dbj5TKFm
p142
sg58
Nsg35
L666065340003127296L
sg59
I496
sg60
V<a href="http://www.hootsuite.com" rel="nofollow">Hootsuite</a>
p143
sg62
I00
sg63
Nsg43
(dp144
g65
(lp145
sg67
(lp146
(dp147
g35
I29055482
sg70
(lp148
I3
aI16
asg47
V29055482
p149
sg73
VJoeMcGrath89
p150
sg75
VJoe Mac
p151
sa(dp152
g35
I43775786
sg70
(lp153
I18
aI34
asg47
V43775786
p154
sg73
Vstoolpresidente
p155
sg75
VDavid Portnoy
p156
sa(dp157
g35
I186320027
sg70
(lp158
I35
aI49
asg47
V186320027
p159
sg73
VFeitsBarstool
p160
sg75
VFeitelberg
p161
sasg92
(lp162
sg25
(lp163
sg95
(lp164
(dp165
g98
I29055482
sg99
V666063928359673856
p166
sg101
Vhttp://twitter.com/JoeMcGrath89/status/666063928359673856/video/1
p167
sg103
Vpic.twitter.com/39Dbj5TKFm
p168
sg105
Vhttps://t.co/39Dbj5TKFm
p169
sg107
Vhttps://pbs.twimg.com/ext_tw_video_thumb/666063712822804480/pu/img/QYDFq6GMx-HEp1mJ.jpg
p170
sg109
V29055482
p171
sg111
L666063928359673856L
sg47
V666063712822804480
p172
sg113
(dp173
g115
(dp174
g117
I191
sg118
Vfit
p175
sg120
I340
ssg121
(dp176
g117
I576
sg118
Vfit
p177
sg120
I1024
ssg124
(dp178
g117
I338
sg118
Vfit
p179
sg120
I600
ssg127
(dp180
g117
I150
sg118
Vcrop
p181
sg120
I150
sssg70
(lp182
I93
aI116
asg131
Vphoto
p183
sg35
L666063712822804480L
sg133
Vhttp://pbs.twimg.com/ext_tw_video_thumb/666063712822804480/pu/img/QYDFq6GMx-HEp1mJ.jpg
p184
sassg135
Nsg47
V666065340003127296
p185
sg137
I316
sg138
Nsg139
I00
sVgeo
p186
NsVin_reply_to_user_id_str
p187
NsVpossibly_sensitive
p188
I00
sVlang
p189
Ven
p190
sVcreated_at
p191
VMon Nov 16 01:28:46 +0000 2015
p192
sVin_reply_to_status_id_str
p193
NsVplace
p194
Nssg186
Nsg187
Nsg188
I00
sg189
Ven
p195
sg191
VMon Nov 16 01:32:48 +0000 2015
p196
sg193
Nsg194
NssVis_translation_enabled
p197
I00
sVutc_offset
p198
I-21600
sVstatuses_count
p199
I4573
sg23
VNative #Chowd and #Boston sports freak. @MidtownBizAssoc #SocialMedia boss & Past-Prez. Fifteen Year Financial Advisor. WARNING: I brag on my family a lot.
p200
sVfriends_count
p201
I136
sVlocation
p202
V#Dundee - #Omaha
p203
sVprofile_link_color
p204
V0084B4
p205
sVprofile_image_url
p206
Vhttp://pbs.twimg.com/profile_images/2684814789/13972e1fa64057336c817a048e0c215c_normal.jpeg
p207
sVfollowing
p208
NsVgeo_enabled
p209
I00
sVprofile_banner_url
p210
Vhttps://pbs.twimg.com/profile_banners/64193232/1434381948
p211
sVprofile_background_image_url
p212
Vhttp://abs.twimg.com/images/themes/theme15/bg.png
p213
sg73
Vkilromaha
p214
sg189
Ven
p215
sVprofile_background_tile
p216
I00
sVfavourites_count
p217
I1180
sg75
VSup Kid
p218
sVnotifications
p219
Nsg105
Nsg191
VSun Aug 09 15:33:27 +0000 2009
p220
sVcontributors_enabled
p221
I00
sVtime_zone
p222
VCentral Time (US & Canada)
p223
sVprotected
p224
I00
sVdefault_profile
p225
I00
sVis_translator
p226
I00
ssS'contributors_enabled'
p227
I00
sS'profile_text_color'
p228
g40
sS'followers_count'
p229
I212
sS'profile_sidebar_border_color'
p230
g46
sS'id_str'
p231
g48
sS'default_profile_image'
p232
I00
sS'listed_count'
p233
I8
sS'status'
p234
g8
(ctweepy.models
Status
p235
g10
Ntp236
Rp237
(dp238
S'favorited'
p239
I00
sS'contributors'
p240
NsS'truncated'
p241
I00
sS'text'
p242
g57
sS'source_url'
p243
Vhttp://twitter.com/download/android
p244
sS'possibly_sensitive'
p245
I00
sS'in_reply_to_status_id'
p246
NsS'geo'
p247
Nsg19
L666066352935825408L
sS'favorite_count'
p248
I0
sS'lang'
p249
g195
sS'retweeted_status'
p250
g8
(g235
g10
Ntp251
Rp252
(dp253
g239
I00
sg240
Nsg241
I00
sg242
g142
sg243
Vhttp://www.hootsuite.com
p254
sg245
I00
sg246
Nsg247
Nsg19
L666065340003127296L
sg248
I496
sg249
g190
sg21
g144
sS'created_at'
p255
cdatetime
datetime
p256
(S'\x07\xdf\x0b\x10\x01\x1c.\x00\x00\x00'
p257
tp258
Rp259
sg29
g141
sS'coordinates'
p260
NsS'in_reply_to_user_id_str'
p261
NsS'source'
p262
VHootsuite
p263
sS'in_reply_to_status_id_str'
p264
NsS'in_reply_to_screen_name'
p265
Nsg231
g185
sS'retweeted'
p266
I00
sS'place'
p267
NsS'retweet_count'
p268
I316
sS'in_reply_to_user_id'
p269
Nsbsg21
g64
sg255
g256
(S'\x07\xdf\x0b\x10\x01 0\x00\x00\x00'
p270
tp271
Rp272
sg29
g53
sg260
Nsg261
Nsg262
VTwitter for Android
p273
sg264
Nsg265
Nsg231
g136
sg266
I00
sg267
Nsg268
I316
sg269
NsbsS'is_translation_enabled'
p274
I00
sS'utc_offset'
p275
I-21600
sS'statuses_count'
p276
I4573
sS'description'
p277
g200
sS'friends_count'
p278
I136
sS'location'
p279
g203
sS'profile_link_color'
p280
g205
sS'profile_image_url'
p281
g207
sS'notifications'
p282
NsS'geo_enabled'
p283
I00
sS'profile_background_color'
p284
g50
sS'profile_banner_url'
p285
g211
sS'profile_background_image_url'
p286
g213
sS'screen_name'
p287
g214
sg249
g215
sg1
I00
sS'profile_background_tile'
p288
I00
sS'favourites_count'
p289
I1180
sS'name'
p290
g218
sS'url'
p291
Nsg255
g256
(S'\x07\xd9\x08\t\x0f!\x1b\x00\x00\x00'
p292
tp293
Rp294
sS'profile_background_image_url_https'
p295
g37
sS'time_zone'
p296
g223
sS'protected'
p297
I00
sS'default_profile'
p298
I00
sS'is_translator'
p299
I00
sbs.