(dp0
S'following'
p1
(lp2
(lp3
L3096917148L
aL2838276994L
aL2300258166L
aL3426014292L
aI113152792
aI27984680
aL2482407307L
aL3405726916L
aI1093668242
aI1385478115
aI1945249706
aI234447350
aL2456883396L
aL2178857768L
aL3415870018L
aL2338675608L
aL3035804476L
aL2360471258L
aI163060897
aI15990144
aL3130855126L
aI865583305
aI1663011938
aL2231850896L
aI47114671
aI120578352
aL2903269091L
aI37831832
aI21388263
aI245069853
aL2389718366L
aI396294440
aI267490953
aL2573660582L
aL3073873055L
aL2233952215L
aI405681948
aI1387533103
aI59257180
aI427877977
aI104284098
aI102527566
aI602321455
aI112872946
aL2744869459L
aL3144063064L
aI867224497
aI1330741110
aI37918984
aL3090438176L
aI782030712
aI310869778
aL2698128151L
aL2913156844L
aI322975900
aI29751744
aI1621638852
aI314281991
aI1727297454
aL3026563894L
aI703556994
aL2934270659L
aI54622589
aI448461258
aL3191420998L
aI111029613
aI1689708391
aL2242914704L
aI244526641
aL2578783507L
aI709249044
aI507237717
aL2490441259L
aI243795494
aL2210173235L
aL2236152487L
aI87855228
aI171353487
aI229966745
aL2494896473L
aI32492934
aI1024291760
aI599344121
aI82162291
aI130198032
aI219501803
aI1013544132
aI58110945
aI372270512
aI103011458
aI59275074
aL2402332680L
aI101342511
aI137322271
aI169489285
aI75354209
aI23390520
aI166661213
aI1884013189
aI20903188
aI20850597
aI785935140
aL2417776760L
aL2906320110L
aI2136001
aI1370906497
aI328357469
aI58627048
aI368981875
aI17109575
aI842217085
aI24408359
aL2330647050L
aI888903264
aI41986404
aI737477204
aI237409428
aI552326867
aI552042812
aI820031509
aI194410037
aI361943494
aI348772885
aI1511620350
aI271918174
aI1679125610
aI732827046
aI409194010
aI254207829
aI1883496066
aI43475268
aI1645717729
aI837301315
aI190773758
aI243801041
aI1007564641
aI380500399
aI390450593
aI977194280
aI40909981
aI442298073
aI403730941
aI761840149
aI886709906
aI1498350660
aI50215368
aI575796665
aI554667907
aI455778551
aI779229188
aI166396386
aI319805791
aI632341632
aI344752927
aI52919240
aI38553634
aI58613100
aI14161399
aI20761791
aI206372778
aI531480389
aI881305597
aI275681725
aI52191442
aI152634265
aI210862918
aI822485018
aI62871181
aI887931745
aI470624127
aI44438256
aI1132786314
aI255996385
aI15470276
aI461607890
aI18091025
aI71542880
aI625910716
aI35789155
aI111054964
aI613010921
aI204564525
aI467796546
aI19717430
aI23009778
aI223589965
aI84312619
aI252877176
aI153957211
aI198301842
aI26817296
aI14213130
aI166711687
aI168186079
aI274233761
aI73712538
aI414147765
aI56486495
aI102094857
aI799658150
aasS'followers'
p4
(lp5
(lp6
I182538977
aL3019885627L
aL2203759645L
aL3023134047L
aI328653035
aI48486244
aI272972309
aL3262634978L
aL3319136443L
aI1904689014
aI42912883
aL2546978790L
aL3228716620L
aI1427023795
aI381031008
aI333398530
aI53879389
aL2897577710L
aL3256942986L
aI1738160136
aI364420979
aI834005522
aI10187342
aI21388263
aI434652333
aI316358140
aL2545325899L
aL3405726916L
aI250317700
aI267903650
aL2830974222L
aL3242216541L
aI19010961
aI100767876
aI48797303
aI9681052
aI1945249706
aL3611205735L
aI35326958
aL2366237078L
aL2456883396L
aI956212646
aL2178857768L
aI819667872
aL3435791579L
aI405681948
aL2898526274L
aI713866729
aL2602410457L
aL3394569273L
aI886503410
aL3250025611L
aI315541916
aI493804255
aI1530916794
aL2347709358L
aI244985375
aI971129101
aI1123508761
aI478902310
aL2612985061L
aI588482744
aI30436763
aI392891018
aI33931334
aI466171118
aL3229446201L
aI79547213
aL2236152487L
aI1233362096
aL2209481824L
aL3035804476L
aL2315376242L
aI361943494
aL2165676145L
aL3026563894L
aL2934270659L
aI703556994
aL3214765834L
aL2698128151L
aL3012561618L
aI16494381
aI1689708391
aI1713855912
aI24408359
aI221497409
aI566664798
aL2913156844L
aI105243866
aI303531344
aI137346360
aL3034687258L
aL2896401414L
aL2953965227L
aL2548536121L
aL3002853330L
aL2931136229L
aL2922234899L
aI16519380
aL2814053990L
aL2991212785L
aL2231517818L
aI198428734
aI219501803
aI1672127808
aL2803606619L
aI15897179
aI140588707
aL2967945348L
aL2838794376L
aI1648506408
aI101342511
aL2715674286L
aI368981875
aI1729094436
aL2906320110L
aL2250680802L
aI84312619
aL2917238896L
aI611817117
aI50463387
aI2136001
aL2555553103L
aI1101391634
aI842217085
aL2410962019L
aI1228578584
aI222078754
aI1623811824
aI1340428375
aL2191241907L
aI290198199
aL2820891938L
aL2761228604L
aI808928378
aI1914315978
aI17109575
aI557788373
aI495073584
aL2422488078L
aI1235303382
aL2434952982L
aI937363406
aI26469557
aI1511620350
aI1931600035
aI1616185404
aI383200350
aI245536856
aL2198352780L
aI433664446
aI407626807
aI54789776
aL2151588180L
aI834343296
aI632431183
aI1121057714
aI575796665
aL2162862396L
aI73712538
aI1967481739
aI453259861
aI23400557
aI510462487
aI491402571
aI181313797
aI615271782
aI837301315
aI15470276
aI112813663
aI1730494003
aI1137812742
aI512740282
aI211316225
aI284789052
aI454234766
aI390450593
aI27979167
aI1382781776
aI531525580
aI101956812
aI62477482
aI1498350660
aI102486563
aI493143506
aI52952569
aI495210766
aI554667907
aI455778551
aI779229188
aI319805791
aI138258799
aI916821680
aI38553634
aI575582187
aI50227506
aI881305597
aI52191442
aI887931745
aI467796546
aI1150121532
aI886709906
aI881799805
aI1009730785
aI344752927
aI359379636
aI206773656
aI88787331
aI23009778
aI253273390
aI104611058
aI544484168
aI404118960
aI26817296
aI38008025
aI799658150
aI160727195
aasS'obj'
p7
ccopy_reg
_reconstructor
p8
(ctweepy.models
User
p9
c__builtin__
object
p10
Ntp11
Rp12
(dp13
S'follow_request_sent'
p14
NsS'has_extended_profile'
p15
I00
sS'profile_use_background_image'
p16
I01
sS'profile_sidebar_fill_color'
p17
VDDEEF6
p18
sS'id'
p19
I707519282
sS'verified'
p20
I00
sS'entities'
p21
(dp22
Vdescription
p23
(dp24
Vurls
p25
(lp26
sssS'profile_image_url_https'
p27
Vhttps://pbs.twimg.com/profile_images/3752437147/e1b47bed8cd70d58be6c47196c83ffaf_normal.jpeg
p28
sS'_json'
p29
(dp30
Vfollow_request_sent
p31
NsVhas_extended_profile
p32
I00
sVprofile_use_background_image
p33
I01
sVdefault_profile_image
p34
I00
sVid
p35
I707519282
sVprofile_background_image_url_https
p36
Vhttps://abs.twimg.com/images/themes/theme1/bg.png
p37
sVverified
p38
I00
sVprofile_text_color
p39
V333333
p40
sVprofile_image_url_https
p41
g28
sVprofile_sidebar_fill_color
p42
g18
sVentities
p43
g22
sVfollowers_count
p44
I217
sVprofile_sidebar_border_color
p45
VC0DEED
p46
sVid_str
p47
V707519282
p48
sVprofile_background_color
p49
VC0DEED
p50
sVlisted_count
p51
I16
sVstatus
p52
(dp53
Vcontributors
p54
NsVtruncated
p55
I00
sVtext
p56
VRT @biostockfan: @srqstockpicker Baker Boys in $TRIL!! https://t.co/y4kZuGs4MZ
p57
sVin_reply_to_status_id
p58
Nsg35
L666363594527895556L
sVfavorite_count
p59
I0
sVsource
p60
V<a href="http://twitter.com" rel="nofollow">Twitter Web Client</a>
p61
sVretweeted
p62
I00
sVcoordinates
p63
Nsg43
(dp64
Vsymbols
p65
(lp66
(dp67
Vindices
p68
(lp69
I47
aI52
asg56
VTRIL
p70
sasVuser_mentions
p71
(lp72
(dp73
g35
L3816376277L
sg68
(lp74
I3
aI15
asg47
V3816376277
p75
sVscreen_name
p76
Vbiostockfan
p77
sVname
p78
VBiostockfan
p79
sa(dp80
g35
I30820266
sg68
(lp81
I17
aI32
asg47
V30820266
p82
sg76
Vsrqstockpicker
p83
sg78
VJoshua B
p84
sasVhashtags
p85
(lp86
sg25
(lp87
(dp88
Vurl
p89
Vhttps://t.co/y4kZuGs4MZ
p90
sg68
(lp91
I55
aI78
asVexpanded_url
p92
Vhttp://www.sec.gov/Archives/edgar/data/1263508/000114420415065993/xslForm13F_X01/infotable.xml
p93
sVdisplay_url
p94
Vsec.gov/Archives/edgar\u2026
p95
sassVin_reply_to_screen_name
p96
Nsg47
V666363594527895556
p97
sVretweet_count
p98
I1
sVin_reply_to_user_id
p99
NsVfavorited
p100
I00
sVretweeted_status
p101
(dp102
g54
Nsg55
I00
sg56
V@srqstockpicker Baker Boys in $TRIL!! https://t.co/y4kZuGs4MZ
p103
sg58
Nsg35
L666363395109748736L
sg59
I0
sg60
V<a href="http://twitter.com" rel="nofollow">Twitter Web Client</a>
p104
sg62
I00
sg63
Nsg43
(dp105
g65
(lp106
(dp107
g68
(lp108
I30
aI35
asg56
VTRIL
p109
sasg71
(lp110
(dp111
g35
I30820266
sg68
(lp112
I0
aI15
asg47
V30820266
p113
sg76
Vsrqstockpicker
p114
sg78
VJoshua B
p115
sasg85
(lp116
sg25
(lp117
(dp118
g89
Vhttps://t.co/y4kZuGs4MZ
p119
sg68
(lp120
I38
aI61
asg92
Vhttp://www.sec.gov/Archives/edgar/data/1263508/000114420415065993/xslForm13F_X01/infotable.xml
p121
sg94
Vsec.gov/Archives/edgar\u2026
p122
sassg96
Vsrqstockpicker
p123
sg47
V666363395109748736
p124
sg98
I1
sg99
I30820266
sg100
I00
sVgeo
p125
NsVin_reply_to_user_id_str
p126
V30820266
p127
sVpossibly_sensitive
p128
I00
sVlang
p129
Ven
p130
sVcreated_at
p131
VMon Nov 16 21:13:08 +0000 2015
p132
sVin_reply_to_status_id_str
p133
NsVplace
p134
Nssg125
Nsg126
Nsg128
I00
sg129
Ven
p135
sg131
VMon Nov 16 21:13:56 +0000 2015
p136
sg133
Nsg134
NssVis_translation_enabled
p137
I00
sVutc_offset
p138
NsVstatuses_count
p139
I7089
sg23
V
p140
sVfriends_count
p141
I200
sVlocation
p142
g140
sVprofile_link_color
p143
V0084B4
p144
sVprofile_image_url
p145
Vhttp://pbs.twimg.com/profile_images/3752437147/e1b47bed8cd70d58be6c47196c83ffaf_normal.jpeg
p146
sVfollowing
p147
NsVgeo_enabled
p148
I00
sVprofile_background_image_url
p149
Vhttp://abs.twimg.com/images/themes/theme1/bg.png
p150
sg76
Vzwerp2000
p151
sg129
Ven
p152
sVprofile_background_tile
p153
I00
sVfavourites_count
p154
I682
sg78
VJoe Smith
p155
sVnotifications
p156
Nsg89
Nsg131
VFri Jul 20 17:38:40 +0000 2012
p157
sVcontributors_enabled
p158
I00
sVtime_zone
p159
NsVprotected
p160
I00
sVdefault_profile
p161
I01
sVis_translator
p162
I00
ssS'contributors_enabled'
p163
I00
sS'profile_text_color'
p164
g40
sS'followers_count'
p165
I217
sS'profile_sidebar_border_color'
p166
g46
sS'id_str'
p167
g48
sS'default_profile_image'
p168
I00
sS'listed_count'
p169
I16
sS'status'
p170
g8
(ctweepy.models
Status
p171
g10
Ntp172
Rp173
(dp174
S'favorited'
p175
I00
sS'contributors'
p176
NsS'truncated'
p177
I00
sS'text'
p178
g57
sS'source_url'
p179
Vhttp://twitter.com
p180
sS'possibly_sensitive'
p181
I00
sS'in_reply_to_status_id'
p182
NsS'geo'
p183
Nsg19
L666363594527895556L
sS'favorite_count'
p184
I0
sS'lang'
p185
g135
sS'retweeted_status'
p186
g8
(g171
g10
Ntp187
Rp188
(dp189
g175
I00
sg176
Nsg177
I00
sg178
g103
sg179
Vhttp://twitter.com
p190
sg181
I00
sg182
Nsg183
Nsg19
L666363395109748736L
sg184
I0
sg185
g130
sg21
g105
sS'created_at'
p191
cdatetime
datetime
p192
(S'\x07\xdf\x0b\x10\x15\r\x08\x00\x00\x00'
p193
tp194
Rp195
sg29
g102
sS'coordinates'
p196
NsS'in_reply_to_user_id_str'
p197
g127
sS'source'
p198
VTwitter Web Client
p199
sS'in_reply_to_status_id_str'
p200
NsS'in_reply_to_screen_name'
p201
g123
sg167
g124
sS'retweeted'
p202
I00
sS'place'
p203
NsS'retweet_count'
p204
I1
sS'in_reply_to_user_id'
p205
I30820266
sbsg21
g64
sg191
g192
(S'\x07\xdf\x0b\x10\x15\r8\x00\x00\x00'
p206
tp207
Rp208
sg29
g53
sg196
Nsg197
Nsg198
VTwitter Web Client
p209
sg200
Nsg201
Nsg167
g97
sg202
I00
sg203
Nsg204
I1
sg205
NsbsS'is_translation_enabled'
p210
I00
sS'utc_offset'
p211
NsS'statuses_count'
p212
I7089
sS'description'
p213
g140
sS'friends_count'
p214
I200
sS'location'
p215
g140
sS'profile_link_color'
p216
g144
sS'profile_image_url'
p217
g146
sS'notifications'
p218
NsS'geo_enabled'
p219
I00
sS'profile_background_color'
p220
g50
sS'profile_background_image_url'
p221
g150
sS'screen_name'
p222
g151
sg185
g152
sg1
I00
sS'profile_background_tile'
p223
I00
sS'favourites_count'
p224
I682
sS'name'
p225
g155
sS'url'
p226
Nsg191
g192
(S'\x07\xdc\x07\x14\x11&(\x00\x00\x00'
p227
tp228
Rp229
sS'profile_background_image_url_https'
p230
g37
sS'time_zone'
p231
NsS'protected'
p232
I00
sS'default_profile'
p233
I01
sS'is_translator'
p234
I00
sbs.