(dp0
S'following'
p1
(lp2
(lp3
I32337326
aI17467241
aI17093617
aI40614474
aI39977138
aI1155919838
aI1152262004
aI1152260323
aI1149893300
aI895332620
aI24434904
aI33656811
aI149677024
aI14296480
aI935375490
aI740896050
aI52890446
aI253870749
aI107328133
aI32667703
aI211277927
aI16975907
aI182654173
aI549478918
aI624951774
aI479102678
aI707272027
aI515436312
aI141291515
aI538445739
aI270769671
aI562095602
aI15428604
aI741747980
aI39399974
aI17906329
aI577504076
aI198368713
aI146340079
aI22425726
aI427127954
aI25227168
aI89331808
aI145075353
aI20520534
aI366118200
aI14986338
aI223552803
aI742704102
aI18992010
aI18056398
aI72097799
aI574019630
aI335298828
aI606333457
aI146116664
aI441123653
aI36704033
aI34264116
aI43264872
aI47719793
aI389168850
aI598865116
aI436695405
aI43999217
aI232442708
aI177618275
aI107315153
aI249246689
aI78375787
aI38528973
aI193855132
aI17839071
aI124484166
aI18587683
aI15164648
aI409417463
aI309152671
aI735565016
aI30268812
aI46445104
aI25811027
aI50450821
aI154368255
aI90586792
aI73418347
aI57627299
aI227268531
aI23618778
aI512586459
aI98267411
aI78384590
aI259986031
aI252436946
aI472072419
aI191734073
aI623590826
aI37154329
aI63322372
aI35033699
aI731485196
aI14335724
aI17514484
aI19554818
aI44264894
aI452316056
aI35618018
aI312628957
aI84691725
aI14951510
aI43250127
aI26380885
aI19033717
aI29976969
aI249651363
aI81606065
aI21161210
aI64612214
aI77238722
aI62124104
aI513863337
aI32095233
aI282267155
aI20930270
aI362604485
aI199333136
aI120109068
aI43033252
aI14736157
aI17425359
aI29800051
aI317976403
aI260053230
aI41519489
aI92760823
aI123671382
aI41396889
aI35462574
aI105344626
aI150027035
aI34715151
aI220451297
aI29748372
aasS'followers'
p4
(lp5
(lp6
L4108272159L
aL4120078699L
aI932779147
aL2203439227L
aL2852586606L
aI1924312855
aI1923890856
aI23250681
aI55594587
aL2361707564L
aI248260026
aL2180870413L
aI198869640
aI1485856448
aL3804779538L
aI120176235
aI14935579
aL3305404550L
aL2797689823L
aL2963671569L
aI971129101
aI259548984
aI43731317
aL3194632496L
aI428823268
aI131549790
aL3172365659L
aL3065083689L
aI611817117
aI1444614408
aI1666679664
aL2955887283L
aI545170419
aI568847261
aI303531344
aL3005574531L
aL2963262169L
aL2970014158L
aL2371868606L
aL2911070687L
aL2917925022L
aI546279297
aL2902674233L
aI218473545
aI30686587
aL2880764642L
aI407455505
aI15897179
aL2893266714L
aI240267709
aI896320820
aI47417547
aL2564267726L
aI122863491
aI1255918850
aL2813995027L
aL2793686624L
aI1261149674
aL2744905048L
aI524732173
aI31012987
aI292033046
aI415563611
aL2519680784L
aI316623478
aI124083241
aI1643738377
aI59362637
aI717640623
aI103402697
aI29575049
aI233200544
aL2353002765L
aI75102452
aI635506460
aI1443802176
aI1163006863
aL2161671606L
aI17122746
aI705540042
aI161896915
aL2236497902L
aI861168080
aL2167186250L
aI109070227
aI1581936560
aI438318611
aI1653684109
aI1416087535
aI1578974438
aI971188988
aI1411532030
aI1608954462
aI53105208
aI1555613226
aI147448731
aI58355313
aI98464322
aI547150512
aI20601603
aI7259
aI188030122
aI546435279
aI369690914
aI1170953336
aI385958449
aI1155919838
aI1152262004
aI1152260323
aI1149893300
aI895332620
aI24434904
aI14296480
aI39977138
aI740896050
aI52890446
aI253870749
aI32667703
aI935375490
aI18056398
aI18992010
aI742704102
aI223552803
aI16975907
aI14986338
aI366118200
aI20520534
aI25227168
aI427127954
aI549478918
aI22425726
aI146340079
aI198368713
aI577504076
aI479102678
aI707272027
aI141291515
aI515436312
aI270769671
aI562095602
aI741747980
aI39399974
aI17906329
aI273488832
aI146116664
aI441123653
aI93581628
aI36704033
aI35462574
aI34264116
aI47719793
aI389168850
aI211277927
aI41519489
aI260053230
aI317976403
aI29800051
aI17425359
aI14736157
aI43033252
aI120109068
aI199333136
aI362604485
aI20930270
aI282267155
aI32095233
aI513863337
aI62124104
aI21161210
aI81606065
aI249651363
aI29976969
aI19033717
aI123671382
aI26380885
aI43250127
aI14951510
aI84691725
aI35618018
aI452316056
aI44264894
aI19554818
aI17514484
aI14335724
aI34715151
aI731485196
aI35033699
aI43999217
aI63322372
aI78384590
aI232442708
aI32337326
aI107315153
aI249246689
aI78375787
aI38528973
aI124484166
aI18587683
aI15164648
aI182654173
aI409417463
aI41396889
aI735565016
aI41470477
aI46445104
aI50450821
aI73418347
aI57627299
aI23618778
aI41428556
aasS'obj'
p7
ccopy_reg
_reconstructor
p8
(ctweepy.models
User
p9
c__builtin__
object
p10
Ntp11
Rp12
(dp13
S'follow_request_sent'
p14
I00
sS'has_extended_profile'
p15
I00
sS'profile_use_background_image'
p16
I01
sS'profile_sidebar_fill_color'
p17
VDDEEF6
p18
sS'id'
p19
I735643934
sS'verified'
p20
I00
sS'entities'
p21
(dp22
Vurl
p23
(dp24
Vurls
p25
(lp26
(dp27
g23
Vhttps://t.co/sQasX8UrUs
p28
sVindices
p29
(lp30
I0
aI23
asVexpanded_url
p31
Vhttps://attendee.gotowebinar.com/recording/7852307794896567041
p32
sVdisplay_url
p33
Vattendee.gotowebinar.com/recording/7852\u2026
p34
sassVdescription
p35
(dp36
g25
(lp37
sssS'profile_image_url_https'
p38
Vhttps://pbs.twimg.com/profile_images/2464896906/xsv05cgirg4j91cvze4a_normal.png
p39
sS'_json'
p40
(dp41
Vfollow_request_sent
p42
I00
sVhas_extended_profile
p43
I00
sVprofile_use_background_image
p44
I01
sVdefault_profile_image
p45
I00
sVid
p46
I735643934
sVprofile_background_image_url_https
p47
Vhttps://abs.twimg.com/images/themes/theme17/bg.gif
p48
sVverified
p49
I00
sVprofile_text_color
p50
V333333
p51
sVprofile_image_url_https
p52
g39
sVprofile_sidebar_fill_color
p53
g18
sVentities
p54
g22
sVfollowers_count
p55
I210
sVprofile_sidebar_border_color
p56
VC0DEED
p57
sVid_str
p58
V735643934
p59
sVprofile_background_color
p60
VDAE4EB
p61
sVlisted_count
p62
I25
sVstatus
p63
(dp64
Vcontributors
p65
NsVtruncated
p66
I00
sVtext
p67
VRT @stockguy22: Icahn exits eBay stake, opts for PayPal after spinoff https://t.co/uJmH2mTciF --&gt;  $EBAY $PYPL $AIG
p68
sVin_reply_to_status_id
p69
Nsg46
L666468844685389825L
sVfavorite_count
p70
I0
sVsource
p71
V<a href="https://about.twitter.com/products/tweetdeck" rel="nofollow">TweetDeck</a>
p72
sVretweeted
p73
I00
sVcoordinates
p74
Nsg54
(dp75
Vsymbols
p76
(lp77
(dp78
g29
(lp79
I102
aI107
asg67
VEBAY
p80
sa(dp81
g29
(lp82
I108
aI113
asg67
VPYPL
p83
sa(dp84
g29
(lp85
I114
aI118
asg67
VAIG
p86
sasVuser_mentions
p87
(lp88
(dp89
g46
I29748372
sg29
(lp90
I3
aI14
asg58
V29748372
p91
sVscreen_name
p92
Vstockguy22
p93
sVname
p94
VStockguy22
p95
sasVhashtags
p96
(lp97
sg25
(lp98
(dp99
g23
Vhttps://t.co/uJmH2mTciF
p100
sg29
(lp101
I70
aI93
asg31
Vhttp://reut.rs/1l0GKAQ
p102
sg33
Vreut.rs/1l0GKAQ
p103
sassVin_reply_to_screen_name
p104
Nsg58
V666468844685389825
p105
sVretweet_count
p106
I3
sVin_reply_to_user_id
p107
NsVfavorited
p108
I00
sVretweeted_status
p109
(dp110
g65
Nsg66
I00
sg67
VIcahn exits eBay stake, opts for PayPal after spinoff https://t.co/uJmH2mTciF --&gt;  $EBAY $PYPL $AIG
p111
sg69
Nsg46
L666468793464569856L
sg70
I1
sg71
V<a href="http://twitter.com" rel="nofollow">Twitter Web Client</a>
p112
sg73
I00
sg74
Nsg54
(dp113
g76
(lp114
(dp115
g29
(lp116
I86
aI91
asg67
VEBAY
p117
sa(dp118
g29
(lp119
I92
aI97
asg67
VPYPL
p120
sa(dp121
g29
(lp122
I98
aI102
asg67
VAIG
p123
sasg87
(lp124
sg96
(lp125
sg25
(lp126
(dp127
g23
Vhttps://t.co/uJmH2mTciF
p128
sg29
(lp129
I54
aI77
asg31
Vhttp://reut.rs/1l0GKAQ
p130
sg33
Vreut.rs/1l0GKAQ
p131
sassg104
Nsg58
V666468793464569856
p132
sg106
I3
sg107
Nsg108
I00
sVgeo
p133
NsVin_reply_to_user_id_str
p134
NsVpossibly_sensitive
p135
I00
sVlang
p136
Ven
p137
sVcreated_at
p138
VTue Nov 17 04:11:57 +0000 2015
p139
sVin_reply_to_status_id_str
p140
NsVplace
p141
Nssg133
Nsg134
Nsg135
I00
sg136
Ven
p142
sg138
VTue Nov 17 04:12:09 +0000 2015
p143
sg140
Nsg141
NssVis_translation_enabled
p144
I00
sVutc_offset
p145
I-18000
sVstatuses_count
p146
I2631
sg35
VStockguy22 University will be providing 7-week Trading Workshop & Mentoring ( Courses will include Stocks, Options, Futures, Technical & Fundamental Analysis)
p147
sVfriends_count
p148
I143
sVlocation
p149
V
p150
sVprofile_link_color
p151
VCC3366
p152
sVprofile_image_url
p153
Vhttp://pbs.twimg.com/profile_images/2464896906/xsv05cgirg4j91cvze4a_normal.png
p154
sVfollowing
p155
I00
sVgeo_enabled
p156
I00
sVprofile_background_image_url
p157
Vhttp://abs.twimg.com/images/themes/theme17/bg.gif
p158
sg92
VStockguy22U
p159
sg136
Ven
p160
sVprofile_background_tile
p161
I00
sVfavourites_count
p162
I5
sg94
VStockguy22University
p163
sVnotifications
p164
I00
sg23
Vhttps://t.co/sQasX8UrUs
p165
sg138
VFri Aug 03 22:26:33 +0000 2012
p166
sVcontributors_enabled
p167
I00
sVtime_zone
p168
VEastern Time (US & Canada)
p169
sVprotected
p170
I00
sVdefault_profile
p171
I00
sVis_translator
p172
I00
ssS'contributors_enabled'
p173
I00
sS'profile_text_color'
p174
g51
sS'followers_count'
p175
I210
sS'profile_sidebar_border_color'
p176
g57
sS'id_str'
p177
g59
sS'default_profile_image'
p178
I00
sS'listed_count'
p179
I25
sS'status'
p180
g8
(ctweepy.models
Status
p181
g10
Ntp182
Rp183
(dp184
S'favorited'
p185
I00
sS'contributors'
p186
NsS'truncated'
p187
I00
sS'text'
p188
g68
sS'source_url'
p189
Vhttps://about.twitter.com/products/tweetdeck
p190
sS'possibly_sensitive'
p191
I00
sS'in_reply_to_status_id'
p192
NsS'geo'
p193
Nsg19
L666468844685389825L
sS'favorite_count'
p194
I0
sS'lang'
p195
g142
sS'retweeted_status'
p196
g8
(g181
g10
Ntp197
Rp198
(dp199
g185
I00
sg186
Nsg187
I00
sg188
g111
sg189
Vhttp://twitter.com
p200
sg191
I00
sg192
Nsg193
Nsg19
L666468793464569856L
sg194
I1
sg195
g137
sg21
g113
sS'created_at'
p201
cdatetime
datetime
p202
(S'\x07\xdf\x0b\x11\x04\x0b9\x00\x00\x00'
p203
tp204
Rp205
sg40
g110
sS'coordinates'
p206
NsS'in_reply_to_user_id_str'
p207
NsS'source'
p208
VTwitter Web Client
p209
sS'in_reply_to_status_id_str'
p210
NsS'in_reply_to_screen_name'
p211
Nsg177
g132
sS'retweeted'
p212
I00
sS'place'
p213
NsS'retweet_count'
p214
I3
sS'in_reply_to_user_id'
p215
Nsbsg21
g75
sg201
g202
(S'\x07\xdf\x0b\x11\x04\x0c\t\x00\x00\x00'
p216
tp217
Rp218
sg40
g64
sg206
Nsg207
Nsg208
VTweetDeck
p219
sg210
Nsg211
Nsg177
g105
sg212
I00
sg213
Nsg214
I3
sg215
NsbsS'is_translation_enabled'
p220
I00
sS'utc_offset'
p221
I-18000
sS'statuses_count'
p222
I2631
sS'description'
p223
g147
sS'friends_count'
p224
I143
sS'location'
p225
g150
sS'profile_link_color'
p226
g152
sS'profile_image_url'
p227
g154
sS'notifications'
p228
I00
sS'geo_enabled'
p229
I00
sS'profile_background_color'
p230
g61
sS'profile_background_image_url'
p231
g158
sS'screen_name'
p232
g159
sg195
g160
sg1
I00
sS'profile_background_tile'
p233
I00
sS'favourites_count'
p234
I5
sS'name'
p235
g163
sS'url'
p236
g165
sg201
g202
(S'\x07\xdc\x08\x03\x16\x1a!\x00\x00\x00'
p237
tp238
Rp239
sS'profile_background_image_url_https'
p240
g48
sS'time_zone'
p241
g169
sS'protected'
p242
I00
sS'default_profile'
p243
I00
sS'is_translator'
p244
I00
sbs.