(dp0
S'following'
p1
(lp2
(lp3
L3184637045L
aL3177303368L
aL2661367944L
aI189271593
aL3420574769L
aL3135493823L
aL3165625278L
aL4017817469L
aL3494630905L
aI165669120
aL2983808635L
aI14079955
aL2586924577L
aI8010782
aI84444981
aI517392967
aL2448524059L
aI193838214
aI55561590
aI28489821
aI254207829
aI284752134
aL2286097290L
aI46227914
aL3354271108L
aL3210527171L
aI26583295
aI528770977
aI7993232
aI23676481
aI1568220338
aI413704957
aI1423715634
aI34837057
aI15130891
aL2802272246L
aI391743803
aL2448326774L
aI24609836
aI562244878
aI605700792
aL2932892716L
aI946833560
aI966726223
aL2186813068L
aL3796186942L
aI606806109
aL2341281566L
aI28999113
aI799122090
aI109884235
aI258028535
aI75461069
aI70942193
aI151541061
aL3118936070L
aL2389718366L
aL2461907034L
aL3346438133L
aI175792847
aI1265037073
aI18034541
aI550663732
aI17249855
aI545618159
aI28769199
aI166597717
aI82143051
aI15978672
aI36288874
aI27162339
aI515542041
aI60705191
aI36704033
aL2422703600L
aI455824771
aI398105054
aI224466293
aI110539278
aI1544255845
aL3261001351L
aL2334614718L
aI27214873
aI452151127
aI129935623
aL2559876024L
aL2288796753L
aI71824428
aL2196900553L
aI821618390
aI271211220
aL2447901655L
aI403855355
aI297848618
aI16999433
aL2295071088L
aL2319600132L
aI126640430
aI43111757
aI475524030
aL2445459474L
aI430841130
aI1337904764
aI53215424
aI262763182
aL2704486915L
aL3275581777L
aI338532559
aL3382363841L
aI36990709
aL3426014292L
aI237591901
aL2470475939L
aI52123263
aL3412050041L
aL3509753654L
aI47993676
aI154346268
aI1583359764
aL2429441562L
aI1393603976
aI246585278
aL2607477037L
aL2480055180L
aI19891705
aI1152105936
aI611817117
aI1928213371
aI10202342
aL2429563184L
aL2181346825L
aL2394624246L
aL3239723099L
aL2906862160L
aI60113926
aI54664941
aI72442349
aL2574767547L
aI1563410299
aI1084887019
aI148272213
aI820031509
aI190092133
aI1187422273
aI788333744
aL3331100733L
aL3121098012L
aI360685668
aL2678090893L
aL2552639978L
aI19739279
aI121158213
aI1931179794
aL2821393991L
aL3073241957L
aI247857712
aI70825170
aI260692993
aI214433021
aI117103149
aL2821393716L
aI995470718
aI1611543626
aL2607601184L
aL2440753004L
aI604610969
aI1581413814
aL2445064535L
aI1966253173
aL2545966472L
aL2469832928L
aI604281093
aI1845191160
aI139526643
aI383077253
aI40300931
aL2590675464L
aI1379998892
aL2161913370L
aI1926308534
aI1869471378
aL2310145046L
aL2268654043L
aI1394399438
aI1944252824
aI1036611673
aI44498216
aI175754840
aI867714840
aI40983010
aI230609065
aI102475286
aI485321499
aI1729061197
aI190399509
aI441260402
aI404613701
aI720582493
aI24227424
aI52126417
aI52166809
aI470506640
aI1308512629
aL2200605978L
aI716598653
aI26141091
aI108164052
aI1440122690
aI1273506308
aI43950136
aI1544402911
aI23003843
aI391815569
aI1537373112
aI1370308412
aI29663279
aI604616126
aI58808528
aI23390520
aI308871506
aI38053161
aI102475599
aI466333756
aI17124991
aI87809737
aI1352533285
aI956147430
aI1909482277
aI17105436
aI168715580
aI29748372
aI328741551
aI1364930179
aI285580130
aI15897179
aI193542064
aI569542024
aI416311594
aI15246621
aI458989076
aI25254134
aI16595597
aI47247213
aI72907355
aI36102165
aL2216500165L
aI124585235
aI163648850
aI803709853
aI380500399
aI182198749
aI170197134
aI1020527971
aI255996385
aI168186079
aI14216123
aI71319651
aI609372856
aI11247222
aI144876165
aL2161847108L
aI138404716
aI85693767
aI197578406
aI379172971
aL2179895676L
aI191645809
aI31490435
aI53440222
aI19030439
aI16816021
aI29854129
aI60150406
aI18433619
aI14250809
aL2182171824L
aI112872946
aI27762318
aI30818980
aI624413
aI59853587
aI1217108497
aI14886375
aI40099128
aI377714371
aI51912109
aI133483902
aI27990259
aL2252776963L
aL2360152842L
aI373102216
aI605401805
aI39085071
aI15971805
aI359706562
aI30940468
aI31546412
aI100324523
aI95089157
aI41266395
aI17497085
aI19658936
aI124008935
aasS'followers'
p4
(lp5
(lp6
I808669524
aL2357210724L
aI604281093
aL3161642778L
aI224700084
aI262763182
aL3184637045L
aL3878031080L
aI629573379
aI552137768
aL2992414321L
aI596372224
aL3984395114L
aL3135493823L
aI1159525747
aL3165625278L
aL3494630905L
aI1893850890
aI1583359764
aL4164924443L
aL2983808635L
aI84444981
aI517392967
aI42912883
aL2448524059L
aL3744197833L
aL4113761843L
aI90970076
aI48486244
aL2802272246L
aL2821393991L
aL3180769543L
aL4129818237L
aI1423715634
aI413704957
aI391743803
aI117103149
aI67027302
aL4120054337L
aL2159322464L
aL3210527171L
aL4076918835L
aL3796186942L
aI48233377
aL2286097290L
aL3994519654L
aI413955323
aL3241313055L
aL3873319234L
aL3986070074L
aI1603845344
aL2516029806L
aL2495688343L
aL3489736273L
aL3139590424L
aL2205024357L
aL3864652213L
aL2461128220L
aL2469832928L
aL2345420856L
aL2470475939L
aI1945314727
aI256779049
aI43111757
aL2445459474L
aL2394624246L
aI100185304
aL3147246544L
aI788333744
aI121158213
aL2704486915L
aL3073241957L
aL2172423304L
aI1581413814
aI31108229
aL2773951898L
aI1684130041
aL2556132460L
aI361038717
aL2429288503L
aL2237867832L
aL2330217439L
aI561570640
aI104224141
aL2385761982L
aL2396431201L
aI137797017
aL2290060782L
aI1273506308
aI15897179
aI391815569
aI43950136
aL2161847108L
aL2360152842L
aI1396037089
aI19826468
aI745981110
aI859705728
aI124008935
aasS'obj'
p7
ccopy_reg
_reconstructor
p8
(ctweepy.models
User
p9
c__builtin__
object
p10
Ntp11
Rp12
(dp13
S'follow_request_sent'
p14
NsS'has_extended_profile'
p15
I00
sS'profile_use_background_image'
p16
I00
sS'profile_sidebar_fill_color'
p17
V000000
p18
sS'id'
p19
I753647960
sS'verified'
p20
I00
sS'entities'
p21
(dp22
Vurl
p23
(dp24
Vurls
p25
(lp26
(dp27
g23
Vhttps://t.co/99Px7yERLE
p28
sVindices
p29
(lp30
I0
aI23
asVexpanded_url
p31
Vhttp://www.43index.com
p32
sVdisplay_url
p33
V43index.com
p34
sassVdescription
p35
(dp36
g25
(lp37
sssS'profile_image_url_https'
p38
Vhttps://pbs.twimg.com/profile_images/2496470069/kuwjvek8tpxzfcpjd4n3_normal.png
p39
sS'_json'
p40
(dp41
Vfollow_request_sent
p42
NsVhas_extended_profile
p43
I00
sVprofile_use_background_image
p44
I00
sVdefault_profile_image
p45
I00
sVid
p46
I753647960
sVprofile_background_image_url_https
p47
Vhttps://abs.twimg.com/images/themes/theme1/bg.png
p48
sVverified
p49
I00
sVprofile_text_color
p50
V000000
p51
sVprofile_image_url_https
p52
g39
sVprofile_sidebar_fill_color
p53
g18
sVentities
p54
g22
sVfollowers_count
p55
I98
sVprofile_sidebar_border_color
p56
V000000
p57
sVid_str
p58
V753647960
p59
sVprofile_background_color
p60
V000000
p61
sVlisted_count
p62
I0
sVstatus
p63
(dp64
Vcontributors
p65
NsVtruncated
p66
I00
sVtext
p67
VBottom squeeze watch list $AEGR $RLYP $TAHO $SDLP $NTRA $ATRA $IRWD $ZFGN $FMI $CCC $DDC $RT $MX $ETSY $ENOC https://t.co/OqaeHRqvoU
p68
sVin_reply_to_status_id
p69
Nsg46
L665949275969314816L
sVfavorite_count
p70
I0
sVsource
p71
V<a href="http://twitter.com" rel="nofollow">Twitter Web Client</a>
p72
sVretweeted
p73
I00
sVcoordinates
p74
Nsg54
(dp75
Vsymbols
p76
(lp77
(dp78
g29
(lp79
I26
aI31
asg67
VAEGR
p80
sa(dp81
g29
(lp82
I32
aI37
asg67
VRLYP
p83
sa(dp84
g29
(lp85
I38
aI43
asg67
VTAHO
p86
sa(dp87
g29
(lp88
I44
aI49
asg67
VSDLP
p89
sa(dp90
g29
(lp91
I50
aI55
asg67
VNTRA
p92
sa(dp93
g29
(lp94
I56
aI61
asg67
VATRA
p95
sa(dp96
g29
(lp97
I62
aI67
asg67
VIRWD
p98
sa(dp99
g29
(lp100
I68
aI73
asg67
VZFGN
p101
sa(dp102
g29
(lp103
I74
aI78
asg67
VFMI
p104
sa(dp105
g29
(lp106
I79
aI83
asg67
VCCC
p107
sa(dp108
g29
(lp109
I84
aI88
asg67
VDDC
p110
sa(dp111
g29
(lp112
I89
aI92
asg67
VRT
p113
sa(dp114
g29
(lp115
I93
aI96
asg67
VMX
p116
sa(dp117
g29
(lp118
I97
aI102
asg67
VETSY
p119
sa(dp120
g29
(lp121
I103
aI108
asg67
VENOC
p122
sasVuser_mentions
p123
(lp124
sVhashtags
p125
(lp126
sg25
(lp127
(dp128
g23
Vhttps://t.co/OqaeHRqvoU
p129
sg29
(lp130
I109
aI132
asg31
Vhttp://43index.com
p131
sg33
V43index.com
p132
sassVin_reply_to_screen_name
p133
Nsg58
V665949275969314816
p134
sVretweet_count
p135
I0
sVin_reply_to_user_id
p136
NsVfavorited
p137
I00
sVgeo
p138
NsVin_reply_to_user_id_str
p139
NsVpossibly_sensitive
p140
I00
sVlang
p141
Ven
p142
sVcreated_at
p143
VSun Nov 15 17:47:34 +0000 2015
p144
sVin_reply_to_status_id_str
p145
NsVplace
p146
NssVis_translation_enabled
p147
I00
sVutc_offset
p148
I-25200
sVstatuses_count
p149
I316
sg35
VDay and Swing trading ascending triangles and bottom squeeze plays to real profits!
p150
sVfriends_count
p151
I303
sVlocation
p152
VE Town
p153
sVprofile_link_color
p154
V4A913C
p155
sVprofile_image_url
p156
Vhttp://pbs.twimg.com/profile_images/2496470069/kuwjvek8tpxzfcpjd4n3_normal.png
p157
sVfollowing
p158
NsVgeo_enabled
p159
I00
sVprofile_banner_url
p160
Vhttps://pbs.twimg.com/profile_banners/753647960/1393612326
p161
sVprofile_background_image_url
p162
Vhttp://abs.twimg.com/images/themes/theme1/bg.png
p163
sVscreen_name
p164
V43index
p165
sg141
Ven
p166
sVprofile_background_tile
p167
I00
sVfavourites_count
p168
I4
sVname
p169
V43Index Stocks
p170
sVnotifications
p171
Nsg23
Vhttps://t.co/99Px7yERLE
p172
sg143
VSun Aug 12 19:27:47 +0000 2012
p173
sVcontributors_enabled
p174
I00
sVtime_zone
p175
VMountain Time (US & Canada)
p176
sVprotected
p177
I00
sVdefault_profile
p178
I00
sVis_translator
p179
I00
ssS'contributors_enabled'
p180
I00
sS'profile_text_color'
p181
g51
sS'followers_count'
p182
I98
sS'profile_sidebar_border_color'
p183
g57
sS'id_str'
p184
g59
sS'default_profile_image'
p185
I00
sS'listed_count'
p186
I0
sS'status'
p187
g8
(ctweepy.models
Status
p188
g10
Ntp189
Rp190
(dp191
S'favorited'
p192
I00
sS'contributors'
p193
NsS'truncated'
p194
I00
sS'text'
p195
g68
sS'source_url'
p196
Vhttp://twitter.com
p197
sS'possibly_sensitive'
p198
I00
sS'in_reply_to_status_id'
p199
NsS'geo'
p200
Nsg19
L665949275969314816L
sS'favorite_count'
p201
I0
sS'lang'
p202
g142
sg21
g75
sS'created_at'
p203
cdatetime
datetime
p204
(S'\x07\xdf\x0b\x0f\x11/"\x00\x00\x00'
p205
tp206
Rp207
sg40
g64
sS'coordinates'
p208
NsS'in_reply_to_user_id_str'
p209
NsS'source'
p210
VTwitter Web Client
p211
sS'in_reply_to_status_id_str'
p212
NsS'in_reply_to_screen_name'
p213
Nsg184
g134
sS'retweeted'
p214
I00
sS'place'
p215
NsS'retweet_count'
p216
I0
sS'in_reply_to_user_id'
p217
NsbsS'is_translation_enabled'
p218
I00
sS'utc_offset'
p219
I-25200
sS'statuses_count'
p220
I316
sS'description'
p221
g150
sS'friends_count'
p222
I303
sS'location'
p223
g153
sS'profile_link_color'
p224
g155
sS'profile_image_url'
p225
g157
sS'notifications'
p226
NsS'geo_enabled'
p227
I00
sS'profile_background_color'
p228
g61
sS'profile_banner_url'
p229
g161
sS'profile_background_image_url'
p230
g163
sS'screen_name'
p231
g165
sg202
g166
sg1
I00
sS'profile_background_tile'
p232
I00
sS'favourites_count'
p233
I4
sS'name'
p234
g170
sS'url'
p235
g172
sg203
g204
(S'\x07\xdc\x08\x0c\x13\x1b/\x00\x00\x00'
p236
tp237
Rp238
sS'profile_background_image_url_https'
p239
g48
sS'time_zone'
p240
g176
sS'protected'
p241
I00
sS'default_profile'
p242
I00
sS'is_translator'
p243
I00
sbs.