(dp0
S'following'
p1
(lp2
(lp3
I1928213371
aI498166332
aL3432935417L
aI374209360
aI218022222
aI545618159
aI18433619
aL2893191361L
aI308396313
aI1375860338
aI192589455
aI41851807
aI95362046
aI16001494
aI27761886
aI295188878
aI188850279
aI161368630
aI153053178
aI221497409
aI110356405
aI110352644
aI131995760
aI99412732
aI23249152
aI246585278
aL3119814442L
aL2704486915L
aL3064724363L
aI237591901
aL2932892716L
aI197578406
aL2775934654L
aL2764971561L
aI40076565
aI379172971
aL2746667072L
aL2413104151L
aL3058186108L
aL2946624364L
aL2348629728L
aL3131589616L
aI52123263
aI1152624037
aI27737538
aI40300931
aL2607477037L
aI72951610
aI344653034
aL2635608384L
aI39490193
aI44532072
aI31047924
aI1928489815
aI222954248
aI197478610
aI7520262
aL2426574114L
aI1241635501
aL2930422354L
aI1228537610
aI353690462
aL2295371424L
aI1209303486
aI102094857
aI1329243757
aI50118104
aL2409330439L
aI1607155250
aI127567372
aI1575204570
aI523462279
aL2772167606L
aI1228235330
aL2753440416L
aL2887471383L
aL2226002395L
aI459447657
aI17573691
aI925752595
aI15896903
aI1873589498
aI190092133
aI317437245
aI775319148
aI443918542
aI246823608
aI253410257
aI1673739764
aL2249432185L
aI145313421
aI253167239
aI352947624
aI264671180
aI1720338654
aI262144590
aI37918984
aI96682182
aI166597717
aI178170937
aI37555599
aI594326394
aL2486504240L
aI41458395
aI586734515
aI514835972
aI102819479
aI904810278
aI416311594
aI16595597
aI132643352
aI170428232
aI35404934
aI193838214
aI18745322
aL2426471287L
aI1308512629
aL2179895676L
aI581221150
aI1689434408
aI31546412
aI49620233
aI81157050
aI300706809
aI521099849
aI1058910320
aI108000949
aI195624823
aI103937488
aI112872946
aI1593857467
aI168715580
aI11247222
aI302102111
aI1064015220
aI23390520
aI377714371
aI29557958
aI262652488
aI133483902
aI72907355
aI104034095
aI28999113
aI51912109
aI40099128
aI80697114
aI631551393
aI62562916
aI17549691
aI32309773
aI15130891
aI193741441
aI104866524
aI102527566
aI55561590
aI56121651
aI1861110080
aI1058832738
aI472974408
aI455824771
aI14972202
aI39085071
aI163648850
aI14297693
aI1099010335
aI78149138
aI15614030
aI34837057
aI557236743
aI589076837
aI44060322
aI84238940
aI24253596
aI21328656
aI72928001
aI231332003
aI34273298
aI480673902
aI381493791
aI870516031
aI858141582
aI545897202
aI354399119
aI17790265
aI552127175
aI482364710
aI49421647
aI35002876
aI93295809
aI719705252
aI16732770
aI599428422
aI425870454
aI84402174
aI20179628
aI16431495
aI234826866
aI14886375
aI155954102
aI20078032
aI191121318
aI117237387
aI36960352
aI199768619
aI120176950
aI143477156
aI284112637
aI48001143
aI17239967
aI15072581
aI20268270
aI46393249
aI46804450
aI26538229
aI16532451
aI265066319
aI86582499
aI48569126
aI71567590
aI23125257
aI16827489
aI27707080
aI15935591
aasS'followers'
p4
(lp5
(lp6
L2203695764L
aL3955153872L
aL2846259511L
aI524227078
aL3016874516L
aL3322376461L
aL3027505823L
aL4051518682L
aI116829329
aL4043566468L
aI552134921
aI75841929
aI1658632620
aI794921328
aI235256813
aI18045082
aL2475241896L
aL2412223712L
aL2885516457L
aL3064724363L
aI240526672
aL2718762409L
aL3408979894L
aI1240650294
aI35784526
aI100767876
aL3232139613L
aI525705616
aI1154657918
aL3434373489L
aI521099849
aL3443849774L
aL3421529534L
aL3421447753L
aL3311012648L
aI79391196
aI289642045
aL2380905156L
aI1530916794
aI163944333
aL3180444001L
aL3436822335L
aL3306931399L
aI459288747
aI33167774
aL3424867739L
aL3314788549L
aL3318021354L
aL3331469596L
aL2752760239L
aI203430692
aL2608112205L
aL2794856077L
aL3131291861L
aI629573379
aL2764971561L
aI417405939
aI233187339
aI133823233
aL3242429108L
aI534708243
aL3233951736L
aI98928790
aL2772167606L
aL2773951898L
aI492248877
aL2341525668L
aI627115306
aL3119814442L
aL2512910989L
aI1529271854
aL2276285222L
aL2902073904L
aI564098098
aI300412800
aL3233020643L
aL2401268094L
aL3190018588L
aL3116925470L
aI592198666
aI47077710
aI387229265
aI329293195
aI1536424206
aI1920857887
aL2500435326L
aL2840406506L
aL2985636107L
aI1334745128
aL2488828777L
aL2841233056L
aI1387182072
aL2810343215L
aL2320613431L
aI563485359
aI250106965
aI805230144
aL2918110749L
aL2753440416L
aL2912541034L
aL2917925022L
aL2887471383L
aI18792340
aL2275230932L
aL2784927287L
aI15904172
aI62226476
aI140540706
aL2475768979L
aI811126926
aI262652488
aL2829927864L
aI26393040
aL2491165530L
aI600749115
aL2653263673L
aL2552247578L
aL2310553951L
aL2761317231L
aI34578922
aL2635608384L
aL2463568212L
aL2455904196L
aI237591901
aI1660419504
aI31339252
aI103937488
aI870516031
aI314014762
aI2486831
aI545897202
aI381493791
aasS'obj'
p7
ccopy_reg
_reconstructor
p8
(ctweepy.models
User
p9
c__builtin__
object
p10
Ntp11
Rp12
(dp13
S'follow_request_sent'
p14
I00
sS'has_extended_profile'
p15
I00
sS'profile_use_background_image'
p16
I00
sS'profile_sidebar_fill_color'
p17
V291C0D
p18
sS'id'
p19
I791363167
sS'verified'
p20
I00
sS'entities'
p21
(dp22
Vurl
p23
(dp24
Vurls
p25
(lp26
(dp27
g23
Vhttp://t.co/uaMEl1gvwM
p28
sVindices
p29
(lp30
I0
aI22
asVexpanded_url
p31
Vhttp://speculari-fund.blogspot.com/
p32
sVdisplay_url
p33
Vspeculari-fund.blogspot.com
p34
sassVdescription
p35
(dp36
g25
(lp37
sssS'profile_image_url_https'
p38
Vhttps://pbs.twimg.com/profile_images/2558884027/1soau24lgxzd65uuaxcs_normal.png
p39
sS'_json'
p40
(dp41
Vfollow_request_sent
p42
I00
sVhas_extended_profile
p43
I00
sVprofile_use_background_image
p44
I00
sVdefault_profile_image
p45
I00
sVid
p46
I791363167
sVprofile_background_image_url_https
p47
Vhttps://pbs.twimg.com/profile_background_images/646668015/x3f23d57669f9a5833024ee90f5de67b.png
p48
sVverified
p49
I00
sVprofile_text_color
p50
V53AB8D
p51
sVprofile_image_url_https
p52
g39
sVprofile_sidebar_fill_color
p53
g18
sVentities
p54
g22
sVfollowers_count
p55
I132
sVprofile_sidebar_border_color
p56
V000000
p57
sVid_str
p58
V791363167
p59
sVprofile_background_color
p60
V000000
p61
sVlisted_count
p62
I4
sVstatus
p63
(dp64
Vlang
p65
Vru
p66
sVfavorited
p67
I00
sg54
(dp68
Vsymbols
p69
(lp70
sVuser_mentions
p71
(lp72
(dp73
g46
I108000949
sg29
(lp74
I0
aI12
asg58
V108000949
p75
sVscreen_name
p76
VVlad_Volkov
p77
sVname
p78
VVladislav
p79
sasVhashtags
p80
(lp81
sg25
(lp82
ssVcontributors
p83
NsVtruncated
p84
I00
sVtext
p85
V@Vlad_Volkov \u043c\u043e\u043b\u043e\u0434\u0451\u0436\u044c.... \u0422\u0435\u043f\u0435\u0440\u044c \u043b\u0435\u0433\u0435\u043d\u0434\u044b-\u043e\u043d\u043b\u0430\u0439\u043d \u0432 \u043c\u043e\u0434\u0435))
p86
sVcreated_at
p87
VMon Nov 16 18:36:51 +0000 2015
p88
sVretweeted
p89
I00
sVin_reply_to_status_id_str
p90
V666323773675724800
p91
sVcoordinates
p92
NsVin_reply_to_user_id_str
p93
V108000949
p94
sVsource
p95
V<a href="http://twitter.com/download/android" rel="nofollow">Twitter for Android</a>
p96
sVin_reply_to_status_id
p97
L666323773675724800L
sVin_reply_to_screen_name
p98
VVlad_Volkov
p99
sg58
V666324064559046657
p100
sVplace
p101
NsVretweet_count
p102
I0
sVgeo
p103
Nsg46
L666324064559046657L
sVfavorite_count
p104
I0
sVin_reply_to_user_id
p105
I108000949
ssVis_translation_enabled
p106
I00
sVutc_offset
p107
I7200
sVstatuses_count
p108
I1236
sg35
VSpeculari (\u043b\u0430\u0442) - \u0432\u044b\u043d\u044e\u0445\u0438\u0432\u0430\u0442\u044c \u0438 \u043d\u0430\u0431\u043b\u044e\u0434\u0430\u0442\u044c. \u041d\u0430 \u0440\u044b\u043d\u043a\u0435. \u0417\u0430 \u0441\u043e\u0431\u043e\u0439...
p109
sVfriends_count
p110
I223
sVlocation
p111
VUkraine
p112
sVprofile_link_color
p113
V807860
p114
sVprofile_image_url
p115
Vhttp://pbs.twimg.com/profile_images/2558884027/1soau24lgxzd65uuaxcs_normal.png
p116
sVfollowing
p117
I00
sVgeo_enabled
p118
I00
sVprofile_banner_url
p119
Vhttps://pbs.twimg.com/profile_banners/791363167/1402761493
p120
sVprofile_background_image_url
p121
Vhttp://pbs.twimg.com/profile_background_images/646668015/x3f23d57669f9a5833024ee90f5de67b.png
p122
sg76
Vthespeculari
p123
sg65
Vru
p124
sVprofile_background_tile
p125
I01
sVfavourites_count
p126
I234
sg78
VSPECULARI
p127
sVnotifications
p128
I00
sg23
Vhttp://t.co/uaMEl1gvwM
p129
sg87
VThu Aug 30 11:05:12 +0000 2012
p130
sVcontributors_enabled
p131
I00
sVtime_zone
p132
VKyiv
p133
sVprotected
p134
I00
sVdefault_profile
p135
I00
sVis_translator
p136
I00
ssS'contributors_enabled'
p137
I00
sS'profile_text_color'
p138
g51
sS'followers_count'
p139
I132
sS'profile_sidebar_border_color'
p140
g57
sS'id_str'
p141
g59
sS'default_profile_image'
p142
I00
sS'listed_count'
p143
I4
sS'status'
p144
g8
(ctweepy.models
Status
p145
g10
Ntp146
Rp147
(dp148
S'favorited'
p149
I00
sS'contributors'
p150
NsS'truncated'
p151
I00
sS'text'
p152
g86
sS'source_url'
p153
Vhttp://twitter.com/download/android
p154
sS'in_reply_to_status_id'
p155
L666323773675724800L
sS'geo'
p156
Nsg19
L666324064559046657L
sS'favorite_count'
p157
I0
sS'lang'
p158
g66
sg21
g68
sS'created_at'
p159
cdatetime
datetime
p160
(S'\x07\xdf\x0b\x10\x12$3\x00\x00\x00'
p161
tp162
Rp163
sg40
g64
sS'coordinates'
p164
NsS'in_reply_to_user_id_str'
p165
g94
sS'source'
p166
VTwitter for Android
p167
sS'in_reply_to_status_id_str'
p168
g91
sS'in_reply_to_screen_name'
p169
g99
sg141
g100
sS'retweeted'
p170
I00
sS'place'
p171
NsS'retweet_count'
p172
I0
sS'in_reply_to_user_id'
p173
I108000949
sbsS'is_translation_enabled'
p174
I00
sS'utc_offset'
p175
I7200
sS'statuses_count'
p176
I1236
sS'description'
p177
g109
sS'friends_count'
p178
I223
sS'location'
p179
g112
sS'profile_link_color'
p180
g114
sS'profile_image_url'
p181
g116
sS'notifications'
p182
I00
sS'geo_enabled'
p183
I00
sS'profile_background_color'
p184
g61
sS'profile_banner_url'
p185
g120
sS'profile_background_image_url'
p186
g122
sS'screen_name'
p187
g123
sg158
g124
sg1
I00
sS'profile_background_tile'
p188
I01
sS'favourites_count'
p189
I234
sS'name'
p190
g127
sS'url'
p191
g129
sg159
g160
(S'\x07\xdc\x08\x1e\x0b\x05\x0c\x00\x00\x00'
p192
tp193
Rp194
sS'profile_background_image_url_https'
p195
g48
sS'time_zone'
p196
g133
sS'protected'
p197
I00
sS'default_profile'
p198
I00
sS'is_translator'
p199
I00
sbs.