(dp0
S'following'
p1
(lp2
(lp3
I313038011
aI417870191
aI1851877248
aI43969372
aI16955991
aI62329139
aI10933732
aI164791515
aI19772589
aI25088909
aI300195767
aI22972870
aI147311583
aL2165940588L
aI75995918
aI73572581
aI563786725
aI35486742
aI249834807
aI18189134
aI98872288
aI233842454
aI1633713920
aI338116414
aI14677919
aI1327404402
aI1154735912
aI571202103
aI138513820
aI94682674
aL2329066872L
aI3840
aL2916305152L
aI135351670
aL2907403148L
aI250638245
aI38155971
aI15281391
aI867087306
aI90465684
aI267101119
aI18452059
aI352515718
aI28291840
aI29856819
aI25073877
aI16500956
aI248707613
aI65448361
aI816653
aI287413569
aI14505245
aI1994321
aI1344951
aI15164565
aI87490448
aI807095
aI5402612
aI742143
aI20536157
aI19527964
aI144815790
aI11348282
aI1652541
aI5988062
aI109065990
aI37918511
aI28140646
aI28164923
aI40586273
aI14882554
aI18858395
aI89834103
aL2441571368L
aL2353831700L
aL2653233854L
aI28139873
aI354990034
aI205753091
aI21637092
aL2738331445L
aI171747252
aI233918728
aI1468548817
aI14138785
aI16343974
aI266174332
aI239685876
aI69620713
aI18640094
aI1566200468
aI18265353
aI14216123
aL2977900810L
aI487118986
aI1048712209
aI1553967708
aI20562637
aI187570959
aI3108351
aI624413
aI34713362
aL2900791006L
aI35002876
aI23059499
aI16973333
aI633290511
aI16589206
aL3138338070L
aI34262462
aI64643056
aI58935944
aI16012783
aI24490191
aL3347606284L
aI42914158
aI1244666124
aL2292454922L
aI165897043
aI1857277280
aI26163517
aI529167143
aI434495726
aI621877242
aI13298072
aI1868735647
aI44196397
aI121786809
aI199743355
aI373909732
aI381289719
aI19996888
aI1960825746
aI1591016580
aI124690469
aI1963077048
aI105915903
aI196296812
aI594026078
aI264996175
aI14104994
aI27226503
aI92267891
aI180056254
aI389230624
aI19062153
aI402337670
aI557485303
aI145945910
aI22167056
aI28104195
aI38993997
aI56562803
aI221795831
aI39613642
aI18524851
aI283047655
aI358204197
aI19017675
aI287163355
aI249807121
aI20374262
aI268702954
aI18856867
aI395124304
aI364488011
aI20837035
aI123607950
aI15450996
aI181168139
aI146095589
aI23485648
aI155952299
aI45401607
aI27707080
aI118368294
aI93295809
aI60975503
aI102483809
aI50395933
aI39833744
aI80526639
aI12804862
aI15078840
aI23503181
aI645213
aasS'followers'
p4
(lp5
(lp6
L2913725883L
aL3577713198L
aI601888390
aL4152648803L
aI311654967
aI417870191
aI71870376
aI1149268370
aL2896005958L
aI55687495
aL3241362453L
aL2607910416L
aI372816799
aI174699869
aL4126223667L
aI271407821
aI39516817
aL4077721821L
aI613280139
aL4103520376L
aI105295143
aL2264835908L
aI15977038
aL3064612912L
aI73617780
aI1297482212
aI60784269
aI1154735912
aL3024961962L
aI338116414
aL3452894301L
aL3741499643L
aI27352434
aI1918944398
aL3432027981L
aI352140851
aL2907403148L
aI123497391
aI434495726
aL3241336780L
aI434877999
aL3120194451L
aL2726642479L
aI28291840
aI257102942
aI819592986
aI323719154
aL3061338544L
aL3333574809L
aI59020489
aI1626294277
aL3023037872L
aL2866080237L
aI183036873
aL2353831700L
aI1964281615
aL2361741991L
aL3253472336L
aI17010913
aI1375860338
aI1769665736
aI618474168
aI263749833
aI187570959
aI264996175
aI261133102
aL3349326273L
aI326243196
aL3138338070L
aL2349042764L
aI1247966018
aL2874783617L
aI53093284
aL3222233148L
aL2589471118L
aI1868735647
aL2958664018L
aI84138649
aI333052292
aI6839632
aL2874364528L
aI848452477
aL2967818525L
aI1735376406
aL2924822409L
aI218608405
aI236988090
aI1416204296
aI196296812
aI1328282966
aL2580907975L
aI142353824
aI34250687
aL2403870217L
aL2192776003L
aI3249811
aI451780319
aI19547659
aI260422425
aI384107083
aI166306475
aI318639902
aI484754817
aI37397378
aI384789954
aI15432836
aI36687143
aI30689119
aI19588834
aI102483809
aI28236113
aI78854348
aI645213
aI80526639
aasS'obj'
p7
ccopy_reg
_reconstructor
p8
(ctweepy.models
User
p9
c__builtin__
object
p10
Ntp11
Rp12
(dp13
S'follow_request_sent'
p14
NsS'has_extended_profile'
p15
I00
sS'profile_use_background_image'
p16
I01
sS'profile_sidebar_fill_color'
p17
VE7C4F5
p18
sS'id'
p19
I80052046
sS'verified'
p20
I00
sS'entities'
p21
(dp22
Vurl
p23
(dp24
Vurls
p25
(lp26
(dp27
g23
Vhttp://t.co/oPGixQxNPA
p28
sVindices
p29
(lp30
I0
aI22
asVexpanded_url
p31
Vhttp://oikonomikablog.pblogs.gr/
p32
sVdisplay_url
p33
Voikonomikablog.pblogs.gr
p34
sassVdescription
p35
(dp36
g25
(lp37
sssS'profile_image_url_https'
p38
Vhttps://pbs.twimg.com/profile_images/3395976269/2ca34ff56803752bf623f1e47cf52f9c_normal.png
p39
sS'_json'
p40
(dp41
Vfollow_request_sent
p42
NsVhas_extended_profile
p43
I00
sVprofile_use_background_image
p44
I01
sVdefault_profile_image
p45
I00
sVid
p46
I80052046
sVprofile_background_image_url_https
p47
Vhttps://pbs.twimg.com/profile_background_images/42901871/gold.jpg
p48
sVverified
p49
I00
sVprofile_text_color
p50
V0521AD
p51
sVprofile_image_url_https
p52
g39
sVprofile_sidebar_fill_color
p53
g18
sVentities
p54
g22
sVfollowers_count
p55
I114
sVprofile_sidebar_border_color
p56
V2704B3
p57
sVid_str
p58
V80052046
p59
sVprofile_background_color
p60
VFFD012
p61
sVlisted_count
p62
I11
sVstatus
p63
(dp64
Vlang
p65
Ven
p66
sVfavorited
p67
I00
sg54
(dp68
Vsymbols
p69
(lp70
sVuser_mentions
p71
(lp72
(dp73
g46
I38162820
sg29
(lp74
I0
aI10
asg58
V38162820
p75
sVscreen_name
p76
Vamolrajan
p77
sVname
p78
Vamol rajan
p79
sa(dp80
g46
I16973333
sg29
(lp81
I11
aI23
asg58
V16973333
p82
sg76
VIndependent
p83
sg78
VThe Independent
p84
sasVhashtags
p85
(lp86
sg25
(lp87
ssVcontributors
p88
NsVtruncated
p89
I00
sVtext
p90
V@amolrajan @Independent ...  what "armes" ?? (a 2nd Amendment urgently needed!!)
p91
sVcreated_at
p92
VMon Nov 16 20:39:28 +0000 2015
p93
sVretweeted
p94
I00
sVin_reply_to_status_id_str
p95
V666352340233019392
p96
sVcoordinates
p97
NsVin_reply_to_user_id_str
p98
V38162820
p99
sVsource
p100
V<a href="http://twitter.com" rel="nofollow">Twitter Web Client</a>
p101
sVin_reply_to_status_id
p102
L666352340233019392L
sVin_reply_to_screen_name
p103
Vamolrajan
p104
sg58
V666354923152343040
p105
sVplace
p106
NsVretweet_count
p107
I0
sVgeo
p108
Nsg46
L666354923152343040L
sVfavorite_count
p109
I0
sVin_reply_to_user_id
p110
I38162820
ssVis_translation_enabled
p111
I00
sVutc_offset
p112
I7200
sVstatuses_count
p113
I2426
sg35
VLibertarian and Austrian Economist
p114
sVfriends_count
p115
I186
sVlocation
p116
VOz
p117
sVprofile_link_color
p118
V3B94D9
p119
sVprofile_image_url
p120
Vhttp://pbs.twimg.com/profile_images/3395976269/2ca34ff56803752bf623f1e47cf52f9c_normal.png
p121
sVfollowing
p122
NsVgeo_enabled
p123
I00
sVprofile_banner_url
p124
Vhttps://pbs.twimg.com/profile_banners/80052046/1363604983
p125
sVprofile_background_image_url
p126
Vhttp://pbs.twimg.com/profile_background_images/42901871/gold.jpg
p127
sg76
Vchrysotheras
p128
sg65
Ven
p129
sVprofile_background_tile
p130
I01
sVfavourites_count
p131
I902
sg78
VChrysotheras
p132
sVnotifications
p133
Nsg23
Vhttp://t.co/oPGixQxNPA
p134
sg92
VMon Oct 05 15:34:32 +0000 2009
p135
sVcontributors_enabled
p136
I00
sVtime_zone
p137
VAthens
p138
sVprotected
p139
I00
sVdefault_profile
p140
I00
sVis_translator
p141
I00
ssS'contributors_enabled'
p142
I00
sS'profile_text_color'
p143
g51
sS'followers_count'
p144
I114
sS'profile_sidebar_border_color'
p145
g57
sS'id_str'
p146
g59
sS'default_profile_image'
p147
I00
sS'listed_count'
p148
I11
sS'status'
p149
g8
(ctweepy.models
Status
p150
g10
Ntp151
Rp152
(dp153
S'favorited'
p154
I00
sS'contributors'
p155
NsS'truncated'
p156
I00
sS'text'
p157
g91
sS'source_url'
p158
Vhttp://twitter.com
p159
sS'in_reply_to_status_id'
p160
L666352340233019392L
sS'geo'
p161
Nsg19
L666354923152343040L
sS'favorite_count'
p162
I0
sS'lang'
p163
g66
sg21
g68
sS'created_at'
p164
cdatetime
datetime
p165
(S"\x07\xdf\x0b\x10\x14'\x1c\x00\x00\x00"
p166
tp167
Rp168
sg40
g64
sS'coordinates'
p169
NsS'in_reply_to_user_id_str'
p170
g99
sS'source'
p171
VTwitter Web Client
p172
sS'in_reply_to_status_id_str'
p173
g96
sS'in_reply_to_screen_name'
p174
g104
sg146
g105
sS'retweeted'
p175
I00
sS'place'
p176
NsS'retweet_count'
p177
I0
sS'in_reply_to_user_id'
p178
I38162820
sbsS'is_translation_enabled'
p179
I00
sS'utc_offset'
p180
I7200
sS'statuses_count'
p181
I2426
sS'description'
p182
g114
sS'friends_count'
p183
I186
sS'location'
p184
g117
sS'profile_link_color'
p185
g119
sS'profile_image_url'
p186
g121
sS'notifications'
p187
NsS'geo_enabled'
p188
I00
sS'profile_background_color'
p189
g61
sS'profile_banner_url'
p190
g125
sS'profile_background_image_url'
p191
g127
sS'screen_name'
p192
g128
sg163
g129
sg1
I00
sS'profile_background_tile'
p193
I01
sS'favourites_count'
p194
I902
sS'name'
p195
g132
sS'url'
p196
g134
sg164
g165
(S'\x07\xd9\n\x05\x0f" \x00\x00\x00'
p197
tp198
Rp199
sS'profile_background_image_url_https'
p200
g48
sS'time_zone'
p201
g138
sS'protected'
p202
I00
sS'default_profile'
p203
I00
sS'is_translator'
p204
I00
sbs.