(dp0
S'following'
p1
(lp2
(lp3
I195746945
aL2203436131L
aL3222291459L
aI1976143068
aI1963312058
aI17006157
aI869478499
aI26574283
aI18856867
aI56413858
aI15723933
aI12794362
aI106498703
aI404422077
aI252751061
aI14216123
aI1283588581
aI201296379
aI201706499
aI37564410
aI296924721
aI203859927
aI207435193
aI330578621
aI60473581
aI20888115
aI74185959
aI16719112
aI14819993
aI55007147
aI35625099
aL2585416453L
aI460375632
aI6786232
aI812107
aI107096758
aI583621348
aI716671512
aI14465640
aI1534167900
aI151106990
aI60693203
aI1900708207
aI249768777
aI923263237
aI248373197
aI27761886
aI69921786
aI45876636
aI51205137
aI340488060
aI1542893544
aL2212139871L
aL3347486698L
aI28165046
aL3326733263L
aI118053239
aI1172986574
aL2952037349L
aI323845126
aL2523375564L
aI517392967
aI713902542
aI14250809
aI17780244
aI285807381
aI273899875
aI859644246
aI19739279
aI994678032
aI94135531
aI618944356
aI382610090
aI431079768
aI1367531
aI15012486
aI5392522
aI788524
aI28785486
aI742143
aI5402612
aI18858395
aI20169416
aI21164079
aI20449296
aI27889439
aI2884771
aI27860681
aI14173315
aI759251
aI6017542
aI2097571
aI14511951
aI14677919
aI155300737
aL2999671493L
aL2999658401L
aL2999752275L
aL2999776817L
aL2999632161L
aL2999804950L
aL2999672518L
aL2999680401L
aL2999689781L
aL2999735878L
aI17549691
aI241789496
aI16726035
aI15296897
aI1958752610
aI30818980
aI84402174
aI23059499
aI29994840
aI14886375
aI264260435
aI38164846
aI8350912
aL2294267436L
aI621523
aI84281104
aI16664681
aI137253079
aI82896397
aI116421627
aI74419919
aI33459117
aI173814820
aI633076050
aI376941211
aI491427269
aI1560041125
aI398815368
aI19184457
aI300157524
aI23484039
aI15764136
aI432383685
aI28824825
aI183188385
aL2422091941L
aI28145010
aI11856142
aI59736898
aI59486068
aI14159148
aI25390350
aI5120691
aI15281391
aI28164923
aI2735591
aI28162128
aI25098482
aI338985020
aI16184358
aI87818409
aI120176950
aI637337050
aI1877831
aI15108702
aI2467791
aI64759929
aI51241574
aI428333
aI15072071
aI1652541
aI69620713
aI35002876
aI83466368
aI104237736
aI53767000
aI1702197126
aI1754641
aI61149762
aL2995687937L
aL2971141575L
aI272937269
aL2785148903L
aI101664219
aI369914677
aI523512413
aI326698989
aI1682801258
aI553429510
aI27725199
aI416500476
aI311497771
aI23556859
aI154557361
aI11014272
aI16334857
aI28140646
aI14293310
aI25053299
aI19407053
aL2472363631L
aI67358777
aI21323268
aI4898091
aI18949452
aI32359921
aI14800270
aI20562637
aI20402945
aI5988062
aI3108351
aI91478624
aI15110357
aI624413
aI19546277
aI18639734
aI17622474
aI15935591
aI28523418
aI48001143
aI374672240
aI26538229
aI235322186
aI27707080
aI48646451
aI229178711
aI96980152
aL2361758095L
aI122394817
aI1500752648
aL2528536557L
aI620034505
aL2305714605L
aL2506947680L
aL2155215398L
aI465811969
aI950341134
aL2491702663L
aI1964571728
aI49611016
aI16719746
aI1326900967
aI16439117
aI160798206
aI337853585
aI192993192
aI205789121
aI61875147
aI207507805
aI360685668
aI426159377
aI253167239
aI65174274
aI23756134
aI240826569
aI21328656
aI92055625
aI92564226
aI45564482
aI807095
aI15438913
aI5695632
aI222177693
aI138182116
aI25953981
aI601002151
aI48949826
aI461922813
aI310250796
aI385379344
aI1158286074
aI364513528
aI1536777739
aI285337513
aI420404027
aI550202880
aI312745342
aI34713362
aI296740085
aI250309930
aI39068709
aI409486555
aI222961005
aI463293053
aI148964514
aI7607262
aI626384623
aI463153841
aI19397785
aI1262458416
aI8493812
aI72309604
aI1061129772
aI94366884
aI223406334
aI83864876
aI24906326
aI222642262
aI93830142
aI274049426
aI17508660
aI26073581
aI28332028
aI352289815
aI431955045
aI294762324
aI37859985
aI85299326
aI416920134
aI14998174
aI69255422
aI789583490
aI180372064
aI28565356
aI64674098
aI2649991
aI115662303
aI966223693
aI19976004
aI14389177
aI378632690
aI395999686
aI101221079
aI125430181
aI437547229
aI754892875
aI86337508
aI61164211
aI200814625
aI301472331
aI462425418
aI16097522
aI34737026
aI389438626
aI1085551
aI52331565
aI16717501
aI466742492
aI270882139
aI259356115
aI614278780
aI19341180
aI134254125
aI41617418
aI40983270
aI367150399
aI49923073
aI71276583
aI611278226
aI463780243
aI24023754
aI325086171
aI79145543
aI498840131
aI37650492
aI893284381
aI617889485
aI39958018
aI622643107
aI15246362
aI18936161
aI111416652
aI243639563
aI617968519
aI110827653
aI47399805
aI227303148
aI46641505
aI24744541
aI215711459
aI813286
aI56637253
aI18814998
aI68440549
aasS'followers'
p4
(lp5
(lp6
L3154126637L
aI57607554
aI1948160774
aI425907178
aI221789529
aI591331840
aI268285182
aI594149589
aI1911169130
aI552137768
aL3180769543L
aI22419717
aI21676980
aI1098320611
aL2493962683L
aL2819591241L
aL4128414807L
aI594096575
aL3899191994L
aI15812297
aL2713725350L
aI1375860338
aI583621348
aL3222291459L
aI48486244
aI1408000388
aL2203436131L
aI127967449
aL2872765261L
aL3347486698L
aI952046245
aI287885364
aL2585416453L
aI1334422010
aI259056263
aL2985013655L
aL3144965698L
aL3142005128L
aL2765960011L
aI929325907
aI618944356
aI616995036
aL2239430085L
aI517392967
aI300157524
aL2995687937L
aL2971141575L
aI272937269
aL2463364504L
aI311497771
aI1600814222
aL2696870198L
aI1542893544
aL2675783256L
aI315002750
aL2615465766L
aL2472363631L
aL2427381438L
aL2212139871L
aI285337513
aI420404027
aI416920134
aI312745342
aI431955045
aI1248117721
aI259356115
aI41617418
aI463780243
aI893284381
aI56637253
aI617968519
aI622643107
aI243639563
aasS'obj'
p7
ccopy_reg
_reconstructor
p8
(ctweepy.models
User
p9
c__builtin__
object
p10
Ntp11
Rp12
(dp13
S'follow_request_sent'
p14
NsS'has_extended_profile'
p15
I00
sS'profile_use_background_image'
p16
I01
sS'profile_sidebar_fill_color'
p17
VDDEEF6
p18
sS'id'
p19
I802167506
sS'verified'
p20
I00
sS'entities'
p21
(dp22
Vdescription
p23
(dp24
Vurls
p25
(lp26
sssS'profile_image_url_https'
p27
Vhttps://pbs.twimg.com/profile_images/615768164547194880/F_SI67hC_normal.jpg
p28
sS'_json'
p29
(dp30
Vfollow_request_sent
p31
NsVhas_extended_profile
p32
I00
sVprofile_use_background_image
p33
I01
sVdefault_profile_image
p34
I00
sVid
p35
I802167506
sVprofile_background_image_url_https
p36
Vhttps://abs.twimg.com/images/themes/theme1/bg.png
p37
sVverified
p38
I00
sVprofile_text_color
p39
V333333
p40
sVprofile_image_url_https
p41
g28
sVprofile_sidebar_fill_color
p42
g18
sVentities
p43
g22
sVfollowers_count
p44
I73
sVprofile_sidebar_border_color
p45
VC0DEED
p46
sVid_str
p47
V802167506
p48
sVprofile_background_color
p49
VC0DEED
p50
sVlisted_count
p51
I0
sVstatus
p52
(dp53
Vcontributors
p54
NsVtruncated
p55
I00
sVtext
p56
VRT @StockTwits: You should always study market breadth. Like this from @Callum_Thomas\u000a\u000a\u2022 200-DAY https://t.co/zZRY7ZgTbJ\u000a\u2022 RSI https://t.co\u2026
p57
sVin_reply_to_status_id
p58
Nsg35
L665931623519637505L
sVfavorite_count
p59
I0
sVsource
p60
V<a href="http://twitter.com/download/iphone" rel="nofollow">Twitter for iPhone</a>
p61
sVretweeted
p62
I00
sVcoordinates
p63
Nsg43
(dp64
Vsymbols
p65
(lp66
(dp67
Vindices
p68
(lp69
I139
aI140
asg56
VSPY
p70
sasVuser_mentions
p71
(lp72
(dp73
g35
I14886375
sg68
(lp74
I3
aI14
asg47
V14886375
p75
sVscreen_name
p76
VStockTwits
p77
sVname
p78
VStockTwits
p79
sa(dp80
g35
I37065910
sg68
(lp81
I71
aI85
asg47
V37065910
p82
sg76
VCallum_Thomas
p83
sg78
VCallum Thomas
p84
sasVhashtags
p85
(lp86
sg25
(lp87
(dp88
Vurl
p89
Vhttps://t.co/zZRY7ZgTbJ
p90
sg68
(lp91
I97
aI120
asVexpanded_url
p92
Vhttp://stks.co/j3Scu
p93
sVdisplay_url
p94
Vstks.co/j3Scu
p95
sa(dp96
g89
Vhttps://t.co/M0Tn6KtM4j
p97
sg68
(lp98
I139
aI140
asg92
Vhttp://stks.co/q3BHB
p99
sg94
Vstks.co/q3BHB
p100
sassVin_reply_to_screen_name
p101
Nsg47
V665931623519637505
p102
sVretweet_count
p103
I21
sVin_reply_to_user_id
p104
NsVfavorited
p105
I00
sVretweeted_status
p106
(dp107
g54
Nsg55
I00
sg56
VYou should always study market breadth. Like this from @Callum_Thomas\u000a\u000a\u2022 200-DAY https://t.co/zZRY7ZgTbJ\u000a\u2022 RSI https://t.co/M0Tn6KtM4j\u000a\u000a$SPY
p108
sg58
Nsg35
L665907498717679616L
sg59
I20
sg60
V<a href="http://twitter.com" rel="nofollow">Twitter Web Client</a>
p109
sg62
I00
sg63
Nsg43
(dp110
g65
(lp111
(dp112
g68
(lp113
I136
aI140
asg56
VSPY
p114
sasg71
(lp115
(dp116
g35
I37065910
sg68
(lp117
I55
aI69
asg47
V37065910
p118
sg76
VCallum_Thomas
p119
sg78
VCallum Thomas
p120
sasg85
(lp121
sg25
(lp122
(dp123
g89
Vhttps://t.co/zZRY7ZgTbJ
p124
sg68
(lp125
I81
aI104
asg92
Vhttp://stks.co/j3Scu
p126
sg94
Vstks.co/j3Scu
p127
sa(dp128
g89
Vhttps://t.co/M0Tn6KtM4j
p129
sg68
(lp130
I111
aI134
asg92
Vhttp://stks.co/q3BHB
p131
sg94
Vstks.co/q3BHB
p132
sassg101
Nsg47
V665907498717679616
p133
sg103
I21
sg104
Nsg105
I00
sVgeo
p134
NsVin_reply_to_user_id_str
p135
NsVpossibly_sensitive
p136
I00
sVlang
p137
Ven
p138
sVcreated_at
p139
VSun Nov 15 15:01:34 +0000 2015
p140
sVin_reply_to_status_id_str
p141
NsVplace
p142
Nssg134
Nsg135
Nsg136
I00
sg137
Ven
p143
sg139
VSun Nov 15 16:37:26 +0000 2015
p144
sg141
Nsg142
NssVis_translation_enabled
p145
I00
sVutc_offset
p146
NsVstatuses_count
p147
I141
sg23
VFinance / Trading / Asset Management ...Practice makes perfect...
p148
sVfriends_count
p149
I369
sVlocation
p150
VFrance
p151
sVprofile_link_color
p152
V0084B4
p153
sVprofile_image_url
p154
Vhttp://pbs.twimg.com/profile_images/615768164547194880/F_SI67hC_normal.jpg
p155
sVfollowing
p156
NsVgeo_enabled
p157
I01
sVprofile_banner_url
p158
Vhttps://pbs.twimg.com/profile_banners/802167506/1419780853
p159
sVprofile_background_image_url
p160
Vhttp://abs.twimg.com/images/themes/theme1/bg.png
p161
sg76
VMiknavarro
p162
sg137
Vfr
p163
sVprofile_background_tile
p164
I00
sVfavourites_count
p165
I1
sg78
VMikn
p166
sVnotifications
p167
Nsg89
Nsg139
VTue Sep 04 10:09:43 +0000 2012
p168
sVcontributors_enabled
p169
I00
sVtime_zone
p170
NsVprotected
p171
I00
sVdefault_profile
p172
I00
sVis_translator
p173
I00
ssS'contributors_enabled'
p174
I00
sS'profile_text_color'
p175
g40
sS'followers_count'
p176
I73
sS'profile_sidebar_border_color'
p177
g46
sS'id_str'
p178
g48
sS'default_profile_image'
p179
I00
sS'listed_count'
p180
I0
sS'status'
p181
g8
(ctweepy.models
Status
p182
g10
Ntp183
Rp184
(dp185
S'favorited'
p186
I00
sS'contributors'
p187
NsS'truncated'
p188
I00
sS'text'
p189
VRT @StockTwits: You should always study market breadth. Like this from @Callum_Thomas\u000a\u000a\u2022 200-DAY https://t.co/zZRY7ZgTbJ\u000a\u2022 RSI https://t.co\u2026
p190
sS'source_url'
p191
Vhttp://twitter.com/download/iphone
p192
sS'possibly_sensitive'
p193
I00
sS'in_reply_to_status_id'
p194
NsS'geo'
p195
Nsg19
L665931623519637505L
sS'favorite_count'
p196
I0
sS'lang'
p197
g143
sS'retweeted_status'
p198
g8
(g182
g10
Ntp199
Rp200
(dp201
g186
I00
sg187
Nsg188
I00
sg189
VYou should always study market breadth. Like this from @Callum_Thomas\u000a\u000a\u2022 200-DAY https://t.co/zZRY7ZgTbJ\u000a\u2022 RSI https://t.co/M0Tn6KtM4j\u000a\u000a$SPY
p202
sg191
Vhttp://twitter.com
p203
sg193
I00
sg194
Nsg195
Nsg19
L665907498717679616L
sg196
I20
sg197
g138
sg21
g110
sS'created_at'
p204
cdatetime
datetime
p205
(S'\x07\xdf\x0b\x0f\x0f\x01"\x00\x00\x00'
p206
tp207
Rp208
sg29
g107
sS'coordinates'
p209
NsS'in_reply_to_user_id_str'
p210
NsS'source'
p211
VTwitter Web Client
p212
sS'in_reply_to_status_id_str'
p213
NsS'in_reply_to_screen_name'
p214
Nsg178
g133
sS'retweeted'
p215
I00
sS'place'
p216
NsS'retweet_count'
p217
I21
sS'in_reply_to_user_id'
p218
Nsbsg21
g64
sg204
g205
(S'\x07\xdf\x0b\x0f\x10%\x1a\x00\x00\x00'
p219
tp220
Rp221
sg29
g53
sg209
Nsg210
Nsg211
VTwitter for iPhone
p222
sg213
Nsg214
Nsg178
g102
sg215
I00
sg216
Nsg217
I21
sg218
NsbsS'is_translation_enabled'
p223
I00
sS'utc_offset'
p224
NsS'statuses_count'
p225
I141
sS'description'
p226
g148
sS'friends_count'
p227
I369
sS'location'
p228
g151
sS'profile_link_color'
p229
g153
sS'profile_image_url'
p230
g155
sS'notifications'
p231
NsS'geo_enabled'
p232
I01
sS'profile_background_color'
p233
g50
sS'profile_banner_url'
p234
g159
sS'profile_background_image_url'
p235
g161
sS'screen_name'
p236
g162
sg197
g163
sg1
I00
sS'profile_background_tile'
p237
I00
sS'favourites_count'
p238
I1
sS'name'
p239
g166
sS'url'
p240
Nsg204
g205
(S'\x07\xdc\t\x04\n\t+\x00\x00\x00'
p241
tp242
Rp243
sS'profile_background_image_url_https'
p244
g37
sS'time_zone'
p245
NsS'protected'
p246
I00
sS'default_profile'
p247
I00
sS'is_translator'
p248
I00
sbs.