(dp0
S'following'
p1
(lp2
(lp3
I236953420
aI19083264
aI35739495
aI259725229
aI17249855
aL3154923455L
aI26402238
aI254280603
aI326745108
aL3730926016L
aI16184358
aI56347262
aI22984739
aL2303751216L
aI84402174
aL3161642778L
aI14104907
aL2231683904L
aI6264512
aI300929831
aI21271771
aI592252072
aI1439033714
aI17583317
aI886594350
aL3095436401L
aI15110357
aL2272207286L
aI97530284
aI7557352
aI16359602
aI331677065
aI27084518
aI11247222
aI8065502
aL2802316930L
aI545618159
aI8496762
aI46063
aI733533786
aI168691253
aL2482710715L
aI799122090
aI7520262
aI105353526
aI112872946
aL2162686621L
aI14935367
aI112597035
aI160625399
aI565969885
aI33045477
aI913175707
aI52126417
aI1375860338
aL2153522846L
aI6267962
aI201891203
aI1526228120
aI321299775
aI3291691
aI473451684
aI636441598
aI25827743
aI16637289
aI15001676
aI24590532
aI717183954
aL2704486915L
aI455824771
aI20680385
aI37284991
aI1001813990
aI19405407
aI20263710
aI35001052
aI1680622674
aI19739279
aI138825272
aI49663664
aI1064700308
aI1546201075
aI272125054
aL2429288503L
aI14541402
aI15921173
aI280572521
aI8500962
aI19046875
aI996072554
aI21232827
aI332617373
aI100024370
aI149560373
aI107242543
aI1238963887
aI394334112
aI193542064
aI15246621
aI16242081
aI352947624
aI16838276
aI238174807
aL2225736080L
aI102475599
aI163538563
aI441123653
aI1025106169
aI1064015220
aI1480033478
aI29742843
aI475524030
aL2244340904L
aI33529946
aI219434223
aI18034541
aI15227849
aI245128113
aI20273398
aI203652149
aI1260213253
aI7640782
aL2170217153L
aI1394399438
aI1607155250
aI282392790
aI26705006
aI106504911
aI1121181
aI89257543
aI14057492
aI95655465
aI1671367940
aI60622883
aI112441291
aI5520332
aI5668942
aI8161232
aI430037432
aI629350856
aI1177065859
aI44695601
aI202915788
aI168679374
aI14714176
aI8524892
aI104079354
aI70035742
aI126640430
aI20080284
aI107146393
aI210855604
aI120325121
aI155952299
aI14172679
aI126717954
aI795408560
aI1000591
aI705540042
aI110520327
aI1236101
aI1233663476
aI14434070
aI232219287
aI1636590253
aI7836182
aI227755413
aI19776110
aI298080940
aI271211220
aI408136428
aI373457750
aI575332630
aI804995882
aI527036582
aI106725205
aI22330739
aI1534167900
aI17527100
aI24227424
aI166597717
aI131520534
aI126067662
aI82142636
aI17780244
aI38053161
aI15485461
aI714051110
aI102212196
aI121370906
aI317256470
aI17484252
aI14136886
aI914061
aI705746750
aI455309376
aI271183260
aI379842940
aI19581528
aI29811021
aI224466293
aI124585235
aI52166809
aI97334517
aI97576151
aI140872924
aI478792870
aI306850457
aI88975905
aI738836558
aI44196397
aI1087194962
aI263671861
aI188486317
aI19407053
aI11833002
aI8841372
aI602321455
aI31191074
aI1426761901
aI27729064
aI8295072
aI49542761
aI89225644
aI61342056
aI375980238
aI33423
aI374905024
aI988940606
aI16005828
aI65681636
aI20661433
aI14364194
aI40045763
aI20824126
aI220016580
aI23484039
aI14276189
aI22522178
aI181423144
aI13348
aI14126376
aI22396478
aI56486495
aI341924686
aI272317020
aI58808528
aI55561590
aI19079396
aI88263539
aI52968650
aI1364930179
aI1832181
aI232120274
aI1201661238
aI106529068
aI15368728
aI33039483
aI5943622
aI30684067
aI102094857
aI19579115
aI94143715
aI30628216
aI19079480
aI53215424
aI92451364
aI224811526
aI16026783
aI55626399
aI60783724
aI69041666
aI15820651
aI14547546
aI326315947
aI65466158
aI192533447
aI89043072
aI14600116
aI22774516
aI16955517
aI10078
aI42826771
aI6385432
aI23193379
aI246444102
aI17213701
aI7517052
aI139848857
aI817386
aI885043004
aI381289719
aI898301664
aI396175465
aI4898091
aI17366486
aI17105436
aI16892481
aI430421961
aI140912249
aI30818980
aI20109018
aI98727642
aI207617302
aI1227708073
aI17124991
aI89491245
aI23236916
aI255996385
aI230609065
aI32423136
aI819999
aI3101571
aI247946309
aI23059499
aI18341423
aI16451485
aI14202817
aI20449296
aI244647486
aI104257356
aI16827489
aI28858121
aI32778531
aI1717291
aI12
aI858051
aI21328656
aI5252591
aI254136706
aI5746402
aI252751061
aI8287602
aI32362720
aI156731570
aI18453278
aI216798259
aI19651092
aI14115408
aI331058822
aI5746452
aI541253226
aI602811570
aI818071
aI8965112
aI49753604
aI271138078
aI175754840
aI38476367
aI19988458
aI14216123
aI14886375
aasS'followers'
p4
(lp5
(lp6
I1183838114
aI1485052376
aI1966253173
aI1924312855
aL2792828298L
aL2964459628L
aI19349963
aI131304476
aL3958335833L
aL4081508660L
aL3689318123L
aL3026604299L
aL3325074547L
aL3185484696L
aL3947481623L
aL3947413216L
aI885100116
aL2168144701L
aL2394624246L
aL2549550967L
aI1884628062
aL3154923455L
aL2162686621L
aI189901963
aI316494094
aI26402238
aL2426075533L
aI597799971
aI210684204
aL3486149054L
aL3161642778L
aI592252072
aL3303158502L
aI317790170
aI1912522274
aL2993148593L
aI123298789
aL3258090918L
aL2148198032L
aL2981421573L
aL3239394447L
aL2508335210L
aI881608580
aL3142866090L
aL3119469511L
aL2997788563L
aL2922234899L
aL2985013655L
aL2704486915L
aI1423715634
aL3019790520L
aL2948879195L
aI303531344
aI1533286508
aI611817117
aI795408560
aL2922115476L
aL2561722681L
aI89491245
aI14886375
aI127967449
aL2417993377L
aL2208928297L
aI19405407
aI35001052
aI1189304659
aL2176286749L
aI126640430
aI441123653
aL2176227096L
aI599834586
aI1260213253
aI54789776
aI26705006
aI14057492
aI1671367940
aI29737876
aI629350856
aI1177065859
aI344884809
aI1555923756
aI15897179
aI138302134
aI14136886
aI1062061771
aI433530146
aI18992010
aI40848717
aI65681636
aI19220698
aI1426761901
aI374905024
aI211617699
aI1303091508
aI108657905
aI1076083579
aI29337274
aasS'obj'
p7
ccopy_reg
_reconstructor
p8
(ctweepy.models
User
p9
c__builtin__
object
p10
Ntp11
Rp12
(dp13
S'follow_request_sent'
p14
NsS'has_extended_profile'
p15
I00
sS'profile_use_background_image'
p16
I01
sS'profile_sidebar_fill_color'
p17
VDDEEF6
p18
sS'id'
p19
I809122560
sS'verified'
p20
I00
sS'entities'
p21
(dp22
Vdescription
p23
(dp24
Vurls
p25
(lp26
sssS'profile_image_url_https'
p27
Vhttps://pbs.twimg.com/profile_images/3777835052/6267d37775987642fe1112e41ba86145_normal.jpeg
p28
sS'_json'
p29
(dp30
Vfollow_request_sent
p31
NsVhas_extended_profile
p32
I00
sVprofile_use_background_image
p33
I01
sVdefault_profile_image
p34
I00
sVid
p35
I809122560
sVprofile_background_image_url_https
p36
Vhttps://abs.twimg.com/images/themes/theme1/bg.png
p37
sVverified
p38
I00
sVprofile_text_color
p39
V333333
p40
sVprofile_image_url_https
p41
g28
sVprofile_sidebar_fill_color
p42
g18
sVentities
p43
g22
sVfollowers_count
p44
I97
sVprofile_sidebar_border_color
p45
VC0DEED
p46
sVid_str
p47
V809122560
p48
sVprofile_background_color
p49
VC0DEED
p50
sVlisted_count
p51
I21
sVstatus
p52
(dp53
Vcontributors
p54
NsVtruncated
p55
I00
sVtext
p56
VRT @RyanDetrick: Remember, the past 20 yrs $SPX in Nov has bottomed on the 12th.  Did it just bottom on the 13th?  $SPY https://t.co/T9Dl4d\u2026
p57
sVin_reply_to_status_id
p58
Nsg35
L666400673483722752L
sVfavorite_count
p59
I0
sVsource
p60
V<a href="http://twitter.com/download/iphone" rel="nofollow">Twitter for iPhone</a>
p61
sVretweeted
p62
I00
sVcoordinates
p63
Nsg43
(dp64
Vsymbols
p65
(lp66
(dp67
Vindices
p68
(lp69
I43
aI47
asg56
VSPX
p70
sa(dp71
g68
(lp72
I115
aI119
asg56
VSPY
p73
sasVuser_mentions
p74
(lp75
(dp76
g35
I21232827
sg68
(lp77
I3
aI15
asg47
V21232827
p78
sVscreen_name
p79
VRyanDetrick
p80
sVname
p81
VRyan Detrick, CMT
p82
sasVhashtags
p83
(lp84
sg25
(lp85
sVmedia
p86
(lp87
(dp88
Vsource_user_id
p89
I21232827
sVsource_status_id_str
p90
V666332129014366208
p91
sVexpanded_url
p92
Vhttp://twitter.com/RyanDetrick/status/666332129014366208/photo/1
p93
sVdisplay_url
p94
Vpic.twitter.com/T9Dl4dgySv
p95
sVurl
p96
Vhttps://t.co/T9Dl4dgySv
p97
sVmedia_url_https
p98
Vhttps://pbs.twimg.com/media/CT9JilSUcAATD8H.png
p99
sVsource_user_id_str
p100
V21232827
p101
sVsource_status_id
p102
L666332129014366208L
sg47
V666332128347451392
p103
sVsizes
p104
(dp105
Vsmall
p106
(dp107
Vh
p108
I168
sVresize
p109
Vfit
p110
sVw
p111
I340
ssVlarge
p112
(dp113
g108
I506
sg109
Vfit
p114
sg111
I1024
ssVmedium
p115
(dp116
g108
I296
sg109
Vfit
p117
sg111
I600
ssVthumb
p118
(dp119
g108
I150
sg109
Vcrop
p120
sg111
I150
sssg68
(lp121
I120
aI140
asVtype
p122
Vphoto
p123
sg35
L666332128347451392L
sVmedia_url
p124
Vhttp://pbs.twimg.com/media/CT9JilSUcAATD8H.png
p125
sassVin_reply_to_screen_name
p126
Nsg47
V666400673483722752
p127
sVretweet_count
p128
I27
sVin_reply_to_user_id
p129
NsVfavorited
p130
I00
sVretweeted_status
p131
(dp132
g54
Nsg55
I00
sg56
VRemember, the past 20 yrs $SPX in Nov has bottomed on the 12th.  Did it just bottom on the 13th?  $SPY https://t.co/T9Dl4dgySv
p133
sg58
Nsg35
L666332129014366208L
sg59
I42
sg60
V<a href="http://stocktwits.com" rel="nofollow">StockTwits Web</a>
p134
sg62
I00
sg63
Nsg43
(dp135
g65
(lp136
(dp137
g68
(lp138
I26
aI30
asg56
VSPX
p139
sa(dp140
g68
(lp141
I98
aI102
asg56
VSPY
p142
sasg74
(lp143
sg83
(lp144
sg25
(lp145
sg86
(lp146
(dp147
g92
Vhttp://twitter.com/RyanDetrick/status/666332129014366208/photo/1
p148
sg94
Vpic.twitter.com/T9Dl4dgySv
p149
sg96
Vhttps://t.co/T9Dl4dgySv
p150
sg98
Vhttps://pbs.twimg.com/media/CT9JilSUcAATD8H.png
p151
sg47
V666332128347451392
p152
sg104
(dp153
g106
(dp154
g108
I168
sg109
Vfit
p155
sg111
I340
ssg112
(dp156
g108
I506
sg109
Vfit
p157
sg111
I1024
ssg115
(dp158
g108
I296
sg109
Vfit
p159
sg111
I600
ssg118
(dp160
g108
I150
sg109
Vcrop
p161
sg111
I150
sssg68
(lp162
I103
aI126
asg122
Vphoto
p163
sg35
L666332128347451392L
sg124
Vhttp://pbs.twimg.com/media/CT9JilSUcAATD8H.png
p164
sassg126
Nsg47
V666332129014366208
p165
sg128
I27
sg129
Nsg130
I00
sVgeo
p166
NsVin_reply_to_user_id_str
p167
NsVpossibly_sensitive
p168
I00
sVlang
p169
Ven
p170
sVcreated_at
p171
VMon Nov 16 19:08:54 +0000 2015
p172
sVin_reply_to_status_id_str
p173
NsVplace
p174
Nssg166
Nsg167
Nsg168
I00
sg169
Ven
p175
sg171
VMon Nov 16 23:41:16 +0000 2015
p176
sg173
Nsg174
NssVis_translation_enabled
p177
I00
sVutc_offset
p178
NsVstatuses_count
p179
I3723
sg23
VApprentice Swing Trader whose reach often exceeds his grasp. Premium seller.  Duration over direction.
p180
sVfriends_count
p181
I352
sVlocation
p182
V
p183
sVprofile_link_color
p184
V0084B4
p185
sVprofile_image_url
p186
Vhttp://pbs.twimg.com/profile_images/3777835052/6267d37775987642fe1112e41ba86145_normal.jpeg
p187
sVfollowing
p188
NsVgeo_enabled
p189
I00
sVprofile_banner_url
p190
Vhttps://pbs.twimg.com/profile_banners/809122560/1370808640
p191
sVprofile_background_image_url
p192
Vhttp://abs.twimg.com/images/themes/theme1/bg.png
p193
sg79
Vjmaykey
p194
sg169
Ven
p195
sVprofile_background_tile
p196
I00
sVfavourites_count
p197
I4086
sg81
VThomas Paul
p198
sVnotifications
p199
Nsg96
Nsg171
VFri Sep 07 15:54:47 +0000 2012
p200
sVcontributors_enabled
p201
I00
sVtime_zone
p202
NsVprotected
p203
I00
sVdefault_profile
p204
I01
sVis_translator
p205
I00
ssS'contributors_enabled'
p206
I00
sS'profile_text_color'
p207
g40
sS'followers_count'
p208
I97
sS'profile_sidebar_border_color'
p209
g46
sS'id_str'
p210
g48
sS'default_profile_image'
p211
I00
sS'listed_count'
p212
I21
sS'status'
p213
g8
(ctweepy.models
Status
p214
g10
Ntp215
Rp216
(dp217
S'favorited'
p218
I00
sS'contributors'
p219
NsS'truncated'
p220
I00
sS'text'
p221
g57
sS'source_url'
p222
Vhttp://twitter.com/download/iphone
p223
sS'possibly_sensitive'
p224
I00
sS'in_reply_to_status_id'
p225
NsS'geo'
p226
Nsg19
L666400673483722752L
sS'favorite_count'
p227
I0
sS'lang'
p228
g175
sS'retweeted_status'
p229
g8
(g214
g10
Ntp230
Rp231
(dp232
g218
I00
sg219
Nsg220
I00
sg221
g133
sg222
Vhttp://stocktwits.com
p233
sg224
I00
sg225
Nsg226
Nsg19
L666332129014366208L
sg227
I42
sg228
g170
sg21
g135
sS'created_at'
p234
cdatetime
datetime
p235
(S'\x07\xdf\x0b\x10\x13\x086\x00\x00\x00'
p236
tp237
Rp238
sg29
g132
sS'coordinates'
p239
NsS'in_reply_to_user_id_str'
p240
NsS'source'
p241
VStockTwits Web
p242
sS'in_reply_to_status_id_str'
p243
NsS'in_reply_to_screen_name'
p244
Nsg210
g165
sS'retweeted'
p245
I00
sS'place'
p246
NsS'retweet_count'
p247
I27
sS'in_reply_to_user_id'
p248
Nsbsg21
g64
sg234
g235
(S'\x07\xdf\x0b\x10\x17)\x10\x00\x00\x00'
p249
tp250
Rp251
sg29
g53
sg239
Nsg240
Nsg241
VTwitter for iPhone
p252
sg243
Nsg244
Nsg210
g127
sg245
I00
sg246
Nsg247
I27
sg248
NsbsS'is_translation_enabled'
p253
I00
sS'utc_offset'
p254
NsS'statuses_count'
p255
I3723
sS'description'
p256
g180
sS'friends_count'
p257
I352
sS'location'
p258
g183
sS'profile_link_color'
p259
g185
sS'profile_image_url'
p260
g187
sS'notifications'
p261
NsS'geo_enabled'
p262
I00
sS'profile_background_color'
p263
g50
sS'profile_banner_url'
p264
g191
sS'profile_background_image_url'
p265
g193
sS'screen_name'
p266
g194
sg228
g195
sg1
I00
sS'profile_background_tile'
p267
I00
sS'favourites_count'
p268
I4086
sS'name'
p269
g198
sS'url'
p270
Nsg234
g235
(S'\x07\xdc\t\x07\x0f6/\x00\x00\x00'
p271
tp272
Rp273
sS'profile_background_image_url_https'
p274
g37
sS'time_zone'
p275
NsS'protected'
p276
I00
sS'default_profile'
p277
I01
sS'is_translator'
p278
I00
sbs.