(dp0
S'following'
p1
(lp2
(lp3
I36288874
aI236953420
aI141453630
aI1534167900
aI259471396
aI25073877
aI340037225
aI23236916
aI70498392
aI40300931
aI1354704283
aI377714371
aI402369160
aI1320073344
aL2196092280L
aI31546412
aI16371383
aI18856867
aI37284991
aI44567303
aI475524030
aI221969789
aI39294671
aI22522178
aI140149665
aI433664446
aI264370502
aI1087194962
aI65681636
aI20854318
aI40099128
aI64888916
aI61342056
aI51241574
aI19739279
aI733533786
aI72907355
aI82142636
aI53215424
aI27990259
aI455824771
aI14216123
aI20800915
aasS'followers'
p4
(lp5
(lp6
L3007937578L
aL3262634978L
aL3382360792L
aI981236256
aL3349475003L
aI48486244
aI1904689014
aI23658838
aI581388367
aI127354276
aL2314289604L
aI418789040
aI1263288692
aL2892133511L
aI1583359764
aI30869396
aL3732057555L
aL3900364168L
aL3344256579L
aL2837882056L
aI141453630
aI1098360060
aL3319136443L
aI85436137
aI328098201
aI442035616
aI488908283
aI588387661
aL2972555345L
aL3068523854L
aL3306248044L
aL3485492116L
aI38683421
aI205330371
aL3388556074L
aL2330801192L
aI28546792
aL3254008736L
aI552243033
aL3476901613L
aI711262916
aL3330413428L
aI67810918
aI359482411
aI563894406
aL3365004553L
aL2297935869L
aI32944358
aI393733048
aI907346244
aI99204929
aL3314427716L
aL2773587075L
aI52841010
aI737310644
aL3342827956L
aI1286540352
aI26382514
aI29325637
aL3311497333L
aI237945179
aI83449798
aI1571456736
aI33186913
aI602039028
aI343347222
aL3394569273L
aL2171111726L
aI414595984
aI9681052
aI97979326
aI81543575
aI881182010
aI32960676
aL2898526274L
aI25328798
aI367530506
aI741467216
aL2890958482L
aI1226105720
aI191167057
aL3249996427L
aI1530916794
aI35379263
aI48797303
aI18128325
aI976846634
aI393162211
aI16868606
aI201005905
aI1018254973
aI700495327
aI912608107
aI381677297
aI56632241
aI436109412
aI339474781
aI1926819872
aI367834466
aI278872292
aI199051201
aI33458274
aI211640120
aL3240089563L
aI430399569
aI1522614146
aI340037225
aL3278201701L
aI778534424
aI21436811
aI215867423
aI32283888
aI214370416
aI363416799
aI971129101
aI127967449
aL3269446423L
aI23236916
aL2236152487L
aI377714371
aL2244652454L
aI239453714
aI239609329
aI709186618
aL2703840623L
aI416835822
aI58240159
aL2399295261L
aI120672388
aL2433200225L
aI225384840
aI1032276320
aL2558913254L
aL2792303893L
aL3094339791L
aI618349347
aL2686353036L
aI148186622
aI75354209
aL3096837242L
aL2347481757L
aI76285323
aI350969994
aL2928063811L
aL2585057160L
aL2432028553L
aL3191031566L
aI1259343733
aI374071770
aI247818545
aI453580793
aL3233583831L
aI514720100
aI1233362096
aI41589757
aI1340428375
aI218752033
aI977782442
aI92490812
aI1666337551
aI79547213
aI615377615
aL3292975720L
aI470493866
aI19103794
aI403890957
aI16816021
aI224387007
aL2936668420L
aI296315207
aI181048547
aI1007678504
aI117145112
aI1228537610
aI1529271854
aI55600579
aL2405378612L
aI611817117
aL3187274327L
aL2830903194L
aI20800915
aI1410550884
aL2576236079L
aI864139724
aL2992752063L
aI40300931
aL3136697819L
aI257882635
aL2971808979L
aI432534923
aI73284178
aI579455181
aL2966889492L
aI609701978
aL2936273911L
aL3130350556L
aI499158097
aL2192974494L
aL2236826372L
aI104215545
aL2992549800L
aI363660771
aL2438901597L
aI478061208
aI233177448
aL2430846618L
aI986118085
aI400866209
aI366880840
aI42820447
aL2419848084L
aI560382293
aI486255856
aL2988742673L
aI546787480
aL2956444112L
aI20385337
aI46836509
aL2922115476L
aI270418163
aI213636586
aI54288245
aI402929013
aI16918332
aI421945221
aI836970397
aI822019014
aI747357996
aI335192769
aI43402916
aL2151443198L
aI1537481371
aI170031505
aI483143652
aI426232054
aL2717355538L
aI17517897
aI27980718
aL2284356674L
aL2717069001L
aI62226476
aI372547581
aL2924431226L
aI250317700
aI15897179
aI1954941324
aI231921282
aI556661433
aL2890110061L
aI50022776
aI394202557
aL2904098999L
aI96684360
aI830322090
aI187210094
aI550648776
aI78353574
aI1677284994
aI25839443
aI22579356
aL2227833432L
aI234172416
aI7172232
aL2423662182L
aI402369160
aI72546466
aL2380707067L
aL2754530456L
aI276089088
aL2812070183L
aL2541486013L
aL2465128316L
aL2327817470L
aI954086203
aI755771490
aI16601312
aL2511518101L
aL2810651798L
aI114942055
aL2717153246L
aI68150394
aL2586241470L
aL2752076368L
aI32975846
aI175004773
aI198996137
aL2751266358L
aL2695444106L
aI1270470372
aI600961508
aI286604137
aI1511752548
aL2305952286L
aL2585778152L
aI16209823
aI265025787
aL2601745903L
aL2302267966L
aI1193201976
aI20246132
aI154397766
aL2564258690L
aI575686941
aI630130408
aI54664941
aI43123567
aI46387969
aL2478889918L
aI119464234
aL2391096549L
aI1966154155
aI19030886
aI44567303
aI142160929
aI1967170620
aI532434867
aL2411284602L
aL2363507684L
aI52804572
aI20854318
aI717640623
aI1076500188
aL2290233072L
aL2379195374L
aI17324802
aI247788883
aI1273506308
aI158762027
aI710119320
aL2282402046L
aI1007087737
aI65681636
aI68999154
aL2353821145L
aL2161500992L
aI151044005
aL2324066406L
aI43950136
aI372047064
aI15098137
aL2278387778L
aI404196012
aI1966135748
aI19739279
aL2242298871L
aI1916007866
aI1524309085
aI221969789
aI342766370
aI1203090086
aI182808623
aI299934891
aI119087719
aL2183192892L
aI41555074
aI615322477
aI320266122
aI302273348
aI363298536
aI217889401
aI400144994
aI211316225
aI343062437
aI1343243598
aI301194455
aI569188885
aI14051297
aI22271259
aI89755078
aI101588305
aI367455871
aI1888405172
aI848391416
aI338635632
aI138594671
aI103697853
aI40099128
aI1884827576
aI1143851010
aI257942221
aI437899860
aI1717300700
aI14886375
aI764723516
aI384367653
aI1258155990
aI298097760
aI16004376
aI19010961
aI1394376822
aI1584764552
aI73418347
aI244702210
aI315841211
aI312747900
aI1059211226
aI40773967
aI989088871
aI13471032
aI252140467
aI88609394
aI1462240951
aI527211018
aI60684241
aI557788373
aI379172971
aI192561559
aI415496591
aI495205951
aI388091876
aI394980333
aI615329833
aI25277152
aI986721372
aI400699983
aI371692644
aI872055920
aasS'obj'
p7
ccopy_reg
_reconstructor
p8
(ctweepy.models
User
p9
c__builtin__
object
p10
Ntp11
Rp12
(dp13
S'follow_request_sent'
p14
NsS'has_extended_profile'
p15
I00
sS'profile_use_background_image'
p16
I01
sS'profile_sidebar_fill_color'
p17
VDDEEF6
p18
sS'id'
p19
I848311970
sS'verified'
p20
I00
sS'entities'
p21
(dp22
Vdescription
p23
(dp24
Vurls
p25
(lp26
sssS'profile_image_url_https'
p27
Vhttps://pbs.twimg.com/profile_images/591636289088147456/xaHAv__B_normal.png
p28
sS'_json'
p29
(dp30
Vfollow_request_sent
p31
NsVhas_extended_profile
p32
I00
sVprofile_use_background_image
p33
I01
sVdefault_profile_image
p34
I00
sVid
p35
I848311970
sVprofile_background_image_url_https
p36
Vhttps://abs.twimg.com/images/themes/theme1/bg.png
p37
sVverified
p38
I00
sVprofile_text_color
p39
V333333
p40
sVprofile_image_url_https
p41
g28
sVprofile_sidebar_fill_color
p42
g18
sVentities
p43
g22
sVfollowers_count
p44
I417
sVprofile_sidebar_border_color
p45
VC0DEED
p46
sVid_str
p47
V848311970
p48
sVprofile_background_color
p49
VC0DEED
p50
sVlisted_count
p51
I30
sVstatus
p52
(dp53
Vlang
p54
Ven
p55
sVfavorited
p56
I00
sg43
(dp57
Vsymbols
p58
(lp59
(dp60
Vindices
p61
(lp62
I0
aI4
asVtext
p63
VUSO
p64
sasVuser_mentions
p65
(lp66
sVhashtags
p67
(lp68
sg25
(lp69
ssVcontributors
p70
NsVtruncated
p71
I00
sg63
V$USO / oil  trending here on headlines and near of a trend break on 5 min
p72
sVcreated_at
p73
VMon Nov 16 17:43:35 +0000 2015
p74
sVretweeted
p75
I00
sVin_reply_to_status_id_str
p76
NsVcoordinates
p77
NsVin_reply_to_user_id_str
p78
NsVsource
p79
V<a href="http://twitter.com" rel="nofollow">Twitter Web Client</a>
p80
sVin_reply_to_status_id
p81
NsVin_reply_to_screen_name
p82
Nsg47
V666310660515590145
p83
sVplace
p84
NsVretweet_count
p85
I0
sVgeo
p86
Nsg35
L666310660515590145L
sVfavorite_count
p87
I0
sVin_reply_to_user_id
p88
NssVis_translation_enabled
p89
I00
sVutc_offset
p90
I-18000
sVstatuses_count
p91
I10850
sg23
Vprefer long biased trades based on technicals. stocks, options, futures
p92
sVfriends_count
p93
I43
sVlocation
p94
VWindermere Florida
p95
sVprofile_link_color
p96
V0084B4
p97
sVprofile_image_url
p98
Vhttp://pbs.twimg.com/profile_images/591636289088147456/xaHAv__B_normal.png
p99
sVfollowing
p100
NsVgeo_enabled
p101
I01
sVprofile_banner_url
p102
Vhttps://pbs.twimg.com/profile_banners/848311970/1406807429
p103
sVprofile_background_image_url
p104
Vhttp://abs.twimg.com/images/themes/theme1/bg.png
p105
sVscreen_name
p106
VOptionsavvy
p107
sg54
Ven
p108
sVprofile_background_tile
p109
I00
sVfavourites_count
p110
I1418
sVname
p111
VScott R
p112
sVnotifications
p113
NsVurl
p114
Nsg73
VWed Sep 26 23:30:09 +0000 2012
p115
sVcontributors_enabled
p116
I00
sVtime_zone
p117
VEastern Time (US & Canada)
p118
sVprotected
p119
I00
sVdefault_profile
p120
I01
sVis_translator
p121
I00
ssS'contributors_enabled'
p122
I00
sS'profile_text_color'
p123
g40
sS'followers_count'
p124
I417
sS'profile_sidebar_border_color'
p125
g46
sS'id_str'
p126
g48
sS'default_profile_image'
p127
I00
sS'listed_count'
p128
I30
sS'status'
p129
g8
(ctweepy.models
Status
p130
g10
Ntp131
Rp132
(dp133
S'favorited'
p134
I00
sS'contributors'
p135
NsS'truncated'
p136
I00
sS'text'
p137
g72
sS'source_url'
p138
Vhttp://twitter.com
p139
sS'in_reply_to_status_id'
p140
NsS'geo'
p141
Nsg19
L666310660515590145L
sS'favorite_count'
p142
I0
sS'lang'
p143
g55
sg21
g57
sS'created_at'
p144
cdatetime
datetime
p145
(S'\x07\xdf\x0b\x10\x11+#\x00\x00\x00'
p146
tp147
Rp148
sg29
g53
sS'coordinates'
p149
NsS'in_reply_to_user_id_str'
p150
NsS'source'
p151
VTwitter Web Client
p152
sS'in_reply_to_status_id_str'
p153
NsS'in_reply_to_screen_name'
p154
Nsg126
g83
sS'retweeted'
p155
I00
sS'place'
p156
NsS'retweet_count'
p157
I0
sS'in_reply_to_user_id'
p158
NsbsS'is_translation_enabled'
p159
I00
sS'utc_offset'
p160
I-18000
sS'statuses_count'
p161
I10850
sS'description'
p162
g92
sS'friends_count'
p163
I43
sS'location'
p164
g95
sS'profile_link_color'
p165
g97
sS'profile_image_url'
p166
g99
sS'notifications'
p167
NsS'geo_enabled'
p168
I01
sS'profile_background_color'
p169
g50
sS'profile_banner_url'
p170
g103
sS'profile_background_image_url'
p171
g105
sS'screen_name'
p172
g107
sg143
g108
sg1
I00
sS'profile_background_tile'
p173
I00
sS'favourites_count'
p174
I1418
sS'name'
p175
g112
sS'url'
p176
Nsg144
g145
(S'\x07\xdc\t\x1a\x17\x1e\t\x00\x00\x00'
p177
tp178
Rp179
sS'profile_background_image_url_https'
p180
g37
sS'time_zone'
p181
g118
sS'protected'
p182
I00
sS'default_profile'
p183
I01
sS'is_translator'
p184
I00
sbs.