(dp0
S'following'
p1
(lp2
(lp3
L4014502642L
aI583938358
aI33216611
aI1469603575
aI16755855
aI25093616
aI65448361
aI31186367
aI620416155
aI183303019
aL2899787986L
aI299299337
aL3351531112L
aI858646280
aL3095781095L
aI196839573
aI397230151
aI33792634
aI330827198
aI34681960
aI67517641
aI40972132
aI8559342
aI16334857
aI1364930179
aI67683728
aI31158841
aI18803987
aI52529896
aI562016924
aL3320010078L
aI245841182
aI1093113236
aI15823646
aI41980930
aI15522756
aI270296701
aI141748686
aI82763111
aI24590532
aI98561160
aI34735936
aI32492934
aI84703910
aI26006232
aI360376862
aI1320497330
aI123930213
aI701411095
aI24374950
aI16347506
aI365781869
aI41330603
aI61653212
aI1652541
aI73280005
aI16672159
aI87954771
aI20899023
aI35385104
aI26141091
aL3188136895L
aI810094262
aI71023061
aI19355454
aL3426014292L
aI237764259
aI241964676
aI370885861
aL2828726820L
aI97530284
aI15072071
aL3314956698L
aI31109048
aI5746402
aI16584443
aL3489420013L
aL3545985801L
aL3301788987L
aI38370519
aI224982279
aI45921165
aI41402360
aI69068975
aI701474065
aI33627581
aI80864710
aI15836769
aI14230772
aI430664821
aI175966217
aI1358062944
aI790136510
aI48747306
aI25355724
aI26257166
aI51263592
aI455366870
aI35002876
aL2361288673L
aI23138301
aI21701757
aI37193704
aI326315947
aI21436663
aI160625399
aI27048645
aI106507775
aI17473062
aI15583174
aI27898122
aI57100687
aI15635604
aI432819003
aI39542432
aL2648357839L
aI19426551
aI13400562
aI281877818
aI364477412
aI4898091
aI259547567
aI19019298
aI106498703
aI834281252
aI51768731
aI49510088
aI209907837
aI1265726480
aI14946736
aI602321455
aL2244306842L
aI160298969
aI262763182
aI26516576
aI54238128
aI961797541
aI148152451
aI24890096
aI65739179
aI23234807
aI314005753
aI31312599
aI714441955
aI204520854
aI104385665
aI352053266
aI36354710
aI135917962
aI584179962
aI8775672
aI338091511
aI22650398
aI236526490
aI38679388
aI59316702
aL2285456281L
aI44470680
aI168691253
aI1534167900
aI234044087
aI140912249
aI1069486704
aL2812632288L
aI219229259
aL3129807446L
aI15296897
aI338875694
aI16732770
aI334571039
aI545618159
aL2253557707L
aI15231287
aL2244340904L
aI23484039
aI769742234
aI235322186
aI23756134
aI26524127
aI385731939
aI62562916
aI29982353
aI387332001
aI1178011
aI574032254
aI107498032
aI28172926
aI250697732
aI14216123
aI19717430
aI61212645
aI23892927
aI51205137
aI20449296
aI139824935
aI487955691
aI211533089
aI16211061
aI4170491
aI210890079
aL2457018674L
aI1310354202
aL2177043126L
aI248836670
aI733086954
aI126118683
aI540122045
aI17346287
aI1292563332
aI553721053
aI500704345
aI25570548
aI431482954
aI34713362
aI423172432
aI1676140962
aI14167997
aI174385219
aI632341632
aI16689804
aI431071870
aI296924721
aI208120290
aI172023851
aI188001904
aI188829085
aI864844830
aI3108351
aI13171622
aI69620713
aI260393040
aL2590675464L
aI473451684
aI612896910
aI57111966
aI1059530150
aL2231913055L
aL2999671493L
aI14412844
aI14446488
aI1429550540
aI166597717
aI1329243757
aI41866944
aI414600500
aI15934026
aI923263237
aI56121651
aI42924141
aI15764136
aI1475988331
aI55308734
aI40938160
aI16816021
aI104952689
aI245865792
aI14617149
aI216798259
aI574002891
aI32468665
aI40045763
aI16193528
aI16746076
aI1692833432
aI19654407
aL2196092280L
aI84281104
aI104221053
aI15560223
aI23818581
aI632317734
aI132518473
aI917142902
aI402201703
aI234826866
aI28164923
aI254228322
aI423769635
aI271211220
aL2852532059L
aI1645717729
aI61342056
aI20437286
aI428653913
aL2334614718L
aI615306954
aI14465640
aI120176950
aI400066174
aI472269627
aI18294197
aI1855836205
aL2426574114L
aI26538229
aI282093902
aI487664492
aI28167086
aL2565732337L
aI68304632
aI1296952741
aI1577535906
aI76511168
aI16827489
aL2555401076L
aI818081647
aL2176983931L
aL2303751216L
aI84402174
aL2485607556L
aI22187085
aI77816236
aI728767170
aI1155522630
aI108021761
aI327484803
aI14292458
aI533466282
aI1553291664
aI816653
aI227682918
aI33268930
aI25430081
aI78408666
aI124163000
aI1229952996
aI70498392
aI89225644
aI236953420
aI253167239
aI426159377
aI43111757
aI30857540
aI132173493
aI44060322
aI250362250
aI21328656
aI130172075
aI102527566
aI366197654
aasS'followers'
p4
(lp5
(lp6
L2435194891L
aL4205707817L
aL4051998142L
aI178860293
aL3301424852L
aL3671527582L
aL3404503192L
aI747600660
aL3953197939L
aL3005926389L
aL4003238723L
aI624927669
aL3139990918L
aI1911185905
aL3955260492L
aL2906862160L
aI299299337
aL3476527636L
aI472269627
aL2341525668L
aL3289917664L
aL3509839932L
aL3796186942L
aL3018809793L
aL2563814487L
aI973547749
aL2333960522L
aI1668821198
aI468551695
aI1040927095
aL2466233328L
aL2817966517L
aL2466951337L
aI16814500
aI74643024
aI249420175
aI19349963
aI470301221
aL3216018381L
aI23983310
aI1373108376
aI1907938308
aL2990698311L
aI599099414
aL3025164092L
aL2842207714L
aI34380519
aL2646376135L
aI929349216
aL2508737364L
aL3004080359L
aI141748686
aI214676093
aL2159322464L
aL3703801694L
aL2336088685L
aL3236798219L
aL2400745866L
aL3168005965L
aI774700064
aI84703910
aL3668860760L
aL3647142859L
aL3340570960L
aI163373716
aI839638560
aI253016817
aL3373683673L
aI1092305288
aI1178034740
aL3150177589L
aL3374784934L
aL2919938840L
aL2978922717L
aL2890970812L
aL2969247465L
aL2418119514L
aI1059535064
aI106139169
aL2319965522L
aL2400506899L
aI707720551
aI1563773912
aI184391585
aL2973459869L
aI58457983
aI42417984
aL2446689355L
aI1393603976
aL3393604198L
aL3317127571L
aL3426790583L
aL3315927378L
aI151887424
aL3168011713L
aI853085630
aI321829521
aL3379497851L
aL2531776138L
aL3305421534L
aI331058822
aL3218038061L
aI403739215
aI1106976996
aI463310627
aL2971298278L
aL3385977413L
aI20124196
aI971129101
aI74950627
aL3250856054L
aL2940544104L
aL3319464256L
aL3242661817L
aL3319577375L
aI987909739
aI832782343
aL2922234899L
aL2412406063L
aI464011046
aL2960208397L
aI43554881
aI843900612
aI493143506
aL2571145477L
aI1690190647
aL3219290824L
aI23469939
aI14057492
aL3012561618L
aL3129807446L
aL3154086249L
aI84921092
aL2917103263L
aL3120780070L
aI1442687640
aL2253557707L
aL3083595041L
aL3146746044L
aL2241044846L
aI137171785
aI898846878
aI179221217
aL3013846006L
aL2616112573L
aL2371046612L
aI58341935
aI254132912
aI17647676
aI292275391
aL3143347802L
aL3081461811L
aL2364889134L
aI250697732
aL3119536884L
aL3111890328L
aI342601720
aL3113187112L
aI54868945
aI24732019
aI808571568
aI409982127
aI611817117
aI250673246
aI246353302
aI1444614408
aI70377337
aI242072031
aL2532415112L
aI287885364
aL2998760402L
aL2953998811L
aL2832981087L
aL2997719688L
aI31662943
aL3036941960L
aL3032947914L
aL2590675464L
aL2832489574L
aI1059530150
aI414600500
aL3017481738L
aL2838025403L
aI15162193
aL3014115196L
aI1128342606
aL2977853488L
aL2989584464L
aL3006502225L
aL2997280835L
aI553711443
aL2853817133L
aL2261580229L
aL2539156219L
aL2971622180L
aI104952689
aI99337673
aL2153021137L
aL2538394740L
aI1665296858
aI46420312
aI289904736
aI916754617
aL2934427402L
aL2935676010L
aL2824111672L
aI360737813
aL2929802616L
aL2914487865L
aL2912496057L
aI17047743
aI132518473
aL2861275186L
aL2840319232L
aI61501873
aI36747948
aI23002858
aI531525580
aL2225754810L
aL2400757909L
aI771233419
aI17109575
aL2852532059L
aL2889314461L
aI216881633
aI615306954
aI870320202
aI605081491
aI400066174
aI1902409244
aI49188962
aI15823891
aI27080332
aI229243462
aL2756674999L
aI1475988331
aL2831282996L
aI315870572
aI248836670
aI316133329
aL2457763392L
aI66951419
aL2270714486L
aI111054522
aI35786993
aI952630182
aI24998433
aL2288796753L
aI261354349
aL2710770848L
aI1668549488
aI145461175
aI108021761
aI254228322
aI1328282966
aI65236621
aI519123302
aL2565732337L
aI16470539
aL2564573972L
aI115531317
aI332253527
aI264300399
aL2593666213L
aL2555401076L
aI311757714
aI1458060018
aI277098909
aI1955136079
aI348117523
aI421794008
aL2543151619L
aL2450454150L
aI113202525
aI70755249
aL2176983931L
aI949381904
aL2410965348L
aI316623478
aL2148578432L
aL2485607556L
aI401316403
aI1022644622
aI26359783
aI77816236
aI33268930
aI346317276
aI573095099
aI437044208
aL2458076828L
aL2377781310L
aI725577499
aI48349900
aL2463286975L
aI920148811
aI14292458
aI533466282
aL2333523450L
aL2333530999L
aL2333522586L
aL2333522460L
aI703561088
aI46479193
aL2251338702L
aI28324703
aI557694833
aI94087837
aI59143641
aL2345508660L
aI726856680
aI1523532828
aI61615855
aI153687367
aI33057691
aI89557663
aI420211297
aI832404296
aI26425256
aI27086783
aI260062510
aL2244904334L
aL2243450623L
aI258206504
aL2223263106L
aI722770255
aL2195796302L
aI1321370426
aI1352398908
aI1311432848
aI19087069
aI1521063680
aI431482954
aI423172432
aI124163000
aI1923796309
aI403076729
aI14850503
aI1328247444
aI1596548618
aI9554662
aI367260291
aI30076901
aI1629553164
aI1588756580
aI1566343015
aI1613542423
aI600028928
aI1582325425
aI761710158
aI1482317059
aI18196721
aI8287602
aI352592930
aI416686656
aI169972562
aI232621636
aI325067718
aI302510445
aI1378113110
aI1378299368
aI182992352
aI15043404
aI52706618
aI43111757
aI1346665327
aI1003284212
aI350856764
aI139848857
aI1132794836
aI1132767942
aI1132772564
aI1225729826
aI35411199
aI70498392
aI599429196
aI938880145
aI141262901
aI1197390186
aI143073178
aI24036952
aI17721338
aI387284583
aI85951959
aI453924734
aI957657728
aI356873974
aI324766391
aI793822903
aI242288569
aI1148089962
aI88337982
aI80374332
aI36221712
aI1110051102
aI749349956
aI559923910
aI1048101884
aI562872807
aI757956787
aI104385665
aI250362250
aI31312599
aI794812033
aI185182817
aI303970021
aI16004376
aI265025787
aI18768513
aI930592796
aI925717201
aI927418717
aI612548558
aI401324668
aI130172075
aI366197654
aI399494909
aI839691367
aasS'obj'
p7
ccopy_reg
_reconstructor
p8
(ctweepy.models
User
p9
c__builtin__
object
p10
Ntp11
Rp12
(dp13
S'follow_request_sent'
p14
NsS'has_extended_profile'
p15
I00
sS'profile_use_background_image'
p16
I01
sS'profile_sidebar_fill_color'
p17
VDDEEF6
p18
sS'id'
p19
I854910984
sS'verified'
p20
I00
sS'entities'
p21
(dp22
Vdescription
p23
(dp24
Vurls
p25
(lp26
sssS'profile_image_url_https'
p27
Vhttps://pbs.twimg.com/profile_images/624238484002316289/VgQbmKx4_normal.jpg
p28
sS'_json'
p29
(dp30
Vfollow_request_sent
p31
NsVhas_extended_profile
p32
I00
sVprofile_use_background_image
p33
I01
sVdefault_profile_image
p34
I00
sVid
p35
I854910984
sVprofile_background_image_url_https
p36
Vhttps://abs.twimg.com/images/themes/theme1/bg.png
p37
sVverified
p38
I00
sVprofile_text_color
p39
V333333
p40
sVprofile_image_url_https
p41
g28
sVprofile_sidebar_fill_color
p42
g18
sVentities
p43
g22
sVfollowers_count
p44
I417
sVprofile_sidebar_border_color
p45
VC0DEED
p46
sVid_str
p47
V854910984
p48
sVprofile_background_color
p49
VC0DEED
p50
sVlisted_count
p51
I37
sVstatus
p52
(dp53
Vcontributors
p54
NsVtruncated
p55
I00
sVtext
p56
VRT @OptionsHawk: $CORE $CASY - Interesting how the Convenience Store names have bucked the retail trends, impressive trend charts
p57
sVin_reply_to_status_id
p58
Nsg35
L666590970079789056L
sVfavorite_count
p59
I0
sVsource
p60
V<a href="http://twitter.com/download/android" rel="nofollow">Twitter for Android</a>
p61
sVretweeted
p62
I00
sVcoordinates
p63
Nsg43
(dp64
Vsymbols
p65
(lp66
(dp67
Vindices
p68
(lp69
I17
aI22
asg56
VCORE
p70
sa(dp71
g68
(lp72
I23
aI28
asg56
VCASY
p73
sasVuser_mentions
p74
(lp75
(dp76
g35
I61342056
sg68
(lp77
I3
aI15
asg47
V61342056
p78
sVscreen_name
p79
VOptionsHawk
p80
sVname
p81
VJoe Kunkle
p82
sasVhashtags
p83
(lp84
sg25
(lp85
ssVin_reply_to_screen_name
p86
Nsg47
V666590970079789056
p87
sVretweet_count
p88
I6
sVin_reply_to_user_id
p89
NsVfavorited
p90
I00
sVretweeted_status
p91
(dp92
Vlang
p93
Ven
p94
sg90
I00
sg43
(dp95
g65
(lp96
(dp97
g68
(lp98
I0
aI5
asg56
VCORE
p99
sa(dp100
g68
(lp101
I6
aI11
asg56
VCASY
p102
sasg74
(lp103
sg83
(lp104
sg25
(lp105
ssg54
Nsg55
I00
sg56
V$CORE $CASY - Interesting how the Convenience Store names have bucked the retail trends, impressive trend charts
p106
sVcreated_at
p107
VMon Nov 16 22:42:35 +0000 2015
p108
sg62
I00
sVin_reply_to_status_id_str
p109
Nsg63
NsVin_reply_to_user_id_str
p110
Nsg60
V<a href="https://about.twitter.com/products/tweetdeck" rel="nofollow">TweetDeck</a>
p111
sg58
Nsg86
Nsg47
V666385906979483652
p112
sVplace
p113
Nsg88
I6
sVgeo
p114
Nsg35
L666385906979483652L
sg59
I4
sg89
Nssg114
Nsg110
Nsg93
Ven
p115
sg107
VTue Nov 17 12:17:26 +0000 2015
p116
sg109
Nsg113
NssVis_translation_enabled
p117
I00
sVutc_offset
p118
I-28800
sVstatuses_count
p119
I8883
sg23
VOEF/OIF Vet, President of S.V.A ( GA). College student. Thinking I can trade stocks.
p120
sVfriends_count
p121
I339
sVlocation
p122
VGeorgia, USA
p123
sVprofile_link_color
p124
V0084B4
p125
sVprofile_image_url
p126
Vhttp://pbs.twimg.com/profile_images/624238484002316289/VgQbmKx4_normal.jpg
p127
sVfollowing
p128
NsVgeo_enabled
p129
I01
sVprofile_background_image_url
p130
Vhttp://abs.twimg.com/images/themes/theme1/bg.png
p131
sg79
V11BAnthony
p132
sg93
Ven
p133
sVprofile_background_tile
p134
I00
sVfavourites_count
p135
I1148
sg81
VAnthony DePaola
p136
sVnotifications
p137
NsVurl
p138
Nsg107
VSun Sep 30 15:47:24 +0000 2012
p139
sVcontributors_enabled
p140
I00
sVtime_zone
p141
VPacific Time (US & Canada)
p142
sVprotected
p143
I00
sVdefault_profile
p144
I01
sVis_translator
p145
I00
ssS'contributors_enabled'
p146
I00
sS'profile_text_color'
p147
g40
sS'followers_count'
p148
I417
sS'profile_sidebar_border_color'
p149
g46
sS'id_str'
p150
g48
sS'default_profile_image'
p151
I00
sS'listed_count'
p152
I37
sS'status'
p153
g8
(ctweepy.models
Status
p154
g10
Ntp155
Rp156
(dp157
S'favorited'
p158
I00
sS'contributors'
p159
NsS'truncated'
p160
I00
sS'text'
p161
g57
sS'source_url'
p162
Vhttp://twitter.com/download/android
p163
sS'in_reply_to_status_id'
p164
NsS'geo'
p165
Nsg19
L666590970079789056L
sS'favorite_count'
p166
I0
sS'lang'
p167
g115
sS'retweeted_status'
p168
g8
(g154
g10
Ntp169
Rp170
(dp171
g158
I00
sg159
Nsg160
I00
sg161
g106
sg162
Vhttps://about.twitter.com/products/tweetdeck
p172
sg164
Nsg165
Nsg19
L666385906979483652L
sg166
I4
sg167
g94
sg21
g95
sS'created_at'
p173
cdatetime
datetime
p174
(S'\x07\xdf\x0b\x10\x16*#\x00\x00\x00'
p175
tp176
Rp177
sg29
g92
sS'coordinates'
p178
NsS'in_reply_to_user_id_str'
p179
NsS'source'
p180
VTweetDeck
p181
sS'in_reply_to_status_id_str'
p182
NsS'in_reply_to_screen_name'
p183
Nsg150
g112
sS'retweeted'
p184
I00
sS'place'
p185
NsS'retweet_count'
p186
I6
sS'in_reply_to_user_id'
p187
Nsbsg21
g64
sg173
g174
(S'\x07\xdf\x0b\x11\x0c\x11\x1a\x00\x00\x00'
p188
tp189
Rp190
sg29
g53
sg178
Nsg179
Nsg180
VTwitter for Android
p191
sg182
Nsg183
Nsg150
g87
sg184
I00
sg185
Nsg186
I6
sg187
NsbsS'is_translation_enabled'
p192
I00
sS'utc_offset'
p193
I-28800
sS'statuses_count'
p194
I8883
sS'description'
p195
g120
sS'friends_count'
p196
I339
sS'location'
p197
g123
sS'profile_link_color'
p198
g125
sS'profile_image_url'
p199
g127
sS'notifications'
p200
NsS'geo_enabled'
p201
I01
sS'profile_background_color'
p202
g50
sS'profile_background_image_url'
p203
g131
sS'screen_name'
p204
g132
sg167
g133
sg1
I00
sS'profile_background_tile'
p205
I00
sS'favourites_count'
p206
I1148
sS'name'
p207
g136
sS'url'
p208
Nsg173
g174
(S'\x07\xdc\t\x1e\x0f/\x18\x00\x00\x00'
p209
tp210
Rp211
sS'profile_background_image_url_https'
p212
g37
sS'time_zone'
p213
g142
sS'protected'
p214
I00
sS'default_profile'
p215
I01
sS'is_translator'
p216
I00
sbs.