(dp0
S'following'
p1
(lp2
(lp3
L2744869459L
aI1132994426
aI295221061
aI65448361
aL2272207286L
aL2302479052L
aL2999760448L
aI61558281
aI15752608
aI1564125781
aI26574283
aL2334614718L
aI168679374
aI346257282
aI19997064
aI197869772
aI41516710
aI1157373200
aI76020041
aI735536305
aL2494896473L
aI376154503
aI169489285
aI518704820
aI25325260
aI428333
aI18021517
aI351775059
aI330389740
aI481565800
aI1241647488
aI236953420
aI16248719
aI386616537
aI1584059844
aL2648357839L
aL3085835595L
aL3376333821L
aI43901066
aI16045956
aL3035804476L
aL2242914704L
aI14669951
aI569569550
aI14693227
aI1498350660
aI82162291
aI15485441
aI24196664
aI23390520
aI545618159
aL2275337142L
aI115106787
aL2187938131L
aI1500214435
aI253168011
aL2491897104L
aI397230151
aI22341408
aI243795494
aI733086954
aI17393219
aI818081647
aI478177435
aI61533120
aI314061974
aI89491245
aI61342056
aI580540041
aI23756134
aI166597717
aI425402956
aI86582499
aI26899727
aI396294440
aI1055551057
aI705164280
aI236526490
aI1941253760
aI820031509
aI60622883
aI405681948
aL2278259810L
aI455366870
aI326315947
aI60783724
aI14992263
aI14129793
aI529704495
aI15172980
aI102754598
aI911318336
aI1633631874
aI205183966
aI625384818
aI29881875
aI96108098
aI14063950
aL2452122962L
aI376347156
aI103883488
aI49753604
aL2830220129L
aI18915795
aI21328656
aI15974185
aI409194010
aI260784031
aI54675700
aI44060322
aI42006852
aI552326867
aI1898382380
aI320276448
aI636545451
aI873399943
aI236621887
aI371381997
aI188882079
aI1944646057
aI575796665
aI68304632
aI287532397
aI807095
aI67358777
aI3108351
aI19546277
aI285153584
aI922060614
aI14442905
aI20402945
aI291759028
aI140912249
aI33792634
aL2567518027L
aI28571999
aI1382029494
aI13400562
aI1544295582
aI102486563
aI344752927
aI17882258
aI17981602
aI84402174
aI1308508879
aI1308541314
aI49703498
aI701464597
aI1537373112
aI210862918
aI1717291
aI47678782
aI56486495
aI332617373
aI15568127
aI2467791
aI28164923
aI10791192
aI23059499
aI41602160
aI20449296
aI28172926
aI240734425
aI1769551
aI25053299
aI1754641
aI290158392
aI156731570
aI11014272
aI34713362
aI20562637
aI1546201075
aI15110357
aI104237736
aI624413
aI19019298
aI16732770
aI106498703
aI404422077
aI1961333743
aI885043004
aI271183260
aI223589965
aI30217291
aI898301664
aI5763262
aI5746452
aI9534522
aI194137231
aI23236916
aI17622474
aI38476367
aL2265315709L
aI600378539
aI124006927
aI271138078
aI31546412
aI132173493
aI1193872682
aI20455625
aI21701757
aI479809444
aI21093744
aI494286783
aI26259480
aI25093616
aI47348249
aI15281391
aI110463712
aI118399469
aI380500399
aI15767621
aI52849759
aI1364930179
aI1534167900
aI32492934
aI31127446
aI19627046
aI141612498
aI292098928
aI32410378
aI102527566
aI165757778
aI28140646
aI18858395
aI412362576
aI62562916
aI18208763
aI22522178
aI467796546
aI204564525
aI44986993
aI123713942
aI17975357
aI252732212
aI111054964
aI166396386
aI25238259
aI13649002
aI14385046
aI20187065
aI13171622
aI15563814
aI338091511
aI49637104
aI27707080
aI863003467
aI86125016
aI26117527
aI252877176
aI56121651
aI104643871
aI212067078
aI602321455
aI44438256
aI50753411
aI243902538
aI446784969
aI84312619
aI348772885
aI255996385
aI18294275
aI18294197
aI19988458
aI102094857
aI14276189
aI145343433
aI607467017
aI32778531
aI112872946
aI103011458
aI43475268
aI62871181
aI244969675
aI243801041
aI274233761
aI229246832
aI190773758
aI166711687
aI442298073
aI168186079
aI632341632
aI888903264
aI175754840
aasS'followers'
p4
(lp5
(lp6
I1923926642
aL2374559252L
aL3493450637L
aI250362250
aI1098753547
aL3184597070L
aI152634265
aI525507691
aL3096977182L
aI29781852
aI735588145
aL3139590424L
aI344752927
aI1349607438
aI21155531
aL3933613797L
aI250317700
aL2271982008L
aI531525580
aL2445064535L
aI41133579
aI63969804
aI1626294277
aL3044760099L
aI864741392
aI486709515
aL3143767089L
aI363277317
aL2759267064L
aI68689464
aL2930422354L
aI23390520
aL3312065387L
aL2988742673L
aI13916922
aI82162291
aI1055551057
aI191814757
aI91563510
aI132046547
aL3191921014L
aI211316225
aL3035804476L
aI115106787
aI1877562086
aL2951596729L
aI185191108
aL2773296896L
aL2922234899L
aL2857253644L
aI222812107
aL3019790520L
aL2806987639L
aL2684257742L
aI396294440
aL3025635586L
aI338366986
aI253273390
aI275681725
aL2893986375L
aI20629244
aL2830220129L
aL2567494333L
aL2734786322L
aL2800172909L
aI287153379
aL2201759245L
aI315877847
aI315788831
aI42006852
aI23093662
aI1710395696
aI1395179923
aI1193872682
aL2308872278L
aI30217291
aI124006927
aI19627046
aI32778531
aasS'obj'
p7
ccopy_reg
_reconstructor
p8
(ctweepy.models
User
p9
c__builtin__
object
p10
Ntp11
Rp12
(dp13
S'follow_request_sent'
p14
NsS'has_extended_profile'
p15
I00
sS'profile_use_background_image'
p16
I01
sS'profile_sidebar_fill_color'
p17
VDDEEF6
p18
sS'id'
p19
I863315184
sS'verified'
p20
I00
sS'entities'
p21
(dp22
Vdescription
p23
(dp24
Vurls
p25
(lp26
sssS'profile_image_url_https'
p27
Vhttps://pbs.twimg.com/profile_images/378800000476032590/e847cc9cfb37061d22372b51c21c2b75_normal.jpeg
p28
sS'_json'
p29
(dp30
Vfollow_request_sent
p31
NsVhas_extended_profile
p32
I00
sVprofile_use_background_image
p33
I01
sVdefault_profile_image
p34
I00
sVid
p35
I863315184
sVprofile_background_image_url_https
p36
Vhttps://abs.twimg.com/images/themes/theme1/bg.png
p37
sVverified
p38
I00
sVprofile_text_color
p39
V333333
p40
sVprofile_image_url_https
p41
g28
sVprofile_sidebar_fill_color
p42
g18
sVentities
p43
g22
sVfollowers_count
p44
I79
sVprofile_sidebar_border_color
p45
VC0DEED
p46
sVid_str
p47
V863315184
p48
sVprofile_background_color
p49
VC0DEED
p50
sVlisted_count
p51
I0
sVstatus
p52
(dp53
Vlang
p54
Ven
p55
sVfavorited
p56
I00
sg43
(dp57
Vsymbols
p58
(lp59
(dp60
Vindices
p61
(lp62
I16
aI20
asVtext
p63
VVRX
p64
sasVuser_mentions
p65
(lp66
sVhashtags
p67
(lp68
sg25
(lp69
ssVcontributors
p70
NsVtruncated
p71
I00
sg63
VMS sneaks up on $VRX &amp; lowers their price target from $200 to $98
p72
sVcreated_at
p73
VTue Nov 17 13:27:24 +0000 2015
p74
sVretweeted
p75
I00
sVin_reply_to_status_id_str
p76
NsVcoordinates
p77
NsVin_reply_to_user_id_str
p78
NsVsource
p79
V<a href="http://twitter.com" rel="nofollow">Twitter Web Client</a>
p80
sVin_reply_to_status_id
p81
NsVin_reply_to_screen_name
p82
Nsg47
V666608575549165568
p83
sVplace
p84
NsVretweet_count
p85
I0
sVgeo
p86
Nsg35
L666608575549165568L
sVfavorite_count
p87
I0
sVin_reply_to_user_id
p88
NssVis_translation_enabled
p89
I00
sVutc_offset
p90
NsVstatuses_count
p91
I617
sg23
V
p92
sVfriends_count
p93
I284
sVlocation
p94
g92
sVprofile_link_color
p95
V0084B4
p96
sVprofile_image_url
p97
Vhttp://pbs.twimg.com/profile_images/378800000476032590/e847cc9cfb37061d22372b51c21c2b75_normal.jpeg
p98
sVfollowing
p99
NsVgeo_enabled
p100
I00
sVprofile_background_image_url
p101
Vhttp://abs.twimg.com/images/themes/theme1/bg.png
p102
sVscreen_name
p103
VTimCarmichael3
p104
sg54
Ven
p105
sVprofile_background_tile
p106
I00
sVfavourites_count
p107
I422
sVname
p108
VTim Carmichael
p109
sVnotifications
p110
NsVurl
p111
Nsg73
VFri Oct 05 16:31:15 +0000 2012
p112
sVcontributors_enabled
p113
I00
sVtime_zone
p114
NsVprotected
p115
I00
sVdefault_profile
p116
I01
sVis_translator
p117
I00
ssS'contributors_enabled'
p118
I00
sS'profile_text_color'
p119
g40
sS'followers_count'
p120
I79
sS'profile_sidebar_border_color'
p121
g46
sS'id_str'
p122
g48
sS'default_profile_image'
p123
I00
sS'listed_count'
p124
I0
sS'status'
p125
g8
(ctweepy.models
Status
p126
g10
Ntp127
Rp128
(dp129
S'favorited'
p130
I00
sS'contributors'
p131
NsS'truncated'
p132
I00
sS'text'
p133
g72
sS'source_url'
p134
Vhttp://twitter.com
p135
sS'in_reply_to_status_id'
p136
NsS'geo'
p137
Nsg19
L666608575549165568L
sS'favorite_count'
p138
I0
sS'lang'
p139
g55
sg21
g57
sS'created_at'
p140
cdatetime
datetime
p141
(S'\x07\xdf\x0b\x11\r\x1b\x18\x00\x00\x00'
p142
tp143
Rp144
sg29
g53
sS'coordinates'
p145
NsS'in_reply_to_user_id_str'
p146
NsS'source'
p147
VTwitter Web Client
p148
sS'in_reply_to_status_id_str'
p149
NsS'in_reply_to_screen_name'
p150
Nsg122
g83
sS'retweeted'
p151
I00
sS'place'
p152
NsS'retweet_count'
p153
I0
sS'in_reply_to_user_id'
p154
NsbsS'is_translation_enabled'
p155
I00
sS'utc_offset'
p156
NsS'statuses_count'
p157
I617
sS'description'
p158
g92
sS'friends_count'
p159
I284
sS'location'
p160
g92
sS'profile_link_color'
p161
g96
sS'profile_image_url'
p162
g98
sS'notifications'
p163
NsS'geo_enabled'
p164
I00
sS'profile_background_color'
p165
g50
sS'profile_background_image_url'
p166
g102
sS'screen_name'
p167
g104
sg139
g105
sg1
I00
sS'profile_background_tile'
p168
I00
sS'favourites_count'
p169
I422
sS'name'
p170
g109
sS'url'
p171
Nsg140
g141
(S'\x07\xdc\n\x05\x10\x1f\x0f\x00\x00\x00'
p172
tp173
Rp174
sS'profile_background_image_url_https'
p175
g37
sS'time_zone'
p176
NsS'protected'
p177
I00
sS'default_profile'
p178
I01
sS'is_translator'
p179
I00
sbs.