(dp0
S'following'
p1
(lp2
(lp3
L3676524496L
aI619247259
aL3308352436L
aL3732964635L
aL3545510475L
aI236953420
aI624175140
aI1064015220
aI367105503
aL3265325383L
aI958160354
aI246220733
aI1623424387
aI1473431
aI1051421706
aI475524030
aI49357725
aI132898675
aI38053161
aI15246621
aI65681636
aL2382558865L
aI202915788
aI1325648118
aL3303385630L
aI18300968
aI40909981
aI566637308
aL2151247592L
aI14619580
aI936079812
aI26775476
aL2371952437L
aI1484632920
aI300896355
aL2272207286L
aI1687890656
aI1506525248
aL2821594916L
aI1576052886
aL2398137084L
aL2263467936L
aL2263452746L
aI316485110
aI23116875
aL2838660395L
aI44429768
aL2960778659L
aL2263437272L
aI545618159
aI110463712
aI34939208
aI32736252
aI16806253
aL2214594493L
aL2453385626L
aI20367547
aI1498456070
aI20949518
aI1544330178
aI105196282
aI1416255408
aI36041084
aI1651856988
aI406431568
aI254280603
aI721480968
aI244248703
aI1064700308
aI430841130
aL2704486915L
aI219857407
aI42570063
aI17695167
aI126717954
aI146930159
aI1399951764
aI17484252
aL2665741777L
aI49637104
aI541253226
aL2313837474L
aI18034541
aI49663664
aI212531237
aI19111917
aI26377458
aI1935513416
aI84703910
aI34671618
aI77032491
aI1537373112
aI294588244
aI82143051
aI39549428
aI14126376
aI203652149
aI1066801676
aI467790249
aI1527716203
aI160625399
aI56910769
aI7520262
aI326745108
aI70778344
aI21328656
aI16488221
aI24227424
aL2240370386L
aI151280096
aI285738285
aI232743364
aI49605610
aI1005382280
aI59427497
aI588081305
aI58754203
aI263440231
aI41516710
aI195251679
aI763917018
aI478792870
aI455366870
aI355866075
aI28007217
aI1927931875
aI330028096
aI184881902
aI7557352
aI64783984
aI250758475
aI253168011
aI1650878239
aI365949960
aI154726606
aI16371383
aI19651092
aI247857712
aI267317705
aI714051110
aI106820363
aI378208943
aI182642157
aI1413027896
aI97334517
aI27922928
aI163537857
aI271211220
aI38476367
aI161666429
aI52166809
aI33973843
aI264370502
aI392739061
aI244602804
aI262763182
aI817318939
aI197869772
aI632317734
aI21669980
aI308440344
aI20209445
aI22264891
aI30818980
aI21232827
aI898301664
aI21917683
aI93295809
aI22522178
aI25163231
aI267867165
aI335053994
aI37284991
aI243318995
aI14173032
aI1797991
aI355172912
aI819375
aI389551062
aI330491895
aI19210171
aI89225644
aI600378539
aI28350927
aI302545862
aI170707174
aI836825215
aI381747201
aI338330795
aI136842204
aI14250809
aI378334234
aI14886375
aI42589787
aI14751476
aI286654612
aI40471897
aI28571999
aI14115408
aI14292717
aI18856867
aI400066174
aI232120274
aasS'followers'
p4
(lp5
(lp6
L3732964635L
aI872122615
aI190474329
aL2382558865L
aI114620967
aI27800220
aL3300976024L
aI17292738
aI315284244
aI14619580
aI1380465480
aL2772524394L
aI98941070
aI335762751
aI27549371
aL2656727419L
aL3124089123L
aI253820204
aL2838660395L
aI872194884
aI20367547
aI1544330178
aI1651856988
aI16371383
aI298261569
aI290260709
aI1138552015
aI421794008
aI15426029
aI96609839
aI26377458
aI84703910
aI77032491
aI28007217
aI25859277
aI252141278
aL2278200499L
aI763917018
aI580919195
aI64783984
aI184881902
aI44540101
aI25163231
aI1584821167
aI1448966179
aI1650878239
aI262763182
aI36350197
aI1372911775
aI1228396051
aI485814627
aI728199702
aI400066174
aasS'obj'
p7
ccopy_reg
_reconstructor
p8
(ctweepy.models
User
p9
c__builtin__
object
p10
Ntp11
Rp12
(dp13
S'follow_request_sent'
p14
NsS'has_extended_profile'
p15
I00
sS'profile_use_background_image'
p16
I01
sS'profile_sidebar_fill_color'
p17
VDDEEF6
p18
sS'id'
p19
I865866092
sS'verified'
p20
I00
sS'entities'
p21
(dp22
Vdescription
p23
(dp24
Vurls
p25
(lp26
sssS'profile_image_url_https'
p27
Vhttps://pbs.twimg.com/profile_images/571060303001968640/4XPTv8gv_normal.jpeg
p28
sS'_json'
p29
(dp30
Vfollow_request_sent
p31
NsVhas_extended_profile
p32
I00
sVprofile_use_background_image
p33
I01
sVdefault_profile_image
p34
I00
sVid
p35
I865866092
sVprofile_background_image_url_https
p36
Vhttps://pbs.twimg.com/profile_background_images/378800000081590760/fd809d4686705f0e35e0e7aad1b865c6.jpeg
p37
sVverified
p38
I00
sVprofile_text_color
p39
V333333
p40
sVprofile_image_url_https
p41
g28
sVprofile_sidebar_fill_color
p42
g18
sVentities
p43
g22
sVfollowers_count
p44
I53
sVprofile_sidebar_border_color
p45
V000000
p46
sVid_str
p47
V865866092
p48
sVprofile_background_color
p49
VADD1DE
p50
sVlisted_count
p51
I5
sVstatus
p52
(dp53
Vcontributors
p54
NsVtruncated
p55
I00
sVtext
p56
VNeeds more people like @pkumamoto \u000aConsider pop stats: \u000a86% under 54\u000a45% under 24 \u000a27% under 14\u000amedian age 27 https://t.co/w7RuilFHWT
p57
sVin_reply_to_status_id
p58
Nsg35
L664482195369623553L
sVfavorite_count
p59
I0
sVsource
p60
V<a href="https://about.twitter.com/products/tweetdeck" rel="nofollow">TweetDeck</a>
p61
sVretweeted
p62
I00
sVcoordinates
p63
Nsg43
(dp64
Vsymbols
p65
(lp66
sVuser_mentions
p67
(lp68
(dp69
g35
I55717900
sVindices
p70
(lp71
I23
aI33
asg47
V55717900
p72
sVscreen_name
p73
Vpkumamoto
p74
sVname
p75
VPedro Kumamoto
p76
sasVhashtags
p77
(lp78
sg25
(lp79
(dp80
Vurl
p81
Vhttps://t.co/w7RuilFHWT
p82
sg70
(lp83
I110
aI133
asVexpanded_url
p84
Vhttps://twitter.com/qz/status/664473470575710208
p85
sVdisplay_url
p86
Vtwitter.com/qz/status/6644\u2026
p87
sassVin_reply_to_screen_name
p88
Nsg47
V664482195369623553
p89
sVretweet_count
p90
I0
sVin_reply_to_user_id
p91
NsVfavorited
p92
I00
sVgeo
p93
NsVin_reply_to_user_id_str
p94
NsVpossibly_sensitive
p95
I00
sVlang
p96
Ven
p97
sVcreated_at
p98
VWed Nov 11 16:37:55 +0000 2015
p99
sVin_reply_to_status_id_str
p100
NsVplace
p101
NssVis_translation_enabled
p102
I00
sVutc_offset
p103
I-28800
sVstatuses_count
p104
I856
sg23
VPM Family Office/Private Client - asset agnostic, absolute return
p105
sVfriends_count
p106
I203
sVlocation
p107
V
p108
sVprofile_link_color
p109
V0084B4
p110
sVprofile_image_url
p111
Vhttp://pbs.twimg.com/profile_images/571060303001968640/4XPTv8gv_normal.jpeg
p112
sVfollowing
p113
NsVgeo_enabled
p114
I00
sVprofile_banner_url
p115
Vhttps://pbs.twimg.com/profile_banners/865866092/1425399637
p116
sVprofile_background_image_url
p117
Vhttp://pbs.twimg.com/profile_background_images/378800000081590760/fd809d4686705f0e35e0e7aad1b865c6.jpeg
p118
sg73
Vcareyescapital
p119
sg96
Ven
p120
sVprofile_background_tile
p121
I00
sVfavourites_count
p122
I20
sg75
Vla caguama
p123
sVnotifications
p124
Nsg81
Nsg98
VSun Oct 07 06:30:37 +0000 2012
p125
sVcontributors_enabled
p126
I00
sVtime_zone
p127
VPacific Time (US & Canada)
p128
sVprotected
p129
I00
sVdefault_profile
p130
I00
sVis_translator
p131
I00
ssS'contributors_enabled'
p132
I00
sS'profile_text_color'
p133
g40
sS'followers_count'
p134
I53
sS'profile_sidebar_border_color'
p135
g46
sS'id_str'
p136
g48
sS'default_profile_image'
p137
I00
sS'listed_count'
p138
I5
sS'status'
p139
g8
(ctweepy.models
Status
p140
g10
Ntp141
Rp142
(dp143
S'favorited'
p144
I00
sS'contributors'
p145
NsS'truncated'
p146
I00
sS'text'
p147
VNeeds more people like @pkumamoto \u000aConsider pop stats: \u000a86% under 54\u000a45% under 24 \u000a27% under 14\u000amedian age 27 https://t.co/w7RuilFHWT
p148
sS'source_url'
p149
Vhttps://about.twitter.com/products/tweetdeck
p150
sS'possibly_sensitive'
p151
I00
sS'in_reply_to_status_id'
p152
NsS'geo'
p153
Nsg19
L664482195369623553L
sS'favorite_count'
p154
I0
sS'lang'
p155
g97
sg21
g64
sS'created_at'
p156
cdatetime
datetime
p157
(S'\x07\xdf\x0b\x0b\x10%7\x00\x00\x00'
p158
tp159
Rp160
sg29
g53
sS'coordinates'
p161
NsS'in_reply_to_user_id_str'
p162
NsS'source'
p163
VTweetDeck
p164
sS'in_reply_to_status_id_str'
p165
NsS'in_reply_to_screen_name'
p166
Nsg136
g89
sS'retweeted'
p167
I00
sS'place'
p168
NsS'retweet_count'
p169
I0
sS'in_reply_to_user_id'
p170
NsbsS'is_translation_enabled'
p171
I00
sS'utc_offset'
p172
I-28800
sS'statuses_count'
p173
I856
sS'description'
p174
g105
sS'friends_count'
p175
I203
sS'location'
p176
g108
sS'profile_link_color'
p177
g110
sS'profile_image_url'
p178
g112
sS'notifications'
p179
NsS'geo_enabled'
p180
I00
sS'profile_background_color'
p181
g50
sS'profile_banner_url'
p182
g116
sS'profile_background_image_url'
p183
g118
sS'screen_name'
p184
g119
sg155
g120
sg1
I00
sS'profile_background_tile'
p185
I00
sS'favourites_count'
p186
I20
sS'name'
p187
g123
sS'url'
p188
Nsg156
g157
(S'\x07\xdc\n\x07\x06\x1e%\x00\x00\x00'
p189
tp190
Rp191
sS'profile_background_image_url_https'
p192
g37
sS'time_zone'
p193
g128
sS'protected'
p194
I00
sS'default_profile'
p195
I00
sS'is_translator'
p196
I00
sbs.