(dp0
S'following'
p1
(lp2
(lp3
I40268530
aI930305502
aI106180628
aI1230573038
aI393047205
aI49178053
aI48362421
aI823366278
aL2885991292L
aI1188017719
aL3023090442L
aI426690691
aL3317945248L
aI533736152
aI432650534
aI17907578
aI246478393
aI517921581
aL3286677745L
aI1851918228
aI519695385
aI122174004
aI572083282
aI458719999
aI123831809
aI258574038
aI398310865
aI35061834
aI66891808
aI1904865594
aI277660829
aI1024090748
aI581243959
aI14639922
aI237906808
aI1064664199
aI360415367
aI14127723
aI538514420
aI5392522
aI19725644
aI44196397
aI37988004
aI20929096
aI18918698
aI50570834
aI180224951
aI287907567
aI394251474
aI282780769
aI20396481
aI76011223
aI544666341
aI515699713
aI379466267
aI41420233
aI22267239
aI9300262
aI15281391
aI15905397
aI267227746
aI27321430
aI19794115
aI16789970
aI50744700
aI18072119
aI314815792
aI21332950
aI15744732
aI17295828
aI288381244
aI237845487
aI256845191
aI14008042
aI73147282
aI90676908
aI148529707
aI498274166
aI58947113
aI33809518
aI69666402
aI40384403
aI16690019
aI18988524
aI21142831
aI97095018
aI272173070
aI138526099
aI125627694
aI109554952
aI384437303
aI13784492
aI297648778
aI32485285
aI222532871
aI148896525
aI75374394
aI3669121
aI14379465
aI116040999
aI29825057
aI152758620
aI180071560
aI20452568
aI51241574
aI88115567
aI32318850
aI347554772
aI155552565
aI227799248
aI104613545
aI284182932
aI45651157
aI64691246
aI193687333
aI213278298
aI15398806
aI14116807
aI18359909
aI210654806
aI12055942
aI215057688
aI453258525
aI281219039
aI150011732
aI98482211
aI31206614
aI17216842
aI256685307
aI205012816
aI277134934
aI14413466
aI15358759
aI16951443
aI19030602
aI38249459
aI158426909
aI813286
aI23172260
aI32185308
aI43383705
aasS'followers'
p4
(lp5
(lp6
I478837773
aL4164432268L
aI404227581
aI1205738209
aI229630192
aI14640225
aI496648238
aI1230573038
aI318703016
aI22161611
aI33160996
aL2671504502L
aL3914739784L
aI1897676480
aI280330035
aL3302327942L
aI146436211
aI340528523
aL3751778357L
aI215798806
aL3286677745L
aL2982108177L
aI531089404
aI360860795
aI174699042
aL2914035228L
aI261061703
aI21952385
aI18785883
aI805304906
aI1180186740
aI419776539
aI745434925
aI118305414
aI533736152
aL3364868164L
aL3355168462L
aI123831809
aL3044692440L
aI596617015
aL3317945248L
aL3014585544L
aL2220983808L
aI1915418228
aL3156240596L
aI33605175
aI234110672
aL3307491767L
aI388272532
aI426690691
aL3023090442L
aL3302636949L
aI72241666
aI266133081
aL3145839782L
aI394251474
aL2471935003L
aI132859567
aI1188017719
aI618872611
aL2469917530L
aL3136571488L
aI572083282
aL2872076019L
aI17221252
aL2200255440L
aI194421795
aI106180628
aL2838295978L
aL2953585755L
aL2885991292L
aI71134628
aI793647476
aL3064811998L
aI594346106
aL2454662618L
aL2454655988L
aL2941193090L
aI32185308
aI61332022
aI1429444057
aL2909773499L
aI29337702
aL2915051557L
aI189722081
aL2272954322L
aL2897651507L
aI994008608
aI258574038
aI1236100964
aI87241336
aI69666402
aL2471384227L
aI927759642
aL2821325261L
aI38034274
aI221610829
aI280736481
aI76771726
aI268280700
aI1205745326
aI1334602662
aL2781233845L
aI126725537
aL2766914791L
aI455815573
aL2319271284L
aL2575886270L
aL2692296121L
aL2669515399L
aI1904865594
aL2633588174L
aL2658808412L
aI314815792
aI1851918228
aI37503060
aI30809988
aI222532871
aL2496793152L
aI247905409
aI362175398
aI159558906
aI89437990
aI20728117
aI157086928
aI44658886
aL2426300912L
aI1098718884
aI1615965398
aI18730862
aI1541115284
aI93676748
aI823366278
aI288290589
aL2293155433L
aI88115567
aI33601080
aI555406517
aI213278298
aI6568112
aI326573863
aI287907567
aL2217917813L
aI25773642
aI28614792
aI34376206
aI33623706
aI40991907
aI69412130
aI48362421
aL2206454318L
aI35061834
aI1713239701
aI46258409
aI398310865
aI21792518
aI426484600
aI355218760
aI14553050
aI16672031
aI277660829
aI1024090748
aI205012816
aI1495707890
aI29736720
aI538514420
aI29085671
aI14127723
aI1472663263
aI414462335
aI360415367
aI1064664199
aI482450600
aI75041942
aI237906808
aI393047205
aI601814288
aI313301117
aI18839744
aI249486093
aI519695385
aI1169407063
aI40384403
aI310816365
aI593245408
aI18983124
aI227167378
aI98493602
aI27972759
aI1031902524
aI20929096
aI37988004
aI14639922
aI946179312
aI110513196
aI78361653
aI771933924
aI887801162
aI317622903
aI458719999
aI49178053
aI14795227
aI350476719
aI119422904
aI511859586
aI424879098
aI523083818
aI76011223
aI190942956
aI41420233
aI384437303
aI109554952
aI544666341
aI442694461
aI559914794
aI419669550
aI515699713
aI22267239
aI379466267
aI429356782
aI529766979
aI104613545
aI388890042
aI347554772
aI15905397
aI581243959
aI593295522
aI164541511
aI277134934
aI588564230
aI588571678
aI444773954
aI42223332
aI14008042
aI527067587
aI55354357
aI281219039
aI155552565
aI44304828
aI529287199
aI29825057
aI498274166
aI12055942
aI90453413
aI210654806
aI461480541
aI46403233
aI150011732
aI294175383
aI294167554
aasS'obj'
p7
ccopy_reg
_reconstructor
p8
(ctweepy.models
User
p9
c__builtin__
object
p10
Ntp11
Rp12
(dp13
S'follow_request_sent'
p14
I00
sS'has_extended_profile'
p15
I00
sS'profile_use_background_image'
p16
I01
sS'profile_sidebar_fill_color'
p17
V000000
p18
sS'id'
p19
I89332644
sS'verified'
p20
I00
sS'entities'
p21
(dp22
Vdescription
p23
(dp24
Vurls
p25
(lp26
sssS'profile_image_url_https'
p27
Vhttps://pbs.twimg.com/profile_images/646732621708324864/cmX1R99W_normal.jpg
p28
sS'_json'
p29
(dp30
Vfollow_request_sent
p31
I00
sVhas_extended_profile
p32
I00
sVprofile_use_background_image
p33
I01
sVdefault_profile_image
p34
I00
sVid
p35
I89332644
sVprofile_background_image_url_https
p36
Vhttps://pbs.twimg.com/profile_background_images/646726757748338688/_35_33bW.jpg
p37
sVverified
p38
I00
sVprofile_text_color
p39
V000000
p40
sVprofile_image_url_https
p41
g28
sVprofile_sidebar_fill_color
p42
g18
sVentities
p43
g22
sVfollowers_count
p44
I250
sVprofile_sidebar_border_color
p45
V000000
p46
sVid_str
p47
V89332644
p48
sVprofile_background_color
p49
V709397
p50
sVlisted_count
p51
I6
sVstatus
p52
(dp53
Vcontributors
p54
NsVtruncated
p55
I00
sVtext
p56
VRT @KeithRogers2: God does not subtract from man's time the hours spent fishing. -- unknown https://t.co/wkCGop4lGa
p57
sVin_reply_to_status_id
p58
Nsg35
L666106321532383232L
sVfavorite_count
p59
I0
sVsource
p60
V<a href="http://twitter.com/download/iphone" rel="nofollow">Twitter for iPhone</a>
p61
sVretweeted
p62
I00
sVcoordinates
p63
Nsg43
(dp64
Vsymbols
p65
(lp66
sVuser_mentions
p67
(lp68
(dp69
g35
I287907567
sVindices
p70
(lp71
I3
aI16
asg47
V287907567
p72
sVscreen_name
p73
VKeithRogers2
p74
sVname
p75
VKeith Rogers
p76
sasVhashtags
p77
(lp78
sg25
(lp79
sVmedia
p80
(lp81
(dp82
Vsource_user_id
p83
I287907567
sVsource_status_id_str
p84
V665046895492927488
p85
sVexpanded_url
p86
Vhttp://twitter.com/KeithRogers2/status/665046895492927488/photo/1
p87
sVdisplay_url
p88
Vpic.twitter.com/wkCGop4lGa
p89
sVurl
p90
Vhttps://t.co/wkCGop4lGa
p91
sVmedia_url_https
p92
Vhttps://pbs.twimg.com/media/CTq4njDVEAAtpMs.jpg
p93
sVsource_user_id_str
p94
V287907567
p95
sVsource_status_id
p96
L665046895492927488L
sg47
V665046884554182656
p97
sVsizes
p98
(dp99
Vsmall
p100
(dp101
Vh
p102
I453
sVresize
p103
Vfit
p104
sVw
p105
I340
ssVlarge
p106
(dp107
g102
I1024
sg103
Vfit
p108
sg105
I768
ssVmedium
p109
(dp110
g102
I800
sg103
Vfit
p111
sg105
I600
ssVthumb
p112
(dp113
g102
I150
sg103
Vcrop
p114
sg105
I150
sssg70
(lp115
I92
aI115
asVtype
p116
Vphoto
p117
sg35
L665046884554182656L
sVmedia_url
p118
Vhttp://pbs.twimg.com/media/CTq4njDVEAAtpMs.jpg
p119
sassVin_reply_to_screen_name
p120
Nsg47
V666106321532383232
p121
sVretweet_count
p122
I1
sVin_reply_to_user_id
p123
NsVfavorited
p124
I00
sVretweeted_status
p125
(dp126
g54
Nsg55
I00
sg56
VGod does not subtract from man's time the hours spent fishing. -- unknown https://t.co/wkCGop4lGa
p127
sg58
Nsg35
L665046895492927488L
sg59
I2
sg60
V<a href="http://twitter.com/download/iphone" rel="nofollow">Twitter for iPhone</a>
p128
sg62
I00
sg63
Nsg43
(dp129
g65
(lp130
sg67
(lp131
sg77
(lp132
sg25
(lp133
sg80
(lp134
(dp135
g86
Vhttp://twitter.com/KeithRogers2/status/665046895492927488/photo/1
p136
sg88
Vpic.twitter.com/wkCGop4lGa
p137
sg90
Vhttps://t.co/wkCGop4lGa
p138
sg92
Vhttps://pbs.twimg.com/media/CTq4njDVEAAtpMs.jpg
p139
sg47
V665046884554182656
p140
sg98
(dp141
g100
(dp142
g102
I453
sg103
Vfit
p143
sg105
I340
ssg106
(dp144
g102
I1024
sg103
Vfit
p145
sg105
I768
ssg109
(dp146
g102
I800
sg103
Vfit
p147
sg105
I600
ssg112
(dp148
g102
I150
sg103
Vcrop
p149
sg105
I150
sssg70
(lp150
I74
aI97
asg116
Vphoto
p151
sg35
L665046884554182656L
sg118
Vhttp://pbs.twimg.com/media/CTq4njDVEAAtpMs.jpg
p152
sassg120
Nsg47
V665046895492927488
p153
sg122
I1
sg123
Nsg124
I00
sVgeo
p154
NsVin_reply_to_user_id_str
p155
NsVpossibly_sensitive
p156
I00
sVlang
p157
Ven
p158
sVcreated_at
p159
VFri Nov 13 06:01:50 +0000 2015
p160
sVin_reply_to_status_id_str
p161
NsVplace
p162
(dp163
Vcountry_code
p164
VUS
p165
sg90
Vhttps://api.twitter.com/1.1/geo/id/5c2b5e46ab891f07.json
p166
sVcountry
p167
VUnited States
p168
sVplace_type
p169
Vcity
p170
sVbounding_box
p171
(dp172
g116
VPolygon
p173
sg63
(lp174
(lp175
(lp176
F-115.384091
aF36.129459
aa(lp177
F-115.062159
aF36.129459
aa(lp178
F-115.062159
aF36.336251
aa(lp179
F-115.384091
aF36.336251
aaassVcontained_within
p180
(lp181
sVfull_name
p182
VLas Vegas, NV
p183
sVattributes
p184
(dp185
sg35
V5c2b5e46ab891f07
p186
sg75
VLas Vegas
p187
sssg154
Nsg155
Nsg156
I00
sg157
Ven
p188
sg159
VMon Nov 16 04:11:37 +0000 2015
p189
sg161
Nsg162
NssVis_translation_enabled
p190
I00
sVutc_offset
p191
NsVstatuses_count
p192
I351
sg23
VI am an experienced Las Vegas-based editor/writer, specializing in covering the gaming industry.
p193
sVfriends_count
p194
I141
sVlocation
p195
VLas Vegas, Nevada
p196
sVprofile_link_color
p197
VABB8C2
p198
sVprofile_image_url
p199
Vhttp://pbs.twimg.com/profile_images/646732621708324864/cmX1R99W_normal.jpg
p200
sVfollowing
p201
I00
sVgeo_enabled
p202
I00
sVprofile_banner_url
p203
Vhttps://pbs.twimg.com/profile_banners/89332644/1443028075
p204
sVprofile_background_image_url
p205
Vhttp://pbs.twimg.com/profile_background_images/646726757748338688/_35_33bW.jpg
p206
sg73
Vmgreen0708
p207
sg157
Ven
p208
sVprofile_background_tile
p209
I00
sVfavourites_count
p210
I36
sg75
VMarian Green
p211
sVnotifications
p212
I00
sg90
Nsg159
VThu Nov 12 00:56:20 +0000 2009
p213
sVcontributors_enabled
p214
I00
sVtime_zone
p215
NsVprotected
p216
I00
sVdefault_profile
p217
I00
sVis_translator
p218
I00
ssS'contributors_enabled'
p219
I00
sS'profile_text_color'
p220
g40
sS'followers_count'
p221
I250
sS'profile_sidebar_border_color'
p222
g46
sS'id_str'
p223
g48
sS'default_profile_image'
p224
I00
sS'listed_count'
p225
I6
sS'status'
p226
g8
(ctweepy.models
Status
p227
g10
Ntp228
Rp229
(dp230
S'favorited'
p231
I00
sS'contributors'
p232
NsS'truncated'
p233
I00
sS'text'
p234
g57
sS'source_url'
p235
Vhttp://twitter.com/download/iphone
p236
sS'possibly_sensitive'
p237
I00
sS'in_reply_to_status_id'
p238
NsS'geo'
p239
Nsg19
L666106321532383232L
sS'favorite_count'
p240
I0
sS'lang'
p241
g188
sS'retweeted_status'
p242
g8
(g227
g10
Ntp243
Rp244
(dp245
g231
I00
sg232
Nsg233
I00
sg234
g127
sg235
Vhttp://twitter.com/download/iphone
p246
sg237
I00
sg238
Nsg239
Nsg19
L665046895492927488L
sg240
I2
sg241
g158
sg21
g129
sS'created_at'
p247
cdatetime
datetime
p248
(S'\x07\xdf\x0b\r\x06\x012\x00\x00\x00'
p249
tp250
Rp251
sg29
g126
sS'coordinates'
p252
NsS'in_reply_to_user_id_str'
p253
NsS'source'
p254
VTwitter for iPhone
p255
sS'in_reply_to_status_id_str'
p256
NsS'in_reply_to_screen_name'
p257
Nsg223
g153
sS'retweeted'
p258
I00
sS'place'
p259
g8
(ctweepy.models
Place
p260
g10
Ntp261
Rp262
(dp263
S'country_code'
p264
g165
sS'url'
p265
g166
sS'country'
p266
g168
sS'place_type'
p267
g170
sS'bounding_box'
p268
g8
(ctweepy.models
BoundingBox
p269
g10
Ntp270
Rp271
(dp272
S'type'
p273
g173
sg252
g174
sbsS'contained_within'
p274
g8
(ctweepy.models
ResultSet
p275
c__builtin__
list
p276
(lp277
tp278
Rp279
(dp280
S'_since_id'
p281
NsS'_max_id'
p282
NsbsS'full_name'
p283
g183
sS'attributes'
p284
g185
sg19
g186
sS'name'
p285
g187
sbsS'retweet_count'
p286
I1
sS'in_reply_to_user_id'
p287
Nsbsg21
g64
sg247
g248
(S'\x07\xdf\x0b\x10\x04\x0b%\x00\x00\x00'
p288
tp289
Rp290
sg29
g53
sg252
Nsg253
Nsg254
VTwitter for iPhone
p291
sg256
Nsg257
Nsg223
g121
sg258
I00
sg259
Nsg286
I1
sg287
NsbsS'is_translation_enabled'
p292
I00
sS'utc_offset'
p293
NsS'statuses_count'
p294
I351
sS'description'
p295
g193
sS'friends_count'
p296
I141
sS'location'
p297
g196
sS'profile_link_color'
p298
g198
sS'profile_image_url'
p299
g200
sS'notifications'
p300
I00
sS'geo_enabled'
p301
I00
sS'profile_background_color'
p302
g50
sS'profile_banner_url'
p303
g204
sS'profile_background_image_url'
p304
g206
sS'screen_name'
p305
g207
sg241
g208
sg1
I00
sS'profile_background_tile'
p306
I00
sS'favourites_count'
p307
I36
sg285
g211
sg265
Nsg247
g248
(S'\x07\xd9\x0b\x0c\x008\x14\x00\x00\x00'
p308
tp309
Rp310
sS'profile_background_image_url_https'
p311
g37
sS'time_zone'
p312
NsS'protected'
p313
I00
sS'default_profile'
p314
I00
sS'is_translator'
p315
I00
sbs.