(dp0
S'following'
p1
(lp2
(lp3
I807184921
aI1729533505
aI1319380880
aL2587908686L
aI1258349330
aI625847918
aI103240755
aI27290944
aI133504478
aI555470739
aI26579295
aI1964507977
aI57251718
aI362669400
aI50665245
aL3260559883L
aI245520753
aI1852551889
aI960980582
aL3288466519L
aI325676251
aI288320158
aI1161840631
aI143648536
aI85402667
aI72725797
aI634173906
aL2916313498L
aI613971478
aL3148538701L
aL3008301144L
aL2913082196L
aI169912805
aL2548136947L
aI18294275
aI106526969
aI164682232
aL2337533684L
aI1395021240
aI17093617
aL2436453637L
aI184093149
aL2414251856L
aI36454287
aI167192781
aI1499540461
aI398905258
aI300259815
aI48643501
aI63767026
aI165691815
aI17542775
aI179015119
aI28436760
aI582355251
aI112507731
aI56378468
aI34718083
aI409194010
aI104893583
aI194343133
aI13171622
aI18208763
aI19495715
aI15859033
aI18021517
aI15563814
aI16227629
aI15172980
aI18294197
aI21237942
aI102754598
aI44438256
aI102094857
aI65633697
aI43937824
aI211261440
aI17278322
aI244286175
aI20821119
aI62862144
aI15803034
aI28173220
aI15532983
aI8457092
aI472340998
aI167747559
aI1055364774
aI442982534
aI46707502
aI727094240
aI14055820
aI1092624332
aI73208978
aI24043785
aI19019298
aI252546993
aI891590190
aI490126636
aasS'followers'
p4
(lp5
(lp6
I76966092
aI1261398762
aL3993869235L
aI87403396
aL3016633419L
aI315794078
aI94318892
aI877455546
aL3243256996L
aL3271766593L
aI807184921
aL2289447749L
aL2587908686L
aI121142083
aI447603825
aI1729533505
aL3329562073L
aL2320598639L
aI625847918
aI117948633
aL3369185903L
aI1258349330
aI362669400
aL3315256466L
aL3021054894L
aI245520753
aI41594587
aL3308228798L
aI472426245
aL3401717236L
aL3288466519L
aL3304583101L
aI17576499
aI127967449
aI1892014616
aL2842308274L
aI17123782
aL2721619373L
aI72725797
aL3099663480L
aL3018836009L
aL2916313498L
aL3148538701L
aI406310652
aI177616448
aL3074192761L
aL2260150651L
aL2983162902L
aI601230742
aL2388773294L
aL2548136947L
aI169912805
aL2913082196L
aL2991566162L
aL2536025346L
aL2907127667L
aL2864572605L
aL2517554893L
aL2454714289L
aL2322972175L
aL2879834994L
aL2864046480L
aL2452874257L
aL2436453637L
aL2745336859L
aI232308049
aI41618108
aI16196915
aL2695943850L
aL2496981810L
aL2320812032L
aI1631466864
aI549064544
aL2642916059L
aL2535842204L
aI137247768
aI128509044
aL2536585816L
aL2493261846L
aL2471049920L
aL2409647437L
aL2458917097L
aI1857869838
aI572697845
aL2415116426L
aI1246015969
aL2382843866L
aL2402212080L
aL2396600070L
aL2371334954L
aL2152337376L
aL2174379565L
aI241840066
aI978443336
aI79530448
aI216973007
aI1978790179
aI918632802
aI54789776
aI44441112
aL2221970924L
aI764185717
aI192974735
aI36589341
aI820770007
aL2168738456L
aI361613646
aI32322168
aI36454287
aI91474916
aI211438888
aI1644134640
aI1638316200
aI37728808
aI228454581
aI629585117
aI165691815
aI17542775
aI1136257140
aI1499540461
aI816197858
aI25441300
aI837023930
aI202578650
aI306433339
aI306432861
aI25403918
aI25412106
aI306431981
aI512407156
aI306426998
aI25406616
aI21138492
aI112085932
aI25405192
aI306425528
aI306424521
aI306421464
aI306417150
aI306415289
aI25415351
aI306413964
aI378838389
aI87719951
aI306413187
aI306412633
aI306411687
aI512405794
aI25400598
aI306410580
aI306407529
aI319349020
aI25404329
aI202941979
aI306401801
aI378833243
aI306399788
aI167747559
aI1098496836
aI260900316
aI18013658
aI204949973
aI168382895
aI1410491496
aI24007203
aI73208978
aI1092624332
aI17093617
aasS'obj'
p7
ccopy_reg
_reconstructor
p8
(ctweepy.models
User
p9
c__builtin__
object
p10
Ntp11
Rp12
(dp13
S'follow_request_sent'
p14
NsS'has_extended_profile'
p15
I00
sS'profile_use_background_image'
p16
I01
sS'profile_sidebar_fill_color'
p17
VDDEEF6
p18
sS'id'
p19
I898405933
sS'verified'
p20
I00
sS'entities'
p21
(dp22
Vurl
p23
(dp24
Vurls
p25
(lp26
(dp27
g23
Vhttp://t.co/4ghByM7eJq
p28
sVindices
p29
(lp30
I0
aI22
asVexpanded_url
p31
Vhttp://investingnews.com/
p32
sVdisplay_url
p33
Vinvestingnews.com
p34
sassVdescription
p35
(dp36
g25
(lp37
sssS'profile_image_url_https'
p38
Vhttps://pbs.twimg.com/profile_images/3636354950/d18d0728655d4676f08ce1dbb0e20207_normal.png
p39
sS'_json'
p40
(dp41
Vfollow_request_sent
p42
NsVhas_extended_profile
p43
I00
sVprofile_use_background_image
p44
I01
sVdefault_profile_image
p45
I00
sVid
p46
I898405933
sVprofile_background_image_url_https
p47
Vhttps://pbs.twimg.com/profile_background_images/864291551/2efb13a28dea45aaef7f86ef53ac031d.png
p48
sVverified
p49
I00
sVprofile_text_color
p50
V333333
p51
sVprofile_image_url_https
p52
g39
sVprofile_sidebar_fill_color
p53
g18
sVentities
p54
g22
sVfollowers_count
p55
I168
sVprofile_sidebar_border_color
p56
VFFFFFF
p57
sVid_str
p58
V898405933
p59
sVprofile_background_color
p60
VF2F7FA
p61
sVlisted_count
p62
I18
sVstatus
p63
(dp64
Vcontributors
p65
NsVtruncated
p66
I00
sVtext
p67
VTop Wearable Technology Stocks #investing #tips #stocks #tech https://t.co/VAIKYIB7Ni
p68
sVin_reply_to_status_id
p69
Nsg46
L665930514965127168L
sVfavorite_count
p70
I0
sVsource
p71
V<a href="http://coschedule.com" rel="nofollow">CoSchedule</a>
p72
sVretweeted
p73
I00
sVcoordinates
p74
Nsg54
(dp75
Vsymbols
p76
(lp77
sVuser_mentions
p78
(lp79
sVhashtags
p80
(lp81
(dp82
g29
(lp83
I31
aI41
asg67
Vinvesting
p84
sa(dp85
g29
(lp86
I42
aI47
asg67
Vtips
p87
sa(dp88
g29
(lp89
I48
aI55
asg67
Vstocks
p90
sa(dp91
g29
(lp92
I56
aI61
asg67
Vtech
p93
sasg25
(lp94
(dp95
g23
Vhttps://t.co/VAIKYIB7Ni
p96
sg29
(lp97
I62
aI85
asg31
Vhttp://investingnews.com/daily/tech-investing/top-wearable-technology-stocks/
p98
sg33
Vinvestingnews.com/daily/tech-inv\u2026
p99
sassVin_reply_to_screen_name
p100
Nsg58
V665930514965127168
p101
sVretweet_count
p102
I0
sVin_reply_to_user_id
p103
NsVfavorited
p104
I00
sVgeo
p105
NsVin_reply_to_user_id_str
p106
NsVpossibly_sensitive
p107
I00
sVlang
p108
Ven
p109
sVcreated_at
p110
VSun Nov 15 16:33:01 +0000 2015
p111
sVin_reply_to_status_id_str
p112
NsVplace
p113
NssVis_translation_enabled
p114
I00
sVutc_offset
p115
I-25200
sVstatuses_count
p116
I914
sg35
VYour trusted source for investing success
p117
sVfriends_count
p118
I99
sVlocation
p119
V
p120
sVprofile_link_color
p121
V0084B4
p122
sVprofile_image_url
p123
Vhttp://pbs.twimg.com/profile_images/3636354950/d18d0728655d4676f08ce1dbb0e20207_normal.png
p124
sVfollowing
p125
NsVgeo_enabled
p126
I00
sVprofile_background_image_url
p127
Vhttp://pbs.twimg.com/profile_background_images/864291551/2efb13a28dea45aaef7f86ef53ac031d.png
p128
sVscreen_name
p129
VINN_LifeScience
p130
sg108
Ven
p131
sVprofile_background_tile
p132
I00
sVfavourites_count
p133
I4
sVname
p134
VINN Life Science
p135
sVnotifications
p136
Nsg23
Vhttp://t.co/4ghByM7eJq
p137
sg110
VMon Oct 22 20:55:41 +0000 2012
p138
sVcontributors_enabled
p139
I00
sVtime_zone
p140
VArizona
p141
sVprotected
p142
I00
sVdefault_profile
p143
I00
sVis_translator
p144
I00
ssS'contributors_enabled'
p145
I00
sS'profile_text_color'
p146
g51
sS'followers_count'
p147
I168
sS'profile_sidebar_border_color'
p148
g57
sS'id_str'
p149
g59
sS'default_profile_image'
p150
I00
sS'listed_count'
p151
I18
sS'status'
p152
g8
(ctweepy.models
Status
p153
g10
Ntp154
Rp155
(dp156
S'favorited'
p157
I00
sS'contributors'
p158
NsS'truncated'
p159
I00
sS'text'
p160
g68
sS'source_url'
p161
Vhttp://coschedule.com
p162
sS'possibly_sensitive'
p163
I00
sS'in_reply_to_status_id'
p164
NsS'geo'
p165
Nsg19
L665930514965127168L
sS'favorite_count'
p166
I0
sS'lang'
p167
g109
sg21
g75
sS'created_at'
p168
cdatetime
datetime
p169
(S'\x07\xdf\x0b\x0f\x10!\x01\x00\x00\x00'
p170
tp171
Rp172
sg40
g64
sS'coordinates'
p173
NsS'in_reply_to_user_id_str'
p174
NsS'source'
p175
VCoSchedule
p176
sS'in_reply_to_status_id_str'
p177
NsS'in_reply_to_screen_name'
p178
Nsg149
g101
sS'retweeted'
p179
I00
sS'place'
p180
NsS'retweet_count'
p181
I0
sS'in_reply_to_user_id'
p182
NsbsS'is_translation_enabled'
p183
I00
sS'utc_offset'
p184
I-25200
sS'statuses_count'
p185
I914
sS'description'
p186
g117
sS'friends_count'
p187
I99
sS'location'
p188
g120
sS'profile_link_color'
p189
g122
sS'profile_image_url'
p190
g124
sS'notifications'
p191
NsS'geo_enabled'
p192
I00
sS'profile_background_color'
p193
g61
sS'profile_background_image_url'
p194
g128
sS'screen_name'
p195
g130
sg167
g131
sg1
I00
sS'profile_background_tile'
p196
I00
sS'favourites_count'
p197
I4
sS'name'
p198
g135
sS'url'
p199
g137
sg168
g169
(S'\x07\xdc\n\x16\x147)\x00\x00\x00'
p200
tp201
Rp202
sS'profile_background_image_url_https'
p203
g48
sS'time_zone'
p204
g141
sS'protected'
p205
I00
sS'default_profile'
p206
I00
sS'is_translator'
p207
I00
sbs.