(dp0
S'following'
p1
(lp2
(lp3
I105082141
aI1229834264
aI85504721
aI385272211
aI434701900
aI436412944
aI458320165
aL2526886753L
aL2294834533L
aI214835263
aI849000048
aI407622527
aI874656463
aI16736241
aI230123496
aI19642657
aI523317978
aL3436079465L
aL3956771667L
aL2201496073L
aI2817461
aI89157246
aL2879940975L
aL3056703767L
aI89665190
aI284133100
aI271442447
aL2969501433L
aI551694442
aI12403412
aI4157261
aI166507237
aI18144466
aI17214331
aI14942445
aI75254030
aI17089636
aI32372834
aI299320099
aL3377082531L
aI16465385
aL3143260474L
aI93873778
aL2967899597L
aI144164139
aI568593193
aI16694719
aI211167741
aI128622564
aI1322295529
aI1665404540
aL2905232597L
aI108932245
aI105124957
aI994748959
aI763841
aI17305888
aI108626853
aI75855320
aI475585621
aI255988123
aI317818928
aI111041308
aI83894723
aI71556008
aI367637736
aI22627258
aI20503242
aI537244260
aI575211380
aI46078800
aI185966802
aI441302792
aL2543778775L
aL3012498695L
aL2171807316L
aI880966430
aI1770311
aI334824314
aI963075522
aI206717989
aI58417540
aI227273338
aI283806364
aI157981564
aI39727960
aI36626651
aI263665963
aI569279041
aI945646483
aL2218460796L
aI99947430
aI246751440
aI401982291
aL2157381758L
aI16611840
aI385858147
aL3131658815L
aI14306573
aI38381308
aI784064228
aI20609518
aI18676177
aL2270633732L
aI50063859
aL3027357395L
aL2797932440L
aI439323449
aI191143493
aI19402238
aI15234407
aI14758529
aI19515424
aI37710752
aI19725644
aI43910684
aI125614098
aI318541441
aI434856513
aL2775266938L
aI1539451436
aI271442716
aI562092246
aI279114771
aI762206192
aI182764833
aI1171755060
aI18759851
aI11167502
aI36803580
aL2849662577L
aI266212060
aI231441864
aL2892001877L
aL2882597943L
aI109682505
aI155857134
aI100490239
aL2372229692L
aI18144342
aI15686768
aI538350798
aI134765686
aI1086003890
aI63182397
aI185543792
aI270302557
aI15243058
aI301660456
aL2327480192L
aI366576518
aI67494940
aL2643733933L
aL2591051161L
aL2884851865L
aI362565198
aL2371774700L
aI159084016
aI15019391
aI74992460
aI1373252725
aI1612396898
aI1001868589
aI628215389
aI305737035
aI386247164
aL2817023374L
aI468286909
aI87408443
aI270399433
aI1043144670
aI1249350655
aI488663539
aL2803502542L
aI143538142
aL2494065776L
aI19028805
aI1267843368
aI1870743038
aI108994652
aL2389052996L
aI295608887
aI188683472
aI306872038
aI89456112
aI43208158
aI141170858
aI17208466
aI39585367
aI356324811
aI15460048
aI14486954
aI1684133550
aI208553951
aI259204346
aI392628386
aI433416680
aI1239671
aI122353251
aI112211447
aI44418062
aI19571360
aI1283650849
aL2231207094L
aI1062622357
aI1921221780
aI1301750677
aL2218382929L
aI288365288
aL2263594152L
aI180463340
aI16042441
aI125632807
aI304316780
aI789051786
aI76010207
aI733417892
aI597241161
aI296401536
aI621302316
aI250189210
aL2231963072L
aI288761635
aL2244459080L
aI607934127
aI424191544
aI105451020
aI1062038358
aI572225652
aL2180949942L
aI373547579
aI1328859643
aI263882903
aI322636598
aI145992645
aI365595792
aI770427066
aI41649802
aI336830951
aI23748448
aI142460751
aI1883374873
aI1324739280
aI424861562
aI1668017222
aI171644863
aI1416609212
aI250067502
aI833376920
aI427373555
aI225911384
aI1317355885
aI803241638
aI941365410
aI1585554812
aI437476501
aI409395833
aI222037936
aI166614438
aI331549226
aI197525876
aI323995234
aI867850490
aI1112757547
aI431479811
aI566315292
aI23791197
aI68648948
aI84094267
aI88714585
aI258978788
aI17484709
aI205258531
aI915186913
aI550041329
aI548636841
aI1038008040
aI256889809
aI1060199696
aI173735526
aI960022256
aI928195770
aI1043107754
aI380001549
aI44585286
aI560343521
aI397596665
aI497247399
aI15648827
aI195696910
aI875451908
aI621258621
aI215335661
aI334301414
aI297966824
aI425680702
aI802367252
aI298433556
aI298108635
aasS'followers'
p4
(lp5
(lp6
L3841576157L
aL3035217040L
aL2612311915L
aL2364075968L
aL2752355256L
aL2338213146L
aI199010416
aI499140339
aI1328796884
aL3548171237L
aI747088176
aL2378713202L
aL2576726245L
aL2763499153L
aI18488424
aI261806394
aL2293336056L
aI125874127
aI1914279546
aL2879940975L
aL3245509360L
aL3056703767L
aL2381184709L
aI1075910966
aL2821484136L
aI1665404540
aI176237845
aL2758161416L
aI880966430
aI334824314
aL3131658815L
aL3109852661L
aL3055623963L
aI439323449
aI318541441
aL2966412425L
aL2849662577L
aI551075738
aI208481777
aL2243643555L
aI305737035
aI1249350655
aI488663539
aL2803502542L
aL2799871138L
aI28076939
aL2796650797L
aL2761236737L
aL2498998177L
aL2485720027L
aI606036535
aL2562770585L
aI900577555
aI1862055169
aI433416680
aL2522939236L
aL2360490450L
aL2414515386L
aL2382439123L
aL2332270880L
aL2397018459L
aI254673212
aI56484338
aI1301750677
aL2301998149L
aL2240376569L
aI288365288
aL2250583424L
aL2263594152L
aI43208158
aL2231963072L
aL2240606685L
aI1324739280
aL2249155160L
aL2244459080L
aI1699954866
aI1958990364
aL2181826363L
aI580380695
aI365595792
aI411660614
aI336830951
aI27411227
aI1919790164
aI1690582423
aI1416609212
aI1602800514
aI1668017222
aI331549226
aI1579926727
aI427373555
aI533435474
aI1273194014
aI88714585
aI258978788
aI915186913
aI548636841
aI823109774
aI288761635
aI1043144670
aI1043107754
aI621258621
aI421114780
aI560343521
aI296401536
aI397596665
aI1007529690
aI762206192
aI104303498
aI521524119
aI186839477
aI406486188
aI307866620
aI279717458
aI522598043
aI436978221
aI473778491
aI622835569
aI225911384
aI519375986
aI583723158
aI373547579
aI297966824
aI72550782
aI215335661
aI418927602
aI406567691
aI197525876
aI425680702
aI334301414
aI298108635
aasS'obj'
p7
ccopy_reg
_reconstructor
p8
(ctweepy.models
User
p9
c__builtin__
object
p10
Ntp11
Rp12
(dp13
S'follow_request_sent'
p14
NsS'has_extended_profile'
p15
I00
sS'profile_use_background_image'
p16
I01
sS'profile_sidebar_fill_color'
p17
VEFEFEF
p18
sS'id'
p19
I935106062
sS'verified'
p20
I00
sS'entities'
p21
(dp22
Vdescription
p23
(dp24
Vurls
p25
(lp26
sssS'profile_image_url_https'
p27
Vhttps://pbs.twimg.com/profile_images/578639811071860736/oHT-5EG0_normal.jpeg
p28
sS'_json'
p29
(dp30
Vfollow_request_sent
p31
NsVhas_extended_profile
p32
I00
sVprofile_use_background_image
p33
I01
sVdefault_profile_image
p34
I00
sVid
p35
I935106062
sVprofile_background_image_url_https
p36
Vhttps://abs.twimg.com/images/themes/theme14/bg.gif
p37
sVverified
p38
I00
sVprofile_text_color
p39
V333333
p40
sVprofile_image_url_https
p41
g28
sVprofile_sidebar_fill_color
p42
g18
sVentities
p43
g22
sVfollowers_count
p44
I131
sVprofile_sidebar_border_color
p45
VEEEEEE
p46
sVid_str
p47
V935106062
p48
sVprofile_background_color
p49
V131516
p50
sVlisted_count
p51
I6
sVstatus
p52
(dp53
Vcontributors
p54
NsVtruncated
p55
I00
sVtext
p56
VRT @federalists: It's is time to act against terrorism, violence, hatred, national &amp; cultural divisions. Europe's united, Europeans are uni\u2026
p57
sVin_reply_to_status_id
p58
Nsg35
L666215517028503553L
sVfavorite_count
p59
I0
sVsource
p60
V<a href="http://twitter.com/download/android" rel="nofollow">Twitter for Android</a>
p61
sVretweeted
p62
I00
sVcoordinates
p63
Nsg43
(dp64
Vsymbols
p65
(lp66
sVuser_mentions
p67
(lp68
(dp69
g35
I20503242
sVindices
p70
(lp71
I3
aI15
asg47
V20503242
p72
sVscreen_name
p73
Vfederalists
p74
sVname
p75
VEuropean Federalists
p76
sasVhashtags
p77
(lp78
(dp79
g70
(lp80
I143
aI144
asg56
VParisAttacks
p81
sasg25
(lp82
ssVin_reply_to_screen_name
p83
Nsg47
V666215517028503553
p84
sVretweet_count
p85
I13
sVin_reply_to_user_id
p86
NsVfavorited
p87
I00
sVretweeted_status
p88
(dp89
Vlang
p90
Ven
p91
sg87
I00
sg43
(dp92
g65
(lp93
sg67
(lp94
sg77
(lp95
(dp96
g70
(lp97
I131
aI144
asg56
VParisAttacks
p98
sasg25
(lp99
ssg54
Nsg55
I00
sg56
VIt's is time to act against terrorism, violence, hatred, national &amp; cultural divisions. Europe's united, Europeans are united. #ParisAttacks
p100
sVcreated_at
p101
VMon Nov 16 10:54:35 +0000 2015
p102
sg62
I00
sVin_reply_to_status_id_str
p103
Nsg63
NsVin_reply_to_user_id_str
p104
Nsg60
V<a href="http://twitter.com" rel="nofollow">Twitter Web Client</a>
p105
sg58
Nsg83
Nsg47
V666207732018634752
p106
sVplace
p107
Nsg85
I13
sVgeo
p108
Nsg35
L666207732018634752L
sg59
I8
sg86
Nssg108
Nsg104
Nsg90
Ven
p109
sg101
VMon Nov 16 11:25:31 +0000 2015
p110
sg103
Nsg107
NssVis_translation_enabled
p111
I00
sVutc_offset
p112
I3600
sVstatuses_count
p113
I1727
sg23
V
p114
sVfriends_count
p115
I299
sVlocation
p116
g114
sVprofile_link_color
p117
V009999
p118
sVprofile_image_url
p119
Vhttp://pbs.twimg.com/profile_images/578639811071860736/oHT-5EG0_normal.jpeg
p120
sVfollowing
p121
NsVgeo_enabled
p122
I00
sVprofile_banner_url
p123
Vhttps://pbs.twimg.com/profile_banners/935106062/1444681584
p124
sVprofile_background_image_url
p125
Vhttp://abs.twimg.com/images/themes/theme14/bg.gif
p126
sg73
VDavid_gilcan
p127
sg90
Ves
p128
sVprofile_background_tile
p129
I01
sVfavourites_count
p130
I688
sg75
V.
p131
sVnotifications
p132
NsVurl
p133
Nsg101
VThu Nov 08 18:14:57 +0000 2012
p134
sVcontributors_enabled
p135
I00
sVtime_zone
p136
VAmsterdam
p137
sVprotected
p138
I00
sVdefault_profile
p139
I00
sVis_translator
p140
I00
ssS'contributors_enabled'
p141
I00
sS'profile_text_color'
p142
g40
sS'followers_count'
p143
I131
sS'profile_sidebar_border_color'
p144
g46
sS'id_str'
p145
g48
sS'default_profile_image'
p146
I00
sS'listed_count'
p147
I6
sS'status'
p148
g8
(ctweepy.models
Status
p149
g10
Ntp150
Rp151
(dp152
S'favorited'
p153
I00
sS'contributors'
p154
NsS'truncated'
p155
I00
sS'text'
p156
g57
sS'source_url'
p157
Vhttp://twitter.com/download/android
p158
sS'in_reply_to_status_id'
p159
NsS'geo'
p160
Nsg19
L666215517028503553L
sS'favorite_count'
p161
I0
sS'lang'
p162
g109
sS'retweeted_status'
p163
g8
(g149
g10
Ntp164
Rp165
(dp166
g153
I00
sg154
Nsg155
I00
sg156
g100
sg157
Vhttp://twitter.com
p167
sg159
Nsg160
Nsg19
L666207732018634752L
sg161
I8
sg162
g91
sg21
g92
sS'created_at'
p168
cdatetime
datetime
p169
(S'\x07\xdf\x0b\x10\n6#\x00\x00\x00'
p170
tp171
Rp172
sg29
g89
sS'coordinates'
p173
NsS'in_reply_to_user_id_str'
p174
NsS'source'
p175
VTwitter Web Client
p176
sS'in_reply_to_status_id_str'
p177
NsS'in_reply_to_screen_name'
p178
Nsg145
g106
sS'retweeted'
p179
I00
sS'place'
p180
NsS'retweet_count'
p181
I13
sS'in_reply_to_user_id'
p182
Nsbsg21
g64
sg168
g169
(S'\x07\xdf\x0b\x10\x0b\x19\x1f\x00\x00\x00'
p183
tp184
Rp185
sg29
g53
sg173
Nsg174
Nsg175
VTwitter for Android
p186
sg177
Nsg178
Nsg145
g84
sg179
I00
sg180
Nsg181
I13
sg182
NsbsS'is_translation_enabled'
p187
I00
sS'utc_offset'
p188
I3600
sS'statuses_count'
p189
I1727
sS'description'
p190
g114
sS'friends_count'
p191
I299
sS'location'
p192
g114
sS'profile_link_color'
p193
g118
sS'profile_image_url'
p194
g120
sS'notifications'
p195
NsS'geo_enabled'
p196
I00
sS'profile_background_color'
p197
g50
sS'profile_banner_url'
p198
g124
sS'profile_background_image_url'
p199
g126
sS'screen_name'
p200
g127
sg162
g128
sg1
I00
sS'profile_background_tile'
p201
I01
sS'favourites_count'
p202
I688
sS'name'
p203
g131
sS'url'
p204
Nsg168
g169
(S'\x07\xdc\x0b\x08\x12\x0e9\x00\x00\x00'
p205
tp206
Rp207
sS'profile_background_image_url_https'
p208
g37
sS'time_zone'
p209
g137
sS'protected'
p210
I00
sS'default_profile'
p211
I00
sS'is_translator'
p212
I00
sbs.