(dp0
S'following'
p1
(lp2
(lp3
I417687886
aI44401911
aI208155240
aI222177693
aI39853973
aI1347071545
aI24443284
aI103087049
aI404422077
aI21778391
aI25360971
aI140912249
aI553036368
aI263197731
aI114782468
aI384445331
aI455309376
aI227070376
aI16451932
aI14292717
aI332617373
aI1534167900
aI44196397
aL2914749442L
aI36597548
aI263812431
aI332069933
aI1245926706
aL2949297775L
aL3291493048L
aI74377194
aI1537373112
aI17266725
aI20562637
aL3083544538L
aL2968276594L
aI219194248
aL2426590039L
aI22609222
aI28328560
aI192993192
aI15774741
aI48952056
aI32811446
aL2851763936L
aI455824771
aI1229055031
aI147491390
aL2362057826L
aI15935591
aI15072071
aI487118986
aI1080498338
aI254507476
aI104185085
aL3040563341L
aI52383761
aL2482710715L
aL2286097290L
aI303645829
aI303862998
aI33887688
aI23922797
aI236058338
aI45768931
aI383536491
aL2556393734L
aI105426739
aI626345722
aL2249539351L
aI407083720
aI184627206
aI1115874631
aI87775422
aI599065130
aI15861355
aI1652541
aI44060322
aL2203779343L
aI862105645
aI45683950
aI55308734
aL2157007830L
aL3012072985L
aI14547546
aI26574283
aI403598464
aL2922304319L
aL2203738322L
aI117833643
aL2593590590L
aL2773296896L
aI18949452
aI1245945896
aI15246621
aI33980532
aL2528666894L
aI30818980
aI859659930
aI274549348
aI23859421
aI16827489
aI21910141
aL2783994442L
aI331532983
aI968400870
aI1877847488
aI1935650588
aI469389200
aL2716803696L
aI11856142
aI253167239
aI69620713
aI34713362
aI17808154
aI28164923
aI21328656
aI79004889
aI110792112
aI20449296
aI97334517
aL2792502410L
aI543907005
aI30850110
aI819768577
aL2668854204L
aL2283793796L
aI452151127
aI483070118
aI735337814
aI89225644
aI247753740
aL2731637615L
aL2222403391L
aI254232727
aI381318163
aI40705895
aI412819445
aI1310455182
aI68973300
aI1702404710
aL2188198663L
aI718706476
aI179575890
aI160585014
aL2333125358L
aI836655782
aL2475759936L
aI704753303
aI106498703
aI76232761
aI551529416
aL2516029806L
aL2203777290L
aI825633613
aL2461021099L
aI222979537
aI36359651
aL2342591485L
aI1954714663
aI1085289907
aL2517112130L
aL2203436131L
aL2203440420L
aL2203757035L
aI85253884
aI1966253173
aL2479167517L
aI407659112
aL2203724526L
aL2203742814L
aL2203757534L
aL2203770798L
aI1532976984
aI1664888258
aI1665158808
aI1543698252
aI1543875018
aI1527225931
aI1534470152
aI1574898223
aI1047632760
aI878385756
aI1534775892
aI1513709053
aI1517521261
aI1517118817
aI1513008931
aI1310678220
aI1494668605
aI40533912
aI15764136
aI205789121
aI16732770
aI18639734
aI166283782
aI366154376
aI573872971
aI217503796
aI807095
aI3108351
aI624413
aI14886375
aI15296897
aI15281391
aI17513682
aI23059499
aI193866745
aI46751949
aI26922633
aI484652575
aI1021596480
aI69906279
aI1116370088
aI17436270
aL2295130488L
aI292261358
aI219622638
aI862785565
aI117382717
aI561044371
aI236454159
aI236782203
aL2336463272L
aI719418293
aL2435286265L
aL2436641834L
aL2433196392L
aI1549668462
aI1887945666
aI595144967
aI1067475829
aI26208685
aI33154517
aI1932866845
aL2172532735L
aI1630017907
aI1091765431
aI23557976
aI238336579
aI1043043278
aI1094540124
aI18571616
aI164814211
aI440105953
aI385526290
aI317293844
aI1552851104
aI381157332
aI327484803
aI373457750
aI486048874
aI1040337204
aI79233326
aI115108283
aI173203697
aI46346274
aI482715278
aI206654705
aI215120115
aI1010996515
aI317587682
aI176877750
aI122519726
aI272317020
aI250141688
aI28122828
aI487887580
aI372343193
aI433334710
aI15568127
aI34305778
aI299752106
aI350958562
aI19546277
aI21459600
aI20274912
aI1457943090
aI1481858862
aI517240992
aI40245679
aI36309263
aI621841059
aI575745383
aI599502512
aI5988062
aI560677087
aI143949701
aI46570604
aI534197310
aI37874853
aI59072662
aI232937979
aI17229304
aI283311687
aI31768741
aI378621499
aI174616667
aI265168724
aI59803544
aI35432904
aI42995265
aI36499730
aI22973017
aI33662065
aI1509980516
aI17729373
aI36861426
aI95603320
aI57481443
aI34607054
aI24349486
aI16831557
aI163857573
aI1364930179
aI158275112
aI35002876
aI22973525
aI22446445
aI81025702
aI25316567
aI14216123
aI50393960
aI33792634
aI38400130
aI823020805
aI37606449
aI1435264016
aI34568673
aI15110357
aI32897012
aI23014254
aI30110091
aI73933246
aI67025123
aI405326940
aI28366310
aI104667619
aI22973153
aI23116322
aI97739943
aI341346597
aI1125652429
aI73951647
aI24891799
aI26711583
aI20243744
aI110793585
aI1149751
aI27652717
aI19399038
aI81083473
aI36221607
aI23074277
aI54227657
aI11014272
aI428333
aI29856819
aI104237736
aI115624161
aI20402945
aI243017028
aI69151690
aI245800866
aI183099257
aI37967651
aI166456076
aI44278933
aI96805038
aI224651485
aI759251
aI16409683
aI19397785
aI742143
aI10228272
aI132797342
aI74117037
aasS'followers'
p4
(lp5
(lp6
I1112887076
aL3984174079L
aL2851763936L
aL2890616938L
aI713289332
aL3241284933L
aI989581496
aL3291493048L
aL3295816034L
aI1444614408
aL3146933385L
aL3346617269L
aL2305843638L
aL2460016477L
aL3238352623L
aI1525436996
aL3032294919L
aI287885364
aL3290760196L
aI383536491
aL3200156931L
aI1932866845
aL2979820455L
aI45683950
aL3012072985L
aI79004889
aL2922304319L
aL2593590590L
aI331532983
aI469389200
aL2792502410L
aI452151127
aL2668854204L
aI30850110
aL2283793796L
aI40705895
aI68973300
aL2576127521L
aI1284736296
aL2516029806L
aL2517112130L
aI222979537
aL2578514034L
aL2475759936L
aI1403351911
aL2333125358L
aI193866745
aL2220405511L
aL2188198663L
aI1594459981
aI1665158808
aI1664888258
aI782389304
aI232937979
aI1040337204
aI1532976984
aI176877750
aI482715278
aI215120115
aI1047632760
aI878385756
aI1574898223
aI1436341081
aI299752106
aI1487923782
aI1534470152
aI1527225931
aI1543875018
aI1543698252
aI1534775892
aI1513709053
aI534197310
aI1517521261
aI1517118817
aI1513008931
aI1310678220
aI255415938
aI1435264016
aI1481858862
aI1125652429
aI1494668605
aasS'obj'
p7
ccopy_reg
_reconstructor
p8
(ctweepy.models
User
p9
c__builtin__
object
p10
Ntp11
Rp12
(dp13
S'follow_request_sent'
p14
NsS'has_extended_profile'
p15
I00
sS'profile_use_background_image'
p16
I01
sS'profile_sidebar_fill_color'
p17
VDDEEF6
p18
sS'id'
p19
I940267489
sS'verified'
p20
I00
sS'entities'
p21
(dp22
Vdescription
p23
(dp24
Vurls
p25
(lp26
sssS'profile_image_url_https'
p27
Vhttps://pbs.twimg.com/profile_images/2833545128/c5b930fb9f5d02ce112dd5fc2219d6db_normal.jpeg
p28
sS'_json'
p29
(dp30
Vfollow_request_sent
p31
NsVhas_extended_profile
p32
I00
sVprofile_use_background_image
p33
I01
sVdefault_profile_image
p34
I00
sVid
p35
I940267489
sVprofile_background_image_url_https
p36
Vhttps://abs.twimg.com/images/themes/theme1/bg.png
p37
sVverified
p38
I00
sVprofile_text_color
p39
V333333
p40
sVprofile_image_url_https
p41
g28
sVprofile_sidebar_fill_color
p42
g18
sVentities
p43
g22
sVfollowers_count
p44
I81
sVprofile_sidebar_border_color
p45
VC0DEED
p46
sVid_str
p47
V940267489
p48
sVprofile_background_color
p49
VC0DEED
p50
sVlisted_count
p51
I0
sVstatus
p52
(dp53
Vcontributors
p54
NsVtruncated
p55
I00
sVtext
p56
VRT @SeekingAlpha: GE Is Tired Of Being Important - M&amp;A Daily https://t.co/0ErkiCNh8C $AGN $ALTR $ATVI $AVGO $BHI $BRCM $BRGYY $BUD $DHR $DM\u2026
p57
sVin_reply_to_status_id
p58
Nsg35
L661582573370372096L
sVfavorite_count
p59
I0
sVsource
p60
V<a href="http://twitter.com/download/iphone" rel="nofollow">Twitter for iPhone</a>
p61
sVretweeted
p62
I00
sVcoordinates
p63
Nsg43
(dp64
Vsymbols
p65
(lp66
(dp67
Vindices
p68
(lp69
I89
aI93
asg56
VAGN
p70
sa(dp71
g68
(lp72
I94
aI99
asg56
VALTR
p73
sa(dp74
g68
(lp75
I100
aI105
asg56
VATVI
p76
sa(dp77
g68
(lp78
I106
aI111
asg56
VAVGO
p79
sa(dp80
g68
(lp81
I112
aI116
asg56
VBHI
p82
sa(dp83
g68
(lp84
I117
aI122
asg56
VBRCM
p85
sa(dp86
g68
(lp87
I123
aI129
asg56
VBRGYY
p88
sa(dp89
g68
(lp90
I130
aI134
asg56
VBUD
p91
sa(dp92
g68
(lp93
I135
aI139
asg56
VDHR
p94
sa(dp95
g68
(lp96
I143
aI144
asg56
VDMND
p97
sa(dp98
g68
(lp99
I143
aI144
asg56
VDRAD
p100
sa(dp101
g68
(lp102
I143
aI144
asg56
VDYAX
p103
sasVuser_mentions
p104
(lp105
(dp106
g35
I23059499
sg68
(lp107
I3
aI16
asg47
V23059499
p108
sVscreen_name
p109
VSeekingAlpha
p110
sVname
p111
VSeeking Alpha
p112
sasVhashtags
p113
(lp114
sg25
(lp115
(dp116
Vurl
p117
Vhttps://t.co/0ErkiCNh8C
p118
sg68
(lp119
I65
aI88
asVexpanded_url
p120
Vhttp://seekingalpha.com/article/3637946-ge-is-tired-of-being-important-m-and-a-daily?source=feed_f
p121
sVdisplay_url
p122
Vseekingalpha.com/article/363794\u2026
p123
sassVin_reply_to_screen_name
p124
Nsg47
V661582573370372096
p125
sVretweet_count
p126
I3
sVin_reply_to_user_id
p127
NsVfavorited
p128
I00
sVretweeted_status
p129
(dp130
g54
Nsg55
I00
sg56
VGE Is Tired Of Being Important - M&amp;A Daily https://t.co/0ErkiCNh8C $AGN $ALTR $ATVI $AVGO $BHI $BRCM $BRGYY $BUD $DHR $DMND $DRAD $DYAX
p131
sg58
Nsg35
L661582537139949569L
sg59
I1
sg60
V<a href="http://seekingalpha.com" rel="nofollow">Seeking Alpha</a>
p132
sg62
I00
sg63
Nsg43
(dp133
g65
(lp134
(dp135
g68
(lp136
I71
aI75
asg56
VAGN
p137
sa(dp138
g68
(lp139
I76
aI81
asg56
VALTR
p140
sa(dp141
g68
(lp142
I82
aI87
asg56
VATVI
p143
sa(dp144
g68
(lp145
I88
aI93
asg56
VAVGO
p146
sa(dp147
g68
(lp148
I94
aI98
asg56
VBHI
p149
sa(dp150
g68
(lp151
I99
aI104
asg56
VBRCM
p152
sa(dp153
g68
(lp154
I105
aI111
asg56
VBRGYY
p155
sa(dp156
g68
(lp157
I112
aI116
asg56
VBUD
p158
sa(dp159
g68
(lp160
I117
aI121
asg56
VDHR
p161
sa(dp162
g68
(lp163
I122
aI127
asg56
VDMND
p164
sa(dp165
g68
(lp166
I128
aI133
asg56
VDRAD
p167
sa(dp168
g68
(lp169
I134
aI139
asg56
VDYAX
p170
sasg104
(lp171
sg113
(lp172
sg25
(lp173
(dp174
g117
Vhttps://t.co/0ErkiCNh8C
p175
sg68
(lp176
I47
aI70
asg120
Vhttp://seekingalpha.com/article/3637946-ge-is-tired-of-being-important-m-and-a-daily?source=feed_f
p177
sg122
Vseekingalpha.com/article/363794\u2026
p178
sassg124
Nsg47
V661582537139949569
p179
sg126
I3
sg127
Nsg128
I00
sVgeo
p180
NsVin_reply_to_user_id_str
p181
NsVpossibly_sensitive
p182
I00
sVlang
p183
Ven
p184
sVcreated_at
p185
VTue Nov 03 16:35:43 +0000 2015
p186
sVin_reply_to_status_id_str
p187
NsVplace
p188
Nssg180
Nsg181
Nsg182
I00
sg183
Ven
p189
sg185
VTue Nov 03 16:35:51 +0000 2015
p190
sg187
Nsg188
NssVis_translation_enabled
p191
I00
sVutc_offset
p192
NsVstatuses_count
p193
I17
sg23
V
p194
sVfriends_count
p195
I377
sVlocation
p196
g194
sVprofile_link_color
p197
V0084B4
p198
sVprofile_image_url
p199
Vhttp://pbs.twimg.com/profile_images/2833545128/c5b930fb9f5d02ce112dd5fc2219d6db_normal.jpeg
p200
sVfollowing
p201
NsVgeo_enabled
p202
I00
sVprofile_background_image_url
p203
Vhttp://abs.twimg.com/images/themes/theme1/bg.png
p204
sg109
Vdalestsh
p205
sg183
Ven
p206
sVprofile_background_tile
p207
I00
sVfavourites_count
p208
I35
sg111
Vdalestsh
p209
sVnotifications
p210
Nsg117
Nsg185
VSun Nov 11 00:38:25 +0000 2012
p211
sVcontributors_enabled
p212
I00
sVtime_zone
p213
NsVprotected
p214
I00
sVdefault_profile
p215
I01
sVis_translator
p216
I00
ssS'contributors_enabled'
p217
I00
sS'profile_text_color'
p218
g40
sS'followers_count'
p219
I81
sS'profile_sidebar_border_color'
p220
g46
sS'id_str'
p221
g48
sS'default_profile_image'
p222
I00
sS'listed_count'
p223
I0
sS'status'
p224
g8
(ctweepy.models
Status
p225
g10
Ntp226
Rp227
(dp228
S'favorited'
p229
I00
sS'contributors'
p230
NsS'truncated'
p231
I00
sS'text'
p232
g57
sS'source_url'
p233
Vhttp://twitter.com/download/iphone
p234
sS'possibly_sensitive'
p235
I00
sS'in_reply_to_status_id'
p236
NsS'geo'
p237
Nsg19
L661582573370372096L
sS'favorite_count'
p238
I0
sS'lang'
p239
g189
sS'retweeted_status'
p240
g8
(g225
g10
Ntp241
Rp242
(dp243
g229
I00
sg230
Nsg231
I00
sg232
g131
sg233
Vhttp://seekingalpha.com
p244
sg235
I00
sg236
Nsg237
Nsg19
L661582537139949569L
sg238
I1
sg239
g184
sg21
g133
sS'created_at'
p245
cdatetime
datetime
p246
(S'\x07\xdf\x0b\x03\x10#+\x00\x00\x00'
p247
tp248
Rp249
sg29
g130
sS'coordinates'
p250
NsS'in_reply_to_user_id_str'
p251
NsS'source'
p252
VSeeking Alpha
p253
sS'in_reply_to_status_id_str'
p254
NsS'in_reply_to_screen_name'
p255
Nsg221
g179
sS'retweeted'
p256
I00
sS'place'
p257
NsS'retweet_count'
p258
I3
sS'in_reply_to_user_id'
p259
Nsbsg21
g64
sg245
g246
(S'\x07\xdf\x0b\x03\x10#3\x00\x00\x00'
p260
tp261
Rp262
sg29
g53
sg250
Nsg251
Nsg252
VTwitter for iPhone
p263
sg254
Nsg255
Nsg221
g125
sg256
I00
sg257
Nsg258
I3
sg259
NsbsS'is_translation_enabled'
p264
I00
sS'utc_offset'
p265
NsS'statuses_count'
p266
I17
sS'description'
p267
g194
sS'friends_count'
p268
I377
sS'location'
p269
g194
sS'profile_link_color'
p270
g198
sS'profile_image_url'
p271
g200
sS'notifications'
p272
NsS'geo_enabled'
p273
I00
sS'profile_background_color'
p274
g50
sS'profile_background_image_url'
p275
g204
sS'screen_name'
p276
g205
sg239
g206
sg1
I00
sS'profile_background_tile'
p277
I00
sS'favourites_count'
p278
I35
sS'name'
p279
g209
sS'url'
p280
Nsg245
g246
(S'\x07\xdc\x0b\x0b\x00&\x19\x00\x00\x00'
p281
tp282
Rp283
sS'profile_background_image_url_https'
p284
g37
sS'time_zone'
p285
NsS'protected'
p286
I00
sS'default_profile'
p287
I01
sS'is_translator'
p288
I00
sbs.