(dp0
S'following'
p1
(lp2
sS'followers'
p3
(lp4
(lp5
I314324021
aI250317700
aI37699456
aL4032841407L
aI145281631
aI191080944
aI554290220
aI78037905
aI50041321
aL2314289604L
aI561584068
aI461777869
aI799224602
aI881608580
aI1372592071
aI318393064
aL3070805257L
aI897446996
aI322560244
aI1680622674
aI422966643
aI1963181971
aL3587065092L
aI408135489
aI113408607
aI1283552510
aI248817888
aL2693627945L
aI219800346
aL3376730111L
aI18735662
aL2205287227L
aI14668175
aI25356141
aI30530416
aI451070045
aI328190779
aI1107595694
aI192776791
aL3817164382L
aI285706273
aL2385465875L
aL3611827753L
aL2447155508L
aL2271057959L
aL3669843615L
aI359482411
aL3438600604L
aI1342431942
aL3653176577L
aI510838470
aI47847296
aL2562856427L
aI43554881
aL3221782987L
aL2366237078L
aI378345798
aI153208885
aI456647812
aI907346244
aI42417984
aI161065799
aL3467981295L
aI173450286
aL2182994954L
aI18403870
aI588463085
aL3384029523L
aL3022451795L
aI108419474
aI140462220
aI58099525
aI103921266
aI262652488
aI90515838
aI603000117
aI112448482
aL2911113703L
aI249412545
aI1376720149
aI198746291
aL2543429850L
aI73195466
aI195027385
aL2181192163L
aI54234228
aI255996385
aI522476529
aI1587217963
aL2850470339L
aI250227824
aL3298329037L
aL2898526274L
aI35678837
aI501039344
aI1545630956
aI161896313
aI235531990
aI324164299
aL3287898060L
aI897769794
aI330516971
aI76915108
aI557668178
aI251428402
aL3282085993L
aI190045624
aI88215408
aI1845191160
aI919576122
aI254117778
aI1410816985
aI219501803
aI75238809
aL2620218247L
aI19162527
aI1697997818
aI239738769
aL2447334339L
aL2845805087L
aI26974332
aI310819418
aI82703923
aI17433343
aI28481526
aL2257290634L
aI165285550
aI354006245
aI66103873
aI946453772
aL3156747015L
aI49431605
aI56826313
aI167911458
aI966553735
aI255244758
aI107646745
aI94365798
aL3146116360L
aL3215332023L
aL3214219209L
aL3214286753L
aL3214218633L
aL2690326619L
aL3215053859L
aL3213973629L
aL3215352161L
aI1470731052
aI223678784
aL3214260989L
aI377330000
aL3156974425L
aI19304535
aL3291707865L
aI175857285
aL2358670423L
aI245721011
aL3044982033L
aI245814742
aI196462345
aI93996150
aI1020224328
aI584102879
aI892524936
aI318661808
aI224823146
aI31156186
aI1529917477
aI364494409
aI492248877
aI64656814
aI408474322
aL3165970765L
aI26042891
aI87201670
aI190777222
aL3214778140L
aL3020352701L
aI28072911
aL2793890555L
aI360008071
aI546172896
aI1949686842
aI175031564
aI16149791
aI1830977756
aI276186673
aL2963769898L
aI593715538
aI306222431
aI612946819
aI178900268
aL2327817470L
aL3019696516L
aI217953590
aL2922234899L
aI15798830
aL2943271445L
aL2696657696L
aI291956945
aI412834411
aI260578354
aL2686741663L
aI284946253
aI126731503
aI232963053
aI161340273
aI345347802
aL3034551947L
aL3019279975L
aI33570906
aI38522228
aI30583510
aL3040729821L
aI1162963999
aI47100757
aL2343953910L
aI35480744
aI271495885
aI15823891
aL3010837787L
aI396865989
aI241206414
aI1004925650
aI917630611
aI39916645
aI199994311
aI22740720
aI485061994
aI1281335977
aI431861863
aL3031961761L
aI314061974
aL2342472029L
aL2458451148L
aL2823428100L
aL2211678319L
aL3048772588L
aI309420827
aI563306356
aI28934571
aL3040431082L
aI1233888296
aI607183702
aI201331842
aI372190732
aI66676367
aL3027458903L
aI124585235
aI374619986
aI25468661
aL2941058962L
aI992075498
aI1053484388
aL2740327664L
aI15910478
aI262920901
aI1655736708
aL2998674960L
aL2330623136L
aL2939839209L
aI362859510
aL2930500861L
aI514720100
aL2373640846L
aI41200393
aI1291771357
aI376456290
aI1868729990
aL2901132555L
aI22402187
aL2810450555L
aL2761715796L
aI825818250
aL2212999987L
aI132173493
aI565951615
aL2904682366L
aL2895359311L
aL2190116136L
aI136785323
aL2845552630L
aL2904098999L
aL2597008298L
aI390512763
aL2899244787L
aL2896401414L
aI49253250
aI629056506
aI178130011
aI515890158
aI405571001
aI85616008
aI256659644
aI28749902
aI171060995
aI36293963
aL2880764642L
aI123920784
aL2805874982L
aI381307183
aI819340
aI10374422
aI50206233
aI471121755
aI513864386
aL2655041204L
aI431188246
aI18218081
aI810189398
aL2881110906L
aI458672048
aI71003639
aI140540706
aI101588305
aI34939208
aI396629217
aI41305442
aI237891290
aI221081866
aL2817861976L
aI555461872
aL2423573046L
aL2541486013L
aI540477724
aI536278070
aL2794397342L
aL2835739069L
aL2333985300L
aI1347668588
aI1849096682
aL2797799005L
aI61495738
aI44050635
aI50381253
aI266386119
aL2492030108L
aI946533932
aI1654083924
aI1077850658
aI351200120
aI26962674
aL2618831658L
aL2748641855L
aI52857046
aI27350554
aI16023435
aL2551164451L
aI217589377
aL2285250607L
aI1336346965
aI260474791
aI19171206
aI16690699
aI50869511
aI527237191
aI1645946100
aI18955729
aI255602661
aI262988083
aI23860719
aI49748240
aI252525356
aI71391768
aI362507190
aI185030074
aI45620381
aL2443236142L
aI16975907
aI311768842
aI613296424
aI600961508
aL2682266112L
aI597820633
aI253323621
aL2608446166L
aL2488298821L
aI19606337
aL2290064965L
aI23244305
aI420525320
aI34185439
aI423776545
aI47436230
aI38127880
aI38368292
aI18892351
aI154494654
aI167216567
aI16012322
aL2419209770L
aI225135908
aI517901156
aI22533298
aI33429951
aI1867262846
aI21155531
aI41868817
aI355744864
aI83185620
aI128077852
aI1659151640
aI45377391
aI551899010
aI1935423013
aI242476994
aL2537184969L
aI304744823
aI1131576715
aI177186309
aI85841729
aI78971620
aL2196591458L
aI147653070
aI877804243
aI1967178492
aI704152326
aI83693600
aI30217291
aI15897179
aI295530303
aI264485971
aI19010961
aI74035340
aI16843049
aL2416788026L
aL2375659116L
aI26333635
aL2374172425L
aI171703150
aL2363914387L
aI28791840
aI58930874
aI260903892
aI319743647
aI628635025
aI17529929
aI1585959218
aI139520776
aI305229326
aL2366440854L
aL2364811848L
aI55612755
aI180232348
aI291691008
aI284359766
aI52166809
aL2351419716L
aI37162164
aI301580692
aI1326659983
aI36049338
aI616227533
aI15754803
aL2282402046L
aI1485773706
aI621418648
aI104611058
aI367530506
aI1941160843
aI904968246
aI23059929
aI17515683
aI100973449
aL2214587864L
aI43950136
aI1115988774
aI414187875
aI343471211
aI170197134
aI1307362375
aI247449754
aI431041799
aI18506957
aI57120694
aI26531215
aL2180430007L
aI422775421
aI1665248042
aI50644627
aI471625593
aI268129252
aI845850054
aI287164089
aI1313386770
aI65783344
aI1653904633
aL2177619036L
aI43060080
aL2171665525L
aI42023488
aI25053334
aI49560393
aI493787047
aI15852241
aI242115514
aI1170110743
aI17800777
aI1726233745
aI75256280
aI1969025696
aI71515895
aI60775215
aI35643668
aI1935014550
aI326977432
aI102804563
aI230474651
aI1618160197
aI29402218
aI54915740
aI1321130232
aI1015202004
aI22415307
aI483236066
aI14722659
aI1101781249
aI34082014
aI1310696370
aI77952099
aI588493596
aI216968692
aI133811779
aI1924947228
aI293327665
aI30290778
aI91816024
aI503562123
aI131990331
aI243424418
aI105880780
aI116319621
aI1287244856
aI6459
aI801751357
aI500352766
aI20661433
aI21813874
aI1447441921
aI1624588772
aI396209884
aI240362190
aI14987991
aI1598890962
aI389620584
aI1516902038
aI332358988
aI1355437832
aI114099924
aI301594567
aI121439458
aI23919143
aI591138491
aI887492245
aI25277152
aI16483885
aI38227105
aasS'obj'
p6
ccopy_reg
_reconstructor
p7
(ctweepy.models
User
p8
c__builtin__
object
p9
Ntp10
Rp11
(dp12
S'follow_request_sent'
p13
NsS'has_extended_profile'
p14
I00
sS'profile_use_background_image'
p15
I01
sS'profile_sidebar_fill_color'
p16
VDDEEF6
p17
sS'id'
p18
I944206759
sS'verified'
p19
I00
sS'entities'
p20
(dp21
Vurl
p22
(dp23
Vurls
p24
(lp25
(dp26
g22
Vhttp://t.co/aUjr7lOC
p27
sVindices
p28
(lp29
I0
aI20
asVexpanded_url
p30
Vhttp://WallStreetConsensus.com
p31
sVdisplay_url
p32
VWallStreetConsensus.com
p33
sassVdescription
p34
(dp35
g24
(lp36
sssS'profile_image_url_https'
p37
Vhttps://pbs.twimg.com/profile_images/2841704960/c1cb321ffee6ea72f42002a62d901497_normal.jpeg
p38
sS'_json'
p39
(dp40
Vfollow_request_sent
p41
NsVhas_extended_profile
p42
I00
sVprofile_use_background_image
p43
I01
sVdefault_profile_image
p44
I00
sVid
p45
I944206759
sVprofile_background_image_url_https
p46
Vhttps://abs.twimg.com/images/themes/theme1/bg.png
p47
sVverified
p48
I00
sVprofile_text_color
p49
V333333
p50
sVprofile_image_url_https
p51
g38
sVprofile_sidebar_fill_color
p52
g17
sVentities
p53
g21
sVfollowers_count
p54
I557
sVprofile_sidebar_border_color
p55
VC0DEED
p56
sVid_str
p57
V944206759
p58
sVprofile_background_color
p59
VC0DEED
p60
sVlisted_count
p61
I44
sVstatus
p62
(dp63
Vcontributors
p64
NsVtruncated
p65
I00
sVtext
p66
VEPS 12/13 pre-market: $TYC, $EPC, $BERY, $CSAL, $JCP, $IOC, $TOUR, $PFNX, $MTLS, $JMG, $CTSO, $CELP, $CDTI, $SDPI https://t.co/2bsEV6dOOt
p67
sVin_reply_to_status_id
p68
Nsg45
L664902801210781696L
sVfavorite_count
p69
I1
sVsource
p70
V<a href="http://stocktwits.com" rel="nofollow">StockTwits Web</a>
p71
sVretweeted
p72
I00
sVcoordinates
p73
Nsg53
(dp74
Vsymbols
p75
(lp76
(dp77
g28
(lp78
I22
aI26
asg66
VTYC
p79
sa(dp80
g28
(lp81
I28
aI32
asg66
VEPC
p82
sa(dp83
g28
(lp84
I34
aI39
asg66
VBERY
p85
sa(dp86
g28
(lp87
I41
aI46
asg66
VCSAL
p88
sa(dp89
g28
(lp90
I48
aI52
asg66
VJCP
p91
sa(dp92
g28
(lp93
I54
aI58
asg66
VIOC
p94
sa(dp95
g28
(lp96
I60
aI65
asg66
VTOUR
p97
sa(dp98
g28
(lp99
I67
aI72
asg66
VPFNX
p100
sa(dp101
g28
(lp102
I74
aI79
asg66
VMTLS
p103
sa(dp104
g28
(lp105
I81
aI85
asg66
VJMG
p106
sa(dp107
g28
(lp108
I87
aI92
asg66
VCTSO
p109
sa(dp110
g28
(lp111
I94
aI99
asg66
VCELP
p112
sa(dp113
g28
(lp114
I101
aI106
asg66
VCDTI
p115
sa(dp116
g28
(lp117
I108
aI113
asg66
VSDPI
p118
sasVuser_mentions
p119
(lp120
sVhashtags
p121
(lp122
sg24
(lp123
sVmedia
p124
(lp125
(dp126
g30
Vhttp://twitter.com/WSConsensus/status/664902801210781696/photo/1
p127
sg32
Vpic.twitter.com/2bsEV6dOOt
p128
sg22
Vhttps://t.co/2bsEV6dOOt
p129
sVmedia_url_https
p130
Vhttps://pbs.twimg.com/media/CTo1kg3UkAE7u7B.png
p131
sg57
V664902796404101121
p132
sVsizes
p133
(dp134
Vlarge
p135
(dp136
Vh
p137
I352
sVresize
p138
Vfit
p139
sVw
p140
I753
ssVsmall
p141
(dp142
g137
I158
sg138
Vfit
p143
sg140
I340
ssVmedium
p144
(dp145
g137
I280
sg138
Vfit
p146
sg140
I600
ssVthumb
p147
(dp148
g137
I150
sg138
Vcrop
p149
sg140
I150
sssg28
(lp150
I114
aI137
asVtype
p151
Vphoto
p152
sg45
L664902796404101121L
sVmedia_url
p153
Vhttp://pbs.twimg.com/media/CTo1kg3UkAE7u7B.png
p154
sassVin_reply_to_screen_name
p155
Nsg57
V664902801210781696
p156
sVretweet_count
p157
I1
sVin_reply_to_user_id
p158
NsVfavorited
p159
I00
sVgeo
p160
NsVin_reply_to_user_id_str
p161
NsVpossibly_sensitive
p162
I00
sVlang
p163
Ven
p164
sVcreated_at
p165
VThu Nov 12 20:29:15 +0000 2015
p166
sVin_reply_to_status_id_str
p167
NsVplace
p168
NssVis_translation_enabled
p169
I00
sVutc_offset
p170
NsVstatuses_count
p171
I4256
sg34
VWSC provides unique Financial Market research and analysis including Indexes, Stocks, ETFs, Currencies and Commodities.  We work to build a smarter consensus.
p172
sVfriends_count
p173
I0
sVlocation
p174
V
p175
sVprofile_link_color
p176
V0084B4
p177
sVprofile_image_url
p178
Vhttp://pbs.twimg.com/profile_images/2841704960/c1cb321ffee6ea72f42002a62d901497_normal.jpeg
p179
sVfollowing
p180
NsVgeo_enabled
p181
I00
sVprofile_background_image_url
p182
Vhttp://abs.twimg.com/images/themes/theme1/bg.png
p183
sVscreen_name
p184
VWSConsensus
p185
sg163
Ven
p186
sVprofile_background_tile
p187
I00
sVfavourites_count
p188
I0
sVname
p189
VWallStreetConsensus
p190
sVnotifications
p191
Nsg22
Vhttp://t.co/aUjr7lOC
p192
sg165
VMon Nov 12 17:56:30 +0000 2012
p193
sVcontributors_enabled
p194
I00
sVtime_zone
p195
NsVprotected
p196
I00
sVdefault_profile
p197
I01
sVis_translator
p198
I00
ssS'contributors_enabled'
p199
I00
sS'profile_text_color'
p200
g50
sS'followers_count'
p201
I557
sS'profile_sidebar_border_color'
p202
g56
sS'id_str'
p203
g58
sS'default_profile_image'
p204
I00
sS'listed_count'
p205
I44
sS'status'
p206
g7
(ctweepy.models
Status
p207
g9
Ntp208
Rp209
(dp210
S'favorited'
p211
I00
sS'contributors'
p212
NsS'truncated'
p213
I00
sS'text'
p214
g67
sS'source_url'
p215
Vhttp://stocktwits.com
p216
sS'possibly_sensitive'
p217
I00
sS'in_reply_to_status_id'
p218
NsS'geo'
p219
Nsg18
L664902801210781696L
sS'favorite_count'
p220
I1
sS'lang'
p221
g164
sg20
g74
sS'created_at'
p222
cdatetime
datetime
p223
(S'\x07\xdf\x0b\x0c\x14\x1d\x0f\x00\x00\x00'
p224
tp225
Rp226
sg39
g63
sS'coordinates'
p227
NsS'in_reply_to_user_id_str'
p228
NsS'source'
p229
VStockTwits Web
p230
sS'in_reply_to_status_id_str'
p231
NsS'in_reply_to_screen_name'
p232
Nsg203
g156
sS'retweeted'
p233
I00
sS'place'
p234
NsS'retweet_count'
p235
I1
sS'in_reply_to_user_id'
p236
NsbsS'is_translation_enabled'
p237
I00
sS'utc_offset'
p238
NsS'statuses_count'
p239
I4256
sS'description'
p240
g172
sS'friends_count'
p241
I0
sS'location'
p242
g175
sS'profile_link_color'
p243
g177
sS'profile_image_url'
p244
g179
sS'notifications'
p245
NsS'geo_enabled'
p246
I00
sS'profile_background_color'
p247
g60
sS'profile_background_image_url'
p248
g183
sS'screen_name'
p249
g185
sg221
g186
sg1
I00
sS'profile_background_tile'
p250
I00
sS'favourites_count'
p251
I0
sS'name'
p252
g190
sS'url'
p253
g192
sg222
g223
(S'\x07\xdc\x0b\x0c\x118\x1e\x00\x00\x00'
p254
tp255
Rp256
sS'profile_background_image_url_https'
p257
g47
sS'time_zone'
p258
NsS'protected'
p259
I00
sS'default_profile'
p260
I01
sS'is_translator'
p261
I00
sbs.