(dp0
S'following'
p1
(lp2
(lp3
L3674888421L
aL3133725133L
aL2453385626L
aI254280603
aI48952056
aL2308036993L
aI15861355
aI497762677
aI303862998
aI87775422
aI15090650
aI23922797
aI19764179
aI5722742
aI28137012
aI927783252
aI217304598
aI39462935
aI16399949
aI89043072
aI267867165
aI5943622
aI16994529
aI284381441
aI11145642
aI3108351
aI599065130
aI28140646
aI1754641
aI206247856
aI14465640
aI19988458
aI600378539
aI19383099
aI444251529
aI23030211
aI24674124
aI104146203
aI879521
aI898301664
aI857471436
aI34713362
aI15861220
aI617671637
aI509162547
aI90452742
aI14173032
aI4388511
aI12480582
aI359740998
aI38476367
aI14216123
aI15718150
aI6730222
aI8287602
aI816653
aI40098752
aI286654612
aI176839290
aI28571999
aI4898091
aI16228398
aI1378
aI19224439
aI3512101
aI1000591
aI5252591
aasS'followers'
p4
(lp5
(lp6
I330761462
aL3551310979L
aI556228119
aL3300887711L
aL2376952352L
aI28570718
aI361980867
aL2162521757L
aL3480886992L
aI124779106
aI1461649975
aI42758618
aI890088571
aI38562627
aL3343850075L
aL3335921601L
aL3007704313L
aI16296791
aI523790814
aI118354335
aI5252591
aI605081491
aL2901871452L
aI1642329908
aL2178857768L
aI1565751108
aI76799754
aL3133725133L
aI1655962526
aL2828138658L
aI515780605
aL2901992178L
aL2434146474L
aL2263565685L
aI971129101
aL2952673006L
aL2200700480L
aL3061163789L
aI258243176
aL2414171510L
aI18878494
aL2328196453L
aI18205337
aI618349347
aI8287602
aL3106495051L
aI600559767
aI21985176
aL3226723417L
aI22863310
aI40149174
aI166041412
aL2600232204L
aI82782889
aI54224867
aL2308036993L
aI158650986
aI39759840
aL2980698300L
aI318661808
aI165095536
aI1019032993
aL3011820468L
aL2951529741L
aL2909350805L
aI280226021
aL2922115476L
aI17190732
aI17895466
aI611817117
aI296113768
aI608149203
aL2253775698L
aI878621532
aI200225029
aI367871497
aI283895713
aL2925028296L
aI917403199
aI396936042
aI14886375
aL2895352817L
aI19082500
aL2891403918L
aI1534837273
aL2785679507L
aI137801537
aI630632827
aI17106080
aL2805776779L
aI538457406
aL2841550671L
aI337350783
aI1190440506
aL2735052895L
aL2839062919L
aL2798722745L
aI28697857
aI176384474
aL2804399551L
aI18442100
aI45011903
aI1496945653
aI57229655
aI1383391782
aI17223294
aI1328282966
aI327092513
aI60390943
aI1413474480
aI54664941
aL2352286363L
aI57826817
aI1575121074
aI151499462
aL2447925632L
aI267867165
aI14209126
aI975245768
aI18634330
aL2283023929L
aL2310207380L
aI1456752384
aL2320539110L
aI228439797
aI262381873
aI535724907
aI458384792
aI1663750862
aI406015714
aI26597472
aL2189509680L
aI1057758510
aI1720465278
aI76444167
aI507759216
aI130202248
aI582033572
aI16620320
aI1942463300
aI131924817
aL2243666268L
aI110844262
aI16815669
aI296934744
aI365789221
aI363444877
aI564676602
aI24461812
aI14935367
aI715305775
aI406431568
aI14105459
aI227768006
aI57137566
aI11145642
aI14393540
aI150841541
aI1683795241
aI1671210847
aI1641398989
aI487063539
aI750066469
aI455253393
aI730345914
aI22214575
aI317296695
aI1494842850
aI472993769
aI1288770234
aI109900012
aI18240655
aI8793242
aI231575995
aI1227418200
aI95385155
aI1220413682
aI287558981
aI1177052233
aI12544852
aI382438357
aI276186673
aI709905230
aI14579415
aI654143
aI913007370
aI1107016226
aI854256612
aI311799967
aI1019496265
aI1035577230
aI7292482
aI438816954
aI81849273
aI330660465
aI234398004
aI205249455
aI390047855
aI815981294
aI217194987
aI816953804
aI599502512
aI621841059
aI132524456
aI59380996
aI74448543
aI613061425
aI375541220
aI15271072
aI617671637
aI95232785
aI1378
aI15179215
aI569154256
aI562967441
aI600994270
aI546235350
aI547258065
aI531142565
aI137243734
aI176184142
aI298591774
aI564027866
aI564882224
aI561434244
aI15529462
aI282462129
aI509162547
aI324009478
aI535479240
aI28906543
aI49731229
aI461980178
aI4388511
aI28995292
aI354338714
aI19989646
aI14592972
aI131953087
aI15088706
aI25277152
aI330436857
aI38476367
aI16803273
aI385929315
aI400780495
aI196325641
aI11499802
aI22590025
aI403128990
aI402152457
aI223383374
aI84111731
aI314713859
aI190081737
aI275084245
aI385181642
aI15718150
aI347846010
aI14122195
aI371677151
aI359740998
aI15040349
aI22424994
aI257429959
aI303056450
aI16063617
aI330569448
aI329187541
aI153546667
aI13471032
aI21192297
aI83390294
aI33238189
aI22278452
aI301152703
aI238478030
aI16421531
aI202761585
aI283482349
aI276645490
aI3512101
aI266732518
aI33783707
aI141599581
aI58266891
aI46435351
aI68710473
aI278198928
aI69149700
aI43036179
aI11481452
aI15341496
aI100172170
aI258917074
aI248791024
aI36450578
aI16313907
aI121456700
aI129325187
aI130108989
aI73591775
aI39222117
aI35020065
aI17991211
aI202780652
aI234854441
aI82947555
aI100465657
aI192920604
aI208348087
aI201307309
aI111495292
aI176839290
aI16483885
aI198491215
aI48597403
aI195882549
aI190912176
aI29987819
aI49661336
aI7517052
aI182770797
aI172169670
aI178001209
aI151730747
aI151925417
aI5261761
aI20532653
aI16277186
aI108713475
aI6979012
aI8244612
aI16960389
aI115625104
aI21219404
aI67790110
aI33646572
aI22510690
aI14272956
aI2542051
aI30610698
aI21777216
aI17755805
aI15193239
aI18048899
aI20112101
aI15230654
aI83980802
aasS'obj'
p7
ccopy_reg
_reconstructor
p8
(ctweepy.models
User
p9
c__builtin__
object
p10
Ntp11
Rp12
(dp13
S'follow_request_sent'
p14
I00
sS'has_extended_profile'
p15
I00
sS'profile_use_background_image'
p16
I01
sS'profile_sidebar_fill_color'
p17
VDDEEF6
p18
sS'id'
p19
I94653842
sS'verified'
p20
I00
sS'entities'
p21
(dp22
Vurl
p23
(dp24
Vurls
p25
(lp26
(dp27
g23
Vhttp://t.co/m5RJQqRljw
p28
sVindices
p29
(lp30
I0
aI22
asVexpanded_url
p31
Vhttp://ezramarbach.blogspot.com/
p32
sVdisplay_url
p33
Vezramarbach.blogspot.com
p34
sassVdescription
p35
(dp36
g25
(lp37
sssS'profile_image_url_https'
p38
Vhttps://pbs.twimg.com/profile_images/623035017/Doogie_Howser_MD_290x400_normal.jpg
p39
sS'_json'
p40
(dp41
Vfollow_request_sent
p42
I00
sVhas_extended_profile
p43
I00
sVprofile_use_background_image
p44
I01
sVdefault_profile_image
p45
I00
sVid
p46
I94653842
sVprofile_background_image_url_https
p47
Vhttps://abs.twimg.com/images/themes/theme1/bg.png
p48
sVverified
p49
I00
sVprofile_text_color
p50
V333333
p51
sVprofile_image_url_https
p52
g39
sVprofile_sidebar_fill_color
p53
g18
sVentities
p54
g22
sVfollowers_count
p55
I349
sVprofile_sidebar_border_color
p56
VC0DEED
p57
sVid_str
p58
V94653842
p59
sVprofile_background_color
p60
VC0DEED
p61
sVlisted_count
p62
I29
sVstatus
p63
(dp64
Vcontributors
p65
NsVtruncated
p66
I00
sVtext
p67
VHuge $IDI deal includes Dr Frost $OPK investment https://t.co/yh4HNww8FG Everything to know about $IDI https://t.co/pJMyt9cEnU
p68
sVin_reply_to_status_id
p69
Nsg46
L666613046073233408L
sVfavorite_count
p70
I0
sVsource
p71
V<a href="http://twitter.com" rel="nofollow">Twitter Web Client</a>
p72
sVretweeted
p73
I00
sVcoordinates
p74
Nsg54
(dp75
Vsymbols
p76
(lp77
(dp78
g29
(lp79
I5
aI9
asg67
VIDI
p80
sa(dp81
g29
(lp82
I33
aI37
asg67
VOPK
p83
sa(dp84
g29
(lp85
I98
aI102
asg67
VIDI
p86
sasVuser_mentions
p87
(lp88
sVhashtags
p89
(lp90
sg25
(lp91
(dp92
g23
Vhttps://t.co/yh4HNww8FG
p93
sg29
(lp94
I49
aI72
asg31
Vhttps://finance.yahoo.com/news/idi-acquire-fluent-130000634.html
p95
sg33
Vfinance.yahoo.com/news/idi-acqui\u2026
p96
sa(dp97
g23
Vhttps://t.co/pJMyt9cEnU
p98
sg29
(lp99
I103
aI126
asg31
Vhttp://ezramarbach.blogspot.com/search/label/IDI
p100
sg33
Vezramarbach.blogspot.com/search/label/I\u2026
p101
sassVin_reply_to_screen_name
p102
Nsg58
V666613046073233408
p103
sVretweet_count
p104
I0
sVin_reply_to_user_id
p105
NsVfavorited
p106
I00
sVgeo
p107
NsVin_reply_to_user_id_str
p108
NsVpossibly_sensitive
p109
I00
sVlang
p110
Ven
p111
sVcreated_at
p112
VTue Nov 17 13:45:09 +0000 2015
p113
sVin_reply_to_status_id_str
p114
NsVplace
p115
NssVis_translation_enabled
p116
I00
sVutc_offset
p117
I-28800
sVstatuses_count
p118
I3705
sg35
VFund manager (China); Contributor to @TheStreet @ValueWalk @Benzinga \u2026
p119
sVfriends_count
p120
I67
sVlocation
p121
VNY
p122
sVprofile_link_color
p123
V0084B4
p124
sVprofile_image_url
p125
Vhttp://pbs.twimg.com/profile_images/623035017/Doogie_Howser_MD_290x400_normal.jpg
p126
sVfollowing
p127
I00
sVgeo_enabled
p128
I00
sVprofile_background_image_url
p129
Vhttp://abs.twimg.com/images/themes/theme1/bg.png
p130
sVscreen_name
p131
Vezramarbach
p132
sg110
Ven
p133
sVprofile_background_tile
p134
I00
sVfavourites_count
p135
I212
sVname
p136
VEzra Marbach
p137
sVnotifications
p138
I00
sg23
Vhttp://t.co/m5RJQqRljw
p139
sg112
VFri Dec 04 21:59:01 +0000 2009
p140
sVcontributors_enabled
p141
I00
sVtime_zone
p142
VPacific Time (US & Canada)
p143
sVprotected
p144
I00
sVdefault_profile
p145
I01
sVis_translator
p146
I00
ssS'contributors_enabled'
p147
I00
sS'profile_text_color'
p148
g51
sS'followers_count'
p149
I349
sS'profile_sidebar_border_color'
p150
g57
sS'id_str'
p151
g59
sS'default_profile_image'
p152
I00
sS'listed_count'
p153
I29
sS'status'
p154
g8
(ctweepy.models
Status
p155
g10
Ntp156
Rp157
(dp158
S'favorited'
p159
I00
sS'contributors'
p160
NsS'truncated'
p161
I00
sS'text'
p162
g68
sS'source_url'
p163
Vhttp://twitter.com
p164
sS'possibly_sensitive'
p165
I00
sS'in_reply_to_status_id'
p166
NsS'geo'
p167
Nsg19
L666613046073233408L
sS'favorite_count'
p168
I0
sS'lang'
p169
g111
sg21
g75
sS'created_at'
p170
cdatetime
datetime
p171
(S'\x07\xdf\x0b\x11\r-\t\x00\x00\x00'
p172
tp173
Rp174
sg40
g64
sS'coordinates'
p175
NsS'in_reply_to_user_id_str'
p176
NsS'source'
p177
VTwitter Web Client
p178
sS'in_reply_to_status_id_str'
p179
NsS'in_reply_to_screen_name'
p180
Nsg151
g103
sS'retweeted'
p181
I00
sS'place'
p182
NsS'retweet_count'
p183
I0
sS'in_reply_to_user_id'
p184
NsbsS'is_translation_enabled'
p185
I00
sS'utc_offset'
p186
I-28800
sS'statuses_count'
p187
I3705
sS'description'
p188
g119
sS'friends_count'
p189
I67
sS'location'
p190
g122
sS'profile_link_color'
p191
g124
sS'profile_image_url'
p192
g126
sS'notifications'
p193
I00
sS'geo_enabled'
p194
I00
sS'profile_background_color'
p195
g61
sS'profile_background_image_url'
p196
g130
sS'screen_name'
p197
g132
sg169
g133
sg1
I00
sS'profile_background_tile'
p198
I00
sS'favourites_count'
p199
I212
sS'name'
p200
g137
sS'url'
p201
g139
sg170
g171
(S'\x07\xd9\x0c\x04\x15;\x01\x00\x00\x00'
p202
tp203
Rp204
sS'profile_background_image_url_https'
p205
g48
sS'time_zone'
p206
g143
sS'protected'
p207
I00
sS'default_profile'
p208
I01
sS'is_translator'
p209
I00
sbs.