ccopy_reg
_reconstructor
p0
(ctweepy.models
SearchResults
p1
c__builtin__
list
p2
(lp3
g0
(ctweepy.models
Status
p4
c__builtin__
object
p5
Ntp6
Rp7
(dp8
S'favorited'
p9
I00
sS'contributors'
p10
NsS'truncated'
p11
I00
sS'text'
p12
Vhttps://t.co/zU2nXw8HwB Tim Sykes Review: Student Turns $3,500 Into $108,000 In 6 Months $WPCS $CDTI $AGRX
p13
sS'source_url'
p14
Vhttps://smqueue.com
p15
sS'possibly_sensitive'
p16
I00
sS'is_quote_status'
p17
I00
sS'in_reply_to_status_id'
p18
NsS'user'
p19
g0
(ctweepy.models
User
p20
g5
Ntp21
Rp22
(dp23
S'follow_request_sent'
p24
I00
sS'has_extended_profile'
p25
I00
sS'profile_use_background_image'
p26
I01
sS'profile_sidebar_fill_color'
p27
VDDEEF6
p28
sS'id'
p29
I1423715634
sS'verified'
p30
I00
sS'entities'
p31
(dp32
Vurl
p33
(dp34
Vurls
p35
(lp36
(dp37
g33
Vhttp://t.co/NXPgLvMWJo
p38
sVindices
p39
(lp40
I0
aI22
asVexpanded_url
p41
Vhttp://barbour2.wordpress.com
p42
sVdisplay_url
p43
Vbarbour2.wordpress.com
p44
sassVdescription
p45
(dp46
g35
(lp47
sssS'profile_image_url_https'
p48
Vhttps://pbs.twimg.com/profile_images/470259528613654528/_VZySs0M_normal.jpeg
p49
sS'_json'
p50
(dp51
Vfollow_request_sent
p52
I00
sVhas_extended_profile
p53
I00
sVprofile_use_background_image
p54
I01
sVdefault_profile_image
p55
I00
sVid
p56
I1423715634
sVprofile_background_image_url_https
p57
Vhttps://abs.twimg.com/images/themes/theme1/bg.png
p58
sVverified
p59
I00
sVprofile_text_color
p60
V333333
p61
sVprofile_image_url_https
p62
g49
sVprofile_sidebar_fill_color
p63
g28
sVentities
p64
g32
sVfollowers_count
p65
I5351
sVprofile_sidebar_border_color
p66
VC0DEED
p67
sVid_str
p68
V1423715634
p69
sVprofile_background_color
p70
VC0DEED
p71
sVlisted_count
p72
I80
sVis_translation_enabled
p73
I00
sVutc_offset
p74
I-21600
sVstatuses_count
p75
I9580
sg45
VI am a stock trader, husband, entrepreneur, physicist, rock climber.
p76
sVfriends_count
p77
I5590
sVlocation
p78
VBozeman, Montana
p79
sVprofile_link_color
p80
V0084B4
p81
sVprofile_image_url
p82
Vhttp://pbs.twimg.com/profile_images/470259528613654528/_VZySs0M_normal.jpeg
p83
sVfollowing
p84
I00
sVgeo_enabled
p85
I01
sVprofile_banner_url
p86
Vhttps://pbs.twimg.com/profile_banners/1423715634/1400958507
p87
sVprofile_background_image_url
p88
Vhttp://abs.twimg.com/images/themes/theme1/bg.png
p89
sVscreen_name
p90
VRJB_trading2
p91
sVlang
p92
Ven
p93
sVprofile_background_tile
p94
I00
sVfavourites_count
p95
I26
sVname
p96
VRussell Barbour
p97
sVnotifications
p98
I00
sg33
Vhttp://t.co/NXPgLvMWJo
p99
sVcreated_at
p100
VSun May 12 18:21:10 +0000 2013
p101
sVcontributors_enabled
p102
I00
sVtime_zone
p103
VCentral Time (US & Canada)
p104
sVprotected
p105
I00
sVdefault_profile
p106
I01
sVis_translator
p107
I00
ssS'contributors_enabled'
p108
I00
sS'profile_text_color'
p109
g61
sS'followers_count'
p110
I5351
sS'profile_sidebar_border_color'
p111
g67
sS'id_str'
p112
g69
sS'default_profile_image'
p113
I00
sS'listed_count'
p114
I80
sS'is_translation_enabled'
p115
I00
sS'utc_offset'
p116
I-21600
sS'statuses_count'
p117
I9580
sS'description'
p118
g76
sS'friends_count'
p119
I5590
sS'location'
p120
g79
sS'profile_link_color'
p121
g81
sS'profile_image_url'
p122
g83
sS'notifications'
p123
I00
sS'geo_enabled'
p124
I01
sS'profile_background_color'
p125
g71
sS'profile_banner_url'
p126
g87
sS'profile_background_image_url'
p127
g89
sS'screen_name'
p128
g91
sS'lang'
p129
g93
sS'following'
p130
I00
sS'profile_background_tile'
p131
I00
sS'favourites_count'
p132
I26
sS'name'
p133
g97
sS'url'
p134
g99
sS'created_at'
p135
cdatetime
datetime
p136
(S'\x07\xdd\x05\x0c\x12\x15\n\x00\x00\x00'
p137
tp138
Rp139
sS'profile_background_image_url_https'
p140
g58
sS'time_zone'
p141
g104
sS'protected'
p142
I00
sS'default_profile'
p143
I01
sS'is_translator'
p144
I00
sbsS'geo'
p145
Nsg29
L664433077893009408L
sS'favorite_count'
p146
I0
sS'source'
p147
Vsmqueue
p148
sg129
Ven
p149
sS'author'
p150
g22
sg135
g136
(S'\x07\xdf\x0b\x0b\r\x16,\x00\x00\x00'
p151
tp152
Rp153
sg50
(dp154
Vcontributors
p155
NsVtruncated
p156
I00
sVtext
p157
g13
sVis_quote_status
p158
I00
sVin_reply_to_status_id
p159
Nsg56
L664433077893009408L
sVfavorite_count
p160
I0
sVsource
p161
V<a href="https://smqueue.com" rel="nofollow">smqueue</a>
p162
sVretweeted
p163
I00
sVcoordinates
p164
Nsg64
(dp165
Vsymbols
p166
(lp167
(dp168
g39
(lp169
I89
aI94
asg157
VWPCS
p170
sa(dp171
g39
(lp172
I95
aI100
asg157
VCDTI
p173
sa(dp174
g39
(lp175
I101
aI106
asg157
VAGRX
p176
sasVuser_mentions
p177
(lp178
sVhashtags
p179
(lp180
sg35
(lp181
(dp182
g33
Vhttps://t.co/zU2nXw8HwB
p183
sg39
(lp184
I0
aI23
asg41
Vhttp://smq.tc/1QxRT6i
p185
sg43
Vsmq.tc/1QxRT6i
p186
sassVin_reply_to_screen_name
p187
NsVin_reply_to_user_id
p188
NsVretweet_count
p189
I0
sg68
V664433077893009408
p190
sVfavorited
p191
I00
sVuser
p192
g51
sVgeo
p193
NsVin_reply_to_user_id_str
p194
NsVpossibly_sensitive
p195
I00
sg92
g149
sg100
VWed Nov 11 13:22:44 +0000 2015
p196
sVin_reply_to_status_id_str
p197
NsVplace
p198
NsVmetadata
p199
(dp200
Viso_language_code
p201
Ven
p202
sVresult_type
p203
Vrecent
p204
sssS'metadata'
p205
g200
sS'coordinates'
p206
NsS'in_reply_to_user_id_str'
p207
Nsg31
g165
sS'in_reply_to_status_id_str'
p208
NsS'in_reply_to_screen_name'
p209
Nsg112
g190
sS'retweeted'
p210
I00
sS'place'
p211
NsS'retweet_count'
p212
I0
sS'in_reply_to_user_id'
p213
Nsbag0
(g4
g5
Ntp214
Rp215
(dp216
g9
I00
sg10
Nsg11
I00
sg12
Vhttps://t.co/uAcamNRUPt alerted $PTBI +89% MUST SEE TRACK RECORD &amp; SUBSCRIBE https://t.co/tkIn2GV1aE $MNP $TSI $MGF $YUME $AGRX $NRT $PNI
p217
sg14
Vhttp://biloselhi.com
p218
sg16
I00
sg17
I00
sg18
Nsg19
g0
(g20
g5
Ntp219
Rp220
(dp221
g24
I00
sg25
I00
sg26
I01
sg27
VFFFFFF
p222
sg29
L2802272246L
sg30
I00
sg31
(dp223
g33
(dp224
g35
(lp225
(dp226
g33
Vhttp://t.co/jjWTkVWgFN
p227
sg39
(lp228
I0
aI22
asg41
Vhttp://BiloSelhi.com
p229
sg43
VBiloSelhi.com
p230
sassg45
(dp231
g35
(lp232
(dp233
g33
Vhttps://t.co/0aFaudDmBY
p234
sg39
(lp235
I137
aI160
asg41
Vhttp://biloselhi.com/d.htm
p236
sg43
Vbiloselhi.com/d.htm
p237
sasssg48
Vhttps://pbs.twimg.com/profile_images/509778632521154560/DYIdZCfQ_normal.png
p238
sg50
(dp239
g52
I00
sg53
I00
sg54
I01
sg55
I00
sg56
L2802272246L
sg57
Vhttps://abs.twimg.com/images/themes/theme13/bg.gif
p240
sg59
I00
sg60
V333333
p241
sg62
g238
sg63
g222
sg64
g223
sg65
I11220
sg66
VEEEEEE
p242
sg68
V2802272246
p243
sg70
VB2DFDA
p244
sg72
I72
sg73
I00
sg74
Nsg75
I28395
sg45
VFounder, Bilo Selhi's Stock Alerts. 1,302% return in 13 months. Subscribe today for promo. Follow on Google+ for free trial. DISCLAIMER: https://t.co/0aFaudDmBY
p245
sg77
I11694
sg78
V \u2193 \u2193 MUST SEE Track record
p246
sg80
V93A644
p247
sg82
Vhttp://pbs.twimg.com/profile_images/509778632521154560/DYIdZCfQ_normal.png
p248
sg84
I00
sg85
I00
sg86
Vhttps://pbs.twimg.com/profile_banners/2802272246/1412893156
p249
sg88
Vhttp://abs.twimg.com/images/themes/theme13/bg.gif
p250
sg90
VStocksThatDoubl
p251
sg92
Ven
p252
sg94
I00
sg95
I77
sg96
VBilo Selhi
p253
sg98
I00
sg33
Vhttp://t.co/jjWTkVWgFN
p254
sg100
VWed Sep 10 18:52:30 +0000 2014
p255
sg102
I00
sg103
Nsg105
I00
sg106
I00
sg107
I00
ssg108
I00
sg109
g241
sg110
I11220
sg111
g242
sg112
g243
sg113
I00
sg114
I72
sg115
I00
sg116
Nsg117
I28395
sg118
g245
sg119
I11694
sg120
g246
sg121
g247
sg122
g248
sg123
I00
sg124
I00
sg125
g244
sg126
g249
sg127
g250
sg128
g251
sg129
g252
sg130
I00
sg131
I00
sg132
I77
sg133
g253
sg134
g254
sg135
g136
(S'\x07\xde\t\n\x124\x1e\x00\x00\x00'
p256
tp257
Rp258
sg140
g240
sg141
Nsg142
I00
sg143
I00
sg144
I00
sbsg145
Nsg29
L664343357267779584L
sg146
I0
sg147
VNov292014
p259
sg129
Ven
p260
sg150
g220
sg135
g136
(S'\x07\xdf\x0b\x0b\x07\x1a\r\x00\x00\x00'
p261
tp262
Rp263
sg50
(dp264
g155
Nsg156
I00
sg157
g217
sg158
I00
sg159
Nsg56
L664343357267779584L
sg160
I0
sg161
V<a href="http://biloselhi.com" rel="nofollow">Nov292014</a>
p265
sg163
I00
sg164
Nsg64
(dp266
g166
(lp267
(dp268
g39
(lp269
I32
aI37
asg157
VPTBI
p270
sa(dp271
g39
(lp272
I105
aI109
asg157
VMNP
p273
sa(dp274
g39
(lp275
I110
aI114
asg157
VTSI
p276
sa(dp277
g39
(lp278
I115
aI119
asg157
VMGF
p279
sa(dp280
g39
(lp281
I120
aI125
asg157
VYUME
p282
sa(dp283
g39
(lp284
I126
aI131
asg157
VAGRX
p285
sa(dp286
g39
(lp287
I132
aI136
asg157
VNRT
p288
sa(dp289
g39
(lp290
I137
aI141
asg157
VPNI
p291
sasg177
(lp292
sg179
(lp293
sg35
(lp294
(dp295
g33
Vhttps://t.co/uAcamNRUPt
p296
sg39
(lp297
I0
aI23
asg41
Vhttp://BiloSelhi.com
p298
sg43
VBiloSelhi.com
p299
sasVmedia
p300
(lp301
(dp302
Vsource_user_id
p303
L2802272246L
sVsource_status_id_str
p304
V595888238205755392
p305
sg41
Vhttp://twitter.com/StocksThatDoubl/status/595888238205755392/photo/1
p306
sg43
Vpic.twitter.com/tkIn2GV1aE
p307
sg33
Vhttps://t.co/tkIn2GV1aE
p308
sVmedia_url_https
p309
Vhttps://pbs.twimg.com/media/CEUFMRrWYAAlu16.png
p310
sVsource_user_id_str
p311
V2802272246
p312
sVsource_status_id
p313
L595888238205755392L
sg68
V595888234158252032
p314
sVsizes
p315
(dp316
Vlarge
p317
(dp318
Vh
p319
I555
sVresize
p320
Vfit
p321
sVw
p322
I1024
ssVsmall
p323
(dp324
g319
I184
sg320
Vfit
p325
sg322
I340
ssVmedium
p326
(dp327
g319
I325
sg320
Vfit
p328
sg322
I600
ssVthumb
p329
(dp330
g319
I150
sg320
Vcrop
p331
sg322
I150
sssg39
(lp332
I81
aI104
asVtype
p333
Vphoto
p334
sg56
L595888234158252032L
sVmedia_url
p335
Vhttp://pbs.twimg.com/media/CEUFMRrWYAAlu16.png
p336
sassg187
Nsg188
Nsg189
I0
sg68
V664343357267779584
p337
sg191
I00
sg192
g239
sg193
Nsg194
Nsg195
I00
sg92
g260
sg100
VWed Nov 11 07:26:13 +0000 2015
p338
sg197
Nsg198
Nsg199
(dp339
g201
Ven
p340
sg203
Vrecent
p341
sssg205
g339
sg206
Nsg207
Nsg31
g266
sg208
Nsg209
Nsg112
g337
sg210
I00
sg211
Nsg212
I0
sg213
Nsbag0
(g4
g5
Ntp342
Rp343
(dp344
g9
I00
sg10
Nsg11
I00
sg12
VAGRX 8.29 Agile Therapeutics Inc Stock Charts $AGRX Last Updated: 11/10/15 Last price: 8.29 Total volume: 18,4 https://t.co/vzmNzItggl
p345
sg14
Vhttp://investorshangout.com/
p346
sg16
I00
sg17
I00
sg18
Nsg19
g0
(g20
g5
Ntp347
Rp348
(dp349
g24
I00
sg25
I00
sg26
I01
sg27
VDDEEF6
p350
sg29
L2243075472L
sg30
I00
sg31
(dp351
g45
(dp352
g35
(lp353
sssg48
Vhttps://pbs.twimg.com/profile_images/378800000864394998/jZdHIX6v_normal.png
p354
sg50
(dp355
g52
I00
sg53
I00
sg54
I01
sg55
I00
sg56
L2243075472L
sg57
Vhttps://abs.twimg.com/images/themes/theme1/bg.png
p356
sg59
I00
sg60
V333333
p357
sg62
g354
sg63
g350
sg64
g351
sg65
I1326
sg66
VC0DEED
p358
sg68
V2243075472
p359
sg70
VC0DEED
p360
sg72
I67
sg73
I00
sg74
Nsg75
I428477
sg45
VStock Charts
p361
sg77
I672
sg78
V
p362
sg80
V0084B4
p363
sg82
Vhttp://pbs.twimg.com/profile_images/378800000864394998/jZdHIX6v_normal.png
p364
sg84
I00
sg85
I00
sg88
Vhttp://abs.twimg.com/images/themes/theme1/bg.png
p365
sg90
Vchartguy89
p366
sg92
Ven
p367
sg94
I00
sg95
I0
sg96
Vchartguy89
p368
sg98
I00
sg33
Nsg100
VThu Dec 12 23:46:22 +0000 2013
p369
sg102
I00
sg103
Nsg105
I00
sg106
I01
sg107
I00
ssg108
I00
sg109
g357
sg110
I1326
sg111
g358
sg112
g359
sg113
I00
sg114
I67
sg115
I00
sg116
Nsg117
I428477
sg118
g361
sg119
I672
sg120
g362
sg121
g363
sg122
g364
sg123
I00
sg124
I00
sg125
g360
sg127
g365
sg128
g366
sg129
g367
sg130
I00
sg131
I00
sg132
I0
sg133
g368
sg134
Nsg135
g136
(S'\x07\xdd\x0c\x0c\x17.\x16\x00\x00\x00'
p370
tp371
Rp372
sg140
g356
sg141
Nsg142
I00
sg143
I01
sg144
I00
sbsg145
Nsg29
L664288725866668032L
sg146
I0
sg147
VInvestors Hangout
p373
sg129
Ven
p374
sg150
g348
sg135
g136
(S'\x07\xdf\x0b\x0b\x031\x08\x00\x00\x00'
p375
tp376
Rp377
sg50
(dp378
g155
Nsg156
I00
sg157
g345
sg158
I00
sg159
Nsg56
L664288725866668032L
sg160
I0
sg161
V<a href="http://investorshangout.com/" rel="nofollow">Investors Hangout</a>
p379
sg163
I00
sg164
Nsg64
(dp380
g166
(lp381
(dp382
g39
(lp383
I46
aI51
asg157
VAGRX
p384
sasg177
(lp385
sg179
(lp386
sg35
(lp387
(dp388
g33
Vhttps://t.co/vzmNzItggl
p389
sg39
(lp390
I111
aI134
asg41
Vhttp://investorshangout.com/post/view?id=3330528
p391
sg43
Vinvestorshangout.com/post/view?id=3\u2026
p392
sassg187
Nsg188
Nsg189
I0
sg68
V664288725866668032
p393
sg191
I00
sg192
g355
sg193
Nsg194
Nsg195
I00
sg92
g374
sg100
VWed Nov 11 03:49:08 +0000 2015
p394
sg197
Nsg198
Nsg199
(dp395
g201
Ven
p396
sg203
Vrecent
p397
sssg205
g395
sg206
Nsg207
Nsg31
g380
sg208
Nsg209
Nsg112
g393
sg210
I00
sg211
Nsg212
I0
sg213
Nsbag0
(g4
g5
Ntp398
Rp399
(dp400
g9
I00
sg10
Nsg11
I00
sg12
VAGRX Year to date has changed +35.02% percent. +2.85% in the last 30 days. $AGRX Agile Therapeutics Inc Full b https://t.co/DTfistmW2E
p401
sg14
Vhttp://investorshangout.com/
p402
sg16
I00
sg17
I00
sg18
Nsg19
g0
(g20
g5
Ntp403
Rp404
(dp405
g24
I00
sg25
I00
sg26
I01
sg27
VC0DFEC
p406
sg29
L2181314366L
sg30
I00
sg31
(dp407
g45
(dp408
g35
(lp409
sssg48
Vhttps://pbs.twimg.com/profile_images/378800000709585641/f40eea5971a3bc6d1eaaebd2b3dd4ebb_normal.jpeg
p410
sg50
(dp411
g52
I00
sg53
I00
sg54
I01
sg55
I00
sg56
L2181314366L
sg57
Vhttps://abs.twimg.com/images/themes/theme15/bg.png
p412
sg59
I00
sg60
V333333
p413
sg62
g410
sg63
g406
sg64
g407
sg65
I778
sg66
VA8C7F7
p414
sg68
V2181314366
p415
sg70
V022330
p416
sg72
I174
sg73
I00
sg74
Nsg75
I191949
sg45
VLikes to follow many stocks
p417
sg77
I444
sg78
g362
sg80
V0084B4
p418
sg82
Vhttp://pbs.twimg.com/profile_images/378800000709585641/f40eea5971a3bc6d1eaaebd2b3dd4ebb_normal.jpeg
p419
sg84
I00
sg85
I00
sg88
Vhttp://abs.twimg.com/images/themes/theme15/bg.png
p420
sg90
VJake132013
p421
sg92
Ven
p422
sg94
I00
sg95
I0
sg96
VJake13
p423
sg98
I00
sg33
Nsg100
VFri Nov 08 02:42:49 +0000 2013
p424
sg102
I00
sg103
Nsg105
I00
sg106
I00
sg107
I00
ssg108
I00
sg109
g413
sg110
I778
sg111
g414
sg112
g415
sg113
I00
sg114
I174
sg115
I00
sg116
Nsg117
I191949
sg118
g417
sg119
I444
sg120
g362
sg121
g418
sg122
g419
sg123
I00
sg124
I00
sg125
g416
sg127
g420
sg128
g421
sg129
g422
sg130
I00
sg131
I00
sg132
I0
sg133
g423
sg134
Nsg135
g136
(S'\x07\xdd\x0b\x08\x02*1\x00\x00\x00'
p425
tp426
Rp427
sg140
g412
sg141
Nsg142
I00
sg143
I00
sg144
I00
sbsg145
Nsg29
L664285839262879745L
sg146
I0
sg147
VInvestors Hangout
p428
sg129
Ven
p429
sg150
g404
sg135
g136
(S'\x07\xdf\x0b\x0b\x03%(\x00\x00\x00'
p430
tp431
Rp432
sg50
(dp433
g155
Nsg156
I00
sg157
g401
sg158
I00
sg159
Nsg56
L664285839262879745L
sg160
I0
sg161
V<a href="http://investorshangout.com/" rel="nofollow">Investors Hangout</a>
p434
sg163
I00
sg164
Nsg64
(dp435
g166
(lp436
(dp437
g39
(lp438
I75
aI80
asg157
VAGRX
p439
sasg177
(lp440
sg179
(lp441
sg35
(lp442
(dp443
g33
Vhttps://t.co/DTfistmW2E
p444
sg39
(lp445
I111
aI134
asg41
Vhttp://investorshangout.com/post/view?id=3330494
p446
sg43
Vinvestorshangout.com/post/view?id=3\u2026
p447
sassg187
Nsg188
Nsg189
I0
sg68
V664285839262879745
p448
sg191
I00
sg192
g411
sg193
Nsg194
Nsg195
I00
sg92
g429
sg100
VWed Nov 11 03:37:40 +0000 2015
p449
sg197
Nsg198
Nsg199
(dp450
g201
Ven
p451
sg203
Vrecent
p452
sssg205
g450
sg206
Nsg207
Nsg31
g435
sg208
Nsg209
Nsg112
g448
sg210
I00
sg211
Nsg212
I0
sg213
Nsbag0
(g4
g5
Ntp453
Rp454
(dp455
g9
I00
sg10
Nsg11
I00
sg12
VBearish Harami https://t.co/U1kylR2tqo $LFUS $SSTK $ORBK $AGRX $ANGI $ATEN $IDSY $CRIS
p456
sg14
Vhttp://twitter.com
p457
sg16
I00
sg17
I00
sg18
Nsg19
g0
(g20
g5
Ntp458
Rp459
(dp460
g24
I00
sg25
I00
sg26
I01
sg27
VDDEEF6
p461
sg29
I528770977
sg30
I00
sg31
(dp462
g33
(dp463
g35
(lp464
(dp465
g33
Vhttp://t.co/yagT24hKEz
p466
sg39
(lp467
I0
aI22
asg41
Vhttp://www.dailystockplays.com
p468
sg43
Vdailystockplays.com
p469
sassg45
(dp470
g35
(lp471
(dp472
g33
Vhttp://t.co/t0RdDDmf07
p473
sg39
(lp474
I73
aI95
asg41
Vhttp://DailyStockPlays.com
p475
sg43
VDailyStockPlays.com
p476
sasssg48
Vhttps://pbs.twimg.com/profile_images/601604696671817728/EntLiuyJ_normal.jpg
p477
sg50
(dp478
g52
I00
sg53
I00
sg54
I01
sg55
I00
sg56
I528770977
sg57
Vhttps://pbs.twimg.com/profile_background_images/572170271050588160/E1MW3Dim.jpeg
p479
sg59
I00
sg60
V333333
p480
sg62
g477
sg63
g461
sg64
g462
sg65
I1570
sg66
VC0DEED
p481
sg68
V528770977
p482
sg70
VC0DEED
p483
sg72
I82
sg73
I00
sg74
I-28800
sg75
I20063
sg45
VConsistent profitable Day Trades and Swing Trades in the Members Area on http://t.co/t0RdDDmf07 - Free 7 Day Trial Membership. Subscribe to us on YouTube.
p484
sg77
I468
sg78
VCalifornia
p485
sg80
V0084B4
p486
sg82
Vhttp://pbs.twimg.com/profile_images/601604696671817728/EntLiuyJ_normal.jpg
p487
sg84
I00
sg85
I00
sg88
Vhttp://pbs.twimg.com/profile_background_images/572170271050588160/E1MW3Dim.jpeg
p488
sg90
VDailyStockPlays
p489
sg92
Ven
p490
sg94
I00
sg95
I6
sg96
Vdailystockplays.com
p491
sg98
I00
sg33
Vhttp://t.co/yagT24hKEz
p492
sg100
VSun Mar 18 19:19:58 +0000 2012
p493
sg102
I00
sg103
VPacific Time (US & Canada)
p494
sg105
I00
sg106
I00
sg107
I00
ssg108
I00
sg109
g480
sg110
I1570
sg111
g481
sg112
g482
sg113
I00
sg114
I82
sg115
I00
sg116
I-28800
sg117
I20063
sg118
g484
sg119
I468
sg120
g485
sg121
g486
sg122
g487
sg123
I00
sg124
I00
sg125
g483
sg127
g488
sg128
g489
sg129
g490
sg130
I00
sg131
I00
sg132
I6
sg133
g491
sg134
g492
sg135
g136
(S'\x07\xdc\x03\x12\x13\x13:\x00\x00\x00'
p495
tp496
Rp497
sg140
g479
sg141
g494
sg142
I00
sg143
I00
sg144
I00
sbsg145
Nsg29
L664218155565256704L
sg146
I0
sg147
VTwitter Web Client
p498
sg129
Vno
p499
sg150
g459
sg135
g136
(S'\x07\xdf\x0b\n\x17\x08+\x00\x00\x00'
p500
tp501
Rp502
sg50
(dp503
g155
Nsg156
I00
sg157
g456
sg158
I00
sg159
Nsg56
L664218155565256704L
sg160
I0
sg161
V<a href="http://twitter.com" rel="nofollow">Twitter Web Client</a>
p504
sg163
I00
sg164
Nsg64
(dp505
g166
(lp506
(dp507
g39
(lp508
I39
aI44
asg157
VLFUS
p509
sa(dp510
g39
(lp511
I45
aI50
asg157
VSSTK
p512
sa(dp513
g39
(lp514
I51
aI56
asg157
VORBK
p515
sa(dp516
g39
(lp517
I57
aI62
asg157
VAGRX
p518
sa(dp519
g39
(lp520
I63
aI68
asg157
VANGI
p521
sa(dp522
g39
(lp523
I69
aI74
asg157
VATEN
p524
sa(dp525
g39
(lp526
I75
aI80
asg157
VIDSY
p527
sa(dp528
g39
(lp529
I81
aI86
asg157
VCRIS
p530
sasg177
(lp531
sg179
(lp532
sg35
(lp533
(dp534
g33
Vhttps://t.co/U1kylR2tqo
p535
sg39
(lp536
I15
aI38
asg41
Vhttp://www.dailystockplays.com/Bearish-Harami-2015-11-10.html
p537
sg43
Vdailystockplays.com/Bearish-Harami\u2026
p538
sassg187
Nsg188
Nsg189
I0
sg68
V664218155565256704
p539
sg191
I00
sg192
g478
sg193
Nsg194
Nsg195
I00
sg92
g499
sg100
VTue Nov 10 23:08:43 +0000 2015
p540
sg197
Nsg198
Nsg199
(dp541
g201
Vno
p542
sg203
Vrecent
p543
sssg205
g541
sg206
Nsg207
Nsg31
g505
sg208
Nsg209
Nsg112
g539
sg210
I00
sg211
Nsg212
I0
sg213
Nsbag0
(g4
g5
Ntp544
Rp545
(dp546
g9
I00
sg10
Nsg11
I00
sg12
VAgile Therapeutics Earns Outperform Rating from William Blair $AGRX https://t.co/J7iWlORkoC
p547
sg14
Vhttp://ifttt.com
p548
sg16
I00
sg17
I00
sg18
Nsg19
g0
(g20
g5
Ntp549
Rp550
(dp551
g24
I00
sg25
I00
sg26
I01
sg27
VDDEEF6
p552
sg29
L2920258887L
sg30
I00
sg31
(dp553
g45
(dp554
g35
(lp555
sssg48
Vhttps://abs.twimg.com/sticky/default_profile_images/default_profile_0_normal.png
p556
sg50
(dp557
g52
I00
sg53
I00
sg54
I01
sg55
I01
sg56
L2920258887L
sg57
Vhttps://abs.twimg.com/images/themes/theme1/bg.png
p558
sg59
I00
sg60
V333333
p559
sg62
g556
sg63
g552
sg64
g553
sg65
I1021
sg66
VC0DEED
p560
sg68
V2920258887
p561
sg70
VC0DEED
p562
sg72
I39
sg73
I00
sg74
Nsg75
I170284
sg45
g362
sg77
I40
sg78
g362
sg80
V0084B4
p563
sg82
Vhttp://abs.twimg.com/sticky/default_profile_images/default_profile_0_normal.png
p564
sg84
I00
sg85
I00
sg88
Vhttp://abs.twimg.com/images/themes/theme1/bg.png
p565
sg90
Vdakotafinancial
p566
sg92
Ven
p567
sg94
I00
sg95
I0
sg96
VDakota Financial 
p568
sg98
I00
sg33
Nsg100
VSat Dec 13 20:48:14 +0000 2014
p569
sg102
I00
sg103
Nsg105
I00
sg106
I01
sg107
I00
ssg108
I00
sg109
g559
sg110
I1021
sg111
g560
sg112
g561
sg113
I01
sg114
I39
sg115
I00
sg116
Nsg117
I170284
sg118
g362
sg119
I40
sg120
g362
sg121
g563
sg122
g564
sg123
I00
sg124
I00
sg125
g562
sg127
g565
sg128
g566
sg129
g567
sg130
I00
sg131
I00
sg132
I0
sg133
g568
sg134
Nsg135
g136
(S'\x07\xde\x0c\r\x140\x0e\x00\x00\x00'
p570
tp571
Rp572
sg140
g558
sg141
Nsg142
I00
sg143
I01
sg144
I00
sbsg145
Nsg29
L664198377710727168L
sg146
I0
sg147
VIFTTT
p573
sg129
Ven
p574
sg150
g550
sg135
g136
(S'\x07\xdf\x0b\n\x152\x08\x00\x00\x00'
p575
tp576
Rp577
sg50
(dp578
g155
Nsg156
I00
sg157
g547
sg158
I00
sg159
Nsg56
L664198377710727168L
sg160
I0
sg161
V<a href="http://ifttt.com" rel="nofollow">IFTTT</a>
p579
sg163
I00
sg164
Nsg64
(dp580
g166
(lp581
(dp582
g39
(lp583
I62
aI67
asg157
VAGRX
p584
sasg177
(lp585
sg179
(lp586
sg35
(lp587
(dp588
g33
Vhttps://t.co/J7iWlORkoC
p589
sg39
(lp590
I68
aI91
asg41
Vhttp://ift.tt/1WLuUfg
p591
sg43
Vift.tt/1WLuUfg
p592
sassg187
Nsg188
Nsg189
I0
sg68
V664198377710727168
p593
sg191
I00
sg192
g557
sg193
Nsg194
Nsg195
I00
sg92
g574
sg100
VTue Nov 10 21:50:08 +0000 2015
p594
sg197
Nsg198
Nsg199
(dp595
g201
Ven
p596
sg203
Vrecent
p597
sssg205
g595
sg206
Nsg207
Nsg31
g580
sg208
Nsg209
Nsg112
g593
sg210
I00
sg211
Nsg212
I0
sg213
Nsbag0
(g4
g5
Ntp598
Rp599
(dp600
g9
I00
sg10
Nsg11
I00
sg12
VAgile Therapeutics Earns Outperform Rating from William Blair $AGRX https://t.co/gPi8aOZQFm #acn
p601
sg14
Vhttp://ifttt.com
p602
sg16
I00
sg17
I00
sg18
Nsg19
g0
(g20
g5
Ntp603
Rp604
(dp605
g24
I00
sg25
I00
sg26
I01
sg27
VE8E8E8
p606
sg29
I52210566
sg30
I00
sg31
(dp607
g33
(dp608
g35
(lp609
(dp610
g33
Vhttp://t.co/odTc3pvcAe
p611
sg39
(lp612
I0
aI22
asg41
Vhttp://www.americanconsumernews.com/
p613
sg43
Vamericanconsumernews.com
p614
sassg45
(dp615
g35
(lp616
sssg48
Vhttps://pbs.twimg.com/profile_images/289298274/text_normal.jpg
p617
sg50
(dp618
g52
I00
sg53
I00
sg54
I01
sg55
I00
sg56
I52210566
sg57
Vhttps://pbs.twimg.com/profile_background_images/20558354/back.jpg
p619
sg59
I00
sg60
V333333
p620
sg62
g617
sg63
g606
sg64
g607
sg65
I1114
sg66
VADADAD
p621
sg68
V52210566
p622
sg70
V9AE4E8
p623
sg72
I96
sg73
I00
sg74
I-21600
sg75
I580839
sg45
VPersonal Finance and Consumer Tips
p624
sg77
I1412
sg78
VSioux Falls, SD
p625
sg80
V0084B4
p626
sg82
Vhttp://pbs.twimg.com/profile_images/289298274/text_normal.jpg
p627
sg84
I00
sg85
I00
sg88
Vhttp://pbs.twimg.com/profile_background_images/20558354/back.jpg
p628
sg90
VAmConsumerNews
p629
sg92
Ven
p630
sg94
I00
sg95
I0
sg96
VConsumer News
p631
sg98
I00
sg33
Vhttp://t.co/odTc3pvcAe
p632
sg100
VMon Jun 29 22:22:08 +0000 2009
p633
sg102
I00
sg103
VCentral Time (US & Canada)
p634
sg105
I00
sg106
I00
sg107
I00
ssg108
I00
sg109
g620
sg110
I1114
sg111
g621
sg112
g622
sg113
I00
sg114
I96
sg115
I00
sg116
I-21600
sg117
I580839
sg118
g624
sg119
I1412
sg120
g625
sg121
g626
sg122
g627
sg123
I00
sg124
I00
sg125
g623
sg127
g628
sg128
g629
sg129
g630
sg130
I00
sg131
I00
sg132
I0
sg133
g631
sg134
g632
sg135
g136
(S'\x07\xd9\x06\x1d\x16\x16\x08\x00\x00\x00'
p635
tp636
Rp637
sg140
g619
sg141
g634
sg142
I00
sg143
I00
sg144
I00
sbsg145
Nsg29
L664197742437097473L
sg146
I0
sg147
VIFTTT
p638
sg129
Ven
p639
sg150
g604
sg135
g136
(S'\x07\xdf\x0b\n\x15/$\x00\x00\x00'
p640
tp641
Rp642
sg50
(dp643
g155
Nsg156
I00
sg157
g601
sg158
I00
sg159
Nsg56
L664197742437097473L
sg160
I0
sg161
V<a href="http://ifttt.com" rel="nofollow">IFTTT</a>
p644
sg163
I00
sg164
Nsg64
(dp645
g166
(lp646
(dp647
g39
(lp648
I62
aI67
asg157
VAGRX
p649
sasg177
(lp650
sg179
(lp651
(dp652
g39
(lp653
I92
aI96
asg157
Vacn
p654
sasg35
(lp655
(dp656
g33
Vhttps://t.co/gPi8aOZQFm
p657
sg39
(lp658
I68
aI91
asg41
Vhttp://ift.tt/1WQ8RPu
p659
sg43
Vift.tt/1WQ8RPu
p660
sassg187
Nsg188
Nsg189
I0
sg68
V664197742437097473
p661
sg191
I00
sg192
g618
sg193
Nsg194
Nsg195
I00
sg92
g639
sg100
VTue Nov 10 21:47:36 +0000 2015
p662
sg197
Nsg198
Nsg199
(dp663
g201
Ven
p664
sg203
Vrecent
p665
sssg205
g663
sg206
Nsg207
Nsg31
g645
sg208
Nsg209
Nsg112
g661
sg210
I00
sg211
Nsg212
I0
sg213
Nsbag0
(g4
g5
Ntp666
Rp667
(dp668
g9
I00
sg10
Nsg11
I00
sg12
VAgile Therapeutics Earns Outperform Rating from William Blair $AGRX https://t.co/M5gT9IlTNV
p669
sg14
Vhttp://ifttt.com
p670
sg16
I00
sg17
I00
sg18
Nsg19
g0
(g20
g5
Ntp671
Rp672
(dp673
g24
I00
sg25
I00
sg26
I01
sg27
VEFEFEF
p674
sg29
I1979190776
sg30
I00
sg31
(dp675
g45
(dp676
g35
(lp677
sssg48
Vhttps://pbs.twimg.com/profile_images/378800000629011324/02a58ce4852fa2c0b053a8853393c35c_normal.png
p678
sg50
(dp679
g52
I00
sg53
I00
sg54
I01
sg55
I00
sg56
I1979190776
sg57
Vhttps://abs.twimg.com/images/themes/theme14/bg.gif
p680
sg59
I00
sg60
V333333
p681
sg62
g678
sg63
g674
sg64
g675
sg65
I780
sg66
VEEEEEE
p682
sg68
V1979190776
p683
sg70
V131516
p684
sg72
I83
sg73
I00
sg74
Nsg75
I347263
sg45
VMarket moving news
p685
sg77
I11
sg78
VVirginia
p686
sg80
V009999
p687
sg82
Vhttp://pbs.twimg.com/profile_images/378800000629011324/02a58ce4852fa2c0b053a8853393c35c_normal.png
p688
sg84
I00
sg85
I00
sg88
Vhttp://abs.twimg.com/images/themes/theme14/bg.gif
p689
sg90
VTickerReport
p690
sg92
Ven
p691
sg94
I01
sg95
I0
sg96
VTicker Report
p692
sg98
I00
sg33
Nsg100
VMon Oct 21 15:58:27 +0000 2013
p693
sg102
I00
sg103
Nsg105
I00
sg106
I00
sg107
I00
ssg108
I00
sg109
g681
sg110
I780
sg111
g682
sg112
g683
sg113
I00
sg114
I83
sg115
I00
sg116
Nsg117
I347263
sg118
g685
sg119
I11
sg120
g686
sg121
g687
sg122
g688
sg123
I00
sg124
I00
sg125
g684
sg127
g689
sg128
g690
sg129
g691
sg130
I00
sg131
I01
sg132
I0
sg133
g692
sg134
Nsg135
g136
(S'\x07\xdd\n\x15\x0f:\x1b\x00\x00\x00'
p694
tp695
Rp696
sg140
g680
sg141
Nsg142
I00
sg143
I00
sg144
I00
sbsg145
Nsg29
L664197276483592192L
sg146
I0
sg147
VIFTTT
p697
sg129
Ven
p698
sg150
g672
sg135
g136
(S'\x07\xdf\x0b\n\x15--\x00\x00\x00'
p699
tp700
Rp701
sg50
(dp702
g155
Nsg156
I00
sg157
g669
sg158
I00
sg159
Nsg56
L664197276483592192L
sg160
I0
sg161
V<a href="http://ifttt.com" rel="nofollow">IFTTT</a>
p703
sg163
I00
sg164
Nsg64
(dp704
g166
(lp705
(dp706
g39
(lp707
I62
aI67
asg157
VAGRX
p708
sasg177
(lp709
sg179
(lp710
sg35
(lp711
(dp712
g33
Vhttps://t.co/M5gT9IlTNV
p713
sg39
(lp714
I68
aI91
asg41
Vhttp://ift.tt/1MyIuvZ
p715
sg43
Vift.tt/1MyIuvZ
p716
sassg187
Nsg188
Nsg189
I0
sg68
V664197276483592192
p717
sg191
I00
sg192
g679
sg193
Nsg194
Nsg195
I00
sg92
g698
sg100
VTue Nov 10 21:45:45 +0000 2015
p718
sg197
Nsg198
Nsg199
(dp719
g201
Ven
p720
sg203
Vrecent
p721
sssg205
g719
sg206
Nsg207
Nsg31
g704
sg208
Nsg209
Nsg112
g717
sg210
I00
sg211
Nsg212
I0
sg213
Nsbag0
(g4
g5
Ntp722
Rp723
(dp724
g9
I00
sg10
Nsg11
I00
sg12
VAgile Therapeutics Earns Outperform Rating from William Blair $AGRX https://t.co/hSZSFDsEqn
p725
sg14
Vhttp://ifttt.com
p726
sg16
I00
sg17
I00
sg18
Nsg19
g0
(g20
g5
Ntp727
Rp728
(dp729
g24
I00
sg25
I00
sg26
I01
sg27
VCCDAFF
p730
sg29
I61661638
sg30
I00
sg31
(dp731
g33
(dp732
g35
(lp733
(dp734
g33
Vhttp://t.co/7EZswS49Q1
p735
sg39
(lp736
I0
aI22
asg41
Vhttp://www.americanbankingnews.com/
p737
sg43
Vamericanbankingnews.com
p738
sassg45
(dp739
g35
(lp740
sssg48
Vhttps://pbs.twimg.com/profile_images/541252987/Image5_normal.jpg
p741
sg50
(dp742
g52
I00
sg53
I00
sg54
I01
sg55
I00
sg56
I61661638
sg57
Vhttps://pbs.twimg.com/profile_background_images/55647305/background.png
p743
sg59
I00
sg60
V141414
p744
sg62
g741
sg63
g730
sg64
g731
sg65
I5557
sg66
VABB1D9
p745
sg68
V61661638
p746
sg70
V000000
p747
sg72
I469
sg73
I00
sg74
I-21600
sg75
I693975
sg45
VBanks, Credit Unions & Financial Institutions
p748
sg77
I2307
sg78
VSioux Falls, SD
p749
sg80
VA60000
p750
sg82
Vhttp://pbs.twimg.com/profile_images/541252987/Image5_normal.jpg
p751
sg84
I00
sg85
I00
sg88
Vhttp://pbs.twimg.com/profile_background_images/55647305/background.png
p752
sg90
VAmericanBanking
p753
sg92
Ven
p754
sg94
I01
sg95
I0
sg96
VUS Banking News
p755
sg98
I00
sg33
Vhttp://t.co/7EZswS49Q1
p756
sg100
VFri Jul 31 01:58:33 +0000 2009
p757
sg102
I00
sg103
VCentral Time (US & Canada)
p758
sg105
I00
sg106
I00
sg107
I00
ssg108
I00
sg109
g744
sg110
I5557
sg111
g745
sg112
g746
sg113
I00
sg114
I469
sg115
I00
sg116
I-21600
sg117
I693975
sg118
g748
sg119
I2307
sg120
g749
sg121
g750
sg122
g751
sg123
I00
sg124
I00
sg125
g747
sg127
g752
sg128
g753
sg129
g754
sg130
I00
sg131
I01
sg132
I0
sg133
g755
sg134
g756
sg135
g136
(S'\x07\xd9\x07\x1f\x01:!\x00\x00\x00'
p759
tp760
Rp761
sg140
g743
sg141
g758
sg142
I00
sg143
I00
sg144
I00
sbsg145
Nsg29
L664196919040851968L
sg146
I0
sg147
VIFTTT
p762
sg129
Ven
p763
sg150
g728
sg135
g136
(S'\x07\xdf\x0b\n\x15,\x14\x00\x00\x00'
p764
tp765
Rp766
sg50
(dp767
g155
Nsg156
I00
sg157
g725
sg158
I00
sg159
Nsg56
L664196919040851968L
sg160
I0
sg161
V<a href="http://ifttt.com" rel="nofollow">IFTTT</a>
p768
sg163
I00
sg164
Nsg64
(dp769
g166
(lp770
(dp771
g39
(lp772
I62
aI67
asg157
VAGRX
p773
sasg177
(lp774
sg179
(lp775
sg35
(lp776
(dp777
g33
Vhttps://t.co/hSZSFDsEqn
p778
sg39
(lp779
I68
aI91
asg41
Vhttp://ift.tt/1MyIuvZ
p780
sg43
Vift.tt/1MyIuvZ
p781
sassg187
Nsg188
Nsg189
I0
sg68
V664196919040851968
p782
sg191
I00
sg192
g742
sg193
Nsg194
Nsg195
I00
sg92
g763
sg100
VTue Nov 10 21:44:20 +0000 2015
p783
sg197
Nsg198
Nsg199
(dp784
g201
Ven
p785
sg203
Vrecent
p786
sssg205
g784
sg206
Nsg207
Nsg31
g769
sg208
Nsg209
Nsg112
g782
sg210
I00
sg211
Nsg212
I0
sg213
Nsbag0
(g4
g5
Ntp787
Rp788
(dp789
g9
I00
sg10
Nsg11
I00
sg12
VWilliam Blair Reaffirms \u201cOutperform\u201d Rating for Agile Therapeutics $AGRX https://t.co/POAOs4YvsG #acn
p790
sg14
Vhttp://ifttt.com
p791
sg16
I00
sg17
I00
sg18
Nsg19
g0
(g20
g5
Ntp792
Rp793
(dp794
g24
I00
sg25
I00
sg26
I01
sg27
VE8E8E8
p795
sg29
I52210566
sg30
I00
sg31
(dp796
g33
(dp797
g35
(lp798
(dp799
g33
Vhttp://t.co/odTc3pvcAe
p800
sg39
(lp801
I0
aI22
asg41
Vhttp://www.americanconsumernews.com/
p802
sg43
Vamericanconsumernews.com
p803
sassg45
(dp804
g35
(lp805
sssg48
Vhttps://pbs.twimg.com/profile_images/289298274/text_normal.jpg
p806
sg50
(dp807
g52
I00
sg53
I00
sg54
I01
sg55
I00
sg56
I52210566
sg57
Vhttps://pbs.twimg.com/profile_background_images/20558354/back.jpg
p808
sg59
I00
sg60
V333333
p809
sg62
g806
sg63
g795
sg64
g796
sg65
I1114
sg66
VADADAD
p810
sg68
V52210566
p811
sg70
V9AE4E8
p812
sg72
I96
sg73
I00
sg74
I-21600
sg75
I580839
sg45
VPersonal Finance and Consumer Tips
p813
sg77
I1412
sg78
VSioux Falls, SD
p814
sg80
V0084B4
p815
sg82
Vhttp://pbs.twimg.com/profile_images/289298274/text_normal.jpg
p816
sg84
I00
sg85
I00
sg88
Vhttp://pbs.twimg.com/profile_background_images/20558354/back.jpg
p817
sg90
VAmConsumerNews
p818
sg92
Ven
p819
sg94
I00
sg95
I0
sg96
VConsumer News
p820
sg98
I00
sg33
Vhttp://t.co/odTc3pvcAe
p821
sg100
VMon Jun 29 22:22:08 +0000 2009
p822
sg102
I00
sg103
VCentral Time (US & Canada)
p823
sg105
I00
sg106
I00
sg107
I00
ssg108
I00
sg109
g809
sg110
I1114
sg111
g810
sg112
g811
sg113
I00
sg114
I96
sg115
I00
sg116
I-21600
sg117
I580839
sg118
g813
sg119
I1412
sg120
g814
sg121
g815
sg122
g816
sg123
I00
sg124
I00
sg125
g812
sg127
g817
sg128
g818
sg129
g819
sg130
I00
sg131
I00
sg132
I0
sg133
g820
sg134
g821
sg135
g136
(S'\x07\xd9\x06\x1d\x16\x16\x08\x00\x00\x00'
p824
tp825
Rp826
sg140
g808
sg141
g823
sg142
I00
sg143
I00
sg144
I00
sbsg145
Nsg29
L664194016846749696L
sg146
I1
sg147
VIFTTT
p827
sg129
Ven
p828
sg150
g793
sg135
g136
(S'\x07\xdf\x0b\n\x15 0\x00\x00\x00'
p829
tp830
Rp831
sg50
(dp832
g155
Nsg156
I00
sg157
g790
sg158
I00
sg159
Nsg56
L664194016846749696L
sg160
I1
sg161
V<a href="http://ifttt.com" rel="nofollow">IFTTT</a>
p833
sg163
I00
sg164
Nsg64
(dp834
g166
(lp835
(dp836
g39
(lp837
I67
aI72
asg157
VAGRX
p838
sasg177
(lp839
sg179
(lp840
(dp841
g39
(lp842
I97
aI101
asg157
Vacn
p843
sasg35
(lp844
(dp845
g33
Vhttps://t.co/POAOs4YvsG
p846
sg39
(lp847
I73
aI96
asg41
Vhttp://ift.tt/1OCxQq9
p848
sg43
Vift.tt/1OCxQq9
p849
sassg187
Nsg188
Nsg189
I0
sg68
V664194016846749696
p850
sg191
I00
sg192
g807
sg193
Nsg194
Nsg195
I00
sg92
g828
sg100
VTue Nov 10 21:32:48 +0000 2015
p851
sg197
Nsg198
Nsg199
(dp852
g201
Ven
p853
sg203
Vrecent
p854
sssg205
g852
sg206
Nsg207
Nsg31
g834
sg208
Nsg209
Nsg112
g850
sg210
I00
sg211
Nsg212
I0
sg213
Nsbag0
(g4
g5
Ntp855
Rp856
(dp857
g9
I00
sg10
Nsg11
I00
sg12
VAgile Therapeutics's outperform rating reiterated at William Blair. $18.00 PT. https://t.co/KGga65ufeQ $AGRX #AGRX
p858
sg14
Vhttp://ifttt.com
p859
sg16
I00
sg17
I00
sg18
Nsg19
g0
(g20
g5
Ntp860
Rp861
(dp862
g24
I00
sg25
I00
sg26
I01
sg27
VEFEFEF
p863
sg29
I992182100
sg30
I00
sg31
(dp864
g33
(dp865
g35
(lp866
(dp867
g33
Vhttp://t.co/8V4MkNiWl0
p868
sg39
(lp869
I0
aI22
asg41
Vhttp://www.marketbeat.com
p870
sg43
Vmarketbeat.com
p871
sassg45
(dp872
g35
(lp873
(dp874
g33
Vhttp://t.co/3t3pBdeo4G
p875
sg39
(lp876
I34
aI56
asg41
Vhttp://MarketBeat.com
p877
sg43
VMarketBeat.com
p878
sasssg48
Vhttps://pbs.twimg.com/profile_images/605433922986606592/LeOUrdkT_normal.png
p879
sg50
(dp880
g52
I00
sg53
I00
sg54
I01
sg55
I00
sg56
I992182100
sg57
Vhttps://abs.twimg.com/images/themes/theme14/bg.gif
p881
sg59
I00
sg60
V333333
p882
sg62
g879
sg63
g863
sg64
g864
sg65
I3561
sg66
VFFFFFF
p883
sg68
V992182100
p884
sg70
V131516
p885
sg72
I359
sg73
I00
sg74
Nsg75
I226213
sg45
VFormerly Analyst Ratings Network. http://t.co/3t3pBdeo4G tracks analyst upgrades, downgrades and new coverage in real-time.
p886
sg77
I2
sg78
VSioux Falls, SD
p887
sg80
V002277
p888
sg82
Vhttp://pbs.twimg.com/profile_images/605433922986606592/LeOUrdkT_normal.png
p889
sg84
I00
sg85
I00
sg86
Vhttps://pbs.twimg.com/profile_banners/992182100/1410482657
p890
sg88
Vhttp://abs.twimg.com/images/themes/theme14/bg.gif
p891
sg90
VRatingsNetwork
p892
sg92
Ven
p893
sg94
I01
sg95
I0
sg96
VMarketBeatCom
p894
sg98
I00
sg33
Vhttp://t.co/8V4MkNiWl0
p895
sg100
VThu Dec 06 01:50:15 +0000 2012
p896
sg102
I00
sg103
Nsg105
I00
sg106
I00
sg107
I00
ssg108
I00
sg109
g882
sg110
I3561
sg111
g883
sg112
g884
sg113
I00
sg114
I359
sg115
I00
sg116
Nsg117
I226213
sg118
g886
sg119
I2
sg120
g887
sg121
g888
sg122
g889
sg123
I00
sg124
I00
sg125
g885
sg126
g890
sg127
g891
sg128
g892
sg129
g893
sg130
I00
sg131
I01
sg132
I0
sg133
g894
sg134
g895
sg135
g136
(S'\x07\xdc\x0c\x06\x012\x0f\x00\x00\x00'
p897
tp898
Rp899
sg140
g881
sg141
Nsg142
I00
sg143
I00
sg144
I00
sbsg145
Nsg29
L664193717260173313L
sg146
I1
sg147
VIFTTT
p900
sg129
Ven
p901
sg150
g861
sg135
g136
(S'\x07\xdf\x0b\n\x15\x1f$\x00\x00\x00'
p902
tp903
Rp904
sg50
(dp905
g155
Nsg156
I00
sg157
g858
sg158
I00
sg159
Nsg56
L664193717260173313L
sg160
I1
sg161
V<a href="http://ifttt.com" rel="nofollow">IFTTT</a>
p906
sg163
I00
sg164
Nsg64
(dp907
g166
(lp908
(dp909
g39
(lp910
I103
aI108
asg157
VAGRX
p911
sasg177
(lp912
sg179
(lp913
(dp914
g39
(lp915
I109
aI114
asg157
VAGRX
p916
sasg35
(lp917
(dp918
g33
Vhttps://t.co/KGga65ufeQ
p919
sg39
(lp920
I79
aI102
asg41
Vhttp://ift.tt/1SgGjxh
p921
sg43
Vift.tt/1SgGjxh
p922
sassg187
Nsg188
Nsg189
I0
sg68
V664193717260173313
p923
sg191
I00
sg192
g880
sg193
Nsg194
Nsg195
I00
sg92
g901
sg100
VTue Nov 10 21:31:36 +0000 2015
p924
sg197
Nsg198
Nsg199
(dp925
g201
Ven
p926
sg203
Vrecent
p927
sssg205
g925
sg206
Nsg207
Nsg31
g907
sg208
Nsg209
Nsg112
g923
sg210
I00
sg211
Nsg212
I0
sg213
Nsbag0
(g4
g5
Ntp928
Rp929
(dp930
g9
I00
sg10
Nsg11
I00
sg12
VAgile Therapeutics, Inc.  Reiterated Rating by William Blair (Ranked 53rd) to Outperform with 18 PT $AGRX #AGRX https://t.co/fC0sfSmdb4
p931
sg14
Vhttp://www.firsttomarkets.com/
p932
sg16
I00
sg17
I00
sg18
Nsg19
g0
(g20
g5
Ntp933
Rp934
(dp935
g24
I00
sg25
I00
sg26
I01
sg27
VDDEEF6
p936
sg29
I926793032
sg30
I00
sg31
(dp937
g33
(dp938
g35
(lp939
(dp940
g33
Vhttp://t.co/pvYJ4srUXZ
p941
sg39
(lp942
I0
aI22
asg41
Vhttp://www.firsttomarkets.com
p943
sg43
Vfirsttomarkets.com
p944
sassg45
(dp945
g35
(lp946
sssg48
Vhttps://pbs.twimg.com/profile_images/589970473590611969/0Se9nt5A_normal.png
p947
sg50
(dp948
g52
I00
sg53
I00
sg54
I01
sg55
I00
sg56
I926793032
sg57
Vhttps://abs.twimg.com/images/themes/theme1/bg.png
p949
sg59
I00
sg60
V333333
p950
sg62
g947
sg63
g936
sg64
g937
sg65
I256
sg66
VC0DEED
p951
sg68
V926793032
p952
sg70
VC0DEED
p953
sg72
I112
sg73
I00
sg74
I-18000
sg75
I51313
sg45
g362
sg77
I39
sg78
g362
sg80
V0084B4
p954
sg82
Vhttp://pbs.twimg.com/profile_images/589970473590611969/0Se9nt5A_normal.png
p955
sg84
I00
sg85
I00
sg86
Vhttps://pbs.twimg.com/profile_banners/926793032/1429495285
p956
sg88
Vhttp://abs.twimg.com/images/themes/theme1/bg.png
p957
sg90
Vfirsttomarkets
p958
sg92
Ven
p959
sg94
I00
sg95
I0
sg96
VFirstToMarkets
p960
sg98
I00
sg33
Vhttp://t.co/pvYJ4srUXZ
p961
sg100
VMon Nov 05 03:52:56 +0000 2012
p962
sg102
I00
sg103
VEastern Time (US & Canada)
p963
sg105
I00
sg106
I01
sg107
I00
ssg108
I00
sg109
g950
sg110
I256
sg111
g951
sg112
g952
sg113
I00
sg114
I112
sg115
I00
sg116
I-18000
sg117
I51313
sg118
g362
sg119
I39
sg120
g362
sg121
g954
sg122
g955
sg123
I00
sg124
I00
sg125
g953
sg126
g956
sg127
g957
sg128
g958
sg129
g959
sg130
I00
sg131
I00
sg132
I0
sg133
g960
sg134
g961
sg135
g136
(S'\x07\xdc\x0b\x05\x0348\x00\x00\x00'
p964
tp965
Rp966
sg140
g949
sg141
g963
sg142
I00
sg143
I01
sg144
I00
sbsg145
Nsg29
L664193346332524545L
sg146
I0
sg147
VFirst To Markets
p967
sg129
Ven
p968
sg150
g934
sg135
g136
(S'\x07\xdf\x0b\n\x15\x1e\x08\x00\x00\x00'
p969
tp970
Rp971
sg50
(dp972
g155
Nsg156
I00
sg157
g931
sg158
I00
sg159
Nsg56
L664193346332524545L
sg160
I0
sg161
V<a href="http://www.firsttomarkets.com/" rel="nofollow">First To Markets</a>
p973
sg163
I00
sg164
Nsg64
(dp974
g166
(lp975
(dp976
g39
(lp977
I100
aI105
asg157
VAGRX
p978
sasg177
(lp979
sg179
(lp980
(dp981
g39
(lp982
I106
aI111
asg157
VAGRX
p983
sasg35
(lp984
(dp985
g33
Vhttps://t.co/fC0sfSmdb4
p986
sg39
(lp987
I112
aI135
asg41
Vhttp://www.firsttomarkets.com/analytics/stocks/stock?sId=3198#tabs-reiterated
p988
sg43
Vfirsttomarkets.com/analytics/stoc\u2026
p989
sassg187
Nsg188
Nsg189
I0
sg68
V664193346332524545
p990
sg191
I00
sg192
g948
sg193
Nsg194
Nsg195
I00
sg92
g968
sg100
VTue Nov 10 21:30:08 +0000 2015
p991
sg197
Nsg198
Nsg199
(dp992
g201
Ven
p993
sg203
Vrecent
p994
sssg205
g992
sg206
Nsg207
Nsg31
g974
sg208
Nsg209
Nsg112
g990
sg210
I00
sg211
Nsg212
I0
sg213
Nsbag0
(g4
g5
Ntp995
Rp996
(dp997
g9
I00
sg10
Nsg11
I00
sg12
VAgile Therapeutics's outperform rating reiterated at William Blair. $18.00 PT. https://t.co/VFKbAn3Q8Y $AGRX #AGRX
p998
sg14
Vhttp://ifttt.com
p999
sg16
I00
sg17
I00
sg18
Nsg19
g0
(g20
g5
Ntp1000
Rp1001
(dp1002
g24
I00
sg25
I00
sg26
I01
sg27
VF6FFD1
p1003
sg29
I68559732
sg30
I00
sg31
(dp1004
g33
(dp1005
g35
(lp1006
(dp1007
g33
Vhttp://t.co/OKklQuZ0Um
p1008
sg39
(lp1009
I0
aI22
asg41
Vhttp://www.americanconsumernews.com
p1010
sg43
Vamericanconsumernews.com
p1011
sassg45
(dp1012
g35
(lp1013
sssg48
Vhttps://pbs.twimg.com/profile_images/379977873/msn_normal.jpg
p1014
sg50
(dp1015
g52
I00
sg53
I00
sg54
I01
sg55
I00
sg56
I68559732
sg57
Vhttps://abs.twimg.com/images/themes/theme19/bg.gif
p1016
sg59
I00
sg60
V333333
p1017
sg62
g1014
sg63
g1003
sg64
g1004
sg65
I4381
sg66
VFFF8AD
p1018
sg68
V68559732
p1019
sg70
VFFF04D
p1020
sg72
I397
sg73
I00
sg74
I-21600
sg75
I255294
sg45
VNews for Consumers in a Changing World
p1021
sg77
I2843
sg78
VSioux Falls, SD
p1022
sg80
V0099CC
p1023
sg82
Vhttp://pbs.twimg.com/profile_images/379977873/msn_normal.jpg
p1024
sg84
I00
sg85
I00
sg88
Vhttp://abs.twimg.com/images/themes/theme19/bg.gif
p1025
sg90
VConsumerFeed
p1026
sg92
Ven
p1027
sg94
I00
sg95
I0
sg96
VUS Consumer News
p1028
sg98
I00
sg33
Vhttp://t.co/OKklQuZ0Um
p1029
sg100
VTue Aug 25 00:39:44 +0000 2009
p1030
sg102
I00
sg103
VCentral Time (US & Canada)
p1031
sg105
I00
sg106
I00
sg107
I00
ssg108
I00
sg109
g1017
sg110
I4381
sg111
g1018
sg112
g1019
sg113
I00
sg114
I397
sg115
I00
sg116
I-21600
sg117
I255294
sg118
g1021
sg119
I2843
sg120
g1022
sg121
g1023
sg122
g1024
sg123
I00
sg124
I00
sg125
g1020
sg127
g1025
sg128
g1026
sg129
g1027
sg130
I00
sg131
I00
sg132
I0
sg133
g1028
sg134
g1029
sg135
g136
(S"\x07\xd9\x08\x19\x00',\x00\x00\x00"
p1032
tp1033
Rp1034
sg140
g1016
sg141
g1031
sg142
I00
sg143
I00
sg144
I00
sbsg145
Nsg29
L664191296869920769L
sg146
I0
sg147
VIFTTT
p1035
sg129
Ven
p1036
sg150
g1001
sg135
g136
(S'\x07\xdf\x0b\n\x15\x15;\x00\x00\x00'
p1037
tp1038
Rp1039
sg50
(dp1040
g155
Nsg156
I00
sg157
g998
sg158
I00
sg159
Nsg56
L664191296869920769L
sg160
I0
sg161
V<a href="http://ifttt.com" rel="nofollow">IFTTT</a>
p1041
sg163
I00
sg164
Nsg64
(dp1042
g166
(lp1043
(dp1044
g39
(lp1045
I103
aI108
asg157
VAGRX
p1046
sasg177
(lp1047
sg179
(lp1048
(dp1049
g39
(lp1050
I109
aI114
asg157
VAGRX
p1051
sasg35
(lp1052
(dp1053
g33
Vhttps://t.co/VFKbAn3Q8Y
p1054
sg39
(lp1055
I79
aI102
asg41
Vhttp://ift.tt/1SgGjxh
p1056
sg43
Vift.tt/1SgGjxh
p1057
sassg187
Nsg188
Nsg189
I0
sg68
V664191296869920769
p1058
sg191
I00
sg192
g1015
sg193
Nsg194
Nsg195
I00
sg92
g1036
sg100
VTue Nov 10 21:21:59 +0000 2015
p1059
sg197
Nsg198
Nsg199
(dp1060
g201
Ven
p1061
sg203
Vrecent
p1062
sssg205
g1060
sg206
Nsg207
Nsg31
g1042
sg208
Nsg209
Nsg112
g1058
sg210
I00
sg211
Nsg212
I0
sg213
Nsbag0
(g4
g5
Ntp1063
Rp1064
(dp1065
g9
I00
sg10
Nsg11
I00
sg12
VWilliam Blair Reiterates an Outperform Rating on Agile Therapeutics $AGRX https://t.co/Otu7QjOGeo
p1066
sg14
Vhttp://www.analystratings.com
p1067
sg16
I00
sg17
I00
sg18
Nsg19
g0
(g20
g5
Ntp1068
Rp1069
(dp1070
g24
I00
sg25
I00
sg26
I01
sg27
VDDEEF6
p1071
sg29
L2882124578L
sg30
I00
sg31
(dp1072
g33
(dp1073
g35
(lp1074
(dp1075
g33
Vhttp://t.co/QMPwJKSIrk
p1076
sg39
(lp1077
I0
aI22
asg41
Vhttp://www.analystratings.com
p1078
sg43
Vanalystratings.com
p1079
sassg45
(dp1080
g35
(lp1081
sssg48
Vhttps://pbs.twimg.com/profile_images/532568657860104192/TJb4rICn_normal.png
p1082
sg50
(dp1083
g52
I00
sg53
I00
sg54
I01
sg55
I00
sg56
L2882124578L
sg57
Vhttps://abs.twimg.com/images/themes/theme1/bg.png
p1084
sg59
I00
sg60
V333333
p1085
sg62
g1082
sg63
g1071
sg64
g1072
sg65
I318
sg66
VC0DEED
p1086
sg68
V2882124578
p1087
sg70
VC0DEED
p1088
sg72
I17
sg73
I00
sg74
I7200
sg75
I11063
sg45
g362
sg77
I217
sg78
g362
sg80
V0084B4
p1089
sg82
Vhttp://pbs.twimg.com/profile_images/532568657860104192/TJb4rICn_normal.png
p1090
sg84
I00
sg85
I00
sg86
Vhttps://pbs.twimg.com/profile_banners/2882124578/1415809177
p1091
sg88
Vhttp://abs.twimg.com/images/themes/theme1/bg.png
p1092
sg90
VARatings
p1093
sg92
Ven
p1094
sg94
I00
sg95
I3
sg96
VAnalyst Ratings
p1095
sg98
I00
sg33
Vhttp://t.co/QMPwJKSIrk
p1096
sg100
VWed Oct 29 13:16:33 +0000 2014
p1097
sg102
I00
sg103
VKyiv
p1098
sg105
I00
sg106
I01
sg107
I00
ssg108
I00
sg109
g1085
sg110
I318
sg111
g1086
sg112
g1087
sg113
I00
sg114
I17
sg115
I00
sg116
I7200
sg117
I11063
sg118
g362
sg119
I217
sg120
g362
sg121
g1089
sg122
g1090
sg123
I00
sg124
I00
sg125
g1088
sg126
g1091
sg127
g1092
sg128
g1093
sg129
g1094
sg130
I00
sg131
I00
sg132
I3
sg133
g1095
sg134
g1096
sg135
g136
(S'\x07\xde\n\x1d\r\x10!\x00\x00\x00'
p1099
tp1100
Rp1101
sg140
g1084
sg141
g1098
sg142
I00
sg143
I01
sg144
I00
sbsg145
Nsg29
L664165028115972096L
sg146
I0
sg147
VAnalystRatings
p1102
sg129
Ven
p1103
sg150
g1069
sg135
g136
(S'\x07\xdf\x0b\n\x13%$\x00\x00\x00'
p1104
tp1105
Rp1106
sg50
(dp1107
g155
Nsg156
I00
sg157
g1066
sg158
I00
sg159
Nsg56
L664165028115972096L
sg160
I0
sg161
V<a href="http://www.analystratings.com" rel="nofollow">AnalystRatings</a>
p1108
sg163
I00
sg164
Nsg64
(dp1109
g166
(lp1110
(dp1111
g39
(lp1112
I68
aI73
asg157
VAGRX
p1113
sasg177
(lp1114
sg179
(lp1115
sg35
(lp1116
(dp1117
g33
Vhttps://t.co/Otu7QjOGeo
p1118
sg39
(lp1119
I74
aI97
asg41
Vhttp://www.analystratings.com/2015/11/10/william-blair-reiterates-an-outperform-rating-on-agile-therapeutics/424582/
p1120
sg43
Vanalystratings.com/2015/11/10/wil\u2026
p1121
sassg187
Nsg188
Nsg189
I0
sg68
V664165028115972096
p1122
sg191
I00
sg192
g1083
sg193
Nsg194
Nsg195
I00
sg92
g1103
sg100
VTue Nov 10 19:37:36 +0000 2015
p1123
sg197
Nsg198
Nsg199
(dp1124
g201
Ven
p1125
sg203
Vrecent
p1126
sssg205
g1124
sg206
Nsg207
Nsg31
g1109
sg208
Nsg209
Nsg112
g1122
sg210
I00
sg211
Nsg212
I0
sg213
Nsbag0
(g4
g5
Ntp1127
Rp1128
(dp1129
g9
I00
sg10
Nsg11
I00
sg12
Vhttps://t.co/uAcamNRUPt alerted $PTBI +89% MUST SEE TRACK RECORD &amp; SUBSCRIBE https://t.co/tkIn2GV1aE $MNP $TSI $MGF $YUME $AGRX $NRT $PNI
p1130
sg14
Vhttp://biloselhi.com
p1131
sg16
I00
sg17
I00
sg18
Nsg19
g0
(g20
g5
Ntp1132
Rp1133
(dp1134
g24
I00
sg25
I00
sg26
I01
sg27
VFFFFFF
p1135
sg29
L2802272246L
sg30
I00
sg31
(dp1136
g33
(dp1137
g35
(lp1138
(dp1139
g33
Vhttp://t.co/jjWTkVWgFN
p1140
sg39
(lp1141
I0
aI22
asg41
Vhttp://BiloSelhi.com
p1142
sg43
VBiloSelhi.com
p1143
sassg45
(dp1144
g35
(lp1145
(dp1146
g33
Vhttps://t.co/0aFaudDmBY
p1147
sg39
(lp1148
I137
aI160
asg41
Vhttp://biloselhi.com/d.htm
p1149
sg43
Vbiloselhi.com/d.htm
p1150
sasssg48
Vhttps://pbs.twimg.com/profile_images/509778632521154560/DYIdZCfQ_normal.png
p1151
sg50
(dp1152
g52
I00
sg53
I00
sg54
I01
sg55
I00
sg56
L2802272246L
sg57
Vhttps://abs.twimg.com/images/themes/theme13/bg.gif
p1153
sg59
I00
sg60
V333333
p1154
sg62
g1151
sg63
g1135
sg64
g1136
sg65
I11220
sg66
VEEEEEE
p1155
sg68
V2802272246
p1156
sg70
VB2DFDA
p1157
sg72
I72
sg73
I00
sg74
Nsg75
I28395
sg45
VFounder, Bilo Selhi's Stock Alerts. 1,302% return in 13 months. Subscribe today for promo. Follow on Google+ for free trial. DISCLAIMER: https://t.co/0aFaudDmBY
p1158
sg77
I11694
sg78
V \u2193 \u2193 MUST SEE Track record
p1159
sg80
V93A644
p1160
sg82
Vhttp://pbs.twimg.com/profile_images/509778632521154560/DYIdZCfQ_normal.png
p1161
sg84
I00
sg85
I00
sg86
Vhttps://pbs.twimg.com/profile_banners/2802272246/1412893156
p1162
sg88
Vhttp://abs.twimg.com/images/themes/theme13/bg.gif
p1163
sg90
VStocksThatDoubl
p1164
sg92
Ven
p1165
sg94
I00
sg95
I77
sg96
VBilo Selhi
p1166
sg98
I00
sg33
Vhttp://t.co/jjWTkVWgFN
p1167
sg100
VWed Sep 10 18:52:30 +0000 2014
p1168
sg102
I00
sg103
Nsg105
I00
sg106
I00
sg107
I00
ssg108
I00
sg109
g1154
sg110
I11220
sg111
g1155
sg112
g1156
sg113
I00
sg114
I72
sg115
I00
sg116
Nsg117
I28395
sg118
g1158
sg119
I11694
sg120
g1159
sg121
g1160
sg122
g1161
sg123
I00
sg124
I00
sg125
g1157
sg126
g1162
sg127
g1163
sg128
g1164
sg129
g1165
sg130
I00
sg131
I00
sg132
I77
sg133
g1166
sg134
g1167
sg135
g136
(S'\x07\xde\t\n\x124\x1e\x00\x00\x00'
p1169
tp1170
Rp1171
sg140
g1153
sg141
Nsg142
I00
sg143
I00
sg144
I00
sbsg145
Nsg29
L664140321907961856L
sg146
I0
sg147
VNov292014
p1172
sg129
Ven
p1173
sg150
g1133
sg135
g136
(S'\x07\xdf\x0b\n\x11;\x1a\x00\x00\x00'
p1174
tp1175
Rp1176
sg50
(dp1177
g155
Nsg156
I00
sg157
g1130
sg158
I00
sg159
Nsg56
L664140321907961856L
sg160
I0
sg161
V<a href="http://biloselhi.com" rel="nofollow">Nov292014</a>
p1178
sg163
I00
sg164
Nsg64
(dp1179
g166
(lp1180
(dp1181
g39
(lp1182
I32
aI37
asg157
VPTBI
p1183
sa(dp1184
g39
(lp1185
I105
aI109
asg157
VMNP
p1186
sa(dp1187
g39
(lp1188
I110
aI114
asg157
VTSI
p1189
sa(dp1190
g39
(lp1191
I115
aI119
asg157
VMGF
p1192
sa(dp1193
g39
(lp1194
I120
aI125
asg157
VYUME
p1195
sa(dp1196
g39
(lp1197
I126
aI131
asg157
VAGRX
p1198
sa(dp1199
g39
(lp1200
I132
aI136
asg157
VNRT
p1201
sa(dp1202
g39
(lp1203
I137
aI141
asg157
VPNI
p1204
sasg177
(lp1205
sg179
(lp1206
sg35
(lp1207
(dp1208
g33
Vhttps://t.co/uAcamNRUPt
p1209
sg39
(lp1210
I0
aI23
asg41
Vhttp://BiloSelhi.com
p1211
sg43
VBiloSelhi.com
p1212
sasg300
(lp1213
(dp1214
g303
L2802272246L
sg304
V595888238205755392
p1215
sg41
Vhttp://twitter.com/StocksThatDoubl/status/595888238205755392/photo/1
p1216
sg43
Vpic.twitter.com/tkIn2GV1aE
p1217
sg33
Vhttps://t.co/tkIn2GV1aE
p1218
sg309
Vhttps://pbs.twimg.com/media/CEUFMRrWYAAlu16.png
p1219
sg311
V2802272246
p1220
sg313
L595888238205755392L
sg68
V595888234158252032
p1221
sg315
(dp1222
g317
(dp1223
g319
I555
sg320
Vfit
p1224
sg322
I1024
ssg323
(dp1225
g319
I184
sg320
Vfit
p1226
sg322
I340
ssg326
(dp1227
g319
I325
sg320
Vfit
p1228
sg322
I600
ssg329
(dp1229
g319
I150
sg320
Vcrop
p1230
sg322
I150
sssg39
(lp1231
I81
aI104
asg333
Vphoto
p1232
sg56
L595888234158252032L
sg335
Vhttp://pbs.twimg.com/media/CEUFMRrWYAAlu16.png
p1233
sassg187
Nsg188
Nsg189
I0
sg68
V664140321907961856
p1234
sg191
I00
sg192
g1152
sg193
Nsg194
Nsg195
I00
sg92
g1173
sg100
VTue Nov 10 17:59:26 +0000 2015
p1235
sg197
Nsg198
Nsg199
(dp1236
g201
Ven
p1237
sg203
Vrecent
p1238
sssg205
g1236
sg206
Nsg207
Nsg31
g1179
sg208
Nsg209
Nsg112
g1234
sg210
I00
sg211
Nsg212
I0
sg213
Nsbag0
(g4
g5
Ntp1239
Rp1240
(dp1241
g9
I00
sg10
Nsg11
I00
sg12
Vhttps://t.co/uAcamNRUPt alerted $PTBI +89% MUST SEE TRACK RECORD &amp; SUBSCRIBE https://t.co/tkIn2GV1aE $MNP $TSI $MGF $YUME $AGRX $NRT $PNI
p1242
sg14
Vhttp://biloselhi.com
p1243
sg16
I00
sg17
I00
sg18
Nsg19
g0
(g20
g5
Ntp1244
Rp1245
(dp1246
g24
I00
sg25
I00
sg26
I01
sg27
VFFFFFF
p1247
sg29
L2802272246L
sg30
I00
sg31
(dp1248
g33
(dp1249
g35
(lp1250
(dp1251
g33
Vhttp://t.co/jjWTkVWgFN
p1252
sg39
(lp1253
I0
aI22
asg41
Vhttp://BiloSelhi.com
p1254
sg43
VBiloSelhi.com
p1255
sassg45
(dp1256
g35
(lp1257
(dp1258
g33
Vhttps://t.co/0aFaudDmBY
p1259
sg39
(lp1260
I137
aI160
asg41
Vhttp://biloselhi.com/d.htm
p1261
sg43
Vbiloselhi.com/d.htm
p1262
sasssg48
Vhttps://pbs.twimg.com/profile_images/509778632521154560/DYIdZCfQ_normal.png
p1263
sg50
(dp1264
g52
I00
sg53
I00
sg54
I01
sg55
I00
sg56
L2802272246L
sg57
Vhttps://abs.twimg.com/images/themes/theme13/bg.gif
p1265
sg59
I00
sg60
V333333
p1266
sg62
g1263
sg63
g1247
sg64
g1248
sg65
I11220
sg66
VEEEEEE
p1267
sg68
V2802272246
p1268
sg70
VB2DFDA
p1269
sg72
I72
sg73
I00
sg74
Nsg75
I28395
sg45
VFounder, Bilo Selhi's Stock Alerts. 1,302% return in 13 months. Subscribe today for promo. Follow on Google+ for free trial. DISCLAIMER: https://t.co/0aFaudDmBY
p1270
sg77
I11694
sg78
V \u2193 \u2193 MUST SEE Track record
p1271
sg80
V93A644
p1272
sg82
Vhttp://pbs.twimg.com/profile_images/509778632521154560/DYIdZCfQ_normal.png
p1273
sg84
I00
sg85
I00
sg86
Vhttps://pbs.twimg.com/profile_banners/2802272246/1412893156
p1274
sg88
Vhttp://abs.twimg.com/images/themes/theme13/bg.gif
p1275
sg90
VStocksThatDoubl
p1276
sg92
Ven
p1277
sg94
I00
sg95
I77
sg96
VBilo Selhi
p1278
sg98
I00
sg33
Vhttp://t.co/jjWTkVWgFN
p1279
sg100
VWed Sep 10 18:52:30 +0000 2014
p1280
sg102
I00
sg103
Nsg105
I00
sg106
I00
sg107
I00
ssg108
I00
sg109
g1266
sg110
I11220
sg111
g1267
sg112
g1268
sg113
I00
sg114
I72
sg115
I00
sg116
Nsg117
I28395
sg118
g1270
sg119
I11694
sg120
g1271
sg121
g1272
sg122
g1273
sg123
I00
sg124
I00
sg125
g1269
sg126
g1274
sg127
g1275
sg128
g1276
sg129
g1277
sg130
I00
sg131
I00
sg132
I77
sg133
g1278
sg134
g1279
sg135
g136
(S'\x07\xde\t\n\x124\x1e\x00\x00\x00'
p1281
tp1282
Rp1283
sg140
g1265
sg141
Nsg142
I00
sg143
I00
sg144
I00
sbsg145
Nsg29
L664079810709295104L
sg146
I0
sg147
VNov292014
p1284
sg129
Ven
p1285
sg150
g1245
sg135
g136
(S'\x07\xdf\x0b\n\r:;\x00\x00\x00'
p1286
tp1287
Rp1288
sg50
(dp1289
g155
Nsg156
I00
sg157
g1242
sg158
I00
sg159
Nsg56
L664079810709295104L
sg160
I0
sg161
V<a href="http://biloselhi.com" rel="nofollow">Nov292014</a>
p1290
sg163
I00
sg164
Nsg64
(dp1291
g166
(lp1292
(dp1293
g39
(lp1294
I32
aI37
asg157
VPTBI
p1295
sa(dp1296
g39
(lp1297
I105
aI109
asg157
VMNP
p1298
sa(dp1299
g39
(lp1300
I110
aI114
asg157
VTSI
p1301
sa(dp1302
g39
(lp1303
I115
aI119
asg157
VMGF
p1304
sa(dp1305
g39
(lp1306
I120
aI125
asg157
VYUME
p1307
sa(dp1308
g39
(lp1309
I126
aI131
asg157
VAGRX
p1310
sa(dp1311
g39
(lp1312
I132
aI136
asg157
VNRT
p1313
sa(dp1314
g39
(lp1315
I137
aI141
asg157
VPNI
p1316
sasg177
(lp1317
sg179
(lp1318
sg35
(lp1319
(dp1320
g33
Vhttps://t.co/uAcamNRUPt
p1321
sg39
(lp1322
I0
aI23
asg41
Vhttp://BiloSelhi.com
p1323
sg43
VBiloSelhi.com
p1324
sasg300
(lp1325
(dp1326
g303
L2802272246L
sg304
V595888238205755392
p1327
sg41
Vhttp://twitter.com/StocksThatDoubl/status/595888238205755392/photo/1
p1328
sg43
Vpic.twitter.com/tkIn2GV1aE
p1329
sg33
Vhttps://t.co/tkIn2GV1aE
p1330
sg309
Vhttps://pbs.twimg.com/media/CEUFMRrWYAAlu16.png
p1331
sg311
V2802272246
p1332
sg313
L595888238205755392L
sg68
V595888234158252032
p1333
sg315
(dp1334
g317
(dp1335
g319
I555
sg320
Vfit
p1336
sg322
I1024
ssg323
(dp1337
g319
I184
sg320
Vfit
p1338
sg322
I340
ssg326
(dp1339
g319
I325
sg320
Vfit
p1340
sg322
I600
ssg329
(dp1341
g319
I150
sg320
Vcrop
p1342
sg322
I150
sssg39
(lp1343
I81
aI104
asg333
Vphoto
p1344
sg56
L595888234158252032L
sg335
Vhttp://pbs.twimg.com/media/CEUFMRrWYAAlu16.png
p1345
sassg187
Nsg188
Nsg189
I0
sg68
V664079810709295104
p1346
sg191
I00
sg192
g1264
sg193
Nsg194
Nsg195
I00
sg92
g1285
sg100
VTue Nov 10 13:58:59 +0000 2015
p1347
sg197
Nsg198
Nsg199
(dp1348
g201
Ven
p1349
sg203
Vrecent
p1350
sssg205
g1348
sg206
Nsg207
Nsg31
g1291
sg208
Nsg209
Nsg112
g1346
sg210
I00
sg211
Nsg212
I0
sg213
Nsbag0
(g4
g5
Ntp1351
Rp1352
(dp1353
g9
I00
sg10
Nsg11
I00
sg12
Vhttps://t.co/uAcamNRUPt alerted $PTBI +89% MUST SEE TRACK RECORD &amp; SUBSCRIBE https://t.co/tkIn2GV1aE $MNP $TSI $MGF $YUME $AGRX $NRT $PNI
p1354
sg14
Vhttp://biloselhi.com
p1355
sg16
I00
sg17
I00
sg18
Nsg19
g0
(g20
g5
Ntp1356
Rp1357
(dp1358
g24
I00
sg25
I00
sg26
I01
sg27
VFFFFFF
p1359
sg29
L2802272246L
sg30
I00
sg31
(dp1360
g33
(dp1361
g35
(lp1362
(dp1363
g33
Vhttp://t.co/jjWTkVWgFN
p1364
sg39
(lp1365
I0
aI22
asg41
Vhttp://BiloSelhi.com
p1366
sg43
VBiloSelhi.com
p1367
sassg45
(dp1368
g35
(lp1369
(dp1370
g33
Vhttps://t.co/0aFaudDmBY
p1371
sg39
(lp1372
I137
aI160
asg41
Vhttp://biloselhi.com/d.htm
p1373
sg43
Vbiloselhi.com/d.htm
p1374
sasssg48
Vhttps://pbs.twimg.com/profile_images/509778632521154560/DYIdZCfQ_normal.png
p1375
sg50
(dp1376
g52
I00
sg53
I00
sg54
I01
sg55
I00
sg56
L2802272246L
sg57
Vhttps://abs.twimg.com/images/themes/theme13/bg.gif
p1377
sg59
I00
sg60
V333333
p1378
sg62
g1375
sg63
g1359
sg64
g1360
sg65
I11220
sg66
VEEEEEE
p1379
sg68
V2802272246
p1380
sg70
VB2DFDA
p1381
sg72
I72
sg73
I00
sg74
Nsg75
I28395
sg45
VFounder, Bilo Selhi's Stock Alerts. 1,302% return in 13 months. Subscribe today for promo. Follow on Google+ for free trial. DISCLAIMER: https://t.co/0aFaudDmBY
p1382
sg77
I11694
sg78
V \u2193 \u2193 MUST SEE Track record
p1383
sg80
V93A644
p1384
sg82
Vhttp://pbs.twimg.com/profile_images/509778632521154560/DYIdZCfQ_normal.png
p1385
sg84
I00
sg85
I00
sg86
Vhttps://pbs.twimg.com/profile_banners/2802272246/1412893156
p1386
sg88
Vhttp://abs.twimg.com/images/themes/theme13/bg.gif
p1387
sg90
VStocksThatDoubl
p1388
sg92
Ven
p1389
sg94
I00
sg95
I77
sg96
VBilo Selhi
p1390
sg98
I00
sg33
Vhttp://t.co/jjWTkVWgFN
p1391
sg100
VWed Sep 10 18:52:30 +0000 2014
p1392
sg102
I00
sg103
Nsg105
I00
sg106
I00
sg107
I00
ssg108
I00
sg109
g1378
sg110
I11220
sg111
g1379
sg112
g1380
sg113
I00
sg114
I72
sg115
I00
sg116
Nsg117
I28395
sg118
g1382
sg119
I11694
sg120
g1383
sg121
g1384
sg122
g1385
sg123
I00
sg124
I00
sg125
g1381
sg126
g1386
sg127
g1387
sg128
g1388
sg129
g1389
sg130
I00
sg131
I00
sg132
I77
sg133
g1390
sg134
g1391
sg135
g136
(S'\x07\xde\t\n\x124\x1e\x00\x00\x00'
p1393
tp1394
Rp1395
sg140
g1377
sg141
Nsg142
I00
sg143
I00
sg144
I00
sbsg145
Nsg29
L664019344083537920L
sg146
I0
sg147
VNov292014
p1396
sg129
Ven
p1397
sg150
g1357
sg135
g136
(S'\x07\xdf\x0b\n\t:+\x00\x00\x00'
p1398
tp1399
Rp1400
sg50
(dp1401
g155
Nsg156
I00
sg157
g1354
sg158
I00
sg159
Nsg56
L664019344083537920L
sg160
I0
sg161
V<a href="http://biloselhi.com" rel="nofollow">Nov292014</a>
p1402
sg163
I00
sg164
Nsg64
(dp1403
g166
(lp1404
(dp1405
g39
(lp1406
I32
aI37
asg157
VPTBI
p1407
sa(dp1408
g39
(lp1409
I105
aI109
asg157
VMNP
p1410
sa(dp1411
g39
(lp1412
I110
aI114
asg157
VTSI
p1413
sa(dp1414
g39
(lp1415
I115
aI119
asg157
VMGF
p1416
sa(dp1417
g39
(lp1418
I120
aI125
asg157
VYUME
p1419
sa(dp1420
g39
(lp1421
I126
aI131
asg157
VAGRX
p1422
sa(dp1423
g39
(lp1424
I132
aI136
asg157
VNRT
p1425
sa(dp1426
g39
(lp1427
I137
aI141
asg157
VPNI
p1428
sasg177
(lp1429
sg179
(lp1430
sg35
(lp1431
(dp1432
g33
Vhttps://t.co/uAcamNRUPt
p1433
sg39
(lp1434
I0
aI23
asg41
Vhttp://BiloSelhi.com
p1435
sg43
VBiloSelhi.com
p1436
sasg300
(lp1437
(dp1438
g303
L2802272246L
sg304
V595888238205755392
p1439
sg41
Vhttp://twitter.com/StocksThatDoubl/status/595888238205755392/photo/1
p1440
sg43
Vpic.twitter.com/tkIn2GV1aE
p1441
sg33
Vhttps://t.co/tkIn2GV1aE
p1442
sg309
Vhttps://pbs.twimg.com/media/CEUFMRrWYAAlu16.png
p1443
sg311
V2802272246
p1444
sg313
L595888238205755392L
sg68
V595888234158252032
p1445
sg315
(dp1446
g317
(dp1447
g319
I555
sg320
Vfit
p1448
sg322
I1024
ssg323
(dp1449
g319
I184
sg320
Vfit
p1450
sg322
I340
ssg326
(dp1451
g319
I325
sg320
Vfit
p1452
sg322
I600
ssg329
(dp1453
g319
I150
sg320
Vcrop
p1454
sg322
I150
sssg39
(lp1455
I81
aI104
asg333
Vphoto
p1456
sg56
L595888234158252032L
sg335
Vhttp://pbs.twimg.com/media/CEUFMRrWYAAlu16.png
p1457
sassg187
Nsg188
Nsg189
I0
sg68
V664019344083537920
p1458
sg191
I00
sg192
g1376
sg193
Nsg194
Nsg195
I00
sg92
g1397
sg100
VTue Nov 10 09:58:43 +0000 2015
p1459
sg197
Nsg198
Nsg199
(dp1460
g201
Ven
p1461
sg203
Vrecent
p1462
sssg205
g1460
sg206
Nsg207
Nsg31
g1403
sg208
Nsg209
Nsg112
g1458
sg210
I00
sg211
Nsg212
I0
sg213
Nsbag0
(g4
g5
Ntp1463
Rp1464
(dp1465
g9
I00
sg10
Nsg11
I00
sg12
V$AGRX Quarterly Report (10-q)\u2026 (https://t.co/R6IvtKODpq)
p1466
sg14
Vhttps://mobile.twitter.com
p1467
sg16
I00
sg17
I00
sg18
Nsg19
g0
(g20
g5
Ntp1468
Rp1469
(dp1470
g24
I00
sg25
I00
sg26
I01
sg27
VDDEEF6
p1471
sg29
L2554107798L
sg30
I00
sg31
(dp1472
g45
(dp1473
g35
(lp1474
sssg48
Vhttps://abs.twimg.com/sticky/default_profile_images/default_profile_4_normal.png
p1475
sg50
(dp1476
g52
I00
sg53
I00
sg54
I01
sg55
I01
sg56
L2554107798L
sg57
Vhttps://abs.twimg.com/images/themes/theme1/bg.png
p1477
sg59
I00
sg60
V333333
p1478
sg62
g1475
sg63
g1471
sg64
g1472
sg65
I241
sg66
VC0DEED
p1479
sg68
V2554107798
p1480
sg70
VC0DEED
p1481
sg72
I59
sg73
I01
sg74
I0
sg75
I350821
sg45
g362
sg77
I0
sg78
g362
sg80
V0084B4
p1482
sg82
Vhttp://abs.twimg.com/sticky/default_profile_images/default_profile_4_normal.png
p1483
sg84
I00
sg85
I00
sg88
Vhttp://abs.twimg.com/images/themes/theme1/bg.png
p1484
sg90
VNASDAQODUK
p1485
sg92
Ven
p1486
sg94
I00
sg95
I0
sg96
VNASDAQ
p1487
sg98
I00
sg33
Nsg100
VSun Jun 08 07:25:44 +0000 2014
p1488
sg102
I00
sg103
VLondon
p1489
sg105
I00
sg106
I01
sg107
I00
ssg108
I00
sg109
g1478
sg110
I241
sg111
g1479
sg112
g1480
sg113
I01
sg114
I59
sg115
I01
sg116
I0
sg117
I350821
sg118
g362
sg119
I0
sg120
g362
sg121
g1482
sg122
g1483
sg123
I00
sg124
I00
sg125
g1481
sg127
g1484
sg128
g1485
sg129
g1486
sg130
I00
sg131
I00
sg132
I0
sg133
g1487
sg134
Nsg135
g136
(S'\x07\xde\x06\x08\x07\x19,\x00\x00\x00'
p1490
tp1491
Rp1492
sg140
g1477
sg141
g1489
sg142
I00
sg143
I01
sg144
I00
sbsg145
Nsg29
L664000351016759296L
sg146
I0
sg147
VMobile Web (M2)
p1493
sg129
Ves
p1494
sg150
g1469
sg135
g136
(S'\x07\xdf\x0b\n\x08+\x0e\x00\x00\x00'
p1495
tp1496
Rp1497
sg50
(dp1498
g155
Nsg156
I00
sg157
g1466
sg158
I00
sg159
Nsg56
L664000351016759296L
sg160
I0
sg161
V<a href="https://mobile.twitter.com" rel="nofollow">Mobile Web (M2)</a>
p1499
sg163
I00
sg164
Nsg64
(dp1500
g166
(lp1501
(dp1502
g39
(lp1503
I0
aI5
asg157
VAGRX
p1504
sasg177
(lp1505
sg179
(lp1506
sg35
(lp1507
(dp1508
g33
Vhttps://t.co/R6IvtKODpq
p1509
sg39
(lp1510
I32
aI55
asg41
Vhttp://uk.advfn.com/p.php?pid=nmona&article=69234673&symbol=NASDAQ%3AAGRX
p1511
sg43
Vuk.advfn.com/p.php?pid=nmon\u2026
p1512
sassg187
Nsg188
Nsg189
I0
sg68
V664000351016759296
p1513
sg191
I00
sg192
g1476
sg193
Nsg194
Nsg195
I00
sg92
g1494
sg100
VTue Nov 10 08:43:14 +0000 2015
p1514
sg197
Nsg198
Nsg199
(dp1515
g201
Ves
p1516
sg203
Vrecent
p1517
sssg205
g1515
sg206
Nsg207
Nsg31
g1500
sg208
Nsg209
Nsg112
g1513
sg210
I00
sg211
Nsg212
I0
sg213
Nsbag0
(g4
g5
Ntp1518
Rp1519
(dp1520
g9
I00
sg10
Nsg11
I00
sg12
V$AGRX Current Report Filing (8-k)\u2026 (https://t.co/LHH5wYXDf9)
p1521
sg14
Vhttps://mobile.twitter.com
p1522
sg16
I00
sg17
I00
sg18
Nsg19
g0
(g20
g5
Ntp1523
Rp1524
(dp1525
g24
I00
sg25
I00
sg26
I01
sg27
VDDEEF6
p1526
sg29
L2554107798L
sg30
I00
sg31
(dp1527
g45
(dp1528
g35
(lp1529
sssg48
Vhttps://abs.twimg.com/sticky/default_profile_images/default_profile_4_normal.png
p1530
sg50
(dp1531
g52
I00
sg53
I00
sg54
I01
sg55
I01
sg56
L2554107798L
sg57
Vhttps://abs.twimg.com/images/themes/theme1/bg.png
p1532
sg59
I00
sg60
V333333
p1533
sg62
g1530
sg63
g1526
sg64
g1527
sg65
I241
sg66
VC0DEED
p1534
sg68
V2554107798
p1535
sg70
VC0DEED
p1536
sg72
I59
sg73
I01
sg74
I0
sg75
I350821
sg45
g362
sg77
I0
sg78
g362
sg80
V0084B4
p1537
sg82
Vhttp://abs.twimg.com/sticky/default_profile_images/default_profile_4_normal.png
p1538
sg84
I00
sg85
I00
sg88
Vhttp://abs.twimg.com/images/themes/theme1/bg.png
p1539
sg90
VNASDAQODUK
p1540
sg92
Ven
p1541
sg94
I00
sg95
I0
sg96
VNASDAQ
p1542
sg98
I00
sg33
Nsg100
VSun Jun 08 07:25:44 +0000 2014
p1543
sg102
I00
sg103
VLondon
p1544
sg105
I00
sg106
I01
sg107
I00
ssg108
I00
sg109
g1533
sg110
I241
sg111
g1534
sg112
g1535
sg113
I01
sg114
I59
sg115
I01
sg116
I0
sg117
I350821
sg118
g362
sg119
I0
sg120
g362
sg121
g1537
sg122
g1538
sg123
I00
sg124
I00
sg125
g1536
sg127
g1539
sg128
g1540
sg129
g1541
sg130
I00
sg131
I00
sg132
I0
sg133
g1542
sg134
Nsg135
g136
(S'\x07\xde\x06\x08\x07\x19,\x00\x00\x00'
p1545
tp1546
Rp1547
sg140
g1532
sg141
g1544
sg142
I00
sg143
I01
sg144
I00
sbsg145
Nsg29
L663997578594398208L
sg146
I0
sg147
VMobile Web (M2)
p1548
sg129
Ves
p1549
sg150
g1524
sg135
g136
(S'\x07\xdf\x0b\n\x08 \r\x00\x00\x00'
p1550
tp1551
Rp1552
sg50
(dp1553
g155
Nsg156
I00
sg157
g1521
sg158
I00
sg159
Nsg56
L663997578594398208L
sg160
I0
sg161
V<a href="https://mobile.twitter.com" rel="nofollow">Mobile Web (M2)</a>
p1554
sg163
I00
sg164
Nsg64
(dp1555
g166
(lp1556
(dp1557
g39
(lp1558
I0
aI5
asg157
VAGRX
p1559
sasg177
(lp1560
sg179
(lp1561
sg35
(lp1562
(dp1563
g33
Vhttps://t.co/LHH5wYXDf9
p1564
sg39
(lp1565
I36
aI59
asg41
Vhttp://uk.advfn.com/p.php?pid=nmona&article=69234133&symbol=NASDAQ%3AAGRX
p1566
sg43
Vuk.advfn.com/p.php?pid=nmon\u2026
p1567
sassg187
Nsg188
Nsg189
I0
sg68
V663997578594398208
p1568
sg191
I00
sg192
g1531
sg193
Nsg194
Nsg195
I00
sg92
g1549
sg100
VTue Nov 10 08:32:13 +0000 2015
p1569
sg197
Nsg198
Nsg199
(dp1570
g201
Ves
p1571
sg203
Vrecent
p1572
sssg205
g1570
sg206
Nsg207
Nsg31
g1555
sg208
Nsg209
Nsg112
g1568
sg210
I00
sg211
Nsg212
I0
sg213
Nsbag0
(g4
g5
Ntp1573
Rp1574
(dp1575
g9
I00
sg10
Nsg11
I00
sg12
V$AGRX Agile Therapeutics Reports Third Quarter Financial Resul\u2026 (https://t.co/DK3t6TIRTV)
p1576
sg14
Vhttps://mobile.twitter.com
p1577
sg16
I00
sg17
I00
sg18
Nsg19
g0
(g20
g5
Ntp1578
Rp1579
(dp1580
g24
I00
sg25
I00
sg26
I01
sg27
VDDEEF6
p1581
sg29
L2554107798L
sg30
I00
sg31
(dp1582
g45
(dp1583
g35
(lp1584
sssg48
Vhttps://abs.twimg.com/sticky/default_profile_images/default_profile_4_normal.png
p1585
sg50
(dp1586
g52
I00
sg53
I00
sg54
I01
sg55
I01
sg56
L2554107798L
sg57
Vhttps://abs.twimg.com/images/themes/theme1/bg.png
p1587
sg59
I00
sg60
V333333
p1588
sg62
g1585
sg63
g1581
sg64
g1582
sg65
I241
sg66
VC0DEED
p1589
sg68
V2554107798
p1590
sg70
VC0DEED
p1591
sg72
I59
sg73
I01
sg74
I0
sg75
I350821
sg45
g362
sg77
I0
sg78
g362
sg80
V0084B4
p1592
sg82
Vhttp://abs.twimg.com/sticky/default_profile_images/default_profile_4_normal.png
p1593
sg84
I00
sg85
I00
sg88
Vhttp://abs.twimg.com/images/themes/theme1/bg.png
p1594
sg90
VNASDAQODUK
p1595
sg92
Ven
p1596
sg94
I00
sg95
I0
sg96
VNASDAQ
p1597
sg98
I00
sg33
Nsg100
VSun Jun 08 07:25:44 +0000 2014
p1598
sg102
I00
sg103
VLondon
p1599
sg105
I00
sg106
I01
sg107
I00
ssg108
I00
sg109
g1588
sg110
I241
sg111
g1589
sg112
g1590
sg113
I01
sg114
I59
sg115
I01
sg116
I0
sg117
I350821
sg118
g362
sg119
I0
sg120
g362
sg121
g1592
sg122
g1593
sg123
I00
sg124
I00
sg125
g1591
sg127
g1594
sg128
g1595
sg129
g1596
sg130
I00
sg131
I00
sg132
I0
sg133
g1597
sg134
Nsg135
g136
(S'\x07\xde\x06\x08\x07\x19,\x00\x00\x00'
p1600
tp1601
Rp1602
sg140
g1587
sg141
g1599
sg142
I00
sg143
I01
sg144
I00
sbsg145
Nsg29
L663995334637559809L
sg146
I0
sg147
VMobile Web (M2)
p1603
sg129
Ven
p1604
sg150
g1579
sg135
g136
(S'\x07\xdf\x0b\n\x08\x17\x12\x00\x00\x00'
p1605
tp1606
Rp1607
sg50
(dp1608
g155
Nsg156
I00
sg157
g1576
sg158
I00
sg159
Nsg56
L663995334637559809L
sg160
I0
sg161
V<a href="https://mobile.twitter.com" rel="nofollow">Mobile Web (M2)</a>
p1609
sg163
I00
sg164
Nsg64
(dp1610
g166
(lp1611
(dp1612
g39
(lp1613
I0
aI5
asg157
VAGRX
p1614
sasg177
(lp1615
sg179
(lp1616
sg35
(lp1617
(dp1618
g33
Vhttps://t.co/DK3t6TIRTV
p1619
sg39
(lp1620
I65
aI88
asg41
Vhttp://uk.advfn.com/p.php?pid=nmona&article=69233739&symbol=NASDAQ%3AAGRX
p1621
sg43
Vuk.advfn.com/p.php?pid=nmon\u2026
p1622
sassg187
Nsg188
Nsg189
I0
sg68
V663995334637559809
p1623
sg191
I00
sg192
g1586
sg193
Nsg194
Nsg195
I00
sg92
g1604
sg100
VTue Nov 10 08:23:18 +0000 2015
p1624
sg197
Nsg198
Nsg199
(dp1625
g201
Ven
p1626
sg203
Vrecent
p1627
sssg205
g1625
sg206
Nsg207
Nsg31
g1610
sg208
Nsg209
Nsg112
g1623
sg210
I00
sg211
Nsg212
I0
sg213
Nsbag0
(g4
g5
Ntp1628
Rp1629
(dp1630
g9
I00
sg10
Nsg11
I00
sg12
Vhttps://t.co/uAcamNRUPt alerted $PTBI +89% MUST SEE TRACK RECORD &amp; SUBSCRIBE https://t.co/tkIn2GV1aE $MNP $TSI $MGF $YUME $AGRX $NRT $PNI
p1631
sg14
Vhttp://biloselhi.com
p1632
sg16
I00
sg17
I00
sg18
Nsg19
g0
(g20
g5
Ntp1633
Rp1634
(dp1635
g24
I00
sg25
I00
sg26
I01
sg27
VFFFFFF
p1636
sg29
L2802272246L
sg30
I00
sg31
(dp1637
g33
(dp1638
g35
(lp1639
(dp1640
g33
Vhttp://t.co/jjWTkVWgFN
p1641
sg39
(lp1642
I0
aI22
asg41
Vhttp://BiloSelhi.com
p1643
sg43
VBiloSelhi.com
p1644
sassg45
(dp1645
g35
(lp1646
(dp1647
g33
Vhttps://t.co/0aFaudDmBY
p1648
sg39
(lp1649
I137
aI160
asg41
Vhttp://biloselhi.com/d.htm
p1650
sg43
Vbiloselhi.com/d.htm
p1651
sasssg48
Vhttps://pbs.twimg.com/profile_images/509778632521154560/DYIdZCfQ_normal.png
p1652
sg50
(dp1653
g52
I00
sg53
I00
sg54
I01
sg55
I00
sg56
L2802272246L
sg57
Vhttps://abs.twimg.com/images/themes/theme13/bg.gif
p1654
sg59
I00
sg60
V333333
p1655
sg62
g1652
sg63
g1636
sg64
g1637
sg65
I11220
sg66
VEEEEEE
p1656
sg68
V2802272246
p1657
sg70
VB2DFDA
p1658
sg72
I72
sg73
I00
sg74
Nsg75
I28395
sg45
VFounder, Bilo Selhi's Stock Alerts. 1,302% return in 13 months. Subscribe today for promo. Follow on Google+ for free trial. DISCLAIMER: https://t.co/0aFaudDmBY
p1659
sg77
I11694
sg78
V \u2193 \u2193 MUST SEE Track record
p1660
sg80
V93A644
p1661
sg82
Vhttp://pbs.twimg.com/profile_images/509778632521154560/DYIdZCfQ_normal.png
p1662
sg84
I00
sg85
I00
sg86
Vhttps://pbs.twimg.com/profile_banners/2802272246/1412893156
p1663
sg88
Vhttp://abs.twimg.com/images/themes/theme13/bg.gif
p1664
sg90
VStocksThatDoubl
p1665
sg92
Ven
p1666
sg94
I00
sg95
I77
sg96
VBilo Selhi
p1667
sg98
I00
sg33
Vhttp://t.co/jjWTkVWgFN
p1668
sg100
VWed Sep 10 18:52:30 +0000 2014
p1669
sg102
I00
sg103
Nsg105
I00
sg106
I00
sg107
I00
ssg108
I00
sg109
g1655
sg110
I11220
sg111
g1656
sg112
g1657
sg113
I00
sg114
I72
sg115
I00
sg116
Nsg117
I28395
sg118
g1659
sg119
I11694
sg120
g1660
sg121
g1661
sg122
g1662
sg123
I00
sg124
I00
sg125
g1658
sg126
g1663
sg127
g1664
sg128
g1665
sg129
g1666
sg130
I00
sg131
I00
sg132
I77
sg133
g1667
sg134
g1668
sg135
g136
(S'\x07\xde\t\n\x124\x1e\x00\x00\x00'
p1670
tp1671
Rp1672
sg140
g1654
sg141
Nsg142
I00
sg143
I00
sg144
I00
sbsg145
Nsg29
L663958889583525888L
sg146
I0
sg147
VNov292014
p1673
sg129
Ven
p1674
sg150
g1634
sg135
g136
(S'\x07\xdf\x0b\n\x05:\x1d\x00\x00\x00'
p1675
tp1676
Rp1677
sg50
(dp1678
g155
Nsg156
I00
sg157
g1631
sg158
I00
sg159
Nsg56
L663958889583525888L
sg160
I0
sg161
V<a href="http://biloselhi.com" rel="nofollow">Nov292014</a>
p1679
sg163
I00
sg164
Nsg64
(dp1680
g166
(lp1681
(dp1682
g39
(lp1683
I32
aI37
asg157
VPTBI
p1684
sa(dp1685
g39
(lp1686
I105
aI109
asg157
VMNP
p1687
sa(dp1688
g39
(lp1689
I110
aI114
asg157
VTSI
p1690
sa(dp1691
g39
(lp1692
I115
aI119
asg157
VMGF
p1693
sa(dp1694
g39
(lp1695
I120
aI125
asg157
VYUME
p1696
sa(dp1697
g39
(lp1698
I126
aI131
asg157
VAGRX
p1699
sa(dp1700
g39
(lp1701
I132
aI136
asg157
VNRT
p1702
sa(dp1703
g39
(lp1704
I137
aI141
asg157
VPNI
p1705
sasg177
(lp1706
sg179
(lp1707
sg35
(lp1708
(dp1709
g33
Vhttps://t.co/uAcamNRUPt
p1710
sg39
(lp1711
I0
aI23
asg41
Vhttp://BiloSelhi.com
p1712
sg43
VBiloSelhi.com
p1713
sasg300
(lp1714
(dp1715
g303
L2802272246L
sg304
V595888238205755392
p1716
sg41
Vhttp://twitter.com/StocksThatDoubl/status/595888238205755392/photo/1
p1717
sg43
Vpic.twitter.com/tkIn2GV1aE
p1718
sg33
Vhttps://t.co/tkIn2GV1aE
p1719
sg309
Vhttps://pbs.twimg.com/media/CEUFMRrWYAAlu16.png
p1720
sg311
V2802272246
p1721
sg313
L595888238205755392L
sg68
V595888234158252032
p1722
sg315
(dp1723
g317
(dp1724
g319
I555
sg320
Vfit
p1725
sg322
I1024
ssg323
(dp1726
g319
I184
sg320
Vfit
p1727
sg322
I340
ssg326
(dp1728
g319
I325
sg320
Vfit
p1729
sg322
I600
ssg329
(dp1730
g319
I150
sg320
Vcrop
p1731
sg322
I150
sssg39
(lp1732
I81
aI104
asg333
Vphoto
p1733
sg56
L595888234158252032L
sg335
Vhttp://pbs.twimg.com/media/CEUFMRrWYAAlu16.png
p1734
sassg187
Nsg188
Nsg189
I0
sg68
V663958889583525888
p1735
sg191
I00
sg192
g1653
sg193
Nsg194
Nsg195
I00
sg92
g1674
sg100
VTue Nov 10 05:58:29 +0000 2015
p1736
sg197
Nsg198
Nsg199
(dp1737
g201
Ven
p1738
sg203
Vrecent
p1739
sssg205
g1737
sg206
Nsg207
Nsg31
g1680
sg208
Nsg209
Nsg112
g1735
sg210
I00
sg211
Nsg212
I0
sg213
Nsbag0
(g4
g5
Ntp1740
Rp1741
(dp1742
g9
I00
sg10
Nsg11
I00
sg12
VAGRX 8.32 Agile Therapeutics Inc Stock Charts $AGRX Last Updated: 11/09/15 Last price: 8.32 Total volume: 32,5 https://t.co/nkI0NOUve7
p1743
sg14
Vhttp://investorshangout.com/
p1744
sg16
I00
sg17
I00
sg18
Nsg19
g0
(g20
g5
Ntp1745
Rp1746
(dp1747
g24
I00
sg25
I00
sg26
I01
sg27
VDDEEF6
p1748
sg29
L2243075472L
sg30
I00
sg31
(dp1749
g45
(dp1750
g35
(lp1751
sssg48
Vhttps://pbs.twimg.com/profile_images/378800000864394998/jZdHIX6v_normal.png
p1752
sg50
(dp1753
g52
I00
sg53
I00
sg54
I01
sg55
I00
sg56
L2243075472L
sg57
Vhttps://abs.twimg.com/images/themes/theme1/bg.png
p1754
sg59
I00
sg60
V333333
p1755
sg62
g1752
sg63
g1748
sg64
g1749
sg65
I1326
sg66
VC0DEED
p1756
sg68
V2243075472
p1757
sg70
VC0DEED
p1758
sg72
I67
sg73
I00
sg74
Nsg75
I428477
sg45
VStock Charts
p1759
sg77
I672
sg78
g362
sg80
V0084B4
p1760
sg82
Vhttp://pbs.twimg.com/profile_images/378800000864394998/jZdHIX6v_normal.png
p1761
sg84
I00
sg85
I00
sg88
Vhttp://abs.twimg.com/images/themes/theme1/bg.png
p1762
sg90
Vchartguy89
p1763
sg92
Ven
p1764
sg94
I00
sg95
I0
sg96
Vchartguy89
p1765
sg98
I00
sg33
Nsg100
VThu Dec 12 23:46:22 +0000 2013
p1766
sg102
I00
sg103
Nsg105
I00
sg106
I01
sg107
I00
ssg108
I00
sg109
g1755
sg110
I1326
sg111
g1756
sg112
g1757
sg113
I00
sg114
I67
sg115
I00
sg116
Nsg117
I428477
sg118
g1759
sg119
I672
sg120
g362
sg121
g1760
sg122
g1761
sg123
I00
sg124
I00
sg125
g1758
sg127
g1762
sg128
g1763
sg129
g1764
sg130
I00
sg131
I00
sg132
I0
sg133
g1765
sg134
Nsg135
g136
(S'\x07\xdd\x0c\x0c\x17.\x16\x00\x00\x00'
p1767
tp1768
Rp1769
sg140
g1754
sg141
Nsg142
I00
sg143
I01
sg144
I00
sbsg145
Nsg29
L663927526817964032L
sg146
I0
sg147
VInvestors Hangout
p1770
sg129
Ven
p1771
sg150
g1746
sg135
g136
(S'\x07\xdf\x0b\n\x0354\x00\x00\x00'
p1772
tp1773
Rp1774
sg50
(dp1775
g155
Nsg156
I00
sg157
g1743
sg158
I00
sg159
Nsg56
L663927526817964032L
sg160
I0
sg161
V<a href="http://investorshangout.com/" rel="nofollow">Investors Hangout</a>
p1776
sg163
I00
sg164
Nsg64
(dp1777
g166
(lp1778
(dp1779
g39
(lp1780
I46
aI51
asg157
VAGRX
p1781
sasg177
(lp1782
sg179
(lp1783
sg35
(lp1784
(dp1785
g33
Vhttps://t.co/nkI0NOUve7
p1786
sg39
(lp1787
I111
aI134
asg41
Vhttp://investorshangout.com/post/view?id=3326690
p1788
sg43
Vinvestorshangout.com/post/view?id=3\u2026
p1789
sassg187
Nsg188
Nsg189
I0
sg68
V663927526817964032
p1790
sg191
I00
sg192
g1753
sg193
Nsg194
Nsg195
I00
sg92
g1771
sg100
VTue Nov 10 03:53:52 +0000 2015
p1791
sg197
Nsg198
Nsg199
(dp1792
g201
Ven
p1793
sg203
Vrecent
p1794
sssg205
g1792
sg206
Nsg207
Nsg31
g1777
sg208
Nsg209
Nsg112
g1790
sg210
I00
sg211
Nsg212
I0
sg213
Nsbag0
(g4
g5
Ntp1795
Rp1796
(dp1797
g9
I00
sg10
Nsg11
I00
sg12
VAGRX Year to date has changed +35.50% percent. +3.23% in the last 30 days. $AGRX Agile Therapeutics Inc Full b https://t.co/bPWodx5VqI
p1798
sg14
Vhttp://investorshangout.com/
p1799
sg16
I00
sg17
I00
sg18
Nsg19
g0
(g20
g5
Ntp1800
Rp1801
(dp1802
g24
I00
sg25
I00
sg26
I01
sg27
VC0DFEC
p1803
sg29
L2181314366L
sg30
I00
sg31
(dp1804
g45
(dp1805
g35
(lp1806
sssg48
Vhttps://pbs.twimg.com/profile_images/378800000709585641/f40eea5971a3bc6d1eaaebd2b3dd4ebb_normal.jpeg
p1807
sg50
(dp1808
g52
I00
sg53
I00
sg54
I01
sg55
I00
sg56
L2181314366L
sg57
Vhttps://abs.twimg.com/images/themes/theme15/bg.png
p1809
sg59
I00
sg60
V333333
p1810
sg62
g1807
sg63
g1803
sg64
g1804
sg65
I778
sg66
VA8C7F7
p1811
sg68
V2181314366
p1812
sg70
V022330
p1813
sg72
I174
sg73
I00
sg74
Nsg75
I191949
sg45
VLikes to follow many stocks
p1814
sg77
I444
sg78
g362
sg80
V0084B4
p1815
sg82
Vhttp://pbs.twimg.com/profile_images/378800000709585641/f40eea5971a3bc6d1eaaebd2b3dd4ebb_normal.jpeg
p1816
sg84
I00
sg85
I00
sg88
Vhttp://abs.twimg.com/images/themes/theme15/bg.png
p1817
sg90
VJake132013
p1818
sg92
Ven
p1819
sg94
I00
sg95
I0
sg96
VJake13
p1820
sg98
I00
sg33
Nsg100
VFri Nov 08 02:42:49 +0000 2013
p1821
sg102
I00
sg103
Nsg105
I00
sg106
I00
sg107
I00
ssg108
I00
sg109
g1810
sg110
I778
sg111
g1811
sg112
g1812
sg113
I00
sg114
I174
sg115
I00
sg116
Nsg117
I191949
sg118
g1814
sg119
I444
sg120
g362
sg121
g1815
sg122
g1816
sg123
I00
sg124
I00
sg125
g1813
sg127
g1817
sg128
g1818
sg129
g1819
sg130
I00
sg131
I00
sg132
I0
sg133
g1820
sg134
Nsg135
g136
(S'\x07\xdd\x0b\x08\x02*1\x00\x00\x00'
p1822
tp1823
Rp1824
sg140
g1809
sg141
Nsg142
I00
sg143
I00
sg144
I00
sbsg145
Nsg29
L663924582991142913L
sg146
I0
sg147
VInvestors Hangout
p1825
sg129
Ven
p1826
sg150
g1801
sg135
g136
(S'\x07\xdf\x0b\n\x03*\n\x00\x00\x00'
p1827
tp1828
Rp1829
sg50
(dp1830
g155
Nsg156
I00
sg157
g1798
sg158
I00
sg159
Nsg56
L663924582991142913L
sg160
I0
sg161
V<a href="http://investorshangout.com/" rel="nofollow">Investors Hangout</a>
p1831
sg163
I00
sg164
Nsg64
(dp1832
g166
(lp1833
(dp1834
g39
(lp1835
I75
aI80
asg157
VAGRX
p1836
sasg177
(lp1837
sg179
(lp1838
sg35
(lp1839
(dp1840
g33
Vhttps://t.co/bPWodx5VqI
p1841
sg39
(lp1842
I111
aI134
asg41
Vhttp://investorshangout.com/post/view?id=3326648
p1843
sg43
Vinvestorshangout.com/post/view?id=3\u2026
p1844
sassg187
Nsg188
Nsg189
I0
sg68
V663924582991142913
p1845
sg191
I00
sg192
g1808
sg193
Nsg194
Nsg195
I00
sg92
g1826
sg100
VTue Nov 10 03:42:10 +0000 2015
p1846
sg197
Nsg198
Nsg199
(dp1847
g201
Ven
p1848
sg203
Vrecent
p1849
sssg205
g1847
sg206
Nsg207
Nsg31
g1832
sg208
Nsg209
Nsg112
g1845
sg210
I00
sg211
Nsg212
I0
sg213
Nsbag0
(g4
g5
Ntp1850
Rp1851
(dp1852
g9
I00
sg10
Nsg11
I00
sg12
V$agrx def a great long term stable company to have in Portillo
p1853
sg14
Vhttp://twitter.com/download/iphone
p1854
sg17
I00
sg18
Nsg19
g0
(g20
g5
Ntp1855
Rp1856
(dp1857
g24
I00
sg25
I00
sg26
I00
sg27
V000000
p1858
sg29
I546172896
sg30
I00
sg31
(dp1859
g33
(dp1860
g35
(lp1861
(dp1862
g33
Vhttps://t.co/4C5p8iLho0
p1863
sg39
(lp1864
I0
aI23
asg41
Vhttp://www.facebook.com/edel.gonzalez
p1865
sg43
Vfacebook.com/edel.gonzalez
p1866
sassg45
(dp1867
g35
(lp1868
sssg48
Vhttps://pbs.twimg.com/profile_images/663547550687858688/-m-8pDae_normal.jpg
p1869
sg50
(dp1870
g52
I00
sg53
I00
sg54
I00
sg55
I00
sg56
I546172896
sg57
Vhttps://abs.twimg.com/images/themes/theme1/bg.png
p1871
sg59
I00
sg60
V000000
p1872
sg62
g1869
sg63
g1858
sg64
g1859
sg65
I140
sg66
V000000
p1873
sg68
V546172896
p1874
sg70
V000000
p1875
sg72
I9
sg73
I00
sg74
Nsg75
I1449
sg45
VCollege Student Marketing,Business sustainability from Sinaloa living in USA. Stock Trader, living in ARIZONA. All my tweets are just opinions not advices to
p1876
sg77
I415
sg78
g362
sg80
V9266CC
p1877
sg82
Vhttp://pbs.twimg.com/profile_images/663547550687858688/-m-8pDae_normal.jpg
p1878
sg84
I00
sg85
I01
sg86
Vhttps://pbs.twimg.com/profile_banners/546172896/1427840834
p1879
sg88
Vhttp://abs.twimg.com/images/themes/theme1/bg.png
p1880
sg90
Vedgonzo85
p1881
sg92
Ven
p1882
sg94
I00
sg95
I1042
sg96
VEdel Gonzalez
p1883
sg98
I00
sg33
Vhttps://t.co/4C5p8iLho0
p1884
sg100
VThu Apr 05 16:12:33 +0000 2012
p1885
sg102
I00
sg103
Nsg105
I00
sg106
I00
sg107
I00
ssg108
I00
sg109
g1872
sg110
I140
sg111
g1873
sg112
g1874
sg113
I00
sg114
I9
sg115
I00
sg116
Nsg117
I1449
sg118
g1876
sg119
I415
sg120
g362
sg121
g1877
sg122
g1878
sg123
I00
sg124
I01
sg125
g1875
sg126
g1879
sg127
g1880
sg128
g1881
sg129
g1882
sg130
I00
sg131
I00
sg132
I1042
sg133
g1883
sg134
g1884
sg135
g136
(S'\x07\xdc\x04\x05\x10\x0c!\x00\x00\x00'
p1886
tp1887
Rp1888
sg140
g1871
sg141
Nsg142
I00
sg143
I00
sg144
I00
sbsg145
Nsg29
L663841312647475201L
sg146
I0
sg147
VTwitter for iPhone
p1889
sg129
Ven
p1890
sg150
g1856
sg135
g136
(S'\x07\xdf\x0b\t\x16\x0b\x11\x00\x00\x00'
p1891
tp1892
Rp1893
sg50
(dp1894
g155
Nsg156
I00
sg157
g1853
sg158
I00
sg159
Nsg56
L663841312647475201L
sg160
I0
sg161
V<a href="http://twitter.com/download/iphone" rel="nofollow">Twitter for iPhone</a>
p1895
sg163
I00
sg164
Nsg64
(dp1896
g166
(lp1897
(dp1898
g39
(lp1899
I0
aI5
asg157
Vagrx
p1900
sasg177
(lp1901
sg179
(lp1902
sg35
(lp1903
ssg187
Nsg188
Nsg189
I0
sg68
V663841312647475201
p1904
sg191
I00
sg192
g1870
sg193
Nsg194
Nsg92
g1890
sg100
VMon Nov 09 22:11:17 +0000 2015
p1905
sg197
Nsg198
Nsg199
(dp1906
g201
Ven
p1907
sg203
Vrecent
p1908
sssg205
g1906
sg206
Nsg207
Nsg31
g1896
sg208
Nsg209
Nsg112
g1904
sg210
I00
sg211
Nsg212
I0
sg213
Nsbag0
(g4
g5
Ntp1909
Rp1910
(dp1911
g9
I00
sg10
Nsg11
I00
sg12
V$AGRX - Quarterly Report (10-q) https://t.co/KZe5P2GpBB
p1912
sg14
Vhttp://www.advfn.com
p1913
sg16
I00
sg17
I00
sg18
Nsg19
g0
(g20
g5
Ntp1914
Rp1915
(dp1916
g24
I00
sg25
I00
sg26
I01
sg27
VDDEEF6
p1917
sg29
L2440753004L
sg30
I00
sg31
(dp1918
g33
(dp1919
g35
(lp1920
(dp1921
g33
Vhttp://t.co/nRbMebx4ML
p1922
sg39
(lp1923
I0
aI22
asg41
Vhttp://bit.ly/JBPemail
p1924
sg43
Vbit.ly/JBPemail
p1925
sassg45
(dp1926
g35
(lp1927
(dp1928
g33
Vhttp://t.co/UNGiXERmyZ
p1929
sg39
(lp1930
I41
aI63
asg41
Vhttp://bit.ly/Learn2trade
p1931
sg43
Vbit.ly/Learn2trade
p1932
sasssg48
Vhttps://pbs.twimg.com/profile_images/455136055658676224/7alNBYDW_normal.jpeg
p1933
sg50
(dp1934
g52
I00
sg53
I00
sg54
I01
sg55
I00
sg56
L2440753004L
sg57
Vhttps://pbs.twimg.com/profile_background_images/455143539182022657/otI-w2iO.jpeg
p1935
sg59
I00
sg60
V333333
p1936
sg62
g1933
sg63
g1917
sg64
g1918
sg65
I5174
sg66
VFFFFFF
p1937
sg68
V2440753004
p1938
sg70
VC0DEED
p1939
sg72
I67
sg73
I00
sg74
I-18000
sg75
I64419
sg45
VStreaming news on stocks. Learn here \u21a1 \u21fe http://t.co/UNGiXERmyZ
p1940
sg77
I4305
sg78
g362
sg80
V000000
p1941
sg82
Vhttp://pbs.twimg.com/profile_images/455136055658676224/7alNBYDW_normal.jpeg
p1942
sg84
I00
sg85
I00
sg86
Vhttps://pbs.twimg.com/profile_banners/2440753004/1397349382
p1943
sg88
Vhttp://pbs.twimg.com/profile_background_images/455143539182022657/otI-w2iO.jpeg
p1944
sg90
VStockNews_
p1945
sg92
Ven
p1946
sg94
I01
sg95
I0
sg96
VStockNews
p1947
sg98
I00
sg33
Vhttp://t.co/nRbMebx4ML
p1948
sg100
VSun Apr 13 00:07:03 +0000 2014
p1949
sg102
I00
sg103
VEastern Time (US & Canada)
p1950
sg105
I00
sg106
I00
sg107
I00
ssg108
I00
sg109
g1936
sg110
I5174
sg111
g1937
sg112
g1938
sg113
I00
sg114
I67
sg115
I00
sg116
I-18000
sg117
I64419
sg118
g1940
sg119
I4305
sg120
g362
sg121
g1941
sg122
g1942
sg123
I00
sg124
I00
sg125
g1939
sg126
g1943
sg127
g1944
sg128
g1945
sg129
g1946
sg130
I00
sg131
I01
sg132
I0
sg133
g1947
sg134
g1948
sg135
g136
(S'\x07\xde\x04\r\x00\x07\x03\x00\x00\x00'
p1951
tp1952
Rp1953
sg140
g1935
sg141
g1950
sg142
I00
sg143
I00
sg144
I00
sbsg145
Nsg29
L663841013048455168L
sg146
I0
sg147
VADVFN News Alert
p1954
sg129
Ves
p1955
sg150
g1915
sg135
g136
(S'\x07\xdf\x0b\t\x16\n\x05\x00\x00\x00'
p1956
tp1957
Rp1958
sg50
(dp1959
g155
Nsg156
I00
sg157
g1912
sg158
I00
sg159
Nsg56
L663841013048455168L
sg160
I0
sg161
V<a href="http://www.advfn.com" rel="nofollow">ADVFN News Alert</a>
p1960
sg163
I00
sg164
Nsg64
(dp1961
g166
(lp1962
(dp1963
g39
(lp1964
I0
aI5
asg157
VAGRX
p1965
sasg177
(lp1966
sg179
(lp1967
sg35
(lp1968
(dp1969
g33
Vhttps://t.co/KZe5P2GpBB
p1970
sg39
(lp1971
I32
aI55
asg41
Vhttp://ih.advfn.com/p.php?pid=nmona&article=69234673&xref=newsalerttweet&adw=1126416
p1972
sg43
Vih.advfn.com/p.php?pid=nmon\u2026
p1973
sassg187
Nsg188
Nsg189
I0
sg68
V663841013048455168
p1974
sg191
I00
sg192
g1934
sg193
Nsg194
Nsg195
I00
sg92
g1955
sg100
VMon Nov 09 22:10:05 +0000 2015
p1975
sg197
Nsg198
Nsg199
(dp1976
g201
Ves
p1977
sg203
Vrecent
p1978
sssg205
g1976
sg206
Nsg207
Nsg31
g1961
sg208
Nsg209
Nsg112
g1974
sg210
I00
sg211
Nsg212
I0
sg213
Nsbag0
(g4
g5
Ntp1979
Rp1980
(dp1981
g9
I00
sg10
Nsg11
I00
sg12
V$AGRX - Current Report Filing (8-k) https://t.co/8gV9kncOUw
p1982
sg14
Vhttp://www.advfn.com
p1983
sg16
I00
sg17
I00
sg18
Nsg19
g0
(g20
g5
Ntp1984
Rp1985
(dp1986
g24
I00
sg25
I00
sg26
I01
sg27
VDDEEF6
p1987
sg29
L2440753004L
sg30
I00
sg31
(dp1988
g33
(dp1989
g35
(lp1990
(dp1991
g33
Vhttp://t.co/nRbMebx4ML
p1992
sg39
(lp1993
I0
aI22
asg41
Vhttp://bit.ly/JBPemail
p1994
sg43
Vbit.ly/JBPemail
p1995
sassg45
(dp1996
g35
(lp1997
(dp1998
g33
Vhttp://t.co/UNGiXERmyZ
p1999
sg39
(lp2000
I41
aI63
asg41
Vhttp://bit.ly/Learn2trade
p2001
sg43
Vbit.ly/Learn2trade
p2002
sasssg48
Vhttps://pbs.twimg.com/profile_images/455136055658676224/7alNBYDW_normal.jpeg
p2003
sg50
(dp2004
g52
I00
sg53
I00
sg54
I01
sg55
I00
sg56
L2440753004L
sg57
Vhttps://pbs.twimg.com/profile_background_images/455143539182022657/otI-w2iO.jpeg
p2005
sg59
I00
sg60
V333333
p2006
sg62
g2003
sg63
g1987
sg64
g1988
sg65
I5174
sg66
VFFFFFF
p2007
sg68
V2440753004
p2008
sg70
VC0DEED
p2009
sg72
I67
sg73
I00
sg74
I-18000
sg75
I64419
sg45
VStreaming news on stocks. Learn here \u21a1 \u21fe http://t.co/UNGiXERmyZ
p2010
sg77
I4305
sg78
g362
sg80
V000000
p2011
sg82
Vhttp://pbs.twimg.com/profile_images/455136055658676224/7alNBYDW_normal.jpeg
p2012
sg84
I00
sg85
I00
sg86
Vhttps://pbs.twimg.com/profile_banners/2440753004/1397349382
p2013
sg88
Vhttp://pbs.twimg.com/profile_background_images/455143539182022657/otI-w2iO.jpeg
p2014
sg90
VStockNews_
p2015
sg92
Ven
p2016
sg94
I01
sg95
I0
sg96
VStockNews
p2017
sg98
I00
sg33
Vhttp://t.co/nRbMebx4ML
p2018
sg100
VSun Apr 13 00:07:03 +0000 2014
p2019
sg102
I00
sg103
VEastern Time (US & Canada)
p2020
sg105
I00
sg106
I00
sg107
I00
ssg108
I00
sg109
g2006
sg110
I5174
sg111
g2007
sg112
g2008
sg113
I00
sg114
I67
sg115
I00
sg116
I-18000
sg117
I64419
sg118
g2010
sg119
I4305
sg120
g362
sg121
g2011
sg122
g2012
sg123
I00
sg124
I00
sg125
g2009
sg126
g2013
sg127
g2014
sg128
g2015
sg129
g2016
sg130
I00
sg131
I01
sg132
I0
sg133
g2017
sg134
g2018
sg135
g136
(S'\x07\xde\x04\r\x00\x07\x03\x00\x00\x00'
p2021
tp2022
Rp2023
sg140
g2005
sg141
g2020
sg142
I00
sg143
I00
sg144
I00
sbsg145
Nsg29
L663831455777349632L
sg146
I0
sg147
VADVFN News Alert
p2024
sg129
Ves
p2025
sg150
g1985
sg135
g136
(S'\x07\xdf\x0b\t\x15 \x07\x00\x00\x00'
p2026
tp2027
Rp2028
sg50
(dp2029
g155
Nsg156
I00
sg157
g1982
sg158
I00
sg159
Nsg56
L663831455777349632L
sg160
I0
sg161
V<a href="http://www.advfn.com" rel="nofollow">ADVFN News Alert</a>
p2030
sg163
I00
sg164
Nsg64
(dp2031
g166
(lp2032
(dp2033
g39
(lp2034
I0
aI5
asg157
VAGRX
p2035
sasg177
(lp2036
sg179
(lp2037
sg35
(lp2038
(dp2039
g33
Vhttps://t.co/8gV9kncOUw
p2040
sg39
(lp2041
I36
aI59
asg41
Vhttp://ih.advfn.com/p.php?pid=nmona&article=69234133&xref=newsalerttweet&adw=1126416
p2042
sg43
Vih.advfn.com/p.php?pid=nmon\u2026
p2043
sassg187
Nsg188
Nsg189
I0
sg68
V663831455777349632
p2044
sg191
I00
sg192
g2004
sg193
Nsg194
Nsg195
I00
sg92
g2025
sg100
VMon Nov 09 21:32:07 +0000 2015
p2045
sg197
Nsg198
Nsg199
(dp2046
g201
Ves
p2047
sg203
Vrecent
p2048
sssg205
g2046
sg206
Nsg207
Nsg31
g2031
sg208
Nsg209
Nsg112
g2044
sg210
I00
sg211
Nsg212
I0
sg213
Nsbag0
(g4
g5
Ntp2049
Rp2050
(dp2051
g9
I00
sg10
Nsg11
I00
sg12
V$AGRX:\u000a\u000aNew SEC Filing for AGRX: Form 8-K (No. 0001104659-15-077253):\u000a\u000ahttps://t.co/QCnlTjKIgr
p2052
sg14
Vhttp://www.stocknewswires.com
p2053
sg16
I00
sg17
I00
sg18
Nsg19
g0
(g20
g5
Ntp2054
Rp2055
(dp2056
g24
I00
sg25
I00
sg26
I01
sg27
VE3E2DE
p2057
sg29
L2344619544L
sg30
I00
sg31
(dp2058
g45
(dp2059
g35
(lp2060
sssg48
Vhttps://pbs.twimg.com/profile_images/562292381764952064/mVtp0UmJ_normal.jpeg
p2061
sg50
(dp2062
g52
I00
sg53
I00
sg54
I01
sg55
I00
sg56
L2344619544L
sg57
Vhttps://abs.twimg.com/images/themes/theme3/bg.gif
p2063
sg59
I00
sg60
V634047
p2064
sg62
g2061
sg63
g2057
sg64
g2058
sg65
I516
sg66
VD3D2CF
p2065
sg68
V2344619544
p2066
sg70
VEDECE9
p2067
sg72
I85
sg73
I01
sg74
I-18000
sg75
I182020
sg45
VNews about Stocks
p2068
sg77
I0
sg78
VU.S.
p2069
sg80
V088253
p2070
sg82
Vhttp://pbs.twimg.com/profile_images/562292381764952064/mVtp0UmJ_normal.jpeg
p2071
sg84
I00
sg85
I00
sg88
Vhttp://abs.twimg.com/images/themes/theme3/bg.gif
p2072
sg90
VNewsToDesk
p2073
sg92
Ven
p2074
sg94
I00
sg95
I0
sg96
VBreakingStocksNews
p2075
sg98
I00
sg33
Nsg100
VSat Feb 15 05:49:10 +0000 2014
p2076
sg102
I00
sg103
VEastern Time (US & Canada)
p2077
sg105
I00
sg106
I00
sg107
I00
ssg108
I00
sg109
g2064
sg110
I516
sg111
g2065
sg112
g2066
sg113
I00
sg114
I85
sg115
I01
sg116
I-18000
sg117
I182020
sg118
g2068
sg119
I0
sg120
g2069
sg121
g2070
sg122
g2071
sg123
I00
sg124
I00
sg125
g2067
sg127
g2072
sg128
g2073
sg129
g2074
sg130
I00
sg131
I00
sg132
I0
sg133
g2075
sg134
Nsg135
g136
(S'\x07\xde\x02\x0f\x051\n\x00\x00\x00'
p2078
tp2079
Rp2080
sg140
g2063
sg141
g2077
sg142
I00
sg143
I00
sg144
I00
sbsg145
Nsg29
L663830711875575808L
sg146
I0
sg147
VStockNewsWires
p2081
sg129
Ves
p2082
sg150
g2055
sg135
g136
(S'\x07\xdf\x0b\t\x15\x1d\t\x00\x00\x00'
p2083
tp2084
Rp2085
sg50
(dp2086
g155
Nsg156
I00
sg157
V$AGRX:\u000a\u000aNew SEC Filing for AGRX: Form 8-K (No. 0001104659-15-077253):\u000a\u000ahttps://t.co/QCnlTjKIgr
p2087
sg158
I00
sg159
Nsg56
L663830711875575808L
sg160
I0
sg161
V<a href="http://www.stocknewswires.com" rel="nofollow">StockNewsWires</a>
p2088
sg163
I00
sg164
Nsg64
(dp2089
g166
(lp2090
(dp2091
g39
(lp2092
I0
aI5
asg157
VAGRX
p2093
sasg177
(lp2094
sg179
(lp2095
sg35
(lp2096
(dp2097
g33
Vhttps://t.co/QCnlTjKIgr
p2098
sg39
(lp2099
I71
aI94
asg41
Vhttp://StockNewsHour.com/agrx-new-sec-filing-for-agrx-form-8-k-no-0001104659-15-077253/
p2100
sg43
VStockNewsHour.com/agrx-new-sec-f\u2026
p2101
sassg187
Nsg188
Nsg189
I0
sg68
V663830711875575808
p2102
sg191
I00
sg192
g2062
sg193
Nsg194
Nsg195
I00
sg92
g2082
sg100
VMon Nov 09 21:29:09 +0000 2015
p2103
sg197
Nsg198
Nsg199
(dp2104
g201
Ves
p2105
sg203
Vrecent
p2106
sssg205
g2104
sg206
Nsg207
Nsg31
g2089
sg208
Nsg209
Nsg112
g2102
sg210
I00
sg211
Nsg212
I0
sg213
Nsbag0
(g4
g5
Ntp2107
Rp2108
(dp2109
g9
I00
sg10
Nsg11
I00
sg12
VNEW SEC Filing for $AGRX filed a moment ago: https://t.co/V3X5EMVozN https://t.co/g7PTtCn3sr
p2110
sg14
Vhttp://fnsappbg.blogspot.com/
p2111
sg16
I00
sg17
I00
sg18
Nsg19
g0
(g20
g5
Ntp2112
Rp2113
(dp2114
g24
I00
sg25
I00
sg26
I01
sg27
VC0DFEC
p2115
sg29
L2344521145L
sg30
I00
sg31
(dp2116
g45
(dp2117
g35
(lp2118
sssg48
Vhttps://pbs.twimg.com/profile_images/606187530539524097/bwFihm92_normal.jpg
p2119
sg50
(dp2120
g52
I00
sg53
I00
sg54
I01
sg55
I00
sg56
L2344521145L
sg57
Vhttps://abs.twimg.com/images/themes/theme15/bg.png
p2121
sg59
I00
sg60
V333333
p2122
sg62
g2119
sg63
g2115
sg64
g2116
sg65
I53
sg66
VA8C7F7
p2123
sg68
V2344521145
p2124
sg70
V022330
p2125
sg72
I8
sg73
I00
sg74
I-14400
sg75
I16642
sg45
VPractical  Food fanatic  # interested in, Web geek  #  Proud internet geek  #
p2126
sg77
I6
sg78
VLiverpool
p2127
sg80
V0084B4
p2128
sg82
Vhttp://pbs.twimg.com/profile_images/606187530539524097/bwFihm92_normal.jpg
p2129
sg84
I00
sg85
I00
sg88
Vhttp://abs.twimg.com/images/themes/theme15/bg.png
p2130
sg90
Vflyingtrades
p2131
sg92
Ven
p2132
sg94
I00
sg95
I0
sg96
VSEC Filings
p2133
sg98
I00
sg33
Nsg100
VSat Feb 15 04:01:37 +0000 2014
p2134
sg102
I00
sg103
VAtlantic Time (Canada)
p2135
sg105
I00
sg106
I00
sg107
I00
ssg108
I00
sg109
g2122
sg110
I53
sg111
g2123
sg112
g2124
sg113
I00
sg114
I8
sg115
I00
sg116
I-14400
sg117
I16642
sg118
g2126
sg119
I6
sg120
g2127
sg121
g2128
sg122
g2129
sg123
I00
sg124
I00
sg125
g2125
sg127
g2130
sg128
g2131
sg129
g2132
sg130
I00
sg131
I00
sg132
I0
sg133
g2133
sg134
Nsg135
g136
(S'\x07\xde\x02\x0f\x04\x01%\x00\x00\x00'
p2136
tp2137
Rp2138
sg140
g2121
sg141
g2135
sg142
I00
sg143
I00
sg144
I00
sbsg145
Nsg29
L663830560905764864L
sg146
I0
sg147
VFNS_APP
p2139
sg129
Ven
p2140
sg150
g2113
sg135
g136
(S'\x07\xdf\x0b\t\x15\x1c!\x00\x00\x00'
p2141
tp2142
Rp2143
sg50
(dp2144
g155
Nsg156
I00
sg157
g2110
sg158
I00
sg159
Nsg56
L663830560905764864L
sg160
I0
sg161
V<a href="http://fnsappbg.blogspot.com/" rel="nofollow">FNS_APP</a>
p2145
sg163
I00
sg164
Nsg64
(dp2146
g166
(lp2147
(dp2148
g39
(lp2149
I19
aI24
asg157
VAGRX
p2150
sasg177
(lp2151
sg179
(lp2152
sg35
(lp2153
(dp2154
g33
Vhttps://t.co/V3X5EMVozN
p2155
sg39
(lp2156
I45
aI68
asg41
Vhttp://stocknewsflow.com/1261249_000110465915077253_0001104659-15-077253
p2157
sg43
Vstocknewsflow.com/1261249_000110\u2026
p2158
sasg300
(lp2159
(dp2160
g41
Vhttp://twitter.com/flyingtrades/status/663830560905764864/photo/1
p2161
sg43
Vpic.twitter.com/g7PTtCn3sr
p2162
sg33
Vhttps://t.co/g7PTtCn3sr
p2163
sg309
Vhttps://pbs.twimg.com/media/CTZmYMKWIAA2TNK.jpg
p2164
sg68
V663830560851238912
p2165
sg315
(dp2166
g317
(dp2167
g319
I4
sg320
Vfit
p2168
sg322
I4
ssg323
(dp2169
g319
I4
sg320
Vfit
p2170
sg322
I4
ssg326
(dp2171
g319
I4
sg320
Vfit
p2172
sg322
I4
ssg329
(dp2173
g319
I4
sg320
Vcrop
p2174
sg322
I4
sssg39
(lp2175
I69
aI92
asg333
Vphoto
p2176
sg56
L663830560851238912L
sg335
Vhttp://pbs.twimg.com/media/CTZmYMKWIAA2TNK.jpg
p2177
sassg187
Nsg188
Nsg189
I0
sg68
V663830560905764864
p2178
sg191
I00
sg192
g2120
sg193
Nsg194
Nsg195
I00
sg92
g2140
sg100
VMon Nov 09 21:28:33 +0000 2015
p2179
sg197
Nsg198
Nsg199
(dp2180
g201
Ven
p2181
sg203
Vrecent
p2182
sssg205
g2180
sg206
Nsg207
Nsg31
g2146
sg208
Nsg209
Nsg112
g2178
sg210
I00
sg211
Nsg212
I0
sg213
Nsbag0
(g4
g5
Ntp2183
Rp2184
(dp2185
g9
I00
sg10
Nsg11
I00
sg12
VRT @StockNewsNow: $AGRX Agile Therapeutics Reports Third Quarter Financial Results https://t.co/nRQK49ekoI
p2186
sg14
Vhttp://twitter.com/download/iphone
p2187
sg16
I00
sg17
I00
sg18
Nsg19
g0
(g20
g5
Ntp2188
Rp2189
(dp2190
g24
I00
sg25
I00
sg26
I01
sg27
VDDEEF6
p2191
sg29
I248467487
sg30
I00
sg31
(dp2192
g45
(dp2193
g35
(lp2194
sssg48
Vhttps://pbs.twimg.com/profile_images/458424151628214274/rPa4PCln_normal.jpeg
p2195
sg50
(dp2196
g52
I00
sg53
I00
sg54
I01
sg55
I00
sg56
I248467487
sg57
Vhttps://abs.twimg.com/images/themes/theme1/bg.png
p2197
sg59
I00
sg60
V333333
p2198
sg62
g2195
sg63
g2191
sg64
g2192
sg65
I2121
sg66
VC0DEED
p2199
sg68
V248467487
p2200
sg70
VC0DEED
p2201
sg72
I430
sg73
I00
sg74
I-21600
sg75
I206697
sg45
VIndependent, Mother, lover of all Gods creatures. Eat what u kill, its not a SIN!!0:)
p2202
sg77
I2541
sg78
VHouston, TX
p2203
sg80
V0084B4
p2204
sg82
Vhttp://pbs.twimg.com/profile_images/458424151628214274/rPa4PCln_normal.jpeg
p2205
sg84
I00
sg85
I01
sg86
Vhttps://pbs.twimg.com/profile_banners/248467487/1435255814
p2206
sg88
Vhttp://abs.twimg.com/images/themes/theme1/bg.png
p2207
sg90
Vldiazammo
p2208
sg92
Ven
p2209
sg94
I00
sg95
I378
sg96
VLisa Cantu
p2210
sg98
I00
sg33
Nsg100
VMon Feb 07 02:06:17 +0000 2011
p2211
sg102
I00
sg103
VCentral Time (US & Canada)
p2212
sg105
I00
sg106
I01
sg107
I00
ssg108
I00
sg109
g2198
sg110
I2121
sg111
g2199
sg112
g2200
sg113
I00
sg114
I430
sg115
I00
sg116
I-21600
sg117
I206697
sg118
g2202
sg119
I2541
sg120
g2203
sg121
g2204
sg122
g2205
sg123
I00
sg124
I01
sg125
g2201
sg126
g2206
sg127
g2207
sg128
g2208
sg129
g2209
sg130
I00
sg131
I00
sg132
I378
sg133
g2210
sg134
Nsg135
g136
(S'\x07\xdb\x02\x07\x02\x06\x11\x00\x00\x00'
p2213
tp2214
Rp2215
sg140
g2197
sg141
g2212
sg142
I00
sg143
I01
sg144
I00
sbsg145
Nsg29
L663829776805683200L
sg146
I0
sg147
VTwitter for iPhone
p2216
sg129
Ven
p2217
sS'retweeted_status'
p2218
g0
(g4
g5
Ntp2219
Rp2220
(dp2221
g9
I00
sg10
Nsg11
I00
sg12
V$AGRX Agile Therapeutics Reports Third Quarter Financial Results https://t.co/nRQK49ekoI
p2222
sg14
Vhttp://www.hootsuite.com
p2223
sg16
I00
sg17
I00
sg18
Nsg19
g0
(g20
g5
Ntp2224
Rp2225
(dp2226
g24
I00
sg25
I00
sg26
I01
sg27
VC0DFEC
p2227
sg29
I352785485
sg30
I00
sg31
(dp2228
g33
(dp2229
g35
(lp2230
(dp2231
g33
Vhttp://t.co/MALLlPW0Du
p2232
sg39
(lp2233
I0
aI22
asg41
Vhttp://stocknewsnow.com
p2234
sg43
Vstocknewsnow.com
p2235
sassg45
(dp2236
g35
(lp2237
(dp2238
g33
Vhttps://t.co/pGeMRvpkst
p2239
sg39
(lp2240
I17
aI40
asg41
Vhttp://www.StockNewsNow.com
p2241
sg43
VStockNewsNow.com
p2242
sasssg48
Vhttps://pbs.twimg.com/profile_images/491990402925211648/LsoxRNml_normal.jpeg
p2243
sg50
(dp2244
g52
I00
sg53
I00
sg54
I01
sg55
I00
sg56
I352785485
sg57
Vhttps://abs.twimg.com/images/themes/theme15/bg.png
p2245
sg59
I00
sg60
V333333
p2246
sg62
g2243
sg63
g2227
sg64
g2228
sg65
I1335
sg66
VA8C7F7
p2247
sg68
V352785485
p2248
sg70
V022330
p2249
sg72
I74
sg73
I00
sg74
I-28800
sg75
I13751
sg45
VTwitter Feed for https://t.co/pGeMRvpkst, The Official MicroCap News Source\u2122 #MicroCap #MicroCaps
p2250
sg77
I1374
sg78
VUS
p2251
sg80
V0084B4
p2252
sg82
Vhttp://pbs.twimg.com/profile_images/491990402925211648/LsoxRNml_normal.jpeg
p2253
sg84
I00
sg85
I00
sg86
Vhttps://pbs.twimg.com/profile_banners/352785485/1406581260
p2254
sg88
Vhttp://abs.twimg.com/images/themes/theme15/bg.png
p2255
sg90
VStockNewsNow
p2256
sg92
Ven
p2257
sg94
I00
sg95
I181
sg96
VStock News Now
p2258
sg98
I00
sg33
Vhttp://t.co/MALLlPW0Du
p2259
sg100
VThu Aug 11 02:45:12 +0000 2011
p2260
sg102
I00
sg103
VPacific Time (US & Canada)
p2261
sg105
I00
sg106
I00
sg107
I00
ssg108
I00
sg109
g2246
sg110
I1335
sg111
g2247
sg112
g2248
sg113
I00
sg114
I74
sg115
I00
sg116
I-28800
sg117
I13751
sg118
g2250
sg119
I1374
sg120
g2251
sg121
g2252
sg122
g2253
sg123
I00
sg124
I00
sg125
g2249
sg126
g2254
sg127
g2255
sg128
g2256
sg129
g2257
sg130
I00
sg131
I00
sg132
I181
sg133
g2258
sg134
g2259
sg135
g136
(S'\x07\xdb\x08\x0b\x02-\x0c\x00\x00\x00'
p2262
tp2263
Rp2264
sg140
g2245
sg141
g2261
sg142
I00
sg143
I00
sg144
I00
sbsg145
Nsg29
L663829416347348992L
sg146
I0
sg147
VHootsuite
p2265
sg129
Ven
p2266
sg150
g2225
sg135
g136
(S'\x07\xdf\x0b\t\x15\x18\x00\x00\x00\x00'
p2267
tp2268
Rp2269
sg50
(dp2270
g155
Nsg156
I00
sg157
g2222
sg158
I00
sg159
Nsg56
L663829416347348992L
sg160
I0
sg161
V<a href="http://www.hootsuite.com" rel="nofollow">Hootsuite</a>
p2271
sg163
I00
sg164
Nsg64
(dp2272
g166
(lp2273
(dp2274
g39
(lp2275
I0
aI5
asg157
VAGRX
p2276
sasg177
(lp2277
sg179
(lp2278
sg35
(lp2279
(dp2280
g33
Vhttps://t.co/nRQK49ekoI
p2281
sg39
(lp2282
I65
aI88
asg41
Vhttp://ow.ly/UrlUL
p2283
sg43
Vow.ly/UrlUL
p2284
sassg187
Nsg188
Nsg189
I1
sg68
V663829416347348992
p2285
sg191
I00
sg192
g2244
sg193
Nsg194
Nsg195
I00
sg92
g2266
sg100
VMon Nov 09 21:24:00 +0000 2015
p2286
sg197
Nsg198
Nsg199
(dp2287
g201
Ven
p2288
sg203
Vrecent
p2289
sssg205
g2287
sg206
Nsg207
Nsg31
g2272
sg208
Nsg209
Nsg112
g2285
sg210
I00
sg211
Nsg212
I1
sg213
Nsbsg150
g2189
sg135
g136
(S'\x07\xdf\x0b\t\x15\x19\x1a\x00\x00\x00'
p2290
tp2291
Rp2292
sg50
(dp2293
g155
Nsg156
I00
sg157
g2186
sg158
I00
sg159
Nsg56
L663829776805683200L
sg160
I0
sg161
V<a href="http://twitter.com/download/iphone" rel="nofollow">Twitter for iPhone</a>
p2294
sg163
I00
sg164
Nsg64
(dp2295
g166
(lp2296
(dp2297
g39
(lp2298
I18
aI23
asg157
VAGRX
p2299
sasg177
(lp2300
(dp2301
g56
I352785485
sg39
(lp2302
I3
aI16
asg68
V352785485
p2303
sg90
VStockNewsNow
p2304
sg96
VStock News Now
p2305
sasg179
(lp2306
sg35
(lp2307
(dp2308
g33
Vhttps://t.co/nRQK49ekoI
p2309
sg39
(lp2310
I83
aI106
asg41
Vhttp://ow.ly/UrlUL
p2311
sg43
Vow.ly/UrlUL
p2312
sassg187
Nsg188
Nsg189
I1
sg68
V663829776805683200
p2313
sg191
I00
sVretweeted_status
p2314
g2270
sg192
g2196
sg193
Nsg194
Nsg195
I00
sg92
g2217
sg100
VMon Nov 09 21:25:26 +0000 2015
p2315
sg197
Nsg198
Nsg199
(dp2316
g201
Ven
p2317
sg203
Vrecent
p2318
sssg205
g2316
sg206
Nsg207
Nsg31
g2295
sg208
Nsg209
Nsg112
g2313
sg210
I00
sg211
Nsg212
I1
sg213
Nsbag0
(g4
g5
Ntp2319
Rp2320
(dp2321
g9
I00
sg10
Nsg11
I00
sg12
V$AGRX Agile Therapeutics Reports Third Quarter Financial Results https://t.co/nRQK49ekoI
p2322
sg14
Vhttp://www.hootsuite.com
p2323
sg16
I00
sg17
I00
sg18
Nsg19
g0
(g20
g5
Ntp2324
Rp2325
(dp2326
g24
I00
sg25
I00
sg26
I01
sg27
VC0DFEC
p2327
sg29
I352785485
sg30
I00
sg31
(dp2328
g33
(dp2329
g35
(lp2330
(dp2331
g33
Vhttp://t.co/MALLlPW0Du
p2332
sg39
(lp2333
I0
aI22
asg41
Vhttp://stocknewsnow.com
p2334
sg43
Vstocknewsnow.com
p2335
sassg45
(dp2336
g35
(lp2337
(dp2338
g33
Vhttps://t.co/pGeMRvpkst
p2339
sg39
(lp2340
I17
aI40
asg41
Vhttp://www.StockNewsNow.com
p2341
sg43
VStockNewsNow.com
p2342
sasssg48
Vhttps://pbs.twimg.com/profile_images/491990402925211648/LsoxRNml_normal.jpeg
p2343
sg50
(dp2344
g52
I00
sg53
I00
sg54
I01
sg55
I00
sg56
I352785485
sg57
Vhttps://abs.twimg.com/images/themes/theme15/bg.png
p2345
sg59
I00
sg60
V333333
p2346
sg62
g2343
sg63
g2327
sg64
g2328
sg65
I1335
sg66
VA8C7F7
p2347
sg68
V352785485
p2348
sg70
V022330
p2349
sg72
I74
sg73
I00
sg74
I-28800
sg75
I13751
sg45
VTwitter Feed for https://t.co/pGeMRvpkst, The Official MicroCap News Source\u2122 #MicroCap #MicroCaps
p2350
sg77
I1374
sg78
VUS
p2351
sg80
V0084B4
p2352
sg82
Vhttp://pbs.twimg.com/profile_images/491990402925211648/LsoxRNml_normal.jpeg
p2353
sg84
I00
sg85
I00
sg86
Vhttps://pbs.twimg.com/profile_banners/352785485/1406581260
p2354
sg88
Vhttp://abs.twimg.com/images/themes/theme15/bg.png
p2355
sg90
VStockNewsNow
p2356
sg92
Ven
p2357
sg94
I00
sg95
I181
sg96
VStock News Now
p2358
sg98
I00
sg33
Vhttp://t.co/MALLlPW0Du
p2359
sg100
VThu Aug 11 02:45:12 +0000 2011
p2360
sg102
I00
sg103
VPacific Time (US & Canada)
p2361
sg105
I00
sg106
I00
sg107
I00
ssg108
I00
sg109
g2346
sg110
I1335
sg111
g2347
sg112
g2348
sg113
I00
sg114
I74
sg115
I00
sg116
I-28800
sg117
I13751
sg118
g2350
sg119
I1374
sg120
g2351
sg121
g2352
sg122
g2353
sg123
I00
sg124
I00
sg125
g2349
sg126
g2354
sg127
g2355
sg128
g2356
sg129
g2357
sg130
I00
sg131
I00
sg132
I181
sg133
g2358
sg134
g2359
sg135
g136
(S'\x07\xdb\x08\x0b\x02-\x0c\x00\x00\x00'
p2362
tp2363
Rp2364
sg140
g2345
sg141
g2361
sg142
I00
sg143
I00
sg144
I00
sbsg145
Nsg29
L663829416347348992L
sg146
I0
sg147
VHootsuite
p2365
sg129
Ven
p2366
sg150
g2325
sg135
g136
(S'\x07\xdf\x0b\t\x15\x18\x00\x00\x00\x00'
p2367
tp2368
Rp2369
sg50
(dp2370
g155
Nsg156
I00
sg157
g2322
sg158
I00
sg159
Nsg56
L663829416347348992L
sg160
I0
sg161
V<a href="http://www.hootsuite.com" rel="nofollow">Hootsuite</a>
p2371
sg163
I00
sg164
Nsg64
(dp2372
g166
(lp2373
(dp2374
g39
(lp2375
I0
aI5
asg157
VAGRX
p2376
sasg177
(lp2377
sg179
(lp2378
sg35
(lp2379
(dp2380
g33
Vhttps://t.co/nRQK49ekoI
p2381
sg39
(lp2382
I65
aI88
asg41
Vhttp://ow.ly/UrlUL
p2383
sg43
Vow.ly/UrlUL
p2384
sassg187
Nsg188
Nsg189
I1
sg68
V663829416347348992
p2385
sg191
I00
sg192
g2344
sg193
Nsg194
Nsg195
I00
sg92
g2366
sg100
VMon Nov 09 21:24:00 +0000 2015
p2386
sg197
Nsg198
Nsg199
(dp2387
g201
Ven
p2388
sg203
Vrecent
p2389
sssg205
g2387
sg206
Nsg207
Nsg31
g2372
sg208
Nsg209
Nsg112
g2385
sg210
I00
sg211
Nsg212
I1
sg213
Nsbag0
(g4
g5
Ntp2390
Rp2391
(dp2392
g9
I00
sg10
Nsg11
I00
sg12
V$AGRX: AGILE THERAPEUTICS INC filed a form 8-K. https://t.co/Jy762roEQu
p2393
sg14
Vhttp://www.jivedata.com/sec
p2394
sg16
I00
sg17
I00
sg18
Nsg19
g0
(g20
g5
Ntp2395
Rp2396
(dp2397
g24
I00
sg25
I00
sg26
I01
sg27
VDDEEF6
p2398
sg29
I898018302
sg30
I00
sg31
(dp2399
g33
(dp2400
g35
(lp2401
(dp2402
g33
Vhttp://t.co/pWCxN8KLo5
p2403
sg39
(lp2404
I0
aI22
asg41
Vhttp://www.jivedata.com
p2405
sg43
Vjivedata.com
p2406
sassg45
(dp2407
g35
(lp2408
sssg48
Vhttps://pbs.twimg.com/profile_images/416320093316841472/YhFYvqmi_normal.png
p2409
sg50
(dp2410
g52
I00
sg53
I00
sg54
I01
sg55
I00
sg56
I898018302
sg57
Vhttps://pbs.twimg.com/profile_background_images/378800000157544683/R6GKx2Ke.png
p2411
sg59
I00
sg60
V333333
p2412
sg62
g2409
sg63
g2398
sg64
g2399
sg65
I87
sg66
VFFFFFF
p2413
sg68
V898018302
p2414
sg70
VFFFFFF
p2415
sg72
I14
sg73
I00
sg74
I-18000
sg75
I56088
sg45
VFinancial. Data. Done. Right. This is a real-time feed of XBRL financial data from 10-K's and 10-Q's
p2416
sg77
I0
sg78
VNew York, NY
p2417
sg80
V0084B4
p2418
sg82
Vhttp://pbs.twimg.com/profile_images/416320093316841472/YhFYvqmi_normal.png
p2419
sg84
I00
sg85
I00
sg88
Vhttp://pbs.twimg.com/profile_background_images/378800000157544683/R6GKx2Ke.png
p2420
sg90
Vsec_filings
p2421
sg92
Ven
p2422
sg94
I00
sg95
I0
sg96
VSec Filings
p2423
sg98
I00
sg33
Vhttp://t.co/pWCxN8KLo5
p2424
sg100
VMon Oct 22 17:25:30 +0000 2012
p2425
sg102
I00
sg103
VEastern Time (US & Canada)
p2426
sg105
I00
sg106
I00
sg107
I00
ssg108
I00
sg109
g2412
sg110
I87
sg111
g2413
sg112
g2414
sg113
I00
sg114
I14
sg115
I00
sg116
I-18000
sg117
I56088
sg118
g2416
sg119
I0
sg120
g2417
sg121
g2418
sg122
g2419
sg123
I00
sg124
I00
sg125
g2415
sg127
g2420
sg128
g2421
sg129
g2422
sg130
I00
sg131
I00
sg132
I0
sg133
g2423
sg134
g2424
sg135
g136
(S'\x07\xdc\n\x16\x11\x19\x1e\x00\x00\x00'
p2427
tp2428
Rp2429
sg140
g2411
sg141
g2426
sg142
I00
sg143
I00
sg144
I00
sbsg145
Nsg29
L663829258603745280L
sg146
I0
sg147
VJive Data SEC Filings
p2430
sg129
Ven
p2431
sg150
g2396
sg135
g136
(S'\x07\xdf\x0b\t\x15\x17\x17\x00\x00\x00'
p2432
tp2433
Rp2434
sg50
(dp2435
g155
Nsg156
I00
sg157
g2393
sg158
I00
sg159
Nsg56
L663829258603745280L
sg160
I0
sg161
V<a href="http://www.jivedata.com/sec" rel="nofollow">Jive Data SEC Filings</a>
p2436
sg163
I00
sg164
Nsg64
(dp2437
g166
(lp2438
(dp2439
g39
(lp2440
I0
aI5
asg157
VAGRX
p2441
sasg177
(lp2442
sg179
(lp2443
sg35
(lp2444
(dp2445
g33
Vhttps://t.co/Jy762roEQu
p2446
sg39
(lp2447
I48
aI71
asg41
Vhttp://www.jivedata.com/filings/AGRX/
p2448
sg43
Vjivedata.com/filings/AGRX/
p2449
sassg187
Nsg188
Nsg189
I0
sg68
V663829258603745280
p2450
sg191
I00
sg192
g2410
sg193
Nsg194
Nsg195
I00
sg92
g2431
sg100
VMon Nov 09 21:23:23 +0000 2015
p2451
sg197
Nsg198
Nsg199
(dp2452
g201
Ven
p2453
sg203
Vrecent
p2454
sssg205
g2452
sg206
Nsg207
Nsg31
g2437
sg208
Nsg209
Nsg112
g2450
sg210
I00
sg211
Nsg212
I0
sg213
Nsbag0
(g4
g5
Ntp2455
Rp2456
(dp2457
g9
I00
sg10
Nsg11
I00
sg12
V$AGRX:\u000a\u000aAgile Therapeutics Reports Third Quarter Financial Results:\u000a\u000ahttps://t.co/8Jxqc8xo7p
p2458
sg14
Vhttp://www.stocknewswires.com
p2459
sg16
I00
sg17
I00
sg18
Nsg19
g0
(g20
g5
Ntp2460
Rp2461
(dp2462
g24
I00
sg25
I00
sg26
I01
sg27
VDAECF4
p2463
sg29
L2341445778L
sg30
I00
sg31
(dp2464
g45
(dp2465
g35
(lp2466
sssg48
Vhttps://pbs.twimg.com/profile_images/542238326397227008/UfZ0ulTf_normal.jpeg
p2467
sg50
(dp2468
g52
I00
sg53
I00
sg54
I01
sg55
I00
sg56
L2341445778L
sg57
Vhttps://abs.twimg.com/images/themes/theme2/bg.gif
p2469
sg59
I00
sg60
V663B12
p2470
sg62
g2467
sg63
g2463
sg64
g2464
sg65
I660
sg66
VC6E2EE
p2471
sg68
V2341445778
p2472
sg70
VC6E2EE
p2473
sg72
I107
sg73
I00
sg74
I-14400
sg75
I236873
sg45
VInvest like a fish
p2474
sg77
I9
sg78
VUnited States
p2475
sg80
V1F98C7
p2476
sg82
Vhttp://pbs.twimg.com/profile_images/542238326397227008/UfZ0ulTf_normal.jpeg
p2477
sg84
I00
sg85
I00
sg88
Vhttp://abs.twimg.com/images/themes/theme2/bg.gif
p2478
sg90
VStockNewsWires
p2479
sg92
Ven
p2480
sg94
I00
sg95
I0
sg96
VStockNewsWires
p2481
sg98
I00
sg33
Nsg100
VThu Feb 13 05:31:52 +0000 2014
p2482
sg102
I00
sg103
VAtlantic Time (Canada)
p2483
sg105
I00
sg106
I00
sg107
I00
ssg108
I00
sg109
g2470
sg110
I660
sg111
g2471
sg112
g2472
sg113
I00
sg114
I107
sg115
I00
sg116
I-14400
sg117
I236873
sg118
g2474
sg119
I9
sg120
g2475
sg121
g2476
sg122
g2477
sg123
I00
sg124
I00
sg125
g2473
sg127
g2478
sg128
g2479
sg129
g2480
sg130
I00
sg131
I00
sg132
I0
sg133
g2481
sg134
Nsg135
g136
(S'\x07\xde\x02\r\x05\x1f4\x00\x00\x00'
p2484
tp2485
Rp2486
sg140
g2469
sg141
g2483
sg142
I00
sg143
I00
sg144
I00
sbsg145
Nsg29
L663827735643582464L
sg146
I0
sg147
VStockNewsWires
p2487
sg129
Ven
p2488
sg150
g2461
sg135
g136
(S'\x07\xdf\x0b\t\x15\x11\x14\x00\x00\x00'
p2489
tp2490
Rp2491
sg50
(dp2492
g155
Nsg156
I00
sg157
V$AGRX:\u000a\u000aAgile Therapeutics Reports Third Quarter Financial Results:\u000a\u000ahttps://t.co/8Jxqc8xo7p
p2493
sg158
I00
sg159
Nsg56
L663827735643582464L
sg160
I0
sg161
V<a href="http://www.stocknewswires.com" rel="nofollow">StockNewsWires</a>
p2494
sg163
I00
sg164
Nsg64
(dp2495
g166
(lp2496
(dp2497
g39
(lp2498
I0
aI5
asg157
VAGRX
p2499
sasg177
(lp2500
sg179
(lp2501
sg35
(lp2502
(dp2503
g33
Vhttps://t.co/8Jxqc8xo7p
p2504
sg39
(lp2505
I69
aI92
asg41
Vhttp://StockNewsHour.com/agrx-agile-therapeutics-reports-third-quarter-financial-results/
p2506
sg43
VStockNewsHour.com/agrx-agile-the\u2026
p2507
sassg187
Nsg188
Nsg189
I0
sg68
V663827735643582464
p2508
sg191
I00
sg192
g2468
sg193
Nsg194
Nsg195
I00
sg92
g2488
sg100
VMon Nov 09 21:17:20 +0000 2015
p2509
sg197
Nsg198
Nsg199
(dp2510
g201
Ven
p2511
sg203
Vrecent
p2512
sssg205
g2510
sg206
Nsg207
Nsg31
g2495
sg208
Nsg209
Nsg112
g2508
sg210
I00
sg211
Nsg212
I0
sg213
Nsbag0
(g4
g5
Ntp2513
Rp2514
(dp2515
g9
I00
sg10
Nsg11
I00
sg12
V$AGRX - Agile Therapeutics Reports Third Quarter Financial Results https://t.co/Ehq6RgBBwR
p2516
sg14
Vhttp://www.advfn.com
p2517
sg16
I00
sg17
I00
sg18
Nsg19
g0
(g20
g5
Ntp2518
Rp2519
(dp2520
g24
I00
sg25
I00
sg26
I01
sg27
VDDEEF6
p2521
sg29
L2440753004L
sg30
I00
sg31
(dp2522
g33
(dp2523
g35
(lp2524
(dp2525
g33
Vhttp://t.co/nRbMebx4ML
p2526
sg39
(lp2527
I0
aI22
asg41
Vhttp://bit.ly/JBPemail
p2528
sg43
Vbit.ly/JBPemail
p2529
sassg45
(dp2530
g35
(lp2531
(dp2532
g33
Vhttp://t.co/UNGiXERmyZ
p2533
sg39
(lp2534
I41
aI63
asg41
Vhttp://bit.ly/Learn2trade
p2535
sg43
Vbit.ly/Learn2trade
p2536
sasssg48
Vhttps://pbs.twimg.com/profile_images/455136055658676224/7alNBYDW_normal.jpeg
p2537
sg50
(dp2538
g52
I00
sg53
I00
sg54
I01
sg55
I00
sg56
L2440753004L
sg57
Vhttps://pbs.twimg.com/profile_background_images/455143539182022657/otI-w2iO.jpeg
p2539
sg59
I00
sg60
V333333
p2540
sg62
g2537
sg63
g2521
sg64
g2522
sg65
I5174
sg66
VFFFFFF
p2541
sg68
V2440753004
p2542
sg70
VC0DEED
p2543
sg72
I67
sg73
I00
sg74
I-18000
sg75
I64419
sg45
VStreaming news on stocks. Learn here \u21a1 \u21fe http://t.co/UNGiXERmyZ
p2544
sg77
I4305
sg78
g362
sg80
V000000
p2545
sg82
Vhttp://pbs.twimg.com/profile_images/455136055658676224/7alNBYDW_normal.jpeg
p2546
sg84
I00
sg85
I00
sg86
Vhttps://pbs.twimg.com/profile_banners/2440753004/1397349382
p2547
sg88
Vhttp://pbs.twimg.com/profile_background_images/455143539182022657/otI-w2iO.jpeg
p2548
sg90
VStockNews_
p2549
sg92
Ven
p2550
sg94
I01
sg95
I0
sg96
VStockNews
p2551
sg98
I00
sg33
Vhttp://t.co/nRbMebx4ML
p2552
sg100
VSun Apr 13 00:07:03 +0000 2014
p2553
sg102
I00
sg103
VEastern Time (US & Canada)
p2554
sg105
I00
sg106
I00
sg107
I00
ssg108
I00
sg109
g2540
sg110
I5174
sg111
g2541
sg112
g2542
sg113
I00
sg114
I67
sg115
I00
sg116
I-18000
sg117
I64419
sg118
g2544
sg119
I4305
sg120
g362
sg121
g2545
sg122
g2546
sg123
I00
sg124
I00
sg125
g2543
sg126
g2547
sg127
g2548
sg128
g2549
sg129
g2550
sg130
I00
sg131
I01
sg132
I0
sg133
g2551
sg134
g2552
sg135
g136
(S'\x07\xde\x04\r\x00\x07\x03\x00\x00\x00'
p2555
tp2556
Rp2557
sg140
g2539
sg141
g2554
sg142
I00
sg143
I00
sg144
I00
sbsg145
Nsg29
L663826673352187904L
sg146
I0
sg147
VADVFN News Alert
p2558
sg129
Ven
p2559
sg150
g2519
sg135
g136
(S'\x07\xdf\x0b\t\x15\r\x06\x00\x00\x00'
p2560
tp2561
Rp2562
sg50
(dp2563
g155
Nsg156
I00
sg157
g2516
sg158
I00
sg159
Nsg56
L663826673352187904L
sg160
I0
sg161
V<a href="http://www.advfn.com" rel="nofollow">ADVFN News Alert</a>
p2564
sg163
I00
sg164
Nsg64
(dp2565
g166
(lp2566
(dp2567
g39
(lp2568
I0
aI5
asg157
VAGRX
p2569
sasg177
(lp2570
sg179
(lp2571
sg35
(lp2572
(dp2573
g33
Vhttps://t.co/Ehq6RgBBwR
p2574
sg39
(lp2575
I67
aI90
asg41
Vhttp://ih.advfn.com/p.php?pid=nmona&article=69233739&xref=newsalerttweet&adw=1126416
p2576
sg43
Vih.advfn.com/p.php?pid=nmon\u2026
p2577
sassg187
Nsg188
Nsg189
I0
sg68
V663826673352187904
p2578
sg191
I00
sg192
g2538
sg193
Nsg194
Nsg195
I00
sg92
g2559
sg100
VMon Nov 09 21:13:06 +0000 2015
p2579
sg197
Nsg198
Nsg199
(dp2580
g201
Ven
p2581
sg203
Vrecent
p2582
sssg205
g2580
sg206
Nsg207
Nsg31
g2565
sg208
Nsg209
Nsg112
g2578
sg210
I00
sg211
Nsg212
I0
sg213
Nsbag0
(g4
g5
Ntp2583
Rp2584
(dp2585
g9
I00
sg10
Nsg11
I00
sg12
VAgile Therapeutics Reports Third Quarter Financial Results $AGRX https://t.co/Z06uZU0Qw4
p2586
sg14
Vhttp://globenewswire.com
p2587
sg16
I00
sg17
I00
sg18
Nsg19
g0
(g20
g5
Ntp2588
Rp2589
(dp2590
g24
I00
sg25
I00
sg26
I01
sg27
VDDEEF6
p2591
sg29
I438816954
sg30
I00
sg31
(dp2592
g33
(dp2593
g35
(lp2594
(dp2595
g33
Vhttp://t.co/wcNS0H8hwT
p2596
sg39
(lp2597
I0
aI22
asg41
Vhttp://globenewswire.com
p2598
sg43
Vglobenewswire.com
p2599
sassg45
(dp2600
g35
(lp2601
sssg48
Vhttps://pbs.twimg.com/profile_images/456885923221753857/TSrk7Sxb_normal.png
p2602
sg50
(dp2603
g52
I00
sg53
I00
sg54
I01
sg55
I00
sg56
I438816954
sg57
Vhttps://abs.twimg.com/images/themes/theme1/bg.png
p2604
sg59
I00
sg60
V333333
p2605
sg62
g2602
sg63
g2591
sg64
g2592
sg65
I284
sg66
VC0DEED
p2606
sg68
V438816954
p2607
sg70
VC0DEED
p2608
sg72
I61
sg73
I00
sg74
I-28800
sg75
I205695
sg45
VThe latest live news and press releases - directly from GlobeNewswire.
p2609
sg77
I260
sg78
VGlobal
p2610
sg80
V0084B4
p2611
sg82
Vhttp://pbs.twimg.com/profile_images/456885923221753857/TSrk7Sxb_normal.png
p2612
sg84
I00
sg85
I00
sg88
Vhttp://abs.twimg.com/images/themes/theme1/bg.png
p2613
sg90
VGNWLive
p2614
sg92
Ven
p2615
sg94
I00
sg95
I0
sg96
VGNWLive
p2616
sg98
I00
sg33
Vhttp://t.co/wcNS0H8hwT
p2617
sg100
VSat Dec 17 01:58:33 +0000 2011
p2618
sg102
I00
sg103
VPacific Time (US & Canada)
p2619
sg105
I00
sg106
I01
sg107
I00
ssg108
I00
sg109
g2605
sg110
I284
sg111
g2606
sg112
g2607
sg113
I00
sg114
I61
sg115
I00
sg116
I-28800
sg117
I205695
sg118
g2609
sg119
I260
sg120
g2610
sg121
g2611
sg122
g2612
sg123
I00
sg124
I00
sg125
g2608
sg127
g2613
sg128
g2614
sg129
g2615
sg130
I00
sg131
I00
sg132
I0
sg133
g2616
sg134
g2617
sg135
g136
(S'\x07\xdb\x0c\x11\x01:!\x00\x00\x00'
p2620
tp2621
Rp2622
sg140
g2604
sg141
g2619
sg142
I00
sg143
I01
sg144
I00
sbsg145
Nsg29
L663826465406980096L
sg146
I0
sg147
VGNWLive
p2623
sg129
Ven
p2624
sg150
g2589
sg135
g136
(S'\x07\xdf\x0b\t\x15\x0c\x11\x00\x00\x00'
p2625
tp2626
Rp2627
sg50
(dp2628
g155
Nsg156
I00
sg157
g2586
sg158
I00
sg159
Nsg56
L663826465406980096L
sg160
I0
sg161
V<a href="http://globenewswire.com" rel="nofollow">GNWLive</a>
p2629
sg163
I00
sg164
Nsg64
(dp2630
g166
(lp2631
(dp2632
g39
(lp2633
I59
aI64
asg157
VAGRX
p2634
sasg177
(lp2635
sg179
(lp2636
sg35
(lp2637
(dp2638
g33
Vhttps://t.co/Z06uZU0Qw4
p2639
sg39
(lp2640
I65
aI88
asg41
Vhttp://bit.ly/1OA3HId
p2641
sg43
Vbit.ly/1OA3HId
p2642
sassg187
Nsg188
Nsg189
I0
sg68
V663826465406980096
p2643
sg191
I00
sg192
g2603
sg193
Nsg194
Nsg195
I00
sg92
g2624
sg100
VMon Nov 09 21:12:17 +0000 2015
p2644
sg197
Nsg198
Nsg199
(dp2645
g201
Ven
p2646
sg203
Vrecent
p2647
sssg205
g2645
sg206
Nsg207
Nsg31
g2630
sg208
Nsg209
Nsg112
g2643
sg210
I00
sg211
Nsg212
I0
sg213
Nsbag0
(g4
g5
Ntp2648
Rp2649
(dp2650
g9
I00
sg10
Nsg11
I00
sg12
VRT @NewsToDesk: $AGRX:\u000a\u000aRatings and Sentiment Update on Agile Therapeutics, Inc \u2026:\u000a\u000ahttps://t.co/Hnqxg2aHDh
p2651
sg14
Vhttps://roundteam.co
p2652
sg16
I00
sg17
I00
sg18
Nsg19
g0
(g20
g5
Ntp2653
Rp2654
(dp2655
g24
I00
sg25
I00
sg26
I01
sg27
VDDEEF6
p2656
sg29
L3238707433L
sg30
I00
sg31
(dp2657
g33
(dp2658
g35
(lp2659
(dp2660
g33
Vhttp://t.co/lsnpweDA2g
p2661
sg39
(lp2662
I0
aI22
asg41
Vhttp://applebot.stylinghub.com/applebot.php
p2663
sg43
Vapplebot.stylinghub.com/applebot.php
p2664
sassg45
(dp2665
g35
(lp2666
sssg48
Vhttps://pbs.twimg.com/profile_images/607467803818344448/HsRDB0T5_normal.jpg
p2667
sg50
(dp2668
g52
I00
sg53
I00
sg54
I01
sg55
I00
sg56
L3238707433L
sg57
Vhttps://abs.twimg.com/images/themes/theme1/bg.png
p2669
sg59
I00
sg60
V333333
p2670
sg62
g2667
sg63
g2656
sg64
g2657
sg65
I553
sg66
VC0DEED
p2671
sg68
V3238707433
p2672
sg70
VC0DEED
p2673
sg72
I420
sg73
I00
sg74
Nsg75
I73283
sg45
VHow you can automate the stock market and gain profit for it
p2674
sg77
I390
sg78
g362
sg80
V0084B4
p2675
sg82
Vhttp://pbs.twimg.com/profile_images/607467803818344448/HsRDB0T5_normal.jpg
p2676
sg84
I00
sg85
I00
sg86
Vhttps://pbs.twimg.com/profile_banners/3238707433/1433666601
p2677
sg88
Vhttp://abs.twimg.com/images/themes/theme1/bg.png
p2678
sg90
Vistock8
p2679
sg92
Ven
p2680
sg94
I00
sg95
I0
sg96
ViStock Market
p2681
sg98
I00
sg33
Vhttp://t.co/lsnpweDA2g
p2682
sg100
VSun Jun 07 08:37:32 +0000 2015
p2683
sg102
I00
sg103
Nsg105
I00
sg106
I01
sg107
I00
ssg108
I00
sg109
g2670
sg110
I553
sg111
g2671
sg112
g2672
sg113
I00
sg114
I420
sg115
I00
sg116
Nsg117
I73283
sg118
g2674
sg119
I390
sg120
g362
sg121
g2675
sg122
g2676
sg123
I00
sg124
I00
sg125
g2673
sg126
g2677
sg127
g2678
sg128
g2679
sg129
g2680
sg130
I00
sg131
I00
sg132
I0
sg133
g2681
sg134
g2682
sg135
g136
(S'\x07\xdf\x06\x07\x08% \x00\x00\x00'
p2684
tp2685
Rp2686
sg140
g2669
sg141
Nsg142
I00
sg143
I01
sg144
I00
sbsg145
Nsg29
L663783077458636800L
sg146
I0
sg147
VRoundTeam
p2687
sg129
Ven
p2688
sg2218
g0
(g4
g5
Ntp2689
Rp2690
(dp2691
g9
I00
sg10
Nsg11
I00
sg12
V$AGRX:\u000a\u000aRatings and Sentiment Update on Agile Therapeutics, Inc \u2026:\u000a\u000ahttps://t.co/Hnqxg2aHDh
p2692
sg14
Vhttp://www.stocknewswires.com
p2693
sg16
I00
sg17
I00
sg18
Nsg19
g0
(g20
g5
Ntp2694
Rp2695
(dp2696
g24
I00
sg25
I00
sg26
I01
sg27
VE3E2DE
p2697
sg29
L2344619544L
sg30
I00
sg31
(dp2698
g45
(dp2699
g35
(lp2700
sssg48
Vhttps://pbs.twimg.com/profile_images/562292381764952064/mVtp0UmJ_normal.jpeg
p2701
sg50
(dp2702
g52
I00
sg53
I00
sg54
I01
sg55
I00
sg56
L2344619544L
sg57
Vhttps://abs.twimg.com/images/themes/theme3/bg.gif
p2703
sg59
I00
sg60
V634047
p2704
sg62
g2701
sg63
g2697
sg64
g2698
sg65
I516
sg66
VD3D2CF
p2705
sg68
V2344619544
p2706
sg70
VEDECE9
p2707
sg72
I85
sg73
I01
sg74
I-18000
sg75
I182020
sg45
VNews about Stocks
p2708
sg77
I0
sg78
VU.S.
p2709
sg80
V088253
p2710
sg82
Vhttp://pbs.twimg.com/profile_images/562292381764952064/mVtp0UmJ_normal.jpeg
p2711
sg84
I00
sg85
I00
sg88
Vhttp://abs.twimg.com/images/themes/theme3/bg.gif
p2712
sg90
VNewsToDesk
p2713
sg92
Ven
p2714
sg94
I00
sg95
I0
sg96
VBreakingStocksNews
p2715
sg98
I00
sg33
Nsg100
VSat Feb 15 05:49:10 +0000 2014
p2716
sg102
I00
sg103
VEastern Time (US & Canada)
p2717
sg105
I00
sg106
I00
sg107
I00
ssg108
I00
sg109
g2704
sg110
I516
sg111
g2705
sg112
g2706
sg113
I00
sg114
I85
sg115
I01
sg116
I-18000
sg117
I182020
sg118
g2708
sg119
I0
sg120
g2709
sg121
g2710
sg122
g2711
sg123
I00
sg124
I00
sg125
g2707
sg127
g2712
sg128
g2713
sg129
g2714
sg130
I00
sg131
I00
sg132
I0
sg133
g2715
sg134
Nsg135
g136
(S'\x07\xde\x02\x0f\x051\n\x00\x00\x00'
p2718
tp2719
Rp2720
sg140
g2703
sg141
g2717
sg142
I00
sg143
I00
sg144
I00
sbsg145
Nsg29
L663782869089820672L
sg146
I0
sg147
VStockNewsWires
p2721
sg129
Ven
p2722
sg150
g2695
sg135
g136
(S'\x07\xdf\x0b\t\x12\x13\x03\x00\x00\x00'
p2723
tp2724
Rp2725
sg50
(dp2726
g155
Nsg156
I00
sg157
V$AGRX:\u000a\u000aRatings and Sentiment Update on Agile Therapeutics, Inc \u2026:\u000a\u000ahttps://t.co/Hnqxg2aHDh
p2727
sg158
I00
sg159
Nsg56
L663782869089820672L
sg160
I0
sg161
V<a href="http://www.stocknewswires.com" rel="nofollow">StockNewsWires</a>
p2728
sg163
I00
sg164
Nsg64
(dp2729
g166
(lp2730
(dp2731
g39
(lp2732
I0
aI5
asg157
VAGRX
p2733
sasg177
(lp2734
sg179
(lp2735
sg35
(lp2736
(dp2737
g33
Vhttps://t.co/Hnqxg2aHDh
p2738
sg39
(lp2739
I68
aI91
asg41
Vhttp://StockNewsHour.com/agrx-ratings-and-sentiment-update-on-agile-therapeutics-inc-2/
p2740
sg43
VStockNewsHour.com/agrx-ratings-a\u2026
p2741
sassg187
Nsg188
Nsg189
I1
sg68
V663782869089820672
p2742
sg191
I00
sg192
g2702
sg193
Nsg194
Nsg195
I00
sg92
g2722
sg100
VMon Nov 09 18:19:03 +0000 2015
p2743
sg197
Nsg198
Nsg199
(dp2744
g201
Ven
p2745
sg203
Vrecent
p2746
sssg205
g2744
sg206
Nsg207
Nsg31
g2729
sg208
Nsg209
Nsg112
g2742
sg210
I00
sg211
Nsg212
I1
sg213
Nsbsg150
g2654
sg135
g136
(S'\x07\xdf\x0b\t\x12\x134\x00\x00\x00'
p2747
tp2748
Rp2749
sg50
(dp2750
g155
Nsg156
I00
sg157
VRT @NewsToDesk: $AGRX:\u000a\u000aRatings and Sentiment Update on Agile Therapeutics, Inc \u2026:\u000a\u000ahttps://t.co/Hnqxg2aHDh
p2751
sg158
I00
sg159
Nsg56
L663783077458636800L
sg160
I0
sg161
V<a href="https://roundteam.co" rel="nofollow">RoundTeam</a>
p2752
sg163
I00
sg164
Nsg64
(dp2753
g166
(lp2754
(dp2755
g39
(lp2756
I16
aI21
asg157
VAGRX
p2757
sasg177
(lp2758
(dp2759
g56
L2344619544L
sg39
(lp2760
I3
aI14
asg68
V2344619544
p2761
sg90
VNewsToDesk
p2762
sg96
VBreakingStocksNews
p2763
sasg179
(lp2764
sg35
(lp2765
(dp2766
g33
Vhttps://t.co/Hnqxg2aHDh
p2767
sg39
(lp2768
I84
aI107
asg41
Vhttp://StockNewsHour.com/agrx-ratings-and-sentiment-update-on-agile-therapeutics-inc-2/
p2769
sg43
VStockNewsHour.com/agrx-ratings-a\u2026
p2770
sassg187
Nsg188
Nsg189
I1
sg68
V663783077458636800
p2771
sg191
I00
sg2314
g2726
sg192
g2668
sg193
Nsg194
Nsg195
I00
sg92
g2688
sg100
VMon Nov 09 18:19:52 +0000 2015
p2772
sg197
Nsg198
Nsg199
(dp2773
g201
Ven
p2774
sg203
Vrecent
p2775
sssg205
g2773
sg206
Nsg207
Nsg31
g2753
sg208
Nsg209
Nsg112
g2771
sg210
I00
sg211
Nsg212
I1
sg213
Nsbag0
(g4
g5
Ntp2776
Rp2777
(dp2778
g9
I00
sg10
Nsg11
I00
sg12
V$AGRX:\u000a\u000aRatings and Sentiment Update on Agile Therapeutics, Inc \u2026:\u000a\u000ahttps://t.co/Hnqxg2aHDh
p2779
sg14
Vhttp://www.stocknewswires.com
p2780
sg16
I00
sg17
I00
sg18
Nsg19
g0
(g20
g5
Ntp2781
Rp2782
(dp2783
g24
I00
sg25
I00
sg26
I01
sg27
VE3E2DE
p2784
sg29
L2344619544L
sg30
I00
sg31
(dp2785
g45
(dp2786
g35
(lp2787
sssg48
Vhttps://pbs.twimg.com/profile_images/562292381764952064/mVtp0UmJ_normal.jpeg
p2788
sg50
(dp2789
g52
I00
sg53
I00
sg54
I01
sg55
I00
sg56
L2344619544L
sg57
Vhttps://abs.twimg.com/images/themes/theme3/bg.gif
p2790
sg59
I00
sg60
V634047
p2791
sg62
g2788
sg63
g2784
sg64
g2785
sg65
I516
sg66
VD3D2CF
p2792
sg68
V2344619544
p2793
sg70
VEDECE9
p2794
sg72
I85
sg73
I01
sg74
I-18000
sg75
I182020
sg45
VNews about Stocks
p2795
sg77
I0
sg78
VU.S.
p2796
sg80
V088253
p2797
sg82
Vhttp://pbs.twimg.com/profile_images/562292381764952064/mVtp0UmJ_normal.jpeg
p2798
sg84
I00
sg85
I00
sg88
Vhttp://abs.twimg.com/images/themes/theme3/bg.gif
p2799
sg90
VNewsToDesk
p2800
sg92
Ven
p2801
sg94
I00
sg95
I0
sg96
VBreakingStocksNews
p2802
sg98
I00
sg33
Nsg100
VSat Feb 15 05:49:10 +0000 2014
p2803
sg102
I00
sg103
VEastern Time (US & Canada)
p2804
sg105
I00
sg106
I00
sg107
I00
ssg108
I00
sg109
g2791
sg110
I516
sg111
g2792
sg112
g2793
sg113
I00
sg114
I85
sg115
I01
sg116
I-18000
sg117
I182020
sg118
g2795
sg119
I0
sg120
g2796
sg121
g2797
sg122
g2798
sg123
I00
sg124
I00
sg125
g2794
sg127
g2799
sg128
g2800
sg129
g2801
sg130
I00
sg131
I00
sg132
I0
sg133
g2802
sg134
Nsg135
g136
(S'\x07\xde\x02\x0f\x051\n\x00\x00\x00'
p2805
tp2806
Rp2807
sg140
g2790
sg141
g2804
sg142
I00
sg143
I00
sg144
I00
sbsg145
Nsg29
L663782869089820672L
sg146
I0
sg147
VStockNewsWires
p2808
sg129
Ven
p2809
sg150
g2782
sg135
g136
(S'\x07\xdf\x0b\t\x12\x13\x03\x00\x00\x00'
p2810
tp2811
Rp2812
sg50
(dp2813
g155
Nsg156
I00
sg157
V$AGRX:\u000a\u000aRatings and Sentiment Update on Agile Therapeutics, Inc \u2026:\u000a\u000ahttps://t.co/Hnqxg2aHDh
p2814
sg158
I00
sg159
Nsg56
L663782869089820672L
sg160
I0
sg161
V<a href="http://www.stocknewswires.com" rel="nofollow">StockNewsWires</a>
p2815
sg163
I00
sg164
Nsg64
(dp2816
g166
(lp2817
(dp2818
g39
(lp2819
I0
aI5
asg157
VAGRX
p2820
sasg177
(lp2821
sg179
(lp2822
sg35
(lp2823
(dp2824
g33
Vhttps://t.co/Hnqxg2aHDh
p2825
sg39
(lp2826
I68
aI91
asg41
Vhttp://StockNewsHour.com/agrx-ratings-and-sentiment-update-on-agile-therapeutics-inc-2/
p2827
sg43
VStockNewsHour.com/agrx-ratings-a\u2026
p2828
sassg187
Nsg188
Nsg189
I1
sg68
V663782869089820672
p2829
sg191
I00
sg192
g2789
sg193
Nsg194
Nsg195
I00
sg92
g2809
sg100
VMon Nov 09 18:19:03 +0000 2015
p2830
sg197
Nsg198
Nsg199
(dp2831
g201
Ven
p2832
sg203
Vrecent
p2833
sssg205
g2831
sg206
Nsg207
Nsg31
g2816
sg208
Nsg209
Nsg112
g2829
sg210
I00
sg211
Nsg212
I1
sg213
Nsbag0
(g4
g5
Ntp2834
Rp2835
(dp2836
g9
I00
sg10
Nsg11
I00
sg12
V$agrx setting up #UpTrend
p2837
sg14
Vhttp://twitter.com/download/iphone
p2838
sg17
I00
sg18
Nsg19
g0
(g20
g5
Ntp2839
Rp2840
(dp2841
g24
I00
sg25
I00
sg26
I01
sg27
VEFEFEF
p2842
sg29
I53095982
sg30
I00
sg31
(dp2843
g45
(dp2844
g35
(lp2845
sssg48
Vhttps://pbs.twimg.com/profile_images/606889859328974848/_9u50oq__normal.jpg
p2846
sg50
(dp2847
g52
I00
sg53
I00
sg54
I01
sg55
I00
sg56
I53095982
sg57
Vhttps://abs.twimg.com/images/themes/theme14/bg.gif
p2848
sg59
I00
sg60
V333333
p2849
sg62
g2846
sg63
g2842
sg64
g2843
sg65
I168
sg66
VEEEEEE
p2850
sg68
V53095982
p2851
sg70
V131516
p2852
sg72
I6
sg73
I00
sg74
I-21600
sg75
I2520
sg45
VDreamer. Entrepreneur. Believe & Success. #NoPasaNada. Expressing my opinions
p2853
sg77
I147
sg78
VWorldwide
p2854
sg80
V009999
p2855
sg82
Vhttp://pbs.twimg.com/profile_images/606889859328974848/_9u50oq__normal.jpg
p2856
sg84
I00
sg85
I00
sg86
Vhttps://pbs.twimg.com/profile_banners/53095982/1427044147
p2857
sg88
Vhttp://abs.twimg.com/images/themes/theme14/bg.gif
p2858
sg90
VHMB7World
p2859
sg92
Ven
p2860
sg94
I01
sg95
I111
sg96
VHector
p2861
sg98
I00
sg33
Nsg100
VThu Jul 02 15:38:10 +0000 2009
p2862
sg102
I00
sg103
VCentral Time (US & Canada)
p2863
sg105
I00
sg106
I00
sg107
I00
ssg108
I00
sg109
g2849
sg110
I168
sg111
g2850
sg112
g2851
sg113
I00
sg114
I6
sg115
I00
sg116
I-21600
sg117
I2520
sg118
g2853
sg119
I147
sg120
g2854
sg121
g2855
sg122
g2856
sg123
I00
sg124
I00
sg125
g2852
sg126
g2857
sg127
g2858
sg128
g2859
sg129
g2860
sg130
I00
sg131
I01
sg132
I111
sg133
g2861
sg134
Nsg135
g136
(S'\x07\xd9\x07\x02\x0f&\n\x00\x00\x00'
p2864
tp2865
Rp2866
sg140
g2848
sg141
g2863
sg142
I00
sg143
I00
sg144
I00
sbsg145
Nsg29
L663731316530225152L
sg146
I0
sg147
VTwitter for iPhone
p2867
sg129
Ven
p2868
sg150
g2840
sg135
g136
(S'\x07\xdf\x0b\t\x0e6\x0c\x00\x00\x00'
p2869
tp2870
Rp2871
sg50
(dp2872
g155
Nsg156
I00
sg157
g2837
sg158
I00
sg159
Nsg56
L663731316530225152L
sg160
I0
sg161
V<a href="http://twitter.com/download/iphone" rel="nofollow">Twitter for iPhone</a>
p2873
sg163
I00
sg164
Nsg64
(dp2874
g166
(lp2875
(dp2876
g39
(lp2877
I0
aI5
asg157
Vagrx
p2878
sasg177
(lp2879
sg179
(lp2880
(dp2881
g39
(lp2882
I17
aI25
asg157
VUpTrend
p2883
sasg35
(lp2884
ssg187
Nsg188
Nsg189
I0
sg68
V663731316530225152
p2885
sg191
I00
sg192
g2847
sg193
Nsg194
Nsg92
g2868
sg100
VMon Nov 09 14:54:12 +0000 2015
p2886
sg197
Nsg198
Nsg199
(dp2887
g201
Ven
p2888
sg203
Vrecent
p2889
sssg205
g2887
sg206
Nsg207
Nsg31
g2874
sg208
Nsg209
Nsg112
g2885
sg210
I00
sg211
Nsg212
I0
sg213
Nsbag0
(g4
g5
Ntp2890
Rp2891
(dp2892
g9
I00
sg10
Nsg11
I00
sg12
VThe Most Accurate Stock Alert Service Made $240,000 Yesterday https://t.co/8WvnrVmkBS .. $MOKO $UTIW $AGRX
p2893
sg14
Vhttp://socialadcenter.com
p2894
sg16
I00
sg17
I00
sg18
Nsg19
g0
(g20
g5
Ntp2895
Rp2896
(dp2897
g24
I00
sg25
I00
sg26
I01
sg27
VDDEEF6
p2898
sg29
L2730855593L
sg30
I00
sg31
(dp2899
g33
(dp2900
g35
(lp2901
(dp2902
g33
Vhttp://t.co/UWzH8kOOl9
p2903
sg39
(lp2904
I0
aI22
asg41
Vhttp://PennyStockSecret.com
p2905
sg43
VPennyStockSecret.com
p2906
sassg45
(dp2907
g35
(lp2908
(dp2909
g33
Vhttp://t.co/UWzH8kOOl9
p2910
sg39
(lp2911
I11
aI33
asg41
Vhttp://PennyStockSecret.com
p2912
sg43
VPennyStockSecret.com
p2913
sasssg48
Vhttps://pbs.twimg.com/profile_images/573247485616889856/gHAtYS9O_normal.png
p2914
sg50
(dp2915
g52
I00
sg53
I00
sg54
I01
sg55
I00
sg56
L2730855593L
sg57
Vhttps://abs.twimg.com/images/themes/theme1/bg.png
p2916
sg59
I00
sg60
V333333
p2917
sg62
g2914
sg63
g2898
sg64
g2899
sg65
I2515
sg66
VC0DEED
p2918
sg68
V2730855593
p2919
sg70
VC0DEED
p2920
sg72
I25
sg73
I00
sg74
I0
sg75
I53231
sg45
VSign up to http://t.co/UWzH8kOOl9  and get the premiere penny stock newsletter for free! make sure you subscribe today!
p2921
sg77
I9
sg78
VUSA
p2922
sg80
V0084B4
p2923
sg82
Vhttp://pbs.twimg.com/profile_images/573247485616889856/gHAtYS9O_normal.png
p2924
sg84
I00
sg85
I00
sg86
Vhttps://pbs.twimg.com/profile_banners/2730855593/1425507876
p2925
sg88
Vhttp://abs.twimg.com/images/themes/theme1/bg.png
p2926
sg90
Vstockschamp
p2927
sg92
Ven
p2928
sg94
I00
sg95
I0
sg96
Vstockschamp
p2929
sg98
I00
sg33
Vhttp://t.co/UWzH8kOOl9
p2930
sg100
VFri Aug 01 16:39:24 +0000 2014
p2931
sg102
I00
sg103
VDublin
p2932
sg105
I00
sg106
I01
sg107
I00
ssg108
I00
sg109
g2917
sg110
I2515
sg111
g2918
sg112
g2919
sg113
I00
sg114
I25
sg115
I00
sg116
I0
sg117
I53231
sg118
g2921
sg119
I9
sg120
g2922
sg121
g2923
sg122
g2924
sg123
I00
sg124
I00
sg125
g2920
sg126
g2925
sg127
g2926
sg128
g2927
sg129
g2928
sg130
I00
sg131
I00
sg132
I0
sg133
g2929
sg134
g2930
sg135
g136
(S"\x07\xde\x08\x01\x10'\x18\x00\x00\x00"
p2933
tp2934
Rp2935
sg140
g2916
sg141
g2932
sg142
I00
sg143
I01
sg144
I00
sbsg145
Nsg29
L663642625937772544L
sg146
I0
sg147
VSocial Ad Center
p2936
sg129
Ven
p2937
sg150
g2896
sg135
g136
(S'\x07\xdf\x0b\t\t\x01.\x00\x00\x00'
p2938
tp2939
Rp2940
sg50
(dp2941
g155
Nsg156
I00
sg157
g2893
sg158
I00
sg159
Nsg56
L663642625937772544L
sg160
I0
sg161
V<a href="http://socialadcenter.com" rel="nofollow">Social Ad Center</a>
p2942
sg163
I00
sg164
Nsg64
(dp2943
g166
(lp2944
(dp2945
g39
(lp2946
I89
aI94
asg157
VMOKO
p2947
sa(dp2948
g39
(lp2949
I95
aI100
asg157
VUTIW
p2950
sa(dp2951
g39
(lp2952
I101
aI106
asg157
VAGRX
p2953
sasg177
(lp2954
sg179
(lp2955
sg35
(lp2956
(dp2957
g33
Vhttps://t.co/8WvnrVmkBS
p2958
sg39
(lp2959
I62
aI85
asg41
Vhttp://PennyStockSecret.com
p2960
sg43
VPennyStockSecret.com
p2961
sassg187
Nsg188
Nsg189
I0
sg68
V663642625937772544
p2962
sg191
I00
sg192
g2915
sg193
Nsg194
Nsg195
I00
sg92
g2937
sg100
VMon Nov 09 09:01:46 +0000 2015
p2963
sg197
Nsg198
Nsg199
(dp2964
g201
Ven
p2965
sg203
Vrecent
p2966
sssg205
g2964
sg206
Nsg207
Nsg31
g2943
sg208
Nsg209
Nsg112
g2962
sg210
I00
sg211
Nsg212
I0
sg213
Nsbag0
(g4
g5
Ntp2967
Rp2968
(dp2969
g9
I00
sg10
Nsg11
I00
sg12
Vhttps://t.co/uAcamNRUPt alerted $PTBI +89% MUST SEE TRACK RECORD &amp; SUBSCRIBE https://t.co/tkIn2GV1aE $MNP $TSI $MGF $YUME $AGRX $NRT $PNI
p2970
sg14
Vhttp://biloselhi.com
p2971
sg16
I00
sg17
I00
sg18
Nsg19
g0
(g20
g5
Ntp2972
Rp2973
(dp2974
g24
I00
sg25
I00
sg26
I01
sg27
VFFFFFF
p2975
sg29
L2802272246L
sg30
I00
sg31
(dp2976
g33
(dp2977
g35
(lp2978
(dp2979
g33
Vhttp://t.co/jjWTkVWgFN
p2980
sg39
(lp2981
I0
aI22
asg41
Vhttp://BiloSelhi.com
p2982
sg43
VBiloSelhi.com
p2983
sassg45
(dp2984
g35
(lp2985
(dp2986
g33
Vhttps://t.co/0aFaudDmBY
p2987
sg39
(lp2988
I137
aI160
asg41
Vhttp://biloselhi.com/d.htm
p2989
sg43
Vbiloselhi.com/d.htm
p2990
sasssg48
Vhttps://pbs.twimg.com/profile_images/509778632521154560/DYIdZCfQ_normal.png
p2991
sg50
(dp2992
g52
I00
sg53
I00
sg54
I01
sg55
I00
sg56
L2802272246L
sg57
Vhttps://abs.twimg.com/images/themes/theme13/bg.gif
p2993
sg59
I00
sg60
V333333
p2994
sg62
g2991
sg63
g2975
sg64
g2976
sg65
I11220
sg66
VEEEEEE
p2995
sg68
V2802272246
p2996
sg70
VB2DFDA
p2997
sg72
I72
sg73
I00
sg74
Nsg75
I28395
sg45
VFounder, Bilo Selhi's Stock Alerts. 1,302% return in 13 months. Subscribe today for promo. Follow on Google+ for free trial. DISCLAIMER: https://t.co/0aFaudDmBY
p2998
sg77
I11694
sg78
V \u2193 \u2193 MUST SEE Track record
p2999
sg80
V93A644
p3000
sg82
Vhttp://pbs.twimg.com/profile_images/509778632521154560/DYIdZCfQ_normal.png
p3001
sg84
I00
sg85
I00
sg86
Vhttps://pbs.twimg.com/profile_banners/2802272246/1412893156
p3002
sg88
Vhttp://abs.twimg.com/images/themes/theme13/bg.gif
p3003
sg90
VStocksThatDoubl
p3004
sg92
Ven
p3005
sg94
I00
sg95
I77
sg96
VBilo Selhi
p3006
sg98
I00
sg33
Vhttp://t.co/jjWTkVWgFN
p3007
sg100
VWed Sep 10 18:52:30 +0000 2014
p3008
sg102
I00
sg103
Nsg105
I00
sg106
I00
sg107
I00
ssg108
I00
sg109
g2994
sg110
I11220
sg111
g2995
sg112
g2996
sg113
I00
sg114
I72
sg115
I00
sg116
Nsg117
I28395
sg118
g2998
sg119
I11694
sg120
g2999
sg121
g3000
sg122
g3001
sg123
I00
sg124
I00
sg125
g2997
sg126
g3002
sg127
g3003
sg128
g3004
sg129
g3005
sg130
I00
sg131
I00
sg132
I77
sg133
g3006
sg134
g3007
sg135
g136
(S'\x07\xde\t\n\x124\x1e\x00\x00\x00'
p3009
tp3010
Rp3011
sg140
g2993
sg141
Nsg142
I00
sg143
I00
sg144
I00
sbsg145
Nsg29
L663011181066588160L
sg146
I0
sg147
VNov292014
p3012
sg129
Ven
p3013
sg150
g2973
sg135
g136
(S'\x07\xdf\x0b\x07\x0f\x0c&\x00\x00\x00'
p3014
tp3015
Rp3016
sg50
(dp3017
g155
Nsg156
I00
sg157
g2970
sg158
I00
sg159
Nsg56
L663011181066588160L
sg160
I0
sg161
V<a href="http://biloselhi.com" rel="nofollow">Nov292014</a>
p3018
sg163
I00
sg164
Nsg64
(dp3019
g166
(lp3020
(dp3021
g39
(lp3022
I32
aI37
asg157
VPTBI
p3023
sa(dp3024
g39
(lp3025
I105
aI109
asg157
VMNP
p3026
sa(dp3027
g39
(lp3028
I110
aI114
asg157
VTSI
p3029
sa(dp3030
g39
(lp3031
I115
aI119
asg157
VMGF
p3032
sa(dp3033
g39
(lp3034
I120
aI125
asg157
VYUME
p3035
sa(dp3036
g39
(lp3037
I126
aI131
asg157
VAGRX
p3038
sa(dp3039
g39
(lp3040
I132
aI136
asg157
VNRT
p3041
sa(dp3042
g39
(lp3043
I137
aI141
asg157
VPNI
p3044
sasg177
(lp3045
sg179
(lp3046
sg35
(lp3047
(dp3048
g33
Vhttps://t.co/uAcamNRUPt
p3049
sg39
(lp3050
I0
aI23
asg41
Vhttp://BiloSelhi.com
p3051
sg43
VBiloSelhi.com
p3052
sasg300
(lp3053
(dp3054
g303
L2802272246L
sg304
V595888238205755392
p3055
sg41
Vhttp://twitter.com/StocksThatDoubl/status/595888238205755392/photo/1
p3056
sg43
Vpic.twitter.com/tkIn2GV1aE
p3057
sg33
Vhttps://t.co/tkIn2GV1aE
p3058
sg309
Vhttps://pbs.twimg.com/media/CEUFMRrWYAAlu16.png
p3059
sg311
V2802272246
p3060
sg313
L595888238205755392L
sg68
V595888234158252032
p3061
sg315
(dp3062
g317
(dp3063
g319
I555
sg320
Vfit
p3064
sg322
I1024
ssg323
(dp3065
g319
I184
sg320
Vfit
p3066
sg322
I340
ssg326
(dp3067
g319
I325
sg320
Vfit
p3068
sg322
I600
ssg329
(dp3069
g319
I150
sg320
Vcrop
p3070
sg322
I150
sssg39
(lp3071
I81
aI104
asg333
Vphoto
p3072
sg56
L595888234158252032L
sg335
Vhttp://pbs.twimg.com/media/CEUFMRrWYAAlu16.png
p3073
sassg187
Nsg188
Nsg189
I0
sg68
V663011181066588160
p3074
sg191
I00
sg192
g2992
sg193
Nsg194
Nsg195
I00
sg92
g3013
sg100
VSat Nov 07 15:12:38 +0000 2015
p3075
sg197
Nsg198
Nsg199
(dp3076
g201
Ven
p3077
sg203
Vrecent
p3078
sssg205
g3076
sg206
Nsg207
Nsg31
g3019
sg208
Nsg209
Nsg112
g3074
sg210
I00
sg211
Nsg212
I0
sg213
Nsbag0
(g4
g5
Ntp3079
Rp3080
(dp3081
g9
I00
sg10
Nsg11
I00
sg12
Vhttps://t.co/uAcamNRUPt alerted $PTBI +89% MUST SEE TRACK RECORD &amp; SUBSCRIBE https://t.co/tkIn2GV1aE $MNP $TSI $MGF $YUME $AGRX $NRT $PNI
p3082
sg14
Vhttp://biloselhi.com
p3083
sg16
I00
sg17
I00
sg18
Nsg19
g0
(g20
g5
Ntp3084
Rp3085
(dp3086
g24
I00
sg25
I00
sg26
I01
sg27
VFFFFFF
p3087
sg29
L2802272246L
sg30
I00
sg31
(dp3088
g33
(dp3089
g35
(lp3090
(dp3091
g33
Vhttp://t.co/jjWTkVWgFN
p3092
sg39
(lp3093
I0
aI22
asg41
Vhttp://BiloSelhi.com
p3094
sg43
VBiloSelhi.com
p3095
sassg45
(dp3096
g35
(lp3097
(dp3098
g33
Vhttps://t.co/0aFaudDmBY
p3099
sg39
(lp3100
I137
aI160
asg41
Vhttp://biloselhi.com/d.htm
p3101
sg43
Vbiloselhi.com/d.htm
p3102
sasssg48
Vhttps://pbs.twimg.com/profile_images/509778632521154560/DYIdZCfQ_normal.png
p3103
sg50
(dp3104
g52
I00
sg53
I00
sg54
I01
sg55
I00
sg56
L2802272246L
sg57
Vhttps://abs.twimg.com/images/themes/theme13/bg.gif
p3105
sg59
I00
sg60
V333333
p3106
sg62
g3103
sg63
g3087
sg64
g3088
sg65
I11220
sg66
VEEEEEE
p3107
sg68
V2802272246
p3108
sg70
VB2DFDA
p3109
sg72
I72
sg73
I00
sg74
Nsg75
I28395
sg45
VFounder, Bilo Selhi's Stock Alerts. 1,302% return in 13 months. Subscribe today for promo. Follow on Google+ for free trial. DISCLAIMER: https://t.co/0aFaudDmBY
p3110
sg77
I11694
sg78
V \u2193 \u2193 MUST SEE Track record
p3111
sg80
V93A644
p3112
sg82
Vhttp://pbs.twimg.com/profile_images/509778632521154560/DYIdZCfQ_normal.png
p3113
sg84
I00
sg85
I00
sg86
Vhttps://pbs.twimg.com/profile_banners/2802272246/1412893156
p3114
sg88
Vhttp://abs.twimg.com/images/themes/theme13/bg.gif
p3115
sg90
VStocksThatDoubl
p3116
sg92
Ven
p3117
sg94
I00
sg95
I77
sg96
VBilo Selhi
p3118
sg98
I00
sg33
Vhttp://t.co/jjWTkVWgFN
p3119
sg100
VWed Sep 10 18:52:30 +0000 2014
p3120
sg102
I00
sg103
Nsg105
I00
sg106
I00
sg107
I00
ssg108
I00
sg109
g3106
sg110
I11220
sg111
g3107
sg112
g3108
sg113
I00
sg114
I72
sg115
I00
sg116
Nsg117
I28395
sg118
g3110
sg119
I11694
sg120
g3111
sg121
g3112
sg122
g3113
sg123
I00
sg124
I00
sg125
g3109
sg126
g3114
sg127
g3115
sg128
g3116
sg129
g3117
sg130
I00
sg131
I00
sg132
I77
sg133
g3118
sg134
g3119
sg135
g136
(S'\x07\xde\t\n\x124\x1e\x00\x00\x00'
p3121
tp3122
Rp3123
sg140
g3105
sg141
Nsg142
I00
sg143
I00
sg144
I00
sbsg145
Nsg29
L662950680831926272L
sg146
I0
sg147
VNov292014
p3124
sg129
Ven
p3125
sg150
g3085
sg135
g136
(S'\x07\xdf\x0b\x07\x0b\x0c\r\x00\x00\x00'
p3126
tp3127
Rp3128
sg50
(dp3129
g155
Nsg156
I00
sg157
g3082
sg158
I00
sg159
Nsg56
L662950680831926272L
sg160
I0
sg161
V<a href="http://biloselhi.com" rel="nofollow">Nov292014</a>
p3130
sg163
I00
sg164
Nsg64
(dp3131
g166
(lp3132
(dp3133
g39
(lp3134
I32
aI37
asg157
VPTBI
p3135
sa(dp3136
g39
(lp3137
I105
aI109
asg157
VMNP
p3138
sa(dp3139
g39
(lp3140
I110
aI114
asg157
VTSI
p3141
sa(dp3142
g39
(lp3143
I115
aI119
asg157
VMGF
p3144
sa(dp3145
g39
(lp3146
I120
aI125
asg157
VYUME
p3147
sa(dp3148
g39
(lp3149
I126
aI131
asg157
VAGRX
p3150
sa(dp3151
g39
(lp3152
I132
aI136
asg157
VNRT
p3153
sa(dp3154
g39
(lp3155
I137
aI141
asg157
VPNI
p3156
sasg177
(lp3157
sg179
(lp3158
sg35
(lp3159
(dp3160
g33
Vhttps://t.co/uAcamNRUPt
p3161
sg39
(lp3162
I0
aI23
asg41
Vhttp://BiloSelhi.com
p3163
sg43
VBiloSelhi.com
p3164
sasg300
(lp3165
(dp3166
g303
L2802272246L
sg304
V595888238205755392
p3167
sg41
Vhttp://twitter.com/StocksThatDoubl/status/595888238205755392/photo/1
p3168
sg43
Vpic.twitter.com/tkIn2GV1aE
p3169
sg33
Vhttps://t.co/tkIn2GV1aE
p3170
sg309
Vhttps://pbs.twimg.com/media/CEUFMRrWYAAlu16.png
p3171
sg311
V2802272246
p3172
sg313
L595888238205755392L
sg68
V595888234158252032
p3173
sg315
(dp3174
g317
(dp3175
g319
I555
sg320
Vfit
p3176
sg322
I1024
ssg323
(dp3177
g319
I184
sg320
Vfit
p3178
sg322
I340
ssg326
(dp3179
g319
I325
sg320
Vfit
p3180
sg322
I600
ssg329
(dp3181
g319
I150
sg320
Vcrop
p3182
sg322
I150
sssg39
(lp3183
I81
aI104
asg333
Vphoto
p3184
sg56
L595888234158252032L
sg335
Vhttp://pbs.twimg.com/media/CEUFMRrWYAAlu16.png
p3185
sassg187
Nsg188
Nsg189
I0
sg68
V662950680831926272
p3186
sg191
I00
sg192
g3104
sg193
Nsg194
Nsg195
I00
sg92
g3125
sg100
VSat Nov 07 11:12:13 +0000 2015
p3187
sg197
Nsg198
Nsg199
(dp3188
g201
Ven
p3189
sg203
Vrecent
p3190
sssg205
g3188
sg206
Nsg207
Nsg31
g3131
sg208
Nsg209
Nsg112
g3186
sg210
I00
sg211
Nsg212
I0
sg213
Nsbag0
(g4
g5
Ntp3191
Rp3192
(dp3193
g9
I00
sg10
Nsg11
I00
sg12
Vhttps://t.co/uAcamO9vH1 alerted $PTBI +89% MUST SEE TRACK RECORD &amp; SUBSCRIBE https://t.co/tkIn2GV1aE $MNP $TSI $MGF $YUME $AGRX $NRT $PNI
p3194
sg14
Vhttp://biloselhi.com
p3195
sg16
I00
sg17
I00
sg18
Nsg19
g0
(g20
g5
Ntp3196
Rp3197
(dp3198
g24
I00
sg25
I00
sg26
I01
sg27
VFFFFFF
p3199
sg29
L2802272246L
sg30
I00
sg31
(dp3200
g33
(dp3201
g35
(lp3202
(dp3203
g33
Vhttp://t.co/jjWTkVWgFN
p3204
sg39
(lp3205
I0
aI22
asg41
Vhttp://BiloSelhi.com
p3206
sg43
VBiloSelhi.com
p3207
sassg45
(dp3208
g35
(lp3209
(dp3210
g33
Vhttps://t.co/0aFaudDmBY
p3211
sg39
(lp3212
I137
aI160
asg41
Vhttp://biloselhi.com/d.htm
p3213
sg43
Vbiloselhi.com/d.htm
p3214
sasssg48
Vhttps://pbs.twimg.com/profile_images/509778632521154560/DYIdZCfQ_normal.png
p3215
sg50
(dp3216
g52
I00
sg53
I00
sg54
I01
sg55
I00
sg56
L2802272246L
sg57
Vhttps://abs.twimg.com/images/themes/theme13/bg.gif
p3217
sg59
I00
sg60
V333333
p3218
sg62
g3215
sg63
g3199
sg64
g3200
sg65
I11220
sg66
VEEEEEE
p3219
sg68
V2802272246
p3220
sg70
VB2DFDA
p3221
sg72
I72
sg73
I00
sg74
Nsg75
I28395
sg45
VFounder, Bilo Selhi's Stock Alerts. 1,302% return in 13 months. Subscribe today for promo. Follow on Google+ for free trial. DISCLAIMER: https://t.co/0aFaudDmBY
p3222
sg77
I11694
sg78
V \u2193 \u2193 MUST SEE Track record
p3223
sg80
V93A644
p3224
sg82
Vhttp://pbs.twimg.com/profile_images/509778632521154560/DYIdZCfQ_normal.png
p3225
sg84
I00
sg85
I00
sg86
Vhttps://pbs.twimg.com/profile_banners/2802272246/1412893156
p3226
sg88
Vhttp://abs.twimg.com/images/themes/theme13/bg.gif
p3227
sg90
VStocksThatDoubl
p3228
sg92
Ven
p3229
sg94
I00
sg95
I77
sg96
VBilo Selhi
p3230
sg98
I00
sg33
Vhttp://t.co/jjWTkVWgFN
p3231
sg100
VWed Sep 10 18:52:30 +0000 2014
p3232
sg102
I00
sg103
Nsg105
I00
sg106
I00
sg107
I00
ssg108
I00
sg109
g3218
sg110
I11220
sg111
g3219
sg112
g3220
sg113
I00
sg114
I72
sg115
I00
sg116
Nsg117
I28395
sg118
g3222
sg119
I11694
sg120
g3223
sg121
g3224
sg122
g3225
sg123
I00
sg124
I00
sg125
g3221
sg126
g3226
sg127
g3227
sg128
g3228
sg129
g3229
sg130
I00
sg131
I00
sg132
I77
sg133
g3230
sg134
g3231
sg135
g136
(S'\x07\xde\t\n\x124\x1e\x00\x00\x00'
p3233
tp3234
Rp3235
sg140
g3217
sg141
Nsg142
I00
sg143
I00
sg144
I00
sbsg145
Nsg29
L662890193897177088L
sg146
I0
sg147
VNov292014
p3236
sg129
Ven
p3237
sg150
g3197
sg135
g136
(S'\x07\xdf\x0b\x07\x07\x0b4\x00\x00\x00'
p3238
tp3239
Rp3240
sg50
(dp3241
g155
Nsg156
I00
sg157
g3194
sg158
I00
sg159
Nsg56
L662890193897177088L
sg160
I0
sg161
V<a href="http://biloselhi.com" rel="nofollow">Nov292014</a>
p3242
sg163
I00
sg164
Nsg64
(dp3243
g166
(lp3244
(dp3245
g39
(lp3246
I32
aI37
asg157
VPTBI
p3247
sa(dp3248
g39
(lp3249
I105
aI109
asg157
VMNP
p3250
sa(dp3251
g39
(lp3252
I110
aI114
asg157
VTSI
p3253
sa(dp3254
g39
(lp3255
I115
aI119
asg157
VMGF
p3256
sa(dp3257
g39
(lp3258
I120
aI125
asg157
VYUME
p3259
sa(dp3260
g39
(lp3261
I126
aI131
asg157
VAGRX
p3262
sa(dp3263
g39
(lp3264
I132
aI136
asg157
VNRT
p3265
sa(dp3266
g39
(lp3267
I137
aI141
asg157
VPNI
p3268
sasg177
(lp3269
sg179
(lp3270
sg35
(lp3271
(dp3272
g33
Vhttps://t.co/uAcamO9vH1
p3273
sg39
(lp3274
I0
aI23
asg41
Vhttp://BiloSelhi.com
p3275
sg43
VBiloSelhi.com
p3276
sasg300
(lp3277
(dp3278
g303
L2802272246L
sg304
V595888238205755392
p3279
sg41
Vhttp://twitter.com/StocksThatDoubl/status/595888238205755392/photo/1
p3280
sg43
Vpic.twitter.com/tkIn2GV1aE
p3281
sg33
Vhttps://t.co/tkIn2GV1aE
p3282
sg309
Vhttps://pbs.twimg.com/media/CEUFMRrWYAAlu16.png
p3283
sg311
V2802272246
p3284
sg313
L595888238205755392L
sg68
V595888234158252032
p3285
sg315
(dp3286
g317
(dp3287
g319
I555
sg320
Vfit
p3288
sg322
I1024
ssg323
(dp3289
g319
I184
sg320
Vfit
p3290
sg322
I340
ssg326
(dp3291
g319
I325
sg320
Vfit
p3292
sg322
I600
ssg329
(dp3293
g319
I150
sg320
Vcrop
p3294
sg322
I150
sssg39
(lp3295
I81
aI104
asg333
Vphoto
p3296
sg56
L595888234158252032L
sg335
Vhttp://pbs.twimg.com/media/CEUFMRrWYAAlu16.png
p3297
sassg187
Nsg188
Nsg189
I0
sg68
V662890193897177088
p3298
sg191
I00
sg192
g3216
sg193
Nsg194
Nsg195
I00
sg92
g3237
sg100
VSat Nov 07 07:11:52 +0000 2015
p3299
sg197
Nsg198
Nsg199
(dp3300
g201
Ven
p3301
sg203
Vrecent
p3302
sssg205
g3300
sg206
Nsg207
Nsg31
g3243
sg208
Nsg209
Nsg112
g3298
sg210
I00
sg211
Nsg212
I0
sg213
Nsbag0
(g4
g5
Ntp3303
Rp3304
(dp3305
g9
I00
sg10
Nsg11
I00
sg12
Vhttps://t.co/uAcamNRUPt alerted $PTBI +89% MUST SEE TRACK RECORD &amp; SUBSCRIBE https://t.co/tkIn2GV1aE $MNP $TSI $MGF $YUME $AGRX $NRT $PNI
p3306
sg14
Vhttp://biloselhi.com
p3307
sg16
I00
sg17
I00
sg18
Nsg19
g0
(g20
g5
Ntp3308
Rp3309
(dp3310
g24
I00
sg25
I00
sg26
I01
sg27
VFFFFFF
p3311
sg29
L2802272246L
sg30
I00
sg31
(dp3312
g33
(dp3313
g35
(lp3314
(dp3315
g33
Vhttp://t.co/jjWTkVWgFN
p3316
sg39
(lp3317
I0
aI22
asg41
Vhttp://BiloSelhi.com
p3318
sg43
VBiloSelhi.com
p3319
sassg45
(dp3320
g35
(lp3321
(dp3322
g33
Vhttps://t.co/0aFaudDmBY
p3323
sg39
(lp3324
I137
aI160
asg41
Vhttp://biloselhi.com/d.htm
p3325
sg43
Vbiloselhi.com/d.htm
p3326
sasssg48
Vhttps://pbs.twimg.com/profile_images/509778632521154560/DYIdZCfQ_normal.png
p3327
sg50
(dp3328
g52
I00
sg53
I00
sg54
I01
sg55
I00
sg56
L2802272246L
sg57
Vhttps://abs.twimg.com/images/themes/theme13/bg.gif
p3329
sg59
I00
sg60
V333333
p3330
sg62
g3327
sg63
g3311
sg64
g3312
sg65
I11220
sg66
VEEEEEE
p3331
sg68
V2802272246
p3332
sg70
VB2DFDA
p3333
sg72
I72
sg73
I00
sg74
Nsg75
I28395
sg45
VFounder, Bilo Selhi's Stock Alerts. 1,302% return in 13 months. Subscribe today for promo. Follow on Google+ for free trial. DISCLAIMER: https://t.co/0aFaudDmBY
p3334
sg77
I11694
sg78
V \u2193 \u2193 MUST SEE Track record
p3335
sg80
V93A644
p3336
sg82
Vhttp://pbs.twimg.com/profile_images/509778632521154560/DYIdZCfQ_normal.png
p3337
sg84
I00
sg85
I00
sg86
Vhttps://pbs.twimg.com/profile_banners/2802272246/1412893156
p3338
sg88
Vhttp://abs.twimg.com/images/themes/theme13/bg.gif
p3339
sg90
VStocksThatDoubl
p3340
sg92
Ven
p3341
sg94
I00
sg95
I77
sg96
VBilo Selhi
p3342
sg98
I00
sg33
Vhttp://t.co/jjWTkVWgFN
p3343
sg100
VWed Sep 10 18:52:30 +0000 2014
p3344
sg102
I00
sg103
Nsg105
I00
sg106
I00
sg107
I00
ssg108
I00
sg109
g3330
sg110
I11220
sg111
g3331
sg112
g3332
sg113
I00
sg114
I72
sg115
I00
sg116
Nsg117
I28395
sg118
g3334
sg119
I11694
sg120
g3335
sg121
g3336
sg122
g3337
sg123
I00
sg124
I00
sg125
g3333
sg126
g3338
sg127
g3339
sg128
g3340
sg129
g3341
sg130
I00
sg131
I00
sg132
I77
sg133
g3342
sg134
g3343
sg135
g136
(S'\x07\xde\t\n\x124\x1e\x00\x00\x00'
p3345
tp3346
Rp3347
sg140
g3329
sg141
Nsg142
I00
sg143
I00
sg144
I00
sbsg145
Nsg29
L662126019940392960L
sg146
I0
sg147
VNov292014
p3348
sg129
Ven
p3349
sg150
g3309
sg135
g136
(S'\x07\xdf\x0b\x05\x04#\x13\x00\x00\x00'
p3350
tp3351
Rp3352
sg50
(dp3353
g155
Nsg156
I00
sg157
g3306
sg158
I00
sg159
Nsg56
L662126019940392960L
sg160
I0
sg161
V<a href="http://biloselhi.com" rel="nofollow">Nov292014</a>
p3354
sg163
I00
sg164
Nsg64
(dp3355
g166
(lp3356
(dp3357
g39
(lp3358
I32
aI37
asg157
VPTBI
p3359
sa(dp3360
g39
(lp3361
I105
aI109
asg157
VMNP
p3362
sa(dp3363
g39
(lp3364
I110
aI114
asg157
VTSI
p3365
sa(dp3366
g39
(lp3367
I115
aI119
asg157
VMGF
p3368
sa(dp3369
g39
(lp3370
I120
aI125
asg157
VYUME
p3371
sa(dp3372
g39
(lp3373
I126
aI131
asg157
VAGRX
p3374
sa(dp3375
g39
(lp3376
I132
aI136
asg157
VNRT
p3377
sa(dp3378
g39
(lp3379
I137
aI141
asg157
VPNI
p3380
sasg177
(lp3381
sg179
(lp3382
sg35
(lp3383
(dp3384
g33
Vhttps://t.co/uAcamNRUPt
p3385
sg39
(lp3386
I0
aI23
asg41
Vhttp://BiloSelhi.com
p3387
sg43
VBiloSelhi.com
p3388
sasg300
(lp3389
(dp3390
g303
L2802272246L
sg304
V595888238205755392
p3391
sg41
Vhttp://twitter.com/StocksThatDoubl/status/595888238205755392/photo/1
p3392
sg43
Vpic.twitter.com/tkIn2GV1aE
p3393
sg33
Vhttps://t.co/tkIn2GV1aE
p3394
sg309
Vhttps://pbs.twimg.com/media/CEUFMRrWYAAlu16.png
p3395
sg311
V2802272246
p3396
sg313
L595888238205755392L
sg68
V595888234158252032
p3397
sg315
(dp3398
g317
(dp3399
g319
I555
sg320
Vfit
p3400
sg322
I1024
ssg323
(dp3401
g319
I184
sg320
Vfit
p3402
sg322
I340
ssg326
(dp3403
g319
I325
sg320
Vfit
p3404
sg322
I600
ssg329
(dp3405
g319
I150
sg320
Vcrop
p3406
sg322
I150
sssg39
(lp3407
I81
aI104
asg333
Vphoto
p3408
sg56
L595888234158252032L
sg335
Vhttp://pbs.twimg.com/media/CEUFMRrWYAAlu16.png
p3409
sassg187
Nsg188
Nsg189
I0
sg68
V662126019940392960
p3410
sg191
I00
sg192
g3328
sg193
Nsg194
Nsg195
I00
sg92
g3349
sg100
VThu Nov 05 04:35:19 +0000 2015
p3411
sg197
Nsg198
Nsg199
(dp3412
g201
Ven
p3413
sg203
Vrecent
p3414
sssg205
g3412
sg206
Nsg207
Nsg31
g3355
sg208
Nsg209
Nsg112
g3410
sg210
I00
sg211
Nsg212
I0
sg213
Nsbag0
(g4
g5
Ntp3415
Rp3416
(dp3417
g9
I00
sg10
Nsg11
I00
sg12
Vhttps://t.co/zU2nXw8HwB Tim Sykes Review: Student Turns $3,500 Into $108,000 In 6 Months $WPCS $CDTI $AGRX
p3418
sg14
Vhttps://smqueue.com
p3419
sg16
I00
sg17
I00
sg18
Nsg19
g0
(g20
g5
Ntp3420
Rp3421
(dp3422
g24
I00
sg25
I00
sg26
I01
sg27
VDDEEF6
p3423
sg29
I1423715634
sg30
I00
sg31
(dp3424
g33
(dp3425
g35
(lp3426
(dp3427
g33
Vhttp://t.co/NXPgLvMWJo
p3428
sg39
(lp3429
I0
aI22
asg41
Vhttp://barbour2.wordpress.com
p3430
sg43
Vbarbour2.wordpress.com
p3431
sassg45
(dp3432
g35
(lp3433
sssg48
Vhttps://pbs.twimg.com/profile_images/470259528613654528/_VZySs0M_normal.jpeg
p3434
sg50
(dp3435
g52
I00
sg53
I00
sg54
I01
sg55
I00
sg56
I1423715634
sg57
Vhttps://abs.twimg.com/images/themes/theme1/bg.png
p3436
sg59
I00
sg60
V333333
p3437
sg62
g3434
sg63
g3423
sg64
g3424
sg65
I5351
sg66
VC0DEED
p3438
sg68
V1423715634
p3439
sg70
VC0DEED
p3440
sg72
I80
sg73
I00
sg74
I-21600
sg75
I9580
sg45
VI am a stock trader, husband, entrepreneur, physicist, rock climber.
p3441
sg77
I5590
sg78
VBozeman, Montana
p3442
sg80
V0084B4
p3443
sg82
Vhttp://pbs.twimg.com/profile_images/470259528613654528/_VZySs0M_normal.jpeg
p3444
sg84
I00
sg85
I01
sg86
Vhttps://pbs.twimg.com/profile_banners/1423715634/1400958507
p3445
sg88
Vhttp://abs.twimg.com/images/themes/theme1/bg.png
p3446
sg90
VRJB_trading2
p3447
sg92
Ven
p3448
sg94
I00
sg95
I26
sg96
VRussell Barbour
p3449
sg98
I00
sg33
Vhttp://t.co/NXPgLvMWJo
p3450
sg100
VSun May 12 18:21:10 +0000 2013
p3451
sg102
I00
sg103
VCentral Time (US & Canada)
p3452
sg105
I00
sg106
I01
sg107
I00
ssg108
I00
sg109
g3437
sg110
I5351
sg111
g3438
sg112
g3439
sg113
I00
sg114
I80
sg115
I00
sg116
I-21600
sg117
I9580
sg118
g3441
sg119
I5590
sg120
g3442
sg121
g3443
sg122
g3444
sg123
I00
sg124
I01
sg125
g3440
sg126
g3445
sg127
g3446
sg128
g3447
sg129
g3448
sg130
I00
sg131
I00
sg132
I26
sg133
g3449
sg134
g3450
sg135
g136
(S'\x07\xdd\x05\x0c\x12\x15\n\x00\x00\x00'
p3453
tp3454
Rp3455
sg140
g3436
sg141
g3452
sg142
I00
sg143
I01
sg144
I00
sbsg145
Nsg29
L661820550780555264L
sg146
I1
sg147
Vsmqueue
p3456
sg129
Ven
p3457
sg150
g3421
sg135
g136
(S'\x07\xdf\x0b\x04\x08\x15\x1d\x00\x00\x00'
p3458
tp3459
Rp3460
sg50
(dp3461
g155
Nsg156
I00
sg157
g3418
sg158
I00
sg159
Nsg56
L661820550780555264L
sg160
I1
sg161
V<a href="https://smqueue.com" rel="nofollow">smqueue</a>
p3462
sg163
I00
sg164
Nsg64
(dp3463
g166
(lp3464
(dp3465
g39
(lp3466
I89
aI94
asg157
VWPCS
p3467
sa(dp3468
g39
(lp3469
I95
aI100
asg157
VCDTI
p3470
sa(dp3471
g39
(lp3472
I101
aI106
asg157
VAGRX
p3473
sasg177
(lp3474
sg179
(lp3475
sg35
(lp3476
(dp3477
g33
Vhttps://t.co/zU2nXw8HwB
p3478
sg39
(lp3479
I0
aI23
asg41
Vhttp://smq.tc/1QxRT6i
p3480
sg43
Vsmq.tc/1QxRT6i
p3481
sassg187
Nsg188
Nsg189
I0
sg68
V661820550780555264
p3482
sg191
I00
sg192
g3435
sg193
Nsg194
Nsg195
I00
sg92
g3457
sg100
VWed Nov 04 08:21:29 +0000 2015
p3483
sg197
Nsg198
Nsg199
(dp3484
g201
Ven
p3485
sg203
Vrecent
p3486
sssg205
g3484
sg206
Nsg207
Nsg31
g3463
sg208
Nsg209
Nsg112
g3482
sg210
I00
sg211
Nsg212
I0
sg213
Nsbag0
(g4
g5
Ntp3487
Rp3488
(dp3489
g9
I00
sg10
Nsg11
I00
sg12
VRight now AGRX is number 90 for the largest percentage gain out of 245 stocks. $AGRX AGRX is up +19.91% in the https://t.co/0TkUvVzGD2
p3490
sg14
Vhttp://investorshangout.com/
p3491
sg16
I00
sg17
I00
sg18
Nsg19
g0
(g20
g5
Ntp3492
Rp3493
(dp3494
g24
I00
sg25
I00
sg26
I01
sg27
VDAECF4
p3495
sg29
L2181390564L
sg30
I00
sg31
(dp3496
g45
(dp3497
g35
(lp3498
sssg48
Vhttps://pbs.twimg.com/profile_images/378800000709758469/48d4497342037ca58403717d870a5b71_normal.jpeg
p3499
sg50
(dp3500
g52
I00
sg53
I00
sg54
I01
sg55
I00
sg56
L2181390564L
sg57
Vhttps://abs.twimg.com/images/themes/theme2/bg.gif
p3501
sg59
I00
sg60
V663B12
p3502
sg62
g3499
sg63
g3495
sg64
g3496
sg65
I780
sg66
VC6E2EE
p3503
sg68
V2181390564
p3504
sg70
VC6E2EE
p3505
sg72
I176
sg73
I00
sg74
Nsg75
I180580
sg45
VScanning Stocks
p3506
sg77
I454
sg78
g362
sg80
V1F98C7
p3507
sg82
Vhttp://pbs.twimg.com/profile_images/378800000709758469/48d4497342037ca58403717d870a5b71_normal.jpeg
p3508
sg84
I00
sg85
I00
sg88
Vhttp://abs.twimg.com/images/themes/theme2/bg.gif
p3509
sg90
Vdanrocks4
p3510
sg92
Ven
p3511
sg94
I00
sg95
I0
sg96
Vdanrocks
p3512
sg98
I00
sg33
Nsg100
VFri Nov 08 03:41:39 +0000 2013
p3513
sg102
I00
sg103
Nsg105
I00
sg106
I00
sg107
I00
ssg108
I00
sg109
g3502
sg110
I780
sg111
g3503
sg112
g3504
sg113
I00
sg114
I176
sg115
I00
sg116
Nsg117
I180580
sg118
g3506
sg119
I454
sg120
g362
sg121
g3507
sg122
g3508
sg123
I00
sg124
I00
sg125
g3505
sg127
g3509
sg128
g3510
sg129
g3511
sg130
I00
sg131
I00
sg132
I0
sg133
g3512
sg134
Nsg135
g136
(S"\x07\xdd\x0b\x08\x03)'\x00\x00\x00"
p3514
tp3515
Rp3516
sg140
g3501
sg141
Nsg142
I00
sg143
I00
sg144
I00
sbsg145
Nsg29
L661581900436414464L
sg146
I0
sg147
VInvestors Hangout
p3517
sg129
Ven
p3518
sg150
g3493
sg135
g136
(S'\x07\xdf\x0b\x03\x10!\x0b\x00\x00\x00'
p3519
tp3520
Rp3521
sg50
(dp3522
g155
Nsg156
I00
sg157
g3490
sg158
I00
sg159
Nsg56
L661581900436414464L
sg160
I0
sg161
V<a href="http://investorshangout.com/" rel="nofollow">Investors Hangout</a>
p3523
sg163
I00
sg164
Nsg64
(dp3524
g166
(lp3525
(dp3526
g39
(lp3527
I79
aI84
asg157
VAGRX
p3528
sasg177
(lp3529
sg179
(lp3530
sg35
(lp3531
(dp3532
g33
Vhttps://t.co/0TkUvVzGD2
p3533
sg39
(lp3534
I111
aI134
asg41
Vhttp://investorshangout.com/post/view?id=3316217
p3535
sg43
Vinvestorshangout.com/post/view?id=3\u2026
p3536
sassg187
Nsg188
Nsg189
I0
sg68
V661581900436414464
p3537
sg191
I00
sg192
g3500
sg193
Nsg194
Nsg195
I00
sg92
g3518
sg100
VTue Nov 03 16:33:11 +0000 2015
p3538
sg197
Nsg198
Nsg199
(dp3539
g201
Ven
p3540
sg203
Vrecent
p3541
sssg205
g3539
sg206
Nsg207
Nsg31
g3524
sg208
Nsg209
Nsg112
g3537
sg210
I00
sg211
Nsg212
I0
sg213
Nsbag0
(g4
g5
Ntp3542
Rp3543
(dp3544
g9
I00
sg10
Nsg11
I00
sg12
Vhttps://t.co/uAcamNRUPt alerted $PTBI +89% MUST SEE TRACK RECORD &amp; SUBSCRIBE https://t.co/tkIn2GV1aE $MNP $TSI $MGF $YUME $AGRX $NRT $PNI
p3545
sg14
Vhttp://biloselhi.com
p3546
sg16
I00
sg17
I00
sg18
Nsg19
g0
(g20
g5
Ntp3547
Rp3548
(dp3549
g24
I00
sg25
I00
sg26
I01
sg27
VFFFFFF
p3550
sg29
L2802272246L
sg30
I00
sg31
(dp3551
g33
(dp3552
g35
(lp3553
(dp3554
g33
Vhttp://t.co/jjWTkVWgFN
p3555
sg39
(lp3556
I0
aI22
asg41
Vhttp://BiloSelhi.com
p3557
sg43
VBiloSelhi.com
p3558
sassg45
(dp3559
g35
(lp3560
(dp3561
g33
Vhttps://t.co/0aFaudDmBY
p3562
sg39
(lp3563
I137
aI160
asg41
Vhttp://biloselhi.com/d.htm
p3564
sg43
Vbiloselhi.com/d.htm
p3565
sasssg48
Vhttps://pbs.twimg.com/profile_images/509778632521154560/DYIdZCfQ_normal.png
p3566
sg50
(dp3567
g52
I00
sg53
I00
sg54
I01
sg55
I00
sg56
L2802272246L
sg57
Vhttps://abs.twimg.com/images/themes/theme13/bg.gif
p3568
sg59
I00
sg60
V333333
p3569
sg62
g3566
sg63
g3550
sg64
g3551
sg65
I11220
sg66
VEEEEEE
p3570
sg68
V2802272246
p3571
sg70
VB2DFDA
p3572
sg72
I72
sg73
I00
sg74
Nsg75
I28395
sg45
VFounder, Bilo Selhi's Stock Alerts. 1,302% return in 13 months. Subscribe today for promo. Follow on Google+ for free trial. DISCLAIMER: https://t.co/0aFaudDmBY
p3573
sg77
I11694
sg78
V \u2193 \u2193 MUST SEE Track record
p3574
sg80
V93A644
p3575
sg82
Vhttp://pbs.twimg.com/profile_images/509778632521154560/DYIdZCfQ_normal.png
p3576
sg84
I00
sg85
I00
sg86
Vhttps://pbs.twimg.com/profile_banners/2802272246/1412893156
p3577
sg88
Vhttp://abs.twimg.com/images/themes/theme13/bg.gif
p3578
sg90
VStocksThatDoubl
p3579
sg92
Ven
p3580
sg94
I00
sg95
I77
sg96
VBilo Selhi
p3581
sg98
I00
sg33
Vhttp://t.co/jjWTkVWgFN
p3582
sg100
VWed Sep 10 18:52:30 +0000 2014
p3583
sg102
I00
sg103
Nsg105
I00
sg106
I00
sg107
I00
ssg108
I00
sg109
g3569
sg110
I11220
sg111
g3570
sg112
g3571
sg113
I00
sg114
I72
sg115
I00
sg116
Nsg117
I28395
sg118
g3573
sg119
I11694
sg120
g3574
sg121
g3575
sg122
g3576
sg123
I00
sg124
I00
sg125
g3572
sg126
g3577
sg127
g3578
sg128
g3579
sg129
g3580
sg130
I00
sg131
I00
sg132
I77
sg133
g3581
sg134
g3582
sg135
g136
(S'\x07\xde\t\n\x124\x1e\x00\x00\x00'
p3584
tp3585
Rp3586
sg140
g3568
sg141
Nsg142
I00
sg143
I00
sg144
I00
sbsg145
Nsg29
L661519038842015744L
sg146
I0
sg147
VNov292014
p3587
sg129
Ven
p3588
sg150
g3548
sg135
g136
(S'\x07\xdf\x0b\x03\x0c\x17\x17\x00\x00\x00'
p3589
tp3590
Rp3591
sg50
(dp3592
g155
Nsg156
I00
sg157
g3545
sg158
I00
sg159
Nsg56
L661519038842015744L
sg160
I0
sg161
V<a href="http://biloselhi.com" rel="nofollow">Nov292014</a>
p3593
sg163
I00
sg164
Nsg64
(dp3594
g166
(lp3595
(dp3596
g39
(lp3597
I32
aI37
asg157
VPTBI
p3598
sa(dp3599
g39
(lp3600
I105
aI109
asg157
VMNP
p3601
sa(dp3602
g39
(lp3603
I110
aI114
asg157
VTSI
p3604
sa(dp3605
g39
(lp3606
I115
aI119
asg157
VMGF
p3607
sa(dp3608
g39
(lp3609
I120
aI125
asg157
VYUME
p3610
sa(dp3611
g39
(lp3612
I126
aI131
asg157
VAGRX
p3613
sa(dp3614
g39
(lp3615
I132
aI136
asg157
VNRT
p3616
sa(dp3617
g39
(lp3618
I137
aI141
asg157
VPNI
p3619
sasg177
(lp3620
sg179
(lp3621
sg35
(lp3622
(dp3623
g33
Vhttps://t.co/uAcamNRUPt
p3624
sg39
(lp3625
I0
aI23
asg41
Vhttp://BiloSelhi.com
p3626
sg43
VBiloSelhi.com
p3627
sasg300
(lp3628
(dp3629
g303
L2802272246L
sg304
V595888238205755392
p3630
sg41
Vhttp://twitter.com/StocksThatDoubl/status/595888238205755392/photo/1
p3631
sg43
Vpic.twitter.com/tkIn2GV1aE
p3632
sg33
Vhttps://t.co/tkIn2GV1aE
p3633
sg309
Vhttps://pbs.twimg.com/media/CEUFMRrWYAAlu16.png
p3634
sg311
V2802272246
p3635
sg313
L595888238205755392L
sg68
V595888234158252032
p3636
sg315
(dp3637
g317
(dp3638
g319
I555
sg320
Vfit
p3639
sg322
I1024
ssg323
(dp3640
g319
I184
sg320
Vfit
p3641
sg322
I340
ssg326
(dp3642
g319
I325
sg320
Vfit
p3643
sg322
I600
ssg329
(dp3644
g319
I150
sg320
Vcrop
p3645
sg322
I150
sssg39
(lp3646
I81
aI104
asg333
Vphoto
p3647
sg56
L595888234158252032L
sg335
Vhttp://pbs.twimg.com/media/CEUFMRrWYAAlu16.png
p3648
sassg187
Nsg188
Nsg189
I0
sg68
V661519038842015744
p3649
sg191
I00
sg192
g3567
sg193
Nsg194
Nsg195
I00
sg92
g3588
sg100
VTue Nov 03 12:23:23 +0000 2015
p3650
sg197
Nsg198
Nsg199
(dp3651
g201
Ven
p3652
sg203
Vrecent
p3653
sssg205
g3651
sg206
Nsg207
Nsg31
g3594
sg208
Nsg209
Nsg112
g3649
sg210
I00
sg211
Nsg212
I0
sg213
Nsbag0
(g4
g5
Ntp3654
Rp3655
(dp3656
g9
I00
sg10
Nsg11
I00
sg12
Vhttps://t.co/uAcamNRUPt alerted $PTBI +89% MUST SEE TRACK RECORD &amp; SUBSCRIBE https://t.co/tkIn2GV1aE $MNP $TSI $MGF $YUME $AGRX $NRT $PNI
p3657
sg14
Vhttp://biloselhi.com
p3658
sg16
I00
sg17
I00
sg18
Nsg19
g0
(g20
g5
Ntp3659
Rp3660
(dp3661
g24
I00
sg25
I00
sg26
I01
sg27
VFFFFFF
p3662
sg29
L2802272246L
sg30
I00
sg31
(dp3663
g33
(dp3664
g35
(lp3665
(dp3666
g33
Vhttp://t.co/jjWTkVWgFN
p3667
sg39
(lp3668
I0
aI22
asg41
Vhttp://BiloSelhi.com
p3669
sg43
VBiloSelhi.com
p3670
sassg45
(dp3671
g35
(lp3672
(dp3673
g33
Vhttps://t.co/0aFaudDmBY
p3674
sg39
(lp3675
I137
aI160
asg41
Vhttp://biloselhi.com/d.htm
p3676
sg43
Vbiloselhi.com/d.htm
p3677
sasssg48
Vhttps://pbs.twimg.com/profile_images/509778632521154560/DYIdZCfQ_normal.png
p3678
sg50
(dp3679
g52
I00
sg53
I00
sg54
I01
sg55
I00
sg56
L2802272246L
sg57
Vhttps://abs.twimg.com/images/themes/theme13/bg.gif
p3680
sg59
I00
sg60
V333333
p3681
sg62
g3678
sg63
g3662
sg64
g3663
sg65
I11220
sg66
VEEEEEE
p3682
sg68
V2802272246
p3683
sg70
VB2DFDA
p3684
sg72
I72
sg73
I00
sg74
Nsg75
I28395
sg45
VFounder, Bilo Selhi's Stock Alerts. 1,302% return in 13 months. Subscribe today for promo. Follow on Google+ for free trial. DISCLAIMER: https://t.co/0aFaudDmBY
p3685
sg77
I11694
sg78
V \u2193 \u2193 MUST SEE Track record
p3686
sg80
V93A644
p3687
sg82
Vhttp://pbs.twimg.com/profile_images/509778632521154560/DYIdZCfQ_normal.png
p3688
sg84
I00
sg85
I00
sg86
Vhttps://pbs.twimg.com/profile_banners/2802272246/1412893156
p3689
sg88
Vhttp://abs.twimg.com/images/themes/theme13/bg.gif
p3690
sg90
VStocksThatDoubl
p3691
sg92
Ven
p3692
sg94
I00
sg95
I77
sg96
VBilo Selhi
p3693
sg98
I00
sg33
Vhttp://t.co/jjWTkVWgFN
p3694
sg100
VWed Sep 10 18:52:30 +0000 2014
p3695
sg102
I00
sg103
Nsg105
I00
sg106
I00
sg107
I00
ssg108
I00
sg109
g3681
sg110
I11220
sg111
g3682
sg112
g3683
sg113
I00
sg114
I72
sg115
I00
sg116
Nsg117
I28395
sg118
g3685
sg119
I11694
sg120
g3686
sg121
g3687
sg122
g3688
sg123
I00
sg124
I00
sg125
g3684
sg126
g3689
sg127
g3690
sg128
g3691
sg129
g3692
sg130
I00
sg131
I00
sg132
I77
sg133
g3693
sg134
g3694
sg135
g136
(S'\x07\xde\t\n\x124\x1e\x00\x00\x00'
p3696
tp3697
Rp3698
sg140
g3680
sg141
Nsg142
I00
sg143
I00
sg144
I00
sbsg145
Nsg29
L661458557678821376L
sg146
I0
sg147
VNov292014
p3699
sg129
Ven
p3700
sg150
g3660
sg135
g136
(S'\x07\xdf\x0b\x03\x08\x17\x04\x00\x00\x00'
p3701
tp3702
Rp3703
sg50
(dp3704
g155
Nsg156
I00
sg157
g3657
sg158
I00
sg159
Nsg56
L661458557678821376L
sg160
I0
sg161
V<a href="http://biloselhi.com" rel="nofollow">Nov292014</a>
p3705
sg163
I00
sg164
Nsg64
(dp3706
g166
(lp3707
(dp3708
g39
(lp3709
I32
aI37
asg157
VPTBI
p3710
sa(dp3711
g39
(lp3712
I105
aI109
asg157
VMNP
p3713
sa(dp3714
g39
(lp3715
I110
aI114
asg157
VTSI
p3716
sa(dp3717
g39
(lp3718
I115
aI119
asg157
VMGF
p3719
sa(dp3720
g39
(lp3721
I120
aI125
asg157
VYUME
p3722
sa(dp3723
g39
(lp3724
I126
aI131
asg157
VAGRX
p3725
sa(dp3726
g39
(lp3727
I132
aI136
asg157
VNRT
p3728
sa(dp3729
g39
(lp3730
I137
aI141
asg157
VPNI
p3731
sasg177
(lp3732
sg179
(lp3733
sg35
(lp3734
(dp3735
g33
Vhttps://t.co/uAcamNRUPt
p3736
sg39
(lp3737
I0
aI23
asg41
Vhttp://BiloSelhi.com
p3738
sg43
VBiloSelhi.com
p3739
sasg300
(lp3740
(dp3741
g303
L2802272246L
sg304
V595888238205755392
p3742
sg41
Vhttp://twitter.com/StocksThatDoubl/status/595888238205755392/photo/1
p3743
sg43
Vpic.twitter.com/tkIn2GV1aE
p3744
sg33
Vhttps://t.co/tkIn2GV1aE
p3745
sg309
Vhttps://pbs.twimg.com/media/CEUFMRrWYAAlu16.png
p3746
sg311
V2802272246
p3747
sg313
L595888238205755392L
sg68
V595888234158252032
p3748
sg315
(dp3749
g317
(dp3750
g319
I555
sg320
Vfit
p3751
sg322
I1024
ssg323
(dp3752
g319
I184
sg320
Vfit
p3753
sg322
I340
ssg326
(dp3754
g319
I325
sg320
Vfit
p3755
sg322
I600
ssg329
(dp3756
g319
I150
sg320
Vcrop
p3757
sg322
I150
sssg39
(lp3758
I81
aI104
asg333
Vphoto
p3759
sg56
L595888234158252032L
sg335
Vhttp://pbs.twimg.com/media/CEUFMRrWYAAlu16.png
p3760
sassg187
Nsg188
Nsg189
I0
sg68
V661458557678821376
p3761
sg191
I00
sg192
g3679
sg193
Nsg194
Nsg195
I00
sg92
g3700
sg100
VTue Nov 03 08:23:04 +0000 2015
p3762
sg197
Nsg198
Nsg199
(dp3763
g201
Ven
p3764
sg203
Vrecent
p3765
sssg205
g3763
sg206
Nsg207
Nsg31
g3706
sg208
Nsg209
Nsg112
g3761
sg210
I00
sg211
Nsg212
I0
sg213
Nsbag0
(g4
g5
Ntp3766
Rp3767
(dp3768
g9
I00
sg10
Nsg11
I00
sg12
VRight now AGRX is number 81 for the largest percentage gain out of 244 stocks. $AGRX AGRX is up +15.61% in the https://t.co/yUCnDHaQAG
p3769
sg14
Vhttp://investorshangout.com/
p3770
sg16
I00
sg17
I00
sg18
Nsg19
g0
(g20
g5
Ntp3771
Rp3772
(dp3773
g24
I00
sg25
I00
sg26
I01
sg27
VDAECF4
p3774
sg29
L2181390564L
sg30
I00
sg31
(dp3775
g45
(dp3776
g35
(lp3777
sssg48
Vhttps://pbs.twimg.com/profile_images/378800000709758469/48d4497342037ca58403717d870a5b71_normal.jpeg
p3778
sg50
(dp3779
g52
I00
sg53
I00
sg54
I01
sg55
I00
sg56
L2181390564L
sg57
Vhttps://abs.twimg.com/images/themes/theme2/bg.gif
p3780
sg59
I00
sg60
V663B12
p3781
sg62
g3778
sg63
g3774
sg64
g3775
sg65
I780
sg66
VC6E2EE
p3782
sg68
V2181390564
p3783
sg70
VC6E2EE
p3784
sg72
I176
sg73
I00
sg74
Nsg75
I180580
sg45
VScanning Stocks
p3785
sg77
I454
sg78
g362
sg80
V1F98C7
p3786
sg82
Vhttp://pbs.twimg.com/profile_images/378800000709758469/48d4497342037ca58403717d870a5b71_normal.jpeg
p3787
sg84
I00
sg85
I00
sg88
Vhttp://abs.twimg.com/images/themes/theme2/bg.gif
p3788
sg90
Vdanrocks4
p3789
sg92
Ven
p3790
sg94
I00
sg95
I0
sg96
Vdanrocks
p3791
sg98
I00
sg33
Nsg100
VFri Nov 08 03:41:39 +0000 2013
p3792
sg102
I00
sg103
Nsg105
I00
sg106
I00
sg107
I00
ssg108
I00
sg109
g3781
sg110
I780
sg111
g3782
sg112
g3783
sg113
I00
sg114
I176
sg115
I00
sg116
Nsg117
I180580
sg118
g3785
sg119
I454
sg120
g362
sg121
g3786
sg122
g3787
sg123
I00
sg124
I00
sg125
g3784
sg127
g3788
sg128
g3789
sg129
g3790
sg130
I00
sg131
I00
sg132
I0
sg133
g3791
sg134
Nsg135
g136
(S"\x07\xdd\x0b\x08\x03)'\x00\x00\x00"
p3793
tp3794
Rp3795
sg140
g3780
sg141
Nsg142
I00
sg143
I00
sg144
I00
sbsg145
Nsg29
L661217423824019456L
sg146
I0
sg147
VInvestors Hangout
p3796
sg129
Ven
p3797
sg150
g3772
sg135
g136
(S'\x07\xdf\x0b\x02\x10\x185\x00\x00\x00'
p3798
tp3799
Rp3800
sg50
(dp3801
g155
Nsg156
I00
sg157
g3769
sg158
I00
sg159
Nsg56
L661217423824019456L
sg160
I0
sg161
V<a href="http://investorshangout.com/" rel="nofollow">Investors Hangout</a>
p3802
sg163
I00
sg164
Nsg64
(dp3803
g166
(lp3804
(dp3805
g39
(lp3806
I79
aI84
asg157
VAGRX
p3807
sasg177
(lp3808
sg179
(lp3809
sg35
(lp3810
(dp3811
g33
Vhttps://t.co/yUCnDHaQAG
p3812
sg39
(lp3813
I111
aI134
asg41
Vhttp://investorshangout.com/post/view?id=3313881
p3814
sg43
Vinvestorshangout.com/post/view?id=3\u2026
p3815
sassg187
Nsg188
Nsg189
I0
sg68
V661217423824019456
p3816
sg191
I00
sg192
g3779
sg193
Nsg194
Nsg195
I00
sg92
g3797
sg100
VMon Nov 02 16:24:53 +0000 2015
p3817
sg197
Nsg198
Nsg199
(dp3818
g201
Ven
p3819
sg203
Vrecent
p3820
sssg205
g3818
sg206
Nsg207
Nsg31
g3803
sg208
Nsg209
Nsg112
g3816
sg210
I00
sg211
Nsg212
I0
sg213
Nsbag0
(g4
g5
Ntp3821
Rp3822
(dp3823
g9
I00
sg10
Nsg11
I00
sg12
Vclayton: AGRX 7.94 Agile Therapeutics Inc $AGRX added to https://t.co/WntBNNEMAt
p3824
sg14
Vhttp://ifttt.com
p3825
sg16
I00
sg17
I00
sg18
Nsg19
g0
(g20
g5
Ntp3826
Rp3827
(dp3828
g24
I00
sg25
I00
sg26
I01
sg27
VDDEEF6
p3829
sg29
I376367767
sg30
I00
sg31
(dp3830
g45
(dp3831
g35
(lp3832
sssg48
Vhttps://pbs.twimg.com/profile_images/659222211903885313/fHMby9u-_normal.jpg
p3833
sg50
(dp3834
g52
I00
sg53
I00
sg54
I01
sg55
I00
sg56
I376367767
sg57
Vhttps://pbs.twimg.com/profile_background_images/757010425/71658e28e6bd257fd2dc7f2e47b0a0f0.png
p3835
sg59
I00
sg60
V333333
p3836
sg62
g3833
sg63
g3829
sg64
g3830
sg65
I1928
sg66
V000000
p3837
sg68
V376367767
p3838
sg70
VC0DEED
p3839
sg72
I44
sg73
I00
sg74
I-18000
sg75
I66309
sg45
V#penny stocks #otc #stocks #wallstreet #nasdaq #stockmarket #winningpicks #followme #investors\u000a\u000aEverything I say is in my opinion.
p3840
sg77
I2516
sg78
g362
sg80
V0084B4
p3841
sg82
Vhttp://pbs.twimg.com/profile_images/659222211903885313/fHMby9u-_normal.jpg
p3842
sg84
I00
sg85
I01
sg86
Vhttps://pbs.twimg.com/profile_banners/376367767/1390265961
p3843
sg88
Vhttp://pbs.twimg.com/profile_background_images/757010425/71658e28e6bd257fd2dc7f2e47b0a0f0.png
p3844
sg90
VRCat55
p3845
sg92
Ven
p3846
sg94
I01
sg95
I677
sg96
VExtreme Stocks
p3847
sg98
I00
sg33
Nsg100
VMon Sep 19 19:22:37 +0000 2011
p3848
sg102
I00
sg103
VEastern Time (US & Canada)
p3849
sg105
I00
sg106
I00
sg107
I00
ssg108
I00
sg109
g3836
sg110
I1928
sg111
g3837
sg112
g3838
sg113
I00
sg114
I44
sg115
I00
sg116
I-18000
sg117
I66309
sg118
V#penny stocks #otc #stocks #wallstreet #nasdaq #stockmarket #winningpicks #followme #investors\u000a\u000aEverything I say is in my opinion.
p3850
sg119
I2516
sg120
g362
sg121
g3841
sg122
g3842
sg123
I00
sg124
I01
sg125
g3839
sg126
g3843
sg127
g3844
sg128
g3845
sg129
g3846
sg130
I00
sg131
I01
sg132
I677
sg133
g3847
sg134
Nsg135
g136
(S'\x07\xdb\t\x13\x13\x16%\x00\x00\x00'
p3851
tp3852
Rp3853
sg140
g3835
sg141
g3849
sg142
I00
sg143
I00
sg144
I00
sbsg145
Nsg29
L661212712907759616L
sg146
I0
sg147
VIFTTT
p3854
sg129
Ven
p3855
sg150
g3827
sg135
g136
(S'\x07\xdf\x0b\x02\x10\x06\n\x00\x00\x00'
p3856
tp3857
Rp3858
sg50
(dp3859
g155
Nsg156
I00
sg157
g3824
sg158
I00
sg159
Nsg56
L661212712907759616L
sg160
I0
sg161
V<a href="http://ifttt.com" rel="nofollow">IFTTT</a>
p3860
sg163
I00
sg164
Nsg64
(dp3861
g166
(lp3862
(dp3863
g39
(lp3864
I42
aI47
asg157
VAGRX
p3865
sasg177
(lp3866
sg179
(lp3867
sg35
(lp3868
(dp3869
g33
Vhttps://t.co/WntBNNEMAt
p3870
sg39
(lp3871
I57
aI80
asg41
Vhttp://ift.tt/1iy4mvc
p3872
sg43
Vift.tt/1iy4mvc
p3873
sassg187
Nsg188
Nsg189
I0
sg68
V661212712907759616
p3874
sg191
I00
sg192
g3834
sg193
Nsg194
Nsg195
I00
sg92
g3855
sg100
VMon Nov 02 16:06:10 +0000 2015
p3875
sg197
Nsg198
Nsg199
(dp3876
g201
Ven
p3877
sg203
Vrecent
p3878
sssg205
g3876
sg206
Nsg207
Nsg31
g3861
sg208
Nsg209
Nsg112
g3874
sg210
I00
sg211
Nsg212
I0
sg213
Nsbag0
(g4
g5
Ntp3879
Rp3880
(dp3881
g9
I00
sg10
Nsg11
I00
sg12
VAGRX 7.94 Agile Therapeutics Inc $AGRX added to my watch list. Right now with AGRX I am watching the last pric https://t.co/ENuuDpxj7w
p3882
sg14
Vhttp://investorshangout.com/
p3883
sg16
I00
sg17
I00
sg18
Nsg19
g0
(g20
g5
Ntp3884
Rp3885
(dp3886
g24
I00
sg25
I00
sg26
I01
sg27
V252429
p3887
sg29
L2181326676L
sg30
I00
sg31
(dp3888
g45
(dp3889
g35
(lp3890
sssg48
Vhttps://pbs.twimg.com/profile_images/378800000709615783/34899be83af19233fc355a5a66c003e2_normal.jpeg
p3891
sg50
(dp3892
g52
I00
sg53
I00
sg54
I01
sg55
I00
sg56
L2181326676L
sg57
Vhttps://abs.twimg.com/images/themes/theme9/bg.gif
p3893
sg59
I00
sg60
V666666
p3894
sg62
g3891
sg63
g3887
sg64
g3888
sg65
I687
sg66
V181A1E
p3895
sg68
V2181326676
p3896
sg70
V1A1B1F
p3897
sg72
I170
sg73
I00
sg74
Nsg75
I184235
sg45
VI tweet stock research
p3898
sg77
I445
sg78
g362
sg80
V2FC2EF
p3899
sg82
Vhttp://pbs.twimg.com/profile_images/378800000709615783/34899be83af19233fc355a5a66c003e2_normal.jpeg
p3900
sg84
I00
sg85
I00
sg88
Vhttp://abs.twimg.com/images/themes/theme9/bg.gif
p3901
sg90
Vclayton_dd
p3902
sg92
Ven
p3903
sg94
I00
sg95
I0
sg96
Vclayton
p3904
sg98
I00
sg33
Nsg100
VFri Nov 08 02:53:01 +0000 2013
p3905
sg102
I00
sg103
Nsg105
I00
sg106
I00
sg107
I00
ssg108
I00
sg109
g3894
sg110
I687
sg111
g3895
sg112
g3896
sg113
I00
sg114
I170
sg115
I00
sg116
Nsg117
I184235
sg118
g3898
sg119
I445
sg120
g362
sg121
g3899
sg122
g3900
sg123
I00
sg124
I00
sg125
g3897
sg127
g3901
sg128
g3902
sg129
g3903
sg130
I00
sg131
I00
sg132
I0
sg133
g3904
sg134
Nsg135
g136
(S'\x07\xdd\x0b\x08\x025\x01\x00\x00\x00'
p3906
tp3907
Rp3908
sg140
g3893
sg141
Nsg142
I00
sg143
I00
sg144
I00
sbsg145
Nsg29
L661209528713654273L
sg146
I0
sg147
VInvestors Hangout
p3909
sg129
Ven
p3910
sg150
g3885
sg135
g136
(S'\x07\xdf\x0b\x02\x0f5\x1e\x00\x00\x00'
p3911
tp3912
Rp3913
sg50
(dp3914
g155
Nsg156
I00
sg157
g3882
sg158
I00
sg159
Nsg56
L661209528713654273L
sg160
I0
sg161
V<a href="http://investorshangout.com/" rel="nofollow">Investors Hangout</a>
p3915
sg163
I00
sg164
Nsg64
(dp3916
g166
(lp3917
(dp3918
g39
(lp3919
I33
aI38
asg157
VAGRX
p3920
sasg177
(lp3921
sg179
(lp3922
sg35
(lp3923
(dp3924
g33
Vhttps://t.co/ENuuDpxj7w
p3925
sg39
(lp3926
I111
aI134
asg41
Vhttp://investorshangout.com/post/view?id=3313629
p3927
sg43
Vinvestorshangout.com/post/view?id=3\u2026
p3928
sassg187
Nsg188
Nsg189
I0
sg68
V661209528713654273
p3929
sg191
I00
sg192
g3892
sg193
Nsg194
Nsg195
I00
sg92
g3910
sg100
VMon Nov 02 15:53:30 +0000 2015
p3930
sg197
Nsg198
Nsg199
(dp3931
g201
Ven
p3932
sg203
Vrecent
p3933
sssg205
g3931
sg206
Nsg207
Nsg31
g3916
sg208
Nsg209
Nsg112
g3929
sg210
I00
sg211
Nsg212
I0
sg213
Nsbatp3934
Rp3935
(dp3936
S'count'
p3937
I100
sS'completed_in'
p3938
F0.166
sS'_since_id'
p3939
NsS'refresh_url'
p3940
V?since_id=664433077893009408&q=%24AGRX&include_entities=1
p3941
sS'query'
p3942
V%24AGRX
p3943
sS'_max_id'
p3944
NsS'next_results'
p3945
Nsb.