ccopy_reg
_reconstructor
p0
(ctweepy.models
SearchResults
p1
c__builtin__
list
p2
(lp3
tp4
Rp5
(dp6
S'count'
p7
I100
sS'completed_in'
p8
F0.023
sS'_since_id'
p9
NsS'refresh_url'
p10
V?since_id=664448380920172544&q=%24CNLMR&include_entities=1
p11
sS'query'
p12
V%24CNLMR
p13
sS'_max_id'
p14
NsS'next_results'
p15
Nsb.