ccopy_reg
_reconstructor
p0
(ctweepy.models
SearchResults
p1
c__builtin__
list
p2
(lp3
g0
(ctweepy.models
Status
p4
c__builtin__
object
p5
Ntp6
Rp7
(dp8
S'favorited'
p9
I00
sS'contributors'
p10
NsS'truncated'
p11
I00
sS'text'
p12
VADX Uptrend https://t.co/BJ84pKAaUU $FDX $STMP $KALU $CRL $NDSN $RHP $ALG $AHL $WABC $DBJP $OLED $XON $NILE $CNK $CRVL $CATY $IRMD $MED
p13
sS'source_url'
p14
Vhttp://twitter.com
p15
sS'possibly_sensitive'
p16
I00
sS'is_quote_status'
p17
I00
sS'in_reply_to_status_id'
p18
NsS'user'
p19
g0
(ctweepy.models
User
p20
g5
Ntp21
Rp22
(dp23
S'follow_request_sent'
p24
I00
sS'has_extended_profile'
p25
I00
sS'profile_use_background_image'
p26
I01
sS'profile_sidebar_fill_color'
p27
VDDEEF6
p28
sS'id'
p29
I528770977
sS'verified'
p30
I00
sS'entities'
p31
(dp32
Vurl
p33
(dp34
Vurls
p35
(lp36
(dp37
g33
Vhttp://t.co/yagT24hKEz
p38
sVindices
p39
(lp40
I0
aI22
asVexpanded_url
p41
Vhttp://www.dailystockplays.com
p42
sVdisplay_url
p43
Vdailystockplays.com
p44
sassVdescription
p45
(dp46
g35
(lp47
(dp48
g33
Vhttp://t.co/t0RdDDmf07
p49
sg39
(lp50
I73
aI95
asg41
Vhttp://DailyStockPlays.com
p51
sg43
VDailyStockPlays.com
p52
sasssS'profile_image_url_https'
p53
Vhttps://pbs.twimg.com/profile_images/601604696671817728/EntLiuyJ_normal.jpg
p54
sS'_json'
p55
(dp56
Vfollow_request_sent
p57
I00
sVhas_extended_profile
p58
I00
sVprofile_use_background_image
p59
I01
sVdefault_profile_image
p60
I00
sVid
p61
I528770977
sVprofile_background_image_url_https
p62
Vhttps://pbs.twimg.com/profile_background_images/572170271050588160/E1MW3Dim.jpeg
p63
sVverified
p64
I00
sVprofile_text_color
p65
V333333
p66
sVprofile_image_url_https
p67
g54
sVprofile_sidebar_fill_color
p68
g28
sVentities
p69
g32
sVfollowers_count
p70
I1570
sVprofile_sidebar_border_color
p71
VC0DEED
p72
sVid_str
p73
V528770977
p74
sVprofile_background_color
p75
VC0DEED
p76
sVlisted_count
p77
I82
sVis_translation_enabled
p78
I00
sVutc_offset
p79
I-28800
sVstatuses_count
p80
I20063
sg45
VConsistent profitable Day Trades and Swing Trades in the Members Area on http://t.co/t0RdDDmf07 - Free 7 Day Trial Membership. Subscribe to us on YouTube.
p81
sVfriends_count
p82
I468
sVlocation
p83
VCalifornia
p84
sVprofile_link_color
p85
V0084B4
p86
sVprofile_image_url
p87
Vhttp://pbs.twimg.com/profile_images/601604696671817728/EntLiuyJ_normal.jpg
p88
sVfollowing
p89
I00
sVgeo_enabled
p90
I00
sVprofile_background_image_url
p91
Vhttp://pbs.twimg.com/profile_background_images/572170271050588160/E1MW3Dim.jpeg
p92
sVscreen_name
p93
VDailyStockPlays
p94
sVlang
p95
Ven
p96
sVprofile_background_tile
p97
I00
sVfavourites_count
p98
I6
sVname
p99
Vdailystockplays.com
p100
sVnotifications
p101
I00
sg33
Vhttp://t.co/yagT24hKEz
p102
sVcreated_at
p103
VSun Mar 18 19:19:58 +0000 2012
p104
sVcontributors_enabled
p105
I00
sVtime_zone
p106
VPacific Time (US & Canada)
p107
sVprotected
p108
I00
sVdefault_profile
p109
I00
sVis_translator
p110
I00
ssS'contributors_enabled'
p111
I00
sS'profile_text_color'
p112
g66
sS'followers_count'
p113
I1570
sS'profile_sidebar_border_color'
p114
g72
sS'id_str'
p115
g74
sS'default_profile_image'
p116
I00
sS'listed_count'
p117
I82
sS'is_translation_enabled'
p118
I00
sS'utc_offset'
p119
I-28800
sS'statuses_count'
p120
I20063
sS'description'
p121
g81
sS'friends_count'
p122
I468
sS'location'
p123
g84
sS'profile_link_color'
p124
g86
sS'profile_image_url'
p125
g88
sS'notifications'
p126
I00
sS'geo_enabled'
p127
I00
sS'profile_background_color'
p128
g76
sS'profile_background_image_url'
p129
g92
sS'screen_name'
p130
g94
sS'lang'
p131
g96
sS'following'
p132
I00
sS'profile_background_tile'
p133
I00
sS'favourites_count'
p134
I6
sS'name'
p135
g100
sS'url'
p136
g102
sS'created_at'
p137
cdatetime
datetime
p138
(S'\x07\xdc\x03\x12\x13\x13:\x00\x00\x00'
p139
tp140
Rp141
sS'profile_background_image_url_https'
p142
g63
sS'time_zone'
p143
g107
sS'protected'
p144
I00
sS'default_profile'
p145
I00
sS'is_translator'
p146
I00
sbsS'geo'
p147
Nsg29
L663864604875866112L
sS'favorite_count'
p148
I0
sS'source'
p149
VTwitter Web Client
p150
sg131
Ven
p151
sS'author'
p152
g22
sg137
g138
(S'\x07\xdf\x0b\t\x17+2\x00\x00\x00'
p153
tp154
Rp155
sg55
(dp156
Vcontributors
p157
NsVtruncated
p158
I00
sVtext
p159
g13
sVis_quote_status
p160
I00
sVin_reply_to_status_id
p161
Nsg61
L663864604875866112L
sVfavorite_count
p162
I0
sVsource
p163
V<a href="http://twitter.com" rel="nofollow">Twitter Web Client</a>
p164
sVretweeted
p165
I00
sVcoordinates
p166
Nsg69
(dp167
Vsymbols
p168
(lp169
(dp170
g39
(lp171
I36
aI40
asg159
VFDX
p172
sa(dp173
g39
(lp174
I41
aI46
asg159
VSTMP
p175
sa(dp176
g39
(lp177
I47
aI52
asg159
VKALU
p178
sa(dp179
g39
(lp180
I53
aI57
asg159
VCRL
p181
sa(dp182
g39
(lp183
I58
aI63
asg159
VNDSN
p184
sa(dp185
g39
(lp186
I64
aI68
asg159
VRHP
p187
sa(dp188
g39
(lp189
I69
aI73
asg159
VALG
p190
sa(dp191
g39
(lp192
I74
aI78
asg159
VAHL
p193
sa(dp194
g39
(lp195
I79
aI84
asg159
VWABC
p196
sa(dp197
g39
(lp198
I85
aI90
asg159
VDBJP
p199
sa(dp200
g39
(lp201
I91
aI96
asg159
VOLED
p202
sa(dp203
g39
(lp204
I97
aI101
asg159
VXON
p205
sa(dp206
g39
(lp207
I102
aI107
asg159
VNILE
p208
sa(dp209
g39
(lp210
I108
aI112
asg159
VCNK
p211
sa(dp212
g39
(lp213
I113
aI118
asg159
VCRVL
p214
sa(dp215
g39
(lp216
I119
aI124
asg159
VCATY
p217
sa(dp218
g39
(lp219
I125
aI130
asg159
VIRMD
p220
sa(dp221
g39
(lp222
I131
aI135
asg159
VMED
p223
sasVuser_mentions
p224
(lp225
sVhashtags
p226
(lp227
sg35
(lp228
(dp229
g33
Vhttps://t.co/BJ84pKAaUU
p230
sg39
(lp231
I12
aI35
asg41
Vhttp://www.dailystockplays.com/ADX-Uptrend-2015-11-09.html
p232
sg43
Vdailystockplays.com/ADX-Uptrend-20\u2026
p233
sassVin_reply_to_screen_name
p234
NsVin_reply_to_user_id
p235
NsVretweet_count
p236
I0
sg73
V663864604875866112
p237
sVfavorited
p238
I00
sVuser
p239
g56
sVgeo
p240
NsVin_reply_to_user_id_str
p241
NsVpossibly_sensitive
p242
I00
sg95
g151
sg103
VMon Nov 09 23:43:50 +0000 2015
p243
sVin_reply_to_status_id_str
p244
NsVplace
p245
NsVmetadata
p246
(dp247
Viso_language_code
p248
Ven
p249
sVresult_type
p250
Vrecent
p251
sssS'metadata'
p252
g247
sS'coordinates'
p253
NsS'in_reply_to_user_id_str'
p254
Nsg31
g167
sS'in_reply_to_status_id_str'
p255
NsS'in_reply_to_screen_name'
p256
Nsg115
g237
sS'retweeted'
p257
I00
sS'place'
p258
NsS'retweet_count'
p259
I0
sS'in_reply_to_user_id'
p260
Nsbag0
(g4
g5
Ntp261
Rp262
(dp263
g9
I00
sg10
Nsg11
I00
sg12
V$CRVL:\u000a\u000aNew Insider Transaction on CRVL by Chief Financial Officer:\u000a\u000ahttps://t.co/qAEKimgqvB
p264
sg14
Vhttp://www.stocknewswires.com
p265
sg16
I00
sg17
I00
sg18
Nsg19
g0
(g20
g5
Ntp266
Rp267
(dp268
g24
I00
sg25
I00
sg26
I01
sg27
VE3E2DE
p269
sg29
L2344619544L
sg30
I00
sg31
(dp270
g45
(dp271
g35
(lp272
sssg53
Vhttps://pbs.twimg.com/profile_images/562292381764952064/mVtp0UmJ_normal.jpeg
p273
sg55
(dp274
g57
I00
sg58
I00
sg59
I01
sg60
I00
sg61
L2344619544L
sg62
Vhttps://abs.twimg.com/images/themes/theme3/bg.gif
p275
sg64
I00
sg65
V634047
p276
sg67
g273
sg68
g269
sg69
g270
sg70
I516
sg71
VD3D2CF
p277
sg73
V2344619544
p278
sg75
VEDECE9
p279
sg77
I85
sg78
I01
sg79
I-18000
sg80
I182020
sg45
VNews about Stocks
p280
sg82
I0
sg83
VU.S.
p281
sg85
V088253
p282
sg87
Vhttp://pbs.twimg.com/profile_images/562292381764952064/mVtp0UmJ_normal.jpeg
p283
sg89
I00
sg90
I00
sg91
Vhttp://abs.twimg.com/images/themes/theme3/bg.gif
p284
sg93
VNewsToDesk
p285
sg95
Ven
p286
sg97
I00
sg98
I0
sg99
VBreakingStocksNews
p287
sg101
I00
sg33
Nsg103
VSat Feb 15 05:49:10 +0000 2014
p288
sg105
I00
sg106
VEastern Time (US & Canada)
p289
sg108
I00
sg109
I00
sg110
I00
ssg111
I00
sg112
g276
sg113
I516
sg114
g277
sg115
g278
sg116
I00
sg117
I85
sg118
I01
sg119
I-18000
sg120
I182020
sg121
g280
sg122
I0
sg123
g281
sg124
g282
sg125
g283
sg126
I00
sg127
I00
sg128
g279
sg129
g284
sg130
g285
sg131
g286
sg132
I00
sg133
I00
sg134
I0
sg135
g287
sg136
Nsg137
g138
(S'\x07\xde\x02\x0f\x051\n\x00\x00\x00'
p290
tp291
Rp292
sg142
g275
sg143
g289
sg144
I00
sg145
I00
sg146
I00
sbsg147
Nsg29
L663860383099265028L
sg148
I0
sg149
VStockNewsWires
p293
sg131
Ven
p294
sg152
g267
sg137
g138
(S'\x07\xdf\x0b\t\x17\x1b\x03\x00\x00\x00'
p295
tp296
Rp297
sg55
(dp298
g157
Nsg158
I00
sg159
V$CRVL:\u000a\u000aNew Insider Transaction on CRVL by Chief Financial Officer:\u000a\u000ahttps://t.co/qAEKimgqvB
p299
sg160
I00
sg161
Nsg61
L663860383099265028L
sg162
I0
sg163
V<a href="http://www.stocknewswires.com" rel="nofollow">StockNewsWires</a>
p300
sg165
I00
sg166
Nsg69
(dp301
g168
(lp302
(dp303
g39
(lp304
I0
aI5
asg159
VCRVL
p305
sasg224
(lp306
sg226
(lp307
sg35
(lp308
(dp309
g33
Vhttps://t.co/qAEKimgqvB
p310
sg39
(lp311
I69
aI92
asg41
Vhttp://StockNewsHour.com/crvl-new-insider-transaction-on-crvl-by-chief-financial-officer/
p312
sg43
VStockNewsHour.com/crvl-new-insid\u2026
p313
sassg234
Nsg235
Nsg236
I0
sg73
V663860383099265028
p314
sg238
I00
sg239
g274
sg240
Nsg241
Nsg242
I00
sg95
g294
sg103
VMon Nov 09 23:27:03 +0000 2015
p315
sg244
Nsg245
Nsg246
(dp316
g248
Ven
p317
sg250
Vrecent
p318
sssg252
g316
sg253
Nsg254
Nsg31
g301
sg255
Nsg256
Nsg115
g314
sg257
I00
sg258
Nsg259
I0
sg260
Nsbag0
(g4
g5
Ntp319
Rp320
(dp321
g9
I00
sg10
Nsg11
I00
sg12
VNEW insider transaction on $CRVL reported a moment ago: https://t.co/wF5R3fUkQf
p322
sg14
Vhttp://insideri.com
p323
sg16
I00
sg17
I00
sg18
Nsg19
g0
(g20
g5
Ntp324
Rp325
(dp326
g24
I00
sg25
I00
sg26
I00
sg27
V000000
p327
sg29
L2344420430L
sg30
I00
sg31
(dp328
g45
(dp329
g35
(lp330
sssg53
Vhttps://pbs.twimg.com/profile_images/548481313670299648/XBAwS1Wn_normal.jpeg
p331
sg55
(dp332
g57
I00
sg58
I00
sg59
I00
sg60
I00
sg61
L2344420430L
sg62
Vhttps://abs.twimg.com/images/themes/theme8/bg.gif
p333
sg64
I00
sg65
V000000
p334
sg67
g331
sg68
g327
sg69
g328
sg70
I335
sg71
V000000
p335
sg73
V2344420430
p336
sg75
V000000
p337
sg77
I23
sg78
I00
sg79
I-18000
sg80
I57351
sg45
VFollow stock purchases and sales by insiders
p338
sg82
I0
sg83
VUnited States
p339
sg85
V9266CC
p340
sg87
Vhttp://pbs.twimg.com/profile_images/548481313670299648/XBAwS1Wn_normal.jpeg
p341
sg89
I00
sg90
I00
sg91
Vhttp://abs.twimg.com/images/themes/theme8/bg.gif
p342
sg93
VInsiderAlertsIA
p343
sg95
Ven
p344
sg97
I00
sg98
I0
sg99
VInsider Alerts
p345
sg101
I00
sg33
Nsg103
VSat Feb 15 02:29:07 +0000 2014
p346
sg105
I00
sg106
VEastern Time (US & Canada)
p347
sg108
I00
sg109
I00
sg110
I00
ssg111
I00
sg112
g334
sg113
I335
sg114
g335
sg115
g336
sg116
I00
sg117
I23
sg118
I00
sg119
I-18000
sg120
I57351
sg121
g338
sg122
I0
sg123
g339
sg124
g340
sg125
g341
sg126
I00
sg127
I00
sg128
g337
sg129
g342
sg130
g343
sg131
g344
sg132
I00
sg133
I00
sg134
I0
sg135
g345
sg136
Nsg137
g138
(S'\x07\xde\x02\x0f\x02\x1d\x07\x00\x00\x00'
p348
tp349
Rp350
sg142
g333
sg143
g347
sg144
I00
sg145
I00
sg146
I00
sbsg147
Nsg29
L663860239826067456L
sg148
I0
sg149
VInsider Alerts
p351
sg131
Ven
p352
sg152
g325
sg137
g138
(S'\x07\xdf\x0b\t\x17\x1a\x1d\x00\x00\x00'
p353
tp354
Rp355
sg55
(dp356
g157
Nsg158
I00
sg159
g322
sg160
I00
sg161
Nsg61
L663860239826067456L
sg162
I0
sg163
V<a href="http://insideri.com" rel="nofollow">Insider Alerts</a>
p357
sg165
I00
sg166
Nsg69
(dp358
g168
(lp359
(dp360
g39
(lp361
I27
aI32
asg159
VCRVL
p362
sasg224
(lp363
sg226
(lp364
sg35
(lp365
(dp366
g33
Vhttps://t.co/wF5R3fUkQf
p367
sg39
(lp368
I56
aI79
asg41
Vhttp://insideri.com/1230879_000123087915000008_0001230879-15-000008
p369
sg43
Vinsideri.com/1230879_000123\u2026
p370
sassg234
Nsg235
Nsg236
I0
sg73
V663860239826067456
p371
sg238
I00
sg239
g332
sg240
Nsg241
Nsg242
I00
sg95
g352
sg103
VMon Nov 09 23:26:29 +0000 2015
p372
sg244
Nsg245
Nsg246
(dp373
g248
Ven
p374
sg250
Vrecent
p375
sssg252
g373
sg253
Nsg254
Nsg31
g358
sg255
Nsg256
Nsg115
g371
sg257
I00
sg258
Nsg259
I0
sg260
Nsbag0
(g4
g5
Ntp376
Rp377
(dp378
g9
I00
sg10
Nsg11
I00
sg12
VThe Most Accurate Stock Alert Service Made $240,000 Yesterday https://t.co/8WvnrVmkBS .. $CRVL $MELA $TWIN
p379
sg14
Vhttp://socialadcenter.com
p380
sg16
I00
sg17
I00
sg18
Nsg19
g0
(g20
g5
Ntp381
Rp382
(dp383
g24
I00
sg25
I00
sg26
I01
sg27
VDDEEF6
p384
sg29
L2730855593L
sg30
I00
sg31
(dp385
g33
(dp386
g35
(lp387
(dp388
g33
Vhttp://t.co/UWzH8kOOl9
p389
sg39
(lp390
I0
aI22
asg41
Vhttp://PennyStockSecret.com
p391
sg43
VPennyStockSecret.com
p392
sassg45
(dp393
g35
(lp394
(dp395
g33
Vhttp://t.co/UWzH8kOOl9
p396
sg39
(lp397
I11
aI33
asg41
Vhttp://PennyStockSecret.com
p398
sg43
VPennyStockSecret.com
p399
sasssg53
Vhttps://pbs.twimg.com/profile_images/573247485616889856/gHAtYS9O_normal.png
p400
sg55
(dp401
g57
I00
sg58
I00
sg59
I01
sg60
I00
sg61
L2730855593L
sg62
Vhttps://abs.twimg.com/images/themes/theme1/bg.png
p402
sg64
I00
sg65
V333333
p403
sg67
g400
sg68
g384
sg69
g385
sg70
I2515
sg71
VC0DEED
p404
sg73
V2730855593
p405
sg75
VC0DEED
p406
sg77
I25
sg78
I00
sg79
I0
sg80
I53232
sg45
VSign up to http://t.co/UWzH8kOOl9  and get the premiere penny stock newsletter for free! make sure you subscribe today!
p407
sg82
I9
sg83
VUSA
p408
sg85
V0084B4
p409
sg87
Vhttp://pbs.twimg.com/profile_images/573247485616889856/gHAtYS9O_normal.png
p410
sg89
I00
sg90
I00
sVprofile_banner_url
p411
Vhttps://pbs.twimg.com/profile_banners/2730855593/1425507876
p412
sg91
Vhttp://abs.twimg.com/images/themes/theme1/bg.png
p413
sg93
Vstockschamp
p414
sg95
Ven
p415
sg97
I00
sg98
I0
sg99
Vstockschamp
p416
sg101
I00
sg33
Vhttp://t.co/UWzH8kOOl9
p417
sg103
VFri Aug 01 16:39:24 +0000 2014
p418
sg105
I00
sg106
VDublin
p419
sg108
I00
sg109
I01
sg110
I00
ssg111
I00
sg112
g403
sg113
I2515
sg114
g404
sg115
g405
sg116
I00
sg117
I25
sg118
I00
sg119
I0
sg120
I53232
sg121
g407
sg122
I9
sg123
g408
sg124
g409
sg125
g410
sg126
I00
sg127
I00
sg128
g406
sS'profile_banner_url'
p420
g412
sg129
g413
sg130
g414
sg131
g415
sg132
I00
sg133
I00
sg134
I0
sg135
g416
sg136
g417
sg137
g138
(S"\x07\xde\x08\x01\x10'\x18\x00\x00\x00"
p421
tp422
Rp423
sg142
g402
sg143
g419
sg144
I00
sg145
I01
sg146
I00
sbsg147
Nsg29
L663590772059406336L
sg148
I0
sg149
VSocial Ad Center
p424
sg131
Ven
p425
sg152
g382
sg137
g138
(S'\x07\xdf\x0b\t\x05#+\x00\x00\x00'
p426
tp427
Rp428
sg55
(dp429
g157
Nsg158
I00
sg159
g379
sg160
I00
sg161
Nsg61
L663590772059406336L
sg162
I0
sg163
V<a href="http://socialadcenter.com" rel="nofollow">Social Ad Center</a>
p430
sg165
I00
sg166
Nsg69
(dp431
g168
(lp432
(dp433
g39
(lp434
I89
aI94
asg159
VCRVL
p435
sa(dp436
g39
(lp437
I95
aI100
asg159
VMELA
p438
sa(dp439
g39
(lp440
I101
aI106
asg159
VTWIN
p441
sasg224
(lp442
sg226
(lp443
sg35
(lp444
(dp445
g33
Vhttps://t.co/8WvnrVmkBS
p446
sg39
(lp447
I62
aI85
asg41
Vhttp://PennyStockSecret.com
p448
sg43
VPennyStockSecret.com
p449
sassg234
Nsg235
Nsg236
I0
sg73
V663590772059406336
p450
sg238
I00
sg239
g401
sg240
Nsg241
Nsg242
I00
sg95
g425
sg103
VMon Nov 09 05:35:43 +0000 2015
p451
sg244
Nsg245
Nsg246
(dp452
g248
Ven
p453
sg250
Vrecent
p454
sssg252
g452
sg253
Nsg254
Nsg31
g431
sg255
Nsg256
Nsg115
g450
sg257
I00
sg258
Nsg259
I0
sg260
Nsbag0
(g4
g5
Ntp455
Rp456
(dp457
g9
I00
sg10
Nsg11
I00
sg12
VLatest: News: $CRVL - CorVel Announces Revenues and Earnings https://t.co/dZabhMLUEF
p458
sg14
Vhttp://www.leavingworkbehind.com
p459
sg16
I00
sg17
I00
sg18
Nsg19
g0
(g20
g5
Ntp460
Rp461
(dp462
g24
I00
sg25
I00
sg26
I01
sg27
VDDFFCC
p463
sg29
I21306486
sg30
I00
sg31
(dp464
g33
(dp465
g35
(lp466
(dp467
g33
Vhttp://t.co/PvtljgwKvM
p468
sg39
(lp469
I0
aI22
asg41
Vhttp://www.stockguru.com
p470
sg43
Vstockguru.com
p471
sassg45
(dp472
g35
(lp473
(dp474
g33
Vhttp://t.co/IDmRHmKCfF
p475
sg39
(lp476
I48
aI70
asg41
Vhttp://StockGuru.com
p477
sg43
VStockGuru.com
p478
sasssg53
Vhttps://pbs.twimg.com/profile_images/484389368442785792/y_KkqkrD_normal.png
p479
sg55
(dp480
g57
I00
sg58
I00
sg59
I01
sg60
I00
sg61
I21306486
sg62
Vhttps://pbs.twimg.com/profile_background_images/24852001/twitter-bigger.jpg
p481
sg64
I00
sg65
V333333
p482
sg67
g479
sg68
g463
sg69
g464
sg70
I11347
sg71
VBDDCAD
p483
sg73
V21306486
p484
sg75
V0C0E0E
p485
sg77
I52
sg78
I00
sg79
I-21600
sg80
I32343
sg45
VFind The Buzz on All of Your Favorite Stocks at http://t.co/IDmRHmKCfF! Follow us Here & Sign-up for Free Alerts!
p486
sg82
I6243
sg83
VUnited States
p487
sg85
V0084B4
p488
sg87
Vhttp://pbs.twimg.com/profile_images/484389368442785792/y_KkqkrD_normal.png
p489
sg89
I00
sg90
I00
sg411
Vhttps://pbs.twimg.com/profile_banners/21306486/1437580558
p490
sg91
Vhttp://pbs.twimg.com/profile_background_images/24852001/twitter-bigger.jpg
p491
sg93
VStockGuruDotCom
p492
sg95
Ven
p493
sg97
I01
sg98
I82
sg99
VJohn Pentony
p494
sg101
I00
sg33
Vhttp://t.co/PvtljgwKvM
p495
sg103
VThu Feb 19 15:17:36 +0000 2009
p496
sg105
I00
sg106
VCentral Time (US & Canada)
p497
sg108
I00
sg109
I00
sg110
I00
ssg111
I00
sg112
g482
sg113
I11347
sg114
g483
sg115
g484
sg116
I00
sg117
I52
sg118
I00
sg119
I-21600
sg120
I32343
sg121
g486
sg122
I6243
sg123
g487
sg124
g488
sg125
g489
sg126
I00
sg127
I00
sg128
g485
sg420
g490
sg129
g491
sg130
g492
sg131
g493
sg132
I00
sg133
I01
sg134
I82
sg135
g494
sg136
g495
sg137
g138
(S'\x07\xd9\x02\x13\x0f\x11$\x00\x00\x00'
p498
tp499
Rp500
sg142
g481
sg143
g497
sg144
I00
sg145
I00
sg146
I00
sbsg147
Nsg29
L662809177484427264L
sg148
I0
sg149
VEvergreen Post Tweeter
p501
sg131
Ven
p502
sg152
g461
sg137
g138
(S'\x07\xdf\x0b\x07\x0118\x00\x00\x00'
p503
tp504
Rp505
sg55
(dp506
g157
Nsg158
I00
sg159
g458
sg160
I00
sg161
Nsg61
L662809177484427264L
sg162
I0
sg163
V<a href="http://www.leavingworkbehind.com" rel="nofollow">Evergreen Post Tweeter</a>
p507
sg165
I00
sg166
Nsg69
(dp508
g168
(lp509
(dp510
g39
(lp511
I14
aI19
asg159
VCRVL
p512
sasg224
(lp513
sg226
(lp514
sg35
(lp515
(dp516
g33
Vhttps://t.co/dZabhMLUEF
p517
sg39
(lp518
I61
aI84
asg41
Vhttp://is.gd/YLFAVQ
p519
sg43
Vis.gd/YLFAVQ
p520
sassg234
Nsg235
Nsg236
I0
sg73
V662809177484427264
p521
sg238
I00
sg239
g480
sg240
Nsg241
Nsg242
I00
sg95
g502
sg103
VSat Nov 07 01:49:56 +0000 2015
p522
sg244
Nsg245
Nsg246
(dp523
g248
Ven
p524
sg250
Vrecent
p525
sssg252
g523
sg253
Nsg254
Nsg31
g508
sg255
Nsg256
Nsg115
g521
sg257
I00
sg258
Nsg259
I0
sg260
Nsbag0
(g4
g5
Ntp526
Rp527
(dp528
g9
I00
sg10
Nsg11
I00
sg12
VReal-Time feed of company contracts, original agreements and executive updates from $CRVL https://t.co/MWGvJS5hRz
p529
sg14
Vhttp://www.lawinsider.com
p530
sg16
I00
sg17
I00
sg18
Nsg19
g0
(g20
g5
Ntp531
Rp532
(dp533
g24
I00
sg25
I00
sg26
I01
sg27
VDDEEF6
p534
sg29
L2273664823L
sg30
I00
sg31
(dp535
g45
(dp536
g35
(lp537
(dp538
g33
Vhttp://t.co/fMDCdXlvnP
p539
sg39
(lp540
I21
aI43
asg41
Vhttp://LawInsider.com
p541
sg43
VLawInsider.com
p542
sasssg53
Vhttps://pbs.twimg.com/profile_images/418879465003823104/hxUShEdz_normal.jpeg
p543
sg55
(dp544
g57
I00
sg58
I00
sg59
I01
sg60
I00
sg61
L2273664823L
sg62
Vhttps://abs.twimg.com/images/themes/theme1/bg.png
p545
sg64
I00
sg65
V333333
p546
sg67
g543
sg68
g534
sg69
g535
sg70
I627
sg71
VC0DEED
p547
sg73
V2273664823
p548
sg75
VC0DEED
p549
sg77
I81
sg78
I00
sg79
Nsg80
I353446
sg45
VDaily contracts from http://t.co/fMDCdXlvnP. Tweets by @lawinsider.
p550
sg82
I17
sg83
V
p551
sg85
V0084B4
p552
sg87
Vhttp://pbs.twimg.com/profile_images/418879465003823104/hxUShEdz_normal.jpeg
p553
sg89
I00
sg90
I00
sg91
Vhttp://abs.twimg.com/images/themes/theme1/bg.png
p554
sg93
VDailyContracts
p555
sg95
Ven
p556
sg97
I00
sg98
I0
sg99
VDaily Contracts
p557
sg101
I00
sg33
Nsg103
VThu Jan 02 22:57:58 +0000 2014
p558
sg105
I00
sg106
Nsg108
I00
sg109
I01
sg110
I00
ssg111
I00
sg112
g546
sg113
I627
sg114
g547
sg115
g548
sg116
I00
sg117
I81
sg118
I00
sg119
Nsg120
I353446
sg121
g550
sg122
I17
sg123
g551
sg124
g552
sg125
g553
sg126
I00
sg127
I00
sg128
g549
sg129
g554
sg130
g555
sg131
g556
sg132
I00
sg133
I00
sg134
I0
sg135
g557
sg136
Nsg137
g138
(S'\x07\xde\x01\x02\x169:\x00\x00\x00'
p559
tp560
Rp561
sg142
g545
sg143
Nsg144
I00
sg145
I01
sg146
I00
sbsg147
Nsg29
L662705765694599168L
sg148
I0
sg149
VLawinsider.com tweet on upload
p562
sg131
Ven
p563
sg152
g532
sg137
g138
(S'\x07\xdf\x0b\x06\x12;\x01\x00\x00\x00'
p564
tp565
Rp566
sg55
(dp567
g157
Nsg158
I00
sg159
g529
sg160
I00
sg161
Nsg61
L662705765694599168L
sg162
I0
sg163
V<a href="http://www.lawinsider.com" rel="nofollow">Lawinsider.com tweet on upload</a>
p568
sg165
I00
sg166
Nsg69
(dp569
g168
(lp570
(dp571
g39
(lp572
I84
aI89
asg159
VCRVL
p573
sasg224
(lp574
sg226
(lp575
sg35
(lp576
(dp577
g33
Vhttps://t.co/MWGvJS5hRz
p578
sg39
(lp579
I90
aI113
asg41
Vhttp://lawinsider.com/company/874866?js=subscribe
p580
sg43
Vlawinsider.com/company/874866\u2026
p581
sassg234
Nsg235
Nsg236
I0
sg73
V662705765694599168
p582
sg238
I00
sg239
g544
sg240
Nsg241
Nsg242
I00
sg95
g563
sg103
VFri Nov 06 18:59:01 +0000 2015
p583
sg244
Nsg245
Nsg246
(dp584
g248
Ven
p585
sg250
Vrecent
p586
sssg252
g584
sg253
Nsg254
Nsg31
g569
sg255
Nsg256
Nsg115
g582
sg257
I00
sg258
Nsg259
I0
sg260
Nsbag0
(g4
g5
Ntp587
Rp588
(dp589
g9
I00
sg10
Nsg11
I00
sg12
VA bullish Big MAC (Bullish) has occurred at 12:30 PM Nov 06 at  $34.96 on CorVel Corp (CRVL) $CRVL
p590
sg14
Vhttp://www.recognia.com
p591
sg17
I00
sg18
Nsg19
g0
(g20
g5
Ntp592
Rp593
(dp594
g24
I00
sg25
I00
sg26
I01
sg27
VDDEEF6
p595
sg29
I206820388
sg30
I00
sg31
(dp596
g45
(dp597
g35
(lp598
sssg53
Vhttps://pbs.twimg.com/profile_images/603607850636611584/xF1GqS_I_normal.jpg
p599
sg55
(dp600
g57
I00
sg58
I00
sg59
I01
sg60
I00
sg61
I206820388
sg62
Vhttps://abs.twimg.com/images/themes/theme1/bg.png
p601
sg64
I00
sg65
V333333
p602
sg67
g599
sg68
g595
sg69
g596
sg70
I119
sg71
VC0DEED
p603
sg73
V206820388
p604
sg75
VC0DEED
p605
sg77
I19
sg78
I00
sg79
I-28800
sg80
I37533
sg45
g551
sg82
I0
sg83
g551
sg85
V0084B4
p606
sg87
Vhttp://pbs.twimg.com/profile_images/603607850636611584/xF1GqS_I_normal.jpg
p607
sg89
I00
sg90
I00
sg91
Vhttp://abs.twimg.com/images/themes/theme1/bg.png
p608
sg93
VSyedWaqasNabi
p609
sg95
Ven
p610
sg97
I00
sg98
I0
sg99
VSyed Waqas Nabi
p611
sg101
I00
sg33
Nsg103
VSat Oct 23 20:16:00 +0000 2010
p612
sg105
I00
sg106
VPacific Time (US & Canada)
p613
sg108
I00
sg109
I01
sg110
I00
ssg111
I00
sg112
g602
sg113
I119
sg114
g603
sg115
g604
sg116
I00
sg117
I19
sg118
I00
sg119
I-28800
sg120
I37533
sg121
g551
sg122
I0
sg123
g551
sg124
g606
sg125
g607
sg126
I00
sg127
I00
sg128
g605
sg129
g608
sg130
g609
sg131
g610
sg132
I00
sg133
I00
sg134
I0
sg135
g611
sg136
Nsg137
g138
(S'\x07\xda\n\x17\x14\x10\x00\x00\x00\x00'
p614
tp615
Rp616
sg142
g601
sg143
g613
sg144
I00
sg145
I01
sg146
I00
sbsg147
Nsg29
L662690976620634113L
sg148
I0
sg149
Vrecognia
p617
sg131
Ven
p618
sg152
g593
sg137
g138
(S'\x07\xdf\x0b\x06\x12\x00\x0f\x00\x00\x00'
p619
tp620
Rp621
sg55
(dp622
g157
Nsg158
I00
sg159
g590
sg160
I00
sg161
Nsg61
L662690976620634113L
sg162
I0
sg163
V<a href="http://www.recognia.com" rel="nofollow">recognia</a>
p623
sg165
I00
sg166
Nsg69
(dp624
g168
(lp625
(dp626
g39
(lp627
I93
aI98
asg159
VCRVL
p628
sasg224
(lp629
sg226
(lp630
sg35
(lp631
ssg234
Nsg235
Nsg236
I0
sg73
V662690976620634113
p632
sg238
I00
sg239
g600
sg240
Nsg241
Nsg95
g618
sg103
VFri Nov 06 18:00:15 +0000 2015
p633
sg244
Nsg245
Nsg246
(dp634
g248
Ven
p635
sg250
Vrecent
p636
sssg252
g634
sg253
Nsg254
Nsg31
g624
sg255
Nsg256
Nsg115
g632
sg257
I00
sg258
Nsg259
I0
sg260
Nsbag0
(g4
g5
Ntp637
Rp638
(dp639
g9
I00
sg10
Nsg11
I00
sg12
VLatest: News: $CRVL - CorVel Announces Revenues and Earnings https://t.co/dZabhMLUEF
p640
sg14
Vhttp://www.leavingworkbehind.com
p641
sg16
I00
sg17
I00
sg18
Nsg19
g0
(g20
g5
Ntp642
Rp643
(dp644
g24
I00
sg25
I00
sg26
I01
sg27
VDDFFCC
p645
sg29
I21306486
sg30
I00
sg31
(dp646
g33
(dp647
g35
(lp648
(dp649
g33
Vhttp://t.co/PvtljgwKvM
p650
sg39
(lp651
I0
aI22
asg41
Vhttp://www.stockguru.com
p652
sg43
Vstockguru.com
p653
sassg45
(dp654
g35
(lp655
(dp656
g33
Vhttp://t.co/IDmRHmKCfF
p657
sg39
(lp658
I48
aI70
asg41
Vhttp://StockGuru.com
p659
sg43
VStockGuru.com
p660
sasssg53
Vhttps://pbs.twimg.com/profile_images/484389368442785792/y_KkqkrD_normal.png
p661
sg55
(dp662
g57
I00
sg58
I00
sg59
I01
sg60
I00
sg61
I21306486
sg62
Vhttps://pbs.twimg.com/profile_background_images/24852001/twitter-bigger.jpg
p663
sg64
I00
sg65
V333333
p664
sg67
g661
sg68
g645
sg69
g646
sg70
I11347
sg71
VBDDCAD
p665
sg73
V21306486
p666
sg75
V0C0E0E
p667
sg77
I52
sg78
I00
sg79
I-21600
sg80
I32343
sg45
VFind The Buzz on All of Your Favorite Stocks at http://t.co/IDmRHmKCfF! Follow us Here & Sign-up for Free Alerts!
p668
sg82
I6243
sg83
VUnited States
p669
sg85
V0084B4
p670
sg87
Vhttp://pbs.twimg.com/profile_images/484389368442785792/y_KkqkrD_normal.png
p671
sg89
I00
sg90
I00
sg411
Vhttps://pbs.twimg.com/profile_banners/21306486/1437580558
p672
sg91
Vhttp://pbs.twimg.com/profile_background_images/24852001/twitter-bigger.jpg
p673
sg93
VStockGuruDotCom
p674
sg95
Ven
p675
sg97
I01
sg98
I82
sg99
VJohn Pentony
p676
sg101
I00
sg33
Vhttp://t.co/PvtljgwKvM
p677
sg103
VThu Feb 19 15:17:36 +0000 2009
p678
sg105
I00
sg106
VCentral Time (US & Canada)
p679
sg108
I00
sg109
I00
sg110
I00
ssg111
I00
sg112
g664
sg113
I11347
sg114
g665
sg115
g666
sg116
I00
sg117
I52
sg118
I00
sg119
I-21600
sg120
I32343
sg121
g668
sg122
I6243
sg123
g669
sg124
g670
sg125
g671
sg126
I00
sg127
I00
sg128
g667
sg420
g672
sg129
g673
sg130
g674
sg131
g675
sg132
I00
sg133
I01
sg134
I82
sg135
g676
sg136
g677
sg137
g138
(S'\x07\xd9\x02\x13\x0f\x11$\x00\x00\x00'
p680
tp681
Rp682
sg142
g663
sg143
g679
sg144
I00
sg145
I00
sg146
I00
sbsg147
Nsg29
L662465943730176000L
sg148
I0
sg149
VEvergreen Post Tweeter
p683
sg131
Ven
p684
sg152
g643
sg137
g138
(S'\x07\xdf\x0b\x06\x03\x06\x03\x00\x00\x00'
p685
tp686
Rp687
sg55
(dp688
g157
Nsg158
I00
sg159
g640
sg160
I00
sg161
Nsg61
L662465943730176000L
sg162
I0
sg163
V<a href="http://www.leavingworkbehind.com" rel="nofollow">Evergreen Post Tweeter</a>
p689
sg165
I00
sg166
Nsg69
(dp690
g168
(lp691
(dp692
g39
(lp693
I14
aI19
asg159
VCRVL
p694
sasg224
(lp695
sg226
(lp696
sg35
(lp697
(dp698
g33
Vhttps://t.co/dZabhMLUEF
p699
sg39
(lp700
I61
aI84
asg41
Vhttp://is.gd/YLFAVQ
p701
sg43
Vis.gd/YLFAVQ
p702
sassg234
Nsg235
Nsg236
I0
sg73
V662465943730176000
p703
sg238
I00
sg239
g662
sg240
Nsg241
Nsg242
I00
sg95
g684
sg103
VFri Nov 06 03:06:03 +0000 2015
p704
sg244
Nsg245
Nsg246
(dp705
g248
Ven
p706
sg250
Vrecent
p707
sssg252
g705
sg253
Nsg254
Nsg31
g690
sg255
Nsg256
Nsg115
g703
sg257
I00
sg258
Nsg259
I0
sg260
Nsbag0
(g4
g5
Ntp708
Rp709
(dp710
g9
I00
sg10
Nsg11
I00
sg12
VCORVEL CORP $CRVL 10-Q now available
p711
sg14
Vhttp://www.instrumental-data.com/
p712
sg17
I00
sg18
Nsg19
g0
(g20
g5
Ntp713
Rp714
(dp715
g24
I00
sg25
I00
sg26
I01
sg27
VDDEEF6
p716
sg29
I1059455906
sg30
I00
sg31
(dp717
g33
(dp718
g35
(lp719
(dp720
g33
Vhttp://t.co/oFA9055G
p721
sg39
(lp722
I0
aI20
asg41
Vhttp://instrumental-data.com
p723
sg43
Vinstrumental-data.com
p724
sassg45
(dp725
g35
(lp726
sssg53
Vhttps://pbs.twimg.com/profile_images/3180899556/40196e66743d89ac67495a06e8aa0e00_normal.png
p727
sg55
(dp728
g57
I00
sg58
I00
sg59
I01
sg60
I00
sg61
I1059455906
sg62
Vhttps://abs.twimg.com/images/themes/theme1/bg.png
p729
sg64
I00
sg65
V333333
p730
sg67
g727
sg68
g716
sg69
g717
sg70
I202
sg71
VC0DEED
p731
sg73
V1059455906
p732
sg75
VC0DEED
p733
sg77
I15
sg78
I00
sg79
Nsg80
I81234
sg45
VFundamental market data, cleaned, parsed, and available within minutes of company filing.
p734
sg82
I4
sg83
VChicago
p735
sg85
V0084B4
p736
sg87
Vhttp://pbs.twimg.com/profile_images/3180899556/40196e66743d89ac67495a06e8aa0e00_normal.png
p737
sg89
I00
sg90
I00
sg91
Vhttp://abs.twimg.com/images/themes/theme1/bg.png
p738
sg93
VInstrumentalD
p739
sg95
Ven
p740
sg97
I00
sg98
I0
sg99
VInstrumental Data
p741
sg101
I00
sg33
Vhttp://t.co/oFA9055G
p742
sg103
VFri Jan 04 03:41:19 +0000 2013
p743
sg105
I00
sg106
Nsg108
I00
sg109
I01
sg110
I00
ssg111
I00
sg112
g730
sg113
I202
sg114
g731
sg115
g732
sg116
I00
sg117
I15
sg118
I00
sg119
Nsg120
I81234
sg121
g734
sg122
I4
sg123
g735
sg124
g736
sg125
g737
sg126
I00
sg127
I00
sg128
g733
sg129
g738
sg130
g739
sg131
g740
sg132
I00
sg133
I00
sg134
I0
sg135
g741
sg136
g742
sg137
g138
(S'\x07\xdd\x01\x04\x03)\x13\x00\x00\x00'
p744
tp745
Rp746
sg142
g729
sg143
Nsg144
I00
sg145
I01
sg146
I00
sbsg147
Nsg29
L662269227353677824L
sg148
I0
sg149
VInstrumental Data
p747
sg131
Vund
p748
sg152
g714
sg137
g138
(S'\x07\xdf\x0b\x05\x0e\x04\x16\x00\x00\x00'
p749
tp750
Rp751
sg55
(dp752
g157
Nsg158
I00
sg159
g711
sg160
I00
sg161
Nsg61
L662269227353677824L
sg162
I0
sg163
V<a href="http://www.instrumental-data.com/" rel="nofollow">Instrumental Data</a>
p753
sg165
I00
sg166
Nsg69
(dp754
g168
(lp755
(dp756
g39
(lp757
I12
aI17
asg159
VCRVL
p758
sasg224
(lp759
sg226
(lp760
sg35
(lp761
ssg234
Nsg235
Nsg236
I0
sg73
V662269227353677824
p762
sg238
I00
sg239
g728
sg240
Nsg241
Nsg95
g748
sg103
VThu Nov 05 14:04:22 +0000 2015
p763
sg244
Nsg245
Nsg246
(dp764
g248
Vund
p765
sg250
Vrecent
p766
sssg252
g764
sg253
Nsg254
Nsg31
g754
sg255
Nsg256
Nsg115
g762
sg257
I00
sg258
Nsg259
I0
sg260
Nsbag0
(g4
g5
Ntp767
Rp768
(dp769
g9
I00
sg10
Nsg11
I00
sg12
VCorVel $CRVL Releases Quarterly  Earnings Results https://t.co/6WTZDk79Wq
p770
sg14
Vhttp://ifttt.com
p771
sg16
I00
sg17
I00
sg18
Nsg19
g0
(g20
g5
Ntp772
Rp773
(dp774
g24
I00
sg25
I00
sg26
I01
sg27
VDDEEF6
p775
sg29
L2525892205L
sg30
I00
sg31
(dp776
g33
(dp777
g35
(lp778
(dp779
g33
Vhttp://t.co/oT0s8pX8T2
p780
sg39
(lp781
I0
aI22
asg41
Vhttp://www.intercooleronline.com
p782
sg43
Vintercooleronline.com
p783
sassg45
(dp784
g35
(lp785
sssg53
Vhttps://pbs.twimg.com/profile_images/471038514675474432/wc-6YgXp_normal.jpeg
p786
sg55
(dp787
g57
I00
sg58
I00
sg59
I01
sg60
I00
sg61
L2525892205L
sg62
Vhttps://abs.twimg.com/images/themes/theme1/bg.png
p788
sg64
I00
sg65
V333333
p789
sg67
g786
sg68
g775
sg69
g776
sg70
I414
sg71
VC0DEED
p790
sg73
V2525892205
p791
sg75
VC0DEED
p792
sg77
I22
sg78
I00
sg79
Nsg80
I117976
sg45
g551
sg82
I6
sg83
VFlorida
p793
sg85
V0084B4
p794
sg87
Vhttp://pbs.twimg.com/profile_images/471038514675474432/wc-6YgXp_normal.jpeg
p795
sg89
I00
sg90
I00
sg411
Vhttps://pbs.twimg.com/profile_banners/2525892205/1401139391
p796
sg91
Vhttp://abs.twimg.com/images/themes/theme1/bg.png
p797
sg93
Vintercooleronli
p798
sg95
Ven
p799
sg97
I00
sg98
I0
sg99
VInterCooler
p800
sg101
I00
sg33
Vhttp://t.co/oT0s8pX8T2
p801
sg103
VMon May 26 21:20:18 +0000 2014
p802
sg105
I00
sg106
Nsg108
I00
sg109
I01
sg110
I00
ssg111
I00
sg112
g789
sg113
I414
sg114
g790
sg115
g791
sg116
I00
sg117
I22
sg118
I00
sg119
Nsg120
I117976
sg121
g551
sg122
I6
sg123
g793
sg124
g794
sg125
g795
sg126
I00
sg127
I00
sg128
g792
sg420
g796
sg129
g797
sg130
g798
sg131
g799
sg132
I00
sg133
I00
sg134
I0
sg135
g800
sg136
g801
sg137
g138
(S'\x07\xde\x05\x1a\x15\x14\x12\x00\x00\x00'
p803
tp804
Rp805
sg142
g788
sg143
Nsg144
I00
sg145
I01
sg146
I00
sbsg147
Nsg29
L662254896297680896L
sg148
I0
sg149
VIFTTT
p806
sg131
Ven
p807
sg152
g773
sg137
g138
(S'\x07\xdf\x0b\x05\r\x07\x1a\x00\x00\x00'
p808
tp809
Rp810
sg55
(dp811
g157
Nsg158
I00
sg159
g770
sg160
I00
sg161
Nsg61
L662254896297680896L
sg162
I0
sg163
V<a href="http://ifttt.com" rel="nofollow">IFTTT</a>
p812
sg165
I00
sg166
Nsg69
(dp813
g168
(lp814
(dp815
g39
(lp816
I7
aI12
asg159
VCRVL
p817
sasg224
(lp818
sg226
(lp819
sg35
(lp820
(dp821
g33
Vhttps://t.co/6WTZDk79Wq
p822
sg39
(lp823
I50
aI73
asg41
Vhttp://ift.tt/1XSftPH
p824
sg43
Vift.tt/1XSftPH
p825
sassg234
Nsg235
Nsg236
I0
sg73
V662254896297680896
p826
sg238
I00
sg239
g787
sg240
Nsg241
Nsg242
I00
sg95
g807
sg103
VThu Nov 05 13:07:26 +0000 2015
p827
sg244
Nsg245
Nsg246
(dp828
g248
Ven
p829
sg250
Vrecent
p830
sssg252
g828
sg253
Nsg254
Nsg31
g813
sg255
Nsg256
Nsg115
g826
sg257
I00
sg258
Nsg259
I0
sg260
Nsbag0
(g4
g5
Ntp831
Rp832
(dp833
g9
I00
sg10
Nsg11
I00
sg12
V$CRVL:\u000a\u000aCorVel (CRVL) Releases Quarterly Earnings Results:\u000a\u000ahttps://t.co/QP180uAHt8
p834
sg14
Vhttp://fnsappbg.blogspot.com/
p835
sg16
I00
sg17
I00
sg18
Nsg19
g0
(g20
g5
Ntp836
Rp837
(dp838
g24
I00
sg25
I00
sg26
I01
sg27
VDDEEF6
p839
sg29
L2881595931L
sg30
I00
sg31
(dp840
g45
(dp841
g35
(lp842
sssg53
Vhttps://pbs.twimg.com/profile_images/542392174428434432/PfyzCfya_normal.jpeg
p843
sg55
(dp844
g57
I00
sg58
I00
sg59
I01
sg60
I00
sg61
L2881595931L
sg62
Vhttps://abs.twimg.com/images/themes/theme1/bg.png
p845
sg64
I00
sg65
V333333
p846
sg67
g843
sg68
g839
sg69
g840
sg70
I593
sg71
VC0DEED
p847
sg73
V2881595931
p848
sg75
VC0DEED
p849
sg77
I90
sg78
I00
sg79
I-18000
sg80
I235206
sg45
g551
sg82
I6
sg83
g551
sg85
V0084B4
p850
sg87
Vhttp://pbs.twimg.com/profile_images/542392174428434432/PfyzCfya_normal.jpeg
p851
sg89
I00
sg90
I00
sg91
Vhttp://abs.twimg.com/images/themes/theme1/bg.png
p852
sg93
VProVesting
p853
sg95
Ven
p854
sg97
I00
sg98
I0
sg99
VProVesting
p855
sg101
I00
sg33
Nsg103
VMon Nov 17 20:15:38 +0000 2014
p856
sg105
I00
sg106
VEastern Time (US & Canada)
p857
sg108
I00
sg109
I01
sg110
I00
ssg111
I00
sg112
g846
sg113
I593
sg114
g847
sg115
g848
sg116
I00
sg117
I90
sg118
I00
sg119
I-18000
sg120
I235206
sg121
g551
sg122
I6
sg123
g551
sg124
g850
sg125
g851
sg126
I00
sg127
I00
sg128
g849
sg129
g852
sg130
g853
sg131
g854
sg132
I00
sg133
I00
sg134
I0
sg135
g855
sg136
Nsg137
g138
(S'\x07\xde\x0b\x11\x14\x0f&\x00\x00\x00'
p858
tp859
Rp860
sg142
g845
sg143
g857
sg144
I00
sg145
I01
sg146
I00
sbsg147
Nsg29
L662254842098880512L
sg148
I0
sg149
VFNS_APP
p861
sg131
Ven
p862
sg152
g837
sg137
g138
(S'\x07\xdf\x0b\x05\r\x07\r\x00\x00\x00'
p863
tp864
Rp865
sg55
(dp866
g157
Nsg158
I00
sg159
V$CRVL:\u000a\u000aCorVel (CRVL) Releases Quarterly Earnings Results:\u000a\u000ahttps://t.co/QP180uAHt8
p867
sg160
I00
sg161
Nsg61
L662254842098880512L
sg162
I0
sg163
V<a href="http://fnsappbg.blogspot.com/" rel="nofollow">FNS_APP</a>
p868
sg165
I00
sg166
Nsg69
(dp869
g168
(lp870
(dp871
g39
(lp872
I0
aI5
asg159
VCRVL
p873
sasg224
(lp874
sg226
(lp875
sg35
(lp876
(dp877
g33
Vhttps://t.co/QP180uAHt8
p878
sg39
(lp879
I60
aI83
asg41
Vhttp://StockNewsHour.com/crvl-corvel-crvl-releases-quarterly-earnings-results/
p880
sg43
VStockNewsHour.com/crvl-corvel-cr\u2026
p881
sassg234
Nsg235
Nsg236
I0
sg73
V662254842098880512
p882
sg238
I00
sg239
g844
sg240
Nsg241
Nsg242
I00
sg95
g862
sg103
VThu Nov 05 13:07:13 +0000 2015
p883
sg244
Nsg245
Nsg246
(dp884
g248
Ven
p885
sg250
Vrecent
p886
sssg252
g884
sg253
Nsg254
Nsg31
g869
sg255
Nsg256
Nsg115
g882
sg257
I00
sg258
Nsg259
I0
sg260
Nsbag0
(g4
g5
Ntp887
Rp888
(dp889
g9
I00
sg10
Nsg11
I00
sg12
VImp catalysts 4 MEIP &amp; CALA in d cmg week Here is DD 4 investors:https://t.co/lwSyWTxOEB $CRS $CRT $CRTN $CRTO $CRUS $CRVL $CRVP $CRWN
p890
sg14
Vhttp://twittimer.com
p891
sg16
I00
sg17
I00
sg18
Nsg19
g0
(g20
g5
Ntp892
Rp893
(dp894
g24
I00
sg25
I01
sg26
I00
sg27
V000000
p895
sg29
L3518191635L
sg30
I00
sg31
(dp896
g33
(dp897
g35
(lp898
(dp899
g33
Vhttps://t.co/ot2Kl5nyub
p900
sg39
(lp901
I0
aI23
asg41
Vhttps://groups.google.com/forum/#!forum/jbem777
p902
sg43
Vgroups.google.com/forum/#!forum/\u2026
p903
sassg45
(dp904
g35
(lp905
sssg53
Vhttps://pbs.twimg.com/profile_images/638885869433196544/C975RWXJ_normal.jpg
p906
sg55
(dp907
g57
I00
sg58
I01
sg59
I00
sg60
I00
sg61
L3518191635L
sg62
Vhttps://abs.twimg.com/images/themes/theme1/bg.png
p908
sg64
I00
sg65
V000000
p909
sg67
g906
sg68
g895
sg69
g896
sg70
I28
sg71
V000000
p910
sg73
V3518191635
p911
sg75
V000000
p912
sg77
I1
sg78
I00
sg79
I-28800
sg80
I1505
sg45
VHealthcare Stocks
p913
sg82
I25
sg83
g551
sg85
V89C9FA
p914
sg87
Vhttp://pbs.twimg.com/profile_images/638885869433196544/C975RWXJ_normal.jpg
p915
sg89
I00
sg90
I00
sg91
Vhttp://abs.twimg.com/images/themes/theme1/bg.png
p916
sg93
Vjbemstocks
p917
sg95
Ven
p918
sg97
I00
sg98
I0
sg99
VDUE DILIGENCE
p919
sg101
I00
sg33
Vhttps://t.co/ot2Kl5nyub
p920
sg103
VWed Sep 02 01:23:46 +0000 2015
p921
sg105
I00
sg106
VPacific Time (US & Canada)
p922
sg108
I00
sg109
I00
sg110
I00
ssg111
I00
sg112
g909
sg113
I28
sg114
g910
sg115
g911
sg116
I00
sg117
I1
sg118
I00
sg119
I-28800
sg120
I1505
sg121
g913
sg122
I25
sg123
g551
sg124
g914
sg125
g915
sg126
I00
sg127
I00
sg128
g912
sg129
g916
sg130
g917
sg131
g918
sg132
I00
sg133
I00
sg134
I0
sg135
g919
sg136
g920
sg137
g138
(S'\x07\xdf\t\x02\x01\x17.\x00\x00\x00'
p923
tp924
Rp925
sg142
g908
sg143
g922
sg144
I00
sg145
I00
sg146
I00
sbsg147
Nsg29
L662046430123524096L
sg148
I0
sg149
VTwittimer
p926
sg131
Vin
p927
sg152
g893
sg137
g138
(S'\x07\xdf\x0b\x04\x17\x13\x03\x00\x00\x00'
p928
tp929
Rp930
sg55
(dp931
g157
Nsg158
I00
sg159
g890
sg160
I00
sg161
Nsg61
L662046430123524096L
sg162
I0
sg163
V<a href="http://twittimer.com" rel="nofollow">Twittimer</a>
p932
sg165
I00
sg166
Nsg69
(dp933
g168
(lp934
(dp935
g39
(lp936
I93
aI97
asg159
VCRS
p937
sa(dp938
g39
(lp939
I98
aI102
asg159
VCRT
p940
sa(dp941
g39
(lp942
I103
aI108
asg159
VCRTN
p943
sa(dp944
g39
(lp945
I109
aI114
asg159
VCRTO
p946
sa(dp947
g39
(lp948
I115
aI120
asg159
VCRUS
p949
sa(dp950
g39
(lp951
I121
aI126
asg159
VCRVL
p952
sa(dp953
g39
(lp954
I127
aI132
asg159
VCRVP
p955
sa(dp956
g39
(lp957
I133
aI138
asg159
VCRWN
p958
sasg224
(lp959
sg226
(lp960
sg35
(lp961
(dp962
g33
Vhttps://t.co/lwSyWTxOEB
p963
sg39
(lp964
I69
aI92
asg41
Vhttp://bit.ly/1KjZ8cR
p965
sg43
Vbit.ly/1KjZ8cR
p966
sassg234
Nsg235
Nsg236
I0
sg73
V662046430123524096
p967
sg238
I00
sg239
g907
sg240
Nsg241
Nsg242
I00
sg95
g927
sg103
VWed Nov 04 23:19:03 +0000 2015
p968
sg244
Nsg245
Nsg246
(dp969
g248
Vin
p970
sg250
Vrecent
p971
sssg252
g969
sg253
Nsg254
Nsg31
g933
sg255
Nsg256
Nsg115
g967
sg257
I00
sg258
Nsg259
I0
sg260
Nsbag0
(g4
g5
Ntp972
Rp973
(dp974
g9
I00
sg10
Nsg11
I00
sg12
VLatest: News: $CRVL - CorVel Announces Revenues and Earnings https://t.co/dZabhMLUEF
p975
sg14
Vhttp://www.leavingworkbehind.com
p976
sg16
I00
sg17
I00
sg18
Nsg19
g0
(g20
g5
Ntp977
Rp978
(dp979
g24
I00
sg25
I00
sg26
I01
sg27
VDDFFCC
p980
sg29
I21306486
sg30
I00
sg31
(dp981
g33
(dp982
g35
(lp983
(dp984
g33
Vhttp://t.co/PvtljgwKvM
p985
sg39
(lp986
I0
aI22
asg41
Vhttp://www.stockguru.com
p987
sg43
Vstockguru.com
p988
sassg45
(dp989
g35
(lp990
(dp991
g33
Vhttp://t.co/IDmRHmKCfF
p992
sg39
(lp993
I48
aI70
asg41
Vhttp://StockGuru.com
p994
sg43
VStockGuru.com
p995
sasssg53
Vhttps://pbs.twimg.com/profile_images/484389368442785792/y_KkqkrD_normal.png
p996
sg55
(dp997
g57
I00
sg58
I00
sg59
I01
sg60
I00
sg61
I21306486
sg62
Vhttps://pbs.twimg.com/profile_background_images/24852001/twitter-bigger.jpg
p998
sg64
I00
sg65
V333333
p999
sg67
g996
sg68
g980
sg69
g981
sg70
I11347
sg71
VBDDCAD
p1000
sg73
V21306486
p1001
sg75
V0C0E0E
p1002
sg77
I52
sg78
I00
sg79
I-21600
sg80
I32343
sg45
VFind The Buzz on All of Your Favorite Stocks at http://t.co/IDmRHmKCfF! Follow us Here & Sign-up for Free Alerts!
p1003
sg82
I6243
sg83
VUnited States
p1004
sg85
V0084B4
p1005
sg87
Vhttp://pbs.twimg.com/profile_images/484389368442785792/y_KkqkrD_normal.png
p1006
sg89
I00
sg90
I00
sg411
Vhttps://pbs.twimg.com/profile_banners/21306486/1437580558
p1007
sg91
Vhttp://pbs.twimg.com/profile_background_images/24852001/twitter-bigger.jpg
p1008
sg93
VStockGuruDotCom
p1009
sg95
Ven
p1010
sg97
I01
sg98
I82
sg99
VJohn Pentony
p1011
sg101
I00
sg33
Vhttp://t.co/PvtljgwKvM
p1012
sg103
VThu Feb 19 15:17:36 +0000 2009
p1013
sg105
I00
sg106
VCentral Time (US & Canada)
p1014
sg108
I00
sg109
I00
sg110
I00
ssg111
I00
sg112
g999
sg113
I11347
sg114
g1000
sg115
g1001
sg116
I00
sg117
I52
sg118
I00
sg119
I-21600
sg120
I32343
sg121
g1003
sg122
I6243
sg123
g1004
sg124
g1005
sg125
g1006
sg126
I00
sg127
I00
sg128
g1002
sg420
g1007
sg129
g1008
sg130
g1009
sg131
g1010
sg132
I00
sg133
I01
sg134
I82
sg135
g1011
sg136
g1012
sg137
g138
(S'\x07\xd9\x02\x13\x0f\x11$\x00\x00\x00'
p1015
tp1016
Rp1017
sg142
g998
sg143
g1014
sg144
I00
sg145
I00
sg146
I00
sbsg147
Nsg29
L661951051570872321L
sg148
I0
sg149
VEvergreen Post Tweeter
p1018
sg131
Ven
p1019
sg152
g978
sg137
g138
(S'\x07\xdf\x0b\x04\x11\x00\x03\x00\x00\x00'
p1020
tp1021
Rp1022
sg55
(dp1023
g157
Nsg158
I00
sg159
g975
sg160
I00
sg161
Nsg61
L661951051570872321L
sg162
I0
sg163
V<a href="http://www.leavingworkbehind.com" rel="nofollow">Evergreen Post Tweeter</a>
p1024
sg165
I00
sg166
Nsg69
(dp1025
g168
(lp1026
(dp1027
g39
(lp1028
I14
aI19
asg159
VCRVL
p1029
sasg224
(lp1030
sg226
(lp1031
sg35
(lp1032
(dp1033
g33
Vhttps://t.co/dZabhMLUEF
p1034
sg39
(lp1035
I61
aI84
asg41
Vhttp://is.gd/YLFAVQ
p1036
sg43
Vis.gd/YLFAVQ
p1037
sassg234
Nsg235
Nsg236
I0
sg73
V661951051570872321
p1038
sg238
I00
sg239
g997
sg240
Nsg241
Nsg242
I00
sg95
g1019
sg103
VWed Nov 04 17:00:03 +0000 2015
p1039
sg244
Nsg245
Nsg246
(dp1040
g248
Ven
p1041
sg250
Vrecent
p1042
sssg252
g1040
sg253
Nsg254
Nsg31
g1025
sg255
Nsg256
Nsg115
g1038
sg257
I00
sg258
Nsg259
I0
sg260
Nsbag0
(g4
g5
Ntp1043
Rp1044
(dp1045
g9
I00
sg10
Nsg11
I00
sg12
VRT @USEarningsCal: $CIE $COKE $CGNT $CPGX $CPPL $CGEN.TA $CCUR $CNNX $MCF $CPS $KBHL.CO $CRVL $CEQP $CPIX $DAC $DVA $DCTH $DKL $DK $DENN $D\u2026
p1046
sg14
Vhttp://morningblue.ua
p1047
sg17
I00
sg18
Nsg19
g0
(g20
g5
Ntp1048
Rp1049
(dp1050
g24
I00
sg25
I00
sg26
I01
sg27
VDDEEF6
p1051
sg29
L3437715425L
sg30
I00
sg31
(dp1052
g45
(dp1053
g35
(lp1054
sssg53
Vhttps://pbs.twimg.com/profile_images/636191335070990336/6baRtxOE_normal.jpg
p1055
sg55
(dp1056
g57
I00
sg58
I00
sg59
I01
sg60
I00
sg61
L3437715425L
sg62
Vhttps://abs.twimg.com/images/themes/theme1/bg.png
p1057
sg64
I00
sg65
V333333
p1058
sg67
g1055
sg68
g1051
sg69
g1052
sg70
I13
sg71
VC0DEED
p1059
sg73
V3437715425
p1060
sg75
VC0DEED
p1061
sg77
I1
sg78
I00
sg79
Nsg80
I68
sg45
g551
sg82
I26
sg83
VUSA
p1062
sg85
V0084B4
p1063
sg87
Vhttp://pbs.twimg.com/profile_images/636191335070990336/6baRtxOE_normal.jpg
p1064
sg89
I00
sg90
I00
sg411
Vhttps://pbs.twimg.com/profile_banners/3437715425/1440514792
p1065
sg91
Vhttp://abs.twimg.com/images/themes/theme1/bg.png
p1066
sg93
Vpaigefja36
p1067
sg95
Ven
p1068
sg97
I00
sg98
I0
sg99
Vpaige snee
p1069
sg101
I00
sg33
Nsg103
VMon Aug 24 09:00:36 +0000 2015
p1070
sg105
I00
sg106
Nsg108
I00
sg109
I01
sg110
I00
ssg111
I00
sg112
g1058
sg113
I13
sg114
g1059
sg115
g1060
sg116
I00
sg117
I1
sg118
I00
sg119
Nsg120
I68
sg121
g551
sg122
I26
sg123
g1062
sg124
g1063
sg125
g1064
sg126
I00
sg127
I00
sg128
g1061
sg420
g1065
sg129
g1066
sg130
g1067
sg131
g1068
sg132
I00
sg133
I00
sg134
I0
sg135
g1069
sg136
Nsg137
g138
(S'\x07\xdf\x08\x18\t\x00$\x00\x00\x00'
p1071
tp1072
Rp1073
sg142
g1057
sg143
Nsg144
I00
sg145
I01
sg146
I00
sbsg147
Nsg29
L661888812059074560L
sg148
I0
sg149
VMorningBlue
p1074
sg131
Vin
p1075
sS'retweeted_status'
p1076
g0
(g4
g5
Ntp1077
Rp1078
(dp1079
g9
I00
sg10
Nsg11
I00
sg12
V$CIE $COKE $CGNT $CPGX $CPPL $CGEN.TA $CCUR $CNNX $MCF $CPS $KBHL.CO $CRVL $CEQP $CPIX $DAC $DVA $DCTH $DKL $DK $DENN $DEPO $DVN $DHT $FANG
p1080
sg14
Vhttps://twitter.com/USEarningsCal
p1081
sg17
I00
sg18
Nsg19
g0
(g20
g5
Ntp1082
Rp1083
(dp1084
g24
I00
sg25
I01
sg26
I00
sg27
V000000
p1085
sg29
L3272603407L
sg30
I00
sg31
(dp1086
g45
(dp1087
g35
(lp1088
sssg53
Vhttps://pbs.twimg.com/profile_images/621905731336323072/M63p67Ym_normal.jpg
p1089
sg55
(dp1090
g57
I00
sg58
I01
sg59
I00
sg60
I00
sg61
L3272603407L
sg62
Vhttps://abs.twimg.com/images/themes/theme1/bg.png
p1091
sg64
I00
sg65
V000000
p1092
sg67
g1089
sg68
g1085
sg69
g1086
sg70
I20
sg71
V000000
p1093
sg73
V3272603407
p1094
sg75
V000000
p1095
sg77
I4
sg78
I00
sg79
Nsg80
I436
sg45
VU.S. Earnings
p1096
sg82
I2
sg83
VUnited States
p1097
sg85
V4A913C
p1098
sg87
Vhttp://pbs.twimg.com/profile_images/621905731336323072/M63p67Ym_normal.jpg
p1099
sg89
I00
sg90
I00
sg411
Vhttps://pbs.twimg.com/profile_banners/3272603407/1437108798
p1100
sg91
Vhttp://abs.twimg.com/images/themes/theme1/bg.png
p1101
sg93
VUSEarningsCal
p1102
sg95
Ven
p1103
sg97
I00
sg98
I0
sg99
VUS Earnings Calendar
p1104
sg101
I00
sg33
Nsg103
VThu Jul 09 04:45:59 +0000 2015
p1105
sg105
I00
sg106
Nsg108
I00
sg109
I00
sg110
I00
ssg111
I00
sg112
g1092
sg113
I20
sg114
g1093
sg115
g1094
sg116
I00
sg117
I4
sg118
I00
sg119
Nsg120
I436
sg121
g1096
sg122
I2
sg123
g1097
sg124
g1098
sg125
g1099
sg126
I00
sg127
I00
sg128
g1095
sg420
g1100
sg129
g1101
sg130
g1102
sg131
g1103
sg132
I00
sg133
I00
sg134
I0
sg135
g1104
sg136
Nsg137
g138
(S'\x07\xdf\x07\t\x04-;\x00\x00\x00'
p1106
tp1107
Rp1108
sg142
g1091
sg143
Nsg144
I00
sg145
I00
sg146
I00
sbsg147
Nsg29
L661347069244772352L
sg148
I0
sg149
VUS Earnings Cal
p1109
sg131
Vin
p1110
sg152
g1083
sg137
g138
(S'\x07\xdf\x0b\x03\x01\x00\x03\x00\x00\x00'
p1111
tp1112
Rp1113
sg55
(dp1114
g157
Nsg158
I00
sg159
g1080
sg160
I00
sg161
Nsg61
L661347069244772352L
sg162
I0
sg163
V<a href="https://twitter.com/USEarningsCal" rel="nofollow">US Earnings Cal</a>
p1115
sg165
I00
sg166
Nsg69
(dp1116
g168
(lp1117
(dp1118
g39
(lp1119
I0
aI4
asg159
VCIE
p1120
sa(dp1121
g39
(lp1122
I5
aI10
asg159
VCOKE
p1123
sa(dp1124
g39
(lp1125
I11
aI16
asg159
VCGNT
p1126
sa(dp1127
g39
(lp1128
I17
aI22
asg159
VCPGX
p1129
sa(dp1130
g39
(lp1131
I23
aI28
asg159
VCPPL
p1132
sa(dp1133
g39
(lp1134
I29
aI37
asg159
VCGEN.TA
p1135
sa(dp1136
g39
(lp1137
I38
aI43
asg159
VCCUR
p1138
sa(dp1139
g39
(lp1140
I44
aI49
asg159
VCNNX
p1141
sa(dp1142
g39
(lp1143
I50
aI54
asg159
VMCF
p1144
sa(dp1145
g39
(lp1146
I55
aI59
asg159
VCPS
p1147
sa(dp1148
g39
(lp1149
I60
aI68
asg159
VKBHL.CO
p1150
sa(dp1151
g39
(lp1152
I69
aI74
asg159
VCRVL
p1153
sa(dp1154
g39
(lp1155
I75
aI80
asg159
VCEQP
p1156
sa(dp1157
g39
(lp1158
I81
aI86
asg159
VCPIX
p1159
sa(dp1160
g39
(lp1161
I87
aI91
asg159
VDAC
p1162
sa(dp1163
g39
(lp1164
I92
aI96
asg159
VDVA
p1165
sa(dp1166
g39
(lp1167
I97
aI102
asg159
VDCTH
p1168
sa(dp1169
g39
(lp1170
I103
aI107
asg159
VDKL
p1171
sa(dp1172
g39
(lp1173
I108
aI111
asg159
VDK
p1174
sa(dp1175
g39
(lp1176
I112
aI117
asg159
VDENN
p1177
sa(dp1178
g39
(lp1179
I118
aI123
asg159
VDEPO
p1180
sa(dp1181
g39
(lp1182
I124
aI128
asg159
VDVN
p1183
sa(dp1184
g39
(lp1185
I129
aI133
asg159
VDHT
p1186
sa(dp1187
g39
(lp1188
I134
aI139
asg159
VFANG
p1189
sasg224
(lp1190
sg226
(lp1191
sg35
(lp1192
ssg234
Nsg235
Nsg236
I1
sg73
V661347069244772352
p1193
sg238
I00
sg239
g1090
sg240
Nsg241
Nsg95
g1110
sg103
VTue Nov 03 01:00:03 +0000 2015
p1194
sg244
Nsg245
Nsg246
(dp1195
g248
Vin
p1196
sg250
Vrecent
p1197
sssg252
g1195
sg253
Nsg254
Nsg31
g1116
sg255
Nsg256
Nsg115
g1193
sg257
I00
sg258
Nsg259
I1
sg260
Nsbsg152
g1049
sg137
g138
(S'\x07\xdf\x0b\x04\x0c4,\x00\x00\x00'
p1198
tp1199
Rp1200
sg55
(dp1201
g157
Nsg158
I00
sg159
g1046
sg160
I00
sg161
Nsg61
L661888812059074560L
sg162
I0
sg163
V<a href="http://morningblue.ua" rel="nofollow">MorningBlue</a>
p1202
sg165
I00
sg166
Nsg69
(dp1203
g168
(lp1204
(dp1205
g39
(lp1206
I19
aI23
asg159
VCIE
p1207
sa(dp1208
g39
(lp1209
I24
aI29
asg159
VCOKE
p1210
sa(dp1211
g39
(lp1212
I30
aI35
asg159
VCGNT
p1213
sa(dp1214
g39
(lp1215
I36
aI41
asg159
VCPGX
p1216
sa(dp1217
g39
(lp1218
I42
aI47
asg159
VCPPL
p1219
sa(dp1220
g39
(lp1221
I48
aI56
asg159
VCGEN.TA
p1222
sa(dp1223
g39
(lp1224
I57
aI62
asg159
VCCUR
p1225
sa(dp1226
g39
(lp1227
I63
aI68
asg159
VCNNX
p1228
sa(dp1229
g39
(lp1230
I69
aI73
asg159
VMCF
p1231
sa(dp1232
g39
(lp1233
I74
aI78
asg159
VCPS
p1234
sa(dp1235
g39
(lp1236
I79
aI87
asg159
VKBHL.CO
p1237
sa(dp1238
g39
(lp1239
I88
aI93
asg159
VCRVL
p1240
sa(dp1241
g39
(lp1242
I94
aI99
asg159
VCEQP
p1243
sa(dp1244
g39
(lp1245
I100
aI105
asg159
VCPIX
p1246
sa(dp1247
g39
(lp1248
I106
aI110
asg159
VDAC
p1249
sa(dp1250
g39
(lp1251
I111
aI115
asg159
VDVA
p1252
sa(dp1253
g39
(lp1254
I116
aI121
asg159
VDCTH
p1255
sa(dp1256
g39
(lp1257
I122
aI126
asg159
VDKL
p1258
sa(dp1259
g39
(lp1260
I127
aI130
asg159
VDK
p1261
sa(dp1262
g39
(lp1263
I131
aI136
asg159
VDENN
p1264
sa(dp1265
g39
(lp1266
I139
aI140
asg159
VDEPO
p1267
sa(dp1268
g39
(lp1269
I139
aI140
asg159
VDVN
p1270
sa(dp1271
g39
(lp1272
I139
aI140
asg159
VDHT
p1273
sa(dp1274
g39
(lp1275
I139
aI140
asg159
VFANG
p1276
sasg224
(lp1277
(dp1278
g61
L3272603407L
sg39
(lp1279
I3
aI17
asg73
V3272603407
p1280
sg93
VUSEarningsCal
p1281
sg99
VUS Earnings Calendar
p1282
sasg226
(lp1283
sg35
(lp1284
ssg234
Nsg235
Nsg236
I1
sg73
V661888812059074560
p1285
sg238
I00
sVretweeted_status
p1286
g1114
sg239
g1056
sg240
Nsg241
Nsg95
g1075
sg103
VWed Nov 04 12:52:44 +0000 2015
p1287
sg244
Nsg245
Nsg246
(dp1288
g248
Vin
p1289
sg250
Vrecent
p1290
sssg252
g1288
sg253
Nsg254
Nsg31
g1203
sg255
Nsg256
Nsg115
g1285
sg257
I00
sg258
Nsg259
I1
sg260
Nsbag0
(g4
g5
Ntp1291
Rp1292
(dp1293
g9
I00
sg10
Nsg11
I00
sg12
VShooting Star https://t.co/DrhhOw9cSZ $PRSC $VIAB $FWRD $CRVL $FSB $SSYS $AXLL $KMG $AOI $ORBK $CAFD $AVHI $NZF $ATTU $DMB $DXLG
p1294
sg14
Vhttp://twitter.com
p1295
sg16
I00
sg17
I00
sg18
Nsg19
g0
(g20
g5
Ntp1296
Rp1297
(dp1298
g24
I00
sg25
I00
sg26
I01
sg27
VDDEEF6
p1299
sg29
I528770977
sg30
I00
sg31
(dp1300
g33
(dp1301
g35
(lp1302
(dp1303
g33
Vhttp://t.co/yagT24hKEz
p1304
sg39
(lp1305
I0
aI22
asg41
Vhttp://www.dailystockplays.com
p1306
sg43
Vdailystockplays.com
p1307
sassg45
(dp1308
g35
(lp1309
(dp1310
g33
Vhttp://t.co/t0RdDDmf07
p1311
sg39
(lp1312
I73
aI95
asg41
Vhttp://DailyStockPlays.com
p1313
sg43
VDailyStockPlays.com
p1314
sasssg53
Vhttps://pbs.twimg.com/profile_images/601604696671817728/EntLiuyJ_normal.jpg
p1315
sg55
(dp1316
g57
I00
sg58
I00
sg59
I01
sg60
I00
sg61
I528770977
sg62
Vhttps://pbs.twimg.com/profile_background_images/572170271050588160/E1MW3Dim.jpeg
p1317
sg64
I00
sg65
V333333
p1318
sg67
g1315
sg68
g1299
sg69
g1300
sg70
I1570
sg71
VC0DEED
p1319
sg73
V528770977
p1320
sg75
VC0DEED
p1321
sg77
I82
sg78
I00
sg79
I-28800
sg80
I20063
sg45
VConsistent profitable Day Trades and Swing Trades in the Members Area on http://t.co/t0RdDDmf07 - Free 7 Day Trial Membership. Subscribe to us on YouTube.
p1322
sg82
I468
sg83
VCalifornia
p1323
sg85
V0084B4
p1324
sg87
Vhttp://pbs.twimg.com/profile_images/601604696671817728/EntLiuyJ_normal.jpg
p1325
sg89
I00
sg90
I00
sg91
Vhttp://pbs.twimg.com/profile_background_images/572170271050588160/E1MW3Dim.jpeg
p1326
sg93
VDailyStockPlays
p1327
sg95
Ven
p1328
sg97
I00
sg98
I6
sg99
Vdailystockplays.com
p1329
sg101
I00
sg33
Vhttp://t.co/yagT24hKEz
p1330
sg103
VSun Mar 18 19:19:58 +0000 2012
p1331
sg105
I00
sg106
VPacific Time (US & Canada)
p1332
sg108
I00
sg109
I00
sg110
I00
ssg111
I00
sg112
g1318
sg113
I1570
sg114
g1319
sg115
g1320
sg116
I00
sg117
I82
sg118
I00
sg119
I-28800
sg120
I20063
sg121
g1322
sg122
I468
sg123
g1323
sg124
g1324
sg125
g1325
sg126
I00
sg127
I00
sg128
g1321
sg129
g1326
sg130
g1327
sg131
g1328
sg132
I00
sg133
I00
sg134
I6
sg135
g1329
sg136
g1330
sg137
g138
(S'\x07\xdc\x03\x12\x13\x13:\x00\x00\x00'
p1333
tp1334
Rp1335
sg142
g1317
sg143
g1332
sg144
I00
sg145
I00
sg146
I00
sbsg147
Nsg29
L661711722055495680L
sg148
I0
sg149
VTwitter Web Client
p1336
sg131
Vde
p1337
sg152
g1297
sg137
g138
(S'\x07\xdf\x0b\x04\x01\t\x03\x00\x00\x00'
p1338
tp1339
Rp1340
sg55
(dp1341
g157
Nsg158
I00
sg159
g1294
sg160
I00
sg161
Nsg61
L661711722055495680L
sg162
I0
sg163
V<a href="http://twitter.com" rel="nofollow">Twitter Web Client</a>
p1342
sg165
I00
sg166
Nsg69
(dp1343
g168
(lp1344
(dp1345
g39
(lp1346
I38
aI43
asg159
VPRSC
p1347
sa(dp1348
g39
(lp1349
I44
aI49
asg159
VVIAB
p1350
sa(dp1351
g39
(lp1352
I50
aI55
asg159
VFWRD
p1353
sa(dp1354
g39
(lp1355
I56
aI61
asg159
VCRVL
p1356
sa(dp1357
g39
(lp1358
I62
aI66
asg159
VFSB
p1359
sa(dp1360
g39
(lp1361
I67
aI72
asg159
VSSYS
p1362
sa(dp1363
g39
(lp1364
I73
aI78
asg159
VAXLL
p1365
sa(dp1366
g39
(lp1367
I79
aI83
asg159
VKMG
p1368
sa(dp1369
g39
(lp1370
I84
aI88
asg159
VAOI
p1371
sa(dp1372
g39
(lp1373
I89
aI94
asg159
VORBK
p1374
sa(dp1375
g39
(lp1376
I95
aI100
asg159
VCAFD
p1377
sa(dp1378
g39
(lp1379
I101
aI106
asg159
VAVHI
p1380
sa(dp1381
g39
(lp1382
I107
aI111
asg159
VNZF
p1383
sa(dp1384
g39
(lp1385
I112
aI117
asg159
VATTU
p1386
sa(dp1387
g39
(lp1388
I118
aI122
asg159
VDMB
p1389
sa(dp1390
g39
(lp1391
I123
aI128
asg159
VDXLG
p1392
sasg224
(lp1393
sg226
(lp1394
sg35
(lp1395
(dp1396
g33
Vhttps://t.co/DrhhOw9cSZ
p1397
sg39
(lp1398
I14
aI37
asg41
Vhttp://www.dailystockplays.com/Shooting-Star-2015-11-03.html
p1399
sg43
Vdailystockplays.com/Shooting-Star-\u2026
p1400
sassg234
Nsg235
Nsg236
I0
sg73
V661711722055495680
p1401
sg238
I00
sg239
g1316
sg240
Nsg241
Nsg242
I00
sg95
g1337
sg103
VWed Nov 04 01:09:03 +0000 2015
p1402
sg244
Nsg245
Nsg246
(dp1403
g248
Vde
p1404
sg250
Vrecent
p1405
sssg252
g1403
sg253
Nsg254
Nsg31
g1343
sg255
Nsg256
Nsg115
g1401
sg257
I00
sg258
Nsg259
I0
sg260
Nsbag0
(g4
g5
Ntp1406
Rp1407
(dp1408
g9
I00
sg10
Nsg11
I00
sg12
VUpdate! News: $CRVL - CorVel Announces Revenues and Earnings https://t.co/dZabhMLUEF
p1409
sg14
Vhttp://www.leavingworkbehind.com
p1410
sg16
I00
sg17
I00
sg18
Nsg19
g0
(g20
g5
Ntp1411
Rp1412
(dp1413
g24
I00
sg25
I00
sg26
I01
sg27
VDDFFCC
p1414
sg29
I21306486
sg30
I00
sg31
(dp1415
g33
(dp1416
g35
(lp1417
(dp1418
g33
Vhttp://t.co/PvtljgwKvM
p1419
sg39
(lp1420
I0
aI22
asg41
Vhttp://www.stockguru.com
p1421
sg43
Vstockguru.com
p1422
sassg45
(dp1423
g35
(lp1424
(dp1425
g33
Vhttp://t.co/IDmRHmKCfF
p1426
sg39
(lp1427
I48
aI70
asg41
Vhttp://StockGuru.com
p1428
sg43
VStockGuru.com
p1429
sasssg53
Vhttps://pbs.twimg.com/profile_images/484389368442785792/y_KkqkrD_normal.png
p1430
sg55
(dp1431
g57
I00
sg58
I00
sg59
I01
sg60
I00
sg61
I21306486
sg62
Vhttps://pbs.twimg.com/profile_background_images/24852001/twitter-bigger.jpg
p1432
sg64
I00
sg65
V333333
p1433
sg67
g1430
sg68
g1414
sg69
g1415
sg70
I11347
sg71
VBDDCAD
p1434
sg73
V21306486
p1435
sg75
V0C0E0E
p1436
sg77
I52
sg78
I00
sg79
I-21600
sg80
I32343
sg45
VFind The Buzz on All of Your Favorite Stocks at http://t.co/IDmRHmKCfF! Follow us Here & Sign-up for Free Alerts!
p1437
sg82
I6243
sg83
VUnited States
p1438
sg85
V0084B4
p1439
sg87
Vhttp://pbs.twimg.com/profile_images/484389368442785792/y_KkqkrD_normal.png
p1440
sg89
I00
sg90
I00
sg411
Vhttps://pbs.twimg.com/profile_banners/21306486/1437580558
p1441
sg91
Vhttp://pbs.twimg.com/profile_background_images/24852001/twitter-bigger.jpg
p1442
sg93
VStockGuruDotCom
p1443
sg95
Ven
p1444
sg97
I01
sg98
I82
sg99
VJohn Pentony
p1445
sg101
I00
sg33
Vhttp://t.co/PvtljgwKvM
p1446
sg103
VThu Feb 19 15:17:36 +0000 2009
p1447
sg105
I00
sg106
VCentral Time (US & Canada)
p1448
sg108
I00
sg109
I00
sg110
I00
ssg111
I00
sg112
g1433
sg113
I11347
sg114
g1434
sg115
g1435
sg116
I00
sg117
I52
sg118
I00
sg119
I-21600
sg120
I32343
sg121
g1437
sg122
I6243
sg123
g1438
sg124
g1439
sg125
g1440
sg126
I00
sg127
I00
sg128
g1436
sg420
g1441
sg129
g1442
sg130
g1443
sg131
g1444
sg132
I00
sg133
I01
sg134
I82
sg135
g1445
sg136
g1446
sg137
g138
(S'\x07\xd9\x02\x13\x0f\x11$\x00\x00\x00'
p1449
tp1450
Rp1451
sg142
g1432
sg143
g1448
sg144
I00
sg145
I00
sg146
I00
sbsg147
Nsg29
L661592407239061504L
sg148
I0
sg149
VEvergreen Post Tweeter
p1452
sg131
Ven
p1453
sg152
g1412
sg137
g138
(S'\x07\xdf\x0b\x03\x11\x0e8\x00\x00\x00'
p1454
tp1455
Rp1456
sg55
(dp1457
g157
Nsg158
I00
sg159
g1409
sg160
I00
sg161
Nsg61
L661592407239061504L
sg162
I0
sg163
V<a href="http://www.leavingworkbehind.com" rel="nofollow">Evergreen Post Tweeter</a>
p1458
sg165
I00
sg166
Nsg69
(dp1459
g168
(lp1460
(dp1461
g39
(lp1462
I14
aI19
asg159
VCRVL
p1463
sasg224
(lp1464
sg226
(lp1465
sg35
(lp1466
(dp1467
g33
Vhttps://t.co/dZabhMLUEF
p1468
sg39
(lp1469
I61
aI84
asg41
Vhttp://is.gd/YLFAVQ
p1470
sg43
Vis.gd/YLFAVQ
p1471
sassg234
Nsg235
Nsg236
I0
sg73
V661592407239061504
p1472
sg238
I00
sg239
g1431
sg240
Nsg241
Nsg242
I00
sg95
g1453
sg103
VTue Nov 03 17:14:56 +0000 2015
p1473
sg244
Nsg245
Nsg246
(dp1474
g248
Ven
p1475
sg250
Vrecent
p1476
sssg252
g1474
sg253
Nsg254
Nsg31
g1459
sg255
Nsg256
Nsg115
g1472
sg257
I00
sg258
Nsg259
I0
sg260
Nsbag0
(g4
g5
Ntp1477
Rp1478
(dp1479
g9
I00
sg10
Nsg11
I00
sg12
V$CRVL CorVel Announces Revenue and Earnings\u000a                Tuesday, November 03, 2015\u000a                Read ... https://t.co/oEp6NTyhF7
p1480
sg14
Vhttp://www.myallies.com
p1481
sg16
I00
sg17
I00
sg18
Nsg19
g0
(g20
g5
Ntp1482
Rp1483
(dp1484
g24
I00
sg25
I00
sg26
I00
sg27
V000000
p1485
sg29
L2397975692L
sg30
I00
sg31
(dp1486
g33
(dp1487
g35
(lp1488
(dp1489
g33
Vhttps://t.co/CXkUO1PIZA
p1490
sg39
(lp1491
I0
aI23
asg41
Vhttps://play.google.com/store/apps/details?id=com.myallies.apps.trading
p1492
sg43
Vplay.google.com/store/apps/det\u2026
p1493
sassg45
(dp1494
g35
(lp1495
(dp1496
g33
Vhttps://t.co/CXkUO1PIZA
p1497
sg39
(lp1498
I124
aI147
asg41
Vhttps://play.google.com/store/apps/details?id=com.myallies.apps.trading
p1499
sg43
Vplay.google.com/store/apps/det\u2026
p1500
sasssg53
Vhttps://pbs.twimg.com/profile_images/577892873095401473/dP2JPlyp_normal.png
p1501
sg55
(dp1502
g57
I00
sg58
I00
sg59
I00
sg60
I00
sg61
L2397975692L
sg62
Vhttps://abs.twimg.com/images/themes/theme1/bg.png
p1503
sg64
I00
sg65
V000000
p1504
sg67
g1501
sg68
g1485
sg69
g1486
sg70
I221
sg71
V000000
p1505
sg73
V2397975692
p1506
sg75
V000000
p1507
sg77
I47
sg78
I01
sg79
I3600
sg80
I64859
sg45
VMyAllies delivers breaking news from across the globe and information on the latest breaking business and financial events. https://t.co/CXkUO1PIZA
p1508
sg82
I0
sg83
g551
sg85
V3B94D9
p1509
sg87
Vhttp://pbs.twimg.com/profile_images/577892873095401473/dP2JPlyp_normal.png
p1510
sg89
I00
sg90
I00
sg91
Vhttp://abs.twimg.com/images/themes/theme1/bg.png
p1511
sg93
VMyAlliesTrading
p1512
sg95
Ven
p1513
sg97
I00
sg98
I0
sg99
VMyAllies Trading
p1514
sg101
I00
sg33
Vhttps://t.co/CXkUO1PIZA
p1515
sg103
VWed Mar 19 14:36:36 +0000 2014
p1516
sg105
I00
sg106
VBelgrade
p1517
sg108
I00
sg109
I00
sg110
I00
ssg111
I00
sg112
g1504
sg113
I221
sg114
g1505
sg115
g1506
sg116
I00
sg117
I47
sg118
I01
sg119
I3600
sg120
I64859
sg121
g1508
sg122
I0
sg123
g551
sg124
g1509
sg125
g1510
sg126
I00
sg127
I00
sg128
g1507
sg129
g1511
sg130
g1512
sg131
g1513
sg132
I00
sg133
I00
sg134
I0
sg135
g1514
sg136
g1515
sg137
g138
(S'\x07\xde\x03\x13\x0e$$\x00\x00\x00'
p1518
tp1519
Rp1520
sg142
g1503
sg143
g1517
sg144
I00
sg145
I00
sg146
I00
sbsg147
Nsg29
L661592064799465473L
sg148
I0
sg149
VMyAllies Breaking News
p1521
sg131
Ven
p1522
sg152
g1483
sg137
g138
(S'\x07\xdf\x0b\x03\x11\r"\x00\x00\x00'
p1523
tp1524
Rp1525
sg55
(dp1526
g157
Nsg158
I00
sg159
V$CRVL CorVel Announces Revenue and Earnings\u000a                Tuesday, November 03, 2015\u000a                Read ... https://t.co/oEp6NTyhF7
p1527
sg160
I00
sg161
Nsg61
L661592064799465473L
sg162
I0
sg163
V<a href="http://www.myallies.com" rel="nofollow">MyAllies Breaking News</a>
p1528
sg165
I00
sg166
Nsg69
(dp1529
g168
(lp1530
(dp1531
g39
(lp1532
I0
aI5
asg159
VCRVL
p1533
sasg224
(lp1534
sg226
(lp1535
sg35
(lp1536
(dp1537
g33
Vhttps://t.co/oEp6NTyhF7
p1538
sg39
(lp1539
I112
aI135
asg41
Vhttp://goo.gl/qBvORL
p1540
sg43
Vgoo.gl/qBvORL
p1541
sassg234
Nsg235
Nsg236
I0
sg73
V661592064799465473
p1542
sg238
I00
sg239
g1502
sg240
Nsg241
Nsg242
I00
sg95
g1522
sg103
VTue Nov 03 17:13:34 +0000 2015
p1543
sg244
Nsg245
Nsg246
(dp1544
g248
Ven
p1545
sg250
Vrecent
p1546
sssg252
g1544
sg253
Nsg254
Nsg31
g1529
sg255
Nsg256
Nsg115
g1542
sg257
I00
sg258
Nsg259
I0
sg260
Nsbag0
(g4
g5
Ntp1547
Rp1548
(dp1549
g9
I00
sg10
Nsg11
I00
sg12
V$CRVL:\u000a\u000aCorVel Corporation: CorVel Announces Revenue and Earnings:\u000a\u000ahttps://t.co/Dt6VTvszGH
p1550
sg14
Vhttp://www.newsflowing.com
p1551
sg16
I00
sg17
I00
sg18
Nsg19
g0
(g20
g5
Ntp1552
Rp1553
(dp1554
g24
I00
sg25
I00
sg26
I01
sg27
VDDFFCC
p1555
sg29
L2342763212L
sg30
I00
sg31
(dp1556
g45
(dp1557
g35
(lp1558
sssg53
Vhttps://pbs.twimg.com/profile_images/544036701056684032/FY2Xgs7b_normal.jpeg
p1559
sg55
(dp1560
g57
I00
sg58
I00
sg59
I01
sg60
I00
sg61
L2342763212L
sg62
Vhttps://abs.twimg.com/images/themes/theme16/bg.gif
p1561
sg64
I00
sg65
V333333
p1562
sg67
g1559
sg68
g1555
sg69
g1556
sg70
I421
sg71
VBDDCAD
p1563
sg73
V2342763212
p1564
sg75
V9AE4E8
p1565
sg77
I74
sg78
I00
sg79
I-14400
sg80
I193981
sg45
VNews as it happens
p1566
sg82
I0
sg83
VUS
p1567
sg85
V0084B4
p1568
sg87
Vhttp://pbs.twimg.com/profile_images/544036701056684032/FY2Xgs7b_normal.jpeg
p1569
sg89
I00
sg90
I00
sg91
Vhttp://abs.twimg.com/images/themes/theme16/bg.gif
p1570
sg93
Vnewswelldone
p1571
sg95
Ven
p1572
sg97
I00
sg98
I0
sg99
VBreaking News
p1573
sg101
I00
sg33
Nsg103
VFri Feb 14 00:21:52 +0000 2014
p1574
sg105
I00
sg106
VAtlantic Time (Canada)
p1575
sg108
I00
sg109
I00
sg110
I00
ssg111
I00
sg112
g1562
sg113
I421
sg114
g1563
sg115
g1564
sg116
I00
sg117
I74
sg118
I00
sg119
I-14400
sg120
I193981
sg121
g1566
sg122
I0
sg123
g1567
sg124
g1568
sg125
g1569
sg126
I00
sg127
I00
sg128
g1565
sg129
g1570
sg130
g1571
sg131
g1572
sg132
I00
sg133
I00
sg134
I0
sg135
g1573
sg136
Nsg137
g138
(S'\x07\xde\x02\x0e\x00\x154\x00\x00\x00'
p1576
tp1577
Rp1578
sg142
g1561
sg143
g1575
sg144
I00
sg145
I00
sg146
I00
sbsg147
Nsg29
L661588951682129921L
sg148
I0
sg149
VNFIG
p1579
sg131
Ven
p1580
sg152
g1553
sg137
g138
(S'\x07\xdf\x0b\x03\x11\x01\x0c\x00\x00\x00'
p1581
tp1582
Rp1583
sg55
(dp1584
g157
Nsg158
I00
sg159
V$CRVL:\u000a\u000aCorVel Corporation: CorVel Announces Revenue and Earnings:\u000a\u000ahttps://t.co/Dt6VTvszGH
p1585
sg160
I00
sg161
Nsg61
L661588951682129921L
sg162
I0
sg163
V<a href="http://www.newsflowing.com" rel="nofollow">NFIG</a>
p1586
sg165
I00
sg166
Nsg69
(dp1587
g168
(lp1588
(dp1589
g39
(lp1590
I0
aI5
asg159
VCRVL
p1591
sasg224
(lp1592
sg226
(lp1593
sg35
(lp1594
(dp1595
g33
Vhttps://t.co/Dt6VTvszGH
p1596
sg39
(lp1597
I68
aI91
asg41
Vhttp://StockNewsHour.com/crvl-corvel-corporation-corvel-announces-revenue-and-earnings/
p1598
sg43
VStockNewsHour.com/crvl-corvel-co\u2026
p1599
sassg234
Nsg235
Nsg236
I0
sg73
V661588951682129921
p1600
sg238
I00
sg239
g1560
sg240
Nsg241
Nsg242
I00
sg95
g1580
sg103
VTue Nov 03 17:01:12 +0000 2015
p1601
sg244
Nsg245
Nsg246
(dp1602
g248
Ven
p1603
sg250
Vrecent
p1604
sssg252
g1602
sg253
Nsg254
Nsg31
g1587
sg255
Nsg256
Nsg115
g1600
sg257
I00
sg258
Nsg259
I0
sg260
Nsbag0
(g4
g5
Ntp1605
Rp1606
(dp1607
g9
I00
sg10
Nsg11
I00
sg12
V$CRVL Earnings result is out. Check out next day hist price reaction, EPS &amp; Revenue Surprise. https://t.co/F4ESxrO9YZ
p1608
sg14
Vhttp://www.hootsuite.com
p1609
sg16
I00
sg17
I00
sg18
Nsg19
g0
(g20
g5
Ntp1610
Rp1611
(dp1612
g24
I00
sg25
I00
sg26
I01
sg27
VDDEEF6
p1613
sg29
L2683803193L
sg30
I00
sg31
(dp1614
g33
(dp1615
g35
(lp1616
(dp1617
g33
Vhttp://t.co/TkVoSXCWAo
p1618
sg39
(lp1619
I0
aI22
asg41
Vhttp://StocksEarning.com
p1620
sg43
VStocksEarning.com
p1621
sassg45
(dp1622
g35
(lp1623
sssg53
Vhttps://pbs.twimg.com/profile_images/493963538138804226/wKa0JIgx_normal.jpeg
p1624
sg55
(dp1625
g57
I00
sg58
I00
sg59
I01
sg60
I00
sg61
L2683803193L
sg62
Vhttps://abs.twimg.com/images/themes/theme1/bg.png
p1626
sg64
I00
sg65
V333333
p1627
sg67
g1624
sg68
g1613
sg69
g1614
sg70
I406
sg71
VC0DEED
p1628
sg73
V2683803193
p1629
sg75
VC0DEED
p1630
sg77
I29
sg78
I00
sg79
Nsg80
I38513
sg45
VFinancial services website dedicated to provide the research on Stocks Earnings by using our proprietary indicators. Do your own research. Tweets not advice.
p1631
sg82
I100
sg83
VNew York, NY
p1632
sg85
V0084B4
p1633
sg87
Vhttp://pbs.twimg.com/profile_images/493963538138804226/wKa0JIgx_normal.jpeg
p1634
sg89
I00
sg90
I00
sg91
Vhttp://abs.twimg.com/images/themes/theme1/bg.png
p1635
sg93
VStocksEarnings
p1636
sg95
Ven
p1637
sg97
I00
sg98
I6
sg99
VStockEarnings.com
p1638
sg101
I00
sg33
Vhttp://t.co/TkVoSXCWAo
p1639
sg103
VSun Jul 27 01:23:04 +0000 2014
p1640
sg105
I00
sg106
Nsg108
I00
sg109
I01
sg110
I00
ssg111
I00
sg112
g1627
sg113
I406
sg114
g1628
sg115
g1629
sg116
I00
sg117
I29
sg118
I00
sg119
Nsg120
I38513
sg121
g1631
sg122
I100
sg123
g1632
sg124
g1633
sg125
g1634
sg126
I00
sg127
I00
sg128
g1630
sg129
g1635
sg130
g1636
sg131
g1637
sg132
I00
sg133
I00
sg134
I6
sg135
g1638
sg136
g1639
sg137
g138
(S'\x07\xde\x07\x1b\x01\x17\x04\x00\x00\x00'
p1641
tp1642
Rp1643
sg142
g1626
sg143
Nsg144
I00
sg145
I01
sg146
I00
sbsg147
Nsg29
L661581313225433088L
sg148
I0
sg149
VHootsuite
p1644
sg131
Ven
p1645
sg152
g1611
sg137
g138
(S'\x07\xdf\x0b\x03\x10\x1e3\x00\x00\x00'
p1646
tp1647
Rp1648
sg55
(dp1649
g157
Nsg158
I00
sg159
g1608
sg160
I00
sg161
Nsg61
L661581313225433088L
sg162
I0
sg163
V<a href="http://www.hootsuite.com" rel="nofollow">Hootsuite</a>
p1650
sg165
I00
sg166
Nsg69
(dp1651
g168
(lp1652
(dp1653
g39
(lp1654
I0
aI5
asg159
VCRVL
p1655
sasg224
(lp1656
sg226
(lp1657
sg35
(lp1658
(dp1659
g33
Vhttps://t.co/F4ESxrO9YZ
p1660
sg39
(lp1661
I98
aI121
asg41
Vhttp://ow.ly/UbMXF
p1662
sg43
Vow.ly/UbMXF
p1663
sassg234
Nsg235
Nsg236
I0
sg73
V661581313225433088
p1664
sg238
I00
sg239
g1625
sg240
Nsg241
Nsg242
I00
sg95
g1645
sg103
VTue Nov 03 16:30:51 +0000 2015
p1665
sg244
Nsg245
Nsg246
(dp1666
g248
Ven
p1667
sg250
Vrecent
p1668
sssg252
g1666
sg253
Nsg254
Nsg31
g1651
sg255
Nsg256
Nsg115
g1664
sg257
I00
sg258
Nsg259
I0
sg260
Nsbag0
(g4
g5
Ntp1669
Rp1670
(dp1671
g9
I00
sg10
Nsg11
I00
sg12
VA bullish Big MAC (Bullish) has occurred at 10:00 AM Nov 03 at  $34.88 on CorVel Corp (CRVL) $CRVL
p1672
sg14
Vhttp://www.recognia.com
p1673
sg17
I00
sg18
Nsg19
g0
(g20
g5
Ntp1674
Rp1675
(dp1676
g24
I00
sg25
I00
sg26
I01
sg27
VDDEEF6
p1677
sg29
I206820388
sg30
I00
sg31
(dp1678
g45
(dp1679
g35
(lp1680
sssg53
Vhttps://pbs.twimg.com/profile_images/603607850636611584/xF1GqS_I_normal.jpg
p1681
sg55
(dp1682
g57
I00
sg58
I00
sg59
I01
sg60
I00
sg61
I206820388
sg62
Vhttps://abs.twimg.com/images/themes/theme1/bg.png
p1683
sg64
I00
sg65
V333333
p1684
sg67
g1681
sg68
g1677
sg69
g1678
sg70
I119
sg71
VC0DEED
p1685
sg73
V206820388
p1686
sg75
VC0DEED
p1687
sg77
I19
sg78
I00
sg79
I-28800
sg80
I37533
sg45
g551
sg82
I0
sg83
g551
sg85
V0084B4
p1688
sg87
Vhttp://pbs.twimg.com/profile_images/603607850636611584/xF1GqS_I_normal.jpg
p1689
sg89
I00
sg90
I00
sg91
Vhttp://abs.twimg.com/images/themes/theme1/bg.png
p1690
sg93
VSyedWaqasNabi
p1691
sg95
Ven
p1692
sg97
I00
sg98
I0
sg99
VSyed Waqas Nabi
p1693
sg101
I00
sg33
Nsg103
VSat Oct 23 20:16:00 +0000 2010
p1694
sg105
I00
sg106
VPacific Time (US & Canada)
p1695
sg108
I00
sg109
I01
sg110
I00
ssg111
I00
sg112
g1684
sg113
I119
sg114
g1685
sg115
g1686
sg116
I00
sg117
I19
sg118
I00
sg119
I-28800
sg120
I37533
sg121
g551
sg122
I0
sg123
g551
sg124
g1688
sg125
g1689
sg126
I00
sg127
I00
sg128
g1687
sg129
g1690
sg130
g1691
sg131
g1692
sg132
I00
sg133
I00
sg134
I0
sg135
g1693
sg136
Nsg137
g138
(S'\x07\xda\n\x17\x14\x10\x00\x00\x00\x00'
p1696
tp1697
Rp1698
sg142
g1683
sg143
g1695
sg144
I00
sg145
I01
sg146
I00
sbsg147
Nsg29
L661573597417177088L
sg148
I0
sg149
Vrecognia
p1699
sg131
Vnl
p1700
sg152
g1675
sg137
g138
(S'\x07\xdf\x0b\x03\x10\x00\x0b\x00\x00\x00'
p1701
tp1702
Rp1703
sg55
(dp1704
g157
Nsg158
I00
sg159
g1672
sg160
I00
sg161
Nsg61
L661573597417177088L
sg162
I0
sg163
V<a href="http://www.recognia.com" rel="nofollow">recognia</a>
p1705
sg165
I00
sg166
Nsg69
(dp1706
g168
(lp1707
(dp1708
g39
(lp1709
I93
aI98
asg159
VCRVL
p1710
sasg224
(lp1711
sg226
(lp1712
sg35
(lp1713
ssg234
Nsg235
Nsg236
I0
sg73
V661573597417177088
p1714
sg238
I00
sg239
g1682
sg240
Nsg241
Nsg95
g1700
sg103
VTue Nov 03 16:00:11 +0000 2015
p1715
sg244
Nsg245
Nsg246
(dp1716
g248
Vnl
p1717
sg250
Vrecent
p1718
sssg252
g1716
sg253
Nsg254
Nsg31
g1706
sg255
Nsg256
Nsg115
g1714
sg257
I00
sg258
Nsg259
I0
sg260
Nsbag0
(g4
g5
Ntp1719
Rp1720
(dp1721
g9
I00
sg10
Nsg11
I00
sg12
VA bullish Breakout Steakout (Bullish) has occurred at 9:45 AM Nov 03 at  $33.65 on CorVel Corp (CRVL) $CRVL
p1722
sg14
Vhttp://www.recognia.com
p1723
sg17
I00
sg18
Nsg19
g0
(g20
g5
Ntp1724
Rp1725
(dp1726
g24
I00
sg25
I00
sg26
I01
sg27
VDDEEF6
p1727
sg29
I206820388
sg30
I00
sg31
(dp1728
g45
(dp1729
g35
(lp1730
sssg53
Vhttps://pbs.twimg.com/profile_images/603607850636611584/xF1GqS_I_normal.jpg
p1731
sg55
(dp1732
g57
I00
sg58
I00
sg59
I01
sg60
I00
sg61
I206820388
sg62
Vhttps://abs.twimg.com/images/themes/theme1/bg.png
p1733
sg64
I00
sg65
V333333
p1734
sg67
g1731
sg68
g1727
sg69
g1728
sg70
I119
sg71
VC0DEED
p1735
sg73
V206820388
p1736
sg75
VC0DEED
p1737
sg77
I19
sg78
I00
sg79
I-28800
sg80
I37533
sg45
g551
sg82
I0
sg83
g551
sg85
V0084B4
p1738
sg87
Vhttp://pbs.twimg.com/profile_images/603607850636611584/xF1GqS_I_normal.jpg
p1739
sg89
I00
sg90
I00
sg91
Vhttp://abs.twimg.com/images/themes/theme1/bg.png
p1740
sg93
VSyedWaqasNabi
p1741
sg95
Ven
p1742
sg97
I00
sg98
I0
sg99
VSyed Waqas Nabi
p1743
sg101
I00
sg33
Nsg103
VSat Oct 23 20:16:00 +0000 2010
p1744
sg105
I00
sg106
VPacific Time (US & Canada)
p1745
sg108
I00
sg109
I01
sg110
I00
ssg111
I00
sg112
g1734
sg113
I119
sg114
g1735
sg115
g1736
sg116
I00
sg117
I19
sg118
I00
sg119
I-28800
sg120
I37533
sg121
g551
sg122
I0
sg123
g551
sg124
g1738
sg125
g1739
sg126
I00
sg127
I00
sg128
g1737
sg129
g1740
sg130
g1741
sg131
g1742
sg132
I00
sg133
I00
sg134
I0
sg135
g1743
sg136
Nsg137
g138
(S'\x07\xda\n\x17\x14\x10\x00\x00\x00\x00'
p1746
tp1747
Rp1748
sg142
g1733
sg143
g1745
sg144
I00
sg145
I01
sg146
I00
sbsg147
Nsg29
L661573576856764416L
sg148
I0
sg149
Vrecognia
p1749
sg131
Ven
p1750
sg152
g1725
sg137
g138
(S'\x07\xdf\x0b\x03\x10\x00\x06\x00\x00\x00'
p1751
tp1752
Rp1753
sg55
(dp1754
g157
Nsg158
I00
sg159
g1722
sg160
I00
sg161
Nsg61
L661573576856764416L
sg162
I0
sg163
V<a href="http://www.recognia.com" rel="nofollow">recognia</a>
p1755
sg165
I00
sg166
Nsg69
(dp1756
g168
(lp1757
(dp1758
g39
(lp1759
I102
aI107
asg159
VCRVL
p1760
sasg224
(lp1761
sg226
(lp1762
sg35
(lp1763
ssg234
Nsg235
Nsg236
I0
sg73
V661573576856764416
p1764
sg238
I00
sg239
g1732
sg240
Nsg241
Nsg95
g1750
sg103
VTue Nov 03 16:00:06 +0000 2015
p1765
sg244
Nsg245
Nsg246
(dp1766
g248
Ven
p1767
sg250
Vrecent
p1768
sssg252
g1766
sg253
Nsg254
Nsg31
g1756
sg255
Nsg256
Nsg115
g1764
sg257
I00
sg258
Nsg259
I0
sg260
Nsbag0
(g4
g5
Ntp1769
Rp1770
(dp1771
g9
I00
sg10
Nsg11
I00
sg12
VCorVel announces earnings. $0.41 EPS. $124.50m revenue. https://t.co/PIRh4uRZFC $CRVL #CRVL
p1772
sg14
Vhttp://ifttt.com
p1773
sg16
I00
sg17
I00
sg18
Nsg19
g0
(g20
g5
Ntp1774
Rp1775
(dp1776
g24
I00
sg25
I00
sg26
I01
sg27
VCCDAFF
p1777
sg29
I61661638
sg30
I00
sg31
(dp1778
g33
(dp1779
g35
(lp1780
(dp1781
g33
Vhttp://t.co/7EZswS49Q1
p1782
sg39
(lp1783
I0
aI22
asg41
Vhttp://www.americanbankingnews.com/
p1784
sg43
Vamericanbankingnews.com
p1785
sassg45
(dp1786
g35
(lp1787
sssg53
Vhttps://pbs.twimg.com/profile_images/541252987/Image5_normal.jpg
p1788
sg55
(dp1789
g57
I00
sg58
I00
sg59
I01
sg60
I00
sg61
I61661638
sg62
Vhttps://pbs.twimg.com/profile_background_images/55647305/background.png
p1790
sg64
I00
sg65
V141414
p1791
sg67
g1788
sg68
g1777
sg69
g1778
sg70
I5557
sg71
VABB1D9
p1792
sg73
V61661638
p1793
sg75
V000000
p1794
sg77
I469
sg78
I00
sg79
I-21600
sg80
I693975
sg45
VBanks, Credit Unions & Financial Institutions
p1795
sg82
I2307
sg83
VSioux Falls, SD
p1796
sg85
VA60000
p1797
sg87
Vhttp://pbs.twimg.com/profile_images/541252987/Image5_normal.jpg
p1798
sg89
I00
sg90
I00
sg91
Vhttp://pbs.twimg.com/profile_background_images/55647305/background.png
p1799
sg93
VAmericanBanking
p1800
sg95
Ven
p1801
sg97
I01
sg98
I0
sg99
VUS Banking News
p1802
sg101
I00
sg33
Vhttp://t.co/7EZswS49Q1
p1803
sg103
VFri Jul 31 01:58:33 +0000 2009
p1804
sg105
I00
sg106
VCentral Time (US & Canada)
p1805
sg108
I00
sg109
I00
sg110
I00
ssg111
I00
sg112
g1791
sg113
I5557
sg114
g1792
sg115
g1793
sg116
I00
sg117
I469
sg118
I00
sg119
I-21600
sg120
I693975
sg121
g1795
sg122
I2307
sg123
g1796
sg124
g1797
sg125
g1798
sg126
I00
sg127
I00
sg128
g1794
sg129
g1799
sg130
g1800
sg131
g1801
sg132
I00
sg133
I01
sg134
I0
sg135
g1802
sg136
g1803
sg137
g138
(S'\x07\xd9\x07\x1f\x01:!\x00\x00\x00'
p1806
tp1807
Rp1808
sg142
g1790
sg143
g1805
sg144
I00
sg145
I00
sg146
I00
sbsg147
Nsg29
L661521401459920896L
sg148
I0
sg149
VIFTTT
p1809
sg131
Ven
p1810
sg152
g1775
sg137
g138
(S'\x07\xdf\x0b\x03\x0c /\x00\x00\x00'
p1811
tp1812
Rp1813
sg55
(dp1814
g157
Nsg158
I00
sg159
g1772
sg160
I00
sg161
Nsg61
L661521401459920896L
sg162
I0
sg163
V<a href="http://ifttt.com" rel="nofollow">IFTTT</a>
p1815
sg165
I00
sg166
Nsg69
(dp1816
g168
(lp1817
(dp1818
g39
(lp1819
I80
aI85
asg159
VCRVL
p1820
sasg224
(lp1821
sg226
(lp1822
(dp1823
g39
(lp1824
I86
aI91
asg159
VCRVL
p1825
sasg35
(lp1826
(dp1827
g33
Vhttps://t.co/PIRh4uRZFC
p1828
sg39
(lp1829
I56
aI79
asg41
Vhttp://ift.tt/1NomTXQ
p1830
sg43
Vift.tt/1NomTXQ
p1831
sassg234
Nsg235
Nsg236
I0
sg73
V661521401459920896
p1832
sg238
I00
sg239
g1789
sg240
Nsg241
Nsg242
I00
sg95
g1810
sg103
VTue Nov 03 12:32:47 +0000 2015
p1833
sg244
Nsg245
Nsg246
(dp1834
g248
Ven
p1835
sg250
Vrecent
p1836
sssg252
g1834
sg253
Nsg254
Nsg31
g1816
sg255
Nsg256
Nsg115
g1832
sg257
I00
sg258
Nsg259
I0
sg260
Nsbag0
(g4
g5
Ntp1837
Rp1838
(dp1839
g9
I00
sg10
Nsg11
I00
sg12
VCorVel announces earnings. $0.41 EPS. $124.50m revenue. https://t.co/Sp8oqEvABE $CRVL #CRVL
p1840
sg14
Vhttp://ifttt.com
p1841
sg16
I00
sg17
I00
sg18
Nsg19
g0
(g20
g5
Ntp1842
Rp1843
(dp1844
g24
I00
sg25
I00
sg26
I01
sg27
VE8E8E8
p1845
sg29
I52210566
sg30
I00
sg31
(dp1846
g33
(dp1847
g35
(lp1848
(dp1849
g33
Vhttp://t.co/odTc3pvcAe
p1850
sg39
(lp1851
I0
aI22
asg41
Vhttp://www.americanconsumernews.com/
p1852
sg43
Vamericanconsumernews.com
p1853
sassg45
(dp1854
g35
(lp1855
sssg53
Vhttps://pbs.twimg.com/profile_images/289298274/text_normal.jpg
p1856
sg55
(dp1857
g57
I00
sg58
I00
sg59
I01
sg60
I00
sg61
I52210566
sg62
Vhttps://pbs.twimg.com/profile_background_images/20558354/back.jpg
p1858
sg64
I00
sg65
V333333
p1859
sg67
g1856
sg68
g1845
sg69
g1846
sg70
I1114
sg71
VADADAD
p1860
sg73
V52210566
p1861
sg75
V9AE4E8
p1862
sg77
I96
sg78
I00
sg79
I-21600
sg80
I580839
sg45
VPersonal Finance and Consumer Tips
p1863
sg82
I1412
sg83
VSioux Falls, SD
p1864
sg85
V0084B4
p1865
sg87
Vhttp://pbs.twimg.com/profile_images/289298274/text_normal.jpg
p1866
sg89
I00
sg90
I00
sg91
Vhttp://pbs.twimg.com/profile_background_images/20558354/back.jpg
p1867
sg93
VAmConsumerNews
p1868
sg95
Ven
p1869
sg97
I00
sg98
I0
sg99
VConsumer News
p1870
sg101
I00
sg33
Vhttp://t.co/odTc3pvcAe
p1871
sg103
VMon Jun 29 22:22:08 +0000 2009
p1872
sg105
I00
sg106
VCentral Time (US & Canada)
p1873
sg108
I00
sg109
I00
sg110
I00
ssg111
I00
sg112
g1859
sg113
I1114
sg114
g1860
sg115
g1861
sg116
I00
sg117
I96
sg118
I00
sg119
I-21600
sg120
I580839
sg121
g1863
sg122
I1412
sg123
g1864
sg124
g1865
sg125
g1866
sg126
I00
sg127
I00
sg128
g1862
sg129
g1867
sg130
g1868
sg131
g1869
sg132
I00
sg133
I00
sg134
I0
sg135
g1870
sg136
g1871
sg137
g138
(S'\x07\xd9\x06\x1d\x16\x16\x08\x00\x00\x00'
p1874
tp1875
Rp1876
sg142
g1858
sg143
g1873
sg144
I00
sg145
I00
sg146
I00
sbsg147
Nsg29
L661520093906665473L
sg148
I0
sg149
VIFTTT
p1877
sg131
Ven
p1878
sg152
g1843
sg137
g138
(S'\x07\xdf\x0b\x03\x0c\x1b#\x00\x00\x00'
p1879
tp1880
Rp1881
sg55
(dp1882
g157
Nsg158
I00
sg159
g1840
sg160
I00
sg161
Nsg61
L661520093906665473L
sg162
I0
sg163
V<a href="http://ifttt.com" rel="nofollow">IFTTT</a>
p1883
sg165
I00
sg166
Nsg69
(dp1884
g168
(lp1885
(dp1886
g39
(lp1887
I80
aI85
asg159
VCRVL
p1888
sasg224
(lp1889
sg226
(lp1890
(dp1891
g39
(lp1892
I86
aI91
asg159
VCRVL
p1893
sasg35
(lp1894
(dp1895
g33
Vhttps://t.co/Sp8oqEvABE
p1896
sg39
(lp1897
I56
aI79
asg41
Vhttp://ift.tt/1NomTXQ
p1898
sg43
Vift.tt/1NomTXQ
p1899
sassg234
Nsg235
Nsg236
I0
sg73
V661520093906665473
p1900
sg238
I00
sg239
g1857
sg240
Nsg241
Nsg242
I00
sg95
g1878
sg103
VTue Nov 03 12:27:35 +0000 2015
p1901
sg244
Nsg245
Nsg246
(dp1902
g248
Ven
p1903
sg250
Vrecent
p1904
sssg252
g1902
sg253
Nsg254
Nsg31
g1884
sg255
Nsg256
Nsg115
g1900
sg257
I00
sg258
Nsg259
I0
sg260
Nsbag0
(g4
g5
Ntp1905
Rp1906
(dp1907
g9
I00
sg10
Nsg11
I00
sg12
VCorVel reports Q2 results https://t.co/68hh22cfPj $CRVL
p1908
sg14
Vhttp://seekingalpha.com
p1909
sg16
I00
sg17
I00
sg18
Nsg19
g0
(g20
g5
Ntp1910
Rp1911
(dp1912
g24
I00
sg25
I00
sg26
I01
sg27
VDDEEF6
p1913
sg29
I207441033
sg30
I00
sg31
(dp1914
g45
(dp1915
g35
(lp1916
sssg53
Vhttps://pbs.twimg.com/profile_images/628450795533414401/xwE4BfP__normal.jpg
p1917
sg55
(dp1918
g57
I00
sg58
I00
sg59
I01
sg60
I00
sg61
I207441033
sg62
Vhttps://abs.twimg.com/images/themes/theme1/bg.png
p1919
sg64
I00
sg65
V333333
p1920
sg67
g1917
sg68
g1913
sg69
g1914
sg70
I135
sg71
VC0DEED
p1921
sg73
V207441033
p1922
sg75
VC0DEED
p1923
sg77
I30
sg78
I01
sg79
I7200
sg80
I30087
sg45
g551
sg82
I1
sg83
g551
sg85
V0084B4
p1924
sg87
Vhttp://pbs.twimg.com/profile_images/628450795533414401/xwE4BfP__normal.jpg
p1925
sg89
I00
sg90
I00
sg411
Vhttps://pbs.twimg.com/profile_banners/207441033/1438669732
p1926
sg91
Vhttp://abs.twimg.com/images/themes/theme1/bg.png
p1927
sg93
VSA_FACTSET
p1928
sg95
Ven
p1929
sg97
I00
sg98
I0
sg99
VSeeking Alpha
p1930
sg101
I00
sg33
Nsg103
VMon Oct 25 10:13:55 +0000 2010
p1931
sg105
I00
sg106
VBucharest
p1932
sg108
I00
sg109
I01
sg110
I00
ssg111
I00
sg112
g1920
sg113
I135
sg114
g1921
sg115
g1922
sg116
I00
sg117
I30
sg118
I01
sg119
I7200
sg120
I30087
sg121
g551
sg122
I1
sg123
g551
sg124
g1924
sg125
g1925
sg126
I00
sg127
I00
sg128
g1923
sg420
g1926
sg129
g1927
sg130
g1928
sg131
g1929
sg132
I00
sg133
I00
sg134
I0
sg135
g1930
sg136
Nsg137
g138
(S'\x07\xda\n\x19\n\r7\x00\x00\x00'
p1933
tp1934
Rp1935
sg142
g1919
sg143
g1932
sg144
I00
sg145
I01
sg146
I00
sbsg147
Nsg29
L661503406352166912L
sg148
I0
sg149
VSeeking Alpha
p1936
sg131
Vda
p1937
sg152
g1911
sg137
g138
(S'\x07\xdf\x0b\x03\x0b\x15\x10\x00\x00\x00'
p1938
tp1939
Rp1940
sg55
(dp1941
g157
Nsg158
I00
sg159
g1908
sg160
I00
sg161
Nsg61
L661503406352166912L
sg162
I0
sg163
V<a href="http://seekingalpha.com" rel="nofollow">Seeking Alpha</a>
p1942
sg165
I00
sg166
Nsg69
(dp1943
g168
(lp1944
(dp1945
g39
(lp1946
I50
aI55
asg159
VCRVL
p1947
sasg224
(lp1948
sg226
(lp1949
sg35
(lp1950
(dp1951
g33
Vhttps://t.co/68hh22cfPj
p1952
sg39
(lp1953
I26
aI49
asg41
Vhttp://seekingalpha.com/news/2885916-corvel-reports-q2-results?source=twitter_sa_factset
p1954
sg43
Vseekingalpha.com/news/2885916-c\u2026
p1955
sassg234
Nsg235
Nsg236
I0
sg73
V661503406352166912
p1956
sg238
I00
sg239
g1918
sg240
Nsg241
Nsg242
I00
sg95
g1937
sg103
VTue Nov 03 11:21:16 +0000 2015
p1957
sg244
Nsg245
Nsg246
(dp1958
g248
Vda
p1959
sg250
Vrecent
p1960
sssg252
g1958
sg253
Nsg254
Nsg31
g1943
sg255
Nsg256
Nsg115
g1956
sg257
I00
sg258
Nsg259
I0
sg260
Nsbag0
(g4
g5
Ntp1961
Rp1962
(dp1963
g9
I00
sg10
Nsg11
I00
sg12
VCorVel reports Q2 results https://t.co/RbZ9knaJLn $CRVL
p1964
sg14
Vhttp://seekingalpha.com
p1965
sg16
I00
sg17
I00
sg18
Nsg19
g0
(g20
g5
Ntp1966
Rp1967
(dp1968
g24
I00
sg25
I00
sg26
I00
sg27
VDDEEF6
p1969
sg29
L2999680401L
sg30
I00
sg31
(dp1970
g33
(dp1971
g35
(lp1972
(dp1973
g33
Vhttp://t.co/5I1XB8gaU7
p1974
sg39
(lp1975
I0
aI22
asg41
Vhttp://seekingalpha.com/news/financials
p1976
sg43
Vseekingalpha.com/news/financials
p1977
sassg45
(dp1978
g35
(lp1979
(dp1980
g33
Vhttps://t.co/IA82A8AOS3
p1981
sg39
(lp1982
I91
aI114
asg41
Vhttps://twitter.com/SeekingAlpha/following
p1983
sg43
Vtwitter.com/SeekingAlpha/f\u2026
p1984
sasssg53
Vhttps://pbs.twimg.com/profile_images/559721131364478977/qrBH69mU_normal.png
p1985
sg55
(dp1986
g57
I00
sg58
I00
sg59
I00
sg60
I00
sg61
L2999680401L
sg62
Vhttps://abs.twimg.com/images/themes/theme1/bg.png
p1987
sg64
I00
sg65
V333333
p1988
sg67
g1985
sg68
g1969
sg69
g1970
sg70
I966
sg71
VC0DEED
p1989
sg73
V2999680401
p1990
sg75
VC0DEED
p1991
sg77
I33
sg78
I01
sg79
I7200
sg80
I12973
sg45
VBreaking news and analysis of financials from Seeking Alpha. For all SA Twitter feeds, see https://t.co/IA82A8AOS3
p1992
sg82
I32
sg83
g551
sg85
V360000
p1993
sg87
Vhttp://pbs.twimg.com/profile_images/559721131364478977/qrBH69mU_normal.png
p1994
sg89
I00
sg90
I00
sg91
Vhttp://abs.twimg.com/images/themes/theme1/bg.png
p1995
sg93
VSA_FinancialInv
p1996
sg95
Ven
p1997
sg97
I00
sg98
I0
sg99
VFinancial Stocks
p1998
sg101
I00
sg33
Vhttp://t.co/5I1XB8gaU7
p1999
sg103
VMon Jan 26 14:32:39 +0000 2015
p2000
sg105
I00
sg106
VBucharest
p2001
sg108
I00
sg109
I00
sg110
I00
ssg111
I00
sg112
g1988
sg113
I966
sg114
g1989
sg115
g1990
sg116
I00
sg117
I33
sg118
I01
sg119
I7200
sg120
I12973
sg121
g1992
sg122
I32
sg123
g551
sg124
g1993
sg125
g1994
sg126
I00
sg127
I00
sg128
g1991
sg129
g1995
sg130
g1996
sg131
g1997
sg132
I00
sg133
I00
sg134
I0
sg135
g1998
sg136
g1999
sg137
g138
(S"\x07\xdf\x01\x1a\x0e '\x00\x00\x00"
p2002
tp2003
Rp2004
sg142
g1987
sg143
g2001
sg144
I00
sg145
I00
sg146
I00
sbsg147
Nsg29
L661503405198737408L
sg148
I0
sg149
VSeeking Alpha
p2005
sg131
Vda
p2006
sg152
g1967
sg137
g138
(S'\x07\xdf\x0b\x03\x0b\x15\x10\x00\x00\x00'
p2007
tp2008
Rp2009
sg55
(dp2010
g157
Nsg158
I00
sg159
g1964
sg160
I00
sg161
Nsg61
L661503405198737408L
sg162
I0
sg163
V<a href="http://seekingalpha.com" rel="nofollow">Seeking Alpha</a>
p2011
sg165
I00
sg166
Nsg69
(dp2012
g168
(lp2013
(dp2014
g39
(lp2015
I50
aI55
asg159
VCRVL
p2016
sasg224
(lp2017
sg226
(lp2018
sg35
(lp2019
(dp2020
g33
Vhttps://t.co/RbZ9knaJLn
p2021
sg39
(lp2022
I26
aI49
asg41
Vhttp://seekingalpha.com/news/2885916-corvel-reports-q2-results?source=twitter_sa_financialinv
p2023
sg43
Vseekingalpha.com/news/2885916-c\u2026
p2024
sassg234
Nsg235
Nsg236
I0
sg73
V661503405198737408
p2025
sg238
I00
sg239
g1986
sg240
Nsg241
Nsg242
I00
sg95
g2006
sg103
VTue Nov 03 11:21:16 +0000 2015
p2026
sg244
Nsg245
Nsg246
(dp2027
g248
Vda
p2028
sg250
Vrecent
p2029
sssg252
g2027
sg253
Nsg254
Nsg31
g2012
sg255
Nsg256
Nsg115
g2025
sg257
I00
sg258
Nsg259
I0
sg260
Nsbag0
(g4
g5
Ntp2030
Rp2031
(dp2032
g9
I00
sg10
Nsg11
I00
sg12
VCorVel reports Q2 results https://t.co/nCRwiFJb5e $CRVL
p2033
sg14
Vhttp://seekingalpha.com
p2034
sg16
I00
sg17
I00
sg18
Nsg19
g0
(g20
g5
Ntp2035
Rp2036
(dp2037
g24
I00
sg25
I00
sg26
I00
sg27
VF3F3F3
p2038
sg29
I15296897
sg30
I00
sg31
(dp2039
g33
(dp2040
g35
(lp2041
(dp2042
g33
Vhttp://t.co/K8mUqhVprF
p2043
sg39
(lp2044
I0
aI22
asg41
Vhttp://seekingalpha.com/news/all
p2045
sg43
Vseekingalpha.com/news/all
p2046
sassg45
(dp2047
g35
(lp2048
(dp2049
g33
Vhttps://t.co/nzLmsIKexy
p2050
sg39
(lp2051
I96
aI119
asg41
Vhttps://twitter.com/SeekingAlpha/following
p2052
sg43
Vtwitter.com/SeekingAlpha/f\u2026
p2053
sasssg53
Vhttps://pbs.twimg.com/profile_images/562235643225309184/BbO5bjbH_normal.png
p2054
sg55
(dp2055
g57
I00
sg58
I00
sg59
I00
sg60
I00
sg61
I15296897
sg62
Vhttps://pbs.twimg.com/profile_background_images/378800000040521500/f26581d4dd97008e0985dcfede25018e.png
p2056
sg64
I00
sg65
V000000
p2057
sg67
g2054
sg68
g2038
sg69
g2039
sg70
I19259
sg71
VFFFFFF
p2058
sg73
V15296897
p2059
sg75
VC0DEED
p2060
sg77
I1035
sg78
I00
sg79
I-10800
sg80
I373321
sg45
VReal-time stock market news from Seeking Alpha. See all options for Seeking Alpha on Twitter at https://t.co/nzLmsIKexy
p2061
sg82
I33
sg83
VNew York
p2062
sg85
V360000
p2063
sg87
Vhttp://pbs.twimg.com/profile_images/562235643225309184/BbO5bjbH_normal.png
p2064
sg89
I00
sg90
I00
sg91
Vhttp://pbs.twimg.com/profile_background_images/378800000040521500/f26581d4dd97008e0985dcfede25018e.png
p2065
sg93
VMarketCurrents
p2066
sg95
Ven
p2067
sg97
I00
sg98
I0
sg99
VBreaking News
p2068
sg101
I00
sg33
Vhttp://t.co/K8mUqhVprF
p2069
sg103
VWed Jul 02 10:38:58 +0000 2008
p2070
sg105
I00
sg106
VSantiago
p2071
sg108
I00
sg109
I00
sg110
I00
ssg111
I00
sg112
g2057
sg113
I19259
sg114
g2058
sg115
g2059
sg116
I00
sg117
I1035
sg118
I00
sg119
I-10800
sg120
I373321
sg121
g2061
sg122
I33
sg123
g2062
sg124
g2063
sg125
g2064
sg126
I00
sg127
I00
sg128
g2060
sg129
g2065
sg130
g2066
sg131
g2067
sg132
I00
sg133
I00
sg134
I0
sg135
g2068
sg136
g2069
sg137
g138
(S'\x07\xd8\x07\x02\n&:\x00\x00\x00'
p2072
tp2073
Rp2074
sg142
g2056
sg143
g2071
sg144
I00
sg145
I00
sg146
I00
sbsg147
Nsg29
L661503403038666752L
sg148
I0
sg149
VSeeking Alpha
p2075
sg131
Vda
p2076
sg152
g2036
sg137
g138
(S'\x07\xdf\x0b\x03\x0b\x15\x10\x00\x00\x00'
p2077
tp2078
Rp2079
sg55
(dp2080
g157
Nsg158
I00
sg159
g2033
sg160
I00
sg161
Nsg61
L661503403038666752L
sg162
I0
sg163
V<a href="http://seekingalpha.com" rel="nofollow">Seeking Alpha</a>
p2081
sg165
I00
sg166
Nsg69
(dp2082
g168
(lp2083
(dp2084
g39
(lp2085
I50
aI55
asg159
VCRVL
p2086
sasg224
(lp2087
sg226
(lp2088
sg35
(lp2089
(dp2090
g33
Vhttps://t.co/nCRwiFJb5e
p2091
sg39
(lp2092
I26
aI49
asg41
Vhttp://seekingalpha.com/news/2885916-corvel-reports-q2-results?source=feed_f
p2093
sg43
Vseekingalpha.com/news/2885916-c\u2026
p2094
sassg234
Nsg235
Nsg236
I0
sg73
V661503403038666752
p2095
sg238
I00
sg239
g2055
sg240
Nsg241
Nsg242
I00
sg95
g2076
sg103
VTue Nov 03 11:21:16 +0000 2015
p2096
sg244
Nsg245
Nsg246
(dp2097
g248
Vda
p2098
sg250
Vrecent
p2099
sssg252
g2097
sg253
Nsg254
Nsg31
g2082
sg255
Nsg256
Nsg115
g2095
sg257
I00
sg258
Nsg259
I0
sg260
Nsbag0
(g4
g5
Ntp2100
Rp2101
(dp2102
g9
I00
sg10
Nsg11
I00
sg12
V$CRVL:\u000a\u000aCorVel Announces Revenues and Earnings:\u000a\u000ahttps://t.co/Ery27HZKni
p2103
sg14
Vhttp://fnsappbg.blogspot.com/
p2104
sg16
I00
sg17
I00
sg18
Nsg19
g0
(g20
g5
Ntp2105
Rp2106
(dp2107
g24
I00
sg25
I00
sg26
I01
sg27
VDDEEF6
p2108
sg29
L2881595931L
sg30
I00
sg31
(dp2109
g45
(dp2110
g35
(lp2111
sssg53
Vhttps://pbs.twimg.com/profile_images/542392174428434432/PfyzCfya_normal.jpeg
p2112
sg55
(dp2113
g57
I00
sg58
I00
sg59
I01
sg60
I00
sg61
L2881595931L
sg62
Vhttps://abs.twimg.com/images/themes/theme1/bg.png
p2114
sg64
I00
sg65
V333333
p2115
sg67
g2112
sg68
g2108
sg69
g2109
sg70
I593
sg71
VC0DEED
p2116
sg73
V2881595931
p2117
sg75
VC0DEED
p2118
sg77
I90
sg78
I00
sg79
I-18000
sg80
I235206
sg45
g551
sg82
I6
sg83
g551
sg85
V0084B4
p2119
sg87
Vhttp://pbs.twimg.com/profile_images/542392174428434432/PfyzCfya_normal.jpeg
p2120
sg89
I00
sg90
I00
sg91
Vhttp://abs.twimg.com/images/themes/theme1/bg.png
p2121
sg93
VProVesting
p2122
sg95
Ven
p2123
sg97
I00
sg98
I0
sg99
VProVesting
p2124
sg101
I00
sg33
Nsg103
VMon Nov 17 20:15:38 +0000 2014
p2125
sg105
I00
sg106
VEastern Time (US & Canada)
p2126
sg108
I00
sg109
I01
sg110
I00
ssg111
I00
sg112
g2115
sg113
I593
sg114
g2116
sg115
g2117
sg116
I00
sg117
I90
sg118
I00
sg119
I-18000
sg120
I235206
sg121
g551
sg122
I6
sg123
g551
sg124
g2119
sg125
g2120
sg126
I00
sg127
I00
sg128
g2118
sg129
g2121
sg130
g2122
sg131
g2123
sg132
I00
sg133
I00
sg134
I0
sg135
g2124
sg136
Nsg137
g138
(S'\x07\xde\x0b\x11\x14\x0f&\x00\x00\x00'
p2127
tp2128
Rp2129
sg142
g2114
sg143
g2126
sg144
I00
sg145
I01
sg146
I00
sbsg147
Nsg29
L661502618993303552L
sg148
I0
sg149
VFNS_APP
p2130
sg131
Ven
p2131
sg152
g2106
sg137
g138
(S'\x07\xdf\x0b\x03\x0b\x12\t\x00\x00\x00'
p2132
tp2133
Rp2134
sg55
(dp2135
g157
Nsg158
I00
sg159
V$CRVL:\u000a\u000aCorVel Announces Revenues and Earnings:\u000a\u000ahttps://t.co/Ery27HZKni
p2136
sg160
I00
sg161
Nsg61
L661502618993303552L
sg162
I0
sg163
V<a href="http://fnsappbg.blogspot.com/" rel="nofollow">FNS_APP</a>
p2137
sg165
I00
sg166
Nsg69
(dp2138
g168
(lp2139
(dp2140
g39
(lp2141
I0
aI5
asg159
VCRVL
p2142
sasg224
(lp2143
sg226
(lp2144
sg35
(lp2145
(dp2146
g33
Vhttps://t.co/Ery27HZKni
p2147
sg39
(lp2148
I49
aI72
asg41
Vhttp://StockNewsHour.com/crvl-corvel-announces-revenues-and-earnings/
p2149
sg43
VStockNewsHour.com/crvl-corvel-an\u2026
p2150
sassg234
Nsg235
Nsg236
I0
sg73
V661502618993303552
p2151
sg238
I00
sg239
g2113
sg240
Nsg241
Nsg242
I00
sg95
g2131
sg103
VTue Nov 03 11:18:09 +0000 2015
p2152
sg244
Nsg245
Nsg246
(dp2153
g248
Ven
p2154
sg250
Vrecent
p2155
sssg252
g2153
sg253
Nsg254
Nsg31
g2138
sg255
Nsg256
Nsg115
g2151
sg257
I00
sg258
Nsg259
I0
sg260
Nsbag0
(g4
g5
Ntp2156
Rp2157
(dp2158
g9
I00
sg10
Nsg11
I00
sg12
VCorVel Announces Revenues and Earnings $CRVL https://t.co/7cjCcpoAQl
p2159
sg14
Vhttp://globenewswire.com
p2160
sg16
I00
sg17
I00
sg18
Nsg19
g0
(g20
g5
Ntp2161
Rp2162
(dp2163
g24
I00
sg25
I00
sg26
I01
sg27
VDDEEF6
p2164
sg29
I438816954
sg30
I00
sg31
(dp2165
g33
(dp2166
g35
(lp2167
(dp2168
g33
Vhttp://t.co/wcNS0H8hwT
p2169
sg39
(lp2170
I0
aI22
asg41
Vhttp://globenewswire.com
p2171
sg43
Vglobenewswire.com
p2172
sassg45
(dp2173
g35
(lp2174
sssg53
Vhttps://pbs.twimg.com/profile_images/456885923221753857/TSrk7Sxb_normal.png
p2175
sg55
(dp2176
g57
I00
sg58
I00
sg59
I01
sg60
I00
sg61
I438816954
sg62
Vhttps://abs.twimg.com/images/themes/theme1/bg.png
p2177
sg64
I00
sg65
V333333
p2178
sg67
g2175
sg68
g2164
sg69
g2165
sg70
I284
sg71
VC0DEED
p2179
sg73
V438816954
p2180
sg75
VC0DEED
p2181
sg77
I61
sg78
I00
sg79
I-28800
sg80
I205695
sg45
VThe latest live news and press releases - directly from GlobeNewswire.
p2182
sg82
I260
sg83
VGlobal
p2183
sg85
V0084B4
p2184
sg87
Vhttp://pbs.twimg.com/profile_images/456885923221753857/TSrk7Sxb_normal.png
p2185
sg89
I00
sg90
I00
sg91
Vhttp://abs.twimg.com/images/themes/theme1/bg.png
p2186
sg93
VGNWLive
p2187
sg95
Ven
p2188
sg97
I00
sg98
I0
sg99
VGNWLive
p2189
sg101
I00
sg33
Vhttp://t.co/wcNS0H8hwT
p2190
sg103
VSat Dec 17 01:58:33 +0000 2011
p2191
sg105
I00
sg106
VPacific Time (US & Canada)
p2192
sg108
I00
sg109
I01
sg110
I00
ssg111
I00
sg112
g2178
sg113
I284
sg114
g2179
sg115
g2180
sg116
I00
sg117
I61
sg118
I00
sg119
I-28800
sg120
I205695
sg121
g2182
sg122
I260
sg123
g2183
sg124
g2184
sg125
g2185
sg126
I00
sg127
I00
sg128
g2181
sg129
g2186
sg130
g2187
sg131
g2188
sg132
I00
sg133
I00
sg134
I0
sg135
g2189
sg136
g2190
sg137
g138
(S'\x07\xdb\x0c\x11\x01:!\x00\x00\x00'
p2193
tp2194
Rp2195
sg142
g2177
sg143
g2192
sg144
I00
sg145
I01
sg146
I00
sbsg147
Nsg29
L661502003961593856L
sg148
I0
sg149
VGNWLive
p2196
sg131
Ven
p2197
sg152
g2162
sg137
g138
(S'\x07\xdf\x0b\x03\x0b\x0f*\x00\x00\x00'
p2198
tp2199
Rp2200
sg55
(dp2201
g157
Nsg158
I00
sg159
g2159
sg160
I00
sg161
Nsg61
L661502003961593856L
sg162
I0
sg163
V<a href="http://globenewswire.com" rel="nofollow">GNWLive</a>
p2202
sg165
I00
sg166
Nsg69
(dp2203
g168
(lp2204
(dp2205
g39
(lp2206
I39
aI44
asg159
VCRVL
p2207
sasg224
(lp2208
sg226
(lp2209
sg35
(lp2210
(dp2211
g33
Vhttps://t.co/7cjCcpoAQl
p2212
sg39
(lp2213
I45
aI68
asg41
Vhttp://bit.ly/1GJfdhy
p2214
sg43
Vbit.ly/1GJfdhy
p2215
sassg234
Nsg235
Nsg236
I0
sg73
V661502003961593856
p2216
sg238
I00
sg239
g2176
sg240
Nsg241
Nsg242
I00
sg95
g2197
sg103
VTue Nov 03 11:15:42 +0000 2015
p2217
sg244
Nsg245
Nsg246
(dp2218
g248
Ven
p2219
sg250
Vrecent
p2220
sssg252
g2218
sg253
Nsg254
Nsg31
g2203
sg255
Nsg256
Nsg115
g2216
sg257
I00
sg258
Nsg259
I0
sg260
Nsbag0
(g4
g5
Ntp2221
Rp2222
(dp2223
g9
I00
sg10
Nsg11
I00
sg12
V$CRVL:\u000a\u000aNew SEC Filing for CRVL: Form 8-K (No. 0001193125-15-363220):\u000a\u000ahttps://t.co/tSrCmxNDRN
p2224
sg14
Vhttp://www.stocknewswires.com
p2225
sg16
I00
sg17
I00
sg18
Nsg19
g0
(g20
g5
Ntp2226
Rp2227
(dp2228
g24
I00
sg25
I00
sg26
I01
sg27
VE3E2DE
p2229
sg29
L2344619544L
sg30
I00
sg31
(dp2230
g45
(dp2231
g35
(lp2232
sssg53
Vhttps://pbs.twimg.com/profile_images/562292381764952064/mVtp0UmJ_normal.jpeg
p2233
sg55
(dp2234
g57
I00
sg58
I00
sg59
I01
sg60
I00
sg61
L2344619544L
sg62
Vhttps://abs.twimg.com/images/themes/theme3/bg.gif
p2235
sg64
I00
sg65
V634047
p2236
sg67
g2233
sg68
g2229
sg69
g2230
sg70
I516
sg71
VD3D2CF
p2237
sg73
V2344619544
p2238
sg75
VEDECE9
p2239
sg77
I85
sg78
I01
sg79
I-18000
sg80
I182020
sg45
VNews about Stocks
p2240
sg82
I0
sg83
VU.S.
p2241
sg85
V088253
p2242
sg87
Vhttp://pbs.twimg.com/profile_images/562292381764952064/mVtp0UmJ_normal.jpeg
p2243
sg89
I00
sg90
I00
sg91
Vhttp://abs.twimg.com/images/themes/theme3/bg.gif
p2244
sg93
VNewsToDesk
p2245
sg95
Ven
p2246
sg97
I00
sg98
I0
sg99
VBreakingStocksNews
p2247
sg101
I00
sg33
Nsg103
VSat Feb 15 05:49:10 +0000 2014
p2248
sg105
I00
sg106
VEastern Time (US & Canada)
p2249
sg108
I00
sg109
I00
sg110
I00
ssg111
I00
sg112
g2236
sg113
I516
sg114
g2237
sg115
g2238
sg116
I00
sg117
I85
sg118
I01
sg119
I-18000
sg120
I182020
sg121
g2240
sg122
I0
sg123
g2241
sg124
g2242
sg125
g2243
sg126
I00
sg127
I00
sg128
g2239
sg129
g2244
sg130
g2245
sg131
g2246
sg132
I00
sg133
I00
sg134
I0
sg135
g2247
sg136
Nsg137
g138
(S'\x07\xde\x02\x0f\x051\n\x00\x00\x00'
p2250
tp2251
Rp2252
sg142
g2235
sg143
g2249
sg144
I00
sg145
I00
sg146
I00
sbsg147
Nsg29
L661501863888572416L
sg148
I0
sg149
VStockNewsWires
p2253
sg131
Vnl
p2254
sg152
g2227
sg137
g138
(S'\x07\xdf\x0b\x03\x0b\x0f\t\x00\x00\x00'
p2255
tp2256
Rp2257
sg55
(dp2258
g157
Nsg158
I00
sg159
V$CRVL:\u000a\u000aNew SEC Filing for CRVL: Form 8-K (No. 0001193125-15-363220):\u000a\u000ahttps://t.co/tSrCmxNDRN
p2259
sg160
I00
sg161
Nsg61
L661501863888572416L
sg162
I0
sg163
V<a href="http://www.stocknewswires.com" rel="nofollow">StockNewsWires</a>
p2260
sg165
I00
sg166
Nsg69
(dp2261
g168
(lp2262
(dp2263
g39
(lp2264
I0
aI5
asg159
VCRVL
p2265
sasg224
(lp2266
sg226
(lp2267
sg35
(lp2268
(dp2269
g33
Vhttps://t.co/tSrCmxNDRN
p2270
sg39
(lp2271
I71
aI94
asg41
Vhttp://StockNewsHour.com/crvl-new-sec-filing-for-crvl-form-8-k-no-0001193125-15-363220/
p2272
sg43
VStockNewsHour.com/crvl-new-sec-f\u2026
p2273
sassg234
Nsg235
Nsg236
I0
sg73
V661501863888572416
p2274
sg238
I00
sg239
g2234
sg240
Nsg241
Nsg242
I00
sg95
g2254
sg103
VTue Nov 03 11:15:09 +0000 2015
p2275
sg244
Nsg245
Nsg246
(dp2276
g248
Vnl
p2277
sg250
Vrecent
p2278
sssg252
g2276
sg253
Nsg254
Nsg31
g2261
sg255
Nsg256
Nsg115
g2274
sg257
I00
sg258
Nsg259
I0
sg260
Nsbag0
(g4
g5
Ntp2279
Rp2280
(dp2281
g9
I00
sg10
Nsg11
I00
sg12
VNEW SEC Filing for $CRVL filed a moment ago: https://t.co/Buhk0e1jhW https://t.co/hnXYyKWrZb
p2282
sg14
Vhttp://www.newsflowing.com
p2283
sg16
I00
sg17
I00
sg18
Nsg19
g0
(g20
g5
Ntp2284
Rp2285
(dp2286
g24
I00
sg25
I00
sg26
I01
sg27
VF3F3F3
p2287
sg29
L2341446434L
sg30
I00
sg31
(dp2288
g45
(dp2289
g35
(lp2290
sssg53
Vhttps://pbs.twimg.com/profile_images/562323085005565953/2Sazc-dB_normal.jpeg
p2291
sg55
(dp2292
g57
I00
sg58
I00
sg59
I01
sg60
I00
sg61
L2341446434L
sg62
Vhttps://abs.twimg.com/images/themes/theme7/bg.gif
p2293
sg64
I00
sg65
V333333
p2294
sg67
g2291
sg68
g2287
sg69
g2288
sg70
I69
sg71
VDFDFDF
p2295
sg73
V2341446434
p2296
sg75
VEBEBEB
p2297
sg77
I6
sg78
I00
sg79
I-14400
sg80
I26716
sg45
g551
sg82
I0
sg83
g551
sg85
V990000
p2298
sg87
Vhttp://pbs.twimg.com/profile_images/562323085005565953/2Sazc-dB_normal.jpeg
p2299
sg89
I00
sg90
I00
sg91
Vhttp://abs.twimg.com/images/themes/theme7/bg.gif
p2300
sg93
VNewsThatIs
p2301
sg95
Ven
p2302
sg97
I00
sg98
I0
sg99
VSEC Filings Reporter
p2303
sg101
I00
sg33
Nsg103
VThu Feb 13 05:31:19 +0000 2014
p2304
sg105
I00
sg106
VAtlantic Time (Canada)
p2305
sg108
I00
sg109
I00
sg110
I00
ssg111
I00
sg112
g2294
sg113
I69
sg114
g2295
sg115
g2296
sg116
I00
sg117
I6
sg118
I00
sg119
I-14400
sg120
I26716
sg121
g551
sg122
I0
sg123
g551
sg124
g2298
sg125
g2299
sg126
I00
sg127
I00
sg128
g2297
sg129
g2300
sg130
g2301
sg131
g2302
sg132
I00
sg133
I00
sg134
I0
sg135
g2303
sg136
Nsg137
g138
(S'\x07\xde\x02\r\x05\x1f\x13\x00\x00\x00'
p2306
tp2307
Rp2308
sg142
g2293
sg143
g2305
sg144
I00
sg145
I00
sg146
I00
sbsg147
Nsg29
L661501672217276416L
sg148
I0
sg149
VNFIG
p2309
sg131
Ven
p2310
sg152
g2285
sg137
g138
(S'\x07\xdf\x0b\x03\x0b\x0e\x17\x00\x00\x00'
p2311
tp2312
Rp2313
sg55
(dp2314
g157
Nsg158
I00
sg159
g2282
sg160
I00
sg161
Nsg61
L661501672217276416L
sg162
I0
sg163
V<a href="http://www.newsflowing.com" rel="nofollow">NFIG</a>
p2315
sg165
I00
sg166
Nsg69
(dp2316
g168
(lp2317
(dp2318
g39
(lp2319
I19
aI24
asg159
VCRVL
p2320
sasg224
(lp2321
sg226
(lp2322
sg35
(lp2323
(dp2324
g33
Vhttps://t.co/Buhk0e1jhW
p2325
sg39
(lp2326
I45
aI68
asg41
Vhttp://stocknewsflow.com/874866_000119312515363220_0001193125-15-363220
p2327
sg43
Vstocknewsflow.com/874866_0001193\u2026
p2328
sasVmedia
p2329
(lp2330
(dp2331
g41
Vhttp://twitter.com/NewsThatIs/status/661501672217276416/photo/1
p2332
sg43
Vpic.twitter.com/hnXYyKWrZb
p2333
sg33
Vhttps://t.co/hnXYyKWrZb
p2334
sVmedia_url_https
p2335
Vhttps://pbs.twimg.com/media/CS4gRBuW4AApIY6.jpg
p2336
sg73
V661501672162779136
p2337
sVsizes
p2338
(dp2339
Vlarge
p2340
(dp2341
Vh
p2342
I4
sVresize
p2343
Vfit
p2344
sVw
p2345
I4
ssVsmall
p2346
(dp2347
g2342
I4
sg2343
Vfit
p2348
sg2345
I4
ssVmedium
p2349
(dp2350
g2342
I4
sg2343
Vfit
p2351
sg2345
I4
ssVthumb
p2352
(dp2353
g2342
I4
sg2343
Vcrop
p2354
sg2345
I4
sssg39
(lp2355
I69
aI92
asVtype
p2356
Vphoto
p2357
sg61
L661501672162779136L
sVmedia_url
p2358
Vhttp://pbs.twimg.com/media/CS4gRBuW4AApIY6.jpg
p2359
sassg234
Nsg235
Nsg236
I0
sg73
V661501672217276416
p2360
sg238
I00
sg239
g2292
sg240
Nsg241
Nsg242
I00
sg95
g2310
sg103
VTue Nov 03 11:14:23 +0000 2015
p2361
sg244
Nsg245
Nsg246
(dp2362
g248
Ven
p2363
sg250
Vrecent
p2364
sssg252
g2362
sg253
Nsg254
Nsg31
g2316
sg255
Nsg256
Nsg115
g2360
sg257
I00
sg258
Nsg259
I0
sg260
Nsbag0
(g4
g5
Ntp2365
Rp2366
(dp2367
g9
I00
sg10
Nsg11
I00
sg12
V$CRVL: CORVEL CORP filed a form 8-K. https://t.co/XzJm9cij3L
p2368
sg14
Vhttp://www.jivedata.com/sec
p2369
sg16
I00
sg17
I00
sg18
Nsg19
g0
(g20
g5
Ntp2370
Rp2371
(dp2372
g24
I00
sg25
I00
sg26
I01
sg27
VDDEEF6
p2373
sg29
I898018302
sg30
I00
sg31
(dp2374
g33
(dp2375
g35
(lp2376
(dp2377
g33
Vhttp://t.co/pWCxN8KLo5
p2378
sg39
(lp2379
I0
aI22
asg41
Vhttp://www.jivedata.com
p2380
sg43
Vjivedata.com
p2381
sassg45
(dp2382
g35
(lp2383
sssg53
Vhttps://pbs.twimg.com/profile_images/416320093316841472/YhFYvqmi_normal.png
p2384
sg55
(dp2385
g57
I00
sg58
I00
sg59
I01
sg60
I00
sg61
I898018302
sg62
Vhttps://pbs.twimg.com/profile_background_images/378800000157544683/R6GKx2Ke.png
p2386
sg64
I00
sg65
V333333
p2387
sg67
g2384
sg68
g2373
sg69
g2374
sg70
I87
sg71
VFFFFFF
p2388
sg73
V898018302
p2389
sg75
VFFFFFF
p2390
sg77
I14
sg78
I00
sg79
I-18000
sg80
I56088
sg45
VFinancial. Data. Done. Right. This is a real-time feed of XBRL financial data from 10-K's and 10-Q's
p2391
sg82
I0
sg83
VNew York, NY
p2392
sg85
V0084B4
p2393
sg87
Vhttp://pbs.twimg.com/profile_images/416320093316841472/YhFYvqmi_normal.png
p2394
sg89
I00
sg90
I00
sg91
Vhttp://pbs.twimg.com/profile_background_images/378800000157544683/R6GKx2Ke.png
p2395
sg93
Vsec_filings
p2396
sg95
Ven
p2397
sg97
I00
sg98
I0
sg99
VSec Filings
p2398
sg101
I00
sg33
Vhttp://t.co/pWCxN8KLo5
p2399
sg103
VMon Oct 22 17:25:30 +0000 2012
p2400
sg105
I00
sg106
VEastern Time (US & Canada)
p2401
sg108
I00
sg109
I00
sg110
I00
ssg111
I00
sg112
g2387
sg113
I87
sg114
g2388
sg115
g2389
sg116
I00
sg117
I14
sg118
I00
sg119
I-18000
sg120
I56088
sg121
g2391
sg122
I0
sg123
g2392
sg124
g2393
sg125
g2394
sg126
I00
sg127
I00
sg128
g2390
sg129
g2395
sg130
g2396
sg131
g2397
sg132
I00
sg133
I00
sg134
I0
sg135
g2398
sg136
g2399
sg137
g138
(S'\x07\xdc\n\x16\x11\x19\x1e\x00\x00\x00'
p2402
tp2403
Rp2404
sg142
g2386
sg143
g2401
sg144
I00
sg145
I00
sg146
I00
sbsg147
Nsg29
L661501400002617344L
sg148
I0
sg149
VJive Data SEC Filings
p2405
sg131
Vnl
p2406
sg152
g2371
sg137
g138
(S'\x07\xdf\x0b\x03\x0b\r\x12\x00\x00\x00'
p2407
tp2408
Rp2409
sg55
(dp2410
g157
Nsg158
I00
sg159
g2368
sg160
I00
sg161
Nsg61
L661501400002617344L
sg162
I0
sg163
V<a href="http://www.jivedata.com/sec" rel="nofollow">Jive Data SEC Filings</a>
p2411
sg165
I00
sg166
Nsg69
(dp2412
g168
(lp2413
(dp2414
g39
(lp2415
I0
aI5
asg159
VCRVL
p2416
sasg224
(lp2417
sg226
(lp2418
sg35
(lp2419
(dp2420
g33
Vhttps://t.co/XzJm9cij3L
p2421
sg39
(lp2422
I37
aI60
asg41
Vhttp://www.jivedata.com/filings/CRVL/
p2423
sg43
Vjivedata.com/filings/CRVL/
p2424
sassg234
Nsg235
Nsg236
I0
sg73
V661501400002617344
p2425
sg238
I00
sg239
g2385
sg240
Nsg241
Nsg242
I00
sg95
g2406
sg103
VTue Nov 03 11:13:18 +0000 2015
p2426
sg244
Nsg245
Nsg246
(dp2427
g248
Vnl
p2428
sg250
Vrecent
p2429
sssg252
g2427
sg253
Nsg254
Nsg31
g2412
sg255
Nsg256
Nsg115
g2425
sg257
I00
sg258
Nsg259
I0
sg260
Nsbag0
(g4
g5
Ntp2430
Rp2431
(dp2432
g9
I00
sg10
Nsg11
I00
sg12
V$CIE $COKE $CGNT $CPGX $CPPL $CGEN.TA $CCUR $CNNX $MCF $CPS $KBHL.CO $CRVL $CEQP $CPIX $DAC $DVA $DCTH $DKL $DK $DENN $DEPO $DVN $DHT $FANG
p2433
sg14
Vhttps://twitter.com/USEarningsCal
p2434
sg17
I00
sg18
Nsg19
g0
(g20
g5
Ntp2435
Rp2436
(dp2437
g24
I00
sg25
I01
sg26
I00
sg27
V000000
p2438
sg29
L3272603407L
sg30
I00
sg31
(dp2439
g45
(dp2440
g35
(lp2441
sssg53
Vhttps://pbs.twimg.com/profile_images/621905731336323072/M63p67Ym_normal.jpg
p2442
sg55
(dp2443
g57
I00
sg58
I01
sg59
I00
sg60
I00
sg61
L3272603407L
sg62
Vhttps://abs.twimg.com/images/themes/theme1/bg.png
p2444
sg64
I00
sg65
V000000
p2445
sg67
g2442
sg68
g2438
sg69
g2439
sg70
I20
sg71
V000000
p2446
sg73
V3272603407
p2447
sg75
V000000
p2448
sg77
I4
sg78
I00
sg79
Nsg80
I436
sg45
VU.S. Earnings
p2449
sg82
I2
sg83
VUnited States
p2450
sg85
V4A913C
p2451
sg87
Vhttp://pbs.twimg.com/profile_images/621905731336323072/M63p67Ym_normal.jpg
p2452
sg89
I00
sg90
I00
sg411
Vhttps://pbs.twimg.com/profile_banners/3272603407/1437108798
p2453
sg91
Vhttp://abs.twimg.com/images/themes/theme1/bg.png
p2454
sg93
VUSEarningsCal
p2455
sg95
Ven
p2456
sg97
I00
sg98
I0
sg99
VUS Earnings Calendar
p2457
sg101
I00
sg33
Nsg103
VThu Jul 09 04:45:59 +0000 2015
p2458
sg105
I00
sg106
Nsg108
I00
sg109
I00
sg110
I00
ssg111
I00
sg112
g2445
sg113
I20
sg114
g2446
sg115
g2447
sg116
I00
sg117
I4
sg118
I00
sg119
Nsg120
I436
sg121
g2449
sg122
I2
sg123
g2450
sg124
g2451
sg125
g2452
sg126
I00
sg127
I00
sg128
g2448
sg420
g2453
sg129
g2454
sg130
g2455
sg131
g2456
sg132
I00
sg133
I00
sg134
I0
sg135
g2457
sg136
Nsg137
g138
(S'\x07\xdf\x07\t\x04-;\x00\x00\x00'
p2459
tp2460
Rp2461
sg142
g2444
sg143
Nsg144
I00
sg145
I00
sg146
I00
sbsg147
Nsg29
L661347069244772352L
sg148
I0
sg149
VUS Earnings Cal
p2462
sg131
Vin
p2463
sg152
g2436
sg137
g138
(S'\x07\xdf\x0b\x03\x01\x00\x03\x00\x00\x00'
p2464
tp2465
Rp2466
sg55
(dp2467
g157
Nsg158
I00
sg159
g2433
sg160
I00
sg161
Nsg61
L661347069244772352L
sg162
I0
sg163
V<a href="https://twitter.com/USEarningsCal" rel="nofollow">US Earnings Cal</a>
p2468
sg165
I00
sg166
Nsg69
(dp2469
g168
(lp2470
(dp2471
g39
(lp2472
I0
aI4
asg159
VCIE
p2473
sa(dp2474
g39
(lp2475
I5
aI10
asg159
VCOKE
p2476
sa(dp2477
g39
(lp2478
I11
aI16
asg159
VCGNT
p2479
sa(dp2480
g39
(lp2481
I17
aI22
asg159
VCPGX
p2482
sa(dp2483
g39
(lp2484
I23
aI28
asg159
VCPPL
p2485
sa(dp2486
g39
(lp2487
I29
aI37
asg159
VCGEN.TA
p2488
sa(dp2489
g39
(lp2490
I38
aI43
asg159
VCCUR
p2491
sa(dp2492
g39
(lp2493
I44
aI49
asg159
VCNNX
p2494
sa(dp2495
g39
(lp2496
I50
aI54
asg159
VMCF
p2497
sa(dp2498
g39
(lp2499
I55
aI59
asg159
VCPS
p2500
sa(dp2501
g39
(lp2502
I60
aI68
asg159
VKBHL.CO
p2503
sa(dp2504
g39
(lp2505
I69
aI74
asg159
VCRVL
p2506
sa(dp2507
g39
(lp2508
I75
aI80
asg159
VCEQP
p2509
sa(dp2510
g39
(lp2511
I81
aI86
asg159
VCPIX
p2512
sa(dp2513
g39
(lp2514
I87
aI91
asg159
VDAC
p2515
sa(dp2516
g39
(lp2517
I92
aI96
asg159
VDVA
p2518
sa(dp2519
g39
(lp2520
I97
aI102
asg159
VDCTH
p2521
sa(dp2522
g39
(lp2523
I103
aI107
asg159
VDKL
p2524
sa(dp2525
g39
(lp2526
I108
aI111
asg159
VDK
p2527
sa(dp2528
g39
(lp2529
I112
aI117
asg159
VDENN
p2530
sa(dp2531
g39
(lp2532
I118
aI123
asg159
VDEPO
p2533
sa(dp2534
g39
(lp2535
I124
aI128
asg159
VDVN
p2536
sa(dp2537
g39
(lp2538
I129
aI133
asg159
VDHT
p2539
sa(dp2540
g39
(lp2541
I134
aI139
asg159
VFANG
p2542
sasg224
(lp2543
sg226
(lp2544
sg35
(lp2545
ssg234
Nsg235
Nsg236
I1
sg73
V661347069244772352
p2546
sg238
I00
sg239
g2443
sg240
Nsg241
Nsg95
g2463
sg103
VTue Nov 03 01:00:03 +0000 2015
p2547
sg244
Nsg245
Nsg246
(dp2548
g248
Vin
p2549
sg250
Vrecent
p2550
sssg252
g2548
sg253
Nsg254
Nsg31
g2469
sg255
Nsg256
Nsg115
g2546
sg257
I00
sg258
Nsg259
I1
sg260
Nsbag0
(g4
g5
Ntp2551
Rp2552
(dp2553
g9
I00
sg10
Nsg11
I00
sg12
VCorVel Corp. $CRVL [Cap $662M] Q2 #earnings tomorrow before open[4wk chg vs mkt: 97%] @xignite
p2554
sg14
Vhttp://www.xignite.com/product/XigniteEarningsCalendar/
p2555
sg17
I00
sg18
Nsg19
g0
(g20
g5
Ntp2556
Rp2557
(dp2558
g24
I00
sg25
I00
sg26
I01
sg27
VDDEEF6
p2559
sg29
L2208380473L
sg30
I00
sg31
(dp2560
g33
(dp2561
g35
(lp2562
(dp2563
g33
Vhttps://t.co/HNwGqP7dla
p2564
sg39
(lp2565
I0
aI23
asg41
Vhttps://www.xignite.com/product/XigniteEarningsCalendar/
p2566
sg43
Vxignite.com/product/Xignit\u2026
p2567
sassg45
(dp2568
g35
(lp2569
sssg53
Vhttps://pbs.twimg.com/profile_images/644612716867399684/0X2zcIt7_normal.png
p2570
sg55
(dp2571
g57
I00
sg58
I00
sg59
I01
sg60
I00
sg61
L2208380473L
sg62
Vhttps://pbs.twimg.com/profile_background_images/378800000121530658/1df36fb05bd5945e8368055b7e6b1d59.jpeg
p2572
sg64
I00
sg65
V333333
p2573
sg67
g2570
sg68
g2559
sg69
g2560
sg70
I70
sg71
VFFFFFF
p2574
sg73
V2208380473
p2575
sg75
VC0DEED
p2576
sg77
I7
sg78
I00
sg79
Nsg80
I6781
sg45
VEarnings Announcement and Stuff. Powered by the XigniteEarningsCalendar API. Data by Wall Street Horizon, Zacks and Others.
p2577
sg82
I14
sg83
VThe Market Data Cloud
p2578
sg85
VFFCC4D
p2579
sg87
Vhttp://pbs.twimg.com/profile_images/644612716867399684/0X2zcIt7_normal.png
p2580
sg89
I00
sg90
I00
sg91
Vhttp://pbs.twimg.com/profile_background_images/378800000121530658/1df36fb05bd5945e8368055b7e6b1d59.jpeg
p2581
sg93
VXigniteEarnings
p2582
sg95
Ven
p2583
sg97
I00
sg98
I0
sg99
VXignite Earnings
p2584
sg101
I00
sg33
Vhttps://t.co/HNwGqP7dla
p2585
sg103
VFri Nov 22 05:31:08 +0000 2013
p2586
sg105
I00
sg106
Nsg108
I00
sg109
I00
sg110
I00
ssg111
I00
sg112
g2573
sg113
I70
sg114
g2574
sg115
g2575
sg116
I00
sg117
I7
sg118
I00
sg119
Nsg120
I6781
sg121
g2577
sg122
I14
sg123
g2578
sg124
g2579
sg125
g2580
sg126
I00
sg127
I00
sg128
g2576
sg129
g2581
sg130
g2582
sg131
g2583
sg132
I00
sg133
I00
sg134
I0
sg135
g2584
sg136
g2585
sg137
g138
(S'\x07\xdd\x0b\x16\x05\x1f\x08\x00\x00\x00'
p2587
tp2588
Rp2589
sg142
g2572
sg143
Nsg144
I00
sg145
I00
sg146
I00
sbsg147
Nsg29
L661301872515416065L
sg148
I0
sg149
VXigniteEarnings
p2590
sg131
Ven
p2591
sg152
g2557
sg137
g138
(S'\x07\xdf\x0b\x02\x16\x00\x1b\x00\x00\x00'
p2592
tp2593
Rp2594
sg55
(dp2595
g157
Nsg158
I00
sg159
g2554
sg160
I00
sg161
Nsg61
L661301872515416065L
sg162
I0
sg163
V<a href="http://www.xignite.com/product/XigniteEarningsCalendar/" rel="nofollow">XigniteEarnings</a>
p2596
sg165
I00
sg166
Nsg69
(dp2597
g168
(lp2598
(dp2599
g39
(lp2600
I13
aI18
asg159
VCRVL
p2601
sasg224
(lp2602
(dp2603
g61
I5023951
sg39
(lp2604
I86
aI94
asg73
V5023951
p2605
sg93
Vxignite
p2606
sg99
VXignite
p2607
sasg226
(lp2608
(dp2609
g39
(lp2610
I34
aI43
asg159
Vearnings
p2611
sasg35
(lp2612
ssg234
Nsg235
Nsg236
I0
sg73
V661301872515416065
p2613
sg238
I00
sg239
g2571
sg240
Nsg241
Nsg95
g2591
sg103
VMon Nov 02 22:00:27 +0000 2015
p2614
sg244
Nsg245
Nsg246
(dp2615
g248
Ven
p2616
sg250
Vrecent
p2617
sssg252
g2615
sg253
Nsg254
Nsg31
g2597
sg255
Nsg256
Nsg115
g2613
sg257
I00
sg258
Nsg259
I0
sg260
Nsbatp2618
Rp2619
(dp2620
S'count'
p2621
I100
sS'completed_in'
p2622
F0.058
sS'_since_id'
p2623
NsS'refresh_url'
p2624
V?since_id=663864604875866112&q=%24CRVL&include_entities=1
p2625
sS'query'
p2626
V%24CRVL
p2627
sS'_max_id'
p2628
NsS'next_results'
p2629
Nsb.