ccopy_reg
_reconstructor
p0
(ctweepy.models
SearchResults
p1
c__builtin__
list
p2
(lp3
g0
(ctweepy.models
Status
p4
c__builtin__
object
p5
Ntp6
Rp7
(dp8
S'favorited'
p9
I00
sS'contributors'
p10
NsS'truncated'
p11
I00
sS'text'
p12
VPost #Nuclear #Germany \u2013 a Green Myth? | InvestorIntel https://t.co/UtFfDCWURe #greenenergy #uranium $NLR #commodities $GEX $PBW $PBD $ICLN
p13
sS'source_url'
p14
Vhttp://www.hootsuite.com
p15
sS'possibly_sensitive'
p16
I00
sS'is_quote_status'
p17
I00
sS'in_reply_to_status_id'
p18
NsS'user'
p19
g0
(ctweepy.models
User
p20
g5
Ntp21
Rp22
(dp23
S'follow_request_sent'
p24
I00
sS'has_extended_profile'
p25
I00
sS'profile_use_background_image'
p26
I00
sS'profile_sidebar_fill_color'
p27
V000000
p28
sS'id'
p29
L3617663605L
sS'verified'
p30
I00
sS'entities'
p31
(dp32
Vurl
p33
(dp34
Vurls
p35
(lp36
(dp37
g33
Vhttp://t.co/9hiZVhJnwK
p38
sVindices
p39
(lp40
I0
aI22
asVexpanded_url
p41
Vhttp://briandcolwell.blogspot.com
p42
sVdisplay_url
p43
Vbriandcolwell.blogspot.com
p44
sassVdescription
p45
(dp46
g35
(lp47
sssS'profile_image_url_https'
p48
Vhttps://pbs.twimg.com/profile_images/645289880554110976/UXw8A2oD_normal.jpg
p49
sS'_json'
p50
(dp51
Vfollow_request_sent
p52
I00
sVhas_extended_profile
p53
I00
sVprofile_use_background_image
p54
I00
sVdefault_profile_image
p55
I00
sVid
p56
L3617663605L
sVprofile_background_image_url_https
p57
Vhttps://abs.twimg.com/images/themes/theme1/bg.png
p58
sVverified
p59
I00
sVprofile_text_color
p60
V000000
p61
sVprofile_image_url_https
p62
g49
sVprofile_sidebar_fill_color
p63
g28
sVentities
p64
g32
sVfollowers_count
p65
I132
sVprofile_sidebar_border_color
p66
V000000
p67
sVid_str
p68
V3617663605
p69
sVprofile_background_color
p70
V000000
p71
sVlisted_count
p72
I9
sVis_translation_enabled
p73
I00
sVutc_offset
p74
NsVstatuses_count
p75
I804
sg45
VTweets about #GlobalMacro with a special focus on #Commodities. \u000a\u000aCheck out the other financial topics I cover on @BrianDColwell
p76
sVfriends_count
p77
I263
sVlocation
p78
VSan Diego, CA
p79
sVprofile_link_color
p80
V64696B
p81
sVprofile_image_url
p82
Vhttp://pbs.twimg.com/profile_images/645289880554110976/UXw8A2oD_normal.jpg
p83
sVfollowing
p84
I00
sVgeo_enabled
p85
I00
sVprofile_banner_url
p86
Vhttps://pbs.twimg.com/profile_banners/3617663605/1442684414
p87
sVprofile_background_image_url
p88
Vhttp://abs.twimg.com/images/themes/theme1/bg.png
p89
sVscreen_name
p90
VBColwell_CTA
p91
sVlang
p92
Ven
p93
sVprofile_background_tile
p94
I00
sVfavourites_count
p95
I29
sVname
p96
VBrian D Colwell
p97
sVnotifications
p98
I00
sg33
Vhttp://t.co/9hiZVhJnwK
p99
sVcreated_at
p100
VSat Sep 19 16:17:13 +0000 2015
p101
sVcontributors_enabled
p102
I00
sVtime_zone
p103
NsVprotected
p104
I00
sVdefault_profile
p105
I00
sVis_translator
p106
I00
ssS'contributors_enabled'
p107
I00
sS'profile_text_color'
p108
g61
sS'followers_count'
p109
I132
sS'profile_sidebar_border_color'
p110
g67
sS'id_str'
p111
g69
sS'default_profile_image'
p112
I00
sS'listed_count'
p113
I9
sS'is_translation_enabled'
p114
I00
sS'utc_offset'
p115
NsS'statuses_count'
p116
I804
sS'description'
p117
VTweets about #GlobalMacro with a special focus on #Commodities. \u000a\u000aCheck out the other financial topics I cover on @BrianDColwell
p118
sS'friends_count'
p119
I263
sS'location'
p120
g79
sS'profile_link_color'
p121
g81
sS'profile_image_url'
p122
g83
sS'notifications'
p123
I00
sS'geo_enabled'
p124
I00
sS'profile_background_color'
p125
g71
sS'profile_banner_url'
p126
g87
sS'profile_background_image_url'
p127
g89
sS'screen_name'
p128
g91
sS'lang'
p129
g93
sS'following'
p130
I00
sS'profile_background_tile'
p131
I00
sS'favourites_count'
p132
I29
sS'name'
p133
g97
sS'url'
p134
g99
sS'created_at'
p135
cdatetime
datetime
p136
(S'\x07\xdf\t\x13\x10\x11\r\x00\x00\x00'
p137
tp138
Rp139
sS'profile_background_image_url_https'
p140
g58
sS'time_zone'
p141
NsS'protected'
p142
I00
sS'default_profile'
p143
I00
sS'is_translator'
p144
I00
sbsS'geo'
p145
Nsg29
L664236276841869313L
sS'favorite_count'
p146
I0
sS'source'
p147
VHootsuite
p148
sg129
Ven
p149
sS'author'
p150
g22
sg135
g136
(S'\x07\xdf\x0b\x0b\x00\x14+\x00\x00\x00'
p151
tp152
Rp153
sg50
(dp154
Vcontributors
p155
NsVtruncated
p156
I00
sVtext
p157
g13
sVis_quote_status
p158
I00
sVin_reply_to_status_id
p159
Nsg56
L664236276841869313L
sVfavorite_count
p160
I0
sVsource
p161
V<a href="http://www.hootsuite.com" rel="nofollow">Hootsuite</a>
p162
sVretweeted
p163
I00
sVcoordinates
p164
Nsg64
(dp165
Vsymbols
p166
(lp167
(dp168
g39
(lp169
I101
aI105
asg157
VNLR
p170
sa(dp171
g39
(lp172
I119
aI123
asg157
VGEX
p173
sa(dp174
g39
(lp175
I124
aI128
asg157
VPBW
p176
sa(dp177
g39
(lp178
I129
aI133
asg157
VPBD
p179
sa(dp180
g39
(lp181
I134
aI139
asg157
VICLN
p182
sasVuser_mentions
p183
(lp184
sVhashtags
p185
(lp186
(dp187
g39
(lp188
I5
aI13
asg157
VNuclear
p189
sa(dp190
g39
(lp191
I14
aI22
asg157
VGermany
p192
sa(dp193
g39
(lp194
I79
aI91
asg157
Vgreenenergy
p195
sa(dp196
g39
(lp197
I92
aI100
asg157
Vuranium
p198
sa(dp199
g39
(lp200
I106
aI118
asg157
Vcommodities
p201
sasg35
(lp202
(dp203
g33
Vhttps://t.co/UtFfDCWURe
p204
sg39
(lp205
I55
aI78
asg41
Vhttp://ow.ly/Ul91T
p206
sg43
Vow.ly/Ul91T
p207
sassVin_reply_to_screen_name
p208
NsVin_reply_to_user_id
p209
NsVretweet_count
p210
I0
sg68
V664236276841869313
p211
sVfavorited
p212
I00
sVuser
p213
g51
sVgeo
p214
NsVin_reply_to_user_id_str
p215
NsVpossibly_sensitive
p216
I00
sg92
g149
sg100
VWed Nov 11 00:20:43 +0000 2015
p217
sVin_reply_to_status_id_str
p218
NsVplace
p219
NsVmetadata
p220
(dp221
Viso_language_code
p222
Ven
p223
sVresult_type
p224
Vrecent
p225
sssS'metadata'
p226
g221
sS'coordinates'
p227
NsS'in_reply_to_user_id_str'
p228
Nsg31
g165
sS'in_reply_to_status_id_str'
p229
NsS'in_reply_to_screen_name'
p230
Nsg111
g211
sS'retweeted'
p231
I00
sS'place'
p232
NsS'retweet_count'
p233
I0
sS'in_reply_to_user_id'
p234
Nsbag0
(g4
g5
Ntp235
Rp236
(dp237
g9
I00
sg10
Nsg11
I00
sg12
VSHORT Seller Alert $ICLN - iShares GLOBAL CLEAN ENERGY ETF #ShortSeller #Stocks ~ via #AlertTrade
p238
sg14
Vhttp://dlvr.it
p239
sg17
I00
sg18
Nsg19
g0
(g20
g5
Ntp240
Rp241
(dp242
g24
I00
sg25
I00
sg26
I00
sg27
VC0DFEC
p243
sg29
I121158213
sg30
I00
sg31
(dp244
g33
(dp245
g35
(lp246
(dp247
g33
Vhttp://t.co/0qjAA0UcWX
p248
sg39
(lp249
I0
aI22
asg41
Vhttp://stockhorizon.com/at/performance/
p250
sg43
Vstockhorizon.com/at/performance/
p251
sassg45
(dp252
g35
(lp253
(dp254
g33
Vhttps://t.co/mounr6yodP
p255
sg39
(lp256
I107
aI130
asg41
Vhttp://goo.gl/qRm05l
p257
sg43
Vgoo.gl/qRm05l
p258
sasssg48
Vhttps://pbs.twimg.com/profile_images/479204884114198528/RcwJAUZk_normal.png
p259
sg50
(dp260
g52
I00
sg53
I00
sg54
I00
sg55
I00
sg56
I121158213
sg57
Vhttps://pbs.twimg.com/profile_background_images/448264669841465344/Hb9PWICH.png
p261
sg59
I00
sg60
V333333
p262
sg62
g259
sg63
g243
sg64
g244
sg65
I64061
sg66
VFFFFFF
p263
sg68
V121158213
p264
sg70
V010D12
p265
sg72
I1434
sg73
I00
sg74
I-18000
sg75
I763735
sg45
VNOV-04 LONG ALERT $EMES +32% \u2605 100% Automated Stock Trade Alerts #Trading #Stocks Short/Long  \u27a1  \u27a1 \u27a1 via \u2192 https://t.co/mounr6yodP
p266
sg77
I64324
sg78
V\u2193 \u2193 Trade Alerts Performance
p267
sg80
V0015B3
p268
sg82
Vhttp://pbs.twimg.com/profile_images/479204884114198528/RcwJAUZk_normal.png
p269
sg84
I00
sg85
I00
sg86
Vhttps://pbs.twimg.com/profile_banners/121158213/1403086379
p270
sg88
Vhttp://pbs.twimg.com/profile_background_images/448264669841465344/Hb9PWICH.png
p271
sg90
VAlertTrade
p272
sg92
Ven
p273
sg94
I00
sg95
I1197
sg96
VStock Trade Alerts
p274
sg98
I00
sg33
Vhttp://t.co/0qjAA0UcWX
p275
sg100
VMon Mar 08 16:14:34 +0000 2010
p276
sg102
I00
sg103
VEastern Time (US & Canada)
p277
sg104
I00
sg105
I00
sg106
I00
ssg107
I00
sg108
g262
sg109
I64061
sg110
g263
sg111
g264
sg112
I00
sg113
I1434
sg114
I00
sg115
I-18000
sg116
I763735
sg117
g266
sg119
I64324
sg120
g267
sg121
g268
sg122
g269
sg123
I00
sg124
I00
sg125
g265
sg126
g270
sg127
g271
sg128
g272
sg129
g273
sg130
I00
sg131
I00
sg132
I1197
sg133
g274
sg134
g275
sg135
g136
(S'\x07\xda\x03\x08\x10\x0e"\x00\x00\x00'
p278
tp279
Rp280
sg140
g261
sg141
g277
sg142
I00
sg143
I00
sg144
I00
sbsg145
Nsg29
L664124132154454017L
sg146
I1
sg147
Vdlvr.it
p281
sg129
Ven
p282
sg150
g241
sg135
g136
(S'\x07\xdf\x0b\n\x107\x06\x00\x00\x00'
p283
tp284
Rp285
sg50
(dp286
g155
Nsg156
I00
sg157
g238
sg158
I00
sg159
Nsg56
L664124132154454017L
sg160
I1
sg161
V<a href="http://dlvr.it" rel="nofollow">dlvr.it</a>
p287
sg163
I00
sg164
Nsg64
(dp288
g166
(lp289
(dp290
g39
(lp291
I19
aI24
asg157
VICLN
p292
sasg183
(lp293
sg185
(lp294
(dp295
g39
(lp296
I59
aI71
asg157
VShortSeller
p297
sa(dp298
g39
(lp299
I72
aI79
asg157
VStocks
p300
sa(dp301
g39
(lp302
I86
aI97
asg157
VAlertTrade
p303
sasg35
(lp304
ssg208
Nsg209
Nsg210
I0
sg68
V664124132154454017
p305
sg212
I00
sg213
g260
sg214
Nsg215
Nsg92
g282
sg100
VTue Nov 10 16:55:06 +0000 2015
p306
sg218
Nsg219
Nsg220
(dp307
g222
Ven
p308
sg224
Vrecent
p309
sssg226
g307
sg227
Nsg228
Nsg31
g288
sg229
Nsg230
Nsg111
g305
sg231
I00
sg232
Nsg233
I0
sg234
Nsbag0
(g4
g5
Ntp310
Rp311
(dp312
g9
I00
sg10
Nsg11
I00
sg12
VConcern for #WindEnergy investment... https://t.co/Db6lOOe3Fq https://t.co/hSyCuwo1d9 @raconteur @RenewableUK #cleanenergy $FAN $PBD $ICLN
p313
sg14
Vhttp://www.hootsuite.com
p314
sg16
I00
sg17
I00
sg18
Nsg19
g0
(g20
g5
Ntp315
Rp316
(dp317
g24
I00
sg25
I00
sg26
I00
sg27
V000000
p318
sg29
L3617645112L
sg30
I00
sg31
(dp319
g33
(dp320
g35
(lp321
(dp322
g33
Vhttp://t.co/rPRZ8RRKpq
p323
sg39
(lp324
I0
aI22
asg41
Vhttp://briandcolwell.blogspot.com/
p325
sg43
Vbriandcolwell.blogspot.com
p326
sassg45
(dp327
g35
(lp328
sssg48
Vhttps://pbs.twimg.com/profile_images/645298519922728960/GLY-E6bE_normal.jpg
p329
sg50
(dp330
g52
I00
sg53
I00
sg54
I00
sg55
I00
sg56
L3617645112L
sg57
Vhttps://abs.twimg.com/images/themes/theme1/bg.png
p331
sg59
I00
sg60
V000000
p332
sg62
g329
sg63
g318
sg64
g319
sg65
I114
sg66
V000000
p333
sg68
V3617645112
p334
sg70
V000000
p335
sg72
I23
sg73
I00
sg74
I-28800
sg75
I570
sg45
VTweets about #AlternativeInvestments, #LiquidAlts, #HedgeFunds, #RealAssets.\u000a\u000aCheck out the other financial topics I cover on @BrianDColwell
p336
sg77
I163
sg78
VSan Diego, CA
p337
sg80
V01302A
p338
sg82
Vhttp://pbs.twimg.com/profile_images/645298519922728960/GLY-E6bE_normal.jpg
p339
sg84
I00
sg85
I00
sg86
Vhttps://pbs.twimg.com/profile_banners/3617645112/1442685791
p340
sg88
Vhttp://abs.twimg.com/images/themes/theme1/bg.png
p341
sg90
VBColwell_ALT
p342
sg92
Ven
p343
sg94
I00
sg95
I34
sg96
VBrian D Colwell
p344
sg98
I00
sg33
Vhttp://t.co/rPRZ8RRKpq
p345
sg100
VSat Sep 19 16:31:20 +0000 2015
p346
sg102
I00
sg103
VPacific Time (US & Canada)
p347
sg104
I00
sg105
I00
sg106
I00
ssg107
I00
sg108
g332
sg109
I114
sg110
g333
sg111
g334
sg112
I00
sg113
I23
sg114
I00
sg115
I-28800
sg116
I570
sg117
VTweets about #AlternativeInvestments, #LiquidAlts, #HedgeFunds, #RealAssets.\u000a\u000aCheck out the other financial topics I cover on @BrianDColwell
p348
sg119
I163
sg120
g337
sg121
g338
sg122
g339
sg123
I00
sg124
I00
sg125
g335
sg126
g340
sg127
g341
sg128
g342
sg129
g343
sg130
I00
sg131
I00
sg132
I34
sg133
g344
sg134
g345
sg135
g136
(S'\x07\xdf\t\x13\x10\x1f\x14\x00\x00\x00'
p349
tp350
Rp351
sg140
g331
sg141
g347
sg142
I00
sg143
I00
sg144
I00
sbsg145
Nsg29
L663783413258846212L
sg146
I1
sg147
VHootsuite
p352
sg129
Vund
p353
sg150
g316
sg135
g136
(S'\x07\xdf\x0b\t\x12\x15\x0c\x00\x00\x00'
p354
tp355
Rp356
sg50
(dp357
g155
Nsg156
I00
sg157
g313
sg158
I00
sg159
Nsg56
L663783413258846212L
sg160
I1
sg161
V<a href="http://www.hootsuite.com" rel="nofollow">Hootsuite</a>
p358
sg163
I00
sg164
Nsg64
(dp359
g166
(lp360
(dp361
g39
(lp362
I123
aI127
asg157
VFAN
p363
sa(dp364
g39
(lp365
I128
aI132
asg157
VPBD
p366
sa(dp367
g39
(lp368
I133
aI138
asg157
VICLN
p369
sasg183
(lp370
(dp371
g56
I44664072
sg39
(lp372
I86
aI96
asg68
V44664072
p373
sg90
Vraconteur
p374
sg96
VRaconteur
p375
sa(dp376
g56
I322040938
sg39
(lp377
I97
aI109
asg68
V322040938
p378
sg90
VRenewableUK
p379
sg96
VRenewableUK
p380
sasg185
(lp381
(dp382
g39
(lp383
I12
aI23
asg157
VWindEnergy
p384
sa(dp385
g39
(lp386
I110
aI122
asg157
Vcleanenergy
p387
sasg35
(lp388
(dp389
g33
Vhttps://t.co/Db6lOOe3Fq
p390
sg39
(lp391
I38
aI61
asg41
Vhttp://rcnt.eu/yra
p392
sg43
Vrcnt.eu/yra
p393
sasVmedia
p394
(lp395
(dp396
Vsource_user_id
p397
I44664072
sVsource_status_id_str
p398
V662286798144577536
p399
sg41
Vhttp://twitter.com/raconteur/status/662286798144577536/photo/1
p400
sg43
Vpic.twitter.com/hSyCuwo1d9
p401
sg33
Vhttps://t.co/hSyCuwo1d9
p402
sVmedia_url_https
p403
Vhttps://pbs.twimg.com/media/CTDqVRHWsAEc6TP.jpg
p404
sVsource_user_id_str
p405
V44664072
p406
sVsource_status_id
p407
L662286798144577536L
sg68
V662286796315865089
p408
sVsizes
p409
(dp410
Vlarge
p411
(dp412
Vh
p413
I430
sVresize
p414
Vfit
p415
sVw
p416
I760
ssVsmall
p417
(dp418
g413
I192
sg414
Vfit
p419
sg416
I340
ssVmedium
p420
(dp421
g413
I339
sg414
Vfit
p422
sg416
I600
ssVthumb
p423
(dp424
g413
I150
sg414
Vcrop
p425
sg416
I150
sssg39
(lp426
I62
aI85
asVtype
p427
Vphoto
p428
sg56
L662286796315865089L
sVmedia_url
p429
Vhttp://pbs.twimg.com/media/CTDqVRHWsAEc6TP.jpg
p430
sassg208
Nsg209
Nsg210
I0
sg68
V663783413258846212
p431
sg212
I00
sg213
g330
sg214
Nsg215
Nsg216
I00
sg92
g353
sg100
VMon Nov 09 18:21:12 +0000 2015
p432
sg218
Nsg219
Nsg220
(dp433
g222
Vund
p434
sg224
Vrecent
p435
sssg226
g433
sg227
Nsg228
Nsg31
g359
sg229
Nsg230
Nsg111
g431
sg231
I00
sg232
Nsg233
I0
sg234
Nsbag0
(g4
g5
Ntp436
Rp437
(dp438
g9
I00
sg10
Nsg11
I00
sg12
VThe Most Accurate Stock Alert Service Made $240,000 Yesterday https://t.co/8WvnrVmkBS .. $ICLN $SBSI $FEYE
p439
sg14
Vhttp://socialadcenter.com
p440
sg16
I00
sg17
I00
sg18
Nsg19
g0
(g20
g5
Ntp441
Rp442
(dp443
g24
I00
sg25
I00
sg26
I01
sg27
VDDEEF6
p444
sg29
L2730855593L
sg30
I00
sg31
(dp445
g33
(dp446
g35
(lp447
(dp448
g33
Vhttp://t.co/UWzH8kOOl9
p449
sg39
(lp450
I0
aI22
asg41
Vhttp://PennyStockSecret.com
p451
sg43
VPennyStockSecret.com
p452
sassg45
(dp453
g35
(lp454
(dp455
g33
Vhttp://t.co/UWzH8kOOl9
p456
sg39
(lp457
I11
aI33
asg41
Vhttp://PennyStockSecret.com
p458
sg43
VPennyStockSecret.com
p459
sasssg48
Vhttps://pbs.twimg.com/profile_images/573247485616889856/gHAtYS9O_normal.png
p460
sg50
(dp461
g52
I00
sg53
I00
sg54
I01
sg55
I00
sg56
L2730855593L
sg57
Vhttps://abs.twimg.com/images/themes/theme1/bg.png
p462
sg59
I00
sg60
V333333
p463
sg62
g460
sg63
g444
sg64
g445
sg65
I2515
sg66
VC0DEED
p464
sg68
V2730855593
p465
sg70
VC0DEED
p466
sg72
I25
sg73
I00
sg74
I0
sg75
I53232
sg45
VSign up to http://t.co/UWzH8kOOl9  and get the premiere penny stock newsletter for free! make sure you subscribe today!
p467
sg77
I9
sg78
VUSA
p468
sg80
V0084B4
p469
sg82
Vhttp://pbs.twimg.com/profile_images/573247485616889856/gHAtYS9O_normal.png
p470
sg84
I00
sg85
I00
sg86
Vhttps://pbs.twimg.com/profile_banners/2730855593/1425507876
p471
sg88
Vhttp://abs.twimg.com/images/themes/theme1/bg.png
p472
sg90
Vstockschamp
p473
sg92
Ven
p474
sg94
I00
sg95
I0
sg96
Vstockschamp
p475
sg98
I00
sg33
Vhttp://t.co/UWzH8kOOl9
p476
sg100
VFri Aug 01 16:39:24 +0000 2014
p477
sg102
I00
sg103
VDublin
p478
sg104
I00
sg105
I01
sg106
I00
ssg107
I00
sg108
g463
sg109
I2515
sg110
g464
sg111
g465
sg112
I00
sg113
I25
sg114
I00
sg115
I0
sg116
I53232
sg117
g467
sg119
I9
sg120
g468
sg121
g469
sg122
g470
sg123
I00
sg124
I00
sg125
g466
sg126
g471
sg127
g472
sg128
g473
sg129
g474
sg130
I00
sg131
I00
sg132
I0
sg133
g475
sg134
g476
sg135
g136
(S"\x07\xde\x08\x01\x10'\x18\x00\x00\x00"
p479
tp480
Rp481
sg140
g462
sg141
g478
sg142
I00
sg143
I01
sg144
I00
sbsg145
Nsg29
L663723679117737985L
sg146
I0
sg147
VSocial Ad Center
p482
sg129
Ven
p483
sg150
g442
sg135
g136
(S'\x07\xdf\x0b\t\x0e\x173\x00\x00\x00'
p484
tp485
Rp486
sg50
(dp487
g155
Nsg156
I00
sg157
g439
sg158
I00
sg159
Nsg56
L663723679117737985L
sg160
I0
sg161
V<a href="http://socialadcenter.com" rel="nofollow">Social Ad Center</a>
p488
sg163
I00
sg164
Nsg64
(dp489
g166
(lp490
(dp491
g39
(lp492
I89
aI94
asg157
VICLN
p493
sa(dp494
g39
(lp495
I95
aI100
asg157
VSBSI
p496
sa(dp497
g39
(lp498
I101
aI106
asg157
VFEYE
p499
sasg183
(lp500
sg185
(lp501
sg35
(lp502
(dp503
g33
Vhttps://t.co/8WvnrVmkBS
p504
sg39
(lp505
I62
aI85
asg41
Vhttp://PennyStockSecret.com
p506
sg43
VPennyStockSecret.com
p507
sassg208
Nsg209
Nsg210
I0
sg68
V663723679117737985
p508
sg212
I00
sg213
g461
sg214
Nsg215
Nsg216
I00
sg92
g483
sg100
VMon Nov 09 14:23:51 +0000 2015
p509
sg218
Nsg219
Nsg220
(dp510
g222
Ven
p511
sg224
Vrecent
p512
sssg226
g510
sg227
Nsg228
Nsg31
g489
sg229
Nsg230
Nsg111
g508
sg231
I00
sg232
Nsg233
I0
sg234
Nsbag0
(g4
g5
Ntp513
Rp514
(dp515
g9
I00
sg10
Nsg11
I00
sg12
VRT BColwell_CTA 19 #YieldCo Stocks to Invest In via Nanalyze https://t.co/9WQRAn70AU #greenenergy #solarpower #solar $TAN $PBD $ICLN $PBW \u2026
p516
sg14
Vhttp://ifttt.com
p517
sg16
I00
sg17
I00
sg18
Nsg19
g0
(g20
g5
Ntp518
Rp519
(dp520
g24
I00
sg25
I00
sg26
I01
sg27
VDDEEF6
p521
sg29
L3091964034L
sg30
I00
sg31
(dp522
g33
(dp523
g35
(lp524
(dp525
g33
Vhttp://t.co/xiCjfmOrCw
p526
sg39
(lp527
I0
aI22
asg41
Vhttp://solarsolutionsteam.com
p528
sg43
Vsolarsolutionsteam.com
p529
sassg45
(dp530
g35
(lp531
sssg48
Vhttps://pbs.twimg.com/profile_images/577669449790058496/Yos1wwvi_normal.jpeg
p532
sg50
(dp533
g52
I00
sg53
I00
sg54
I01
sg55
I00
sg56
L3091964034L
sg57
Vhttps://abs.twimg.com/images/themes/theme1/bg.png
p534
sg59
I00
sg60
V333333
p535
sg62
g532
sg63
g521
sg64
g522
sg65
I240
sg66
VC0DEED
p536
sg68
V3091964034
p537
sg70
VC0DEED
p538
sg72
I259
sg73
I00
sg74
Nsg75
I31204
sg45
VWe provide solar residential or commercial solutions through our network of companies with experience in all phases of design, installation and servicing.
p539
sg77
I80
sg78
VBrentwood, CA
p540
sg80
V0084B4
p541
sg82
Vhttp://pbs.twimg.com/profile_images/577669449790058496/Yos1wwvi_normal.jpeg
p542
sg84
I00
sg85
I00
sg86
Vhttps://pbs.twimg.com/profile_banners/3091964034/1426562377
p543
sg88
Vhttp://abs.twimg.com/images/themes/theme1/bg.png
p544
sg90
Vsolarsolnsteam
p545
sg92
Ven
p546
sg94
I00
sg95
I2
sg96
VSolar Solutions Team
p547
sg98
I00
sg33
Vhttp://t.co/xiCjfmOrCw
p548
sg100
VTue Mar 17 03:14:18 +0000 2015
p549
sg102
I00
sg103
Nsg104
I00
sg105
I01
sg106
I00
ssg107
I00
sg108
g535
sg109
I240
sg110
g536
sg111
g537
sg112
I00
sg113
I259
sg114
I00
sg115
Nsg116
I31204
sg117
g539
sg119
I80
sg120
g540
sg121
g541
sg122
g542
sg123
I00
sg124
I00
sg125
g538
sg126
g543
sg127
g544
sg128
g545
sg129
g546
sg130
I00
sg131
I00
sg132
I2
sg133
g547
sg134
g548
sg135
g136
(S'\x07\xdf\x03\x11\x03\x0e\x12\x00\x00\x00'
p550
tp551
Rp552
sg140
g534
sg141
Nsg142
I00
sg143
I01
sg144
I00
sbsg145
Nsg29
L663705781053825025L
sg146
I0
sg147
VIFTTT
p553
sg129
Ven
p554
sg150
g519
sg135
g136
(S'\x07\xdf\x0b\t\r\x0c+\x00\x00\x00'
p555
tp556
Rp557
sg50
(dp558
g155
Nsg156
I00
sg157
g516
sg158
I00
sg159
Nsg56
L663705781053825025L
sg160
I0
sg161
V<a href="http://ifttt.com" rel="nofollow">IFTTT</a>
p559
sg163
I00
sg164
Nsg64
(dp560
g166
(lp561
(dp562
g39
(lp563
I117
aI121
asg157
VTAN
p564
sa(dp565
g39
(lp566
I122
aI126
asg157
VPBD
p567
sa(dp568
g39
(lp569
I127
aI132
asg157
VICLN
p570
sa(dp571
g39
(lp572
I133
aI137
asg157
VPBW
p573
sasg183
(lp574
sg185
(lp575
(dp576
g39
(lp577
I19
aI27
asg157
VYieldCo
p578
sa(dp579
g39
(lp580
I85
aI97
asg157
Vgreenenergy
p581
sa(dp582
g39
(lp583
I98
aI109
asg157
Vsolarpower
p584
sa(dp585
g39
(lp586
I110
aI116
asg157
Vsolar
p587
sasg35
(lp588
(dp589
g33
Vhttps://t.co/9WQRAn70AU
p590
sg39
(lp591
I61
aI84
asg41
Vhttp://ow.ly/UiXZG
p592
sg43
Vow.ly/UiXZG
p593
sassg208
Nsg209
Nsg210
I0
sg68
V663705781053825025
p594
sg212
I00
sg213
g533
sg214
Nsg215
Nsg216
I00
sg92
g554
sg100
VMon Nov 09 13:12:43 +0000 2015
p595
sg218
Nsg219
Nsg220
(dp596
g222
Ven
p597
sg224
Vrecent
p598
sssg226
g596
sg227
Nsg228
Nsg31
g560
sg229
Nsg230
Nsg111
g594
sg231
I00
sg232
Nsg233
I0
sg234
Nsbag0
(g4
g5
Ntp599
Rp600
(dp601
g9
I00
sg10
Nsg11
I00
sg12
V19 #YieldCo Stocks to Invest In via Nanalyze https://t.co/nkbsowzKpm #greenenergy #solarpower #solar $TAN $PBD $ICLN $PBW $GEX #energy
p602
sg14
Vhttp://www.hootsuite.com
p603
sg16
I00
sg17
I00
sg18
Nsg19
g0
(g20
g5
Ntp604
Rp605
(dp606
g24
I00
sg25
I00
sg26
I00
sg27
V000000
p607
sg29
L3617663605L
sg30
I00
sg31
(dp608
g33
(dp609
g35
(lp610
(dp611
g33
Vhttp://t.co/9hiZVhJnwK
p612
sg39
(lp613
I0
aI22
asg41
Vhttp://briandcolwell.blogspot.com
p614
sg43
Vbriandcolwell.blogspot.com
p615
sassg45
(dp616
g35
(lp617
sssg48
Vhttps://pbs.twimg.com/profile_images/645289880554110976/UXw8A2oD_normal.jpg
p618
sg50
(dp619
g52
I00
sg53
I00
sg54
I00
sg55
I00
sg56
L3617663605L
sg57
Vhttps://abs.twimg.com/images/themes/theme1/bg.png
p620
sg59
I00
sg60
V000000
p621
sg62
g618
sg63
g607
sg64
g608
sg65
I132
sg66
V000000
p622
sg68
V3617663605
p623
sg70
V000000
p624
sg72
I9
sg73
I00
sg74
Nsg75
I804
sg45
VTweets about #GlobalMacro with a special focus on #Commodities. \u000a\u000aCheck out the other financial topics I cover on @BrianDColwell
p625
sg77
I263
sg78
VSan Diego, CA
p626
sg80
V64696B
p627
sg82
Vhttp://pbs.twimg.com/profile_images/645289880554110976/UXw8A2oD_normal.jpg
p628
sg84
I00
sg85
I00
sg86
Vhttps://pbs.twimg.com/profile_banners/3617663605/1442684414
p629
sg88
Vhttp://abs.twimg.com/images/themes/theme1/bg.png
p630
sg90
VBColwell_CTA
p631
sg92
Ven
p632
sg94
I00
sg95
I29
sg96
VBrian D Colwell
p633
sg98
I00
sg33
Vhttp://t.co/9hiZVhJnwK
p634
sg100
VSat Sep 19 16:17:13 +0000 2015
p635
sg102
I00
sg103
Nsg104
I00
sg105
I00
sg106
I00
ssg107
I00
sg108
g621
sg109
I132
sg110
g622
sg111
g623
sg112
I00
sg113
I9
sg114
I00
sg115
Nsg116
I804
sg117
VTweets about #GlobalMacro with a special focus on #Commodities. \u000a\u000aCheck out the other financial topics I cover on @BrianDColwell
p636
sg119
I263
sg120
g626
sg121
g627
sg122
g628
sg123
I00
sg124
I00
sg125
g624
sg126
g629
sg127
g630
sg128
g631
sg129
g632
sg130
I00
sg131
I00
sg132
I29
sg133
g633
sg134
g634
sg135
g136
(S'\x07\xdf\t\x13\x10\x11\r\x00\x00\x00'
p637
tp638
Rp639
sg140
g620
sg141
Nsg142
I00
sg143
I00
sg144
I00
sbsg145
Nsg29
L663704052111433728L
sg146
I1
sg147
VHootsuite
p640
sg129
Ven
p641
sg150
g605
sg135
g136
(S'\x07\xdf\x0b\t\r\x053\x00\x00\x00'
p642
tp643
Rp644
sg50
(dp645
g155
Nsg156
I00
sg157
g602
sg158
I00
sg159
Nsg56
L663704052111433728L
sg160
I1
sg161
V<a href="http://www.hootsuite.com" rel="nofollow">Hootsuite</a>
p646
sg163
I00
sg164
Nsg64
(dp647
g166
(lp648
(dp649
g39
(lp650
I101
aI105
asg157
VTAN
p651
sa(dp652
g39
(lp653
I106
aI110
asg157
VPBD
p654
sa(dp655
g39
(lp656
I111
aI116
asg157
VICLN
p657
sa(dp658
g39
(lp659
I117
aI121
asg157
VPBW
p660
sa(dp661
g39
(lp662
I122
aI126
asg157
VGEX
p663
sasg183
(lp664
sg185
(lp665
(dp666
g39
(lp667
I3
aI11
asg157
VYieldCo
p668
sa(dp669
g39
(lp670
I69
aI81
asg157
Vgreenenergy
p671
sa(dp672
g39
(lp673
I82
aI93
asg157
Vsolarpower
p674
sa(dp675
g39
(lp676
I94
aI100
asg157
Vsolar
p677
sa(dp678
g39
(lp679
I127
aI134
asg157
Venergy
p680
sasg35
(lp681
(dp682
g33
Vhttps://t.co/nkbsowzKpm
p683
sg39
(lp684
I45
aI68
asg41
Vhttp://ow.ly/UiXZG
p685
sg43
Vow.ly/UiXZG
p686
sassg208
Nsg209
Nsg210
I0
sg68
V663704052111433728
p687
sg212
I00
sg213
g619
sg214
Nsg215
Nsg216
I00
sg92
g641
sg100
VMon Nov 09 13:05:51 +0000 2015
p688
sg218
Nsg219
Nsg220
(dp689
g222
Ven
p690
sg224
Vrecent
p691
sssg226
g689
sg227
Nsg228
Nsg31
g647
sg229
Nsg230
Nsg111
g687
sg231
I00
sg232
Nsg233
I0
sg234
Nsbag0
(g4
g5
Ntp692
Rp693
(dp694
g9
I00
sg10
Nsg11
I00
sg12
V#CleanEnergy future beckons https://t.co/5BpzOjPYs8 https://t.co/q4MlCJaSGt @the_ecologist $TAN $FAN $NLR $PBD $ICLN $PBW $GEX #solar #wind
p695
sg14
Vhttp://www.hootsuite.com
p696
sg16
I00
sg17
I00
sg18
Nsg19
g0
(g20
g5
Ntp697
Rp698
(dp699
g24
I00
sg25
I00
sg26
I00
sg27
V000000
p700
sg29
L3617663605L
sg30
I00
sg31
(dp701
g33
(dp702
g35
(lp703
(dp704
g33
Vhttp://t.co/9hiZVhJnwK
p705
sg39
(lp706
I0
aI22
asg41
Vhttp://briandcolwell.blogspot.com
p707
sg43
Vbriandcolwell.blogspot.com
p708
sassg45
(dp709
g35
(lp710
sssg48
Vhttps://pbs.twimg.com/profile_images/645289880554110976/UXw8A2oD_normal.jpg
p711
sg50
(dp712
g52
I00
sg53
I00
sg54
I00
sg55
I00
sg56
L3617663605L
sg57
Vhttps://abs.twimg.com/images/themes/theme1/bg.png
p713
sg59
I00
sg60
V000000
p714
sg62
g711
sg63
g700
sg64
g701
sg65
I132
sg66
V000000
p715
sg68
V3617663605
p716
sg70
V000000
p717
sg72
I9
sg73
I00
sg74
Nsg75
I804
sg45
VTweets about #GlobalMacro with a special focus on #Commodities. \u000a\u000aCheck out the other financial topics I cover on @BrianDColwell
p718
sg77
I263
sg78
VSan Diego, CA
p719
sg80
V64696B
p720
sg82
Vhttp://pbs.twimg.com/profile_images/645289880554110976/UXw8A2oD_normal.jpg
p721
sg84
I00
sg85
I00
sg86
Vhttps://pbs.twimg.com/profile_banners/3617663605/1442684414
p722
sg88
Vhttp://abs.twimg.com/images/themes/theme1/bg.png
p723
sg90
VBColwell_CTA
p724
sg92
Ven
p725
sg94
I00
sg95
I29
sg96
VBrian D Colwell
p726
sg98
I00
sg33
Vhttp://t.co/9hiZVhJnwK
p727
sg100
VSat Sep 19 16:17:13 +0000 2015
p728
sg102
I00
sg103
Nsg104
I00
sg105
I00
sg106
I00
ssg107
I00
sg108
g714
sg109
I132
sg110
g715
sg111
g716
sg112
I00
sg113
I9
sg114
I00
sg115
Nsg116
I804
sg117
VTweets about #GlobalMacro with a special focus on #Commodities. \u000a\u000aCheck out the other financial topics I cover on @BrianDColwell
p729
sg119
I263
sg120
g719
sg121
g720
sg122
g721
sg123
I00
sg124
I00
sg125
g717
sg126
g722
sg127
g723
sg128
g724
sg129
g725
sg130
I00
sg131
I00
sg132
I29
sg133
g726
sg134
g727
sg135
g136
(S'\x07\xdf\t\x13\x10\x11\r\x00\x00\x00'
p730
tp731
Rp732
sg140
g713
sg141
Nsg142
I00
sg143
I00
sg144
I00
sbsg145
Nsg29
L663336567063318528L
sg146
I0
sg147
VHootsuite
p733
sg129
Vin
p734
sg150
g698
sg135
g136
(S'\x07\xdf\x0b\x08\x0c-$\x00\x00\x00'
p735
tp736
Rp737
sg50
(dp738
g155
Nsg156
I00
sg157
g695
sg158
I00
sg159
Nsg56
L663336567063318528L
sg160
I0
sg161
V<a href="http://www.hootsuite.com" rel="nofollow">Hootsuite</a>
p739
sg163
I00
sg164
Nsg64
(dp740
g166
(lp741
(dp742
g39
(lp743
I91
aI95
asg157
VTAN
p744
sa(dp745
g39
(lp746
I96
aI100
asg157
VFAN
p747
sa(dp748
g39
(lp749
I101
aI105
asg157
VNLR
p750
sa(dp751
g39
(lp752
I106
aI110
asg157
VPBD
p753
sa(dp754
g39
(lp755
I111
aI116
asg157
VICLN
p756
sa(dp757
g39
(lp758
I117
aI121
asg157
VPBW
p759
sa(dp760
g39
(lp761
I122
aI126
asg157
VGEX
p762
sasg183
(lp763
(dp764
g56
I59460397
sg39
(lp765
I76
aI90
asg68
V59460397
p766
sg90
Vthe_ecologist
p767
sg96
VThe Ecologist
p768
sasg185
(lp769
(dp770
g39
(lp771
I0
aI12
asg157
VCleanEnergy
p772
sa(dp773
g39
(lp774
I127
aI133
asg157
Vsolar
p775
sa(dp776
g39
(lp777
I134
aI139
asg157
Vwind
p778
sasg35
(lp779
(dp780
g33
Vhttps://t.co/5BpzOjPYs8
p781
sg39
(lp782
I28
aI51
asg41
Vhttp://bit.ly/1GNAHtZ
p783
sg43
Vbit.ly/1GNAHtZ
p784
sasg394
(lp785
(dp786
g397
I59460397
sg398
V662343584067289088
p787
sg41
Vhttp://twitter.com/the_ecologist/status/662343584067289088/photo/1
p788
sg43
Vpic.twitter.com/q4MlCJaSGt
p789
sg33
Vhttps://t.co/q4MlCJaSGt
p790
sg403
Vhttps://pbs.twimg.com/media/CTEd-s7XIAA9QOf.jpg
p791
sg405
V59460397
p792
sg407
L662343584067289088L
sg68
V662343583249408000
p793
sg409
(dp794
g411
(dp795
g413
I400
sg414
Vfit
p796
sg416
I800
ssg417
(dp797
g413
I170
sg414
Vfit
p798
sg416
I340
ssg420
(dp799
g413
I300
sg414
Vfit
p800
sg416
I600
ssg423
(dp801
g413
I150
sg414
Vcrop
p802
sg416
I150
sssg39
(lp803
I52
aI75
asg427
Vphoto
p804
sg56
L662343583249408000L
sg429
Vhttp://pbs.twimg.com/media/CTEd-s7XIAA9QOf.jpg
p805
sassg208
Nsg209
Nsg210
I0
sg68
V663336567063318528
p806
sg212
I00
sg213
g712
sg214
Nsg215
Nsg216
I00
sg92
g734
sg100
VSun Nov 08 12:45:36 +0000 2015
p807
sg218
Nsg219
Nsg220
(dp808
g222
Vin
p809
sg224
Vrecent
p810
sssg226
g808
sg227
Nsg228
Nsg31
g740
sg229
Nsg230
Nsg111
g806
sg231
I00
sg232
Nsg233
I0
sg234
Nsbag0
(g4
g5
Ntp811
Rp812
(dp813
g9
I00
sg10
Nsg11
I00
sg12
VWorld's largest floating windfarm gets green light in #Scotland https://t.co/UZ3BN98WNf #windpower https://t.co/ltwApbt4XH $FAN $PBD $ICLN
p814
sg14
Vhttp://www.hootsuite.com
p815
sg16
I00
sg17
I00
sg18
Nsg19
g0
(g20
g5
Ntp816
Rp817
(dp818
g24
I00
sg25
I00
sg26
I00
sg27
V000000
p819
sg29
L3617663605L
sg30
I00
sg31
(dp820
g33
(dp821
g35
(lp822
(dp823
g33
Vhttp://t.co/9hiZVhJnwK
p824
sg39
(lp825
I0
aI22
asg41
Vhttp://briandcolwell.blogspot.com
p826
sg43
Vbriandcolwell.blogspot.com
p827
sassg45
(dp828
g35
(lp829
sssg48
Vhttps://pbs.twimg.com/profile_images/645289880554110976/UXw8A2oD_normal.jpg
p830
sg50
(dp831
g52
I00
sg53
I00
sg54
I00
sg55
I00
sg56
L3617663605L
sg57
Vhttps://abs.twimg.com/images/themes/theme1/bg.png
p832
sg59
I00
sg60
V000000
p833
sg62
g830
sg63
g819
sg64
g820
sg65
I132
sg66
V000000
p834
sg68
V3617663605
p835
sg70
V000000
p836
sg72
I9
sg73
I00
sg74
Nsg75
I804
sg45
VTweets about #GlobalMacro with a special focus on #Commodities. \u000a\u000aCheck out the other financial topics I cover on @BrianDColwell
p837
sg77
I263
sg78
VSan Diego, CA
p838
sg80
V64696B
p839
sg82
Vhttp://pbs.twimg.com/profile_images/645289880554110976/UXw8A2oD_normal.jpg
p840
sg84
I00
sg85
I00
sg86
Vhttps://pbs.twimg.com/profile_banners/3617663605/1442684414
p841
sg88
Vhttp://abs.twimg.com/images/themes/theme1/bg.png
p842
sg90
VBColwell_CTA
p843
sg92
Ven
p844
sg94
I00
sg95
I29
sg96
VBrian D Colwell
p845
sg98
I00
sg33
Vhttp://t.co/9hiZVhJnwK
p846
sg100
VSat Sep 19 16:17:13 +0000 2015
p847
sg102
I00
sg103
Nsg104
I00
sg105
I00
sg106
I00
ssg107
I00
sg108
g833
sg109
I132
sg110
g834
sg111
g835
sg112
I00
sg113
I9
sg114
I00
sg115
Nsg116
I804
sg117
VTweets about #GlobalMacro with a special focus on #Commodities. \u000a\u000aCheck out the other financial topics I cover on @BrianDColwell
p848
sg119
I263
sg120
g838
sg121
g839
sg122
g840
sg123
I00
sg124
I00
sg125
g836
sg126
g841
sg127
g842
sg128
g843
sg129
g844
sg130
I00
sg131
I00
sg132
I29
sg133
g845
sg134
g846
sg135
g136
(S'\x07\xdf\t\x13\x10\x11\r\x00\x00\x00'
p849
tp850
Rp851
sg140
g832
sg141
Nsg142
I00
sg143
I00
sg144
I00
sbsg145
Nsg29
L662918763692576768L
sg146
I0
sg147
VHootsuite
p852
sg129
Ven
p853
sg150
g817
sg135
g136
(S'\x07\xdf\x0b\x07\t\x05\x18\x00\x00\x00'
p854
tp855
Rp856
sg50
(dp857
g155
Nsg156
I00
sg157
g814
sg158
I00
sg159
Nsg56
L662918763692576768L
sg160
I0
sg161
V<a href="http://www.hootsuite.com" rel="nofollow">Hootsuite</a>
p858
sg163
I00
sg164
Nsg64
(dp859
g166
(lp860
(dp861
g39
(lp862
I123
aI127
asg157
VFAN
p863
sa(dp864
g39
(lp865
I128
aI132
asg157
VPBD
p866
sa(dp867
g39
(lp868
I133
aI138
asg157
VICLN
p869
sasg183
(lp870
sg185
(lp871
(dp872
g39
(lp873
I54
aI63
asg157
VScotland
p874
sa(dp875
g39
(lp876
I88
aI98
asg157
Vwindpower
p877
sasg35
(lp878
(dp879
g33
Vhttps://t.co/UZ3BN98WNf
p880
sg39
(lp881
I64
aI87
asg41
Vhttp://gu.com/p/4dzt8/stw
p882
sg43
Vgu.com/p/4dzt8/stw
p883
sasg394
(lp884
(dp885
g397
I308245641
sg398
V662397865000587265
p886
sg41
Vhttp://twitter.com/YEARSofLIVING/status/662397865000587265/photo/1
p887
sg43
Vpic.twitter.com/ltwApbt4XH
p888
sg33
Vhttps://t.co/ltwApbt4XH
p889
sg403
Vhttps://pbs.twimg.com/media/CTFPWRmW4AAlH-Y.png
p890
sg405
V308245641
p891
sg407
L662397865000587265L
sg68
V662397864300175360
p892
sg409
(dp893
g417
(dp894
g413
I202
sg414
Vfit
p895
sg416
I340
ssg411
(dp896
g413
I609
sg414
Vfit
p897
sg416
I1024
ssg420
(dp898
g413
I357
sg414
Vfit
p899
sg416
I600
ssg423
(dp900
g413
I150
sg414
Vcrop
p901
sg416
I150
sssg39
(lp902
I99
aI122
asg427
Vphoto
p903
sg56
L662397864300175360L
sg429
Vhttp://pbs.twimg.com/media/CTFPWRmW4AAlH-Y.png
p904
sassg208
Nsg209
Nsg210
I0
sg68
V662918763692576768
p905
sg212
I00
sg213
g831
sg214
Nsg215
Nsg216
I00
sg92
g853
sg100
VSat Nov 07 09:05:24 +0000 2015
p906
sg218
Nsg219
Nsg220
(dp907
g222
Ven
p908
sg224
Vrecent
p909
sssg226
g907
sg227
Nsg228
Nsg31
g859
sg229
Nsg230
Nsg111
g905
sg231
I00
sg232
Nsg233
I0
sg234
Nsbag0
(g4
g5
Ntp910
Rp911
(dp912
g9
I00
sg10
Nsg11
I00
sg12
V@Vestas sees gains as demand for #windpower grows https://t.co/FhRcPvDzUE https://t.co/5q4JG8VEsV @ACGlobalEnergy $FAN $PBD $ICLN $PBW $GEX
p913
sg14
Vhttp://www.hootsuite.com
p914
sg16
I00
sg17
I00
sg18
Nsg19
g0
(g20
g5
Ntp915
Rp916
(dp917
g24
I00
sg25
I00
sg26
I00
sg27
V000000
p918
sg29
L3617663605L
sg30
I00
sg31
(dp919
g33
(dp920
g35
(lp921
(dp922
g33
Vhttp://t.co/9hiZVhJnwK
p923
sg39
(lp924
I0
aI22
asg41
Vhttp://briandcolwell.blogspot.com
p925
sg43
Vbriandcolwell.blogspot.com
p926
sassg45
(dp927
g35
(lp928
sssg48
Vhttps://pbs.twimg.com/profile_images/645289880554110976/UXw8A2oD_normal.jpg
p929
sg50
(dp930
g52
I00
sg53
I00
sg54
I00
sg55
I00
sg56
L3617663605L
sg57
Vhttps://abs.twimg.com/images/themes/theme1/bg.png
p931
sg59
I00
sg60
V000000
p932
sg62
g929
sg63
g918
sg64
g919
sg65
I132
sg66
V000000
p933
sg68
V3617663605
p934
sg70
V000000
p935
sg72
I9
sg73
I00
sg74
Nsg75
I804
sg45
VTweets about #GlobalMacro with a special focus on #Commodities. \u000a\u000aCheck out the other financial topics I cover on @BrianDColwell
p936
sg77
I263
sg78
VSan Diego, CA
p937
sg80
V64696B
p938
sg82
Vhttp://pbs.twimg.com/profile_images/645289880554110976/UXw8A2oD_normal.jpg
p939
sg84
I00
sg85
I00
sg86
Vhttps://pbs.twimg.com/profile_banners/3617663605/1442684414
p940
sg88
Vhttp://abs.twimg.com/images/themes/theme1/bg.png
p941
sg90
VBColwell_CTA
p942
sg92
Ven
p943
sg94
I00
sg95
I29
sg96
VBrian D Colwell
p944
sg98
I00
sg33
Vhttp://t.co/9hiZVhJnwK
p945
sg100
VSat Sep 19 16:17:13 +0000 2015
p946
sg102
I00
sg103
Nsg104
I00
sg105
I00
sg106
I00
ssg107
I00
sg108
g932
sg109
I132
sg110
g933
sg111
g934
sg112
I00
sg113
I9
sg114
I00
sg115
Nsg116
I804
sg117
VTweets about #GlobalMacro with a special focus on #Commodities. \u000a\u000aCheck out the other financial topics I cover on @BrianDColwell
p947
sg119
I263
sg120
g937
sg121
g938
sg122
g939
sg123
I00
sg124
I00
sg125
g935
sg126
g940
sg127
g941
sg128
g942
sg129
g943
sg130
I00
sg131
I00
sg132
I29
sg133
g944
sg134
g945
sg135
g136
(S'\x07\xdf\t\x13\x10\x11\r\x00\x00\x00'
p948
tp949
Rp950
sg140
g931
sg141
Nsg142
I00
sg143
I00
sg144
I00
sbsg145
Nsg29
L662815609554657280L
sg146
I0
sg147
VHootsuite
p951
sg129
Ven
p952
sg150
g916
sg135
g136
(S'\x07\xdf\x0b\x07\x02\x0f\x1e\x00\x00\x00'
p953
tp954
Rp955
sg50
(dp956
g155
Nsg156
I00
sg157
g913
sg158
I00
sg159
Nsg56
L662815609554657280L
sg160
I0
sg161
V<a href="http://www.hootsuite.com" rel="nofollow">Hootsuite</a>
p957
sg163
I00
sg164
Nsg64
(dp958
g166
(lp959
(dp960
g39
(lp961
I114
aI118
asg157
VFAN
p962
sa(dp963
g39
(lp964
I119
aI123
asg157
VPBD
p965
sa(dp966
g39
(lp967
I124
aI129
asg157
VICLN
p968
sa(dp969
g39
(lp970
I130
aI134
asg157
VPBW
p971
sa(dp972
g39
(lp973
I135
aI139
asg157
VGEX
p974
sasg183
(lp975
(dp976
g56
I156646851
sg39
(lp977
I0
aI7
asg68
V156646851
p978
sg90
VVestas
p979
sg96
VVestas Wind Systems
p980
sa(dp981
g56
I1426168484
sg39
(lp982
I98
aI113
asg68
V1426168484
p983
sg90
VACGlobalEnergy
p984
sg96
VAC Global Energy
p985
sasg185
(lp986
(dp987
g39
(lp988
I33
aI43
asg157
Vwindpower
p989
sasg35
(lp990
(dp991
g33
Vhttps://t.co/FhRcPvDzUE
p992
sg39
(lp993
I50
aI73
asg41
Vhttp://buff.ly/1kwXiAv
p994
sg43
Vbuff.ly/1kwXiAv
p995
sasg394
(lp996
(dp997
g397
I1426168484
sg398
V662397268637704192
p998
sg41
Vhttp://twitter.com/ACGlobalEnergy/status/662397268637704192/photo/1
p999
sg43
Vpic.twitter.com/5q4JG8VEsV
p1000
sg33
Vhttps://t.co/5q4JG8VEsV
p1001
sg403
Vhttps://pbs.twimg.com/media/CTFOzmBWoAAlKJu.jpg
p1002
sg405
V1426168484
p1003
sg407
L662397268637704192L
sg68
V662397268486692864
p1004
sg409
(dp1005
g411
(dp1006
g413
I440
sg414
Vfit
p1007
sg416
I880
ssg417
(dp1008
g413
I170
sg414
Vfit
p1009
sg416
I340
ssg420
(dp1010
g413
I300
sg414
Vfit
p1011
sg416
I600
ssg423
(dp1012
g413
I150
sg414
Vcrop
p1013
sg416
I150
sssg39
(lp1014
I74
aI97
asg427
Vphoto
p1015
sg56
L662397268486692864L
sg429
Vhttp://pbs.twimg.com/media/CTFOzmBWoAAlKJu.jpg
p1016
sassg208
VVestas
p1017
sg209
I156646851
sg210
I0
sg68
V662815609554657280
p1018
sg212
I00
sg213
g930
sg214
Nsg215
V156646851
p1019
sg216
I00
sg92
g952
sg100
VSat Nov 07 02:15:30 +0000 2015
p1020
sg218
Nsg219
Nsg220
(dp1021
g222
Ven
p1022
sg224
Vrecent
p1023
sssg226
g1021
sg227
Nsg228
g1019
sg31
g958
sg229
Nsg230
g1017
sg111
g1018
sg231
I00
sg232
Nsg233
I0
sg234
I156646851
sbag0
(g4
g5
Ntp1024
Rp1025
(dp1026
g9
I00
sg10
Nsg11
I00
sg12
VRT BColwell_CTA A Primer On #AlternateEnergy #ETFs SeekingAlpha https://t.co/4lWPGZ83R9 $GEX $ICLN $PBD $PBW $QCLN #commodities #greenener\u2026
p1027
sg14
Vhttp://ifttt.com
p1028
sg16
I00
sg17
I00
sg18
Nsg19
g0
(g20
g5
Ntp1029
Rp1030
(dp1031
g24
I00
sg25
I00
sg26
I01
sg27
VDDEEF6
p1032
sg29
L3091964034L
sg30
I00
sg31
(dp1033
g33
(dp1034
g35
(lp1035
(dp1036
g33
Vhttp://t.co/xiCjfmOrCw
p1037
sg39
(lp1038
I0
aI22
asg41
Vhttp://solarsolutionsteam.com
p1039
sg43
Vsolarsolutionsteam.com
p1040
sassg45
(dp1041
g35
(lp1042
sssg48
Vhttps://pbs.twimg.com/profile_images/577669449790058496/Yos1wwvi_normal.jpeg
p1043
sg50
(dp1044
g52
I00
sg53
I00
sg54
I01
sg55
I00
sg56
L3091964034L
sg57
Vhttps://abs.twimg.com/images/themes/theme1/bg.png
p1045
sg59
I00
sg60
V333333
p1046
sg62
g1043
sg63
g1032
sg64
g1033
sg65
I240
sg66
VC0DEED
p1047
sg68
V3091964034
p1048
sg70
VC0DEED
p1049
sg72
I259
sg73
I00
sg74
Nsg75
I31204
sg45
VWe provide solar residential or commercial solutions through our network of companies with experience in all phases of design, installation and servicing.
p1050
sg77
I80
sg78
VBrentwood, CA
p1051
sg80
V0084B4
p1052
sg82
Vhttp://pbs.twimg.com/profile_images/577669449790058496/Yos1wwvi_normal.jpeg
p1053
sg84
I00
sg85
I00
sg86
Vhttps://pbs.twimg.com/profile_banners/3091964034/1426562377
p1054
sg88
Vhttp://abs.twimg.com/images/themes/theme1/bg.png
p1055
sg90
Vsolarsolnsteam
p1056
sg92
Ven
p1057
sg94
I00
sg95
I2
sg96
VSolar Solutions Team
p1058
sg98
I00
sg33
Vhttp://t.co/xiCjfmOrCw
p1059
sg100
VTue Mar 17 03:14:18 +0000 2015
p1060
sg102
I00
sg103
Nsg104
I00
sg105
I01
sg106
I00
ssg107
I00
sg108
g1046
sg109
I240
sg110
g1047
sg111
g1048
sg112
I00
sg113
I259
sg114
I00
sg115
Nsg116
I31204
sg117
g1050
sg119
I80
sg120
g1051
sg121
g1052
sg122
g1053
sg123
I00
sg124
I00
sg125
g1049
sg126
g1054
sg127
g1055
sg128
g1056
sg129
g1057
sg130
I00
sg131
I00
sg132
I2
sg133
g1058
sg134
g1059
sg135
g136
(S'\x07\xdf\x03\x11\x03\x0e\x12\x00\x00\x00'
p1061
tp1062
Rp1063
sg140
g1045
sg141
Nsg142
I00
sg143
I01
sg144
I00
sbsg145
Nsg29
L662770077549379584L
sg146
I0
sg147
VIFTTT
p1064
sg129
Ven
p1065
sg150
g1030
sg135
g136
(S'\x07\xdf\x0b\x06\x17\x0e"\x00\x00\x00'
p1066
tp1067
Rp1068
sg50
(dp1069
g155
Nsg156
I00
sg157
g1027
sg158
I00
sg159
Nsg56
L662770077549379584L
sg160
I0
sg161
V<a href="http://ifttt.com" rel="nofollow">IFTTT</a>
p1070
sg163
I00
sg164
Nsg64
(dp1071
g166
(lp1072
(dp1073
g39
(lp1074
I88
aI92
asg157
VGEX
p1075
sa(dp1076
g39
(lp1077
I93
aI98
asg157
VICLN
p1078
sa(dp1079
g39
(lp1080
I99
aI103
asg157
VPBD
p1081
sa(dp1082
g39
(lp1083
I104
aI108
asg157
VPBW
p1084
sa(dp1085
g39
(lp1086
I109
aI114
asg157
VQCLN
p1087
sasg183
(lp1088
sg185
(lp1089
(dp1090
g39
(lp1091
I28
aI44
asg157
VAlternateEnergy
p1092
sa(dp1093
g39
(lp1094
I45
aI50
asg157
VETFs
p1095
sa(dp1096
g39
(lp1097
I115
aI127
asg157
Vcommodities
p1098
sa(dp1099
g39
(lp1100
I128
aI138
asg157
Vgreenener
p1101
sasg35
(lp1102
(dp1103
g33
Vhttps://t.co/4lWPGZ83R9
p1104
sg39
(lp1105
I64
aI87
asg41
Vhttp://ow.ly/UcxiG
p1106
sg43
Vow.ly/UcxiG
p1107
sassg208
Nsg209
Nsg210
I0
sg68
V662770077549379584
p1108
sg212
I00
sg213
g1044
sg214
Nsg215
Nsg216
I00
sg92
g1065
sg100
VFri Nov 06 23:14:34 +0000 2015
p1109
sg218
Nsg219
Nsg220
(dp1110
g222
Ven
p1111
sg224
Vrecent
p1112
sssg226
g1110
sg227
Nsg228
Nsg31
g1071
sg229
Nsg230
Nsg111
g1108
sg231
I00
sg232
Nsg233
I0
sg234
Nsbag0
(g4
g5
Ntp1113
Rp1114
(dp1115
g9
I00
sg10
Nsg11
I00
sg12
VRT BColwell_CTA A Primer On #AlternateEnergy #ETFs SeekingAlpha https://t.co/q2JAH4uvRm $GEX $ICLN $PBD $PBW $QCLN #commodities #greenener\u2026
p1116
sg14
Vhttp://ifttt.com
p1117
sg16
I00
sg17
I00
sg18
Nsg19
g0
(g20
g5
Ntp1118
Rp1119
(dp1120
g24
I00
sg25
I00
sg26
I01
sg27
VDDEEF6
p1121
sg29
L3091964034L
sg30
I00
sg31
(dp1122
g33
(dp1123
g35
(lp1124
(dp1125
g33
Vhttp://t.co/xiCjfmOrCw
p1126
sg39
(lp1127
I0
aI22
asg41
Vhttp://solarsolutionsteam.com
p1128
sg43
Vsolarsolutionsteam.com
p1129
sassg45
(dp1130
g35
(lp1131
sssg48
Vhttps://pbs.twimg.com/profile_images/577669449790058496/Yos1wwvi_normal.jpeg
p1132
sg50
(dp1133
g52
I00
sg53
I00
sg54
I01
sg55
I00
sg56
L3091964034L
sg57
Vhttps://abs.twimg.com/images/themes/theme1/bg.png
p1134
sg59
I00
sg60
V333333
p1135
sg62
g1132
sg63
g1121
sg64
g1122
sg65
I240
sg66
VC0DEED
p1136
sg68
V3091964034
p1137
sg70
VC0DEED
p1138
sg72
I259
sg73
I00
sg74
Nsg75
I31204
sg45
VWe provide solar residential or commercial solutions through our network of companies with experience in all phases of design, installation and servicing.
p1139
sg77
I80
sg78
VBrentwood, CA
p1140
sg80
V0084B4
p1141
sg82
Vhttp://pbs.twimg.com/profile_images/577669449790058496/Yos1wwvi_normal.jpeg
p1142
sg84
I00
sg85
I00
sg86
Vhttps://pbs.twimg.com/profile_banners/3091964034/1426562377
p1143
sg88
Vhttp://abs.twimg.com/images/themes/theme1/bg.png
p1144
sg90
Vsolarsolnsteam
p1145
sg92
Ven
p1146
sg94
I00
sg95
I2
sg96
VSolar Solutions Team
p1147
sg98
I00
sg33
Vhttp://t.co/xiCjfmOrCw
p1148
sg100
VTue Mar 17 03:14:18 +0000 2015
p1149
sg102
I00
sg103
Nsg104
I00
sg105
I01
sg106
I00
ssg107
I00
sg108
g1135
sg109
I240
sg110
g1136
sg111
g1137
sg112
I00
sg113
I259
sg114
I00
sg115
Nsg116
I31204
sg117
g1139
sg119
I80
sg120
g1140
sg121
g1141
sg122
g1142
sg123
I00
sg124
I00
sg125
g1138
sg126
g1143
sg127
g1144
sg128
g1145
sg129
g1146
sg130
I00
sg131
I00
sg132
I2
sg133
g1147
sg134
g1148
sg135
g136
(S'\x07\xdf\x03\x11\x03\x0e\x12\x00\x00\x00'
p1150
tp1151
Rp1152
sg140
g1134
sg141
Nsg142
I00
sg143
I01
sg144
I00
sbsg145
Nsg29
L662770075343183872L
sg146
I0
sg147
VIFTTT
p1153
sg129
Ven
p1154
sg150
g1119
sg135
g136
(S'\x07\xdf\x0b\x06\x17\x0e"\x00\x00\x00'
p1155
tp1156
Rp1157
sg50
(dp1158
g155
Nsg156
I00
sg157
g1116
sg158
I00
sg159
Nsg56
L662770075343183872L
sg160
I0
sg161
V<a href="http://ifttt.com" rel="nofollow">IFTTT</a>
p1159
sg163
I00
sg164
Nsg64
(dp1160
g166
(lp1161
(dp1162
g39
(lp1163
I88
aI92
asg157
VGEX
p1164
sa(dp1165
g39
(lp1166
I93
aI98
asg157
VICLN
p1167
sa(dp1168
g39
(lp1169
I99
aI103
asg157
VPBD
p1170
sa(dp1171
g39
(lp1172
I104
aI108
asg157
VPBW
p1173
sa(dp1174
g39
(lp1175
I109
aI114
asg157
VQCLN
p1176
sasg183
(lp1177
sg185
(lp1178
(dp1179
g39
(lp1180
I28
aI44
asg157
VAlternateEnergy
p1181
sa(dp1182
g39
(lp1183
I45
aI50
asg157
VETFs
p1184
sa(dp1185
g39
(lp1186
I115
aI127
asg157
Vcommodities
p1187
sa(dp1188
g39
(lp1189
I128
aI138
asg157
Vgreenener
p1190
sasg35
(lp1191
(dp1192
g33
Vhttps://t.co/q2JAH4uvRm
p1193
sg39
(lp1194
I64
aI87
asg41
Vhttp://ow.ly/UcTwl
p1195
sg43
Vow.ly/UcTwl
p1196
sassg208
Nsg209
Nsg210
I0
sg68
V662770075343183872
p1197
sg212
I00
sg213
g1133
sg214
Nsg215
Nsg216
I00
sg92
g1154
sg100
VFri Nov 06 23:14:34 +0000 2015
p1198
sg218
Nsg219
Nsg220
(dp1199
g222
Ven
p1200
sg224
Vrecent
p1201
sssg226
g1199
sg227
Nsg228
Nsg31
g1160
sg229
Nsg230
Nsg111
g1197
sg231
I00
sg232
Nsg233
I0
sg234
Nsbag0
(g4
g5
Ntp1202
Rp1203
(dp1204
g9
I00
sg10
Nsg11
I00
sg12
VA Primer On #AlternateEnergy #ETFs @SeekingAlpha https://t.co/aR44t1nPQG $GEX $ICLN $PBD $PBW $QCLN #commodities #greenenergy #solarpower
p1205
sg14
Vhttp://www.hootsuite.com
p1206
sg16
I00
sg17
I00
sg18
Nsg19
g0
(g20
g5
Ntp1207
Rp1208
(dp1209
g24
I00
sg25
I00
sg26
I00
sg27
V000000
p1210
sg29
L3617663605L
sg30
I00
sg31
(dp1211
g33
(dp1212
g35
(lp1213
(dp1214
g33
Vhttp://t.co/9hiZVhJnwK
p1215
sg39
(lp1216
I0
aI22
asg41
Vhttp://briandcolwell.blogspot.com
p1217
sg43
Vbriandcolwell.blogspot.com
p1218
sassg45
(dp1219
g35
(lp1220
sssg48
Vhttps://pbs.twimg.com/profile_images/645289880554110976/UXw8A2oD_normal.jpg
p1221
sg50
(dp1222
g52
I00
sg53
I00
sg54
I00
sg55
I00
sg56
L3617663605L
sg57
Vhttps://abs.twimg.com/images/themes/theme1/bg.png
p1223
sg59
I00
sg60
V000000
p1224
sg62
g1221
sg63
g1210
sg64
g1211
sg65
I132
sg66
V000000
p1225
sg68
V3617663605
p1226
sg70
V000000
p1227
sg72
I9
sg73
I00
sg74
Nsg75
I804
sg45
VTweets about #GlobalMacro with a special focus on #Commodities. \u000a\u000aCheck out the other financial topics I cover on @BrianDColwell
p1228
sg77
I263
sg78
VSan Diego, CA
p1229
sg80
V64696B
p1230
sg82
Vhttp://pbs.twimg.com/profile_images/645289880554110976/UXw8A2oD_normal.jpg
p1231
sg84
I00
sg85
I00
sg86
Vhttps://pbs.twimg.com/profile_banners/3617663605/1442684414
p1232
sg88
Vhttp://abs.twimg.com/images/themes/theme1/bg.png
p1233
sg90
VBColwell_CTA
p1234
sg92
Ven
p1235
sg94
I00
sg95
I29
sg96
VBrian D Colwell
p1236
sg98
I00
sg33
Vhttp://t.co/9hiZVhJnwK
p1237
sg100
VSat Sep 19 16:17:13 +0000 2015
p1238
sg102
I00
sg103
Nsg104
I00
sg105
I00
sg106
I00
ssg107
I00
sg108
g1224
sg109
I132
sg110
g1225
sg111
g1226
sg112
I00
sg113
I9
sg114
I00
sg115
Nsg116
I804
sg117
VTweets about #GlobalMacro with a special focus on #Commodities. \u000a\u000aCheck out the other financial topics I cover on @BrianDColwell
p1239
sg119
I263
sg120
g1229
sg121
g1230
sg122
g1231
sg123
I00
sg124
I00
sg125
g1227
sg126
g1232
sg127
g1233
sg128
g1234
sg129
g1235
sg130
I00
sg131
I00
sg132
I29
sg133
g1236
sg134
g1237
sg135
g136
(S'\x07\xdf\t\x13\x10\x11\r\x00\x00\x00'
p1240
tp1241
Rp1242
sg140
g1223
sg141
Nsg142
I00
sg143
I00
sg144
I00
sbsg145
Nsg29
L662767110767181824L
sg146
I0
sg147
VHootsuite
p1243
sg129
Ven
p1244
sg150
g1208
sg135
g136
(S'\x07\xdf\x0b\x06\x17\x02/\x00\x00\x00'
p1245
tp1246
Rp1247
sg50
(dp1248
g155
Nsg156
I00
sg157
g1205
sg158
I00
sg159
Nsg56
L662767110767181824L
sg160
I0
sg161
V<a href="http://www.hootsuite.com" rel="nofollow">Hootsuite</a>
p1249
sg163
I00
sg164
Nsg64
(dp1250
g166
(lp1251
(dp1252
g39
(lp1253
I73
aI77
asg157
VGEX
p1254
sa(dp1255
g39
(lp1256
I78
aI83
asg157
VICLN
p1257
sa(dp1258
g39
(lp1259
I84
aI88
asg157
VPBD
p1260
sa(dp1261
g39
(lp1262
I89
aI93
asg157
VPBW
p1263
sa(dp1264
g39
(lp1265
I94
aI99
asg157
VQCLN
p1266
sasg183
(lp1267
(dp1268
g56
I23059499
sg39
(lp1269
I35
aI48
asg68
V23059499
p1270
sg90
VSeekingAlpha
p1271
sg96
VSeeking Alpha
p1272
sasg185
(lp1273
(dp1274
g39
(lp1275
I12
aI28
asg157
VAlternateEnergy
p1276
sa(dp1277
g39
(lp1278
I29
aI34
asg157
VETFs
p1279
sa(dp1280
g39
(lp1281
I100
aI112
asg157
Vcommodities
p1282
sa(dp1283
g39
(lp1284
I113
aI125
asg157
Vgreenenergy
p1285
sa(dp1286
g39
(lp1287
I126
aI137
asg157
Vsolarpower
p1288
sasg35
(lp1289
(dp1290
g33
Vhttps://t.co/aR44t1nPQG
p1291
sg39
(lp1292
I49
aI72
asg41
Vhttp://ow.ly/UcxiG
p1293
sg43
Vow.ly/UcxiG
p1294
sassg208
Nsg209
Nsg210
I0
sg68
V662767110767181824
p1295
sg212
I00
sg213
g1222
sg214
Nsg215
Nsg216
I00
sg92
g1244
sg100
VFri Nov 06 23:02:47 +0000 2015
p1296
sg218
Nsg219
Nsg220
(dp1297
g222
Ven
p1298
sg224
Vrecent
p1299
sssg226
g1297
sg227
Nsg228
Nsg31
g1250
sg229
Nsg230
Nsg111
g1295
sg231
I00
sg232
Nsg233
I0
sg234
Nsbag0
(g4
g5
Ntp1300
Rp1301
(dp1302
g9
I00
sg10
Nsg11
I00
sg12
VA Primer On #AlternateEnergy #ETFs @SeekingAlpha https://t.co/S2llX0ZZoQ $GEX $ICLN $PBD $PBW $QCLN #commodities #greenenergy #solarpower
p1303
sg14
Vhttp://www.hootsuite.com
p1304
sg16
I00
sg17
I00
sg18
Nsg19
g0
(g20
g5
Ntp1305
Rp1306
(dp1307
g24
I00
sg25
I00
sg26
I00
sg27
V000000
p1308
sg29
L3617663605L
sg30
I00
sg31
(dp1309
g33
(dp1310
g35
(lp1311
(dp1312
g33
Vhttp://t.co/9hiZVhJnwK
p1313
sg39
(lp1314
I0
aI22
asg41
Vhttp://briandcolwell.blogspot.com
p1315
sg43
Vbriandcolwell.blogspot.com
p1316
sassg45
(dp1317
g35
(lp1318
sssg48
Vhttps://pbs.twimg.com/profile_images/645289880554110976/UXw8A2oD_normal.jpg
p1319
sg50
(dp1320
g52
I00
sg53
I00
sg54
I00
sg55
I00
sg56
L3617663605L
sg57
Vhttps://abs.twimg.com/images/themes/theme1/bg.png
p1321
sg59
I00
sg60
V000000
p1322
sg62
g1319
sg63
g1308
sg64
g1309
sg65
I132
sg66
V000000
p1323
sg68
V3617663605
p1324
sg70
V000000
p1325
sg72
I9
sg73
I00
sg74
Nsg75
I804
sg45
VTweets about #GlobalMacro with a special focus on #Commodities. \u000a\u000aCheck out the other financial topics I cover on @BrianDColwell
p1326
sg77
I263
sg78
VSan Diego, CA
p1327
sg80
V64696B
p1328
sg82
Vhttp://pbs.twimg.com/profile_images/645289880554110976/UXw8A2oD_normal.jpg
p1329
sg84
I00
sg85
I00
sg86
Vhttps://pbs.twimg.com/profile_banners/3617663605/1442684414
p1330
sg88
Vhttp://abs.twimg.com/images/themes/theme1/bg.png
p1331
sg90
VBColwell_CTA
p1332
sg92
Ven
p1333
sg94
I00
sg95
I29
sg96
VBrian D Colwell
p1334
sg98
I00
sg33
Vhttp://t.co/9hiZVhJnwK
p1335
sg100
VSat Sep 19 16:17:13 +0000 2015
p1336
sg102
I00
sg103
Nsg104
I00
sg105
I00
sg106
I00
ssg107
I00
sg108
g1322
sg109
I132
sg110
g1323
sg111
g1324
sg112
I00
sg113
I9
sg114
I00
sg115
Nsg116
I804
sg117
VTweets about #GlobalMacro with a special focus on #Commodities. \u000a\u000aCheck out the other financial topics I cover on @BrianDColwell
p1337
sg119
I263
sg120
g1327
sg121
g1328
sg122
g1329
sg123
I00
sg124
I00
sg125
g1325
sg126
g1330
sg127
g1331
sg128
g1332
sg129
g1333
sg130
I00
sg131
I00
sg132
I29
sg133
g1334
sg134
g1335
sg135
g136
(S'\x07\xdf\t\x13\x10\x11\r\x00\x00\x00'
p1338
tp1339
Rp1340
sg140
g1321
sg141
Nsg142
I00
sg143
I00
sg144
I00
sbsg145
Nsg29
L662767106333765633L
sg146
I0
sg147
VHootsuite
p1341
sg129
Ven
p1342
sg150
g1306
sg135
g136
(S'\x07\xdf\x0b\x06\x17\x02.\x00\x00\x00'
p1343
tp1344
Rp1345
sg50
(dp1346
g155
Nsg156
I00
sg157
g1303
sg158
I00
sg159
Nsg56
L662767106333765633L
sg160
I0
sg161
V<a href="http://www.hootsuite.com" rel="nofollow">Hootsuite</a>
p1347
sg163
I00
sg164
Nsg64
(dp1348
g166
(lp1349
(dp1350
g39
(lp1351
I73
aI77
asg157
VGEX
p1352
sa(dp1353
g39
(lp1354
I78
aI83
asg157
VICLN
p1355
sa(dp1356
g39
(lp1357
I84
aI88
asg157
VPBD
p1358
sa(dp1359
g39
(lp1360
I89
aI93
asg157
VPBW
p1361
sa(dp1362
g39
(lp1363
I94
aI99
asg157
VQCLN
p1364
sasg183
(lp1365
(dp1366
g56
I23059499
sg39
(lp1367
I35
aI48
asg68
V23059499
p1368
sg90
VSeekingAlpha
p1369
sg96
VSeeking Alpha
p1370
sasg185
(lp1371
(dp1372
g39
(lp1373
I12
aI28
asg157
VAlternateEnergy
p1374
sa(dp1375
g39
(lp1376
I29
aI34
asg157
VETFs
p1377
sa(dp1378
g39
(lp1379
I100
aI112
asg157
Vcommodities
p1380
sa(dp1381
g39
(lp1382
I113
aI125
asg157
Vgreenenergy
p1383
sa(dp1384
g39
(lp1385
I126
aI137
asg157
Vsolarpower
p1386
sasg35
(lp1387
(dp1388
g33
Vhttps://t.co/S2llX0ZZoQ
p1389
sg39
(lp1390
I49
aI72
asg41
Vhttp://ow.ly/UcTwl
p1391
sg43
Vow.ly/UcTwl
p1392
sassg208
Nsg209
Nsg210
I0
sg68
V662767106333765633
p1393
sg212
I00
sg213
g1320
sg214
Nsg215
Nsg216
I00
sg92
g1342
sg100
VFri Nov 06 23:02:46 +0000 2015
p1394
sg218
Nsg219
Nsg220
(dp1395
g222
Ven
p1396
sg224
Vrecent
p1397
sssg226
g1395
sg227
Nsg228
Nsg31
g1348
sg229
Nsg230
Nsg111
g1393
sg231
I00
sg232
Nsg233
I0
sg234
Nsbag0
(g4
g5
Ntp1398
Rp1399
(dp1400
g9
I00
sg10
Nsg11
I00
sg12
VConnecting the Dots: Dirty Money: The Big Profits of Pollution $PUW $PZD $ICLN $QCLN $CGW $EVX $FAN $FIW $GEX $KWT https://t.co/mgHFqKL9g6
p1401
sg14
Vhttp://www.talkmarkets.com
p1402
sg16
I00
sg17
I00
sg18
Nsg19
g0
(g20
g5
Ntp1403
Rp1404
(dp1405
g24
I00
sg25
I00
sg26
I01
sg27
VC0DFEC
p1406
sg29
I1001192245
sg30
I00
sg31
(dp1407
g33
(dp1408
g35
(lp1409
(dp1410
g33
Vhttp://t.co/iL0trK2OzM
p1411
sg39
(lp1412
I0
aI22
asg41
Vhttp://www.TalkMarkets.com
p1413
sg43
VTalkMarkets.com
p1414
sassg45
(dp1415
g35
(lp1416
sssg48
Vhttps://pbs.twimg.com/profile_images/378800000327180850/4f6d3ae1729ccc9d1d0414cb5359ed7a_normal.png
p1417
sg50
(dp1418
g52
I00
sg53
I00
sg54
I01
sg55
I00
sg56
I1001192245
sg57
Vhttps://abs.twimg.com/images/themes/theme15/bg.png
p1419
sg59
I00
sg60
V333333
p1420
sg62
g1417
sg63
g1406
sg64
g1407
sg65
I1197
sg66
VA8C7F7
p1421
sg68
V1001192245
p1422
sg70
V022330
p1423
sg72
I254
sg73
I00
sg74
I-18000
sg75
I53881
sg45
VFinancial content that\u2019s customized, optimized, socialized.
p1424
sg77
I429
sg78
V
p1425
sg80
V0084B4
p1426
sg82
Vhttp://pbs.twimg.com/profile_images/378800000327180850/4f6d3ae1729ccc9d1d0414cb5359ed7a_normal.png
p1427
sg84
I00
sg85
I01
sg86
Vhttps://pbs.twimg.com/profile_banners/1001192245/1418426010
p1428
sg88
Vhttp://abs.twimg.com/images/themes/theme15/bg.png
p1429
sg90
VTalkMarkets
p1430
sg92
Ven
p1431
sg94
I00
sg95
I168
sg96
VTalkMarkets
p1432
sg98
I00
sg33
Vhttp://t.co/iL0trK2OzM
p1433
sg100
VMon Dec 10 07:55:31 +0000 2012
p1434
sg102
I00
sg103
VEastern Time (US & Canada)
p1435
sg104
I00
sg105
I00
sg106
I00
ssg107
I00
sg108
g1420
sg109
I1197
sg110
g1421
sg111
g1422
sg112
I00
sg113
I254
sg114
I00
sg115
I-18000
sg116
I53881
sg117
g1424
sg119
I429
sg120
g1425
sg121
g1426
sg122
g1427
sg123
I00
sg124
I01
sg125
g1423
sg126
g1428
sg127
g1429
sg128
g1430
sg129
g1431
sg130
I00
sg131
I00
sg132
I168
sg133
g1432
sg134
g1433
sg135
g136
(S'\x07\xdc\x0c\n\x077\x1f\x00\x00\x00'
p1436
tp1437
Rp1438
sg140
g1419
sg141
g1435
sg142
I00
sg143
I00
sg144
I00
sbsg145
Nsg29
L662210012152995840L
sg146
I0
sg147
VTalkMarkets
p1439
sg129
Vund
p1440
sg150
g1404
sg135
g136
(S'\x07\xdf\x0b\x05\n\t\x04\x00\x00\x00'
p1441
tp1442
Rp1443
sg50
(dp1444
g155
Nsg156
I00
sg157
g1401
sg158
I00
sg159
Nsg56
L662210012152995840L
sg160
I0
sg161
V<a href="http://www.talkmarkets.com" rel="nofollow">TalkMarkets</a>
p1445
sg163
I00
sg164
Nsg64
(dp1446
g166
(lp1447
(dp1448
g39
(lp1449
I63
aI67
asg157
VPUW
p1450
sa(dp1451
g39
(lp1452
I68
aI72
asg157
VPZD
p1453
sa(dp1454
g39
(lp1455
I73
aI78
asg157
VICLN
p1456
sa(dp1457
g39
(lp1458
I79
aI84
asg157
VQCLN
p1459
sa(dp1460
g39
(lp1461
I85
aI89
asg157
VCGW
p1462
sa(dp1463
g39
(lp1464
I90
aI94
asg157
VEVX
p1465
sa(dp1466
g39
(lp1467
I95
aI99
asg157
VFAN
p1468
sa(dp1469
g39
(lp1470
I100
aI104
asg157
VFIW
p1471
sa(dp1472
g39
(lp1473
I105
aI109
asg157
VGEX
p1474
sa(dp1475
g39
(lp1476
I110
aI114
asg157
VKWT
p1477
sasg183
(lp1478
sg185
(lp1479
sg35
(lp1480
(dp1481
g33
Vhttps://t.co/mgHFqKL9g6
p1482
sg39
(lp1483
I115
aI138
asg41
Vhttp://goo.gl/f1Td8s
p1484
sg43
Vgoo.gl/f1Td8s
p1485
sassg208
Nsg209
Nsg210
I0
sg68
V662210012152995840
p1486
sg212
I00
sg213
g1418
sg214
Nsg215
Nsg216
I00
sg92
g1440
sg100
VThu Nov 05 10:09:04 +0000 2015
p1487
sg218
Nsg219
Nsg220
(dp1488
g222
Vund
p1489
sg224
Vrecent
p1490
sssg226
g1488
sg227
Nsg228
Nsg31
g1446
sg229
Nsg230
Nsg111
g1486
sg231
I00
sg232
Nsg233
I0
sg234
Nsbag0
(g4
g5
Ntp1491
Rp1492
(dp1493
g9
I00
sg10
Nsg11
I00
sg12
VConnecting the Dots: Dirty Money: The Big Profits of Pollution $PUW $PZD $ICLN $QCLN $CGW $EVX $FAN $FIW $GEX $KWT https://t.co/Nw23PEXTmW
p1494
sg14
Vhttp://www.talkmarkets.com
p1495
sg16
I00
sg17
I00
sg18
Nsg19
g0
(g20
g5
Ntp1496
Rp1497
(dp1498
g24
I00
sg25
I00
sg26
I01
sg27
VDDEEF6
p1499
sg29
L2795789015L
sg30
I00
sg31
(dp1500
g33
(dp1501
g35
(lp1502
(dp1503
g33
Vhttp://t.co/jrQKD4iteR
p1504
sg39
(lp1505
I0
aI22
asg41
Vhttp://www.TalkMarkets.com
p1506
sg43
VTalkMarkets.com
p1507
sassg45
(dp1508
g35
(lp1509
sssg48
Vhttps://pbs.twimg.com/profile_images/517011224236523520/l_22XWCv_normal.png
p1510
sg50
(dp1511
g52
I00
sg53
I00
sg54
I01
sg55
I00
sg56
L2795789015L
sg57
Vhttps://abs.twimg.com/images/themes/theme1/bg.png
p1512
sg59
I00
sg60
V333333
p1513
sg62
g1510
sg63
g1499
sg64
g1500
sg65
I206
sg66
VC0DEED
p1514
sg68
V2795789015
p1515
sg70
VC0DEED
p1516
sg72
I128
sg73
I00
sg74
Nsg75
I16879
sg45
VA recap of our day's most popular headlines.  Check us out for a customized reading experience covering financial & business news, opinion & analysis.
p1517
sg77
I13
sg78
g1425
sg80
V0084B4
p1518
sg82
Vhttp://pbs.twimg.com/profile_images/517011224236523520/l_22XWCv_normal.png
p1519
sg84
I00
sg85
I00
sg86
Vhttps://pbs.twimg.com/profile_banners/2795789015/1412100067
p1520
sg88
Vhttp://abs.twimg.com/images/themes/theme1/bg.png
p1521
sg90
VMarketsRecap
p1522
sg92
Ven
p1523
sg94
I00
sg95
I5
sg96
VTalkMarkets Recap
p1524
sg98
I00
sg33
Vhttp://t.co/jrQKD4iteR
p1525
sg100
VTue Sep 30 18:00:06 +0000 2014
p1526
sg102
I00
sg103
Nsg104
I00
sg105
I01
sg106
I00
ssg107
I00
sg108
g1513
sg109
I206
sg110
g1514
sg111
g1515
sg112
I00
sg113
I128
sg114
I00
sg115
Nsg116
I16879
sg117
g1517
sg119
I13
sg120
g1425
sg121
g1518
sg122
g1519
sg123
I00
sg124
I00
sg125
g1516
sg126
g1520
sg127
g1521
sg128
g1522
sg129
g1523
sg130
I00
sg131
I00
sg132
I5
sg133
g1524
sg134
g1525
sg135
g136
(S'\x07\xde\t\x1e\x12\x00\x06\x00\x00\x00'
p1527
tp1528
Rp1529
sg140
g1512
sg141
Nsg142
I00
sg143
I01
sg144
I00
sbsg145
Nsg29
L662119414486179840L
sg146
I0
sg147
VTalkMarkets
p1530
sg129
Vund
p1531
sg150
g1497
sg135
g136
(S'\x07\xdf\x0b\x05\x04\t\x04\x00\x00\x00'
p1532
tp1533
Rp1534
sg50
(dp1535
g155
Nsg156
I00
sg157
g1494
sg158
I00
sg159
Nsg56
L662119414486179840L
sg160
I0
sg161
V<a href="http://www.talkmarkets.com" rel="nofollow">TalkMarkets</a>
p1536
sg163
I00
sg164
Nsg64
(dp1537
g166
(lp1538
(dp1539
g39
(lp1540
I63
aI67
asg157
VPUW
p1541
sa(dp1542
g39
(lp1543
I68
aI72
asg157
VPZD
p1544
sa(dp1545
g39
(lp1546
I73
aI78
asg157
VICLN
p1547
sa(dp1548
g39
(lp1549
I79
aI84
asg157
VQCLN
p1550
sa(dp1551
g39
(lp1552
I85
aI89
asg157
VCGW
p1553
sa(dp1554
g39
(lp1555
I90
aI94
asg157
VEVX
p1556
sa(dp1557
g39
(lp1558
I95
aI99
asg157
VFAN
p1559
sa(dp1560
g39
(lp1561
I100
aI104
asg157
VFIW
p1562
sa(dp1563
g39
(lp1564
I105
aI109
asg157
VGEX
p1565
sa(dp1566
g39
(lp1567
I110
aI114
asg157
VKWT
p1568
sasg183
(lp1569
sg185
(lp1570
sg35
(lp1571
(dp1572
g33
Vhttps://t.co/Nw23PEXTmW
p1573
sg39
(lp1574
I115
aI138
asg41
Vhttp://goo.gl/f1Td8s
p1575
sg43
Vgoo.gl/f1Td8s
p1576
sassg208
Nsg209
Nsg210
I0
sg68
V662119414486179840
p1577
sg212
I00
sg213
g1511
sg214
Nsg215
Nsg216
I00
sg92
g1531
sg100
VThu Nov 05 04:09:04 +0000 2015
p1578
sg218
Nsg219
Nsg220
(dp1579
g222
Vund
p1580
sg224
Vrecent
p1581
sssg226
g1579
sg227
Nsg228
Nsg31
g1537
sg229
Nsg230
Nsg111
g1577
sg231
I00
sg232
Nsg233
I0
sg234
Nsbag0
(g4
g5
Ntp1582
Rp1583
(dp1584
g9
I00
sg10
Nsg11
I00
sg12
VConnecting the Dots: Dirty Money: The Big Profits of Pollution $PUW $PZD $ICLN $QCLN $CGW $EVX $FAN $FIW $GEX $KWT https://t.co/mgHFqKL9g6
p1585
sg14
Vhttp://www.talkmarkets.com
p1586
sg16
I00
sg17
I00
sg18
Nsg19
g0
(g20
g5
Ntp1587
Rp1588
(dp1589
g24
I00
sg25
I00
sg26
I01
sg27
VC0DFEC
p1590
sg29
I1001192245
sg30
I00
sg31
(dp1591
g33
(dp1592
g35
(lp1593
(dp1594
g33
Vhttp://t.co/iL0trK2OzM
p1595
sg39
(lp1596
I0
aI22
asg41
Vhttp://www.TalkMarkets.com
p1597
sg43
VTalkMarkets.com
p1598
sassg45
(dp1599
g35
(lp1600
sssg48
Vhttps://pbs.twimg.com/profile_images/378800000327180850/4f6d3ae1729ccc9d1d0414cb5359ed7a_normal.png
p1601
sg50
(dp1602
g52
I00
sg53
I00
sg54
I01
sg55
I00
sg56
I1001192245
sg57
Vhttps://abs.twimg.com/images/themes/theme15/bg.png
p1603
sg59
I00
sg60
V333333
p1604
sg62
g1601
sg63
g1590
sg64
g1591
sg65
I1197
sg66
VA8C7F7
p1605
sg68
V1001192245
p1606
sg70
V022330
p1607
sg72
I254
sg73
I00
sg74
I-18000
sg75
I53881
sg45
VFinancial content that\u2019s customized, optimized, socialized.
p1608
sg77
I429
sg78
g1425
sg80
V0084B4
p1609
sg82
Vhttp://pbs.twimg.com/profile_images/378800000327180850/4f6d3ae1729ccc9d1d0414cb5359ed7a_normal.png
p1610
sg84
I00
sg85
I01
sg86
Vhttps://pbs.twimg.com/profile_banners/1001192245/1418426010
p1611
sg88
Vhttp://abs.twimg.com/images/themes/theme15/bg.png
p1612
sg90
VTalkMarkets
p1613
sg92
Ven
p1614
sg94
I00
sg95
I168
sg96
VTalkMarkets
p1615
sg98
I00
sg33
Vhttp://t.co/iL0trK2OzM
p1616
sg100
VMon Dec 10 07:55:31 +0000 2012
p1617
sg102
I00
sg103
VEastern Time (US & Canada)
p1618
sg104
I00
sg105
I00
sg106
I00
ssg107
I00
sg108
g1604
sg109
I1197
sg110
g1605
sg111
g1606
sg112
I00
sg113
I254
sg114
I00
sg115
I-18000
sg116
I53881
sg117
g1608
sg119
I429
sg120
g1425
sg121
g1609
sg122
g1610
sg123
I00
sg124
I01
sg125
g1607
sg126
g1611
sg127
g1612
sg128
g1613
sg129
g1614
sg130
I00
sg131
I00
sg132
I168
sg133
g1615
sg134
g1616
sg135
g136
(S'\x07\xdc\x0c\n\x077\x1f\x00\x00\x00'
p1619
tp1620
Rp1621
sg140
g1603
sg141
g1618
sg142
I00
sg143
I00
sg144
I00
sbsg145
Nsg29
L662022119535063044L
sg146
I0
sg147
VTalkMarkets
p1622
sg129
Vund
p1623
sg150
g1588
sg135
g136
(S'\x07\xdf\x0b\x04\x15*\x1b\x00\x00\x00'
p1624
tp1625
Rp1626
sg50
(dp1627
g155
Nsg156
I00
sg157
g1585
sg158
I00
sg159
Nsg56
L662022119535063044L
sg160
I0
sg161
V<a href="http://www.talkmarkets.com" rel="nofollow">TalkMarkets</a>
p1628
sg163
I00
sg164
Nsg64
(dp1629
g166
(lp1630
(dp1631
g39
(lp1632
I63
aI67
asg157
VPUW
p1633
sa(dp1634
g39
(lp1635
I68
aI72
asg157
VPZD
p1636
sa(dp1637
g39
(lp1638
I73
aI78
asg157
VICLN
p1639
sa(dp1640
g39
(lp1641
I79
aI84
asg157
VQCLN
p1642
sa(dp1643
g39
(lp1644
I85
aI89
asg157
VCGW
p1645
sa(dp1646
g39
(lp1647
I90
aI94
asg157
VEVX
p1648
sa(dp1649
g39
(lp1650
I95
aI99
asg157
VFAN
p1651
sa(dp1652
g39
(lp1653
I100
aI104
asg157
VFIW
p1654
sa(dp1655
g39
(lp1656
I105
aI109
asg157
VGEX
p1657
sa(dp1658
g39
(lp1659
I110
aI114
asg157
VKWT
p1660
sasg183
(lp1661
sg185
(lp1662
sg35
(lp1663
(dp1664
g33
Vhttps://t.co/mgHFqKL9g6
p1665
sg39
(lp1666
I115
aI138
asg41
Vhttp://goo.gl/f1Td8s
p1667
sg43
Vgoo.gl/f1Td8s
p1668
sassg208
Nsg209
Nsg210
I0
sg68
V662022119535063044
p1669
sg212
I00
sg213
g1602
sg214
Nsg215
Nsg216
I00
sg92
g1623
sg100
VWed Nov 04 21:42:27 +0000 2015
p1670
sg218
Nsg219
Nsg220
(dp1671
g222
Vund
p1672
sg224
Vrecent
p1673
sssg226
g1671
sg227
Nsg228
Nsg31
g1629
sg229
Nsg230
Nsg111
g1669
sg231
I00
sg232
Nsg233
I0
sg234
Nsbag0
(g4
g5
Ntp1674
Rp1675
(dp1676
g9
I00
sg10
Nsg11
I00
sg12
VImp catalysts 4 MEIP &amp; CALA in d cmg week Here is DD 4 investors:https://t.co/lwSyWTxOEB $ICLN $ICLR $ICN $ICOL $ICON $ICPT $ICUI $ICVT
p1677
sg14
Vhttp://twittimer.com
p1678
sg16
I00
sg17
I00
sg18
Nsg19
g0
(g20
g5
Ntp1679
Rp1680
(dp1681
g24
I00
sg25
I01
sg26
I00
sg27
V000000
p1682
sg29
L3518191635L
sg30
I00
sg31
(dp1683
g33
(dp1684
g35
(lp1685
(dp1686
g33
Vhttps://t.co/ot2Kl5nyub
p1687
sg39
(lp1688
I0
aI23
asg41
Vhttps://groups.google.com/forum/#!forum/jbem777
p1689
sg43
Vgroups.google.com/forum/#!forum/\u2026
p1690
sassg45
(dp1691
g35
(lp1692
sssg48
Vhttps://pbs.twimg.com/profile_images/638885869433196544/C975RWXJ_normal.jpg
p1693
sg50
(dp1694
g52
I00
sg53
I01
sg54
I00
sg55
I00
sg56
L3518191635L
sg57
Vhttps://abs.twimg.com/images/themes/theme1/bg.png
p1695
sg59
I00
sg60
V000000
p1696
sg62
g1693
sg63
g1682
sg64
g1683
sg65
I28
sg66
V000000
p1697
sg68
V3518191635
p1698
sg70
V000000
p1699
sg72
I1
sg73
I00
sg74
I-28800
sg75
I1505
sg45
VHealthcare Stocks
p1700
sg77
I25
sg78
g1425
sg80
V89C9FA
p1701
sg82
Vhttp://pbs.twimg.com/profile_images/638885869433196544/C975RWXJ_normal.jpg
p1702
sg84
I00
sg85
I00
sg88
Vhttp://abs.twimg.com/images/themes/theme1/bg.png
p1703
sg90
Vjbemstocks
p1704
sg92
Ven
p1705
sg94
I00
sg95
I0
sg96
VDUE DILIGENCE
p1706
sg98
I00
sg33
Vhttps://t.co/ot2Kl5nyub
p1707
sg100
VWed Sep 02 01:23:46 +0000 2015
p1708
sg102
I00
sg103
VPacific Time (US & Canada)
p1709
sg104
I00
sg105
I00
sg106
I00
ssg107
I00
sg108
g1696
sg109
I28
sg110
g1697
sg111
g1698
sg112
I00
sg113
I1
sg114
I00
sg115
I-28800
sg116
I1505
sg117
g1700
sg119
I25
sg120
g1425
sg121
g1701
sg122
g1702
sg123
I00
sg124
I00
sg125
g1699
sg127
g1703
sg128
g1704
sg129
g1705
sg130
I00
sg131
I00
sg132
I0
sg133
g1706
sg134
g1707
sg135
g136
(S'\x07\xdf\t\x02\x01\x17.\x00\x00\x00'
p1710
tp1711
Rp1712
sg140
g1695
sg141
g1709
sg142
I00
sg143
I00
sg144
I00
sbsg145
Nsg29
L661994835243483136L
sg146
I0
sg147
VTwittimer
p1713
sg129
Vde
p1714
sg150
g1680
sg135
g136
(S'\x07\xdf\x0b\x04\x136\x02\x00\x00\x00'
p1715
tp1716
Rp1717
sg50
(dp1718
g155
Nsg156
I00
sg157
g1677
sg158
I00
sg159
Nsg56
L661994835243483136L
sg160
I0
sg161
V<a href="http://twittimer.com" rel="nofollow">Twittimer</a>
p1719
sg163
I00
sg164
Nsg64
(dp1720
g166
(lp1721
(dp1722
g39
(lp1723
I93
aI98
asg157
VICLN
p1724
sa(dp1725
g39
(lp1726
I99
aI104
asg157
VICLR
p1727
sa(dp1728
g39
(lp1729
I105
aI109
asg157
VICN
p1730
sa(dp1731
g39
(lp1732
I110
aI115
asg157
VICOL
p1733
sa(dp1734
g39
(lp1735
I116
aI121
asg157
VICON
p1736
sa(dp1737
g39
(lp1738
I122
aI127
asg157
VICPT
p1739
sa(dp1740
g39
(lp1741
I128
aI133
asg157
VICUI
p1742
sa(dp1743
g39
(lp1744
I134
aI139
asg157
VICVT
p1745
sasg183
(lp1746
sg185
(lp1747
sg35
(lp1748
(dp1749
g33
Vhttps://t.co/lwSyWTxOEB
p1750
sg39
(lp1751
I69
aI92
asg41
Vhttp://bit.ly/1KjZ8cR
p1752
sg43
Vbit.ly/1KjZ8cR
p1753
sassg208
Nsg209
Nsg210
I0
sg68
V661994835243483136
p1754
sg212
I00
sg213
g1694
sg214
Nsg215
Nsg216
I00
sg92
g1714
sg100
VWed Nov 04 19:54:02 +0000 2015
p1755
sg218
Nsg219
Nsg220
(dp1756
g222
Vde
p1757
sg224
Vrecent
p1758
sssg226
g1756
sg227
Nsg228
Nsg31
g1720
sg229
Nsg230
Nsg111
g1754
sg231
I00
sg232
Nsg233
I0
sg234
Nsbag0
(g4
g5
Ntp1759
Rp1760
(dp1761
g9
I00
sg10
Nsg11
I00
sg12
VA Primer On Alternate Energy ETFs https://t.co/tAjNSfwQhL $PBW $GEX $PBD $QCLN $ICLN
p1762
sg14
Vhttp://twitter.com
p1763
sg16
I00
sg17
I00
sg18
Nsg19
g0
(g20
g5
Ntp1764
Rp1765
(dp1766
g24
I00
sg25
I00
sg26
I01
sg27
VFFFFFF
p1767
sg29
I322054650
sg30
I00
sg31
(dp1768
g33
(dp1769
g35
(lp1770
(dp1771
g33
Vhttp://t.co/WY7W7zafSS
p1772
sg39
(lp1773
I0
aI22
asg41
Vhttp://pelias01.wordpress.com
p1774
sg43
Vpelias01.wordpress.com
p1775
sassg45
(dp1776
g35
(lp1777
sssg48
Vhttps://pbs.twimg.com/profile_images/1408052895/ale_normal.png
p1778
sg50
(dp1779
g52
I00
sg53
I00
sg54
I01
sg55
I00
sg56
I322054650
sg57
Vhttps://pbs.twimg.com/profile_background_images/609098533690572800/4r0shM0A.jpg
p1780
sg59
I00
sg60
V3F221A
p1781
sg62
g1778
sg63
g1767
sg64
g1768
sg65
I2649
sg66
VA07B44
p1782
sg68
V322054650
p1783
sg70
VFFFFFF
p1784
sg72
I357
sg73
I00
sg74
I3600
sg75
I356027
sg45
VIndependent Financial Consultant. Finance, investing. Also FX, geopolitics and other interesting stuff. Currently trying to relocate as a financial journalist.
p1785
sg77
I1240
sg78
VLivorno
p1786
sg80
V0D1047
p1787
sg82
Vhttp://pbs.twimg.com/profile_images/1408052895/ale_normal.png
p1788
sg84
I00
sg85
I01
sg86
Vhttps://pbs.twimg.com/profile_banners/322054650/1427819738
p1789
sg88
Vhttp://pbs.twimg.com/profile_background_images/609098533690572800/4r0shM0A.jpg
p1790
sg90
Vpelias01
p1791
sg92
Vit
p1792
sg94
I00
sg95
I472
sg96
VAlessandro
p1793
sg98
I00
sg33
Vhttp://t.co/WY7W7zafSS
p1794
sg100
VWed Jun 22 15:26:50 +0000 2011
p1795
sg102
I00
sg103
VRome
p1796
sg104
I00
sg105
I00
sg106
I00
ssg107
I00
sg108
g1781
sg109
I2649
sg110
g1782
sg111
g1783
sg112
I00
sg113
I357
sg114
I00
sg115
I3600
sg116
I356027
sg117
g1785
sg119
I1240
sg120
g1786
sg121
g1787
sg122
g1788
sg123
I00
sg124
I01
sg125
g1784
sg126
g1789
sg127
g1790
sg128
g1791
sg129
g1792
sg130
I00
sg131
I00
sg132
I472
sg133
g1793
sg134
g1794
sg135
g136
(S'\x07\xdb\x06\x16\x0f\x1a2\x00\x00\x00'
p1797
tp1798
Rp1799
sg140
g1780
sg141
g1796
sg142
I00
sg143
I00
sg144
I00
sbsg145
Nsg29
L661605905100877824L
sg146
I0
sg147
VTwitter Web Client
p1800
sg129
Ven
p1801
sg150
g1765
sg135
g136
(S'\x07\xdf\x0b\x03\x12\x08"\x00\x00\x00'
p1802
tp1803
Rp1804
sg50
(dp1805
g155
Nsg156
I00
sg157
g1762
sg158
I00
sg159
Nsg56
L661605905100877824L
sg160
I0
sg161
V<a href="http://twitter.com" rel="nofollow">Twitter Web Client</a>
p1806
sg163
I00
sg164
Nsg64
(dp1807
g166
(lp1808
(dp1809
g39
(lp1810
I58
aI62
asg157
VPBW
p1811
sa(dp1812
g39
(lp1813
I63
aI67
asg157
VGEX
p1814
sa(dp1815
g39
(lp1816
I68
aI72
asg157
VPBD
p1817
sa(dp1818
g39
(lp1819
I73
aI78
asg157
VQCLN
p1820
sa(dp1821
g39
(lp1822
I79
aI84
asg157
VICLN
p1823
sasg183
(lp1824
sg185
(lp1825
sg35
(lp1826
(dp1827
g33
Vhttps://t.co/tAjNSfwQhL
p1828
sg39
(lp1829
I34
aI57
asg41
Vhttp://seekingalpha.com/article/3631186-a-primer-on-alternate-energy-etfs?source=tweet
p1830
sg43
Vseekingalpha.com/article/363118\u2026
p1831
sassg208
Nsg209
Nsg210
I0
sg68
V661605905100877824
p1832
sg212
I00
sg213
g1779
sg214
Nsg215
Nsg216
I00
sg92
g1801
sg100
VTue Nov 03 18:08:34 +0000 2015
p1833
sg218
Nsg219
Nsg220
(dp1834
g222
Ven
p1835
sg224
Vrecent
p1836
sssg226
g1834
sg227
Nsg228
Nsg31
g1807
sg229
Nsg230
Nsg111
g1832
sg231
I00
sg232
Nsg233
I0
sg234
Nsbag0
(g4
g5
Ntp1837
Rp1838
(dp1839
g9
I00
sg10
Nsg11
I00
sg12
VA Primer On Alternate Energy ETFs https://t.co/cxBj1zI4dI $PBW $GEX $PBD $QCLN $ICLN
p1840
sg14
Vhttp://seekingalpha.com
p1841
sg16
I00
sg17
I00
sg18
Nsg19
g0
(g20
g5
Ntp1842
Rp1843
(dp1844
g24
I00
sg25
I00
sg26
I00
sg27
VDDEEF6
p1845
sg29
I201296379
sg30
I00
sg31
(dp1846
g33
(dp1847
g35
(lp1848
(dp1849
g33
Vhttp://t.co/92fdg1URYX
p1850
sg39
(lp1851
I0
aI22
asg41
Vhttp://seekingalpha.com/currents/tech
p1852
sg43
Vseekingalpha.com/currents/tech
p1853
sassg45
(dp1854
g35
(lp1855
(dp1856
g33
Vhttps://t.co/nzLmsIKexy
p1857
sg39
(lp1858
I95
aI118
asg41
Vhttps://twitter.com/SeekingAlpha/following
p1859
sg43
Vtwitter.com/SeekingAlpha/f\u2026
p1860
sasssg48
Vhttps://pbs.twimg.com/profile_images/562221086536785921/0GCwkfuV_normal.png
p1861
sg50
(dp1862
g52
I00
sg53
I00
sg54
I00
sg55
I00
sg56
I201296379
sg57
Vhttps://pbs.twimg.com/profile_background_images/378800000123987065/12db58c4165f5b1230832461011ea368.png
p1863
sg59
I00
sg60
V333333
p1864
sg62
g1861
sg63
g1845
sg64
g1846
sg65
I2949
sg66
VFFFFFF
p1865
sg68
V201296379
p1866
sg70
VC0DEED
p1867
sg72
I149
sg73
I00
sg74
I-18000
sg75
I32713
sg45
VBreaking news and analysis about tech stocks from Seeking Alpha. See all SA Twitter options at https://t.co/nzLmsIKexy
p1868
sg77
I33
sg78
g1425
sg80
V360000
p1869
sg82
Vhttp://pbs.twimg.com/profile_images/562221086536785921/0GCwkfuV_normal.png
p1870
sg84
I00
sg85
I00
sg88
Vhttp://pbs.twimg.com/profile_background_images/378800000123987065/12db58c4165f5b1230832461011ea368.png
p1871
sg90
VSAlphaTech
p1872
sg92
Ven
p1873
sg94
I00
sg95
I0
sg96
VTech Stocks
p1874
sg98
I00
sg33
Vhttp://t.co/92fdg1URYX
p1875
sg100
VMon Oct 11 14:58:14 +0000 2010
p1876
sg102
I00
sg103
VEastern Time (US & Canada)
p1877
sg104
I00
sg105
I00
sg106
I00
ssg107
I00
sg108
g1864
sg109
I2949
sg110
g1865
sg111
g1866
sg112
I00
sg113
I149
sg114
I00
sg115
I-18000
sg116
I32713
sg117
g1868
sg119
I33
sg120
g1425
sg121
g1869
sg122
g1870
sg123
I00
sg124
I00
sg125
g1867
sg127
g1871
sg128
g1872
sg129
g1873
sg130
I00
sg131
I00
sg132
I0
sg133
g1874
sg134
g1875
sg135
g136
(S'\x07\xda\n\x0b\x0e:\x0e\x00\x00\x00'
p1878
tp1879
Rp1880
sg140
g1863
sg141
g1877
sg142
I00
sg143
I00
sg144
I00
sbsg145
Nsg29
L661316862454566912L
sg146
I0
sg147
VSeekingAlpha Tech Articles
p1881
sg129
Ven
p1882
sg150
g1843
sg135
g136
(S'\x07\xdf\x0b\x02\x17\x00\x01\x00\x00\x00'
p1883
tp1884
Rp1885
sg50
(dp1886
g155
Nsg156
I00
sg157
g1840
sg158
I00
sg159
Nsg56
L661316862454566912L
sg160
I0
sg161
V<a href="http://seekingalpha.com" rel="nofollow">SeekingAlpha Tech Articles</a>
p1887
sg163
I00
sg164
Nsg64
(dp1888
g166
(lp1889
(dp1890
g39
(lp1891
I58
aI62
asg157
VPBW
p1892
sa(dp1893
g39
(lp1894
I63
aI67
asg157
VGEX
p1895
sa(dp1896
g39
(lp1897
I68
aI72
asg157
VPBD
p1898
sa(dp1899
g39
(lp1900
I73
aI78
asg157
VQCLN
p1901
sa(dp1902
g39
(lp1903
I79
aI84
asg157
VICLN
p1904
sasg183
(lp1905
sg185
(lp1906
sg35
(lp1907
(dp1908
g33
Vhttps://t.co/cxBj1zI4dI
p1909
sg39
(lp1910
I34
aI57
asg41
Vhttp://seekingalpha.com/article/3631186-a-primer-on-alternate-energy-etfs?source=feed_tags
p1911
sg43
Vseekingalpha.com/article/363118\u2026
p1912
sassg208
Nsg209
Nsg210
I0
sg68
V661316862454566912
p1913
sg212
I00
sg213
g1862
sg214
Nsg215
Nsg216
I00
sg92
g1882
sg100
VMon Nov 02 23:00:01 +0000 2015
p1914
sg218
Nsg219
Nsg220
(dp1915
g222
Ven
p1916
sg224
Vrecent
p1917
sssg226
g1915
sg227
Nsg228
Nsg31
g1888
sg229
Nsg230
Nsg111
g1913
sg231
I00
sg232
Nsg233
I0
sg234
Nsbag0
(g4
g5
Ntp1918
Rp1919
(dp1920
g9
I00
sg10
Nsg11
I00
sg12
VA Primer On Alternate Energy ETFs https://t.co/tAjNSfwQhL $PBW $GEX $PBD $QCLN $ICLN
p1921
sg14
Vhttp://twitter.com
p1922
sg16
I00
sg17
I00
sg18
Nsg19
g0
(g20
g5
Ntp1923
Rp1924
(dp1925
g24
I00
sg25
I00
sg26
I01
sg27
VFFFFFF
p1926
sg29
I322054650
sg30
I00
sg31
(dp1927
g33
(dp1928
g35
(lp1929
(dp1930
g33
Vhttp://t.co/WY7W7zafSS
p1931
sg39
(lp1932
I0
aI22
asg41
Vhttp://pelias01.wordpress.com
p1933
sg43
Vpelias01.wordpress.com
p1934
sassg45
(dp1935
g35
(lp1936
sssg48
Vhttps://pbs.twimg.com/profile_images/1408052895/ale_normal.png
p1937
sg50
(dp1938
g52
I00
sg53
I00
sg54
I01
sg55
I00
sg56
I322054650
sg57
Vhttps://pbs.twimg.com/profile_background_images/609098533690572800/4r0shM0A.jpg
p1939
sg59
I00
sg60
V3F221A
p1940
sg62
g1937
sg63
g1926
sg64
g1927
sg65
I2649
sg66
VA07B44
p1941
sg68
V322054650
p1942
sg70
VFFFFFF
p1943
sg72
I357
sg73
I00
sg74
I3600
sg75
I356027
sg45
VIndependent Financial Consultant. Finance, investing. Also FX, geopolitics and other interesting stuff. Currently trying to relocate as a financial journalist.
p1944
sg77
I1240
sg78
VLivorno
p1945
sg80
V0D1047
p1946
sg82
Vhttp://pbs.twimg.com/profile_images/1408052895/ale_normal.png
p1947
sg84
I00
sg85
I01
sg86
Vhttps://pbs.twimg.com/profile_banners/322054650/1427819738
p1948
sg88
Vhttp://pbs.twimg.com/profile_background_images/609098533690572800/4r0shM0A.jpg
p1949
sg90
Vpelias01
p1950
sg92
Vit
p1951
sg94
I00
sg95
I472
sg96
VAlessandro
p1952
sg98
I00
sg33
Vhttp://t.co/WY7W7zafSS
p1953
sg100
VWed Jun 22 15:26:50 +0000 2011
p1954
sg102
I00
sg103
VRome
p1955
sg104
I00
sg105
I00
sg106
I00
ssg107
I00
sg108
g1940
sg109
I2649
sg110
g1941
sg111
g1942
sg112
I00
sg113
I357
sg114
I00
sg115
I3600
sg116
I356027
sg117
g1944
sg119
I1240
sg120
g1945
sg121
g1946
sg122
g1947
sg123
I00
sg124
I01
sg125
g1943
sg126
g1948
sg127
g1949
sg128
g1950
sg129
g1951
sg130
I00
sg131
I00
sg132
I472
sg133
g1952
sg134
g1953
sg135
g136
(S'\x07\xdb\x06\x16\x0f\x1a2\x00\x00\x00'
p1956
tp1957
Rp1958
sg140
g1939
sg141
g1955
sg142
I00
sg143
I00
sg144
I00
sbsg145
Nsg29
L661203496599973888L
sg146
I0
sg147
VTwitter Web Client
p1959
sg129
Ven
p1960
sg150
g1924
sg135
g136
(S'\x07\xdf\x0b\x02\x0f\x1d \x00\x00\x00'
p1961
tp1962
Rp1963
sg50
(dp1964
g155
Nsg156
I00
sg157
g1921
sg158
I00
sg159
Nsg56
L661203496599973888L
sg160
I0
sg161
V<a href="http://twitter.com" rel="nofollow">Twitter Web Client</a>
p1965
sg163
I00
sg164
Nsg64
(dp1966
g166
(lp1967
(dp1968
g39
(lp1969
I58
aI62
asg157
VPBW
p1970
sa(dp1971
g39
(lp1972
I63
aI67
asg157
VGEX
p1973
sa(dp1974
g39
(lp1975
I68
aI72
asg157
VPBD
p1976
sa(dp1977
g39
(lp1978
I73
aI78
asg157
VQCLN
p1979
sa(dp1980
g39
(lp1981
I79
aI84
asg157
VICLN
p1982
sasg183
(lp1983
sg185
(lp1984
sg35
(lp1985
(dp1986
g33
Vhttps://t.co/tAjNSfwQhL
p1987
sg39
(lp1988
I34
aI57
asg41
Vhttp://seekingalpha.com/article/3631186-a-primer-on-alternate-energy-etfs?source=tweet
p1989
sg43
Vseekingalpha.com/article/363118\u2026
p1990
sassg208
Nsg209
Nsg210
I0
sg68
V661203496599973888
p1991
sg212
I00
sg213
g1938
sg214
Nsg215
Nsg216
I00
sg92
g1960
sg100
VMon Nov 02 15:29:32 +0000 2015
p1992
sg218
Nsg219
Nsg220
(dp1993
g222
Ven
p1994
sg224
Vrecent
p1995
sssg226
g1993
sg227
Nsg228
Nsg31
g1966
sg229
Nsg230
Nsg111
g1991
sg231
I00
sg232
Nsg233
I0
sg234
Nsbag0
(g4
g5
Ntp1996
Rp1997
(dp1998
g9
I00
sg10
Nsg11
I00
sg12
VRanks #1 with over 80% in alert gains today. Click here https://t.co/9Vnnw3s1D8 .. $ICLN $SBSI $FEYE
p1999
sg14
Vhttp://socialadcenter.com
p2000
sg16
I00
sg17
I00
sg18
Nsg19
g0
(g20
g5
Ntp2001
Rp2002
(dp2003
g24
I00
sg25
I00
sg26
I01
sg27
VDDEEF6
p2004
sg29
L3261001351L
sg30
I00
sg31
(dp2005
g33
(dp2006
g35
(lp2007
(dp2008
g33
Vhttp://t.co/8dJZYrRhox
p2009
sg39
(lp2010
I0
aI22
asg41
Vhttp://pennystocksecret.com
p2011
sg43
Vpennystocksecret.com
p2012
sassg45
(dp2013
g35
(lp2014
(dp2015
g33
Vhttp://t.co/UWzH8kOOl9
p2016
sg39
(lp2017
I11
aI33
asg41
Vhttp://PennyStockSecret.com
p2018
sg43
VPennyStockSecret.com
p2019
sasssg48
Vhttps://pbs.twimg.com/profile_images/617517575241531392/vk4GKKpS_normal.jpg
p2020
sg50
(dp2021
g52
I00
sg53
I00
sg54
I01
sg55
I00
sg56
L3261001351L
sg57
Vhttps://abs.twimg.com/images/themes/theme1/bg.png
p2022
sg59
I00
sg60
V333333
p2023
sg62
g2020
sg63
g2004
sg64
g2005
sg65
I5237
sg66
VC0DEED
p2024
sg68
V3261001351
p2025
sg70
VC0DEED
p2026
sg72
I9
sg73
I00
sg74
I-28800
sg75
I17457
sg45
VSign up to http://t.co/UWzH8kOOl9  and get the premiere penny stock newsletter for free! make sure you subscribe today!
p2027
sg77
I12
sg78
VUnited States
p2028
sg80
V0084B4
p2029
sg82
Vhttp://pbs.twimg.com/profile_images/617517575241531392/vk4GKKpS_normal.jpg
p2030
sg84
I00
sg85
I00
sg86
Vhttps://pbs.twimg.com/profile_banners/3261001351/1436062750
p2031
sg88
Vhttp://abs.twimg.com/images/themes/theme1/bg.png
p2032
sg90
Vstockmaster101
p2033
sg92
Ven
p2034
sg94
I00
sg95
I0
sg96
VStockmaster101
p2035
sg98
I00
sg33
Vhttp://t.co/8dJZYrRhox
p2036
sg100
VTue Jun 30 07:41:17 +0000 2015
p2037
sg102
I00
sg103
VPacific Time (US & Canada)
p2038
sg104
I00
sg105
I01
sg106
I00
ssg107
I00
sg108
g2023
sg109
I5237
sg110
g2024
sg111
g2025
sg112
I00
sg113
I9
sg114
I00
sg115
I-28800
sg116
I17457
sg117
g2027
sg119
I12
sg120
g2028
sg121
g2029
sg122
g2030
sg123
I00
sg124
I00
sg125
g2026
sg126
g2031
sg127
g2032
sg128
g2033
sg129
g2034
sg130
I00
sg131
I00
sg132
I0
sg133
g2035
sg134
g2036
sg135
g136
(S'\x07\xdf\x06\x1e\x07)\x11\x00\x00\x00'
p2039
tp2040
Rp2041
sg140
g2022
sg141
g2038
sg142
I00
sg143
I01
sg144
I00
sbsg145
Nsg29
L661185818271178753L
sg146
I0
sg147
VSocial Ad Center
p2042
sg129
Ven
p2043
sg150
g2002
sg135
g136
(S'\x07\xdf\x0b\x02\x0e\x13\x11\x00\x00\x00'
p2044
tp2045
Rp2046
sg50
(dp2047
g155
Nsg156
I00
sg157
g1999
sg158
I00
sg159
Nsg56
L661185818271178753L
sg160
I0
sg161
V<a href="http://socialadcenter.com" rel="nofollow">Social Ad Center</a>
p2048
sg163
I00
sg164
Nsg64
(dp2049
g166
(lp2050
(dp2051
g39
(lp2052
I83
aI88
asg157
VICLN
p2053
sa(dp2054
g39
(lp2055
I89
aI94
asg157
VSBSI
p2056
sa(dp2057
g39
(lp2058
I95
aI100
asg157
VFEYE
p2059
sasg183
(lp2060
sg185
(lp2061
sg35
(lp2062
(dp2063
g33
Vhttps://t.co/9Vnnw3s1D8
p2064
sg39
(lp2065
I56
aI79
asg41
Vhttp://PennyStockSecret.com
p2066
sg43
VPennyStockSecret.com
p2067
sassg208
Nsg209
Nsg210
I0
sg68
V661185818271178753
p2068
sg212
I00
sg213
g2021
sg214
Nsg215
Nsg216
I00
sg92
g2043
sg100
VMon Nov 02 14:19:17 +0000 2015
p2069
sg218
Nsg219
Nsg220
(dp2070
g222
Ven
p2071
sg224
Vrecent
p2072
sssg226
g2070
sg227
Nsg228
Nsg31
g2049
sg229
Nsg230
Nsg111
g2068
sg231
I00
sg232
Nsg233
I0
sg234
Nsbatp2073
Rp2074
(dp2075
S'count'
p2076
I100
sS'completed_in'
p2077
F0.036
sS'_since_id'
p2078
NsS'refresh_url'
p2079
V?since_id=664236276841869313&q=%24ICLN&include_entities=1
p2080
sS'query'
p2081
V%24ICLN
p2082
sS'_max_id'
p2083
NsS'next_results'
p2084
Nsb.