ccopy_reg
_reconstructor
p0
(ctweepy.models
SearchResults
p1
c__builtin__
list
p2
(lp3
g0
(ctweepy.models
Status
p4
c__builtin__
object
p5
Ntp6
Rp7
(dp8
S'favorited'
p9
I00
sS'contributors'
p10
NsS'truncated'
p11
I00
sS'text'
p12
VRT SeekingAlpha: 5 ETF Winners From Q3 Earnings Season https://t.co/oQfvtkrsLM $SBIO $PNQI $JETS $IAI $XSD
p13
sS'source_url'
p14
Vhttp://ifttt.com
p15
sS'possibly_sensitive'
p16
I00
sS'is_quote_status'
p17
I00
sS'in_reply_to_status_id'
p18
NsS'user'
p19
g0
(ctweepy.models
User
p20
g5
Ntp21
Rp22
(dp23
S'follow_request_sent'
p24
I00
sS'has_extended_profile'
p25
I00
sS'profile_use_background_image'
p26
I01
sS'profile_sidebar_fill_color'
p27
VF3F3F3
p28
sS'id'
p29
I9555372
sS'verified'
p30
I00
sS'entities'
p31
(dp32
Vurl
p33
(dp34
Vurls
p35
(lp36
(dp37
g33
Vhttp://t.co/FaJ7fOfLcq
p38
sVindices
p39
(lp40
I0
aI22
asVexpanded_url
p41
Vhttp://www.China-Investment-Journal.com/
p42
sVdisplay_url
p43
VChina-Investment-Journal.com
p44
sassVdescription
p45
(dp46
g35
(lp47
sssS'profile_image_url_https'
p48
Vhttps://pbs.twimg.com/profile_images/651812546626744320/Hhb0m11J_normal.png
p49
sS'_json'
p50
(dp51
Vfollow_request_sent
p52
I00
sVhas_extended_profile
p53
I00
sVprofile_use_background_image
p54
I01
sVdefault_profile_image
p55
I00
sVid
p56
I9555372
sVprofile_background_image_url_https
p57
Vhttps://pbs.twimg.com/profile_background_images/11937436/china_flag.jpg
p58
sVverified
p59
I00
sVprofile_text_color
p60
V333333
p61
sVprofile_image_url_https
p62
g49
sVprofile_sidebar_fill_color
p63
g28
sVentities
p64
g32
sVfollowers_count
p65
I7546
sVprofile_sidebar_border_color
p66
VDFDFDF
p67
sVid_str
p68
V9555372
p69
sVprofile_background_color
p70
VEBEBEB
p71
sVlisted_count
p72
I231
sVis_translation_enabled
p73
I00
sVutc_offset
p74
I28800
sVstatuses_count
p75
I68057
sg45
VAn investor in Hong Kong focusing in China stocks.
p76
sVfriends_count
p77
I6208
sVlocation
p78
VHong Kong
p79
sVprofile_link_color
p80
V990000
p81
sVprofile_image_url
p82
Vhttp://pbs.twimg.com/profile_images/651812546626744320/Hhb0m11J_normal.png
p83
sVfollowing
p84
I00
sVgeo_enabled
p85
I00
sVprofile_banner_url
p86
Vhttps://pbs.twimg.com/profile_banners/9555372/1444239063
p87
sVprofile_background_image_url
p88
Vhttp://pbs.twimg.com/profile_background_images/11937436/china_flag.jpg
p89
sVscreen_name
p90
VChinaInvest
p91
sVlang
p92
Ven
p93
sVprofile_background_tile
p94
I00
sVfavourites_count
p95
I0
sVname
p96
VChina Invest
p97
sVnotifications
p98
I00
sg33
Vhttp://t.co/FaJ7fOfLcq
p99
sVcreated_at
p100
VSat Oct 20 03:17:35 +0000 2007
p101
sVcontributors_enabled
p102
I00
sVtime_zone
p103
VHong Kong
p104
sVprotected
p105
I00
sVdefault_profile
p106
I00
sVis_translator
p107
I00
ssS'contributors_enabled'
p108
I00
sS'profile_text_color'
p109
g61
sS'followers_count'
p110
I7546
sS'profile_sidebar_border_color'
p111
g67
sS'id_str'
p112
g69
sS'default_profile_image'
p113
I00
sS'listed_count'
p114
I231
sS'is_translation_enabled'
p115
I00
sS'utc_offset'
p116
I28800
sS'statuses_count'
p117
I68057
sS'description'
p118
g76
sS'friends_count'
p119
I6208
sS'location'
p120
g79
sS'profile_link_color'
p121
g81
sS'profile_image_url'
p122
g83
sS'notifications'
p123
I00
sS'geo_enabled'
p124
I00
sS'profile_background_color'
p125
g71
sS'profile_banner_url'
p126
g87
sS'profile_background_image_url'
p127
g89
sS'screen_name'
p128
g91
sS'lang'
p129
g93
sS'following'
p130
I00
sS'profile_background_tile'
p131
I00
sS'favourites_count'
p132
I0
sS'name'
p133
g97
sS'url'
p134
g99
sS'created_at'
p135
cdatetime
datetime
p136
(S'\x07\xd7\n\x14\x03\x11#\x00\x00\x00'
p137
tp138
Rp139
sS'profile_background_image_url_https'
p140
g58
sS'time_zone'
p141
g104
sS'protected'
p142
I00
sS'default_profile'
p143
I00
sS'is_translator'
p144
I00
sbsS'geo'
p145
Nsg29
L664334513846272000L
sS'favorite_count'
p146
I0
sS'source'
p147
VIFTTT
p148
sg129
Ven
p149
sS'author'
p150
g22
sg135
g136
(S'\x07\xdf\x0b\x0b\x063\x05\x00\x00\x00'
p151
tp152
Rp153
sg50
(dp154
Vcontributors
p155
NsVtruncated
p156
I00
sVtext
p157
g13
sVis_quote_status
p158
I00
sVin_reply_to_status_id
p159
Nsg56
L664334513846272000L
sVfavorite_count
p160
I0
sVsource
p161
V<a href="http://ifttt.com" rel="nofollow">IFTTT</a>
p162
sVretweeted
p163
I00
sVcoordinates
p164
Nsg64
(dp165
Vsymbols
p166
(lp167
(dp168
g39
(lp169
I79
aI84
asg157
VSBIO
p170
sa(dp171
g39
(lp172
I85
aI90
asg157
VPNQI
p173
sa(dp174
g39
(lp175
I91
aI96
asg157
VJETS
p176
sa(dp177
g39
(lp178
I97
aI101
asg157
VIAI
p179
sa(dp180
g39
(lp181
I102
aI106
asg157
VXSD
p182
sasVuser_mentions
p183
(lp184
sVhashtags
p185
(lp186
sg35
(lp187
(dp188
g33
Vhttps://t.co/oQfvtkrsLM
p189
sg39
(lp190
I55
aI78
asg41
Vhttp://seekingalpha.com/article/3674666-5-etf-winners-from-q3-earnings-season?source=feed_f
p191
sg43
Vseekingalpha.com/article/367466\u2026
p192
sassVin_reply_to_screen_name
p193
NsVin_reply_to_user_id
p194
NsVretweet_count
p195
I0
sg68
V664334513846272000
p196
sVfavorited
p197
I00
sVuser
p198
g51
sVgeo
p199
NsVin_reply_to_user_id_str
p200
NsVpossibly_sensitive
p201
I00
sg92
g149
sg100
VWed Nov 11 06:51:05 +0000 2015
p202
sVin_reply_to_status_id_str
p203
NsVplace
p204
NsVmetadata
p205
(dp206
Viso_language_code
p207
Ven
p208
sVresult_type
p209
Vrecent
p210
sssS'metadata'
p211
g206
sS'coordinates'
p212
NsS'in_reply_to_user_id_str'
p213
Nsg31
g165
sS'in_reply_to_status_id_str'
p214
NsS'in_reply_to_screen_name'
p215
Nsg112
g196
sS'retweeted'
p216
I00
sS'place'
p217
NsS'retweet_count'
p218
I0
sS'in_reply_to_user_id'
p219
Nsbag0
(g4
g5
Ntp220
Rp221
(dp222
g9
I00
sg10
Nsg11
I00
sg12
VRT @SAlphaETF: 5 ETF Winners From Q3 Earnings Season https://t.co/SLDFlMcmml $SBIO $PNQI $JETS $IAI $XSD
p223
sg14
Vhttps://roundteam.co
p224
sg16
I00
sg17
I00
sg18
Nsg19
g0
(g20
g5
Ntp225
Rp226
(dp227
g24
I00
sg25
I00
sg26
I01
sg27
V000000
p228
sg29
L3687838635L
sg30
I00
sg31
(dp229
g33
(dp230
g35
(lp231
(dp232
g33
Vhttp://t.co/bY9BBeJVfs
p233
sg39
(lp234
I0
aI22
asg41
Vhttp://investorama.me.uk/ai
p235
sg43
Vinvestorama.me.uk/ai
p236
sassg45
(dp237
g35
(lp238
sssg48
Vhttps://pbs.twimg.com/profile_images/644564321096306688/I1LFDmg9_normal.png
p239
sg50
(dp240
g52
I00
sg53
I00
sg54
I01
sg55
I00
sg56
L3687838635L
sg57
Vhttps://pbs.twimg.com/profile_background_images/644567538718887936/vTlZy-wf.png
p241
sg59
I00
sg60
V000000
p242
sg62
g239
sg63
g228
sg64
g229
sg65
I398
sg66
V000000
p243
sg68
V3687838635
p244
sg70
V642D8B
p245
sg72
I58
sg73
I00
sg74
I-28800
sg75
I9595
sg45
VAI is a high net worth marketing agency specialising in alternative investments.
p246
sg77
I830
sg78
VLondon, England
p247
sg80
V3B94D9
p248
sg82
Vhttp://pbs.twimg.com/profile_images/644564321096306688/I1LFDmg9_normal.png
p249
sg84
I00
sg85
I00
sg86
Vhttps://pbs.twimg.com/profile_banners/3687838635/1442511751
p250
sg88
Vhttp://pbs.twimg.com/profile_background_images/644567538718887936/vTlZy-wf.png
p251
sg90
VAlt_Invest_Glob
p252
sg92
Ven
p253
sg94
I01
sg95
I38
sg96
VAlt Invest Global
p254
sg98
I00
sg33
Vhttp://t.co/bY9BBeJVfs
p255
sg100
VThu Sep 17 17:30:29 +0000 2015
p256
sg102
I00
sg103
VPacific Time (US & Canada)
p257
sg105
I00
sg106
I00
sg107
I00
ssg108
I00
sg109
g242
sg110
I398
sg111
g243
sg112
g244
sg113
I00
sg114
I58
sg115
I00
sg116
I-28800
sg117
I9595
sg118
g246
sg119
I830
sg120
g247
sg121
g248
sg122
g249
sg123
I00
sg124
I00
sg125
g245
sg126
g250
sg127
g251
sg128
g252
sg129
g253
sg130
I00
sg131
I01
sg132
I38
sg133
g254
sg134
g255
sg135
g136
(S'\x07\xdf\t\x11\x11\x1e\x1d\x00\x00\x00'
p258
tp259
Rp260
sg140
g241
sg141
g257
sg142
I00
sg143
I00
sg144
I00
sbsg145
Nsg29
L664332901799043072L
sg146
I0
sg147
VRoundTeam
p261
sg129
Ven
p262
sS'retweeted_status'
p263
g0
(g4
g5
Ntp264
Rp265
(dp266
g9
I00
sg10
Nsg11
I00
sg12
V5 ETF Winners From Q3 Earnings Season https://t.co/SLDFlMcmml $SBIO $PNQI $JETS $IAI $XSD
p267
sg14
Vhttp://seekingalpha.com
p268
sg16
I00
sg17
I00
sg18
Nsg19
g0
(g20
g5
Ntp269
Rp270
(dp271
g24
I00
sg25
I00
sg26
I00
sg27
VDDEEF6
p272
sg29
I155300737
sg30
I00
sg31
(dp273
g33
(dp274
g35
(lp275
(dp276
g33
Vhttp://t.co/8oDlqkaN1V
p277
sg39
(lp278
I0
aI22
asg41
Vhttp://seekingalpha.com/analysis/etf-portfolio-strategy
p279
sg43
Vseekingalpha.com/analysis/etf-p\u2026
p280
sassg45
(dp281
g35
(lp282
(dp283
g33
Vhttps://t.co/nzLmsIKexy
p284
sg39
(lp285
I78
aI101
asg41
Vhttps://twitter.com/SeekingAlpha/following
p286
sg43
Vtwitter.com/SeekingAlpha/f\u2026
p287
sasssg48
Vhttps://pbs.twimg.com/profile_images/562234216495063040/4v9o-0Qi_normal.png
p288
sg50
(dp289
g52
I00
sg53
I00
sg54
I00
sg55
I00
sg56
I155300737
sg57
Vhttps://pbs.twimg.com/profile_background_images/378800000133443699/wBo9AOrj.png
p290
sg59
I00
sg60
V333333
p291
sg62
g288
sg63
g272
sg64
g273
sg65
I1825
sg66
VFFFFFF
p292
sg68
V155300737
p293
sg70
VC0DEED
p294
sg72
I87
sg73
I00
sg74
I-18000
sg75
I4561
sg45
VSeeking Alpha's ETF articles. See all options for Seeking Alpha on Twitter at https://t.co/nzLmsIKexy
p295
sg77
I32
sg78
V
p296
sg80
V360000
p297
sg82
Vhttp://pbs.twimg.com/profile_images/562234216495063040/4v9o-0Qi_normal.png
p298
sg84
I00
sg85
I00
sg88
Vhttp://pbs.twimg.com/profile_background_images/378800000133443699/wBo9AOrj.png
p299
sg90
VSAlphaETF
p300
sg92
Ven
p301
sg94
I00
sg95
I0
sg96
VETF Investing
p302
sg98
I00
sg33
Vhttp://t.co/8oDlqkaN1V
p303
sg100
VSun Jun 13 19:03:19 +0000 2010
p304
sg102
I00
sg103
VEastern Time (US & Canada)
p305
sg105
I00
sg106
I00
sg107
I00
ssg108
I00
sg109
g291
sg110
I1825
sg111
g292
sg112
g293
sg113
I00
sg114
I87
sg115
I00
sg116
I-18000
sg117
I4561
sg118
g295
sg119
I32
sg120
g296
sg121
g297
sg122
g298
sg123
I00
sg124
I00
sg125
g294
sg127
g299
sg128
g300
sg129
g301
sg130
I00
sg131
I00
sg132
I0
sg133
g302
sg134
g303
sg135
g136
(S'\x07\xda\x06\r\x13\x03\x13\x00\x00\x00'
p306
tp307
Rp308
sg140
g290
sg141
g305
sg142
I00
sg143
I00
sg144
I00
sbsg145
Nsg29
L664332207490662401L
sg146
I1
sg147
VSeeking Alpha
p309
sg129
Ven
p310
sg150
g270
sg135
g136
(S'\x07\xdf\x0b\x0b\x06)7\x00\x00\x00'
p311
tp312
Rp313
sg50
(dp314
g155
Nsg156
I00
sg157
g267
sg158
I00
sg159
Nsg56
L664332207490662401L
sg160
I1
sg161
V<a href="http://seekingalpha.com" rel="nofollow">Seeking Alpha</a>
p315
sg163
I00
sg164
Nsg64
(dp316
g166
(lp317
(dp318
g39
(lp319
I62
aI67
asg157
VSBIO
p320
sa(dp321
g39
(lp322
I68
aI73
asg157
VPNQI
p323
sa(dp324
g39
(lp325
I74
aI79
asg157
VJETS
p326
sa(dp327
g39
(lp328
I80
aI84
asg157
VIAI
p329
sa(dp330
g39
(lp331
I85
aI89
asg157
VXSD
p332
sasg183
(lp333
sg185
(lp334
sg35
(lp335
(dp336
g33
Vhttps://t.co/SLDFlMcmml
p337
sg39
(lp338
I38
aI61
asg41
Vhttp://seekingalpha.com/article/3674666-5-etf-winners-from-q3-earnings-season?source=twitter_salphaetf
p339
sg43
Vseekingalpha.com/article/367466\u2026
p340
sassg193
Nsg194
Nsg195
I1
sg68
V664332207490662401
p341
sg197
I00
sg198
g289
sg199
Nsg200
Nsg201
I00
sg92
g310
sg100
VWed Nov 11 06:41:55 +0000 2015
p342
sg203
Nsg204
Nsg205
(dp343
g207
Ven
p344
sg209
Vrecent
p345
sssg211
g343
sg212
Nsg213
Nsg31
g316
sg214
Nsg215
Nsg112
g341
sg216
I00
sg217
Nsg218
I1
sg219
Nsbsg150
g226
sg135
g136
(S'\x07\xdf\x0b\x0b\x06,)\x00\x00\x00'
p346
tp347
Rp348
sg50
(dp349
g155
Nsg156
I00
sg157
g223
sg158
I00
sg159
Nsg56
L664332901799043072L
sg160
I0
sg161
V<a href="https://roundteam.co" rel="nofollow">RoundTeam</a>
p350
sg163
I00
sg164
Nsg64
(dp351
g166
(lp352
(dp353
g39
(lp354
I77
aI82
asg157
VSBIO
p355
sa(dp356
g39
(lp357
I83
aI88
asg157
VPNQI
p358
sa(dp359
g39
(lp360
I89
aI94
asg157
VJETS
p361
sa(dp362
g39
(lp363
I95
aI99
asg157
VIAI
p364
sa(dp365
g39
(lp366
I100
aI104
asg157
VXSD
p367
sasg183
(lp368
(dp369
g56
I155300737
sg39
(lp370
I3
aI13
asg68
V155300737
p371
sg90
VSAlphaETF
p372
sg96
VETF Investing
p373
sasg185
(lp374
sg35
(lp375
(dp376
g33
Vhttps://t.co/SLDFlMcmml
p377
sg39
(lp378
I53
aI76
asg41
Vhttp://seekingalpha.com/article/3674666-5-etf-winners-from-q3-earnings-season?source=twitter_salphaetf
p379
sg43
Vseekingalpha.com/article/367466\u2026
p380
sassg193
Nsg194
Nsg195
I1
sg68
V664332901799043072
p381
sg197
I00
sVretweeted_status
p382
g314
sg198
g240
sg199
Nsg200
Nsg201
I00
sg92
g262
sg100
VWed Nov 11 06:44:41 +0000 2015
p383
sg203
Nsg204
Nsg205
(dp384
g207
Ven
p385
sg209
Vrecent
p386
sssg211
g384
sg212
Nsg213
Nsg31
g351
sg214
Nsg215
Nsg112
g381
sg216
I00
sg217
Nsg218
I1
sg219
Nsbag0
(g4
g5
Ntp387
Rp388
(dp389
g9
I00
sg10
Nsg11
I00
sg12
V5 ETF Winners From Q3 Earnings Season https://t.co/UKO5MteX82 $SBIO $PNQI $JETS $IAI $XSD
p390
sg14
Vhttp://seekingalpha.com
p391
sg16
I00
sg17
I00
sg18
Nsg19
g0
(g20
g5
Ntp392
Rp393
(dp394
g24
I00
sg25
I00
sg26
I01
sg27
VDDEEF6
p395
sg29
I207441033
sg30
I00
sg31
(dp396
g45
(dp397
g35
(lp398
sssg48
Vhttps://pbs.twimg.com/profile_images/628450795533414401/xwE4BfP__normal.jpg
p399
sg50
(dp400
g52
I00
sg53
I00
sg54
I01
sg55
I00
sg56
I207441033
sg57
Vhttps://abs.twimg.com/images/themes/theme1/bg.png
p401
sg59
I00
sg60
V333333
p402
sg62
g399
sg63
g395
sg64
g396
sg65
I135
sg66
VC0DEED
p403
sg68
V207441033
p404
sg70
VC0DEED
p405
sg72
I30
sg73
I01
sg74
I7200
sg75
I30087
sg45
g296
sg77
I1
sg78
g296
sg80
V0084B4
p406
sg82
Vhttp://pbs.twimg.com/profile_images/628450795533414401/xwE4BfP__normal.jpg
p407
sg84
I00
sg85
I00
sg86
Vhttps://pbs.twimg.com/profile_banners/207441033/1438669732
p408
sg88
Vhttp://abs.twimg.com/images/themes/theme1/bg.png
p409
sg90
VSA_FACTSET
p410
sg92
Ven
p411
sg94
I00
sg95
I0
sg96
VSeeking Alpha
p412
sg98
I00
sg33
Nsg100
VMon Oct 25 10:13:55 +0000 2010
p413
sg102
I00
sg103
VBucharest
p414
sg105
I00
sg106
I01
sg107
I00
ssg108
I00
sg109
g402
sg110
I135
sg111
g403
sg112
g404
sg113
I00
sg114
I30
sg115
I01
sg116
I7200
sg117
I30087
sg118
g296
sg119
I1
sg120
g296
sg121
g406
sg122
g407
sg123
I00
sg124
I00
sg125
g405
sg126
g408
sg127
g409
sg128
g410
sg129
g411
sg130
I00
sg131
I00
sg132
I0
sg133
g412
sg134
Nsg135
g136
(S'\x07\xda\n\x19\n\r7\x00\x00\x00'
p415
tp416
Rp417
sg140
g401
sg141
g414
sg142
I00
sg143
I01
sg144
I00
sbsg145
Nsg29
L664332208748937216L
sg146
I0
sg147
VSeeking Alpha
p418
sg129
Ven
p419
sg150
g393
sg135
g136
(S'\x07\xdf\x0b\x0b\x06)7\x00\x00\x00'
p420
tp421
Rp422
sg50
(dp423
g155
Nsg156
I00
sg157
g390
sg158
I00
sg159
Nsg56
L664332208748937216L
sg160
I0
sg161
V<a href="http://seekingalpha.com" rel="nofollow">Seeking Alpha</a>
p424
sg163
I00
sg164
Nsg64
(dp425
g166
(lp426
(dp427
g39
(lp428
I62
aI67
asg157
VSBIO
p429
sa(dp430
g39
(lp431
I68
aI73
asg157
VPNQI
p432
sa(dp433
g39
(lp434
I74
aI79
asg157
VJETS
p435
sa(dp436
g39
(lp437
I80
aI84
asg157
VIAI
p438
sa(dp439
g39
(lp440
I85
aI89
asg157
VXSD
p441
sasg183
(lp442
sg185
(lp443
sg35
(lp444
(dp445
g33
Vhttps://t.co/UKO5MteX82
p446
sg39
(lp447
I38
aI61
asg41
Vhttp://seekingalpha.com/article/3674666-5-etf-winners-from-q3-earnings-season?source=twitter_sa_factset
p448
sg43
Vseekingalpha.com/article/367466\u2026
p449
sassg193
Nsg194
Nsg195
I0
sg68
V664332208748937216
p450
sg197
I00
sg198
g400
sg199
Nsg200
Nsg201
I00
sg92
g419
sg100
VWed Nov 11 06:41:55 +0000 2015
p451
sg203
Nsg204
Nsg205
(dp452
g207
Ven
p453
sg209
Vrecent
p454
sssg211
g452
sg212
Nsg213
Nsg31
g425
sg214
Nsg215
Nsg112
g450
sg216
I00
sg217
Nsg218
I0
sg219
Nsbag0
(g4
g5
Ntp455
Rp456
(dp457
g9
I00
sg10
Nsg11
I00
sg12
V5 ETF Winners From Q3 Earnings Season https://t.co/SLDFlMcmml $SBIO $PNQI $JETS $IAI $XSD
p458
sg14
Vhttp://seekingalpha.com
p459
sg16
I00
sg17
I00
sg18
Nsg19
g0
(g20
g5
Ntp460
Rp461
(dp462
g24
I00
sg25
I00
sg26
I00
sg27
VDDEEF6
p463
sg29
I155300737
sg30
I00
sg31
(dp464
g33
(dp465
g35
(lp466
(dp467
g33
Vhttp://t.co/8oDlqkaN1V
p468
sg39
(lp469
I0
aI22
asg41
Vhttp://seekingalpha.com/analysis/etf-portfolio-strategy
p470
sg43
Vseekingalpha.com/analysis/etf-p\u2026
p471
sassg45
(dp472
g35
(lp473
(dp474
g33
Vhttps://t.co/nzLmsIKexy
p475
sg39
(lp476
I78
aI101
asg41
Vhttps://twitter.com/SeekingAlpha/following
p477
sg43
Vtwitter.com/SeekingAlpha/f\u2026
p478
sasssg48
Vhttps://pbs.twimg.com/profile_images/562234216495063040/4v9o-0Qi_normal.png
p479
sg50
(dp480
g52
I00
sg53
I00
sg54
I00
sg55
I00
sg56
I155300737
sg57
Vhttps://pbs.twimg.com/profile_background_images/378800000133443699/wBo9AOrj.png
p481
sg59
I00
sg60
V333333
p482
sg62
g479
sg63
g463
sg64
g464
sg65
I1825
sg66
VFFFFFF
p483
sg68
V155300737
p484
sg70
VC0DEED
p485
sg72
I87
sg73
I00
sg74
I-18000
sg75
I4561
sg45
VSeeking Alpha's ETF articles. See all options for Seeking Alpha on Twitter at https://t.co/nzLmsIKexy
p486
sg77
I32
sg78
g296
sg80
V360000
p487
sg82
Vhttp://pbs.twimg.com/profile_images/562234216495063040/4v9o-0Qi_normal.png
p488
sg84
I00
sg85
I00
sg88
Vhttp://pbs.twimg.com/profile_background_images/378800000133443699/wBo9AOrj.png
p489
sg90
VSAlphaETF
p490
sg92
Ven
p491
sg94
I00
sg95
I0
sg96
VETF Investing
p492
sg98
I00
sg33
Vhttp://t.co/8oDlqkaN1V
p493
sg100
VSun Jun 13 19:03:19 +0000 2010
p494
sg102
I00
sg103
VEastern Time (US & Canada)
p495
sg105
I00
sg106
I00
sg107
I00
ssg108
I00
sg109
g482
sg110
I1825
sg111
g483
sg112
g484
sg113
I00
sg114
I87
sg115
I00
sg116
I-18000
sg117
I4561
sg118
g486
sg119
I32
sg120
g296
sg121
g487
sg122
g488
sg123
I00
sg124
I00
sg125
g485
sg127
g489
sg128
g490
sg129
g491
sg130
I00
sg131
I00
sg132
I0
sg133
g492
sg134
g493
sg135
g136
(S'\x07\xda\x06\r\x13\x03\x13\x00\x00\x00'
p496
tp497
Rp498
sg140
g481
sg141
g495
sg142
I00
sg143
I00
sg144
I00
sbsg145
Nsg29
L664332207490662401L
sg146
I1
sg147
VSeeking Alpha
p499
sg129
Ven
p500
sg150
g461
sg135
g136
(S'\x07\xdf\x0b\x0b\x06)7\x00\x00\x00'
p501
tp502
Rp503
sg50
(dp504
g155
Nsg156
I00
sg157
g458
sg158
I00
sg159
Nsg56
L664332207490662401L
sg160
I1
sg161
V<a href="http://seekingalpha.com" rel="nofollow">Seeking Alpha</a>
p505
sg163
I00
sg164
Nsg64
(dp506
g166
(lp507
(dp508
g39
(lp509
I62
aI67
asg157
VSBIO
p510
sa(dp511
g39
(lp512
I68
aI73
asg157
VPNQI
p513
sa(dp514
g39
(lp515
I74
aI79
asg157
VJETS
p516
sa(dp517
g39
(lp518
I80
aI84
asg157
VIAI
p519
sa(dp520
g39
(lp521
I85
aI89
asg157
VXSD
p522
sasg183
(lp523
sg185
(lp524
sg35
(lp525
(dp526
g33
Vhttps://t.co/SLDFlMcmml
p527
sg39
(lp528
I38
aI61
asg41
Vhttp://seekingalpha.com/article/3674666-5-etf-winners-from-q3-earnings-season?source=twitter_salphaetf
p529
sg43
Vseekingalpha.com/article/367466\u2026
p530
sassg193
Nsg194
Nsg195
I1
sg68
V664332207490662401
p531
sg197
I00
sg198
g480
sg199
Nsg200
Nsg201
I00
sg92
g500
sg100
VWed Nov 11 06:41:55 +0000 2015
p532
sg203
Nsg204
Nsg205
(dp533
g207
Ven
p534
sg209
Vrecent
p535
sssg211
g533
sg212
Nsg213
Nsg31
g506
sg214
Nsg215
Nsg112
g531
sg216
I00
sg217
Nsg218
I1
sg219
Nsbag0
(g4
g5
Ntp536
Rp537
(dp538
g9
I00
sg10
Nsg11
I00
sg12
V5 ETF Winners From Q3 Earnings Season https://t.co/lXl2RRQtaC $SBIO $PNQI $JETS $IAI $XSD
p539
sg14
Vhttp://seekingalpha.com
p540
sg16
I00
sg17
I00
sg18
Nsg19
g0
(g20
g5
Ntp541
Rp542
(dp543
g24
I00
sg25
I00
sg26
I01
sg27
VDDEEF6
p544
sg29
I23059499
sg30
I00
sg31
(dp545
g33
(dp546
g35
(lp547
(dp548
g33
Vhttp://t.co/VicXVZ0dsp
p549
sg39
(lp550
I0
aI22
asg41
Vhttp://SeekingAlpha.com
p551
sg43
VSeekingAlpha.com
p552
sassg45
(dp553
g35
(lp554
(dp555
g33
Vhttps://t.co/nzLmsIKexy
p556
sg39
(lp557
I105
aI128
asg41
Vhttps://twitter.com/SeekingAlpha/following
p558
sg43
Vtwitter.com/SeekingAlpha/f\u2026
p559
sasssg48
Vhttps://pbs.twimg.com/profile_images/534299535552421888/eHacq8EQ_normal.png
p560
sg50
(dp561
g52
I00
sg53
I00
sg54
I01
sg55
I00
sg56
I23059499
sg57
Vhttps://pbs.twimg.com/profile_background_images/436400133916225536/dxS1wkvd.png
p562
sg59
I00
sg60
V333333
p563
sg62
g560
sg63
g544
sg64
g545
sg65
I80455
sg66
VFFFFFF
p564
sg68
V23059499
p565
sg70
VD9D9D9
p566
sg72
I2816
sg73
I00
sg74
I-18000
sg75
I357166
sg45
VContributor articles from Seeking Alpha, #1 in crowdsourced equity research. See all SA Twitter feeds at https://t.co/nzLmsIKexy
p567
sg77
I223
sg78
g296
sg80
V4A0C0D
p568
sg82
Vhttp://pbs.twimg.com/profile_images/534299535552421888/eHacq8EQ_normal.png
p569
sg84
I00
sg85
I00
sg86
Vhttps://pbs.twimg.com/profile_banners/23059499/1398763809
p570
sg88
Vhttp://pbs.twimg.com/profile_background_images/436400133916225536/dxS1wkvd.png
p571
sg90
VSeekingAlpha
p572
sg92
Ven
p573
sg94
I00
sg95
I15
sg96
VSeeking Alpha
p574
sg98
I00
sg33
Vhttp://t.co/VicXVZ0dsp
p575
sg100
VFri Mar 06 12:52:56 +0000 2009
p576
sg102
I00
sg103
VEastern Time (US & Canada)
p577
sg105
I00
sg106
I00
sg107
I00
ssg108
I00
sg109
g563
sg110
I80455
sg111
g564
sg112
g565
sg113
I00
sg114
I2816
sg115
I00
sg116
I-18000
sg117
I357166
sg118
g567
sg119
I223
sg120
g296
sg121
g568
sg122
g569
sg123
I00
sg124
I00
sg125
g566
sg126
g570
sg127
g571
sg128
g572
sg129
g573
sg130
I00
sg131
I00
sg132
I15
sg133
g574
sg134
g575
sg135
g136
(S'\x07\xd9\x03\x06\x0c48\x00\x00\x00'
p578
tp579
Rp580
sg140
g562
sg141
g577
sg142
I00
sg143
I00
sg144
I00
sbsg145
Nsg29
L664332205833875456L
sg146
I0
sg147
VSeeking Alpha
p581
sg129
Ven
p582
sg150
g542
sg135
g136
(S'\x07\xdf\x0b\x0b\x06)7\x00\x00\x00'
p583
tp584
Rp585
sg50
(dp586
g155
Nsg156
I00
sg157
g539
sg158
I00
sg159
Nsg56
L664332205833875456L
sg160
I0
sg161
V<a href="http://seekingalpha.com" rel="nofollow">Seeking Alpha</a>
p587
sg163
I00
sg164
Nsg64
(dp588
g166
(lp589
(dp590
g39
(lp591
I62
aI67
asg157
VSBIO
p592
sa(dp593
g39
(lp594
I68
aI73
asg157
VPNQI
p595
sa(dp596
g39
(lp597
I74
aI79
asg157
VJETS
p598
sa(dp599
g39
(lp600
I80
aI84
asg157
VIAI
p601
sa(dp602
g39
(lp603
I85
aI89
asg157
VXSD
p604
sasg183
(lp605
sg185
(lp606
sg35
(lp607
(dp608
g33
Vhttps://t.co/lXl2RRQtaC
p609
sg39
(lp610
I38
aI61
asg41
Vhttp://seekingalpha.com/article/3674666-5-etf-winners-from-q3-earnings-season?source=feed_f
p611
sg43
Vseekingalpha.com/article/367466\u2026
p612
sassg193
Nsg194
Nsg195
I0
sg68
V664332205833875456
p613
sg197
I00
sg198
g561
sg199
Nsg200
Nsg201
I00
sg92
g582
sg100
VWed Nov 11 06:41:55 +0000 2015
p614
sg203
Nsg204
Nsg205
(dp615
g207
Ven
p616
sg209
Vrecent
p617
sssg211
g615
sg212
Nsg213
Nsg31
g588
sg214
Nsg215
Nsg112
g613
sg216
I00
sg217
Nsg218
I0
sg219
Nsbag0
(g4
g5
Ntp618
Rp619
(dp620
g9
I00
sg10
Nsg11
I00
sg12
V5 ETF Winners from Q3 Earnings Season $PNQI $IAI $XSD $SBIO $JETS https://t.co/MXs4XcvaBN
p621
sg14
Vhttp://www.talkmarkets.com
p622
sg16
I00
sg17
I00
sg18
Nsg19
g0
(g20
g5
Ntp623
Rp624
(dp625
g24
I00
sg25
I00
sg26
I01
sg27
VC0DFEC
p626
sg29
I1001192245
sg30
I00
sg31
(dp627
g33
(dp628
g35
(lp629
(dp630
g33
Vhttp://t.co/iL0trK2OzM
p631
sg39
(lp632
I0
aI22
asg41
Vhttp://www.TalkMarkets.com
p633
sg43
VTalkMarkets.com
p634
sassg45
(dp635
g35
(lp636
sssg48
Vhttps://pbs.twimg.com/profile_images/378800000327180850/4f6d3ae1729ccc9d1d0414cb5359ed7a_normal.png
p637
sg50
(dp638
g52
I00
sg53
I00
sg54
I01
sg55
I00
sg56
I1001192245
sg57
Vhttps://abs.twimg.com/images/themes/theme15/bg.png
p639
sg59
I00
sg60
V333333
p640
sg62
g637
sg63
g626
sg64
g627
sg65
I1197
sg66
VA8C7F7
p641
sg68
V1001192245
p642
sg70
V022330
p643
sg72
I254
sg73
I00
sg74
I-18000
sg75
I53881
sg45
VFinancial content that\u2019s customized, optimized, socialized.
p644
sg77
I429
sg78
g296
sg80
V0084B4
p645
sg82
Vhttp://pbs.twimg.com/profile_images/378800000327180850/4f6d3ae1729ccc9d1d0414cb5359ed7a_normal.png
p646
sg84
I00
sg85
I01
sg86
Vhttps://pbs.twimg.com/profile_banners/1001192245/1418426010
p647
sg88
Vhttp://abs.twimg.com/images/themes/theme15/bg.png
p648
sg90
VTalkMarkets
p649
sg92
Ven
p650
sg94
I00
sg95
I168
sg96
VTalkMarkets
p651
sg98
I00
sg33
Vhttp://t.co/iL0trK2OzM
p652
sg100
VMon Dec 10 07:55:31 +0000 2012
p653
sg102
I00
sg103
VEastern Time (US & Canada)
p654
sg105
I00
sg106
I00
sg107
I00
ssg108
I00
sg109
g640
sg110
I1197
sg111
g641
sg112
g642
sg113
I00
sg114
I254
sg115
I00
sg116
I-18000
sg117
I53881
sg118
g644
sg119
I429
sg120
g296
sg121
g645
sg122
g646
sg123
I00
sg124
I01
sg125
g643
sg126
g647
sg127
g648
sg128
g649
sg129
g650
sg130
I00
sg131
I00
sg132
I168
sg133
g651
sg134
g652
sg135
g136
(S'\x07\xdc\x0c\n\x077\x1f\x00\x00\x00'
p655
tp656
Rp657
sg140
g639
sg141
g654
sg142
I00
sg143
I00
sg144
I00
sbsg145
Nsg29
L664323942639927296L
sg146
I0
sg147
VTalkMarkets
p658
sg129
Ven
p659
sg150
g624
sg135
g136
(S'\x07\xdf\x0b\x0b\x06\t\x05\x00\x00\x00'
p660
tp661
Rp662
sg50
(dp663
g155
Nsg156
I00
sg157
g621
sg158
I00
sg159
Nsg56
L664323942639927296L
sg160
I0
sg161
V<a href="http://www.talkmarkets.com" rel="nofollow">TalkMarkets</a>
p664
sg163
I00
sg164
Nsg64
(dp665
g166
(lp666
(dp667
g39
(lp668
I38
aI43
asg157
VPNQI
p669
sa(dp670
g39
(lp671
I44
aI48
asg157
VIAI
p672
sa(dp673
g39
(lp674
I49
aI53
asg157
VXSD
p675
sa(dp676
g39
(lp677
I54
aI59
asg157
VSBIO
p678
sa(dp679
g39
(lp680
I60
aI65
asg157
VJETS
p681
sasg183
(lp682
sg185
(lp683
sg35
(lp684
(dp685
g33
Vhttps://t.co/MXs4XcvaBN
p686
sg39
(lp687
I66
aI89
asg41
Vhttp://goo.gl/KkaWGk
p688
sg43
Vgoo.gl/KkaWGk
p689
sassg193
Nsg194
Nsg195
I0
sg68
V664323942639927296
p690
sg197
I00
sg198
g638
sg199
Nsg200
Nsg201
I00
sg92
g659
sg100
VWed Nov 11 06:09:05 +0000 2015
p691
sg203
Nsg204
Nsg205
(dp692
g207
Ven
p693
sg209
Vrecent
p694
sssg211
g692
sg212
Nsg213
Nsg31
g665
sg214
Nsg215
Nsg112
g690
sg216
I00
sg217
Nsg218
I0
sg219
Nsbag0
(g4
g5
Ntp695
Rp696
(dp697
g9
I00
sg10
Nsg11
I00
sg12
V5 ETF Winners from Q3 Earnings Season $PNQI $IAI $XSD $SBIO $JETS https://t.co/esY5zWy8JK
p698
sg14
Vhttp://www.talkmarkets.com
p699
sg16
I00
sg17
I00
sg18
Nsg19
g0
(g20
g5
Ntp700
Rp701
(dp702
g24
I00
sg25
I00
sg26
I01
sg27
VDDEEF6
p703
sg29
L2795789015L
sg30
I00
sg31
(dp704
g33
(dp705
g35
(lp706
(dp707
g33
Vhttp://t.co/jrQKD4iteR
p708
sg39
(lp709
I0
aI22
asg41
Vhttp://www.TalkMarkets.com
p710
sg43
VTalkMarkets.com
p711
sassg45
(dp712
g35
(lp713
sssg48
Vhttps://pbs.twimg.com/profile_images/517011224236523520/l_22XWCv_normal.png
p714
sg50
(dp715
g52
I00
sg53
I00
sg54
I01
sg55
I00
sg56
L2795789015L
sg57
Vhttps://abs.twimg.com/images/themes/theme1/bg.png
p716
sg59
I00
sg60
V333333
p717
sg62
g714
sg63
g703
sg64
g704
sg65
I206
sg66
VC0DEED
p718
sg68
V2795789015
p719
sg70
VC0DEED
p720
sg72
I128
sg73
I00
sg74
Nsg75
I16879
sg45
VA recap of our day's most popular headlines.  Check us out for a customized reading experience covering financial & business news, opinion & analysis.
p721
sg77
I13
sg78
g296
sg80
V0084B4
p722
sg82
Vhttp://pbs.twimg.com/profile_images/517011224236523520/l_22XWCv_normal.png
p723
sg84
I00
sg85
I00
sg86
Vhttps://pbs.twimg.com/profile_banners/2795789015/1412100067
p724
sg88
Vhttp://abs.twimg.com/images/themes/theme1/bg.png
p725
sg90
VMarketsRecap
p726
sg92
Ven
p727
sg94
I00
sg95
I5
sg96
VTalkMarkets Recap
p728
sg98
I00
sg33
Vhttp://t.co/jrQKD4iteR
p729
sg100
VTue Sep 30 18:00:06 +0000 2014
p730
sg102
I00
sg103
Nsg105
I00
sg106
I01
sg107
I00
ssg108
I00
sg109
g717
sg110
I206
sg111
g718
sg112
g719
sg113
I00
sg114
I128
sg115
I00
sg116
Nsg117
I16879
sg118
g721
sg119
I13
sg120
g296
sg121
g722
sg122
g723
sg123
I00
sg124
I00
sg125
g720
sg126
g724
sg127
g725
sg128
g726
sg129
g727
sg130
I00
sg131
I00
sg132
I5
sg133
g728
sg134
g729
sg135
g136
(S'\x07\xde\t\x1e\x12\x00\x06\x00\x00\x00'
p731
tp732
Rp733
sg140
g716
sg141
Nsg142
I00
sg143
I01
sg144
I00
sbsg145
Nsg29
L664233340585799681L
sg146
I0
sg147
VTalkMarkets
p734
sg129
Ven
p735
sg150
g701
sg135
g136
(S'\x07\xdf\x0b\x0b\x00\t\x03\x00\x00\x00'
p736
tp737
Rp738
sg50
(dp739
g155
Nsg156
I00
sg157
g698
sg158
I00
sg159
Nsg56
L664233340585799681L
sg160
I0
sg161
V<a href="http://www.talkmarkets.com" rel="nofollow">TalkMarkets</a>
p740
sg163
I00
sg164
Nsg64
(dp741
g166
(lp742
(dp743
g39
(lp744
I38
aI43
asg157
VPNQI
p745
sa(dp746
g39
(lp747
I44
aI48
asg157
VIAI
p748
sa(dp749
g39
(lp750
I49
aI53
asg157
VXSD
p751
sa(dp752
g39
(lp753
I54
aI59
asg157
VSBIO
p754
sa(dp755
g39
(lp756
I60
aI65
asg157
VJETS
p757
sasg183
(lp758
sg185
(lp759
sg35
(lp760
(dp761
g33
Vhttps://t.co/esY5zWy8JK
p762
sg39
(lp763
I66
aI89
asg41
Vhttp://goo.gl/KkaWGk
p764
sg43
Vgoo.gl/KkaWGk
p765
sassg193
Nsg194
Nsg195
I0
sg68
V664233340585799681
p766
sg197
I00
sg198
g715
sg199
Nsg200
Nsg201
I00
sg92
g735
sg100
VWed Nov 11 00:09:03 +0000 2015
p767
sg203
Nsg204
Nsg205
(dp768
g207
Ven
p769
sg209
Vrecent
p770
sssg211
g768
sg212
Nsg213
Nsg31
g741
sg214
Nsg215
Nsg112
g766
sg216
I00
sg217
Nsg218
I0
sg219
Nsbag0
(g4
g5
Ntp771
Rp772
(dp773
g9
I00
sg10
Nsg11
I00
sg12
V5 ETF Winners from Q3 Earnings Season $PNQI $IAI $XSD $SBIO $JETS https://t.co/MXs4XcvaBN
p774
sg14
Vhttp://www.talkmarkets.com
p775
sg16
I00
sg17
I00
sg18
Nsg19
g0
(g20
g5
Ntp776
Rp777
(dp778
g24
I00
sg25
I00
sg26
I01
sg27
VC0DFEC
p779
sg29
I1001192245
sg30
I00
sg31
(dp780
g33
(dp781
g35
(lp782
(dp783
g33
Vhttp://t.co/iL0trK2OzM
p784
sg39
(lp785
I0
aI22
asg41
Vhttp://www.TalkMarkets.com
p786
sg43
VTalkMarkets.com
p787
sassg45
(dp788
g35
(lp789
sssg48
Vhttps://pbs.twimg.com/profile_images/378800000327180850/4f6d3ae1729ccc9d1d0414cb5359ed7a_normal.png
p790
sg50
(dp791
g52
I00
sg53
I00
sg54
I01
sg55
I00
sg56
I1001192245
sg57
Vhttps://abs.twimg.com/images/themes/theme15/bg.png
p792
sg59
I00
sg60
V333333
p793
sg62
g790
sg63
g779
sg64
g780
sg65
I1197
sg66
VA8C7F7
p794
sg68
V1001192245
p795
sg70
V022330
p796
sg72
I254
sg73
I00
sg74
I-18000
sg75
I53881
sg45
VFinancial content that\u2019s customized, optimized, socialized.
p797
sg77
I429
sg78
g296
sg80
V0084B4
p798
sg82
Vhttp://pbs.twimg.com/profile_images/378800000327180850/4f6d3ae1729ccc9d1d0414cb5359ed7a_normal.png
p799
sg84
I00
sg85
I01
sg86
Vhttps://pbs.twimg.com/profile_banners/1001192245/1418426010
p800
sg88
Vhttp://abs.twimg.com/images/themes/theme15/bg.png
p801
sg90
VTalkMarkets
p802
sg92
Ven
p803
sg94
I00
sg95
I168
sg96
VTalkMarkets
p804
sg98
I00
sg33
Vhttp://t.co/iL0trK2OzM
p805
sg100
VMon Dec 10 07:55:31 +0000 2012
p806
sg102
I00
sg103
VEastern Time (US & Canada)
p807
sg105
I00
sg106
I00
sg107
I00
ssg108
I00
sg109
g793
sg110
I1197
sg111
g794
sg112
g795
sg113
I00
sg114
I254
sg115
I00
sg116
I-18000
sg117
I53881
sg118
g797
sg119
I429
sg120
g296
sg121
g798
sg122
g799
sg123
I00
sg124
I01
sg125
g796
sg126
g800
sg127
g801
sg128
g802
sg129
g803
sg130
I00
sg131
I00
sg132
I168
sg133
g804
sg134
g805
sg135
g136
(S'\x07\xdc\x0c\n\x077\x1f\x00\x00\x00'
p808
tp809
Rp810
sg140
g792
sg141
g807
sg142
I00
sg143
I00
sg144
I00
sbsg145
Nsg29
L664128060346802176L
sg146
I0
sg147
VTalkMarkets
p811
sg129
Ven
p812
sg150
g777
sg135
g136
(S'\x07\xdf\x0b\n\x11\n+\x00\x00\x00'
p813
tp814
Rp815
sg50
(dp816
g155
Nsg156
I00
sg157
g774
sg158
I00
sg159
Nsg56
L664128060346802176L
sg160
I0
sg161
V<a href="http://www.talkmarkets.com" rel="nofollow">TalkMarkets</a>
p817
sg163
I00
sg164
Nsg64
(dp818
g166
(lp819
(dp820
g39
(lp821
I38
aI43
asg157
VPNQI
p822
sa(dp823
g39
(lp824
I44
aI48
asg157
VIAI
p825
sa(dp826
g39
(lp827
I49
aI53
asg157
VXSD
p828
sa(dp829
g39
(lp830
I54
aI59
asg157
VSBIO
p831
sa(dp832
g39
(lp833
I60
aI65
asg157
VJETS
p834
sasg183
(lp835
sg185
(lp836
sg35
(lp837
(dp838
g33
Vhttps://t.co/MXs4XcvaBN
p839
sg39
(lp840
I66
aI89
asg41
Vhttp://goo.gl/KkaWGk
p841
sg43
Vgoo.gl/KkaWGk
p842
sassg193
Nsg194
Nsg195
I0
sg68
V664128060346802176
p843
sg197
I00
sg198
g791
sg199
Nsg200
Nsg201
I00
sg92
g812
sg100
VTue Nov 10 17:10:43 +0000 2015
p844
sg203
Nsg204
Nsg205
(dp845
g207
Ven
p846
sg209
Vrecent
p847
sssg211
g845
sg212
Nsg213
Nsg31
g818
sg214
Nsg215
Nsg112
g843
sg216
I00
sg217
Nsg218
I0
sg219
Nsbag0
(g4
g5
Ntp848
Rp849
(dp850
g9
I00
sg10
Nsg11
I00
sg12
VThe Most Accurate Stock Alert Service Made $240,000 Yesterday https://t.co/8WvnrVmkBS .. $ADTN $FTCS $PNQI
p851
sg14
Vhttp://socialadcenter.com
p852
sg16
I00
sg17
I00
sg18
Nsg19
g0
(g20
g5
Ntp853
Rp854
(dp855
g24
I00
sg25
I00
sg26
I01
sg27
VDDEEF6
p856
sg29
L2730855593L
sg30
I00
sg31
(dp857
g33
(dp858
g35
(lp859
(dp860
g33
Vhttp://t.co/UWzH8kOOl9
p861
sg39
(lp862
I0
aI22
asg41
Vhttp://PennyStockSecret.com
p863
sg43
VPennyStockSecret.com
p864
sassg45
(dp865
g35
(lp866
(dp867
g33
Vhttp://t.co/UWzH8kOOl9
p868
sg39
(lp869
I11
aI33
asg41
Vhttp://PennyStockSecret.com
p870
sg43
VPennyStockSecret.com
p871
sasssg48
Vhttps://pbs.twimg.com/profile_images/573247485616889856/gHAtYS9O_normal.png
p872
sg50
(dp873
g52
I00
sg53
I00
sg54
I01
sg55
I00
sg56
L2730855593L
sg57
Vhttps://abs.twimg.com/images/themes/theme1/bg.png
p874
sg59
I00
sg60
V333333
p875
sg62
g872
sg63
g856
sg64
g857
sg65
I2515
sg66
VC0DEED
p876
sg68
V2730855593
p877
sg70
VC0DEED
p878
sg72
I25
sg73
I00
sg74
I0
sg75
I53231
sg45
VSign up to http://t.co/UWzH8kOOl9  and get the premiere penny stock newsletter for free! make sure you subscribe today!
p879
sg77
I9
sg78
VUSA
p880
sg80
V0084B4
p881
sg82
Vhttp://pbs.twimg.com/profile_images/573247485616889856/gHAtYS9O_normal.png
p882
sg84
I00
sg85
I00
sg86
Vhttps://pbs.twimg.com/profile_banners/2730855593/1425507876
p883
sg88
Vhttp://abs.twimg.com/images/themes/theme1/bg.png
p884
sg90
Vstockschamp
p885
sg92
Ven
p886
sg94
I00
sg95
I0
sg96
Vstockschamp
p887
sg98
I00
sg33
Vhttp://t.co/UWzH8kOOl9
p888
sg100
VFri Aug 01 16:39:24 +0000 2014
p889
sg102
I00
sg103
VDublin
p890
sg105
I00
sg106
I01
sg107
I00
ssg108
I00
sg109
g875
sg110
I2515
sg111
g876
sg112
g877
sg113
I00
sg114
I25
sg115
I00
sg116
I0
sg117
I53231
sg118
g879
sg119
I9
sg120
g880
sg121
g881
sg122
g882
sg123
I00
sg124
I00
sg125
g878
sg126
g883
sg127
g884
sg128
g885
sg129
g886
sg130
I00
sg131
I00
sg132
I0
sg133
g887
sg134
g888
sg135
g136
(S"\x07\xde\x08\x01\x10'\x18\x00\x00\x00"
p891
tp892
Rp893
sg140
g874
sg141
g890
sg142
I00
sg143
I01
sg144
I00
sbsg145
Nsg29
L663552762681016320L
sg146
I0
sg147
VSocial Ad Center
p894
sg129
Ven
p895
sg150
g854
sg135
g136
(S'\x07\xdf\x0b\t\x03\x04)\x00\x00\x00'
p896
tp897
Rp898
sg50
(dp899
g155
Nsg156
I00
sg157
g851
sg158
I00
sg159
Nsg56
L663552762681016320L
sg160
I0
sg161
V<a href="http://socialadcenter.com" rel="nofollow">Social Ad Center</a>
p900
sg163
I00
sg164
Nsg64
(dp901
g166
(lp902
(dp903
g39
(lp904
I89
aI94
asg157
VADTN
p905
sa(dp906
g39
(lp907
I95
aI100
asg157
VFTCS
p908
sa(dp909
g39
(lp910
I101
aI106
asg157
VPNQI
p911
sasg183
(lp912
sg185
(lp913
sg35
(lp914
(dp915
g33
Vhttps://t.co/8WvnrVmkBS
p916
sg39
(lp917
I62
aI85
asg41
Vhttp://PennyStockSecret.com
p918
sg43
VPennyStockSecret.com
p919
sassg193
Nsg194
Nsg195
I0
sg68
V663552762681016320
p920
sg197
I00
sg198
g873
sg199
Nsg200
Nsg201
I00
sg92
g895
sg100
VMon Nov 09 03:04:41 +0000 2015
p921
sg203
Nsg204
Nsg205
(dp922
g207
Ven
p923
sg209
Vrecent
p924
sssg211
g922
sg212
Nsg213
Nsg31
g901
sg214
Nsg215
Nsg112
g920
sg216
I00
sg217
Nsg218
I0
sg219
Nsbag0
(g4
g5
Ntp925
Rp926
(dp927
g9
I00
sg10
Nsg11
I00
sg12
V#Amazon All Set for the Holiday Season: 4 #ETFs to Buy $PNQI $AMZN $FDN $RTH $XLY Also $M $TGT $WMT $AAPL https://t.co/kmHO8mGJu9
p928
sg14
Vhttp://www.talkmarkets.com
p929
sg16
I00
sg17
I00
sg18
Nsg19
g0
(g20
g5
Ntp930
Rp931
(dp932
g24
I00
sg25
I00
sg26
I01
sg27
VC0DFEC
p933
sg29
I1001192245
sg30
I00
sg31
(dp934
g33
(dp935
g35
(lp936
(dp937
g33
Vhttp://t.co/iL0trK2OzM
p938
sg39
(lp939
I0
aI22
asg41
Vhttp://www.TalkMarkets.com
p940
sg43
VTalkMarkets.com
p941
sassg45
(dp942
g35
(lp943
sssg48
Vhttps://pbs.twimg.com/profile_images/378800000327180850/4f6d3ae1729ccc9d1d0414cb5359ed7a_normal.png
p944
sg50
(dp945
g52
I00
sg53
I00
sg54
I01
sg55
I00
sg56
I1001192245
sg57
Vhttps://abs.twimg.com/images/themes/theme15/bg.png
p946
sg59
I00
sg60
V333333
p947
sg62
g944
sg63
g933
sg64
g934
sg65
I1197
sg66
VA8C7F7
p948
sg68
V1001192245
p949
sg70
V022330
p950
sg72
I254
sg73
I00
sg74
I-18000
sg75
I53881
sg45
VFinancial content that\u2019s customized, optimized, socialized.
p951
sg77
I429
sg78
g296
sg80
V0084B4
p952
sg82
Vhttp://pbs.twimg.com/profile_images/378800000327180850/4f6d3ae1729ccc9d1d0414cb5359ed7a_normal.png
p953
sg84
I00
sg85
I01
sg86
Vhttps://pbs.twimg.com/profile_banners/1001192245/1418426010
p954
sg88
Vhttp://abs.twimg.com/images/themes/theme15/bg.png
p955
sg90
VTalkMarkets
p956
sg92
Ven
p957
sg94
I00
sg95
I168
sg96
VTalkMarkets
p958
sg98
I00
sg33
Vhttp://t.co/iL0trK2OzM
p959
sg100
VMon Dec 10 07:55:31 +0000 2012
p960
sg102
I00
sg103
VEastern Time (US & Canada)
p961
sg105
I00
sg106
I00
sg107
I00
ssg108
I00
sg109
g947
sg110
I1197
sg111
g948
sg112
g949
sg113
I00
sg114
I254
sg115
I00
sg116
I-18000
sg117
I53881
sg118
g951
sg119
I429
sg120
g296
sg121
g952
sg122
g953
sg123
I00
sg124
I01
sg125
g950
sg126
g954
sg127
g955
sg128
g956
sg129
g957
sg130
I00
sg131
I00
sg132
I168
sg133
g958
sg134
g959
sg135
g136
(S'\x07\xdc\x0c\n\x077\x1f\x00\x00\x00'
p962
tp963
Rp964
sg140
g946
sg141
g961
sg142
I00
sg143
I00
sg144
I00
sbsg145
Nsg29
L663319810718228484L
sg146
I0
sg147
VTalkMarkets
p965
sg129
Ven
p966
sg150
g931
sg135
g136
(S"\x07\xdf\x0b\x08\x0b'\x01\x00\x00\x00"
p967
tp968
Rp969
sg50
(dp970
g155
Nsg156
I00
sg157
g928
sg158
I00
sg159
Nsg56
L663319810718228484L
sg160
I0
sg161
V<a href="http://www.talkmarkets.com" rel="nofollow">TalkMarkets</a>
p971
sg163
I00
sg164
Nsg64
(dp972
g166
(lp973
(dp974
g39
(lp975
I55
aI60
asg157
VPNQI
p976
sa(dp977
g39
(lp978
I61
aI66
asg157
VAMZN
p979
sa(dp980
g39
(lp981
I67
aI71
asg157
VFDN
p982
sa(dp983
g39
(lp984
I72
aI76
asg157
VRTH
p985
sa(dp986
g39
(lp987
I77
aI81
asg157
VXLY
p988
sa(dp989
g39
(lp990
I87
aI89
asg157
VM
p991
sa(dp992
g39
(lp993
I90
aI94
asg157
VTGT
p994
sa(dp995
g39
(lp996
I95
aI99
asg157
VWMT
p997
sa(dp998
g39
(lp999
I100
aI105
asg157
VAAPL
p1000
sasg183
(lp1001
sg185
(lp1002
(dp1003
g39
(lp1004
I0
aI7
asg157
VAmazon
p1005
sa(dp1006
g39
(lp1007
I42
aI47
asg157
VETFs
p1008
sasg35
(lp1009
(dp1010
g33
Vhttps://t.co/kmHO8mGJu9
p1011
sg39
(lp1012
I106
aI129
asg41
Vhttp://goo.gl/Ecpv5h
p1013
sg43
Vgoo.gl/Ecpv5h
p1014
sassg193
Nsg194
Nsg195
I0
sg68
V663319810718228484
p1015
sg197
I00
sg198
g945
sg199
Nsg200
Nsg201
I00
sg92
g966
sg100
VSun Nov 08 11:39:01 +0000 2015
p1016
sg203
Nsg204
Nsg205
(dp1017
g207
Ven
p1018
sg209
Vrecent
p1019
sssg211
g1017
sg212
Nsg213
Nsg31
g972
sg214
Nsg215
Nsg112
g1015
sg216
I00
sg217
Nsg218
I0
sg219
Nsbag0
(g4
g5
Ntp1020
Rp1021
(dp1022
g9
I00
sg10
Nsg11
I00
sg12
V#Amazon All Set for the Holiday Season: 4 #ETFs to Buy $PNQI $AMZN $FDN $RTH $XLY Also $M $TGT $WMT $AAPL https://t.co/SrvQ3ITLZX
p1023
sg14
Vhttp://www.talkmarkets.com
p1024
sg16
I00
sg17
I00
sg18
Nsg19
g0
(g20
g5
Ntp1025
Rp1026
(dp1027
g24
I00
sg25
I00
sg26
I01
sg27
VDDEEF6
p1028
sg29
L2795789015L
sg30
I00
sg31
(dp1029
g33
(dp1030
g35
(lp1031
(dp1032
g33
Vhttp://t.co/jrQKD4iteR
p1033
sg39
(lp1034
I0
aI22
asg41
Vhttp://www.TalkMarkets.com
p1035
sg43
VTalkMarkets.com
p1036
sassg45
(dp1037
g35
(lp1038
sssg48
Vhttps://pbs.twimg.com/profile_images/517011224236523520/l_22XWCv_normal.png
p1039
sg50
(dp1040
g52
I00
sg53
I00
sg54
I01
sg55
I00
sg56
L2795789015L
sg57
Vhttps://abs.twimg.com/images/themes/theme1/bg.png
p1041
sg59
I00
sg60
V333333
p1042
sg62
g1039
sg63
g1028
sg64
g1029
sg65
I206
sg66
VC0DEED
p1043
sg68
V2795789015
p1044
sg70
VC0DEED
p1045
sg72
I128
sg73
I00
sg74
Nsg75
I16879
sg45
VA recap of our day's most popular headlines.  Check us out for a customized reading experience covering financial & business news, opinion & analysis.
p1046
sg77
I13
sg78
g296
sg80
V0084B4
p1047
sg82
Vhttp://pbs.twimg.com/profile_images/517011224236523520/l_22XWCv_normal.png
p1048
sg84
I00
sg85
I00
sg86
Vhttps://pbs.twimg.com/profile_banners/2795789015/1412100067
p1049
sg88
Vhttp://abs.twimg.com/images/themes/theme1/bg.png
p1050
sg90
VMarketsRecap
p1051
sg92
Ven
p1052
sg94
I00
sg95
I5
sg96
VTalkMarkets Recap
p1053
sg98
I00
sg33
Vhttp://t.co/jrQKD4iteR
p1054
sg100
VTue Sep 30 18:00:06 +0000 2014
p1055
sg102
I00
sg103
Nsg105
I00
sg106
I01
sg107
I00
ssg108
I00
sg109
g1042
sg110
I206
sg111
g1043
sg112
g1044
sg113
I00
sg114
I128
sg115
I00
sg116
Nsg117
I16879
sg118
g1046
sg119
I13
sg120
g296
sg121
g1047
sg122
g1048
sg123
I00
sg124
I00
sg125
g1045
sg126
g1049
sg127
g1050
sg128
g1051
sg129
g1052
sg130
I00
sg131
I00
sg132
I5
sg133
g1053
sg134
g1054
sg135
g136
(S'\x07\xde\t\x1e\x12\x00\x06\x00\x00\x00'
p1056
tp1057
Rp1058
sg140
g1041
sg141
Nsg142
I00
sg143
I01
sg144
I00
sbsg145
Nsg29
L663229218021617664L
sg146
I2
sg147
VTalkMarkets
p1059
sg129
Ven
p1060
sg150
g1026
sg135
g136
(S"\x07\xdf\x0b\x08\x05'\x02\x00\x00\x00"
p1061
tp1062
Rp1063
sg50
(dp1064
g155
Nsg156
I00
sg157
g1023
sg158
I00
sg159
Nsg56
L663229218021617664L
sg160
I2
sg161
V<a href="http://www.talkmarkets.com" rel="nofollow">TalkMarkets</a>
p1065
sg163
I00
sg164
Nsg64
(dp1066
g166
(lp1067
(dp1068
g39
(lp1069
I55
aI60
asg157
VPNQI
p1070
sa(dp1071
g39
(lp1072
I61
aI66
asg157
VAMZN
p1073
sa(dp1074
g39
(lp1075
I67
aI71
asg157
VFDN
p1076
sa(dp1077
g39
(lp1078
I72
aI76
asg157
VRTH
p1079
sa(dp1080
g39
(lp1081
I77
aI81
asg157
VXLY
p1082
sa(dp1083
g39
(lp1084
I87
aI89
asg157
g991
sa(dp1085
g39
(lp1086
I90
aI94
asg157
VTGT
p1087
sa(dp1088
g39
(lp1089
I95
aI99
asg157
VWMT
p1090
sa(dp1091
g39
(lp1092
I100
aI105
asg157
VAAPL
p1093
sasg183
(lp1094
sg185
(lp1095
(dp1096
g39
(lp1097
I0
aI7
asg157
VAmazon
p1098
sa(dp1099
g39
(lp1100
I42
aI47
asg157
VETFs
p1101
sasg35
(lp1102
(dp1103
g33
Vhttps://t.co/SrvQ3ITLZX
p1104
sg39
(lp1105
I106
aI129
asg41
Vhttp://goo.gl/Ecpv5h
p1106
sg43
Vgoo.gl/Ecpv5h
p1107
sassg193
Nsg194
Nsg195
I0
sg68
V663229218021617664
p1108
sg197
I00
sg198
g1040
sg199
Nsg200
Nsg201
I00
sg92
g1060
sg100
VSun Nov 08 05:39:02 +0000 2015
p1109
sg203
Nsg204
Nsg205
(dp1110
g207
Ven
p1111
sg209
Vrecent
p1112
sssg211
g1110
sg212
Nsg213
Nsg31
g1066
sg214
Nsg215
Nsg112
g1108
sg216
I00
sg217
Nsg218
I0
sg219
Nsbag0
(g4
g5
Ntp1113
Rp1114
(dp1115
g9
I00
sg10
Nsg11
I00
sg12
V#Amazon All Set for the Holiday Season: 4 #ETF to Buy  $PNQI  $AMZN  $FDN  $RTH  $XLY Also $M  $TGT  $WMT  $AAPL https://t.co/JfdgiDoDAC
p1116
sg14
Vhttp://twitter.com
p1117
sg16
I00
sg17
I00
sg18
Nsg19
g0
(g20
g5
Ntp1118
Rp1119
(dp1120
g24
I00
sg25
I00
sg26
I01
sg27
VC0DFEC
p1121
sg29
I1001192245
sg30
I00
sg31
(dp1122
g33
(dp1123
g35
(lp1124
(dp1125
g33
Vhttp://t.co/iL0trK2OzM
p1126
sg39
(lp1127
I0
aI22
asg41
Vhttp://www.TalkMarkets.com
p1128
sg43
VTalkMarkets.com
p1129
sassg45
(dp1130
g35
(lp1131
sssg48
Vhttps://pbs.twimg.com/profile_images/378800000327180850/4f6d3ae1729ccc9d1d0414cb5359ed7a_normal.png
p1132
sg50
(dp1133
g52
I00
sg53
I00
sg54
I01
sg55
I00
sg56
I1001192245
sg57
Vhttps://abs.twimg.com/images/themes/theme15/bg.png
p1134
sg59
I00
sg60
V333333
p1135
sg62
g1132
sg63
g1121
sg64
g1122
sg65
I1197
sg66
VA8C7F7
p1136
sg68
V1001192245
p1137
sg70
V022330
p1138
sg72
I254
sg73
I00
sg74
I-18000
sg75
I53881
sg45
VFinancial content that\u2019s customized, optimized, socialized.
p1139
sg77
I429
sg78
g296
sg80
V0084B4
p1140
sg82
Vhttp://pbs.twimg.com/profile_images/378800000327180850/4f6d3ae1729ccc9d1d0414cb5359ed7a_normal.png
p1141
sg84
I00
sg85
I01
sg86
Vhttps://pbs.twimg.com/profile_banners/1001192245/1418426010
p1142
sg88
Vhttp://abs.twimg.com/images/themes/theme15/bg.png
p1143
sg90
VTalkMarkets
p1144
sg92
Ven
p1145
sg94
I00
sg95
I168
sg96
VTalkMarkets
p1146
sg98
I00
sg33
Vhttp://t.co/iL0trK2OzM
p1147
sg100
VMon Dec 10 07:55:31 +0000 2012
p1148
sg102
I00
sg103
VEastern Time (US & Canada)
p1149
sg105
I00
sg106
I00
sg107
I00
ssg108
I00
sg109
g1135
sg110
I1197
sg111
g1136
sg112
g1137
sg113
I00
sg114
I254
sg115
I00
sg116
I-18000
sg117
I53881
sg118
g1139
sg119
I429
sg120
g296
sg121
g1140
sg122
g1141
sg123
I00
sg124
I01
sg125
g1138
sg126
g1142
sg127
g1143
sg128
g1144
sg129
g1145
sg130
I00
sg131
I00
sg132
I168
sg133
g1146
sg134
g1147
sg135
g136
(S'\x07\xdc\x0c\n\x077\x1f\x00\x00\x00'
p1150
tp1151
Rp1152
sg140
g1134
sg141
g1149
sg142
I00
sg143
I00
sg144
I00
sbsg145
Nsg29
L663132014363746304L
sg146
I0
sg147
VTwitter Web Client
p1153
sg129
Ven
p1154
sg150
g1119
sg135
g136
(S'\x07\xdf\x0b\x07\x17\x0c/\x00\x00\x00'
p1155
tp1156
Rp1157
sg50
(dp1158
g155
Nsg156
I00
sg157
g1116
sg158
I00
sg159
Nsg56
L663132014363746304L
sg160
I0
sg161
V<a href="http://twitter.com" rel="nofollow">Twitter Web Client</a>
p1159
sg163
I00
sg164
Nsg64
(dp1160
g166
(lp1161
(dp1162
g39
(lp1163
I55
aI60
asg157
VPNQI
p1164
sa(dp1165
g39
(lp1166
I62
aI67
asg157
VAMZN
p1167
sa(dp1168
g39
(lp1169
I69
aI73
asg157
VFDN
p1170
sa(dp1171
g39
(lp1172
I75
aI79
asg157
VRTH
p1173
sa(dp1174
g39
(lp1175
I81
aI85
asg157
VXLY
p1176
sa(dp1177
g39
(lp1178
I91
aI93
asg157
g991
sa(dp1179
g39
(lp1180
I95
aI99
asg157
VTGT
p1181
sa(dp1182
g39
(lp1183
I101
aI105
asg157
VWMT
p1184
sa(dp1185
g39
(lp1186
I107
aI112
asg157
VAAPL
p1187
sasg183
(lp1188
sg185
(lp1189
(dp1190
g39
(lp1191
I0
aI7
asg157
VAmazon
p1192
sa(dp1193
g39
(lp1194
I42
aI46
asg157
VETF
p1195
sasg35
(lp1196
(dp1197
g33
Vhttps://t.co/JfdgiDoDAC
p1198
sg39
(lp1199
I113
aI136
asg41
Vhttp://goo.gl/YiQCSi
p1200
sg43
Vgoo.gl/YiQCSi
p1201
sassg193
Nsg194
Nsg195
I0
sg68
V663132014363746304
p1202
sg197
I00
sg198
g1133
sg199
Nsg200
Nsg201
I00
sg92
g1154
sg100
VSat Nov 07 23:12:47 +0000 2015
p1203
sg203
Nsg204
Nsg205
(dp1204
g207
Ven
p1205
sg209
Vrecent
p1206
sssg211
g1204
sg212
Nsg213
Nsg31
g1160
sg214
Nsg215
Nsg112
g1202
sg216
I00
sg217
Nsg218
I0
sg219
Nsbag0
(g4
g5
Ntp1207
Rp1208
(dp1209
g9
I00
sg10
Nsg11
I00
sg12
VSABR Sabre Corp. Day Low\u000ahttps://t.co/d1fqZ2uO5x\u000a\u000a$SABR $PNQI $NGCG $EDC #SABR #nasdaq #nasdaq
p1210
sg14
Vhttp://dlvr.it
p1211
sg16
I00
sg17
I00
sg18
Nsg19
g0
(g20
g5
Ntp1212
Rp1213
(dp1214
g24
I00
sg25
I00
sg26
I01
sg27
VC0DFEC
p1215
sg29
L2181314366L
sg30
I00
sg31
(dp1216
g45
(dp1217
g35
(lp1218
sssg48
Vhttps://pbs.twimg.com/profile_images/378800000709585641/f40eea5971a3bc6d1eaaebd2b3dd4ebb_normal.jpeg
p1219
sg50
(dp1220
g52
I00
sg53
I00
sg54
I01
sg55
I00
sg56
L2181314366L
sg57
Vhttps://abs.twimg.com/images/themes/theme15/bg.png
p1221
sg59
I00
sg60
V333333
p1222
sg62
g1219
sg63
g1215
sg64
g1216
sg65
I778
sg66
VA8C7F7
p1223
sg68
V2181314366
p1224
sg70
V022330
p1225
sg72
I174
sg73
I00
sg74
Nsg75
I191949
sg45
VLikes to follow many stocks
p1226
sg77
I444
sg78
g296
sg80
V0084B4
p1227
sg82
Vhttp://pbs.twimg.com/profile_images/378800000709585641/f40eea5971a3bc6d1eaaebd2b3dd4ebb_normal.jpeg
p1228
sg84
I00
sg85
I00
sg88
Vhttp://abs.twimg.com/images/themes/theme15/bg.png
p1229
sg90
VJake132013
p1230
sg92
Ven
p1231
sg94
I00
sg95
I0
sg96
VJake13
p1232
sg98
I00
sg33
Nsg100
VFri Nov 08 02:42:49 +0000 2013
p1233
sg102
I00
sg103
Nsg105
I00
sg106
I00
sg107
I00
ssg108
I00
sg109
g1222
sg110
I778
sg111
g1223
sg112
g1224
sg113
I00
sg114
I174
sg115
I00
sg116
Nsg117
I191949
sg118
g1226
sg119
I444
sg120
g296
sg121
g1227
sg122
g1228
sg123
I00
sg124
I00
sg125
g1225
sg127
g1229
sg128
g1230
sg129
g1231
sg130
I00
sg131
I00
sg132
I0
sg133
g1232
sg134
Nsg135
g136
(S'\x07\xdd\x0b\x08\x02*1\x00\x00\x00'
p1234
tp1235
Rp1236
sg140
g1221
sg141
Nsg142
I00
sg143
I00
sg144
I00
sbsg145
Nsg29
L663080345210777600L
sg146
I0
sg147
Vdlvr.it
p1237
sg129
Vin
p1238
sg150
g1213
sg135
g136
(S'\x07\xdf\x0b\x07\x13/\x1c\x00\x00\x00'
p1239
tp1240
Rp1241
sg50
(dp1242
g155
Nsg156
I00
sg157
VSABR Sabre Corp. Day Low\u000ahttps://t.co/d1fqZ2uO5x\u000a\u000a$SABR $PNQI $NGCG $EDC #SABR #nasdaq #nasdaq
p1243
sg158
I00
sg159
Nsg56
L663080345210777600L
sg160
I0
sg161
V<a href="http://dlvr.it" rel="nofollow">dlvr.it</a>
p1244
sg163
I00
sg164
Nsg64
(dp1245
g166
(lp1246
(dp1247
g39
(lp1248
I50
aI55
asg157
VSABR
p1249
sa(dp1250
g39
(lp1251
I56
aI61
asg157
VPNQI
p1252
sa(dp1253
g39
(lp1254
I62
aI67
asg157
VNGCG
p1255
sa(dp1256
g39
(lp1257
I68
aI72
asg157
VEDC
p1258
sasg183
(lp1259
sg185
(lp1260
(dp1261
g39
(lp1262
I73
aI78
asg157
VSABR
p1263
sa(dp1264
g39
(lp1265
I79
aI86
asg157
Vnasdaq
p1266
sa(dp1267
g39
(lp1268
I87
aI94
asg157
Vnasdaq
p1269
sasg35
(lp1270
(dp1271
g33
Vhttps://t.co/d1fqZ2uO5x
p1272
sg39
(lp1273
I25
aI48
asg41
Vhttp://dlvr.it/CgrQpW
p1274
sg43
Vdlvr.it/CgrQpW
p1275
sassg193
Nsg194
Nsg195
I0
sg68
V663080345210777600
p1276
sg197
I00
sg198
g1220
sg199
Nsg200
Nsg201
I00
sg92
g1238
sg100
VSat Nov 07 19:47:28 +0000 2015
p1277
sg203
Nsg204
Nsg205
(dp1278
g207
Vin
p1279
sg209
Vrecent
p1280
sssg211
g1278
sg212
Nsg213
Nsg31
g1245
sg214
Nsg215
Nsg112
g1276
sg216
I00
sg217
Nsg218
I0
sg219
Nsbag0
(g4
g5
Ntp1281
Rp1282
(dp1283
g10
Nsg11
I00
sg12
VRT https://t.co/ISvIyvxCvT MU Micron Technology, Inc. Dividend\u000ahttps://t.co/VV8buZckVl\u000a\u000a$MU $PAYC $GE $PNQI #MU #stocks #nasdaq
p1284
sg17
I01
sg18
Nsg29
L663080338336280576L
sg146
I0
sg31
(dp1285
g166
(lp1286
(dp1287
g39
(lp1288
I88
aI91
asg157
VMU
p1289
sa(dp1290
g39
(lp1291
I92
aI97
asg157
VPAYC
p1292
sa(dp1293
g39
(lp1294
I98
aI101
asg157
VGE
p1295
sa(dp1296
g39
(lp1297
I102
aI107
asg157
VPNQI
p1298
sasg183
(lp1299
sg185
(lp1300
(dp1301
g39
(lp1302
I108
aI111
asg157
VMU
p1303
sa(dp1304
g39
(lp1305
I112
aI119
asg157
Vstocks
p1306
sa(dp1307
g39
(lp1308
I120
aI127
asg157
Vnasdaq
p1309
sasg35
(lp1310
(dp1311
g33
Vhttps://t.co/ISvIyvxCvT
p1312
sg39
(lp1313
I3
aI26
asg41
Vhttp://twitter.com/Emylers/status/663079525845090305
p1314
sg43
Vtwitter.com/Emylers/status\u2026
p1315
sa(dp1316
g33
Vhttps://t.co/VV8buZckVl
p1317
sg39
(lp1318
I63
aI86
asg41
Vhttp://dlvr.it/CgrQsZ
p1319
sg43
Vdlvr.it/CgrQsZ
p1320
sassS'quoted_status_id'
p1321
L663079525845090305L
sg50
(dp1322
g155
Nsg156
I00
sg157
VRT https://t.co/ISvIyvxCvT MU Micron Technology, Inc. Dividend\u000ahttps://t.co/VV8buZckVl\u000a\u000a$MU $PAYC $GE $PNQI #MU #stocks #nasdaq
p1323
sg158
I01
sg159
Nsg56
L663080338336280576L
sg160
I0
sg64
g1285
sVquoted_status_id
p1324
L663079525845090305L
sg163
I00
sg164
NsVquoted_status
p1325
(dp1326
g155
Nsg156
I00
sg157
VMU Micron Technology, Inc. Dividend\u000ahttps://t.co/dQNnFRiwiq\u000a\u000a$MU $PAYC $GE $PNQI #MU #stocks #nasdaq
p1327
sg158
I00
sg159
Nsg56
L663079525845090305L
sg160
I0
sg161
V<a href="http://dlvr.it" rel="nofollow">dlvr.it</a>
p1328
sg163
I00
sg164
Nsg64
(dp1329
g166
(lp1330
(dp1331
g39
(lp1332
I61
aI64
asg157
VMU
p1333
sa(dp1334
g39
(lp1335
I65
aI70
asg157
VPAYC
p1336
sa(dp1337
g39
(lp1338
I71
aI74
asg157
VGE
p1339
sa(dp1340
g39
(lp1341
I75
aI80
asg157
VPNQI
p1342
sasg183
(lp1343
sg185
(lp1344
(dp1345
g39
(lp1346
I81
aI84
asg157
VMU
p1347
sa(dp1348
g39
(lp1349
I85
aI92
asg157
Vstocks
p1350
sa(dp1351
g39
(lp1352
I93
aI100
asg157
Vnasdaq
p1353
sasg35
(lp1354
(dp1355
g33
Vhttps://t.co/dQNnFRiwiq
p1356
sg39
(lp1357
I36
aI59
asg41
Vhttp://dlvr.it/CgrQsZ
p1358
sg43
Vdlvr.it/CgrQsZ
p1359
sassg193
Nsg194
Nsg195
I0
sg68
V663079525845090305
p1360
sg197
I00
sg198
(dp1361
g52
I00
sg53
I00
sg54
I01
sg55
I00
sg56
L2181403417L
sg57
Vhttps://abs.twimg.com/images/themes/theme6/bg.gif
p1362
sg59
I00
sg60
V333333
p1363
sg62
Vhttps://pbs.twimg.com/profile_images/378800000709786988/9596d78dcc8156002d8dab069fc38cf7_normal.jpeg
p1364
sg63
VA0C5C7
p1365
sg64
(dp1366
g45
(dp1367
g35
(lp1368
sssg65
I494
sg66
V86A4A6
p1369
sg68
V2181403417
p1370
sg70
V709397
p1371
sg72
I165
sg73
I00
sg74
Nsg75
I156398
sg45
g296
sg77
I454
sg78
g296
sg80
VFF3300
p1372
sg82
Vhttp://pbs.twimg.com/profile_images/378800000709786988/9596d78dcc8156002d8dab069fc38cf7_normal.jpeg
p1373
sg84
I00
sg85
I00
sg88
Vhttp://abs.twimg.com/images/themes/theme6/bg.gif
p1374
sg90
VEmylers
p1375
sg92
Ven
p1376
sg94
I00
sg95
I0
sg96
VEmylers
p1377
sg98
I00
sg33
Nsg100
VFri Nov 08 03:50:04 +0000 2013
p1378
sg102
I00
sg103
Nsg105
I00
sg106
I00
sg107
I00
ssg199
Nsg200
Nsg201
I00
sg92
Vin
p1379
sg100
VSat Nov 07 19:44:13 +0000 2015
p1380
sg203
Nsg204
Nsg205
(dp1381
g207
Vin
p1382
sg209
Vrecent
p1383
sssg161
V<a href="http://ifttt.com" rel="nofollow">IFTTT</a>
p1384
sg193
Nsg194
Nsg195
I0
sg68
V663080338336280576
p1385
sg197
I00
sg198
(dp1386
g52
I00
sg53
I00
sg54
I00
sg55
I00
sg56
L3331182800L
sg57
Vhttps://abs.twimg.com/images/themes/theme1/bg.png
p1387
sg59
I00
sg60
V000000
p1388
sg62
Vhttps://pbs.twimg.com/profile_images/635960318905024512/SlZ9zUMt_normal.png
p1389
sg63
V000000
p1390
sg64
(dp1391
g45
(dp1392
g35
(lp1393
sssg65
I807
sg66
V000000
p1394
sg68
V3331182800
p1395
sg70
V000000
p1396
sg72
I658
sg73
I00
sg74
Nsg75
I200922
sg45
VI tweet about the best resources in #BinaryOptions #Trading occasionally #Forex #Stocks pretty much all about #Money
p1397
sg77
I127
sg78
VWall Street
p1398
sg80
V4A913C
p1399
sg82
Vhttp://pbs.twimg.com/profile_images/635960318905024512/SlZ9zUMt_normal.png
p1400
sg84
I00
sg85
I00
sg86
Vhttps://pbs.twimg.com/profile_banners/3331182800/1440459768
p1401
sg88
Vhttp://abs.twimg.com/images/themes/theme1/bg.png
p1402
sg90
VBinaryTrading13
p1403
sg92
Ven
p1404
sg94
I00
sg95
I8
sg96
VBinary Trader Pro
p1405
sg98
I00
sg33
Nsg100
VMon Aug 24 23:15:35 +0000 2015
p1406
sg102
I00
sg103
Nsg105
I00
sg106
I00
sg107
I00
ssg199
Nsg200
Nsg201
I00
sg92
Vin
p1407
sg100
VSat Nov 07 19:47:26 +0000 2015
p1408
sVquoted_status_id_str
p1409
V663079525845090305
p1410
sg203
Nsg204
Nsg205
(dp1411
g207
Vin
p1412
sg209
Vrecent
p1413
sssg212
NsS'quoted_status'
p1414
g1326
sg147
VIFTTT
p1415
sg215
Nsg112
g1385
sg218
I0
sg219
Nsg9
I00
sg14
Vhttp://ifttt.com
p1416
sg19
g0
(g20
g5
Ntp1417
Rp1418
(dp1419
g24
I00
sg25
I00
sg26
I00
sg27
g1390
sg29
L3331182800L
sg30
I00
sg31
g1391
sg48
g1389
sg50
g1386
sg108
I00
sg109
g1388
sg110
I807
sg111
g1394
sg112
g1395
sg113
I00
sg114
I658
sg115
I00
sg116
Nsg117
I200922
sg118
g1397
sg119
I127
sg120
g1398
sg121
g1399
sg122
g1400
sg123
I00
sg124
I00
sg125
g1396
sg126
g1401
sg127
g1402
sg128
g1403
sg129
g1404
sg130
I00
sg131
I00
sg132
I8
sg133
g1405
sg134
Nsg135
g136
(S'\x07\xdf\x08\x18\x17\x0f#\x00\x00\x00'
p1420
tp1421
Rp1422
sg140
g1387
sg141
Nsg142
I00
sg143
I00
sg144
I00
sbsg145
Nsg213
Nsg16
I00
sg129
g1407
sg135
g136
(S'\x07\xdf\x0b\x07\x13/\x1a\x00\x00\x00'
p1423
tp1424
Rp1425
sg150
g1418
sS'quoted_status_id_str'
p1426
g1410
sg214
Nsg217
Nsg216
I00
sg211
g1411
sbag0
(g4
g5
Ntp1427
Rp1428
(dp1429
g9
I00
sg10
Nsg11
I00
sg12
VMAIN Main Street and Main Inc. EOD Data\u000ahttps://t.co/GPZYprGBxV\u000a\u000a$MAIN $HAO $PNQI $GILD #MAIN #pennystocks #nasdaq
p1430
sg14
Vhttp://dlvr.it
p1431
sg16
I00
sg17
I00
sg18
Nsg19
g0
(g20
g5
Ntp1432
Rp1433
(dp1434
g24
I00
sg25
I00
sg26
I01
sg27
VC0DFEC
p1435
sg29
L2181334776L
sg30
I00
sg31
(dp1436
g45
(dp1437
g35
(lp1438
sssg48
Vhttps://pbs.twimg.com/profile_images/378800000709634272/e2cf5730645fbf55556d6a93914be36e_normal.jpeg
p1439
sg50
(dp1440
g52
I00
sg53
I00
sg54
I01
sg55
I00
sg56
L2181334776L
sg57
Vhttps://abs.twimg.com/images/themes/theme15/bg.png
p1441
sg59
I00
sg60
V333333
p1442
sg62
g1439
sg63
g1435
sg64
g1436
sg65
I1019
sg66
VA8C7F7
p1443
sg68
V2181334776
p1444
sg70
V022330
p1445
sg72
I177
sg73
I00
sg74
Nsg75
I160985
sg45
VI am lookn4wins
p1446
sg77
I450
sg78
g296
sg80
V0084B4
p1447
sg82
Vhttp://pbs.twimg.com/profile_images/378800000709634272/e2cf5730645fbf55556d6a93914be36e_normal.jpeg
p1448
sg84
I00
sg85
I00
sg88
Vhttp://abs.twimg.com/images/themes/theme15/bg.png
p1449
sg90
Vlookn4wins
p1450
sg92
Ven
p1451
sg94
I00
sg95
I0
sg96
Vlookn4wins
p1452
sg98
I00
sg33
Nsg100
VFri Nov 08 02:59:26 +0000 2013
p1453
sg102
I00
sg103
Nsg105
I00
sg106
I00
sg107
I00
ssg108
I00
sg109
g1442
sg110
I1019
sg111
g1443
sg112
g1444
sg113
I00
sg114
I177
sg115
I00
sg116
Nsg117
I160985
sg118
g1446
sg119
I450
sg120
g296
sg121
g1447
sg122
g1448
sg123
I00
sg124
I00
sg125
g1445
sg127
g1449
sg128
g1450
sg129
g1451
sg130
I00
sg131
I00
sg132
I0
sg133
g1452
sg134
Nsg135
g136
(S'\x07\xdd\x0b\x08\x02;\x1a\x00\x00\x00'
p1454
tp1455
Rp1456
sg140
g1441
sg141
Nsg142
I00
sg143
I00
sg144
I00
sbsg145
Nsg29
L663079613900263424L
sg146
I1
sg147
Vdlvr.it
p1457
sg129
Vund
p1458
sg150
g1433
sg135
g136
(S'\x07\xdf\x0b\x07\x13,"\x00\x00\x00'
p1459
tp1460
Rp1461
sg50
(dp1462
g155
Nsg156
I00
sg157
VMAIN Main Street and Main Inc. EOD Data\u000ahttps://t.co/GPZYprGBxV\u000a\u000a$MAIN $HAO $PNQI $GILD #MAIN #pennystocks #nasdaq
p1463
sg158
I00
sg159
Nsg56
L663079613900263424L
sg160
I1
sg161
V<a href="http://dlvr.it" rel="nofollow">dlvr.it</a>
p1464
sg163
I00
sg164
Nsg64
(dp1465
g166
(lp1466
(dp1467
g39
(lp1468
I65
aI70
asg157
VMAIN
p1469
sa(dp1470
g39
(lp1471
I71
aI75
asg157
VHAO
p1472
sa(dp1473
g39
(lp1474
I76
aI81
asg157
VPNQI
p1475
sa(dp1476
g39
(lp1477
I82
aI87
asg157
VGILD
p1478
sasg183
(lp1479
sg185
(lp1480
(dp1481
g39
(lp1482
I88
aI93
asg157
VMAIN
p1483
sa(dp1484
g39
(lp1485
I94
aI106
asg157
Vpennystocks
p1486
sa(dp1487
g39
(lp1488
I107
aI114
asg157
Vnasdaq
p1489
sasg35
(lp1490
(dp1491
g33
Vhttps://t.co/GPZYprGBxV
p1492
sg39
(lp1493
I40
aI63
asg41
Vhttp://dlvr.it/CgrRzJ
p1494
sg43
Vdlvr.it/CgrRzJ
p1495
sassg193
Nsg194
Nsg195
I0
sg68
V663079613900263424
p1496
sg197
I00
sg198
g1440
sg199
Nsg200
Nsg201
I00
sg92
g1458
sg100
VSat Nov 07 19:44:34 +0000 2015
p1497
sg203
Nsg204
Nsg205
(dp1498
g207
Vund
p1499
sg209
Vrecent
p1500
sssg211
g1498
sg212
Nsg213
Nsg31
g1465
sg214
Nsg215
Nsg112
g1496
sg216
I00
sg217
Nsg218
I0
sg219
Nsbag0
(g4
g5
Ntp1501
Rp1502
(dp1503
g9
I00
sg10
Nsg11
I00
sg12
VMU Micron Technology, Inc. Dividend\u000ahttps://t.co/dQNnFRiwiq\u000a\u000a$MU $PAYC $GE $PNQI #MU #stocks #nasdaq
p1504
sg14
Vhttp://dlvr.it
p1505
sg16
I00
sg17
I00
sg18
Nsg19
g0
(g20
g5
Ntp1506
Rp1507
(dp1508
g24
I00
sg25
I00
sg26
I01
sg27
VA0C5C7
p1509
sg29
L2181403417L
sg30
I00
sg31
(dp1510
g45
(dp1511
g35
(lp1512
sssg48
Vhttps://pbs.twimg.com/profile_images/378800000709786988/9596d78dcc8156002d8dab069fc38cf7_normal.jpeg
p1513
sg50
(dp1514
g52
I00
sg53
I00
sg54
I01
sg55
I00
sg56
L2181403417L
sg57
Vhttps://abs.twimg.com/images/themes/theme6/bg.gif
p1515
sg59
I00
sg60
V333333
p1516
sg62
g1513
sg63
g1509
sg64
g1510
sg65
I494
sg66
V86A4A6
p1517
sg68
V2181403417
p1518
sg70
V709397
p1519
sg72
I165
sg73
I00
sg74
Nsg75
I156398
sg45
g296
sg77
I454
sg78
g296
sg80
VFF3300
p1520
sg82
Vhttp://pbs.twimg.com/profile_images/378800000709786988/9596d78dcc8156002d8dab069fc38cf7_normal.jpeg
p1521
sg84
I00
sg85
I00
sg88
Vhttp://abs.twimg.com/images/themes/theme6/bg.gif
p1522
sg90
VEmylers
p1523
sg92
Ven
p1524
sg94
I00
sg95
I0
sg96
VEmylers
p1525
sg98
I00
sg33
Nsg100
VFri Nov 08 03:50:04 +0000 2013
p1526
sg102
I00
sg103
Nsg105
I00
sg106
I00
sg107
I00
ssg108
I00
sg109
g1516
sg110
I494
sg111
g1517
sg112
g1518
sg113
I00
sg114
I165
sg115
I00
sg116
Nsg117
I156398
sg118
g296
sg119
I454
sg120
g296
sg121
g1520
sg122
g1521
sg123
I00
sg124
I00
sg125
g1519
sg127
g1522
sg128
g1523
sg129
g1524
sg130
I00
sg131
I00
sg132
I0
sg133
g1525
sg134
Nsg135
g136
(S'\x07\xdd\x0b\x08\x032\x04\x00\x00\x00'
p1527
tp1528
Rp1529
sg140
g1515
sg141
Nsg142
I00
sg143
I00
sg144
I00
sbsg145
Nsg29
L663079525845090305L
sg146
I0
sg147
Vdlvr.it
p1530
sg129
Vin
p1531
sg150
g1507
sg135
g136
(S'\x07\xdf\x0b\x07\x13,\r\x00\x00\x00'
p1532
tp1533
Rp1534
sg50
(dp1535
g155
Nsg156
I00
sg157
VMU Micron Technology, Inc. Dividend\u000ahttps://t.co/dQNnFRiwiq\u000a\u000a$MU $PAYC $GE $PNQI #MU #stocks #nasdaq
p1536
sg158
I00
sg159
Nsg56
L663079525845090305L
sg160
I0
sg161
V<a href="http://dlvr.it" rel="nofollow">dlvr.it</a>
p1537
sg163
I00
sg164
Nsg64
(dp1538
g166
(lp1539
(dp1540
g39
(lp1541
I61
aI64
asg157
VMU
p1542
sa(dp1543
g39
(lp1544
I65
aI70
asg157
VPAYC
p1545
sa(dp1546
g39
(lp1547
I71
aI74
asg157
VGE
p1548
sa(dp1549
g39
(lp1550
I75
aI80
asg157
VPNQI
p1551
sasg183
(lp1552
sg185
(lp1553
(dp1554
g39
(lp1555
I81
aI84
asg157
VMU
p1556
sa(dp1557
g39
(lp1558
I85
aI92
asg157
Vstocks
p1559
sa(dp1560
g39
(lp1561
I93
aI100
asg157
Vnasdaq
p1562
sasg35
(lp1563
(dp1564
g33
Vhttps://t.co/dQNnFRiwiq
p1565
sg39
(lp1566
I36
aI59
asg41
Vhttp://dlvr.it/CgrQsZ
p1567
sg43
Vdlvr.it/CgrQsZ
p1568
sassg193
Nsg194
Nsg195
I0
sg68
V663079525845090305
p1569
sg197
I00
sg198
g1514
sg199
Nsg200
Nsg201
I00
sg92
g1531
sg100
VSat Nov 07 19:44:13 +0000 2015
p1570
sg203
Nsg204
Nsg205
(dp1571
g207
Vin
p1572
sg209
Vrecent
p1573
sssg211
g1571
sg212
Nsg213
Nsg31
g1538
sg214
Nsg215
Nsg112
g1569
sg216
I00
sg217
Nsg218
I0
sg219
Nsbag0
(g4
g5
Ntp1574
Rp1575
(dp1576
g9
I00
sg10
Nsg11
I00
sg12
VFXC Currency Shares Canadian Dollar Trust Message Board Posts\u000ahttps://t.co/UOH1VFQ7hy\u000a\u000a$FXC $PNQI $FDN $QIHU #FXC #finance #share
p1577
sg14
Vhttp://dlvr.it
p1578
sg16
I00
sg17
I00
sg18
Nsg19
g0
(g20
g5
Ntp1579
Rp1580
(dp1581
g24
I00
sg25
I00
sg26
I01
sg27
VDDEEF6
p1582
sg29
L2181346825L
sg30
I00
sg31
(dp1583
g45
(dp1584
g35
(lp1585
sssg48
Vhttps://pbs.twimg.com/profile_images/378800000709659546/46e4755f6de118b51f9a6c379f7710e2_normal.jpeg
p1586
sg50
(dp1587
g52
I00
sg53
I00
sg54
I01
sg55
I00
sg56
L2181346825L
sg57
Vhttps://abs.twimg.com/images/themes/theme1/bg.png
p1588
sg59
I00
sg60
V333333
p1589
sg62
g1586
sg63
g1582
sg64
g1583
sg65
I612
sg66
V000000
p1590
sg68
V2181346825
p1591
sg70
V122D3B
p1592
sg72
I166
sg73
I00
sg74
I-21600
sg75
I155892
sg45
VWatching the stock market.
p1593
sg77
I450
sg78
g296
sg80
V0084B4
p1594
sg82
Vhttp://pbs.twimg.com/profile_images/378800000709659546/46e4755f6de118b51f9a6c379f7710e2_normal.jpeg
p1595
sg84
I00
sg85
I00
sg88
Vhttp://abs.twimg.com/images/themes/theme1/bg.png
p1596
sg90
VJim5011
p1597
sg92
Ven
p1598
sg94
I00
sg95
I0
sg96
Vjim50
p1599
sg98
I00
sg33
Nsg100
VFri Nov 08 03:07:43 +0000 2013
p1600
sg102
I00
sg103
VCentral Time (US & Canada)
p1601
sg105
I00
sg106
I00
sg107
I00
ssg108
I00
sg109
g1589
sg110
I612
sg111
g1590
sg112
g1591
sg113
I00
sg114
I166
sg115
I00
sg116
I-21600
sg117
I155892
sg118
g1593
sg119
I450
sg120
g296
sg121
g1594
sg122
g1595
sg123
I00
sg124
I00
sg125
g1592
sg127
g1596
sg128
g1597
sg129
g1598
sg130
I00
sg131
I00
sg132
I0
sg133
g1599
sg134
Nsg135
g136
(S'\x07\xdd\x0b\x08\x03\x07+\x00\x00\x00'
p1602
tp1603
Rp1604
sg140
g1588
sg141
g1601
sg142
I00
sg143
I00
sg144
I00
sbsg145
Nsg29
L663078228769157120L
sg146
I0
sg147
Vdlvr.it
p1605
sg129
Ven
p1606
sg150
g1580
sg135
g136
(S"\x07\xdf\x0b\x07\x13'\x03\x00\x00\x00"
p1607
tp1608
Rp1609
sg50
(dp1610
g155
Nsg156
I00
sg157
VFXC Currency Shares Canadian Dollar Trust Message Board Posts\u000ahttps://t.co/UOH1VFQ7hy\u000a\u000a$FXC $PNQI $FDN $QIHU #FXC #finance #share
p1611
sg158
I00
sg159
Nsg56
L663078228769157120L
sg160
I0
sg161
V<a href="http://dlvr.it" rel="nofollow">dlvr.it</a>
p1612
sg163
I00
sg164
Nsg64
(dp1613
g166
(lp1614
(dp1615
g39
(lp1616
I87
aI91
asg157
VFXC
p1617
sa(dp1618
g39
(lp1619
I92
aI97
asg157
VPNQI
p1620
sa(dp1621
g39
(lp1622
I98
aI102
asg157
VFDN
p1623
sa(dp1624
g39
(lp1625
I103
aI108
asg157
VQIHU
p1626
sasg183
(lp1627
sg185
(lp1628
(dp1629
g39
(lp1630
I109
aI113
asg157
VFXC
p1631
sa(dp1632
g39
(lp1633
I114
aI122
asg157
Vfinance
p1634
sa(dp1635
g39
(lp1636
I123
aI129
asg157
Vshare
p1637
sasg35
(lp1638
(dp1639
g33
Vhttps://t.co/UOH1VFQ7hy
p1640
sg39
(lp1641
I62
aI85
asg41
Vhttp://dlvr.it/CgrLJm
p1642
sg43
Vdlvr.it/CgrLJm
p1643
sassg193
Nsg194
Nsg195
I0
sg68
V663078228769157120
p1644
sg197
I00
sg198
g1587
sg199
Nsg200
Nsg201
I00
sg92
g1606
sg100
VSat Nov 07 19:39:03 +0000 2015
p1645
sg203
Nsg204
Nsg205
(dp1646
g207
Ven
p1647
sg209
Vrecent
p1648
sssg211
g1646
sg212
Nsg213
Nsg31
g1613
sg214
Nsg215
Nsg112
g1644
sg216
I00
sg217
Nsg218
I0
sg219
Nsbag0
(g4
g5
Ntp1649
Rp1650
(dp1651
g9
I00
sg10
Nsg11
I00
sg12
VPNQI PowerShares NASDAQ Internet Portfolio Day High\u000ahttps://t.co/siaalXzfUN\u000a\u000a$PNQI $RAI $EEM $COP #PNQI #stockmarket #investing
p1652
sg14
Vhttp://dlvr.it
p1653
sg16
I00
sg17
I00
sg18
Nsg19
g0
(g20
g5
Ntp1654
Rp1655
(dp1656
g24
I00
sg25
I00
sg26
I01
sg27
VDDEEF6
p1657
sg29
L2579477766L
sg30
I00
sg31
(dp1658
g45
(dp1659
g35
(lp1660
sssg48
Vhttps://pbs.twimg.com/profile_images/480141663583477760/H21c7Bur_normal.png
p1661
sg50
(dp1662
g52
I00
sg53
I00
sg54
I01
sg55
I00
sg56
L2579477766L
sg57
Vhttps://abs.twimg.com/images/themes/theme1/bg.png
p1663
sg59
I00
sg60
V333333
p1664
sg62
g1661
sg63
g1657
sg64
g1658
sg65
I13262
sg66
VC0DEED
p1665
sg68
V2579477766
p1666
sg70
VC0DEED
p1667
sg72
I185
sg73
I00
sg74
Nsg75
I376289
sg45
g296
sg77
I426
sg78
g296
sg80
V0084B4
p1668
sg82
Vhttp://pbs.twimg.com/profile_images/480141663583477760/H21c7Bur_normal.png
p1669
sg84
I00
sg85
I00
sg88
Vhttp://abs.twimg.com/images/themes/theme1/bg.png
p1670
sg90
VIHPosts2
p1671
sg92
Ven
p1672
sg94
I00
sg95
I0
sg96
VInvestors Hangout
p1673
sg98
I00
sg33
Nsg100
VSat Jun 21 00:11:54 +0000 2014
p1674
sg102
I00
sg103
Nsg105
I00
sg106
I01
sg107
I00
ssg108
I00
sg109
g1664
sg110
I13262
sg111
g1665
sg112
g1666
sg113
I00
sg114
I185
sg115
I00
sg116
Nsg117
I376289
sg118
g296
sg119
I426
sg120
g296
sg121
g1668
sg122
g1669
sg123
I00
sg124
I00
sg125
g1667
sg127
g1670
sg128
g1671
sg129
g1672
sg130
I00
sg131
I00
sg132
I0
sg133
g1673
sg134
Nsg135
g136
(S'\x07\xde\x06\x15\x00\x0b6\x00\x00\x00'
p1675
tp1676
Rp1677
sg140
g1663
sg141
Nsg142
I00
sg143
I01
sg144
I00
sbsg145
Nsg29
L663049680368984064L
sg146
I0
sg147
Vdlvr.it
p1678
sg129
Ven
p1679
sg150
g1655
sg135
g136
(S'\x07\xdf\x0b\x07\x11-%\x00\x00\x00'
p1680
tp1681
Rp1682
sg50
(dp1683
g155
Nsg156
I00
sg157
VPNQI PowerShares NASDAQ Internet Portfolio Day High\u000ahttps://t.co/siaalXzfUN\u000a\u000a$PNQI $RAI $EEM $COP #PNQI #stockmarket #investing
p1684
sg158
I00
sg159
Nsg56
L663049680368984064L
sg160
I0
sg161
V<a href="http://dlvr.it" rel="nofollow">dlvr.it</a>
p1685
sg163
I00
sg164
Nsg64
(dp1686
g166
(lp1687
(dp1688
g39
(lp1689
I77
aI82
asg157
VPNQI
p1690
sa(dp1691
g39
(lp1692
I83
aI87
asg157
VRAI
p1693
sa(dp1694
g39
(lp1695
I88
aI92
asg157
VEEM
p1696
sa(dp1697
g39
(lp1698
I93
aI97
asg157
VCOP
p1699
sasg183
(lp1700
sg185
(lp1701
(dp1702
g39
(lp1703
I98
aI103
asg157
VPNQI
p1704
sa(dp1705
g39
(lp1706
I104
aI116
asg157
Vstockmarket
p1707
sa(dp1708
g39
(lp1709
I117
aI127
asg157
Vinvesting
p1710
sasg35
(lp1711
(dp1712
g33
Vhttps://t.co/siaalXzfUN
p1713
sg39
(lp1714
I52
aI75
asg41
Vhttp://dlvr.it/CgpjMs
p1715
sg43
Vdlvr.it/CgpjMs
p1716
sassg193
Nsg194
Nsg195
I0
sg68
V663049680368984064
p1717
sg197
I00
sg198
g1662
sg199
Nsg200
Nsg201
I00
sg92
g1679
sg100
VSat Nov 07 17:45:37 +0000 2015
p1718
sg203
Nsg204
Nsg205
(dp1719
g207
Ven
p1720
sg209
Vrecent
p1721
sssg211
g1719
sg212
Nsg213
Nsg31
g1686
sg214
Nsg215
Nsg112
g1717
sg216
I00
sg217
Nsg218
I0
sg219
Nsbag0
(g4
g5
Ntp1722
Rp1723
(dp1724
g9
I00
sg10
Nsg11
I00
sg12
VFITX Creative Edge Nutrition, Inc. Day High\u000ahttps://t.co/QCqmLKfy2b\u000a\u000a$FITX $PNQI $ACN $FDX #FITX #share #nasdaq
p1725
sg14
Vhttp://dlvr.it
p1726
sg16
I00
sg17
I00
sg18
Nsg19
g0
(g20
g5
Ntp1727
Rp1728
(dp1729
g24
I00
sg25
I00
sg26
I01
sg27
V252429
p1730
sg29
L2196900553L
sg30
I00
sg31
(dp1731
g45
(dp1732
g35
(lp1733
sssg48
Vhttps://pbs.twimg.com/profile_images/378800000745151428/fb47b9b6781fd915df9a57670368f140_normal.jpeg
p1734
sg50
(dp1735
g52
I00
sg53
I00
sg54
I01
sg55
I00
sg56
L2196900553L
sg57
Vhttps://abs.twimg.com/images/themes/theme9/bg.gif
p1736
sg59
I00
sg60
V666666
p1737
sg62
g1734
sg63
g1730
sg64
g1731
sg65
I621
sg66
V181A1E
p1738
sg68
V2196900553
p1739
sg70
V1A1B1F
p1740
sg72
I166
sg73
I00
sg74
Nsg75
I128414
sg45
VNasdaq Fan
p1741
sg77
I452
sg78
g296
sg80
V2FC2EF
p1742
sg82
Vhttp://pbs.twimg.com/profile_images/378800000745151428/fb47b9b6781fd915df9a57670368f140_normal.jpeg
p1743
sg84
I00
sg85
I00
sg88
Vhttp://abs.twimg.com/images/themes/theme9/bg.gif
p1744
sg90
Vnasdaqfan
p1745
sg92
Ven
p1746
sg94
I00
sg95
I0
sg96
Vnasdaqfan
p1747
sg98
I00
sg33
Nsg100
VSat Nov 16 01:26:30 +0000 2013
p1748
sg102
I00
sg103
Nsg105
I00
sg106
I00
sg107
I00
ssg108
I00
sg109
g1737
sg110
I621
sg111
g1738
sg112
g1739
sg113
I00
sg114
I166
sg115
I00
sg116
Nsg117
I128414
sg118
g1741
sg119
I452
sg120
g296
sg121
g1742
sg122
g1743
sg123
I00
sg124
I00
sg125
g1740
sg127
g1744
sg128
g1745
sg129
g1746
sg130
I00
sg131
I00
sg132
I0
sg133
g1747
sg134
Nsg135
g136
(S'\x07\xdd\x0b\x10\x01\x1a\x1e\x00\x00\x00'
p1749
tp1750
Rp1751
sg140
g1736
sg141
Nsg142
I00
sg143
I00
sg144
I00
sbsg145
Nsg29
L663047928068489217L
sg146
I0
sg147
Vdlvr.it
p1752
sg129
Ven
p1753
sg150
g1728
sg135
g136
(S"\x07\xdf\x0b\x07\x11&'\x00\x00\x00"
p1754
tp1755
Rp1756
sg50
(dp1757
g155
Nsg156
I00
sg157
VFITX Creative Edge Nutrition, Inc. Day High\u000ahttps://t.co/QCqmLKfy2b\u000a\u000a$FITX $PNQI $ACN $FDX #FITX #share #nasdaq
p1758
sg158
I00
sg159
Nsg56
L663047928068489217L
sg160
I0
sg161
V<a href="http://dlvr.it" rel="nofollow">dlvr.it</a>
p1759
sg163
I00
sg164
Nsg64
(dp1760
g166
(lp1761
(dp1762
g39
(lp1763
I69
aI74
asg157
VFITX
p1764
sa(dp1765
g39
(lp1766
I75
aI80
asg157
VPNQI
p1767
sa(dp1768
g39
(lp1769
I81
aI85
asg157
VACN
p1770
sa(dp1771
g39
(lp1772
I86
aI90
asg157
VFDX
p1773
sasg183
(lp1774
sg185
(lp1775
(dp1776
g39
(lp1777
I91
aI96
asg157
VFITX
p1778
sa(dp1779
g39
(lp1780
I97
aI103
asg157
Vshare
p1781
sa(dp1782
g39
(lp1783
I104
aI111
asg157
Vnasdaq
p1784
sasg35
(lp1785
(dp1786
g33
Vhttps://t.co/QCqmLKfy2b
p1787
sg39
(lp1788
I44
aI67
asg41
Vhttp://dlvr.it/Cgpjr3
p1789
sg43
Vdlvr.it/Cgpjr3
p1790
sassg193
Nsg194
Nsg195
I0
sg68
V663047928068489217
p1791
sg197
I00
sg198
g1735
sg199
Nsg200
Nsg201
I00
sg92
g1753
sg100
VSat Nov 07 17:38:39 +0000 2015
p1792
sg203
Nsg204
Nsg205
(dp1793
g207
Ven
p1794
sg209
Vrecent
p1795
sssg211
g1793
sg212
Nsg213
Nsg31
g1760
sg214
Nsg215
Nsg112
g1791
sg216
I00
sg217
Nsg218
I0
sg219
Nsbag0
(g4
g5
Ntp1796
Rp1797
(dp1798
g9
I00
sg10
Nsg11
I00
sg12
V$TRIP Crosses Below Key Moving Average Level $PNQI #stocks https://t.co/811w2IsFGz
p1799
sg14
Vhttp://twitterfeed.com
p1800
sg16
I00
sg17
I00
sg18
Nsg19
g0
(g20
g5
Ntp1801
Rp1802
(dp1803
g24
I00
sg25
I00
sg26
I01
sg27
VDDEEF6
p1804
sg29
L2497045194L
sg30
I00
sg31
(dp1805
g33
(dp1806
g35
(lp1807
(dp1808
g33
Vhttp://t.co/xYjWM2BnE0
p1809
sg39
(lp1810
I0
aI22
asg41
Vhttp://www.bnkinvest.com/
p1811
sg43
Vbnkinvest.com
p1812
sassg45
(dp1813
g35
(lp1814
sssg48
Vhttps://pbs.twimg.com/profile_images/467032110692188160/UcN8PrzR_normal.jpeg
p1815
sg50
(dp1816
g52
I00
sg53
I00
sg54
I01
sg55
I00
sg56
L2497045194L
sg57
Vhttps://abs.twimg.com/images/themes/theme1/bg.png
p1817
sg59
I00
sg60
V333333
p1818
sg62
g1815
sg63
g1804
sg64
g1805
sg65
I742
sg66
VC0DEED
p1819
sg68
V2497045194
p1820
sg70
VC0DEED
p1821
sg72
I44
sg73
I00
sg74
I-18000
sg75
I37643
sg45
VBNK Invest owns and operates a variety of financial web sites including DividendChannel, ETFChannel, StockOptionsChannel, and others.
p1822
sg77
I1190
sg78
VNew York
p1823
sg80
V0084B4
p1824
sg82
Vhttp://pbs.twimg.com/profile_images/467032110692188160/UcN8PrzR_normal.jpeg
p1825
sg84
I00
sg85
I00
sg86
Vhttps://pbs.twimg.com/profile_banners/2497045194/1400248423
p1826
sg88
Vhttp://abs.twimg.com/images/themes/theme1/bg.png
p1827
sg90
Vbnkinvest
p1828
sg92
Ven
p1829
sg94
I00
sg95
I0
sg96
VBNK Invest
p1830
sg98
I00
sg33
Vhttp://t.co/xYjWM2BnE0
p1831
sg100
VThu May 15 19:58:09 +0000 2014
p1832
sg102
I00
sg103
VEastern Time (US & Canada)
p1833
sg105
I00
sg106
I01
sg107
I00
ssg108
I00
sg109
g1818
sg110
I742
sg111
g1819
sg112
g1820
sg113
I00
sg114
I44
sg115
I00
sg116
I-18000
sg117
I37643
sg118
g1822
sg119
I1190
sg120
g1823
sg121
g1824
sg122
g1825
sg123
I00
sg124
I00
sg125
g1821
sg126
g1826
sg127
g1827
sg128
g1828
sg129
g1829
sg130
I00
sg131
I00
sg132
I0
sg133
g1830
sg134
g1831
sg135
g136
(S'\x07\xde\x05\x0f\x13:\t\x00\x00\x00'
p1834
tp1835
Rp1836
sg140
g1817
sg141
g1833
sg142
I00
sg143
I01
sg144
I00
sbsg145
Nsg29
L662722259526639616L
sg146
I0
sg147
Vtwitterfeed
p1837
sg129
Ven
p1838
sg150
g1802
sg135
g136
(S'\x07\xdf\x0b\x06\x14\x04"\x00\x00\x00'
p1839
tp1840
Rp1841
sg50
(dp1842
g155
Nsg156
I00
sg157
g1799
sg158
I00
sg159
Nsg56
L662722259526639616L
sg160
I0
sg161
V<a href="http://twitterfeed.com" rel="nofollow">twitterfeed</a>
p1843
sg163
I00
sg164
Nsg64
(dp1844
g166
(lp1845
(dp1846
g39
(lp1847
I0
aI5
asg157
VTRIP
p1848
sa(dp1849
g39
(lp1850
I45
aI50
asg157
VPNQI
p1851
sasg183
(lp1852
sg185
(lp1853
(dp1854
g39
(lp1855
I51
aI58
asg157
Vstocks
p1856
sasg35
(lp1857
(dp1858
g33
Vhttps://t.co/811w2IsFGz
p1859
sg39
(lp1860
I59
aI82
asg41
Vhttp://bit.ly/1HxEQN7
p1861
sg43
Vbit.ly/1HxEQN7
p1862
sassg193
Nsg194
Nsg195
I0
sg68
V662722259526639616
p1863
sg197
I00
sg198
g1816
sg199
Nsg200
Nsg201
I00
sg92
g1838
sg100
VFri Nov 06 20:04:34 +0000 2015
p1864
sg203
Nsg204
Nsg205
(dp1865
g207
Ven
p1866
sg209
Vrecent
p1867
sssg211
g1865
sg212
Nsg213
Nsg31
g1844
sg214
Nsg215
Nsg112
g1863
sg216
I00
sg217
Nsg218
I0
sg219
Nsbag0
(g4
g5
Ntp1868
Rp1869
(dp1870
g9
I00
sg10
Nsg11
I00
sg12
VRT @InvestorPlace: Investing in the Internet of Things Is a Profitable Venture\u000a$AAPL $GOOG $GOOGL $PNQI $IBM\u2026 https://t.co/Kv41suRgT9 https\u2026
p1871
sg14
Vhttp://twitter.com
p1872
sg16
I00
sg17
I00
sg18
Nsg19
g0
(g20
g5
Ntp1873
Rp1874
(dp1875
g24
I00
sg25
I00
sg26
I00
sg27
VF1755D
p1876
sg29
I48895012
sg30
I00
sg31
(dp1877
g33
(dp1878
g35
(lp1879
(dp1880
g33
Vhttp://t.co/aAx5psVHCW
p1881
sg39
(lp1882
I0
aI22
asg41
Vhttp://www.lizrows.com
p1883
sg43
Vlizrows.com
p1884
sassg45
(dp1885
g35
(lp1886
sssg48
Vhttps://pbs.twimg.com/profile_images/438832929394155520/pYhmjS52_normal.jpeg
p1887
sg50
(dp1888
g52
I00
sg53
I00
sg54
I00
sg55
I00
sg56
I48895012
sg57
Vhttps://pbs.twimg.com/profile_background_images/156463684/x0ed155b1321f67857d2eb7613671f8b.jpg
p1889
sg59
I00
sg60
V140705
p1890
sg62
g1887
sg63
g1876
sg64
g1877
sg65
I265
sg66
VFC0011
p1891
sg68
V48895012
p1892
sg70
V98D9B5
p1893
sg72
I14
sg73
I00
sg74
I-21600
sg75
I2192
sg45
VIBMer, Social Media Geek, Ocean Rower, Guinness World Record Holder. All thoughts are my own.
p1894
sg77
I361
sg78
VNew York
p1895
sg80
V05FAAA
p1896
sg82
Vhttp://pbs.twimg.com/profile_images/438832929394155520/pYhmjS52_normal.jpeg
p1897
sg84
I00
sg85
I01
sg86
Vhttps://pbs.twimg.com/profile_banners/48895012/1393460897
p1898
sg88
Vhttp://pbs.twimg.com/profile_background_images/156463684/x0ed155b1321f67857d2eb7613671f8b.jpg
p1899
sg90
VLizRows
p1900
sg92
Ven
p1901
sg94
I00
sg95
I41
sg96
VLizRows
p1902
sg98
I00
sg33
Vhttp://t.co/aAx5psVHCW
p1903
sg100
VSat Jun 20 01:51:57 +0000 2009
p1904
sg102
I00
sg103
VCentral Time (US & Canada)
p1905
sg105
I00
sg106
I00
sg107
I00
ssg108
I00
sg109
g1890
sg110
I265
sg111
g1891
sg112
g1892
sg113
I00
sg114
I14
sg115
I00
sg116
I-21600
sg117
I2192
sg118
g1894
sg119
I361
sg120
g1895
sg121
g1896
sg122
g1897
sg123
I00
sg124
I01
sg125
g1893
sg126
g1898
sg127
g1899
sg128
g1900
sg129
g1901
sg130
I00
sg131
I00
sg132
I41
sg133
g1902
sg134
g1903
sg135
g136
(S'\x07\xd9\x06\x14\x0139\x00\x00\x00'
p1906
tp1907
Rp1908
sg140
g1889
sg141
g1905
sg142
I00
sg143
I00
sg144
I00
sbsg145
Nsg29
L661991421977694208L
sg146
I0
sg147
VTwitter Web Client
p1909
sg129
Ven
p1910
sg263
g0
(g4
g5
Ntp1911
Rp1912
(dp1913
g9
I00
sg10
Nsg11
I00
sg12
VInvesting in the Internet of Things Is a Profitable Venture\u000a$AAPL $GOOG $GOOGL $PNQI $IBM\u2026 https://t.co/Kv41suRgT9 https://t.co/81d5nmX476
p1914
sg14
Vhttp://publicize.wp.com/
p1915
sg16
I00
sg17
I00
sg18
Nsg19
g0
(g20
g5
Ntp1916
Rp1917
(dp1918
g24
I00
sg25
I00
sg26
I01
sg27
VEFEFEF
p1919
sg29
I14933262
sg30
I00
sg31
(dp1920
g33
(dp1921
g35
(lp1922
(dp1923
g33
Vhttp://t.co/CJM87Rmpyb
p1924
sg39
(lp1925
I0
aI22
asg41
Vhttp://investorplace.com
p1926
sg43
Vinvestorplace.com
p1927
sassg45
(dp1928
g35
(lp1929
sssg48
Vhttps://pbs.twimg.com/profile_images/1119837291/globe_normal.png
p1930
sg50
(dp1931
g52
I00
sg53
I00
sg54
I01
sg55
I00
sg56
I14933262
sg57
Vhttps://pbs.twimg.com/profile_background_images/206628072/IP-TwitterTemplate-v3.5.PNG
p1932
sg59
I00
sg60
V333333
p1933
sg62
g1930
sg63
g1919
sg64
g1920
sg65
I5625
sg66
VEEEEEE
p1934
sg68
V14933262
p1935
sg70
V01050F
p1936
sg72
I217
sg73
I00
sg74
I-18000
sg75
I31065
sg45
VWe provide investors with access to free stock picks and sharp, actionable commentary to help you reach your financial dreams.
p1937
sg77
I611
sg78
VRockville, MD
p1938
sg80
V0B2B8C
p1939
sg82
Vhttp://pbs.twimg.com/profile_images/1119837291/globe_normal.png
p1940
sg84
I00
sg85
I01
sg88
Vhttp://pbs.twimg.com/profile_background_images/206628072/IP-TwitterTemplate-v3.5.PNG
p1941
sg90
VInvestorPlace
p1942
sg92
Ven
p1943
sg94
I00
sg95
I217
sg96
VInvestorPlace
p1944
sg98
I00
sg33
Vhttp://t.co/CJM87Rmpyb
p1945
sg100
VWed May 28 12:58:06 +0000 2008
p1946
sg102
I00
sg103
VEastern Time (US & Canada)
p1947
sg105
I00
sg106
I00
sg107
I00
ssg108
I00
sg109
g1933
sg110
I5625
sg111
g1934
sg112
g1935
sg113
I00
sg114
I217
sg115
I00
sg116
I-18000
sg117
I31065
sg118
g1937
sg119
I611
sg120
g1938
sg121
g1939
sg122
g1940
sg123
I00
sg124
I01
sg125
g1936
sg127
g1941
sg128
g1942
sg129
g1943
sg130
I00
sg131
I00
sg132
I217
sg133
g1944
sg134
g1945
sg135
g136
(S'\x07\xd8\x05\x1c\x0c:\x06\x00\x00\x00'
p1948
tp1949
Rp1950
sg140
g1932
sg141
g1947
sg142
I00
sg143
I00
sg144
I00
sbsg145
Nsg29
L659739219653341184L
sg146
I2
sg147
VWordPress.com
p1951
sg129
Ven
p1952
sg150
g1917
sg135
g136
(S'\x07\xdf\n\x1d\x0e\x1f\x01\x00\x00\x00'
p1953
tp1954
Rp1955
sg50
(dp1956
g155
Nsg156
I00
sg157
VInvesting in the Internet of Things Is a Profitable Venture\u000a$AAPL $GOOG $GOOGL $PNQI $IBM\u2026 https://t.co/Kv41suRgT9 https://t.co/81d5nmX476
p1957
sg158
I00
sg159
Nsg56
L659739219653341184L
sg160
I2
sg161
V<a href="http://publicize.wp.com/" rel="nofollow">WordPress.com</a>
p1958
sg163
I00
sg164
Nsg64
(dp1959
g166
(lp1960
(dp1961
g39
(lp1962
I60
aI65
asg157
VAAPL
p1963
sa(dp1964
g39
(lp1965
I66
aI71
asg157
VGOOG
p1966
sa(dp1967
g39
(lp1968
I72
aI78
asg157
VGOOGL
p1969
sa(dp1970
g39
(lp1971
I79
aI84
asg157
VPNQI
p1972
sasg183
(lp1973
sg185
(lp1974
sg35
(lp1975
(dp1976
g33
Vhttps://t.co/Kv41suRgT9
p1977
sg39
(lp1978
I91
aI114
asg41
Vhttp://investorplace.com/2015/10/investing-internet-things/
p1979
sg43
Vinvestorplace.com/2015/10/invest\u2026
p1980
sasVmedia
p1981
(lp1982
(dp1983
g41
Vhttp://twitter.com/InvestorPlace/status/659739219653341184/photo/1
p1984
sg43
Vpic.twitter.com/81d5nmX476
p1985
sg33
Vhttps://t.co/81d5nmX476
p1986
sVmedia_url_https
p1987
Vhttps://pbs.twimg.com/media/CSfdUsUUsAALjAd.png
p1988
sg68
V659739217996591104
p1989
sVsizes
p1990
(dp1991
Vsmall
p1992
(dp1993
Vh
p1994
I300
sVresize
p1995
Vfit
p1996
sVw
p1997
I285
ssVlarge
p1998
(dp1999
g1994
I300
sg1995
Vfit
p2000
sg1997
I285
ssVmedium
p2001
(dp2002
g1994
I300
sg1995
Vfit
p2003
sg1997
I285
ssVthumb
p2004
(dp2005
g1994
I150
sg1995
Vcrop
p2006
sg1997
I150
sssg39
(lp2007
I115
aI138
asVtype
p2008
Vphoto
p2009
sg56
L659739217996591104L
sVmedia_url
p2010
Vhttp://pbs.twimg.com/media/CSfdUsUUsAALjAd.png
p2011
sassg193
Nsg194
Nsg195
I2
sg68
V659739219653341184
p2012
sg197
I00
sg198
g1931
sg199
Nsg200
Nsg201
I00
sg92
g1952
sg100
VThu Oct 29 14:31:01 +0000 2015
p2013
sg203
Nsg204
Nsg205
(dp2014
g207
Ven
p2015
sg209
Vrecent
p2016
sssg211
g2014
sg212
Nsg213
Nsg31
g1959
sg214
Nsg215
Nsg112
g2012
sg216
I00
sg217
Nsg218
I2
sg219
Nsbsg150
g1874
sg135
g136
(S'\x07\xdf\x0b\x04\x13(\x1c\x00\x00\x00'
p2017
tp2018
Rp2019
sg50
(dp2020
g155
Nsg156
I00
sg157
VRT @InvestorPlace: Investing in the Internet of Things Is a Profitable Venture\u000a$AAPL $GOOG $GOOGL $PNQI $IBM\u2026 https://t.co/Kv41suRgT9 https\u2026
p2021
sg158
I00
sg159
Nsg56
L661991421977694208L
sg160
I0
sg161
V<a href="http://twitter.com" rel="nofollow">Twitter Web Client</a>
p2022
sg163
I00
sg164
Nsg64
(dp2023
g166
(lp2024
(dp2025
g39
(lp2026
I79
aI84
asg157
VAAPL
p2027
sa(dp2028
g39
(lp2029
I85
aI90
asg157
VGOOG
p2030
sa(dp2031
g39
(lp2032
I91
aI97
asg157
VGOOGL
p2033
sa(dp2034
g39
(lp2035
I98
aI103
asg157
VPNQI
p2036
sasg183
(lp2037
(dp2038
g56
I14933262
sg39
(lp2039
I3
aI17
asg68
V14933262
p2040
sg90
VInvestorPlace
p2041
sg96
VInvestorPlace
p2042
sasg185
(lp2043
sg35
(lp2044
(dp2045
g33
Vhttps://t.co/Kv41suRgT9
p2046
sg39
(lp2047
I110
aI133
asg41
Vhttp://investorplace.com/2015/10/investing-internet-things/
p2048
sg43
Vinvestorplace.com/2015/10/invest\u2026
p2049
sasg1981
(lp2050
(dp2051
Vsource_user_id
p2052
I14933262
sVsource_status_id_str
p2053
V659739219653341184
p2054
sg41
Vhttp://twitter.com/InvestorPlace/status/659739219653341184/photo/1
p2055
sg43
Vpic.twitter.com/81d5nmX476
p2056
sg33
Vhttps://t.co/81d5nmX476
p2057
sg1987
Vhttps://pbs.twimg.com/media/CSfdUsUUsAALjAd.png
p2058
sVsource_user_id_str
p2059
V14933262
p2060
sVsource_status_id
p2061
L659739219653341184L
sg68
V659739217996591104
p2062
sg1990
(dp2063
g1992
(dp2064
g1994
I300
sg1995
Vfit
p2065
sg1997
I285
ssg1998
(dp2066
g1994
I300
sg1995
Vfit
p2067
sg1997
I285
ssg2001
(dp2068
g1994
I300
sg1995
Vfit
p2069
sg1997
I285
ssg2004
(dp2070
g1994
I150
sg1995
Vcrop
p2071
sg1997
I150
sssg39
(lp2072
I139
aI140
asg2008
Vphoto
p2073
sg56
L659739217996591104L
sg2010
Vhttp://pbs.twimg.com/media/CSfdUsUUsAALjAd.png
p2074
sassg193
Nsg194
Nsg195
I2
sg68
V661991421977694208
p2075
sg197
I00
sg382
g1956
sg198
g1888
sg199
Nsg200
Nsg201
I00
sg92
g1910
sg100
VWed Nov 04 19:40:28 +0000 2015
p2076
sg203
Nsg204
Nsg205
(dp2077
g207
Ven
p2078
sg209
Vrecent
p2079
sssg211
g2077
sg212
Nsg213
Nsg31
g2023
sg214
Nsg215
Nsg112
g2075
sg216
I00
sg217
Nsg218
I2
sg219
Nsbag0
(g4
g5
Ntp2080
Rp2081
(dp2082
g9
I00
sg10
Nsg11
I00
sg12
VImp catalysts 4 MEIP &amp; CALA in d cmg week Here is DD 4 investors:https://t.co/lwSyWTxOEB $PNFP $PNI $PNK $PNM $PNNT $PNQI $PNR $PNRA
p2083
sg14
Vhttp://twittimer.com
p2084
sg16
I00
sg17
I00
sg18
Nsg19
g0
(g20
g5
Ntp2085
Rp2086
(dp2087
g24
I00
sg25
I01
sg26
I00
sg27
V000000
p2088
sg29
L3518191635L
sg30
I00
sg31
(dp2089
g33
(dp2090
g35
(lp2091
(dp2092
g33
Vhttps://t.co/ot2Kl5nyub
p2093
sg39
(lp2094
I0
aI23
asg41
Vhttps://groups.google.com/forum/#!forum/jbem777
p2095
sg43
Vgroups.google.com/forum/#!forum/\u2026
p2096
sassg45
(dp2097
g35
(lp2098
sssg48
Vhttps://pbs.twimg.com/profile_images/638885869433196544/C975RWXJ_normal.jpg
p2099
sg50
(dp2100
g52
I00
sg53
I01
sg54
I00
sg55
I00
sg56
L3518191635L
sg57
Vhttps://abs.twimg.com/images/themes/theme1/bg.png
p2101
sg59
I00
sg60
V000000
p2102
sg62
g2099
sg63
g2088
sg64
g2089
sg65
I28
sg66
V000000
p2103
sg68
V3518191635
p2104
sg70
V000000
p2105
sg72
I1
sg73
I00
sg74
I-28800
sg75
I1505
sg45
VHealthcare Stocks
p2106
sg77
I25
sg78
g296
sg80
V89C9FA
p2107
sg82
Vhttp://pbs.twimg.com/profile_images/638885869433196544/C975RWXJ_normal.jpg
p2108
sg84
I00
sg85
I00
sg88
Vhttp://abs.twimg.com/images/themes/theme1/bg.png
p2109
sg90
Vjbemstocks
p2110
sg92
Ven
p2111
sg94
I00
sg95
I0
sg96
VDUE DILIGENCE
p2112
sg98
I00
sg33
Vhttps://t.co/ot2Kl5nyub
p2113
sg100
VWed Sep 02 01:23:46 +0000 2015
p2114
sg102
I00
sg103
VPacific Time (US & Canada)
p2115
sg105
I00
sg106
I00
sg107
I00
ssg108
I00
sg109
g2102
sg110
I28
sg111
g2103
sg112
g2104
sg113
I00
sg114
I1
sg115
I00
sg116
I-28800
sg117
I1505
sg118
g2106
sg119
I25
sg120
g296
sg121
g2107
sg122
g2108
sg123
I00
sg124
I00
sg125
g2105
sg127
g2109
sg128
g2110
sg129
g2111
sg130
I00
sg131
I00
sg132
I0
sg133
g2112
sg134
g2113
sg135
g136
(S'\x07\xdf\t\x02\x01\x17.\x00\x00\x00'
p2116
tp2117
Rp2118
sg140
g2101
sg141
g2115
sg142
I00
sg143
I00
sg144
I00
sbsg145
Nsg29
L661937208601915392L
sg146
I0
sg147
VTwittimer
p2119
sg129
Vin
p2120
sg150
g2086
sg135
g136
(S'\x07\xdf\x0b\x04\x10\x05\x03\x00\x00\x00'
p2121
tp2122
Rp2123
sg50
(dp2124
g155
Nsg156
I00
sg157
g2083
sg158
I00
sg159
Nsg56
L661937208601915392L
sg160
I0
sg161
V<a href="http://twittimer.com" rel="nofollow">Twittimer</a>
p2125
sg163
I00
sg164
Nsg64
(dp2126
g166
(lp2127
(dp2128
g39
(lp2129
I93
aI98
asg157
VPNFP
p2130
sa(dp2131
g39
(lp2132
I99
aI103
asg157
VPNI
p2133
sa(dp2134
g39
(lp2135
I104
aI108
asg157
VPNK
p2136
sa(dp2137
g39
(lp2138
I109
aI113
asg157
VPNM
p2139
sa(dp2140
g39
(lp2141
I114
aI119
asg157
VPNNT
p2142
sa(dp2143
g39
(lp2144
I120
aI125
asg157
VPNQI
p2145
sa(dp2146
g39
(lp2147
I126
aI130
asg157
VPNR
p2148
sa(dp2149
g39
(lp2150
I131
aI136
asg157
VPNRA
p2151
sasg183
(lp2152
sg185
(lp2153
sg35
(lp2154
(dp2155
g33
Vhttps://t.co/lwSyWTxOEB
p2156
sg39
(lp2157
I69
aI92
asg41
Vhttp://bit.ly/1KjZ8cR
p2158
sg43
Vbit.ly/1KjZ8cR
p2159
sassg193
Nsg194
Nsg195
I0
sg68
V661937208601915392
p2160
sg197
I00
sg198
g2100
sg199
Nsg200
Nsg201
I00
sg92
g2120
sg100
VWed Nov 04 16:05:03 +0000 2015
p2161
sg203
Nsg204
Nsg205
(dp2162
g207
Vin
p2163
sg209
Vrecent
p2164
sssg211
g2162
sg212
Nsg213
Nsg31
g2126
sg214
Nsg215
Nsg112
g2160
sg216
I00
sg217
Nsg218
I0
sg219
Nsbag0
(g4
g5
Ntp2165
Rp2166
(dp2167
g9
I00
sg10
Nsg11
I00
sg12
VDon&amp;#x27;t Bother With Small-Cap Growth ETFs - Invest In The Internet Instead https://t.co/NLA8s3ohNC $SCZ $EFG $PNQI
p2168
sg14
Vhttp://twitter.com
p2169
sg16
I00
sg17
I00
sg18
Nsg19
g0
(g20
g5
Ntp2170
Rp2171
(dp2172
g24
I00
sg25
I00
sg26
I01
sg27
VFFFFFF
p2173
sg29
I322054650
sg30
I00
sg31
(dp2174
g33
(dp2175
g35
(lp2176
(dp2177
g33
Vhttp://t.co/WY7W7zafSS
p2178
sg39
(lp2179
I0
aI22
asg41
Vhttp://pelias01.wordpress.com
p2180
sg43
Vpelias01.wordpress.com
p2181
sassg45
(dp2182
g35
(lp2183
sssg48
Vhttps://pbs.twimg.com/profile_images/1408052895/ale_normal.png
p2184
sg50
(dp2185
g52
I00
sg53
I00
sg54
I01
sg55
I00
sg56
I322054650
sg57
Vhttps://pbs.twimg.com/profile_background_images/609098533690572800/4r0shM0A.jpg
p2186
sg59
I00
sg60
V3F221A
p2187
sg62
g2184
sg63
g2173
sg64
g2174
sg65
I2649
sg66
VA07B44
p2188
sg68
V322054650
p2189
sg70
VFFFFFF
p2190
sg72
I357
sg73
I00
sg74
I3600
sg75
I356027
sg45
VIndependent Financial Consultant. Finance, investing. Also FX, geopolitics and other interesting stuff. Currently trying to relocate as a financial journalist.
p2191
sg77
I1240
sg78
VLivorno
p2192
sg80
V0D1047
p2193
sg82
Vhttp://pbs.twimg.com/profile_images/1408052895/ale_normal.png
p2194
sg84
I00
sg85
I01
sg86
Vhttps://pbs.twimg.com/profile_banners/322054650/1427819738
p2195
sg88
Vhttp://pbs.twimg.com/profile_background_images/609098533690572800/4r0shM0A.jpg
p2196
sg90
Vpelias01
p2197
sg92
Vit
p2198
sg94
I00
sg95
I472
sg96
VAlessandro
p2199
sg98
I00
sg33
Vhttp://t.co/WY7W7zafSS
p2200
sg100
VWed Jun 22 15:26:50 +0000 2011
p2201
sg102
I00
sg103
VRome
p2202
sg105
I00
sg106
I00
sg107
I00
ssg108
I00
sg109
g2187
sg110
I2649
sg111
g2188
sg112
g2189
sg113
I00
sg114
I357
sg115
I00
sg116
I3600
sg117
I356027
sg118
g2191
sg119
I1240
sg120
g2192
sg121
g2193
sg122
g2194
sg123
I00
sg124
I01
sg125
g2190
sg126
g2195
sg127
g2196
sg128
g2197
sg129
g2198
sg130
I00
sg131
I00
sg132
I472
sg133
g2199
sg134
g2200
sg135
g136
(S'\x07\xdb\x06\x16\x0f\x1a2\x00\x00\x00'
p2203
tp2204
Rp2205
sg140
g2186
sg141
g2202
sg142
I00
sg143
I00
sg144
I00
sbsg145
Nsg29
L661552732218793984L
sg146
I0
sg147
VTwitter Web Client
p2206
sg129
Ven
p2207
sg150
g2171
sg135
g136
(S'\x07\xdf\x0b\x03\x0e%\x11\x00\x00\x00'
p2208
tp2209
Rp2210
sg50
(dp2211
g155
Nsg156
I00
sg157
g2168
sg158
I00
sg159
Nsg56
L661552732218793984L
sg160
I0
sg161
V<a href="http://twitter.com" rel="nofollow">Twitter Web Client</a>
p2212
sg163
I00
sg164
Nsg64
(dp2213
g166
(lp2214
(dp2215
g39
(lp2216
I106
aI110
asg157
VSCZ
p2217
sa(dp2218
g39
(lp2219
I111
aI115
asg157
VEFG
p2220
sa(dp2221
g39
(lp2222
I116
aI121
asg157
VPNQI
p2223
sasg183
(lp2224
sg185
(lp2225
(dp2226
g39
(lp2227
I8
aI12
asg157
Vx27
p2228
sasg35
(lp2229
(dp2230
g33
Vhttps://t.co/NLA8s3ohNC
p2231
sg39
(lp2232
I82
aI105
asg41
Vhttp://seekingalpha.com/article/3608706-dont-bother-with-small-cap-growth-etfs-invest-in-the-internet-instead?source=tweet
p2233
sg43
Vseekingalpha.com/article/360870\u2026
p2234
sassg193
Nsg194
Nsg195
I0
sg68
V661552732218793984
p2235
sg197
I00
sg198
g2185
sg199
Nsg200
Nsg201
I00
sg92
g2207
sg100
VTue Nov 03 14:37:17 +0000 2015
p2236
sg203
Nsg204
Nsg205
(dp2237
g207
Ven
p2238
sg209
Vrecent
p2239
sssg211
g2237
sg212
Nsg213
Nsg31
g2213
sg214
Nsg215
Nsg112
g2235
sg216
I00
sg217
Nsg218
I0
sg219
Nsbag0
(g4
g5
Ntp2240
Rp2241
(dp2242
g9
I00
sg10
Nsg11
I00
sg12
VFYI...select ETF 52-week highs yest: $QQQ Tech $IGM $MTK Internet $FDN $PNQI Lrg-Cap Growth $IVW Cons Disc $XLY HY Eq $PEY
p2243
sg14
Vhttp://stocktwits.com
p2244
sg17
I00
sg18
Nsg19
g0
(g20
g5
Ntp2245
Rp2246
(dp2247
g24
I00
sg25
I00
sg26
I01
sg27
VEBEBD3
p2248
sg29
I244248703
sg30
I00
sg31
(dp2249
g33
(dp2250
g35
(lp2251
(dp2252
g33
Vhttp://t.co/LKO4hUuvKI
p2253
sg39
(lp2254
I0
aI22
asg41
Vhttp://www.jlfmi.com
p2255
sg43
Vjlfmi.com
p2256
sassg45
(dp2257
g35
(lp2258
(dp2259
g33
Vhttp://t.co/Q3gFeyhuev
p2260
sg39
(lp2261
I26
aI48
asg41
Vhttp://My401kPro.com
p2262
sg43
VMy401kPro.com
p2263
sa(dp2264
g33
Vhttp://t.co/P5u4JJ69Q7
p2265
sg39
(lp2266
I75
aI97
asg41
Vhttp://jlfmi.tumblr.com
p2267
sg43
Vjlfmi.tumblr.com
p2268
sasssg48
Vhttps://pbs.twimg.com/profile_images/603133289772097538/2STDJPqR_normal.jpg
p2269
sg50
(dp2270
g52
I00
sg53
I00
sg54
I01
sg55
I00
sg56
I244248703
sg57
Vhttps://pbs.twimg.com/profile_background_images/199680741/jlfmi-newheader7B_rev3.jpg
p2271
sg59
I00
sg60
V0F0F0E
p2272
sg62
g2269
sg63
g2248
sg64
g2249
sg65
I4819
sg66
V90949C
p2273
sg68
V244248703
p2274
sg70
VFFFFFF
p2275
sg72
I219
sg73
I00
sg74
I-21600
sg75
I6995
sg45
VPartner@JLFMI,RIA&Founder http://t.co/Q3gFeyhuev YahooFinance Contributor: http://t.co/P5u4JJ69Q7 Husband,Father of 3(1,3&4) Wharton, PennFB Twts,RTs\u2260Recos
p2276
sg77
I220
sg78
VDeerfield, IL
p2277
sg80
V4071ED
p2278
sg82
Vhttp://pbs.twimg.com/profile_images/603133289772097538/2STDJPqR_normal.jpg
p2279
sg84
I00
sg85
I00
sg88
Vhttp://pbs.twimg.com/profile_background_images/199680741/jlfmi-newheader7B_rev3.jpg
p2280
sg90
VJLyonsFundMgmt
p2281
sg92
Ven
p2282
sg94
I00
sg95
I5786
sg96
VDana Lyons
p2283
sg98
I00
sg33
Vhttp://t.co/LKO4hUuvKI
p2284
sg100
VFri Jan 28 21:52:00 +0000 2011
p2285
sg102
I00
sg103
VCentral Time (US & Canada)
p2286
sg105
I00
sg106
I00
sg107
I00
ssg108
I00
sg109
g2272
sg110
I4819
sg111
g2273
sg112
g2274
sg113
I00
sg114
I219
sg115
I00
sg116
I-21600
sg117
I6995
sg118
g2276
sg119
I220
sg120
g2277
sg121
g2278
sg122
g2279
sg123
I00
sg124
I00
sg125
g2275
sg127
g2280
sg128
g2281
sg129
g2282
sg130
I00
sg131
I00
sg132
I5786
sg133
g2283
sg134
g2284
sg135
g136
(S'\x07\xdb\x01\x1c\x154\x00\x00\x00\x00'
p2287
tp2288
Rp2289
sg140
g2271
sg141
g2286
sg142
I00
sg143
I00
sg144
I00
sbsg145
Nsg29
L661540967229485056L
sg146
I1
sg147
VStockTwits Web
p2290
sg129
Ven
p2291
sg150
g2246
sg135
g136
(S'\x07\xdf\x0b\x03\r2 \x00\x00\x00'
p2292
tp2293
Rp2294
sg50
(dp2295
g155
Nsg156
I00
sg157
g2243
sg158
I00
sg159
Nsg56
L661540967229485056L
sg160
I1
sg161
V<a href="http://stocktwits.com" rel="nofollow">StockTwits Web</a>
p2296
sg163
I00
sg164
Nsg64
(dp2297
g166
(lp2298
(dp2299
g39
(lp2300
I37
aI41
asg157
VQQQ
p2301
sa(dp2302
g39
(lp2303
I47
aI51
asg157
VIGM
p2304
sa(dp2305
g39
(lp2306
I52
aI56
asg157
VMTK
p2307
sa(dp2308
g39
(lp2309
I66
aI70
asg157
VFDN
p2310
sa(dp2311
g39
(lp2312
I71
aI76
asg157
VPNQI
p2313
sa(dp2314
g39
(lp2315
I92
aI96
asg157
VIVW
p2316
sa(dp2317
g39
(lp2318
I107
aI111
asg157
VXLY
p2319
sa(dp2320
g39
(lp2321
I118
aI122
asg157
VPEY
p2322
sasg183
(lp2323
sg185
(lp2324
sg35
(lp2325
ssg193
Nsg194
Nsg195
I0
sg68
V661540967229485056
p2326
sg197
I00
sg198
g2270
sg199
Nsg200
Nsg92
g2291
sg100
VTue Nov 03 13:50:32 +0000 2015
p2327
sg203
Nsg204
Nsg205
(dp2328
g207
Ven
p2329
sg209
Vrecent
p2330
sssg211
g2328
sg212
Nsg213
Nsg31
g2297
sg214
Nsg215
Nsg112
g2326
sg216
I00
sg217
Nsg218
I0
sg219
Nsbag0
(g4
g5
Ntp2331
Rp2332
(dp2333
g9
I00
sg10
Nsg11
I00
sg12
VHow To Get Exposure To #Internet #Stocks Through ETFs $PNQI $QQQ $SOCL $FDN $SPY $CRM $LNKD $PYL $AMZN $EBAY $GOOG https://t.co/j7TV6FQQBT
p2334
sg14
Vhttp://www.talkmarkets.com
p2335
sg16
I00
sg17
I00
sg18
Nsg19
g0
(g20
g5
Ntp2336
Rp2337
(dp2338
g24
I00
sg25
I00
sg26
I01
sg27
VC0DFEC
p2339
sg29
I1001192245
sg30
I00
sg31
(dp2340
g33
(dp2341
g35
(lp2342
(dp2343
g33
Vhttp://t.co/iL0trK2OzM
p2344
sg39
(lp2345
I0
aI22
asg41
Vhttp://www.TalkMarkets.com
p2346
sg43
VTalkMarkets.com
p2347
sassg45
(dp2348
g35
(lp2349
sssg48
Vhttps://pbs.twimg.com/profile_images/378800000327180850/4f6d3ae1729ccc9d1d0414cb5359ed7a_normal.png
p2350
sg50
(dp2351
g52
I00
sg53
I00
sg54
I01
sg55
I00
sg56
I1001192245
sg57
Vhttps://abs.twimg.com/images/themes/theme15/bg.png
p2352
sg59
I00
sg60
V333333
p2353
sg62
g2350
sg63
g2339
sg64
g2340
sg65
I1197
sg66
VA8C7F7
p2354
sg68
V1001192245
p2355
sg70
V022330
p2356
sg72
I254
sg73
I00
sg74
I-18000
sg75
I53881
sg45
VFinancial content that\u2019s customized, optimized, socialized.
p2357
sg77
I429
sg78
g296
sg80
V0084B4
p2358
sg82
Vhttp://pbs.twimg.com/profile_images/378800000327180850/4f6d3ae1729ccc9d1d0414cb5359ed7a_normal.png
p2359
sg84
I00
sg85
I01
sg86
Vhttps://pbs.twimg.com/profile_banners/1001192245/1418426010
p2360
sg88
Vhttp://abs.twimg.com/images/themes/theme15/bg.png
p2361
sg90
VTalkMarkets
p2362
sg92
Ven
p2363
sg94
I00
sg95
I168
sg96
VTalkMarkets
p2364
sg98
I00
sg33
Vhttp://t.co/iL0trK2OzM
p2365
sg100
VMon Dec 10 07:55:31 +0000 2012
p2366
sg102
I00
sg103
VEastern Time (US & Canada)
p2367
sg105
I00
sg106
I00
sg107
I00
ssg108
I00
sg109
g2353
sg110
I1197
sg111
g2354
sg112
g2355
sg113
I00
sg114
I254
sg115
I00
sg116
I-18000
sg117
I53881
sg118
g2357
sg119
I429
sg120
g296
sg121
g2358
sg122
g2359
sg123
I00
sg124
I01
sg125
g2356
sg126
g2360
sg127
g2361
sg128
g2362
sg129
g2363
sg130
I00
sg131
I00
sg132
I168
sg133
g2364
sg134
g2365
sg135
g136
(S'\x07\xdc\x0c\n\x077\x1f\x00\x00\x00'
p2368
tp2369
Rp2370
sg140
g2352
sg141
g2367
sg142
I00
sg143
I00
sg144
I00
sbsg145
Nsg29
L661447484733071361L
sg146
I0
sg147
VTalkMarkets
p2371
sg129
Ven
p2372
sg150
g2337
sg135
g136
(S"\x07\xdf\x0b\x03\x07'\x04\x00\x00\x00"
p2373
tp2374
Rp2375
sg50
(dp2376
g155
Nsg156
I00
sg157
g2334
sg158
I00
sg159
Nsg56
L661447484733071361L
sg160
I0
sg161
V<a href="http://www.talkmarkets.com" rel="nofollow">TalkMarkets</a>
p2377
sg163
I00
sg164
Nsg64
(dp2378
g166
(lp2379
(dp2380
g39
(lp2381
I54
aI59
asg157
VPNQI
p2382
sa(dp2383
g39
(lp2384
I60
aI64
asg157
VQQQ
p2385
sa(dp2386
g39
(lp2387
I65
aI70
asg157
VSOCL
p2388
sa(dp2389
g39
(lp2390
I71
aI75
asg157
VFDN
p2391
sa(dp2392
g39
(lp2393
I76
aI80
asg157
VSPY
p2394
sa(dp2395
g39
(lp2396
I81
aI85
asg157
VCRM
p2397
sa(dp2398
g39
(lp2399
I86
aI91
asg157
VLNKD
p2400
sa(dp2401
g39
(lp2402
I92
aI96
asg157
VPYL
p2403
sa(dp2404
g39
(lp2405
I97
aI102
asg157
VAMZN
p2406
sa(dp2407
g39
(lp2408
I103
aI108
asg157
VEBAY
p2409
sa(dp2410
g39
(lp2411
I109
aI114
asg157
VGOOG
p2412
sasg183
(lp2413
sg185
(lp2414
(dp2415
g39
(lp2416
I23
aI32
asg157
VInternet
p2417
sa(dp2418
g39
(lp2419
I33
aI40
asg157
VStocks
p2420
sasg35
(lp2421
(dp2422
g33
Vhttps://t.co/j7TV6FQQBT
p2423
sg39
(lp2424
I115
aI138
asg41
Vhttp://goo.gl/twAFRs
p2425
sg43
Vgoo.gl/twAFRs
p2426
sassg193
Nsg194
Nsg195
I0
sg68
V661447484733071361
p2427
sg197
I00
sg198
g2351
sg199
Nsg200
Nsg201
I00
sg92
g2372
sg100
VTue Nov 03 07:39:04 +0000 2015
p2428
sg203
Nsg204
Nsg205
(dp2429
g207
Ven
p2430
sg209
Vrecent
p2431
sssg211
g2429
sg212
Nsg213
Nsg31
g2378
sg214
Nsg215
Nsg112
g2427
sg216
I00
sg217
Nsg218
I0
sg219
Nsbag0
(g4
g5
Ntp2432
Rp2433
(dp2434
g9
I00
sg10
Nsg11
I00
sg12
VHow To Get Exposure To #Internet #Stocks Through ETFs $PNQI $QQQ $SOCL $FDN $SPY $CRM $LNKD $PYL $AMZN $EBAY $GOOG https://t.co/qwsh3e4nyW
p2435
sg14
Vhttp://www.talkmarkets.com
p2436
sg16
I00
sg17
I00
sg18
Nsg19
g0
(g20
g5
Ntp2437
Rp2438
(dp2439
g24
I00
sg25
I00
sg26
I01
sg27
VDDEEF6
p2440
sg29
L2795789015L
sg30
I00
sg31
(dp2441
g33
(dp2442
g35
(lp2443
(dp2444
g33
Vhttp://t.co/jrQKD4iteR
p2445
sg39
(lp2446
I0
aI22
asg41
Vhttp://www.TalkMarkets.com
p2447
sg43
VTalkMarkets.com
p2448
sassg45
(dp2449
g35
(lp2450
sssg48
Vhttps://pbs.twimg.com/profile_images/517011224236523520/l_22XWCv_normal.png
p2451
sg50
(dp2452
g52
I00
sg53
I00
sg54
I01
sg55
I00
sg56
L2795789015L
sg57
Vhttps://abs.twimg.com/images/themes/theme1/bg.png
p2453
sg59
I00
sg60
V333333
p2454
sg62
g2451
sg63
g2440
sg64
g2441
sg65
I206
sg66
VC0DEED
p2455
sg68
V2795789015
p2456
sg70
VC0DEED
p2457
sg72
I128
sg73
I00
sg74
Nsg75
I16879
sg45
VA recap of our day's most popular headlines.  Check us out for a customized reading experience covering financial & business news, opinion & analysis.
p2458
sg77
I13
sg78
g296
sg80
V0084B4
p2459
sg82
Vhttp://pbs.twimg.com/profile_images/517011224236523520/l_22XWCv_normal.png
p2460
sg84
I00
sg85
I00
sg86
Vhttps://pbs.twimg.com/profile_banners/2795789015/1412100067
p2461
sg88
Vhttp://abs.twimg.com/images/themes/theme1/bg.png
p2462
sg90
VMarketsRecap
p2463
sg92
Ven
p2464
sg94
I00
sg95
I5
sg96
VTalkMarkets Recap
p2465
sg98
I00
sg33
Vhttp://t.co/jrQKD4iteR
p2466
sg100
VTue Sep 30 18:00:06 +0000 2014
p2467
sg102
I00
sg103
Nsg105
I00
sg106
I01
sg107
I00
ssg108
I00
sg109
g2454
sg110
I206
sg111
g2455
sg112
g2456
sg113
I00
sg114
I128
sg115
I00
sg116
Nsg117
I16879
sg118
g2458
sg119
I13
sg120
g296
sg121
g2459
sg122
g2460
sg123
I00
sg124
I00
sg125
g2457
sg126
g2461
sg127
g2462
sg128
g2463
sg129
g2464
sg130
I00
sg131
I00
sg132
I5
sg133
g2465
sg134
g2466
sg135
g136
(S'\x07\xde\t\x1e\x12\x00\x06\x00\x00\x00'
p2468
tp2469
Rp2470
sg140
g2453
sg141
Nsg142
I00
sg143
I01
sg144
I00
sbsg145
Nsg29
L661356891323408384L
sg146
I0
sg147
VTalkMarkets
p2471
sg129
Ven
p2472
sg150
g2438
sg135
g136
(S"\x07\xdf\x0b\x03\x01'\x04\x00\x00\x00"
p2473
tp2474
Rp2475
sg50
(dp2476
g155
Nsg156
I00
sg157
g2435
sg158
I00
sg159
Nsg56
L661356891323408384L
sg160
I0
sg161
V<a href="http://www.talkmarkets.com" rel="nofollow">TalkMarkets</a>
p2477
sg163
I00
sg164
Nsg64
(dp2478
g166
(lp2479
(dp2480
g39
(lp2481
I54
aI59
asg157
VPNQI
p2482
sa(dp2483
g39
(lp2484
I60
aI64
asg157
VQQQ
p2485
sa(dp2486
g39
(lp2487
I65
aI70
asg157
VSOCL
p2488
sa(dp2489
g39
(lp2490
I71
aI75
asg157
VFDN
p2491
sa(dp2492
g39
(lp2493
I76
aI80
asg157
VSPY
p2494
sa(dp2495
g39
(lp2496
I81
aI85
asg157
VCRM
p2497
sa(dp2498
g39
(lp2499
I86
aI91
asg157
VLNKD
p2500
sa(dp2501
g39
(lp2502
I92
aI96
asg157
VPYL
p2503
sa(dp2504
g39
(lp2505
I97
aI102
asg157
VAMZN
p2506
sa(dp2507
g39
(lp2508
I103
aI108
asg157
VEBAY
p2509
sa(dp2510
g39
(lp2511
I109
aI114
asg157
VGOOG
p2512
sasg183
(lp2513
sg185
(lp2514
(dp2515
g39
(lp2516
I23
aI32
asg157
VInternet
p2517
sa(dp2518
g39
(lp2519
I33
aI40
asg157
VStocks
p2520
sasg35
(lp2521
(dp2522
g33
Vhttps://t.co/qwsh3e4nyW
p2523
sg39
(lp2524
I115
aI138
asg41
Vhttp://goo.gl/twAFRs
p2525
sg43
Vgoo.gl/twAFRs
p2526
sassg193
Nsg194
Nsg195
I0
sg68
V661356891323408384
p2527
sg197
I00
sg198
g2452
sg199
Nsg200
Nsg201
I00
sg92
g2472
sg100
VTue Nov 03 01:39:04 +0000 2015
p2528
sg203
Nsg204
Nsg205
(dp2529
g207
Ven
p2530
sg209
Vrecent
p2531
sssg211
g2529
sg212
Nsg213
Nsg31
g2478
sg214
Nsg215
Nsg112
g2527
sg216
I00
sg217
Nsg218
I0
sg219
Nsbag0
(g4
g5
Ntp2532
Rp2533
(dp2534
g9
I00
sg10
Nsg11
I00
sg12
V$GPRO Stock Forum Updated Monday, November 2, 2015 6:10:48 PM $XLE $REGN $TWTR $PNQI https://t.co/JM6CRCDg4Q
p2535
sg14
Vhttp://dlvr.it
p2536
sg16
I00
sg17
I00
sg18
Nsg19
g0
(g20
g5
Ntp2537
Rp2538
(dp2539
g24
I00
sg25
I00
sg26
I01
sg27
VEFEFEF
p2540
sg29
L2197054086L
sg30
I00
sg31
(dp2541
g45
(dp2542
g35
(lp2543
sssg48
Vhttps://pbs.twimg.com/profile_images/378800000745601641/0aa5ed786102f499384a344e7ce49e13_normal.png
p2544
sg50
(dp2545
g52
I00
sg53
I00
sg54
I01
sg55
I00
sg56
L2197054086L
sg57
Vhttps://abs.twimg.com/images/themes/theme14/bg.gif
p2546
sg59
I00
sg60
V333333
p2547
sg62
g2544
sg63
g2540
sg64
g2541
sg65
I827
sg66
VEEEEEE
p2548
sg68
V2197054086
p2549
sg70
V131516
p2550
sg72
I193
sg73
I00
sg74
Nsg75
I259984
sg45
VInvestors Hangout News Desk
p2551
sg77
I457
sg78
g296
sg80
V009999
p2552
sg82
Vhttp://pbs.twimg.com/profile_images/378800000745601641/0aa5ed786102f499384a344e7ce49e13_normal.png
p2553
sg84
I00
sg85
I00
sg88
Vhttp://abs.twimg.com/images/themes/theme14/bg.gif
p2554
sg90
VIHNewsDesk
p2555
sg92
Ven
p2556
sg94
I01
sg95
I0
sg96
VIH News Desk
p2557
sg98
I00
sg33
Nsg100
VSat Nov 16 03:54:44 +0000 2013
p2558
sg102
I00
sg103
Nsg105
I00
sg106
I00
sg107
I00
ssg108
I00
sg109
g2547
sg110
I827
sg111
g2548
sg112
g2549
sg113
I00
sg114
I193
sg115
I00
sg116
Nsg117
I259984
sg118
g2551
sg119
I457
sg120
g296
sg121
g2552
sg122
g2553
sg123
I00
sg124
I00
sg125
g2550
sg127
g2554
sg128
g2555
sg129
g2556
sg130
I00
sg131
I01
sg132
I0
sg133
g2557
sg134
Nsg135
g136
(S'\x07\xdd\x0b\x10\x036,\x00\x00\x00'
p2559
tp2560
Rp2561
sg140
g2546
sg141
Nsg142
I00
sg143
I00
sg144
I00
sbsg145
Nsg29
L661333312330334208L
sg146
I0
sg147
Vdlvr.it
p2562
sg129
Ven
p2563
sg150
g2538
sg135
g136
(S'\x07\xdf\x0b\x03\x00\x05\x17\x00\x00\x00'
p2564
tp2565
Rp2566
sg50
(dp2567
g155
Nsg156
I00
sg157
g2535
sg158
I00
sg159
Nsg56
L661333312330334208L
sg160
I0
sg161
V<a href="http://dlvr.it" rel="nofollow">dlvr.it</a>
p2568
sg163
I00
sg164
Nsg64
(dp2569
g166
(lp2570
(dp2571
g39
(lp2572
I0
aI5
asg157
VGPRO
p2573
sa(dp2574
g39
(lp2575
I62
aI66
asg157
VXLE
p2576
sa(dp2577
g39
(lp2578
I67
aI72
asg157
VREGN
p2579
sa(dp2580
g39
(lp2581
I73
aI78
asg157
VTWTR
p2582
sa(dp2583
g39
(lp2584
I79
aI84
asg157
VPNQI
p2585
sasg183
(lp2586
sg185
(lp2587
sg35
(lp2588
(dp2589
g33
Vhttps://t.co/JM6CRCDg4Q
p2590
sg39
(lp2591
I85
aI108
asg41
Vhttp://dlvr.it/CdN1cP
p2592
sg43
Vdlvr.it/CdN1cP
p2593
sassg193
Nsg194
Nsg195
I0
sg68
V661333312330334208
p2594
sg197
I00
sg198
g2545
sg199
Nsg200
Nsg201
I00
sg92
g2563
sg100
VTue Nov 03 00:05:23 +0000 2015
p2595
sg203
Nsg204
Nsg205
(dp2596
g207
Ven
p2597
sg209
Vrecent
p2598
sssg211
g2596
sg212
Nsg213
Nsg31
g2569
sg214
Nsg215
Nsg112
g2594
sg216
I00
sg217
Nsg218
I0
sg219
Nsbag0
(g4
g5
Ntp2599
Rp2600
(dp2601
g9
I00
sg10
Nsg11
I00
sg12
V$ULTA Last Price Updated Monday, November 2, 2015 2:10:47 PM $UVXY $PNQI $UGAZ $AAPL https://t.co/kIea9hjWWg
p2602
sg14
Vhttp://dlvr.it
p2603
sg16
I00
sg17
I00
sg18
Nsg19
g0
(g20
g5
Ntp2604
Rp2605
(dp2606
g24
I00
sg25
I00
sg26
I01
sg27
VEFEFEF
p2607
sg29
L2197054086L
sg30
I00
sg31
(dp2608
g45
(dp2609
g35
(lp2610
sssg48
Vhttps://pbs.twimg.com/profile_images/378800000745601641/0aa5ed786102f499384a344e7ce49e13_normal.png
p2611
sg50
(dp2612
g52
I00
sg53
I00
sg54
I01
sg55
I00
sg56
L2197054086L
sg57
Vhttps://abs.twimg.com/images/themes/theme14/bg.gif
p2613
sg59
I00
sg60
V333333
p2614
sg62
g2611
sg63
g2607
sg64
g2608
sg65
I827
sg66
VEEEEEE
p2615
sg68
V2197054086
p2616
sg70
V131516
p2617
sg72
I193
sg73
I00
sg74
Nsg75
I259984
sg45
VInvestors Hangout News Desk
p2618
sg77
I457
sg78
g296
sg80
V009999
p2619
sg82
Vhttp://pbs.twimg.com/profile_images/378800000745601641/0aa5ed786102f499384a344e7ce49e13_normal.png
p2620
sg84
I00
sg85
I00
sg88
Vhttp://abs.twimg.com/images/themes/theme14/bg.gif
p2621
sg90
VIHNewsDesk
p2622
sg92
Ven
p2623
sg94
I01
sg95
I0
sg96
VIH News Desk
p2624
sg98
I00
sg33
Nsg100
VSat Nov 16 03:54:44 +0000 2013
p2625
sg102
I00
sg103
Nsg105
I00
sg106
I00
sg107
I00
ssg108
I00
sg109
g2614
sg110
I827
sg111
g2615
sg112
g2616
sg113
I00
sg114
I193
sg115
I00
sg116
Nsg117
I259984
sg118
g2618
sg119
I457
sg120
g296
sg121
g2619
sg122
g2620
sg123
I00
sg124
I00
sg125
g2617
sg127
g2621
sg128
g2622
sg129
g2623
sg130
I00
sg131
I01
sg132
I0
sg133
g2624
sg134
Nsg135
g136
(S'\x07\xdd\x0b\x10\x036,\x00\x00\x00'
p2626
tp2627
Rp2628
sg140
g2613
sg141
Nsg142
I00
sg143
I00
sg144
I00
sbsg145
Nsg29
L661270000112570368L
sg146
I0
sg147
Vdlvr.it
p2629
sg129
Ven
p2630
sg150
g2605
sg135
g136
(S'\x07\xdf\x0b\x02\x1350\x00\x00\x00'
p2631
tp2632
Rp2633
sg50
(dp2634
g155
Nsg156
I00
sg157
g2602
sg158
I00
sg159
Nsg56
L661270000112570368L
sg160
I0
sg161
V<a href="http://dlvr.it" rel="nofollow">dlvr.it</a>
p2635
sg163
I00
sg164
Nsg64
(dp2636
g166
(lp2637
(dp2638
g39
(lp2639
I0
aI5
asg157
VULTA
p2640
sa(dp2641
g39
(lp2642
I61
aI66
asg157
VUVXY
p2643
sa(dp2644
g39
(lp2645
I67
aI72
asg157
VPNQI
p2646
sa(dp2647
g39
(lp2648
I73
aI78
asg157
VUGAZ
p2649
sa(dp2650
g39
(lp2651
I79
aI84
asg157
VAAPL
p2652
sasg183
(lp2653
sg185
(lp2654
sg35
(lp2655
(dp2656
g33
Vhttps://t.co/kIea9hjWWg
p2657
sg39
(lp2658
I85
aI108
asg41
Vhttp://dlvr.it/CdJGMm
p2659
sg43
Vdlvr.it/CdJGMm
p2660
sassg193
Nsg194
Nsg195
I0
sg68
V661270000112570368
p2661
sg197
I00
sg198
g2612
sg199
Nsg200
Nsg201
I00
sg92
g2630
sg100
VMon Nov 02 19:53:48 +0000 2015
p2662
sg203
Nsg204
Nsg205
(dp2663
g207
Ven
p2664
sg209
Vrecent
p2665
sssg211
g2663
sg212
Nsg213
Nsg31
g2636
sg214
Nsg215
Nsg112
g2661
sg216
I00
sg217
Nsg218
I0
sg219
Nsbag0
(g4
g5
Ntp2666
Rp2667
(dp2668
g9
I00
sg10
Nsg11
I00
sg12
VNotable sector etf movers: Med devices $IHI punching above $120 resistance; Internet etfs $FDN &amp; $PNQI notching all-time highs.
p2669
sg14
Vhttp://twitter.com
p2670
sg17
I00
sg18
Nsg19
g0
(g20
g5
Ntp2671
Rp2672
(dp2673
g24
I00
sg25
I00
sg26
I01
sg27
VDDEEF6
p2674
sg29
I30684067
sg30
I00
sg31
(dp2675
g33
(dp2676
g35
(lp2677
(dp2678
g33
Vhttp://t.co/sINEujlmku
p2679
sg39
(lp2680
I0
aI22
asg41
Vhttp://www.StockMarketCookBook.com
p2681
sg43
VStockMarketCookBook.com
p2682
sassg45
(dp2683
g35
(lp2684
sssg48
Vhttps://pbs.twimg.com/profile_images/1153786341/chefshat_normal.png
p2685
sg50
(dp2686
g52
I00
sg53
I00
sg54
I01
sg55
I00
sg56
I30684067
sg57
Vhttps://pbs.twimg.com/profile_background_images/85537492/Food_1_.jpg
p2687
sg59
I00
sg60
V333333
p2688
sg62
g2685
sg63
g2674
sg64
g2675
sg65
I750
sg66
VC0DEED
p2689
sg68
V30684067
p2690
sg70
VC0DEED
p2691
sg72
I20
sg73
I00
sg74
I-28800
sg75
I4755
sg45
VOfficial Twitter site of Dr. Kris, founder of the Stock Market Cook Book
p2692
sg77
I80
sg78
VSanta Monica, CA
p2693
sg80
V0084B4
p2694
sg82
Vhttp://pbs.twimg.com/profile_images/1153786341/chefshat_normal.png
p2695
sg84
I00
sg85
I00
sg86
Vhttps://pbs.twimg.com/profile_banners/30684067/1404510954
p2696
sg88
Vhttp://pbs.twimg.com/profile_background_images/85537492/Food_1_.jpg
p2697
sg90
VStockMarketCB
p2698
sg92
Ven
p2699
sg94
I01
sg95
I46
sg96
VStockMarketCookBook
p2700
sg98
I00
sg33
Vhttp://t.co/sINEujlmku
p2701
sg100
VSun Apr 12 17:24:47 +0000 2009
p2702
sg102
I00
sg103
VAmerica/Los_Angeles
p2703
sg105
I00
sg106
I00
sg107
I00
ssg108
I00
sg109
g2688
sg110
I750
sg111
g2689
sg112
g2690
sg113
I00
sg114
I20
sg115
I00
sg116
I-28800
sg117
I4755
sg118
g2692
sg119
I80
sg120
g2693
sg121
g2694
sg122
g2695
sg123
I00
sg124
I00
sg125
g2691
sg126
g2696
sg127
g2697
sg128
g2698
sg129
g2699
sg130
I00
sg131
I01
sg132
I46
sg133
g2700
sg134
g2701
sg135
g136
(S'\x07\xd9\x04\x0c\x11\x18/\x00\x00\x00'
p2704
tp2705
Rp2706
sg140
g2687
sg141
g2703
sg142
I00
sg143
I00
sg144
I00
sbsg145
Nsg29
L661258794135982080L
sg146
I0
sg147
VTwitter Web Client
p2707
sg129
Ven
p2708
sg150
g2672
sg135
g136
(S'\x07\xdf\x0b\x02\x13\t\x10\x00\x00\x00'
p2709
tp2710
Rp2711
sg50
(dp2712
g155
Nsg156
I00
sg157
g2669
sg158
I00
sg159
Nsg56
L661258794135982080L
sg160
I0
sg161
V<a href="http://twitter.com" rel="nofollow">Twitter Web Client</a>
p2713
sg163
I00
sg164
Nsg64
(dp2714
g166
(lp2715
(dp2716
g39
(lp2717
I39
aI43
asg157
VIHI
p2718
sa(dp2719
g39
(lp2720
I90
aI94
asg157
VFDN
p2721
sa(dp2722
g39
(lp2723
I101
aI106
asg157
VPNQI
p2724
sasg183
(lp2725
sg185
(lp2726
sg35
(lp2727
ssg193
Nsg194
Nsg195
I0
sg68
V661258794135982080
p2728
sg197
I00
sg198
g2686
sg199
Nsg200
Nsg92
g2708
sg100
VMon Nov 02 19:09:16 +0000 2015
p2729
sg203
Nsg204
Nsg205
(dp2730
g207
Ven
p2731
sg209
Vrecent
p2732
sssg211
g2730
sg212
Nsg213
Nsg31
g2714
sg214
Nsg215
Nsg112
g2728
sg216
I00
sg217
Nsg218
I0
sg219
Nsbag0
(g4
g5
Ntp2733
Rp2734
(dp2735
g9
I00
sg10
Nsg11
I00
sg12
VHow To Get Exposure To #Internet #Stocks Through ETFs $PNQI $QQQ $SOCL $FDN $SPY $CRM $LNKD $PYL $AMZN $EBAY $GOOG https://t.co/j7TV6FQQBT
p2736
sg14
Vhttp://www.talkmarkets.com
p2737
sg16
I00
sg17
I00
sg18
Nsg19
g0
(g20
g5
Ntp2738
Rp2739
(dp2740
g24
I00
sg25
I00
sg26
I01
sg27
VC0DFEC
p2741
sg29
I1001192245
sg30
I00
sg31
(dp2742
g33
(dp2743
g35
(lp2744
(dp2745
g33
Vhttp://t.co/iL0trK2OzM
p2746
sg39
(lp2747
I0
aI22
asg41
Vhttp://www.TalkMarkets.com
p2748
sg43
VTalkMarkets.com
p2749
sassg45
(dp2750
g35
(lp2751
sssg48
Vhttps://pbs.twimg.com/profile_images/378800000327180850/4f6d3ae1729ccc9d1d0414cb5359ed7a_normal.png
p2752
sg50
(dp2753
g52
I00
sg53
I00
sg54
I01
sg55
I00
sg56
I1001192245
sg57
Vhttps://abs.twimg.com/images/themes/theme15/bg.png
p2754
sg59
I00
sg60
V333333
p2755
sg62
g2752
sg63
g2741
sg64
g2742
sg65
I1197
sg66
VA8C7F7
p2756
sg68
V1001192245
p2757
sg70
V022330
p2758
sg72
I254
sg73
I00
sg74
I-18000
sg75
I53881
sg45
VFinancial content that\u2019s customized, optimized, socialized.
p2759
sg77
I429
sg78
g296
sg80
V0084B4
p2760
sg82
Vhttp://pbs.twimg.com/profile_images/378800000327180850/4f6d3ae1729ccc9d1d0414cb5359ed7a_normal.png
p2761
sg84
I00
sg85
I01
sg86
Vhttps://pbs.twimg.com/profile_banners/1001192245/1418426010
p2762
sg88
Vhttp://abs.twimg.com/images/themes/theme15/bg.png
p2763
sg90
VTalkMarkets
p2764
sg92
Ven
p2765
sg94
I00
sg95
I168
sg96
VTalkMarkets
p2766
sg98
I00
sg33
Vhttp://t.co/iL0trK2OzM
p2767
sg100
VMon Dec 10 07:55:31 +0000 2012
p2768
sg102
I00
sg103
VEastern Time (US & Canada)
p2769
sg105
I00
sg106
I00
sg107
I00
ssg108
I00
sg109
g2755
sg110
I1197
sg111
g2756
sg112
g2757
sg113
I00
sg114
I254
sg115
I00
sg116
I-18000
sg117
I53881
sg118
g2759
sg119
I429
sg120
g296
sg121
g2760
sg122
g2761
sg123
I00
sg124
I01
sg125
g2758
sg126
g2762
sg127
g2763
sg128
g2764
sg129
g2765
sg130
I00
sg131
I00
sg132
I168
sg133
g2766
sg134
g2767
sg135
g136
(S'\x07\xdc\x0c\n\x077\x1f\x00\x00\x00'
p2770
tp2771
Rp2772
sg140
g2754
sg141
g2769
sg142
I00
sg143
I00
sg144
I00
sbsg145
Nsg29
L661258220795789312L
sg146
I0
sg147
VTalkMarkets
p2773
sg129
Ven
p2774
sg150
g2739
sg135
g136
(S'\x07\xdf\x0b\x02\x13\x07\x00\x00\x00\x00'
p2775
tp2776
Rp2777
sg50
(dp2778
g155
Nsg156
I00
sg157
g2736
sg158
I00
sg159
Nsg56
L661258220795789312L
sg160
I0
sg161
V<a href="http://www.talkmarkets.com" rel="nofollow">TalkMarkets</a>
p2779
sg163
I00
sg164
Nsg64
(dp2780
g166
(lp2781
(dp2782
g39
(lp2783
I54
aI59
asg157
VPNQI
p2784
sa(dp2785
g39
(lp2786
I60
aI64
asg157
VQQQ
p2787
sa(dp2788
g39
(lp2789
I65
aI70
asg157
VSOCL
p2790
sa(dp2791
g39
(lp2792
I71
aI75
asg157
VFDN
p2793
sa(dp2794
g39
(lp2795
I76
aI80
asg157
VSPY
p2796
sa(dp2797
g39
(lp2798
I81
aI85
asg157
VCRM
p2799
sa(dp2800
g39
(lp2801
I86
aI91
asg157
VLNKD
p2802
sa(dp2803
g39
(lp2804
I92
aI96
asg157
VPYL
p2805
sa(dp2806
g39
(lp2807
I97
aI102
asg157
VAMZN
p2808
sa(dp2809
g39
(lp2810
I103
aI108
asg157
VEBAY
p2811
sa(dp2812
g39
(lp2813
I109
aI114
asg157
VGOOG
p2814
sasg183
(lp2815
sg185
(lp2816
(dp2817
g39
(lp2818
I23
aI32
asg157
VInternet
p2819
sa(dp2820
g39
(lp2821
I33
aI40
asg157
VStocks
p2822
sasg35
(lp2823
(dp2824
g33
Vhttps://t.co/j7TV6FQQBT
p2825
sg39
(lp2826
I115
aI138
asg41
Vhttp://goo.gl/twAFRs
p2827
sg43
Vgoo.gl/twAFRs
p2828
sassg193
Nsg194
Nsg195
I0
sg68
V661258220795789312
p2829
sg197
I00
sg198
g2753
sg199
Nsg200
Nsg201
I00
sg92
g2774
sg100
VMon Nov 02 19:07:00 +0000 2015
p2830
sg203
Nsg204
Nsg205
(dp2831
g207
Ven
p2832
sg209
Vrecent
p2833
sssg211
g2831
sg212
Nsg213
Nsg31
g2780
sg214
Nsg215
Nsg112
g2829
sg216
I00
sg217
Nsg218
I0
sg219
Nsbag0
(g4
g5
Ntp2834
Rp2835
(dp2836
g9
I00
sg10
Nsg11
I00
sg12
V$PG Company Info Updated Monday, November 2, 2015 11:59:22 AM $SUNE $ILNS $PNQI $PZG https://t.co/8hmJ1LGNYn
p2837
sg14
Vhttp://dlvr.it
p2838
sg16
I00
sg17
I00
sg18
Nsg19
g0
(g20
g5
Ntp2839
Rp2840
(dp2841
g24
I00
sg25
I00
sg26
I01
sg27
VEFEFEF
p2842
sg29
I1833020461
sg30
I00
sg31
(dp2843
g33
(dp2844
g35
(lp2845
(dp2846
g33
Vhttp://t.co/PLaIJQnyya
p2847
sg39
(lp2848
I0
aI22
asg41
Vhttp://investorshangout.com/board/87803/Stock-Info
p2849
sg43
Vinvestorshangout.com/board/87803/St\u2026
p2850
sassg45
(dp2851
g35
(lp2852
(dp2853
g33
Vhttp://t.co/PLaIJQnyya
p2854
sg39
(lp2855
I77
aI99
asg41
Vhttp://investorshangout.com/board/87803/Stock-Info
p2856
sg43
Vinvestorshangout.com/board/87803/St\u2026
p2857
sasssg48
Vhttps://pbs.twimg.com/profile_images/378800000430524635/cbdffbb564e45a01e5918f2846747267_normal.jpeg
p2858
sg50
(dp2859
g52
I00
sg53
I00
sg54
I01
sg55
I00
sg56
I1833020461
sg57
Vhttps://abs.twimg.com/images/themes/theme14/bg.gif
p2860
sg59
I00
sg60
V333333
p2861
sg62
g2858
sg63
g2842
sg64
g2843
sg65
I1101
sg66
VFFFFFF
p2862
sg68
V1833020461
p2863
sg70
V131516
p2864
sg72
I200
sg73
I00
sg74
I-18000
sg75
I282365
sg45
VI enjoy posting information about stocks and companies. Please join me here: http://t.co/PLaIJQnyya
p2865
sg77
I142
sg78
VInvestors Hangout
p2866
sg80
V009999
p2867
sg82
Vhttp://pbs.twimg.com/profile_images/378800000430524635/cbdffbb564e45a01e5918f2846747267_normal.jpeg
p2868
sg84
I00
sg85
I00
sg88
Vhttp://abs.twimg.com/images/themes/theme14/bg.gif
p2869
sg90
Vrosnerstocks
p2870
sg92
Ven
p2871
sg94
I01
sg95
I0
sg96
VRosner Stocks
p2872
sg98
I00
sg33
Vhttp://t.co/PLaIJQnyya
p2873
sg100
VSun Sep 08 18:45:41 +0000 2013
p2874
sg102
I00
sg103
VEastern Time (US & Canada)
p2875
sg105
I00
sg106
I00
sg107
I00
ssg108
I00
sg109
g2861
sg110
I1101
sg111
g2862
sg112
g2863
sg113
I00
sg114
I200
sg115
I00
sg116
I-18000
sg117
I282365
sg118
g2865
sg119
I142
sg120
g2866
sg121
g2867
sg122
g2868
sg123
I00
sg124
I00
sg125
g2864
sg127
g2869
sg128
g2870
sg129
g2871
sg130
I00
sg131
I01
sg132
I0
sg133
g2872
sg134
g2873
sg135
g136
(S'\x07\xdd\t\x08\x12-)\x00\x00\x00'
p2876
tp2877
Rp2878
sg140
g2860
sg141
g2875
sg142
I00
sg143
I00
sg144
I00
sbsg145
Nsg29
L661234723134398464L
sg146
I0
sg147
Vdlvr.it
p2879
sg129
Ven
p2880
sg150
g2840
sg135
g136
(S'\x07\xdf\x0b\x02\x11!%\x00\x00\x00'
p2881
tp2882
Rp2883
sg50
(dp2884
g155
Nsg156
I00
sg157
g2837
sg158
I00
sg159
Nsg56
L661234723134398464L
sg160
I0
sg161
V<a href="http://dlvr.it" rel="nofollow">dlvr.it</a>
p2885
sg163
I00
sg164
Nsg64
(dp2886
g166
(lp2887
(dp2888
g39
(lp2889
I0
aI3
asg157
VPG
p2890
sa(dp2891
g39
(lp2892
I62
aI67
asg157
VSUNE
p2893
sa(dp2894
g39
(lp2895
I68
aI73
asg157
VILNS
p2896
sa(dp2897
g39
(lp2898
I74
aI79
asg157
VPNQI
p2899
sa(dp2900
g39
(lp2901
I80
aI84
asg157
VPZG
p2902
sasg183
(lp2903
sg185
(lp2904
sg35
(lp2905
(dp2906
g33
Vhttps://t.co/8hmJ1LGNYn
p2907
sg39
(lp2908
I85
aI108
asg41
Vhttp://dlvr.it/CdFpJ0
p2909
sg43
Vdlvr.it/CdFpJ0
p2910
sassg193
Nsg194
Nsg195
I0
sg68
V661234723134398464
p2911
sg197
I00
sg198
g2859
sg199
Nsg200
Nsg201
I00
sg92
g2880
sg100
VMon Nov 02 17:33:37 +0000 2015
p2912
sg203
Nsg204
Nsg205
(dp2913
g207
Ven
p2914
sg209
Vrecent
p2915
sssg211
g2913
sg212
Nsg213
Nsg31
g2886
sg214
Nsg215
Nsg112
g2911
sg216
I00
sg217
Nsg218
I0
sg219
Nsbag0
(g4
g5
Ntp2916
Rp2917
(dp2918
g9
I00
sg10
Nsg11
I00
sg12
V$GE Investor Opinions Updated Monday, November 2, 2015 11:59:22 AM $LNKD $PNQI $AAP $KMI https://t.co/HNji0bYjOs
p2919
sg14
Vhttp://dlvr.it
p2920
sg16
I00
sg17
I00
sg18
Nsg19
g0
(g20
g5
Ntp2921
Rp2922
(dp2923
g24
I00
sg25
I00
sg26
I01
sg27
VEFEFEF
p2924
sg29
I1833020461
sg30
I00
sg31
(dp2925
g33
(dp2926
g35
(lp2927
(dp2928
g33
Vhttp://t.co/PLaIJQnyya
p2929
sg39
(lp2930
I0
aI22
asg41
Vhttp://investorshangout.com/board/87803/Stock-Info
p2931
sg43
Vinvestorshangout.com/board/87803/St\u2026
p2932
sassg45
(dp2933
g35
(lp2934
(dp2935
g33
Vhttp://t.co/PLaIJQnyya
p2936
sg39
(lp2937
I77
aI99
asg41
Vhttp://investorshangout.com/board/87803/Stock-Info
p2938
sg43
Vinvestorshangout.com/board/87803/St\u2026
p2939
sasssg48
Vhttps://pbs.twimg.com/profile_images/378800000430524635/cbdffbb564e45a01e5918f2846747267_normal.jpeg
p2940
sg50
(dp2941
g52
I00
sg53
I00
sg54
I01
sg55
I00
sg56
I1833020461
sg57
Vhttps://abs.twimg.com/images/themes/theme14/bg.gif
p2942
sg59
I00
sg60
V333333
p2943
sg62
g2940
sg63
g2924
sg64
g2925
sg65
I1101
sg66
VFFFFFF
p2944
sg68
V1833020461
p2945
sg70
V131516
p2946
sg72
I200
sg73
I00
sg74
I-18000
sg75
I282365
sg45
VI enjoy posting information about stocks and companies. Please join me here: http://t.co/PLaIJQnyya
p2947
sg77
I142
sg78
VInvestors Hangout
p2948
sg80
V009999
p2949
sg82
Vhttp://pbs.twimg.com/profile_images/378800000430524635/cbdffbb564e45a01e5918f2846747267_normal.jpeg
p2950
sg84
I00
sg85
I00
sg88
Vhttp://abs.twimg.com/images/themes/theme14/bg.gif
p2951
sg90
Vrosnerstocks
p2952
sg92
Ven
p2953
sg94
I01
sg95
I0
sg96
VRosner Stocks
p2954
sg98
I00
sg33
Vhttp://t.co/PLaIJQnyya
p2955
sg100
VSun Sep 08 18:45:41 +0000 2013
p2956
sg102
I00
sg103
VEastern Time (US & Canada)
p2957
sg105
I00
sg106
I00
sg107
I00
ssg108
I00
sg109
g2943
sg110
I1101
sg111
g2944
sg112
g2945
sg113
I00
sg114
I200
sg115
I00
sg116
I-18000
sg117
I282365
sg118
g2947
sg119
I142
sg120
g2948
sg121
g2949
sg122
g2950
sg123
I00
sg124
I00
sg125
g2946
sg127
g2951
sg128
g2952
sg129
g2953
sg130
I00
sg131
I01
sg132
I0
sg133
g2954
sg134
g2955
sg135
g136
(S'\x07\xdd\t\x08\x12-)\x00\x00\x00'
p2958
tp2959
Rp2960
sg140
g2942
sg141
g2957
sg142
I00
sg143
I00
sg144
I00
sbsg145
Nsg29
L661234711138725888L
sg146
I0
sg147
Vdlvr.it
p2961
sg129
Ven
p2962
sg150
g2922
sg135
g136
(S'\x07\xdf\x0b\x02\x11!"\x00\x00\x00'
p2963
tp2964
Rp2965
sg50
(dp2966
g155
Nsg156
I00
sg157
g2919
sg158
I00
sg159
Nsg56
L661234711138725888L
sg160
I0
sg161
V<a href="http://dlvr.it" rel="nofollow">dlvr.it</a>
p2967
sg163
I00
sg164
Nsg64
(dp2968
g166
(lp2969
(dp2970
g39
(lp2971
I0
aI3
asg157
VGE
p2972
sa(dp2973
g39
(lp2974
I67
aI72
asg157
VLNKD
p2975
sa(dp2976
g39
(lp2977
I73
aI78
asg157
VPNQI
p2978
sa(dp2979
g39
(lp2980
I79
aI83
asg157
VAAP
p2981
sa(dp2982
g39
(lp2983
I84
aI88
asg157
VKMI
p2984
sasg183
(lp2985
sg185
(lp2986
sg35
(lp2987
(dp2988
g33
Vhttps://t.co/HNji0bYjOs
p2989
sg39
(lp2990
I89
aI112
asg41
Vhttp://dlvr.it/CdFrXT
p2991
sg43
Vdlvr.it/CdFrXT
p2992
sassg193
Nsg194
Nsg195
I0
sg68
V661234711138725888
p2993
sg197
I00
sg198
g2941
sg199
Nsg200
Nsg201
I00
sg92
g2962
sg100
VMon Nov 02 17:33:34 +0000 2015
p2994
sg203
Nsg204
Nsg205
(dp2995
g207
Ven
p2996
sg209
Vrecent
p2997
sssg211
g2995
sg212
Nsg213
Nsg31
g2968
sg214
Nsg215
Nsg112
g2993
sg216
I00
sg217
Nsg218
I0
sg219
Nsbag0
(g4
g5
Ntp2998
Rp2999
(dp3000
g9
I00
sg10
Nsg11
I00
sg12
V$AVGO Recent News Updated Monday, November 2, 2015 11:59:22 AM $AVGO $NKE $PNQI $RWM https://t.co/DmRmaKvkKe
p3001
sg14
Vhttp://dlvr.it
p3002
sg16
I00
sg17
I00
sg18
Nsg19
g0
(g20
g5
Ntp3003
Rp3004
(dp3005
g24
I00
sg25
I00
sg26
I01
sg27
VEFEFEF
p3006
sg29
I1833020461
sg30
I00
sg31
(dp3007
g33
(dp3008
g35
(lp3009
(dp3010
g33
Vhttp://t.co/PLaIJQnyya
p3011
sg39
(lp3012
I0
aI22
asg41
Vhttp://investorshangout.com/board/87803/Stock-Info
p3013
sg43
Vinvestorshangout.com/board/87803/St\u2026
p3014
sassg45
(dp3015
g35
(lp3016
(dp3017
g33
Vhttp://t.co/PLaIJQnyya
p3018
sg39
(lp3019
I77
aI99
asg41
Vhttp://investorshangout.com/board/87803/Stock-Info
p3020
sg43
Vinvestorshangout.com/board/87803/St\u2026
p3021
sasssg48
Vhttps://pbs.twimg.com/profile_images/378800000430524635/cbdffbb564e45a01e5918f2846747267_normal.jpeg
p3022
sg50
(dp3023
g52
I00
sg53
I00
sg54
I01
sg55
I00
sg56
I1833020461
sg57
Vhttps://abs.twimg.com/images/themes/theme14/bg.gif
p3024
sg59
I00
sg60
V333333
p3025
sg62
g3022
sg63
g3006
sg64
g3007
sg65
I1101
sg66
VFFFFFF
p3026
sg68
V1833020461
p3027
sg70
V131516
p3028
sg72
I200
sg73
I00
sg74
I-18000
sg75
I282365
sg45
VI enjoy posting information about stocks and companies. Please join me here: http://t.co/PLaIJQnyya
p3029
sg77
I142
sg78
VInvestors Hangout
p3030
sg80
V009999
p3031
sg82
Vhttp://pbs.twimg.com/profile_images/378800000430524635/cbdffbb564e45a01e5918f2846747267_normal.jpeg
p3032
sg84
I00
sg85
I00
sg88
Vhttp://abs.twimg.com/images/themes/theme14/bg.gif
p3033
sg90
Vrosnerstocks
p3034
sg92
Ven
p3035
sg94
I01
sg95
I0
sg96
VRosner Stocks
p3036
sg98
I00
sg33
Vhttp://t.co/PLaIJQnyya
p3037
sg100
VSun Sep 08 18:45:41 +0000 2013
p3038
sg102
I00
sg103
VEastern Time (US & Canada)
p3039
sg105
I00
sg106
I00
sg107
I00
ssg108
I00
sg109
g3025
sg110
I1101
sg111
g3026
sg112
g3027
sg113
I00
sg114
I200
sg115
I00
sg116
I-18000
sg117
I282365
sg118
g3029
sg119
I142
sg120
g3030
sg121
g3031
sg122
g3032
sg123
I00
sg124
I00
sg125
g3028
sg127
g3033
sg128
g3034
sg129
g3035
sg130
I00
sg131
I01
sg132
I0
sg133
g3036
sg134
g3037
sg135
g136
(S'\x07\xdd\t\x08\x12-)\x00\x00\x00'
p3040
tp3041
Rp3042
sg140
g3024
sg141
g3039
sg142
I00
sg143
I00
sg144
I00
sbsg145
Nsg29
L661234706613080064L
sg146
I0
sg147
Vdlvr.it
p3043
sg129
Ven
p3044
sg150
g3004
sg135
g136
(S'\x07\xdf\x0b\x02\x11!!\x00\x00\x00'
p3045
tp3046
Rp3047
sg50
(dp3048
g155
Nsg156
I00
sg157
g3001
sg158
I00
sg159
Nsg56
L661234706613080064L
sg160
I0
sg161
V<a href="http://dlvr.it" rel="nofollow">dlvr.it</a>
p3049
sg163
I00
sg164
Nsg64
(dp3050
g166
(lp3051
(dp3052
g39
(lp3053
I0
aI5
asg157
VAVGO
p3054
sa(dp3055
g39
(lp3056
I63
aI68
asg157
VAVGO
p3057
sa(dp3058
g39
(lp3059
I69
aI73
asg157
VNKE
p3060
sa(dp3061
g39
(lp3062
I74
aI79
asg157
VPNQI
p3063
sa(dp3064
g39
(lp3065
I80
aI84
asg157
VRWM
p3066
sasg183
(lp3067
sg185
(lp3068
sg35
(lp3069
(dp3070
g33
Vhttps://t.co/DmRmaKvkKe
p3071
sg39
(lp3072
I85
aI108
asg41
Vhttp://dlvr.it/CdFrm2
p3073
sg43
Vdlvr.it/CdFrm2
p3074
sassg193
Nsg194
Nsg195
I0
sg68
V661234706613080064
p3075
sg197
I00
sg198
g3023
sg199
Nsg200
Nsg201
I00
sg92
g3044
sg100
VMon Nov 02 17:33:33 +0000 2015
p3076
sg203
Nsg204
Nsg205
(dp3077
g207
Ven
p3078
sg209
Vrecent
p3079
sssg211
g3077
sg212
Nsg213
Nsg31
g3050
sg214
Nsg215
Nsg112
g3075
sg216
I00
sg217
Nsg218
I0
sg219
Nsbatp3080
Rp3081
(dp3082
S'count'
p3083
I100
sS'completed_in'
p3084
F0.031
sS'_since_id'
p3085
NsS'refresh_url'
p3086
V?since_id=664334513846272000&q=%24PNQI&include_entities=1
p3087
sS'query'
p3088
V%24PNQI
p3089
sS'_max_id'
p3090
NsS'next_results'
p3091
Nsb.