ccopy_reg
_reconstructor
p0
(ctweepy.models
SearchResults
p1
c__builtin__
list
p2
(lp3
g0
(ctweepy.models
Status
p4
c__builtin__
object
p5
Ntp6
Rp7
(dp8
S'favorited'
p9
I00
sS'contributors'
p10
NsS'truncated'
p11
I00
sS'text'
p12
V$POPE Institutional ownership up 1.08% Q/Q, with 7,712 net purchase https://t.co/aCt5y7y49J https://t.co/tzTCUhb7Qe
p13
sS'source_url'
p14
Vhttp://lovelystocks.com
p15
sS'possibly_sensitive'
p16
I00
sS'is_quote_status'
p17
I00
sS'in_reply_to_status_id'
p18
NsS'user'
p19
g0
(ctweepy.models
User
p20
g5
Ntp21
Rp22
(dp23
S'follow_request_sent'
p24
I00
sS'has_extended_profile'
p25
I00
sS'profile_use_background_image'
p26
I01
sS'profile_sidebar_fill_color'
p27
VF6FFD1
p28
sS'id'
p29
L2343862982L
sS'verified'
p30
I00
sS'entities'
p31
(dp32
Vdescription
p33
(dp34
Vurls
p35
(lp36
sssS'profile_image_url_https'
p37
Vhttps://pbs.twimg.com/profile_images/475757304042618880/GXfaDX___normal.jpeg
p38
sS'_json'
p39
(dp40
Vfollow_request_sent
p41
I00
sVhas_extended_profile
p42
I00
sVprofile_use_background_image
p43
I01
sVdefault_profile_image
p44
I00
sVid
p45
L2343862982L
sVprofile_background_image_url_https
p46
Vhttps://abs.twimg.com/images/themes/theme19/bg.gif
p47
sVverified
p48
I00
sVprofile_text_color
p49
V333333
p50
sVprofile_image_url_https
p51
g38
sVprofile_sidebar_fill_color
p52
g28
sVentities
p53
g32
sVfollowers_count
p54
I320
sVprofile_sidebar_border_color
p55
VFFF8AD
p56
sVid_str
p57
V2343862982
p58
sVprofile_background_color
p59
VFFF04D
p60
sVlisted_count
p61
I18
sVis_translation_enabled
p62
I00
sVutc_offset
p63
I-14400
sVstatuses_count
p64
I61148
sg33
V
p65
sVfriends_count
p66
I0
sVlocation
p67
g65
sVprofile_link_color
p68
V0099CC
p69
sVprofile_image_url
p70
Vhttp://pbs.twimg.com/profile_images/475757304042618880/GXfaDX___normal.jpeg
p71
sVfollowing
p72
I00
sVgeo_enabled
p73
I00
sVprofile_background_image_url
p74
Vhttp://abs.twimg.com/images/themes/theme19/bg.gif
p75
sVscreen_name
p76
VWatchTheFunds
p77
sVlang
p78
Ven
p79
sVprofile_background_tile
p80
I00
sVfavourites_count
p81
I0
sVname
p82
VWatchTheFunds
p83
sVnotifications
p84
I00
sVurl
p85
NsVcreated_at
p86
VFri Feb 14 17:09:44 +0000 2014
p87
sVcontributors_enabled
p88
I00
sVtime_zone
p89
VAtlantic Time (Canada)
p90
sVprotected
p91
I00
sVdefault_profile
p92
I00
sVis_translator
p93
I00
ssS'contributors_enabled'
p94
I00
sS'profile_text_color'
p95
g50
sS'followers_count'
p96
I320
sS'profile_sidebar_border_color'
p97
g56
sS'id_str'
p98
g58
sS'default_profile_image'
p99
I00
sS'listed_count'
p100
I18
sS'is_translation_enabled'
p101
I00
sS'utc_offset'
p102
I-14400
sS'statuses_count'
p103
I61148
sS'description'
p104
g65
sS'friends_count'
p105
I0
sS'location'
p106
g65
sS'profile_link_color'
p107
g69
sS'profile_image_url'
p108
g71
sS'notifications'
p109
I00
sS'geo_enabled'
p110
I00
sS'profile_background_color'
p111
g60
sS'profile_background_image_url'
p112
g75
sS'screen_name'
p113
g77
sS'lang'
p114
g79
sS'following'
p115
I00
sS'profile_background_tile'
p116
I00
sS'favourites_count'
p117
I0
sS'name'
p118
g83
sS'url'
p119
NsS'created_at'
p120
cdatetime
datetime
p121
(S'\x07\xde\x02\x0e\x11\t,\x00\x00\x00'
p122
tp123
Rp124
sS'profile_background_image_url_https'
p125
g47
sS'time_zone'
p126
g90
sS'protected'
p127
I00
sS'default_profile'
p128
I00
sS'is_translator'
p129
I00
sbsS'geo'
p130
Nsg29
L664426858834993152L
sS'favorite_count'
p131
I0
sS'source'
p132
VWatchTheFunds
p133
sg114
Ven
p134
sS'author'
p135
g22
sg120
g121
(S'\x07\xdf\x0b\x0b\x0c:\x02\x00\x00\x00'
p136
tp137
Rp138
sg39
(dp139
Vcontributors
p140
NsVtruncated
p141
I00
sVtext
p142
g13
sVis_quote_status
p143
I00
sVin_reply_to_status_id
p144
Nsg45
L664426858834993152L
sVfavorite_count
p145
I0
sVsource
p146
V<a href="http://lovelystocks.com" rel="nofollow">WatchTheFunds</a>
p147
sVretweeted
p148
I00
sVcoordinates
p149
Nsg53
(dp150
Vsymbols
p151
(lp152
(dp153
Vindices
p154
(lp155
I0
aI5
asg142
VPOPE
p156
sasVuser_mentions
p157
(lp158
sVhashtags
p159
(lp160
sg35
(lp161
(dp162
g85
Vhttps://t.co/aCt5y7y49J
p163
sg154
(lp164
I68
aI91
asVexpanded_url
p165
Vhttp://LovelyStocks.com/POPE
p166
sVdisplay_url
p167
VLovelyStocks.com/POPE
p168
sasVmedia
p169
(lp170
(dp171
g165
Vhttp://twitter.com/WatchTheFunds/status/664426858834993152/photo/1
p172
sg167
Vpic.twitter.com/tzTCUhb7Qe
p173
sg85
Vhttps://t.co/tzTCUhb7Qe
p174
sVmedia_url_https
p175
Vhttps://pbs.twimg.com/media/CTiEtSzWIAAWsHK.jpg
p176
sg57
V664426858713325568
p177
sVsizes
p178
(dp179
Vlarge
p180
(dp181
Vh
p182
I4
sVresize
p183
Vfit
p184
sVw
p185
I4
ssVsmall
p186
(dp187
g182
I4
sg183
Vfit
p188
sg185
I4
ssVmedium
p189
(dp190
g182
I4
sg183
Vfit
p191
sg185
I4
ssVthumb
p192
(dp193
g182
I4
sg183
Vcrop
p194
sg185
I4
sssg154
(lp195
I92
aI115
asVtype
p196
Vphoto
p197
sg45
L664426858713325568L
sVmedia_url
p198
Vhttp://pbs.twimg.com/media/CTiEtSzWIAAWsHK.jpg
p199
sassVin_reply_to_screen_name
p200
NsVin_reply_to_user_id
p201
NsVretweet_count
p202
I0
sg57
V664426858834993152
p203
sVfavorited
p204
I00
sVuser
p205
g40
sVgeo
p206
NsVin_reply_to_user_id_str
p207
NsVpossibly_sensitive
p208
I00
sg78
g134
sg86
VWed Nov 11 12:58:02 +0000 2015
p209
sVin_reply_to_status_id_str
p210
NsVplace
p211
NsVmetadata
p212
(dp213
Viso_language_code
p214
Ven
p215
sVresult_type
p216
Vrecent
p217
sssS'metadata'
p218
g213
sS'coordinates'
p219
NsS'in_reply_to_user_id_str'
p220
Nsg31
g150
sS'in_reply_to_status_id_str'
p221
NsS'in_reply_to_screen_name'
p222
Nsg98
g203
sS'retweeted'
p223
I00
sS'place'
p224
NsS'retweet_count'
p225
I0
sS'in_reply_to_user_id'
p226
Nsbag0
(g4
g5
Ntp227
Rp228
(dp229
g9
I00
sg10
Nsg11
I00
sg12
V$POPE:\u000a\u000aPope Resources A Delaware LP Declares Quarterly Dividend of \u2026:\u000a\u000ahttps://t.co/bdLZAJUwh7
p230
sg14
Vhttp://www.newsflowing.com
p231
sg16
I00
sg17
I00
sg18
Nsg19
g0
(g20
g5
Ntp232
Rp233
(dp234
g24
I00
sg25
I00
sg26
I01
sg27
VDDFFCC
p235
sg29
L2342763212L
sg30
I00
sg31
(dp236
g33
(dp237
g35
(lp238
sssg37
Vhttps://pbs.twimg.com/profile_images/544036701056684032/FY2Xgs7b_normal.jpeg
p239
sg39
(dp240
g41
I00
sg42
I00
sg43
I01
sg44
I00
sg45
L2342763212L
sg46
Vhttps://abs.twimg.com/images/themes/theme16/bg.gif
p241
sg48
I00
sg49
V333333
p242
sg51
g239
sg52
g235
sg53
g236
sg54
I421
sg55
VBDDCAD
p243
sg57
V2342763212
p244
sg59
V9AE4E8
p245
sg61
I74
sg62
I00
sg63
I-14400
sg64
I193980
sg33
VNews as it happens
p246
sg66
I0
sg67
VUS
p247
sg68
V0084B4
p248
sg70
Vhttp://pbs.twimg.com/profile_images/544036701056684032/FY2Xgs7b_normal.jpeg
p249
sg72
I00
sg73
I00
sg74
Vhttp://abs.twimg.com/images/themes/theme16/bg.gif
p250
sg76
Vnewswelldone
p251
sg78
Ven
p252
sg80
I00
sg81
I0
sg82
VBreaking News
p253
sg84
I00
sg85
Nsg86
VFri Feb 14 00:21:52 +0000 2014
p254
sg88
I00
sg89
VAtlantic Time (Canada)
p255
sg91
I00
sg92
I00
sg93
I00
ssg94
I00
sg95
g242
sg96
I421
sg97
g243
sg98
g244
sg99
I00
sg100
I74
sg101
I00
sg102
I-14400
sg103
I193980
sg104
g246
sg105
I0
sg106
g247
sg107
g248
sg108
g249
sg109
I00
sg110
I00
sg111
g245
sg112
g250
sg113
g251
sg114
g252
sg115
I00
sg116
I00
sg117
I0
sg118
g253
sg119
Nsg120
g121
(S'\x07\xde\x02\x0e\x00\x154\x00\x00\x00'
p256
tp257
Rp258
sg125
g241
sg126
g255
sg127
I00
sg128
I00
sg129
I00
sbsg130
Nsg29
L664229371176177664L
sg131
I0
sg132
VNFIG
p259
sg114
Ven
p260
sg135
g233
sg120
g121
(S'\x07\xdf\x0b\n\x175\x11\x00\x00\x00'
p261
tp262
Rp263
sg39
(dp264
g140
Nsg141
I00
sg142
V$POPE:\u000a\u000aPope Resources A Delaware LP Declares Quarterly Dividend of \u2026:\u000a\u000ahttps://t.co/bdLZAJUwh7
p265
sg143
I00
sg144
Nsg45
L664229371176177664L
sg145
I0
sg146
V<a href="http://www.newsflowing.com" rel="nofollow">NFIG</a>
p266
sg148
I00
sg149
Nsg53
(dp267
g151
(lp268
(dp269
g154
(lp270
I0
aI5
asg142
VPOPE
p271
sasg157
(lp272
sg159
(lp273
sg35
(lp274
(dp275
g85
Vhttps://t.co/bdLZAJUwh7
p276
sg154
(lp277
I72
aI95
asg165
Vhttp://StockNewsHour.com/pope-pope-resources-a-delaware-lp-declares-quarterly-dividend-of/
p278
sg167
VStockNewsHour.com/pope-pope-reso\u2026
p279
sassg200
Nsg201
Nsg202
I0
sg57
V664229371176177664
p280
sg204
I00
sg205
g240
sg206
Nsg207
Nsg208
I00
sg78
g260
sg86
VTue Nov 10 23:53:17 +0000 2015
p281
sg210
Nsg211
Nsg212
(dp282
g214
Ven
p283
sg216
Vrecent
p284
sssg218
g282
sg219
Nsg220
Nsg31
g267
sg221
Nsg222
Nsg98
g280
sg223
I00
sg224
Nsg225
I0
sg226
Nsbag0
(g4
g5
Ntp285
Rp286
(dp287
g9
I00
sg10
Nsg11
I00
sg12
VPope Resources A Delaware LP Declares Quarterly Dividend of $0.70 $POPE https://t.co/zecTEpwZoE #acn
p288
sg14
Vhttp://ifttt.com
p289
sg16
I00
sg17
I00
sg18
Nsg19
g0
(g20
g5
Ntp290
Rp291
(dp292
g24
I00
sg25
I00
sg26
I01
sg27
VE8E8E8
p293
sg29
I52210566
sg30
I00
sg31
(dp294
g85
(dp295
g35
(lp296
(dp297
g85
Vhttp://t.co/odTc3pvcAe
p298
sg154
(lp299
I0
aI22
asg165
Vhttp://www.americanconsumernews.com/
p300
sg167
Vamericanconsumernews.com
p301
sassg33
(dp302
g35
(lp303
sssg37
Vhttps://pbs.twimg.com/profile_images/289298274/text_normal.jpg
p304
sg39
(dp305
g41
I00
sg42
I00
sg43
I01
sg44
I00
sg45
I52210566
sg46
Vhttps://pbs.twimg.com/profile_background_images/20558354/back.jpg
p306
sg48
I00
sg49
V333333
p307
sg51
g304
sg52
g293
sg53
g294
sg54
I1114
sg55
VADADAD
p308
sg57
V52210566
p309
sg59
V9AE4E8
p310
sg61
I96
sg62
I00
sg63
I-21600
sg64
I580839
sg33
VPersonal Finance and Consumer Tips
p311
sg66
I1412
sg67
VSioux Falls, SD
p312
sg68
V0084B4
p313
sg70
Vhttp://pbs.twimg.com/profile_images/289298274/text_normal.jpg
p314
sg72
I00
sg73
I00
sg74
Vhttp://pbs.twimg.com/profile_background_images/20558354/back.jpg
p315
sg76
VAmConsumerNews
p316
sg78
Ven
p317
sg80
I00
sg81
I0
sg82
VConsumer News
p318
sg84
I00
sg85
Vhttp://t.co/odTc3pvcAe
p319
sg86
VMon Jun 29 22:22:08 +0000 2009
p320
sg88
I00
sg89
VCentral Time (US & Canada)
p321
sg91
I00
sg92
I00
sg93
I00
ssg94
I00
sg95
g307
sg96
I1114
sg97
g308
sg98
g309
sg99
I00
sg100
I96
sg101
I00
sg102
I-21600
sg103
I580839
sg104
g311
sg105
I1412
sg106
g312
sg107
g313
sg108
g314
sg109
I00
sg110
I00
sg111
g310
sg112
g315
sg113
g316
sg114
g317
sg115
I00
sg116
I00
sg117
I0
sg118
g318
sg119
g319
sg120
g121
(S'\x07\xd9\x06\x1d\x16\x16\x08\x00\x00\x00'
p322
tp323
Rp324
sg125
g306
sg126
g321
sg127
I00
sg128
I00
sg129
I00
sbsg130
Nsg29
L664228164168740865L
sg131
I0
sg132
VIFTTT
p325
sg114
Ven
p326
sg135
g291
sg120
g121
(S'\x07\xdf\x0b\n\x170\x1d\x00\x00\x00'
p327
tp328
Rp329
sg39
(dp330
g140
Nsg141
I00
sg142
g288
sg143
I00
sg144
Nsg45
L664228164168740865L
sg145
I0
sg146
V<a href="http://ifttt.com" rel="nofollow">IFTTT</a>
p331
sg148
I00
sg149
Nsg53
(dp332
g151
(lp333
(dp334
g154
(lp335
I66
aI71
asg142
VPOPE
p336
sasg157
(lp337
sg159
(lp338
(dp339
g154
(lp340
I96
aI100
asg142
Vacn
p341
sasg35
(lp342
(dp343
g85
Vhttps://t.co/zecTEpwZoE
p344
sg154
(lp345
I72
aI95
asg165
Vhttp://ift.tt/1MJJut1
p346
sg167
Vift.tt/1MJJut1
p347
sassg200
Nsg201
Nsg202
I0
sg57
V664228164168740865
p348
sg204
I00
sg205
g305
sg206
Nsg207
Nsg208
I00
sg78
g326
sg86
VTue Nov 10 23:48:29 +0000 2015
p349
sg210
Nsg211
Nsg212
(dp350
g214
Ven
p351
sg216
Vrecent
p352
sssg218
g350
sg219
Nsg220
Nsg31
g332
sg221
Nsg222
Nsg98
g348
sg223
I00
sg224
Nsg225
I0
sg226
Nsbag0
(g4
g5
Ntp353
Rp354
(dp355
g9
I00
sg10
Nsg11
I00
sg12
VPope Resources A Delaware LP Declares Quarterly Dividend of $0.70 $POPE https://t.co/f4QL2bOW88
p356
sg14
Vhttp://ifttt.com
p357
sg16
I00
sg17
I00
sg18
Nsg19
g0
(g20
g5
Ntp358
Rp359
(dp360
g24
I00
sg25
I00
sg26
I01
sg27
VEFEFEF
p361
sg29
I1979190776
sg30
I00
sg31
(dp362
g33
(dp363
g35
(lp364
sssg37
Vhttps://pbs.twimg.com/profile_images/378800000629011324/02a58ce4852fa2c0b053a8853393c35c_normal.png
p365
sg39
(dp366
g41
I00
sg42
I00
sg43
I01
sg44
I00
sg45
I1979190776
sg46
Vhttps://abs.twimg.com/images/themes/theme14/bg.gif
p367
sg48
I00
sg49
V333333
p368
sg51
g365
sg52
g361
sg53
g362
sg54
I780
sg55
VEEEEEE
p369
sg57
V1979190776
p370
sg59
V131516
p371
sg61
I83
sg62
I00
sg63
Nsg64
I347263
sg33
VMarket moving news
p372
sg66
I11
sg67
VVirginia
p373
sg68
V009999
p374
sg70
Vhttp://pbs.twimg.com/profile_images/378800000629011324/02a58ce4852fa2c0b053a8853393c35c_normal.png
p375
sg72
I00
sg73
I00
sg74
Vhttp://abs.twimg.com/images/themes/theme14/bg.gif
p376
sg76
VTickerReport
p377
sg78
Ven
p378
sg80
I01
sg81
I0
sg82
VTicker Report
p379
sg84
I00
sg85
Nsg86
VMon Oct 21 15:58:27 +0000 2013
p380
sg88
I00
sg89
Nsg91
I00
sg92
I00
sg93
I00
ssg94
I00
sg95
g368
sg96
I780
sg97
g369
sg98
g370
sg99
I00
sg100
I83
sg101
I00
sg102
Nsg103
I347263
sg104
g372
sg105
I11
sg106
g373
sg107
g374
sg108
g375
sg109
I00
sg110
I00
sg111
g371
sg112
g376
sg113
g377
sg114
g378
sg115
I00
sg116
I01
sg117
I0
sg118
g379
sg119
Nsg120
g121
(S'\x07\xdd\n\x15\x0f:\x1b\x00\x00\x00'
p381
tp382
Rp383
sg125
g367
sg126
Nsg127
I00
sg128
I00
sg129
I00
sbsg130
Nsg29
L664227645027151873L
sg131
I0
sg132
VIFTTT
p384
sg114
Ven
p385
sg135
g359
sg120
g121
(S'\x07\xdf\x0b\n\x17.\x19\x00\x00\x00'
p386
tp387
Rp388
sg39
(dp389
g140
Nsg141
I00
sg142
g356
sg143
I00
sg144
Nsg45
L664227645027151873L
sg145
I0
sg146
V<a href="http://ifttt.com" rel="nofollow">IFTTT</a>
p390
sg148
I00
sg149
Nsg53
(dp391
g151
(lp392
(dp393
g154
(lp394
I66
aI71
asg142
VPOPE
p395
sasg157
(lp396
sg159
(lp397
sg35
(lp398
(dp399
g85
Vhttps://t.co/f4QL2bOW88
p400
sg154
(lp401
I72
aI95
asg165
Vhttp://ift.tt/20LbIha
p402
sg167
Vift.tt/20LbIha
p403
sassg200
Nsg201
Nsg202
I0
sg57
V664227645027151873
p404
sg204
I00
sg205
g366
sg206
Nsg207
Nsg208
I00
sg78
g385
sg86
VTue Nov 10 23:46:25 +0000 2015
p405
sg210
Nsg211
Nsg212
(dp406
g214
Ven
p407
sg216
Vrecent
p408
sssg218
g406
sg219
Nsg220
Nsg31
g391
sg221
Nsg222
Nsg98
g404
sg223
I00
sg224
Nsg225
I0
sg226
Nsbag0
(g4
g5
Ntp409
Rp410
(dp411
g9
I00
sg10
Nsg11
I00
sg12
VPope Resources A Delaware LP Declares Quarterly Dividend of $0.70 $POPE https://t.co/GrjAqiRCd2
p412
sg14
Vhttp://ifttt.com
p413
sg16
I00
sg17
I00
sg18
Nsg19
g0
(g20
g5
Ntp414
Rp415
(dp416
g24
I00
sg25
I00
sg26
I01
sg27
VCCDAFF
p417
sg29
I61661638
sg30
I00
sg31
(dp418
g85
(dp419
g35
(lp420
(dp421
g85
Vhttp://t.co/7EZswS49Q1
p422
sg154
(lp423
I0
aI22
asg165
Vhttp://www.americanbankingnews.com/
p424
sg167
Vamericanbankingnews.com
p425
sassg33
(dp426
g35
(lp427
sssg37
Vhttps://pbs.twimg.com/profile_images/541252987/Image5_normal.jpg
p428
sg39
(dp429
g41
I00
sg42
I00
sg43
I01
sg44
I00
sg45
I61661638
sg46
Vhttps://pbs.twimg.com/profile_background_images/55647305/background.png
p430
sg48
I00
sg49
V141414
p431
sg51
g428
sg52
g417
sg53
g418
sg54
I5557
sg55
VABB1D9
p432
sg57
V61661638
p433
sg59
V000000
p434
sg61
I469
sg62
I00
sg63
I-21600
sg64
I693975
sg33
VBanks, Credit Unions & Financial Institutions
p435
sg66
I2307
sg67
VSioux Falls, SD
p436
sg68
VA60000
p437
sg70
Vhttp://pbs.twimg.com/profile_images/541252987/Image5_normal.jpg
p438
sg72
I00
sg73
I00
sg74
Vhttp://pbs.twimg.com/profile_background_images/55647305/background.png
p439
sg76
VAmericanBanking
p440
sg78
Ven
p441
sg80
I01
sg81
I0
sg82
VUS Banking News
p442
sg84
I00
sg85
Vhttp://t.co/7EZswS49Q1
p443
sg86
VFri Jul 31 01:58:33 +0000 2009
p444
sg88
I00
sg89
VCentral Time (US & Canada)
p445
sg91
I00
sg92
I00
sg93
I00
ssg94
I00
sg95
g431
sg96
I5557
sg97
g432
sg98
g433
sg99
I00
sg100
I469
sg101
I00
sg102
I-21600
sg103
I693975
sg104
g435
sg105
I2307
sg106
g436
sg107
g437
sg108
g438
sg109
I00
sg110
I00
sg111
g434
sg112
g439
sg113
g440
sg114
g441
sg115
I00
sg116
I01
sg117
I0
sg118
g442
sg119
g443
sg120
g121
(S'\x07\xd9\x07\x1f\x01:!\x00\x00\x00'
p446
tp447
Rp448
sg125
g430
sg126
g445
sg127
I00
sg128
I00
sg129
I00
sbsg130
Nsg29
L664227436859629569L
sg131
I0
sg132
VIFTTT
p449
sg114
Ven
p450
sg135
g415
sg120
g121
(S'\x07\xdf\x0b\n\x17-$\x00\x00\x00'
p451
tp452
Rp453
sg39
(dp454
g140
Nsg141
I00
sg142
g412
sg143
I00
sg144
Nsg45
L664227436859629569L
sg145
I0
sg146
V<a href="http://ifttt.com" rel="nofollow">IFTTT</a>
p455
sg148
I00
sg149
Nsg53
(dp456
g151
(lp457
(dp458
g154
(lp459
I66
aI71
asg142
VPOPE
p460
sasg157
(lp461
sg159
(lp462
sg35
(lp463
(dp464
g85
Vhttps://t.co/GrjAqiRCd2
p465
sg154
(lp466
I72
aI95
asg165
Vhttp://ift.tt/20LbIha
p467
sg167
Vift.tt/20LbIha
p468
sassg200
Nsg201
Nsg202
I0
sg57
V664227436859629569
p469
sg204
I00
sg205
g429
sg206
Nsg207
Nsg208
I00
sg78
g450
sg86
VTue Nov 10 23:45:36 +0000 2015
p470
sg210
Nsg211
Nsg212
(dp471
g214
Ven
p472
sg216
Vrecent
p473
sssg218
g471
sg219
Nsg220
Nsg31
g456
sg221
Nsg222
Nsg98
g469
sg223
I00
sg224
Nsg225
I0
sg226
Nsbag0
(g4
g5
Ntp474
Rp475
(dp476
g9
I00
sg10
Nsg11
I00
sg12
VPope Resources A Delaware LP announces quarterly dividend of $0.70.  Payable on 12/9/2015. 4.70% Yield.  https://t.co/Cfz3cMF5i9 $POPE #PO\u2026
p477
sg14
Vhttp://ifttt.com
p478
sg16
I00
sg17
I00
sg18
Nsg19
g0
(g20
g5
Ntp479
Rp480
(dp481
g24
I00
sg25
I00
sg26
I01
sg27
VE8E8E8
p482
sg29
I52210566
sg30
I00
sg31
(dp483
g85
(dp484
g35
(lp485
(dp486
g85
Vhttp://t.co/odTc3pvcAe
p487
sg154
(lp488
I0
aI22
asg165
Vhttp://www.americanconsumernews.com/
p489
sg167
Vamericanconsumernews.com
p490
sassg33
(dp491
g35
(lp492
sssg37
Vhttps://pbs.twimg.com/profile_images/289298274/text_normal.jpg
p493
sg39
(dp494
g41
I00
sg42
I00
sg43
I01
sg44
I00
sg45
I52210566
sg46
Vhttps://pbs.twimg.com/profile_background_images/20558354/back.jpg
p495
sg48
I00
sg49
V333333
p496
sg51
g493
sg52
g482
sg53
g483
sg54
I1114
sg55
VADADAD
p497
sg57
V52210566
p498
sg59
V9AE4E8
p499
sg61
I96
sg62
I00
sg63
I-21600
sg64
I580839
sg33
VPersonal Finance and Consumer Tips
p500
sg66
I1412
sg67
VSioux Falls, SD
p501
sg68
V0084B4
p502
sg70
Vhttp://pbs.twimg.com/profile_images/289298274/text_normal.jpg
p503
sg72
I00
sg73
I00
sg74
Vhttp://pbs.twimg.com/profile_background_images/20558354/back.jpg
p504
sg76
VAmConsumerNews
p505
sg78
Ven
p506
sg80
I00
sg81
I0
sg82
VConsumer News
p507
sg84
I00
sg85
Vhttp://t.co/odTc3pvcAe
p508
sg86
VMon Jun 29 22:22:08 +0000 2009
p509
sg88
I00
sg89
VCentral Time (US & Canada)
p510
sg91
I00
sg92
I00
sg93
I00
ssg94
I00
sg95
g496
sg96
I1114
sg97
g497
sg98
g498
sg99
I00
sg100
I96
sg101
I00
sg102
I-21600
sg103
I580839
sg104
g500
sg105
I1412
sg106
g501
sg107
g502
sg108
g503
sg109
I00
sg110
I00
sg111
g499
sg112
g504
sg113
g505
sg114
g506
sg115
I00
sg116
I00
sg117
I0
sg118
g507
sg119
g508
sg120
g121
(S'\x07\xd9\x06\x1d\x16\x16\x08\x00\x00\x00'
p511
tp512
Rp513
sg125
g495
sg126
g510
sg127
I00
sg128
I00
sg129
I00
sbsg130
Nsg29
L664208904461664256L
sg131
I0
sg132
VIFTTT
p514
sg114
Ven
p515
sg135
g480
sg120
g121
(S'\x07\xdf\x0b\n\x16\x1f9\x00\x00\x00'
p516
tp517
Rp518
sg39
(dp519
g140
Nsg141
I00
sg142
g477
sg143
I00
sg144
Nsg45
L664208904461664256L
sg145
I0
sg146
V<a href="http://ifttt.com" rel="nofollow">IFTTT</a>
p520
sg148
I00
sg149
Nsg53
(dp521
g151
(lp522
(dp523
g154
(lp524
I129
aI134
asg142
VPOPE
p525
sasg157
(lp526
sg159
(lp527
(dp528
g154
(lp529
I135
aI138
asg142
VPO
p530
sasg35
(lp531
(dp532
g85
Vhttps://t.co/Cfz3cMF5i9
p533
sg154
(lp534
I105
aI128
asg165
Vhttp://ift.tt/1WQhfyu
p535
sg167
Vift.tt/1WQhfyu
p536
sassg200
Nsg201
Nsg202
I0
sg57
V664208904461664256
p537
sg204
I00
sg205
g494
sg206
Nsg207
Nsg208
I00
sg78
g515
sg86
VTue Nov 10 22:31:57 +0000 2015
p538
sg210
Nsg211
Nsg212
(dp539
g214
Ven
p540
sg216
Vrecent
p541
sssg218
g539
sg219
Nsg220
Nsg31
g521
sg221
Nsg222
Nsg98
g537
sg223
I00
sg224
Nsg225
I0
sg226
Nsbag0
(g4
g5
Ntp542
Rp543
(dp544
g9
I00
sg10
Nsg11
I00
sg12
V$POPE:\u000a\u000aNew SEC Filing for POPE: Form 8-K (No. 0000784011-15-000012):\u000a\u000ahttps://t.co/AspEeLfVSU
p545
sg14
Vhttp://www.stocknewswires.com
p546
sg16
I00
sg17
I00
sg18
Nsg19
g0
(g20
g5
Ntp547
Rp548
(dp549
g24
I00
sg25
I00
sg26
I01
sg27
VDAECF4
p550
sg29
L2341445778L
sg30
I00
sg31
(dp551
g33
(dp552
g35
(lp553
sssg37
Vhttps://pbs.twimg.com/profile_images/542238326397227008/UfZ0ulTf_normal.jpeg
p554
sg39
(dp555
g41
I00
sg42
I00
sg43
I01
sg44
I00
sg45
L2341445778L
sg46
Vhttps://abs.twimg.com/images/themes/theme2/bg.gif
p556
sg48
I00
sg49
V663B12
p557
sg51
g554
sg52
g550
sg53
g551
sg54
I660
sg55
VC6E2EE
p558
sg57
V2341445778
p559
sg59
VC6E2EE
p560
sg61
I107
sg62
I00
sg63
I-14400
sg64
I236872
sg33
VInvest like a fish
p561
sg66
I9
sg67
VUnited States
p562
sg68
V1F98C7
p563
sg70
Vhttp://pbs.twimg.com/profile_images/542238326397227008/UfZ0ulTf_normal.jpeg
p564
sg72
I00
sg73
I00
sg74
Vhttp://abs.twimg.com/images/themes/theme2/bg.gif
p565
sg76
VStockNewsWires
p566
sg78
Ven
p567
sg80
I00
sg81
I0
sg82
VStockNewsWires
p568
sg84
I00
sg85
Nsg86
VThu Feb 13 05:31:52 +0000 2014
p569
sg88
I00
sg89
VAtlantic Time (Canada)
p570
sg91
I00
sg92
I00
sg93
I00
ssg94
I00
sg95
g557
sg96
I660
sg97
g558
sg98
g559
sg99
I00
sg100
I107
sg101
I00
sg102
I-14400
sg103
I236872
sg104
g561
sg105
I9
sg106
g562
sg107
g563
sg108
g564
sg109
I00
sg110
I00
sg111
g560
sg112
g565
sg113
g566
sg114
g567
sg115
I00
sg116
I00
sg117
I0
sg118
g568
sg119
Nsg120
g121
(S'\x07\xde\x02\r\x05\x1f4\x00\x00\x00'
p571
tp572
Rp573
sg125
g556
sg126
g570
sg127
I00
sg128
I00
sg129
I00
sbsg130
Nsg29
L664191350326345728L
sg131
I0
sg132
VStockNewsWires
p574
sg114
Ven
p575
sg135
g548
sg120
g121
(S'\x07\xdf\x0b\n\x15\x16\x0c\x00\x00\x00'
p576
tp577
Rp578
sg39
(dp579
g140
Nsg141
I00
sg142
V$POPE:\u000a\u000aNew SEC Filing for POPE: Form 8-K (No. 0000784011-15-000012):\u000a\u000ahttps://t.co/AspEeLfVSU
p580
sg143
I00
sg144
Nsg45
L664191350326345728L
sg145
I0
sg146
V<a href="http://www.stocknewswires.com" rel="nofollow">StockNewsWires</a>
p581
sg148
I00
sg149
Nsg53
(dp582
g151
(lp583
(dp584
g154
(lp585
I0
aI5
asg142
VPOPE
p586
sasg157
(lp587
sg159
(lp588
sg35
(lp589
(dp590
g85
Vhttps://t.co/AspEeLfVSU
p591
sg154
(lp592
I71
aI94
asg165
Vhttp://StockNewsHour.com/pope-new-sec-filing-for-pope-form-8-k-no-0000784011-15-000012/
p593
sg167
VStockNewsHour.com/pope-new-sec-f\u2026
p594
sassg200
Nsg201
Nsg202
I0
sg57
V664191350326345728
p595
sg204
I00
sg205
g555
sg206
Nsg207
Nsg208
I00
sg78
g575
sg86
VTue Nov 10 21:22:12 +0000 2015
p596
sg210
Nsg211
Nsg212
(dp597
g214
Ven
p598
sg216
Vrecent
p599
sssg218
g597
sg219
Nsg220
Nsg31
g582
sg221
Nsg222
Nsg98
g595
sg223
I00
sg224
Nsg225
I0
sg226
Nsbag0
(g4
g5
Ntp600
Rp601
(dp602
g9
I00
sg10
Nsg11
I00
sg12
VNEW SEC Filing for $POPE filed a moment ago: https://t.co/xCqftjt2SN https://t.co/UrkDOdUFiE
p603
sg14
Vhttp://www.newsflowing.com
p604
sg16
I00
sg17
I00
sg18
Nsg19
g0
(g20
g5
Ntp605
Rp606
(dp607
g24
I00
sg25
I00
sg26
I01
sg27
VF3F3F3
p608
sg29
L2341446434L
sg30
I00
sg31
(dp609
g33
(dp610
g35
(lp611
sssg37
Vhttps://pbs.twimg.com/profile_images/562323085005565953/2Sazc-dB_normal.jpeg
p612
sg39
(dp613
g41
I00
sg42
I00
sg43
I01
sg44
I00
sg45
L2341446434L
sg46
Vhttps://abs.twimg.com/images/themes/theme7/bg.gif
p614
sg48
I00
sg49
V333333
p615
sg51
g612
sg52
g608
sg53
g609
sg54
I69
sg55
VDFDFDF
p616
sg57
V2341446434
p617
sg59
VEBEBEB
p618
sg61
I6
sg62
I00
sg63
I-14400
sg64
I26716
sg33
g65
sg66
I0
sg67
g65
sg68
V990000
p619
sg70
Vhttp://pbs.twimg.com/profile_images/562323085005565953/2Sazc-dB_normal.jpeg
p620
sg72
I00
sg73
I00
sg74
Vhttp://abs.twimg.com/images/themes/theme7/bg.gif
p621
sg76
VNewsThatIs
p622
sg78
Ven
p623
sg80
I00
sg81
I0
sg82
VSEC Filings Reporter
p624
sg84
I00
sg85
Nsg86
VThu Feb 13 05:31:19 +0000 2014
p625
sg88
I00
sg89
VAtlantic Time (Canada)
p626
sg91
I00
sg92
I00
sg93
I00
ssg94
I00
sg95
g615
sg96
I69
sg97
g616
sg98
g617
sg99
I00
sg100
I6
sg101
I00
sg102
I-14400
sg103
I26716
sg104
g65
sg105
I0
sg106
g65
sg107
g619
sg108
g620
sg109
I00
sg110
I00
sg111
g618
sg112
g621
sg113
g622
sg114
g623
sg115
I00
sg116
I00
sg117
I0
sg118
g624
sg119
Nsg120
g121
(S'\x07\xde\x02\r\x05\x1f\x13\x00\x00\x00'
p627
tp628
Rp629
sg125
g614
sg126
g626
sg127
I00
sg128
I00
sg129
I00
sbsg130
Nsg29
L664191180939395072L
sg131
I0
sg132
VNFIG
p630
sg114
Ven
p631
sg135
g606
sg120
g121
(S'\x07\xdf\x0b\n\x15\x15 \x00\x00\x00'
p632
tp633
Rp634
sg39
(dp635
g140
Nsg141
I00
sg142
g603
sg143
I00
sg144
Nsg45
L664191180939395072L
sg145
I0
sg146
V<a href="http://www.newsflowing.com" rel="nofollow">NFIG</a>
p636
sg148
I00
sg149
Nsg53
(dp637
g151
(lp638
(dp639
g154
(lp640
I19
aI24
asg142
VPOPE
p641
sasg157
(lp642
sg159
(lp643
sg35
(lp644
(dp645
g85
Vhttps://t.co/xCqftjt2SN
p646
sg154
(lp647
I45
aI68
asg165
Vhttp://stocknewsflow.com/784011_000078401115000012_0000784011-15-000012
p648
sg167
Vstocknewsflow.com/784011_0000784\u2026
p649
sasg169
(lp650
(dp651
g165
Vhttp://twitter.com/NewsThatIs/status/664191180939395072/photo/1
p652
sg167
Vpic.twitter.com/UrkDOdUFiE
p653
sg85
Vhttps://t.co/UrkDOdUFiE
p654
sg175
Vhttps://pbs.twimg.com/media/CTeuXBOXAAAH9-9.jpg
p655
sg57
V664191180549324800
p656
sg178
(dp657
g180
(dp658
g182
I4
sg183
Vfit
p659
sg185
I4
ssg186
(dp660
g182
I4
sg183
Vfit
p661
sg185
I4
ssg189
(dp662
g182
I4
sg183
Vfit
p663
sg185
I4
ssg192
(dp664
g182
I4
sg183
Vcrop
p665
sg185
I4
sssg154
(lp666
I69
aI92
asg196
Vphoto
p667
sg45
L664191180549324800L
sg198
Vhttp://pbs.twimg.com/media/CTeuXBOXAAAH9-9.jpg
p668
sassg200
Nsg201
Nsg202
I0
sg57
V664191180939395072
p669
sg204
I00
sg205
g613
sg206
Nsg207
Nsg208
I00
sg78
g631
sg86
VTue Nov 10 21:21:32 +0000 2015
p670
sg210
Nsg211
Nsg212
(dp671
g214
Ven
p672
sg216
Vrecent
p673
sssg218
g671
sg219
Nsg220
Nsg31
g637
sg221
Nsg222
Nsg98
g669
sg223
I00
sg224
Nsg225
I0
sg226
Nsbag0
(g4
g5
Ntp674
Rp675
(dp676
g9
I00
sg10
Nsg11
I00
sg12
V$POPE: POPE RESOURCES LTD PARTNERSHIP filed a form 8-K. https://t.co/ajfQ8REGYo
p677
sg14
Vhttp://www.jivedata.com/sec
p678
sg16
I00
sg17
I00
sg18
Nsg19
g0
(g20
g5
Ntp679
Rp680
(dp681
g24
I00
sg25
I00
sg26
I01
sg27
VDDEEF6
p682
sg29
I898018302
sg30
I00
sg31
(dp683
g85
(dp684
g35
(lp685
(dp686
g85
Vhttp://t.co/pWCxN8KLo5
p687
sg154
(lp688
I0
aI22
asg165
Vhttp://www.jivedata.com
p689
sg167
Vjivedata.com
p690
sassg33
(dp691
g35
(lp692
sssg37
Vhttps://pbs.twimg.com/profile_images/416320093316841472/YhFYvqmi_normal.png
p693
sg39
(dp694
g41
I00
sg42
I00
sg43
I01
sg44
I00
sg45
I898018302
sg46
Vhttps://pbs.twimg.com/profile_background_images/378800000157544683/R6GKx2Ke.png
p695
sg48
I00
sg49
V333333
p696
sg51
g693
sg52
g682
sg53
g683
sg54
I87
sg55
VFFFFFF
p697
sg57
V898018302
p698
sg59
VFFFFFF
p699
sg61
I14
sg62
I00
sg63
I-18000
sg64
I56088
sg33
VFinancial. Data. Done. Right. This is a real-time feed of XBRL financial data from 10-K's and 10-Q's
p700
sg66
I0
sg67
VNew York, NY
p701
sg68
V0084B4
p702
sg70
Vhttp://pbs.twimg.com/profile_images/416320093316841472/YhFYvqmi_normal.png
p703
sg72
I00
sg73
I00
sg74
Vhttp://pbs.twimg.com/profile_background_images/378800000157544683/R6GKx2Ke.png
p704
sg76
Vsec_filings
p705
sg78
Ven
p706
sg80
I00
sg81
I0
sg82
VSec Filings
p707
sg84
I00
sg85
Vhttp://t.co/pWCxN8KLo5
p708
sg86
VMon Oct 22 17:25:30 +0000 2012
p709
sg88
I00
sg89
VEastern Time (US & Canada)
p710
sg91
I00
sg92
I00
sg93
I00
ssg94
I00
sg95
g696
sg96
I87
sg97
g697
sg98
g698
sg99
I00
sg100
I14
sg101
I00
sg102
I-18000
sg103
I56088
sg104
g700
sg105
I0
sg106
g701
sg107
g702
sg108
g703
sg109
I00
sg110
I00
sg111
g699
sg112
g704
sg113
g705
sg114
g706
sg115
I00
sg116
I00
sg117
I0
sg118
g707
sg119
g708
sg120
g121
(S'\x07\xdc\n\x16\x11\x19\x1e\x00\x00\x00'
p711
tp712
Rp713
sg125
g695
sg126
g710
sg127
I00
sg128
I00
sg129
I00
sbsg130
Nsg29
L664190989519577088L
sg131
I0
sg132
VJive Data SEC Filings
p714
sg114
Ven
p715
sg135
g680
sg120
g121
(S'\x07\xdf\x0b\n\x15\x14.\x00\x00\x00'
p716
tp717
Rp718
sg39
(dp719
g140
Nsg141
I00
sg142
g677
sg143
I00
sg144
Nsg45
L664190989519577088L
sg145
I0
sg146
V<a href="http://www.jivedata.com/sec" rel="nofollow">Jive Data SEC Filings</a>
p720
sg148
I00
sg149
Nsg53
(dp721
g151
(lp722
(dp723
g154
(lp724
I0
aI5
asg142
VPOPE
p725
sasg157
(lp726
sg159
(lp727
sg35
(lp728
(dp729
g85
Vhttps://t.co/ajfQ8REGYo
p730
sg154
(lp731
I56
aI79
asg165
Vhttp://www.jivedata.com/filings/POPE/
p732
sg167
Vjivedata.com/filings/POPE/
p733
sassg200
Nsg201
Nsg202
I0
sg57
V664190989519577088
p734
sg204
I00
sg205
g694
sg206
Nsg207
Nsg208
I00
sg78
g715
sg86
VTue Nov 10 21:20:46 +0000 2015
p735
sg210
Nsg211
Nsg212
(dp736
g214
Ven
p737
sg216
Vrecent
p738
sssg218
g736
sg219
Nsg220
Nsg31
g721
sg221
Nsg222
Nsg98
g734
sg223
I00
sg224
Nsg225
I0
sg226
Nsbag0
(g4
g5
Ntp739
Rp740
(dp741
g9
I00
sg10
Nsg11
I00
sg12
VPope Resources A Delaware $POPE Releases Quarterly  Earnings Results https://t.co/2oUeOAgLti
p742
sg14
Vhttp://ifttt.com
p743
sg16
I00
sg17
I00
sg18
Nsg19
g0
(g20
g5
Ntp744
Rp745
(dp746
g24
I00
sg25
I00
sg26
I01
sg27
VCCDAFF
p747
sg29
I61661638
sg30
I00
sg31
(dp748
g85
(dp749
g35
(lp750
(dp751
g85
Vhttp://t.co/7EZswS49Q1
p752
sg154
(lp753
I0
aI22
asg165
Vhttp://www.americanbankingnews.com/
p754
sg167
Vamericanbankingnews.com
p755
sassg33
(dp756
g35
(lp757
sssg37
Vhttps://pbs.twimg.com/profile_images/541252987/Image5_normal.jpg
p758
sg39
(dp759
g41
I00
sg42
I00
sg43
I01
sg44
I00
sg45
I61661638
sg46
Vhttps://pbs.twimg.com/profile_background_images/55647305/background.png
p760
sg48
I00
sg49
V141414
p761
sg51
g758
sg52
g747
sg53
g748
sg54
I5557
sg55
VABB1D9
p762
sg57
V61661638
p763
sg59
V000000
p764
sg61
I469
sg62
I00
sg63
I-21600
sg64
I693975
sg33
VBanks, Credit Unions & Financial Institutions
p765
sg66
I2307
sg67
VSioux Falls, SD
p766
sg68
VA60000
p767
sg70
Vhttp://pbs.twimg.com/profile_images/541252987/Image5_normal.jpg
p768
sg72
I00
sg73
I00
sg74
Vhttp://pbs.twimg.com/profile_background_images/55647305/background.png
p769
sg76
VAmericanBanking
p770
sg78
Ven
p771
sg80
I01
sg81
I0
sg82
VUS Banking News
p772
sg84
I00
sg85
Vhttp://t.co/7EZswS49Q1
p773
sg86
VFri Jul 31 01:58:33 +0000 2009
p774
sg88
I00
sg89
VCentral Time (US & Canada)
p775
sg91
I00
sg92
I00
sg93
I00
ssg94
I00
sg95
g761
sg96
I5557
sg97
g762
sg98
g763
sg99
I00
sg100
I469
sg101
I00
sg102
I-21600
sg103
I693975
sg104
g765
sg105
I2307
sg106
g766
sg107
g767
sg108
g768
sg109
I00
sg110
I00
sg111
g764
sg112
g769
sg113
g770
sg114
g771
sg115
I00
sg116
I01
sg117
I0
sg118
g772
sg119
g773
sg120
g121
(S'\x07\xd9\x07\x1f\x01:!\x00\x00\x00'
p776
tp777
Rp778
sg125
g760
sg126
g775
sg127
I00
sg128
I00
sg129
I00
sbsg130
Nsg29
L664135229544747008L
sg131
I0
sg132
VIFTTT
p779
sg114
Ven
p780
sg135
g745
sg120
g121
(S"\x07\xdf\x0b\n\x11'\x0c\x00\x00\x00"
p781
tp782
Rp783
sg39
(dp784
g140
Nsg141
I00
sg142
g742
sg143
I00
sg144
Nsg45
L664135229544747008L
sg145
I0
sg146
V<a href="http://ifttt.com" rel="nofollow">IFTTT</a>
p785
sg148
I00
sg149
Nsg53
(dp786
g151
(lp787
(dp788
g154
(lp789
I26
aI31
asg142
VPOPE
p790
sasg157
(lp791
sg159
(lp792
sg35
(lp793
(dp794
g85
Vhttps://t.co/2oUeOAgLti
p795
sg154
(lp796
I69
aI92
asg165
Vhttp://ift.tt/1PmZms3
p797
sg167
Vift.tt/1PmZms3
p798
sassg200
Nsg201
Nsg202
I0
sg57
V664135229544747008
p799
sg204
I00
sg205
g759
sg206
Nsg207
Nsg208
I00
sg78
g780
sg86
VTue Nov 10 17:39:12 +0000 2015
p800
sg210
Nsg211
Nsg212
(dp801
g214
Ven
p802
sg216
Vrecent
p803
sssg218
g801
sg219
Nsg220
Nsg31
g786
sg221
Nsg222
Nsg98
g799
sg223
I00
sg224
Nsg225
I0
sg226
Nsbag0
(g4
g5
Ntp804
Rp805
(dp806
g9
I00
sg10
Nsg11
I00
sg12
VPope Resources A Delaware $POPE Issues  Earnings Results https://t.co/EAD3m3Lc5N
p807
sg14
Vhttp://ifttt.com
p808
sg16
I00
sg17
I00
sg18
Nsg19
g0
(g20
g5
Ntp809
Rp810
(dp811
g24
I00
sg25
I00
sg26
I01
sg27
VEFEFEF
p812
sg29
I1979190776
sg30
I00
sg31
(dp813
g33
(dp814
g35
(lp815
sssg37
Vhttps://pbs.twimg.com/profile_images/378800000629011324/02a58ce4852fa2c0b053a8853393c35c_normal.png
p816
sg39
(dp817
g41
I00
sg42
I00
sg43
I01
sg44
I00
sg45
I1979190776
sg46
Vhttps://abs.twimg.com/images/themes/theme14/bg.gif
p818
sg48
I00
sg49
V333333
p819
sg51
g816
sg52
g812
sg53
g813
sg54
I780
sg55
VEEEEEE
p820
sg57
V1979190776
p821
sg59
V131516
p822
sg61
I83
sg62
I00
sg63
Nsg64
I347263
sg33
VMarket moving news
p823
sg66
I11
sg67
VVirginia
p824
sg68
V009999
p825
sg70
Vhttp://pbs.twimg.com/profile_images/378800000629011324/02a58ce4852fa2c0b053a8853393c35c_normal.png
p826
sg72
I00
sg73
I00
sg74
Vhttp://abs.twimg.com/images/themes/theme14/bg.gif
p827
sg76
VTickerReport
p828
sg78
Ven
p829
sg80
I01
sg81
I0
sg82
VTicker Report
p830
sg84
I00
sg85
Nsg86
VMon Oct 21 15:58:27 +0000 2013
p831
sg88
I00
sg89
Nsg91
I00
sg92
I00
sg93
I00
ssg94
I00
sg95
g819
sg96
I780
sg97
g820
sg98
g821
sg99
I00
sg100
I83
sg101
I00
sg102
Nsg103
I347263
sg104
g823
sg105
I11
sg106
g824
sg107
g825
sg108
g826
sg109
I00
sg110
I00
sg111
g822
sg112
g827
sg113
g828
sg114
g829
sg115
I00
sg116
I01
sg117
I0
sg118
g830
sg119
Nsg120
g121
(S'\x07\xdd\n\x15\x0f:\x1b\x00\x00\x00'
p832
tp833
Rp834
sg125
g818
sg126
Nsg127
I00
sg128
I00
sg129
I00
sbsg130
Nsg29
L664124203810070528L
sg131
I0
sg132
VIFTTT
p835
sg114
Ven
p836
sg135
g810
sg120
g121
(S'\x07\xdf\x0b\n\x107\x17\x00\x00\x00'
p837
tp838
Rp839
sg39
(dp840
g140
Nsg141
I00
sg142
g807
sg143
I00
sg144
Nsg45
L664124203810070528L
sg145
I0
sg146
V<a href="http://ifttt.com" rel="nofollow">IFTTT</a>
p841
sg148
I00
sg149
Nsg53
(dp842
g151
(lp843
(dp844
g154
(lp845
I26
aI31
asg142
VPOPE
p846
sasg157
(lp847
sg159
(lp848
sg35
(lp849
(dp850
g85
Vhttps://t.co/EAD3m3Lc5N
p851
sg154
(lp852
I57
aI80
asg165
Vhttp://ift.tt/1PAg4Cw
p853
sg167
Vift.tt/1PAg4Cw
p854
sassg200
Nsg201
Nsg202
I0
sg57
V664124203810070528
p855
sg204
I00
sg205
g817
sg206
Nsg207
Nsg208
I00
sg78
g836
sg86
VTue Nov 10 16:55:23 +0000 2015
p856
sg210
Nsg211
Nsg212
(dp857
g214
Ven
p858
sg216
Vrecent
p859
sssg218
g857
sg219
Nsg220
Nsg31
g842
sg221
Nsg222
Nsg98
g855
sg223
I00
sg224
Nsg225
I0
sg226
Nsbag0
(g4
g5
Ntp860
Rp861
(dp862
g9
I00
sg10
Nsg11
I00
sg12
VPope Resources A Delaware $POPE Issues  Earnings Results https://t.co/bnC0k07Z9A
p863
sg14
Vhttp://ifttt.com
p864
sg16
I00
sg17
I00
sg18
Nsg19
g0
(g20
g5
Ntp865
Rp866
(dp867
g24
I00
sg25
I00
sg26
I01
sg27
VCCDAFF
p868
sg29
I61661638
sg30
I00
sg31
(dp869
g85
(dp870
g35
(lp871
(dp872
g85
Vhttp://t.co/7EZswS49Q1
p873
sg154
(lp874
I0
aI22
asg165
Vhttp://www.americanbankingnews.com/
p875
sg167
Vamericanbankingnews.com
p876
sassg33
(dp877
g35
(lp878
sssg37
Vhttps://pbs.twimg.com/profile_images/541252987/Image5_normal.jpg
p879
sg39
(dp880
g41
I00
sg42
I00
sg43
I01
sg44
I00
sg45
I61661638
sg46
Vhttps://pbs.twimg.com/profile_background_images/55647305/background.png
p881
sg48
I00
sg49
V141414
p882
sg51
g879
sg52
g868
sg53
g869
sg54
I5557
sg55
VABB1D9
p883
sg57
V61661638
p884
sg59
V000000
p885
sg61
I469
sg62
I00
sg63
I-21600
sg64
I693975
sg33
VBanks, Credit Unions & Financial Institutions
p886
sg66
I2307
sg67
VSioux Falls, SD
p887
sg68
VA60000
p888
sg70
Vhttp://pbs.twimg.com/profile_images/541252987/Image5_normal.jpg
p889
sg72
I00
sg73
I00
sg74
Vhttp://pbs.twimg.com/profile_background_images/55647305/background.png
p890
sg76
VAmericanBanking
p891
sg78
Ven
p892
sg80
I01
sg81
I0
sg82
VUS Banking News
p893
sg84
I00
sg85
Vhttp://t.co/7EZswS49Q1
p894
sg86
VFri Jul 31 01:58:33 +0000 2009
p895
sg88
I00
sg89
VCentral Time (US & Canada)
p896
sg91
I00
sg92
I00
sg93
I00
ssg94
I00
sg95
g882
sg96
I5557
sg97
g883
sg98
g884
sg99
I00
sg100
I469
sg101
I00
sg102
I-21600
sg103
I693975
sg104
g886
sg105
I2307
sg106
g887
sg107
g888
sg108
g889
sg109
I00
sg110
I00
sg111
g885
sg112
g890
sg113
g891
sg114
g892
sg115
I00
sg116
I01
sg117
I0
sg118
g893
sg119
g894
sg120
g121
(S'\x07\xd9\x07\x1f\x01:!\x00\x00\x00'
p897
tp898
Rp899
sg125
g881
sg126
g896
sg127
I00
sg128
I00
sg129
I00
sbsg130
Nsg29
L664123991477649409L
sg131
I0
sg132
VIFTTT
p900
sg114
Ven
p901
sg135
g866
sg120
g121
(S'\x07\xdf\x0b\n\x106!\x00\x00\x00'
p902
tp903
Rp904
sg39
(dp905
g140
Nsg141
I00
sg142
g863
sg143
I00
sg144
Nsg45
L664123991477649409L
sg145
I0
sg146
V<a href="http://ifttt.com" rel="nofollow">IFTTT</a>
p906
sg148
I00
sg149
Nsg53
(dp907
g151
(lp908
(dp909
g154
(lp910
I26
aI31
asg142
VPOPE
p911
sasg157
(lp912
sg159
(lp913
sg35
(lp914
(dp915
g85
Vhttps://t.co/bnC0k07Z9A
p916
sg154
(lp917
I57
aI80
asg165
Vhttp://ift.tt/1PAg4Cw
p918
sg167
Vift.tt/1PAg4Cw
p919
sassg200
Nsg201
Nsg202
I0
sg57
V664123991477649409
p920
sg204
I00
sg205
g880
sg206
Nsg207
Nsg208
I00
sg78
g901
sg86
VTue Nov 10 16:54:33 +0000 2015
p921
sg210
Nsg211
Nsg212
(dp922
g214
Ven
p923
sg216
Vrecent
p924
sssg218
g922
sg219
Nsg220
Nsg31
g907
sg221
Nsg222
Nsg98
g920
sg223
I00
sg224
Nsg225
I0
sg226
Nsbag0
(g4
g5
Ntp925
Rp926
(dp927
g9
I00
sg10
Nsg11
I00
sg12
VPope Resources A Delaware LP announces earnings. $0.13 EPS. https://t.co/mXJ3jOJbKs $POPE #POPE
p928
sg14
Vhttp://ifttt.com
p929
sg16
I00
sg17
I00
sg18
Nsg19
g0
(g20
g5
Ntp930
Rp931
(dp932
g24
I00
sg25
I00
sg26
I01
sg27
VCCDAFF
p933
sg29
I61661638
sg30
I00
sg31
(dp934
g85
(dp935
g35
(lp936
(dp937
g85
Vhttp://t.co/7EZswS49Q1
p938
sg154
(lp939
I0
aI22
asg165
Vhttp://www.americanbankingnews.com/
p940
sg167
Vamericanbankingnews.com
p941
sassg33
(dp942
g35
(lp943
sssg37
Vhttps://pbs.twimg.com/profile_images/541252987/Image5_normal.jpg
p944
sg39
(dp945
g41
I00
sg42
I00
sg43
I01
sg44
I00
sg45
I61661638
sg46
Vhttps://pbs.twimg.com/profile_background_images/55647305/background.png
p946
sg48
I00
sg49
V141414
p947
sg51
g944
sg52
g933
sg53
g934
sg54
I5557
sg55
VABB1D9
p948
sg57
V61661638
p949
sg59
V000000
p950
sg61
I469
sg62
I00
sg63
I-21600
sg64
I693975
sg33
VBanks, Credit Unions & Financial Institutions
p951
sg66
I2307
sg67
VSioux Falls, SD
p952
sg68
VA60000
p953
sg70
Vhttp://pbs.twimg.com/profile_images/541252987/Image5_normal.jpg
p954
sg72
I00
sg73
I00
sg74
Vhttp://pbs.twimg.com/profile_background_images/55647305/background.png
p955
sg76
VAmericanBanking
p956
sg78
Ven
p957
sg80
I01
sg81
I0
sg82
VUS Banking News
p958
sg84
I00
sg85
Vhttp://t.co/7EZswS49Q1
p959
sg86
VFri Jul 31 01:58:33 +0000 2009
p960
sg88
I00
sg89
VCentral Time (US & Canada)
p961
sg91
I00
sg92
I00
sg93
I00
ssg94
I00
sg95
g947
sg96
I5557
sg97
g948
sg98
g949
sg99
I00
sg100
I469
sg101
I00
sg102
I-21600
sg103
I693975
sg104
g951
sg105
I2307
sg106
g952
sg107
g953
sg108
g954
sg109
I00
sg110
I00
sg111
g950
sg112
g955
sg113
g956
sg114
g957
sg115
I00
sg116
I01
sg117
I0
sg118
g958
sg119
g959
sg120
g121
(S'\x07\xd9\x07\x1f\x01:!\x00\x00\x00'
p962
tp963
Rp964
sg125
g946
sg126
g961
sg127
I00
sg128
I00
sg129
I00
sbsg130
Nsg29
L664122015788478464L
sg131
I0
sg132
VIFTTT
p965
sg114
Ven
p966
sg135
g931
sg120
g121
(S'\x07\xdf\x0b\n\x10.*\x00\x00\x00'
p967
tp968
Rp969
sg39
(dp970
g140
Nsg141
I00
sg142
g928
sg143
I00
sg144
Nsg45
L664122015788478464L
sg145
I0
sg146
V<a href="http://ifttt.com" rel="nofollow">IFTTT</a>
p971
sg148
I00
sg149
Nsg53
(dp972
g151
(lp973
(dp974
g154
(lp975
I84
aI89
asg142
VPOPE
p976
sasg157
(lp977
sg159
(lp978
(dp979
g154
(lp980
I90
aI95
asg142
VPOPE
p981
sasg35
(lp982
(dp983
g85
Vhttps://t.co/mXJ3jOJbKs
p984
sg154
(lp985
I60
aI83
asg165
Vhttp://ift.tt/1HFlshf
p986
sg167
Vift.tt/1HFlshf
p987
sassg200
Nsg201
Nsg202
I0
sg57
V664122015788478464
p988
sg204
I00
sg205
g945
sg206
Nsg207
Nsg208
I00
sg78
g966
sg86
VTue Nov 10 16:46:42 +0000 2015
p989
sg210
Nsg211
Nsg212
(dp990
g214
Ven
p991
sg216
Vrecent
p992
sssg218
g990
sg219
Nsg220
Nsg31
g972
sg221
Nsg222
Nsg98
g988
sg223
I00
sg224
Nsg225
I0
sg226
Nsbag0
(g4
g5
Ntp993
Rp994
(dp995
g9
I00
sg10
Nsg11
I00
sg12
VPope Resources A Delaware LP announces earnings. $0.13 EPS. https://t.co/OZh6LS0U2H $POPE #POPE
p996
sg14
Vhttp://ifttt.com
p997
sg16
I00
sg17
I00
sg18
Nsg19
g0
(g20
g5
Ntp998
Rp999
(dp1000
g24
I00
sg25
I00
sg26
I01
sg27
VE8E8E8
p1001
sg29
I52210566
sg30
I00
sg31
(dp1002
g85
(dp1003
g35
(lp1004
(dp1005
g85
Vhttp://t.co/odTc3pvcAe
p1006
sg154
(lp1007
I0
aI22
asg165
Vhttp://www.americanconsumernews.com/
p1008
sg167
Vamericanconsumernews.com
p1009
sassg33
(dp1010
g35
(lp1011
sssg37
Vhttps://pbs.twimg.com/profile_images/289298274/text_normal.jpg
p1012
sg39
(dp1013
g41
I00
sg42
I00
sg43
I01
sg44
I00
sg45
I52210566
sg46
Vhttps://pbs.twimg.com/profile_background_images/20558354/back.jpg
p1014
sg48
I00
sg49
V333333
p1015
sg51
g1012
sg52
g1001
sg53
g1002
sg54
I1114
sg55
VADADAD
p1016
sg57
V52210566
p1017
sg59
V9AE4E8
p1018
sg61
I96
sg62
I00
sg63
I-21600
sg64
I580839
sg33
VPersonal Finance and Consumer Tips
p1019
sg66
I1412
sg67
VSioux Falls, SD
p1020
sg68
V0084B4
p1021
sg70
Vhttp://pbs.twimg.com/profile_images/289298274/text_normal.jpg
p1022
sg72
I00
sg73
I00
sg74
Vhttp://pbs.twimg.com/profile_background_images/20558354/back.jpg
p1023
sg76
VAmConsumerNews
p1024
sg78
Ven
p1025
sg80
I00
sg81
I0
sg82
VConsumer News
p1026
sg84
I00
sg85
Vhttp://t.co/odTc3pvcAe
p1027
sg86
VMon Jun 29 22:22:08 +0000 2009
p1028
sg88
I00
sg89
VCentral Time (US & Canada)
p1029
sg91
I00
sg92
I00
sg93
I00
ssg94
I00
sg95
g1015
sg96
I1114
sg97
g1016
sg98
g1017
sg99
I00
sg100
I96
sg101
I00
sg102
I-21600
sg103
I580839
sg104
g1019
sg105
I1412
sg106
g1020
sg107
g1021
sg108
g1022
sg109
I00
sg110
I00
sg111
g1018
sg112
g1023
sg113
g1024
sg114
g1025
sg115
I00
sg116
I00
sg117
I0
sg118
g1026
sg119
g1027
sg120
g121
(S'\x07\xd9\x06\x1d\x16\x16\x08\x00\x00\x00'
p1030
tp1031
Rp1032
sg125
g1014
sg126
g1029
sg127
I00
sg128
I00
sg129
I00
sbsg130
Nsg29
L664120912418103296L
sg131
I0
sg132
VIFTTT
p1033
sg114
Ven
p1034
sg135
g999
sg120
g121
(S'\x07\xdf\x0b\n\x10*\x12\x00\x00\x00'
p1035
tp1036
Rp1037
sg39
(dp1038
g140
Nsg141
I00
sg142
g996
sg143
I00
sg144
Nsg45
L664120912418103296L
sg145
I0
sg146
V<a href="http://ifttt.com" rel="nofollow">IFTTT</a>
p1039
sg148
I00
sg149
Nsg53
(dp1040
g151
(lp1041
(dp1042
g154
(lp1043
I84
aI89
asg142
VPOPE
p1044
sasg157
(lp1045
sg159
(lp1046
(dp1047
g154
(lp1048
I90
aI95
asg142
VPOPE
p1049
sasg35
(lp1050
(dp1051
g85
Vhttps://t.co/OZh6LS0U2H
p1052
sg154
(lp1053
I60
aI83
asg165
Vhttp://ift.tt/1HFlshf
p1054
sg167
Vift.tt/1HFlshf
p1055
sassg200
Nsg201
Nsg202
I0
sg57
V664120912418103296
p1056
sg204
I00
sg205
g1013
sg206
Nsg207
Nsg208
I00
sg78
g1034
sg86
VTue Nov 10 16:42:18 +0000 2015
p1057
sg210
Nsg211
Nsg212
(dp1058
g214
Ven
p1059
sg216
Vrecent
p1060
sssg218
g1058
sg219
Nsg220
Nsg31
g1040
sg221
Nsg222
Nsg98
g1056
sg223
I00
sg224
Nsg225
I0
sg226
Nsbag0
(g4
g5
Ntp1061
Rp1062
(dp1063
g9
I00
sg10
Nsg11
I00
sg12
V$POPE Institutional ownership up 1.08% Q/Q, with 7,712 net purchase https://t.co/aCt5y7y49J https://t.co/5xrK5coOqY
p1064
sg14
Vhttp://lovelystocks.com
p1065
sg16
I00
sg17
I00
sg18
Nsg19
g0
(g20
g5
Ntp1066
Rp1067
(dp1068
g24
I00
sg25
I00
sg26
I01
sg27
VF6FFD1
p1069
sg29
L2343862982L
sg30
I00
sg31
(dp1070
g33
(dp1071
g35
(lp1072
sssg37
Vhttps://pbs.twimg.com/profile_images/475757304042618880/GXfaDX___normal.jpeg
p1073
sg39
(dp1074
g41
I00
sg42
I00
sg43
I01
sg44
I00
sg45
L2343862982L
sg46
Vhttps://abs.twimg.com/images/themes/theme19/bg.gif
p1075
sg48
I00
sg49
V333333
p1076
sg51
g1073
sg52
g1069
sg53
g1070
sg54
I320
sg55
VFFF8AD
p1077
sg57
V2343862982
p1078
sg59
VFFF04D
p1079
sg61
I18
sg62
I00
sg63
I-14400
sg64
I61148
sg33
g65
sg66
I0
sg67
g65
sg68
V0099CC
p1080
sg70
Vhttp://pbs.twimg.com/profile_images/475757304042618880/GXfaDX___normal.jpeg
p1081
sg72
I00
sg73
I00
sg74
Vhttp://abs.twimg.com/images/themes/theme19/bg.gif
p1082
sg76
VWatchTheFunds
p1083
sg78
Ven
p1084
sg80
I00
sg81
I0
sg82
VWatchTheFunds
p1085
sg84
I00
sg85
Nsg86
VFri Feb 14 17:09:44 +0000 2014
p1086
sg88
I00
sg89
VAtlantic Time (Canada)
p1087
sg91
I00
sg92
I00
sg93
I00
ssg94
I00
sg95
g1076
sg96
I320
sg97
g1077
sg98
g1078
sg99
I00
sg100
I18
sg101
I00
sg102
I-14400
sg103
I61148
sg104
g65
sg105
I0
sg106
g65
sg107
g1080
sg108
g1081
sg109
I00
sg110
I00
sg111
g1079
sg112
g1082
sg113
g1083
sg114
g1084
sg115
I00
sg116
I00
sg117
I0
sg118
g1085
sg119
Nsg120
g121
(S'\x07\xde\x02\x0e\x11\t,\x00\x00\x00'
p1088
tp1089
Rp1090
sg125
g1075
sg126
g1087
sg127
I00
sg128
I00
sg129
I00
sbsg130
Nsg29
L664119080782270464L
sg131
I0
sg132
VWatchTheFunds
p1091
sg114
Ven
p1092
sg135
g1067
sg120
g121
(S'\x07\xdf\x0b\n\x10#\x02\x00\x00\x00'
p1093
tp1094
Rp1095
sg39
(dp1096
g140
Nsg141
I00
sg142
g1064
sg143
I00
sg144
Nsg45
L664119080782270464L
sg145
I0
sg146
V<a href="http://lovelystocks.com" rel="nofollow">WatchTheFunds</a>
p1097
sg148
I00
sg149
Nsg53
(dp1098
g151
(lp1099
(dp1100
g154
(lp1101
I0
aI5
asg142
VPOPE
p1102
sasg157
(lp1103
sg159
(lp1104
sg35
(lp1105
(dp1106
g85
Vhttps://t.co/aCt5y7y49J
p1107
sg154
(lp1108
I68
aI91
asg165
Vhttp://LovelyStocks.com/POPE
p1109
sg167
VLovelyStocks.com/POPE
p1110
sasg169
(lp1111
(dp1112
g165
Vhttp://twitter.com/WatchTheFunds/status/664119080782270464/photo/1
p1113
sg167
Vpic.twitter.com/5xrK5coOqY
p1114
sg85
Vhttps://t.co/5xrK5coOqY
p1115
sg175
Vhttps://pbs.twimg.com/media/CTdsyP8XIAAuGL7.jpg
p1116
sg57
V664119080589402112
p1117
sg178
(dp1118
g180
(dp1119
g182
I4
sg183
Vfit
p1120
sg185
I4
ssg186
(dp1121
g182
I4
sg183
Vfit
p1122
sg185
I4
ssg189
(dp1123
g182
I4
sg183
Vfit
p1124
sg185
I4
ssg192
(dp1125
g182
I4
sg183
Vcrop
p1126
sg185
I4
sssg154
(lp1127
I92
aI115
asg196
Vphoto
p1128
sg45
L664119080589402112L
sg198
Vhttp://pbs.twimg.com/media/CTdsyP8XIAAuGL7.jpg
p1129
sassg200
Nsg201
Nsg202
I0
sg57
V664119080782270464
p1130
sg204
I00
sg205
g1074
sg206
Nsg207
Nsg208
I00
sg78
g1092
sg86
VTue Nov 10 16:35:02 +0000 2015
p1131
sg210
Nsg211
Nsg212
(dp1132
g214
Ven
p1133
sg216
Vrecent
p1134
sssg218
g1132
sg219
Nsg220
Nsg31
g1098
sg221
Nsg222
Nsg98
g1130
sg223
I00
sg224
Nsg225
I0
sg226
Nsbag0
(g4
g5
Ntp1135
Rp1136
(dp1137
g9
I00
sg10
Nsg11
I00
sg12
VYesterday We Made $94,000 In Just One Trade More Info Here https://t.co/8WvnrVmkBS .. $ENZY $POPE $MONT
p1138
sg14
Vhttp://socialadcenter.com
p1139
sg16
I00
sg17
I00
sg18
Nsg19
g0
(g20
g5
Ntp1140
Rp1141
(dp1142
g24
I00
sg25
I00
sg26
I01
sg27
VDDEEF6
p1143
sg29
L2730855593L
sg30
I00
sg31
(dp1144
g85
(dp1145
g35
(lp1146
(dp1147
g85
Vhttp://t.co/UWzH8kOOl9
p1148
sg154
(lp1149
I0
aI22
asg165
Vhttp://PennyStockSecret.com
p1150
sg167
VPennyStockSecret.com
p1151
sassg33
(dp1152
g35
(lp1153
(dp1154
g85
Vhttp://t.co/UWzH8kOOl9
p1155
sg154
(lp1156
I11
aI33
asg165
Vhttp://PennyStockSecret.com
p1157
sg167
VPennyStockSecret.com
p1158
sasssg37
Vhttps://pbs.twimg.com/profile_images/573247485616889856/gHAtYS9O_normal.png
p1159
sg39
(dp1160
g41
I00
sg42
I00
sg43
I01
sg44
I00
sg45
L2730855593L
sg46
Vhttps://abs.twimg.com/images/themes/theme1/bg.png
p1161
sg48
I00
sg49
V333333
p1162
sg51
g1159
sg52
g1143
sg53
g1144
sg54
I2515
sg55
VC0DEED
p1163
sg57
V2730855593
p1164
sg59
VC0DEED
p1165
sg61
I25
sg62
I00
sg63
I0
sg64
I53231
sg33
VSign up to http://t.co/UWzH8kOOl9  and get the premiere penny stock newsletter for free! make sure you subscribe today!
p1166
sg66
I9
sg67
VUSA
p1167
sg68
V0084B4
p1168
sg70
Vhttp://pbs.twimg.com/profile_images/573247485616889856/gHAtYS9O_normal.png
p1169
sg72
I00
sg73
I00
sVprofile_banner_url
p1170
Vhttps://pbs.twimg.com/profile_banners/2730855593/1425507876
p1171
sg74
Vhttp://abs.twimg.com/images/themes/theme1/bg.png
p1172
sg76
Vstockschamp
p1173
sg78
Ven
p1174
sg80
I00
sg81
I0
sg82
Vstockschamp
p1175
sg84
I00
sg85
Vhttp://t.co/UWzH8kOOl9
p1176
sg86
VFri Aug 01 16:39:24 +0000 2014
p1177
sg88
I00
sg89
VDublin
p1178
sg91
I00
sg92
I01
sg93
I00
ssg94
I00
sg95
g1162
sg96
I2515
sg97
g1163
sg98
g1164
sg99
I00
sg100
I25
sg101
I00
sg102
I0
sg103
I53231
sg104
g1166
sg105
I9
sg106
g1167
sg107
g1168
sg108
g1169
sg109
I00
sg110
I00
sg111
g1165
sS'profile_banner_url'
p1179
g1171
sg112
g1172
sg113
g1173
sg114
g1174
sg115
I00
sg116
I00
sg117
I0
sg118
g1175
sg119
g1176
sg120
g121
(S"\x07\xde\x08\x01\x10'\x18\x00\x00\x00"
p1180
tp1181
Rp1182
sg125
g1161
sg126
g1178
sg127
I00
sg128
I01
sg129
I00
sbsg130
Nsg29
L664111073172164608L
sg131
I0
sg132
VSocial Ad Center
p1183
sg114
Ven
p1184
sg135
g1141
sg120
g121
(S'\x07\xdf\x0b\n\x10\x03\r\x00\x00\x00'
p1185
tp1186
Rp1187
sg39
(dp1188
g140
Nsg141
I00
sg142
g1138
sg143
I00
sg144
Nsg45
L664111073172164608L
sg145
I0
sg146
V<a href="http://socialadcenter.com" rel="nofollow">Social Ad Center</a>
p1189
sg148
I00
sg149
Nsg53
(dp1190
g151
(lp1191
(dp1192
g154
(lp1193
I86
aI91
asg142
VENZY
p1194
sa(dp1195
g154
(lp1196
I92
aI97
asg142
VPOPE
p1197
sa(dp1198
g154
(lp1199
I98
aI103
asg142
VMONT
p1200
sasg157
(lp1201
sg159
(lp1202
sg35
(lp1203
(dp1204
g85
Vhttps://t.co/8WvnrVmkBS
p1205
sg154
(lp1206
I59
aI82
asg165
Vhttp://PennyStockSecret.com
p1207
sg167
VPennyStockSecret.com
p1208
sassg200
Nsg201
Nsg202
I0
sg57
V664111073172164608
p1209
sg204
I00
sg205
g1160
sg206
Nsg207
Nsg208
I00
sg78
g1184
sg86
VTue Nov 10 16:03:13 +0000 2015
p1210
sg210
Nsg211
Nsg212
(dp1211
g214
Ven
p1212
sg216
Vrecent
p1213
sssg218
g1211
sg219
Nsg220
Nsg31
g1190
sg221
Nsg222
Nsg98
g1209
sg223
I00
sg224
Nsg225
I0
sg226
Nsbag0
(g4
g5
Ntp1214
Rp1215
(dp1216
g9
I00
sg10
Nsg11
I00
sg12
VPope Resources reports Q3 results https://t.co/xScZiVtNh8 #premarket $POPE
p1217
sg14
Vhttp://seekingalpha.com
p1218
sg16
I00
sg17
I00
sg18
Nsg19
g0
(g20
g5
Ntp1219
Rp1220
(dp1221
g24
I00
sg25
I00
sg26
I01
sg27
VDDEEF6
p1222
sg29
I207441033
sg30
I00
sg31
(dp1223
g33
(dp1224
g35
(lp1225
sssg37
Vhttps://pbs.twimg.com/profile_images/628450795533414401/xwE4BfP__normal.jpg
p1226
sg39
(dp1227
g41
I00
sg42
I00
sg43
I01
sg44
I00
sg45
I207441033
sg46
Vhttps://abs.twimg.com/images/themes/theme1/bg.png
p1228
sg48
I00
sg49
V333333
p1229
sg51
g1226
sg52
g1222
sg53
g1223
sg54
I135
sg55
VC0DEED
p1230
sg57
V207441033
p1231
sg59
VC0DEED
p1232
sg61
I30
sg62
I01
sg63
I7200
sg64
I30087
sg33
g65
sg66
I1
sg67
g65
sg68
V0084B4
p1233
sg70
Vhttp://pbs.twimg.com/profile_images/628450795533414401/xwE4BfP__normal.jpg
p1234
sg72
I00
sg73
I00
sg1170
Vhttps://pbs.twimg.com/profile_banners/207441033/1438669732
p1235
sg74
Vhttp://abs.twimg.com/images/themes/theme1/bg.png
p1236
sg76
VSA_FACTSET
p1237
sg78
Ven
p1238
sg80
I00
sg81
I0
sg82
VSeeking Alpha
p1239
sg84
I00
sg85
Nsg86
VMon Oct 25 10:13:55 +0000 2010
p1240
sg88
I00
sg89
VBucharest
p1241
sg91
I00
sg92
I01
sg93
I00
ssg94
I00
sg95
g1229
sg96
I135
sg97
g1230
sg98
g1231
sg99
I00
sg100
I30
sg101
I01
sg102
I7200
sg103
I30087
sg104
g65
sg105
I1
sg106
g65
sg107
g1233
sg108
g1234
sg109
I00
sg110
I00
sg111
g1232
sg1179
g1235
sg112
g1236
sg113
g1237
sg114
g1238
sg115
I00
sg116
I00
sg117
I0
sg118
g1239
sg119
Nsg120
g121
(S'\x07\xda\n\x19\n\r7\x00\x00\x00'
p1242
tp1243
Rp1244
sg125
g1228
sg126
g1241
sg127
I00
sg128
I01
sg129
I00
sbsg130
Nsg29
L664086081780891648L
sg131
I0
sg132
VSeeking Alpha
p1245
sg114
Ven
p1246
sg135
g1220
sg120
g121
(S'\x07\xdf\x0b\n\x0e\x176\x00\x00\x00'
p1247
tp1248
Rp1249
sg39
(dp1250
g140
Nsg141
I00
sg142
g1217
sg143
I00
sg144
Nsg45
L664086081780891648L
sg145
I0
sg146
V<a href="http://seekingalpha.com" rel="nofollow">Seeking Alpha</a>
p1251
sg148
I00
sg149
Nsg53
(dp1252
g151
(lp1253
(dp1254
g154
(lp1255
I69
aI74
asg142
VPOPE
p1256
sasg157
(lp1257
sg159
(lp1258
(dp1259
g154
(lp1260
I58
aI68
asg142
Vpremarket
p1261
sasg35
(lp1262
(dp1263
g85
Vhttps://t.co/xScZiVtNh8
p1264
sg154
(lp1265
I34
aI57
asg165
Vhttp://seekingalpha.com/news/2916976-pope-resources-reports-q3-results?source=twitter_sa_factset
p1266
sg167
Vseekingalpha.com/news/2916976-p\u2026
p1267
sassg200
Nsg201
Nsg202
I0
sg57
V664086081780891648
p1268
sg204
I00
sg205
g1227
sg206
Nsg207
Nsg208
I00
sg78
g1246
sg86
VTue Nov 10 14:23:54 +0000 2015
p1269
sg210
Nsg211
Nsg212
(dp1270
g214
Ven
p1271
sg216
Vrecent
p1272
sssg218
g1270
sg219
Nsg220
Nsg31
g1252
sg221
Nsg222
Nsg98
g1268
sg223
I00
sg224
Nsg225
I0
sg226
Nsbag0
(g4
g5
Ntp1273
Rp1274
(dp1275
g9
I00
sg10
Nsg11
I00
sg12
VPope Resources reports Q3 results https://t.co/rP3w9LI9kC #premarket $POPE
p1276
sg14
Vhttp://seekingalpha.com
p1277
sg16
I00
sg17
I00
sg18
Nsg19
g0
(g20
g5
Ntp1278
Rp1279
(dp1280
g24
I00
sg25
I00
sg26
I00
sg27
VDDEEF6
p1281
sg29
L2999672518L
sg30
I00
sg31
(dp1282
g85
(dp1283
g35
(lp1284
(dp1285
g85
Vhttp://t.co/X84gUsjRHd
p1286
sg154
(lp1287
I0
aI22
asg165
Vhttp://seekingalpha.com/news/on-the-move
p1288
sg167
Vseekingalpha.com/news/on-the-mo\u2026
p1289
sassg33
(dp1290
g35
(lp1291
(dp1292
g85
Vhttps://t.co/nzLmsIKexy
p1293
sg154
(lp1294
I101
aI124
asg165
Vhttps://twitter.com/SeekingAlpha/following
p1295
sg167
Vtwitter.com/SeekingAlpha/f\u2026
p1296
sasssg37
Vhttps://pbs.twimg.com/profile_images/559707675475197954/gfYW3YMj_normal.png
p1297
sg39
(dp1298
g41
I00
sg42
I00
sg43
I00
sg44
I00
sg45
L2999672518L
sg46
Vhttps://abs.twimg.com/images/themes/theme1/bg.png
p1299
sg48
I00
sg49
V333333
p1300
sg51
g1297
sg52
g1281
sg53
g1282
sg54
I1373
sg55
VC0DEED
p1301
sg57
V2999672518
p1302
sg59
VC0DEED
p1303
sg61
I44
sg62
I00
sg63
Nsg64
I12104
sg33
VSeeking Alpha's Breaking News coverage of stocks with major moves today. See all SA Twitter feeds at https://t.co/nzLmsIKexy
p1304
sg66
I32
sg67
g65
sg68
V360000
p1305
sg70
Vhttp://pbs.twimg.com/profile_images/559707675475197954/gfYW3YMj_normal.png
p1306
sg72
I00
sg73
I00
sg74
Vhttp://abs.twimg.com/images/themes/theme1/bg.png
p1307
sg76
VStocksMove_SA
p1308
sg78
Ven
p1309
sg80
I00
sg81
I0
sg82
VStocks On The Move
p1310
sg84
I00
sg85
Vhttp://t.co/X84gUsjRHd
p1311
sg86
VMon Jan 26 13:37:29 +0000 2015
p1312
sg88
I00
sg89
Nsg91
I00
sg92
I00
sg93
I00
ssg94
I00
sg95
g1300
sg96
I1373
sg97
g1301
sg98
g1302
sg99
I00
sg100
I44
sg101
I00
sg102
Nsg103
I12104
sg104
g1304
sg105
I32
sg106
g65
sg107
g1305
sg108
g1306
sg109
I00
sg110
I00
sg111
g1303
sg112
g1307
sg113
g1308
sg114
g1309
sg115
I00
sg116
I00
sg117
I0
sg118
g1310
sg119
g1311
sg120
g121
(S'\x07\xdf\x01\x1a\r%\x1d\x00\x00\x00'
p1313
tp1314
Rp1315
sg125
g1299
sg126
Nsg127
I00
sg128
I00
sg129
I00
sbsg130
Nsg29
L664086080556154880L
sg131
I0
sg132
VSeeking Alpha
p1316
sg114
Ven
p1317
sg135
g1279
sg120
g121
(S'\x07\xdf\x0b\n\x0e\x176\x00\x00\x00'
p1318
tp1319
Rp1320
sg39
(dp1321
g140
Nsg141
I00
sg142
g1276
sg143
I00
sg144
Nsg45
L664086080556154880L
sg145
I0
sg146
V<a href="http://seekingalpha.com" rel="nofollow">Seeking Alpha</a>
p1322
sg148
I00
sg149
Nsg53
(dp1323
g151
(lp1324
(dp1325
g154
(lp1326
I69
aI74
asg142
VPOPE
p1327
sasg157
(lp1328
sg159
(lp1329
(dp1330
g154
(lp1331
I58
aI68
asg142
Vpremarket
p1332
sasg35
(lp1333
(dp1334
g85
Vhttps://t.co/rP3w9LI9kC
p1335
sg154
(lp1336
I34
aI57
asg165
Vhttp://seekingalpha.com/news/2916976-pope-resources-reports-q3-results?source=twitter_stocksmove_sa
p1337
sg167
Vseekingalpha.com/news/2916976-p\u2026
p1338
sassg200
Nsg201
Nsg202
I0
sg57
V664086080556154880
p1339
sg204
I00
sg205
g1298
sg206
Nsg207
Nsg208
I00
sg78
g1317
sg86
VTue Nov 10 14:23:54 +0000 2015
p1340
sg210
Nsg211
Nsg212
(dp1341
g214
Ven
p1342
sg216
Vrecent
p1343
sssg218
g1341
sg219
Nsg220
Nsg31
g1323
sg221
Nsg222
Nsg98
g1339
sg223
I00
sg224
Nsg225
I0
sg226
Nsbag0
(g4
g5
Ntp1344
Rp1345
(dp1346
g9
I00
sg10
Nsg11
I00
sg12
VPope Resources reports Q3 results https://t.co/Xyd0Y76ko9 #premarket $POPE
p1347
sg14
Vhttp://seekingalpha.com
p1348
sg16
I00
sg17
I00
sg18
Nsg19
g0
(g20
g5
Ntp1349
Rp1350
(dp1351
g24
I00
sg25
I00
sg26
I00
sg27
VF3F3F3
p1352
sg29
I15296897
sg30
I00
sg31
(dp1353
g85
(dp1354
g35
(lp1355
(dp1356
g85
Vhttp://t.co/K8mUqhVprF
p1357
sg154
(lp1358
I0
aI22
asg165
Vhttp://seekingalpha.com/news/all
p1359
sg167
Vseekingalpha.com/news/all
p1360
sassg33
(dp1361
g35
(lp1362
(dp1363
g85
Vhttps://t.co/nzLmsIKexy
p1364
sg154
(lp1365
I96
aI119
asg165
Vhttps://twitter.com/SeekingAlpha/following
p1366
sg167
Vtwitter.com/SeekingAlpha/f\u2026
p1367
sasssg37
Vhttps://pbs.twimg.com/profile_images/562235643225309184/BbO5bjbH_normal.png
p1368
sg39
(dp1369
g41
I00
sg42
I00
sg43
I00
sg44
I00
sg45
I15296897
sg46
Vhttps://pbs.twimg.com/profile_background_images/378800000040521500/f26581d4dd97008e0985dcfede25018e.png
p1370
sg48
I00
sg49
V000000
p1371
sg51
g1368
sg52
g1352
sg53
g1353
sg54
I19259
sg55
VFFFFFF
p1372
sg57
V15296897
p1373
sg59
VC0DEED
p1374
sg61
I1035
sg62
I00
sg63
I-10800
sg64
I373321
sg33
VReal-time stock market news from Seeking Alpha. See all options for Seeking Alpha on Twitter at https://t.co/nzLmsIKexy
p1375
sg66
I33
sg67
VNew York
p1376
sg68
V360000
p1377
sg70
Vhttp://pbs.twimg.com/profile_images/562235643225309184/BbO5bjbH_normal.png
p1378
sg72
I00
sg73
I00
sg74
Vhttp://pbs.twimg.com/profile_background_images/378800000040521500/f26581d4dd97008e0985dcfede25018e.png
p1379
sg76
VMarketCurrents
p1380
sg78
Ven
p1381
sg80
I00
sg81
I0
sg82
VBreaking News
p1382
sg84
I00
sg85
Vhttp://t.co/K8mUqhVprF
p1383
sg86
VWed Jul 02 10:38:58 +0000 2008
p1384
sg88
I00
sg89
VSantiago
p1385
sg91
I00
sg92
I00
sg93
I00
ssg94
I00
sg95
g1371
sg96
I19259
sg97
g1372
sg98
g1373
sg99
I00
sg100
I1035
sg101
I00
sg102
I-10800
sg103
I373321
sg104
g1375
sg105
I33
sg106
g1376
sg107
g1377
sg108
g1378
sg109
I00
sg110
I00
sg111
g1374
sg112
g1379
sg113
g1380
sg114
g1381
sg115
I00
sg116
I00
sg117
I0
sg118
g1382
sg119
g1383
sg120
g121
(S'\x07\xd8\x07\x02\n&:\x00\x00\x00'
p1386
tp1387
Rp1388
sg125
g1370
sg126
g1385
sg127
I00
sg128
I00
sg129
I00
sbsg130
Nsg29
L664086078819733504L
sg131
I0
sg132
VSeeking Alpha
p1389
sg114
Ven
p1390
sg135
g1350
sg120
g121
(S'\x07\xdf\x0b\n\x0e\x175\x00\x00\x00'
p1391
tp1392
Rp1393
sg39
(dp1394
g140
Nsg141
I00
sg142
g1347
sg143
I00
sg144
Nsg45
L664086078819733504L
sg145
I0
sg146
V<a href="http://seekingalpha.com" rel="nofollow">Seeking Alpha</a>
p1395
sg148
I00
sg149
Nsg53
(dp1396
g151
(lp1397
(dp1398
g154
(lp1399
I69
aI74
asg142
VPOPE
p1400
sasg157
(lp1401
sg159
(lp1402
(dp1403
g154
(lp1404
I58
aI68
asg142
Vpremarket
p1405
sasg35
(lp1406
(dp1407
g85
Vhttps://t.co/Xyd0Y76ko9
p1408
sg154
(lp1409
I34
aI57
asg165
Vhttp://seekingalpha.com/news/2916976-pope-resources-reports-q3-results?source=feed_f
p1410
sg167
Vseekingalpha.com/news/2916976-p\u2026
p1411
sassg200
Nsg201
Nsg202
I0
sg57
V664086078819733504
p1412
sg204
I00
sg205
g1369
sg206
Nsg207
Nsg208
I00
sg78
g1390
sg86
VTue Nov 10 14:23:53 +0000 2015
p1413
sg210
Nsg211
Nsg212
(dp1414
g214
Ven
p1415
sg216
Vrecent
p1416
sssg218
g1414
sg219
Nsg220
Nsg31
g1396
sg221
Nsg222
Nsg98
g1412
sg223
I00
sg224
Nsg225
I0
sg226
Nsbag0
(g4
g5
Ntp1417
Rp1418
(dp1419
g9
I00
sg10
Nsg11
I00
sg12
VOur Pick On $GEQU Gained Over 3,500% For Our Members Within 4 Months! See Our New Picks: https://t.co/YzphAts7wM $ENZY $POPE $MONT
p1420
sg14
Vhttp://twitter.com
p1421
sg16
I00
sg17
I00
sg18
Nsg19
g0
(g20
g5
Ntp1422
Rp1423
(dp1424
g24
I00
sg25
I00
sg26
I01
sg27
VDDEEF6
p1425
sg29
L3243313260L
sg30
I00
sg31
(dp1426
g33
(dp1427
g35
(lp1428
sssg37
Vhttps://pbs.twimg.com/profile_images/609376154588286976/l9qz1Ibc_normal.jpg
p1429
sg39
(dp1430
g41
I00
sg42
I00
sg43
I01
sg44
I00
sg45
L3243313260L
sg46
Vhttps://abs.twimg.com/images/themes/theme1/bg.png
p1431
sg48
I00
sg49
V333333
p1432
sg51
g1429
sg52
g1425
sg53
g1426
sg54
I19956
sg55
VC0DEED
p1433
sg57
V3243313260
p1434
sg59
VC0DEED
p1435
sg61
I55
sg62
I00
sg63
Nsg64
I81515
sg33
g65
sg66
I0
sg67
g65
sg68
V0084B4
p1436
sg70
Vhttp://pbs.twimg.com/profile_images/609376154588286976/l9qz1Ibc_normal.jpg
p1437
sg72
I00
sg73
I00
sg74
Vhttp://abs.twimg.com/images/themes/theme1/bg.png
p1438
sg76
VTheStockGuyz
p1439
sg78
Ven
p1440
sg80
I00
sg81
I0
sg82
VMichael James
p1441
sg84
I00
sg85
Nsg86
VFri Jun 12 14:53:00 +0000 2015
p1442
sg88
I00
sg89
Nsg91
I00
sg92
I01
sg93
I00
ssg94
I00
sg95
g1432
sg96
I19956
sg97
g1433
sg98
g1434
sg99
I00
sg100
I55
sg101
I00
sg102
Nsg103
I81515
sg104
g65
sg105
I0
sg106
g65
sg107
g1436
sg108
g1437
sg109
I00
sg110
I00
sg111
g1435
sg112
g1438
sg113
g1439
sg114
g1440
sg115
I00
sg116
I00
sg117
I0
sg118
g1441
sg119
Nsg120
g121
(S'\x07\xdf\x06\x0c\x0e5\x00\x00\x00\x00'
p1443
tp1444
Rp1445
sg125
g1431
sg126
Nsg127
I00
sg128
I01
sg129
I00
sbsg130
Nsg29
L663992881418518528L
sg131
I0
sg132
VTwitter Web Client
p1446
sg114
Ven
p1447
sg135
g1423
sg120
g121
(S'\x07\xdf\x0b\n\x08\r!\x00\x00\x00'
p1448
tp1449
Rp1450
sg39
(dp1451
g140
Nsg141
I00
sg142
g1420
sg143
I00
sg144
Nsg45
L663992881418518528L
sg145
I0
sg146
V<a href="http://twitter.com" rel="nofollow">Twitter Web Client</a>
p1452
sg148
I00
sg149
Nsg53
(dp1453
g151
(lp1454
(dp1455
g154
(lp1456
I12
aI17
asg142
VGEQU
p1457
sa(dp1458
g154
(lp1459
I113
aI118
asg142
VENZY
p1460
sa(dp1461
g154
(lp1462
I119
aI124
asg142
VPOPE
p1463
sa(dp1464
g154
(lp1465
I125
aI130
asg142
VMONT
p1466
sasg157
(lp1467
sg159
(lp1468
sg35
(lp1469
(dp1470
g85
Vhttps://t.co/YzphAts7wM
p1471
sg154
(lp1472
I89
aI112
asg165
Vhttp://bit.ly/1VTm35C
p1473
sg167
Vbit.ly/1VTm35C
p1474
sassg200
Nsg201
Nsg202
I0
sg57
V663992881418518528
p1475
sg204
I00
sg205
g1430
sg206
Nsg207
Nsg208
I00
sg78
g1447
sg86
VTue Nov 10 08:13:33 +0000 2015
p1476
sg210
Nsg211
Nsg212
(dp1477
g214
Ven
p1478
sg216
Vrecent
p1479
sssg218
g1477
sg219
Nsg220
Nsg31
g1453
sg221
Nsg222
Nsg98
g1475
sg223
I00
sg224
Nsg225
I0
sg226
Nsbag0
(g4
g5
Ntp1480
Rp1481
(dp1482
g9
I00
sg10
Nsg11
I00
sg12
VAfter 3,500% Gains In 4 Months We Have A New Stock Pick Coming Soon! See It Early: https://t.co/26VbgEBy77 $ENZY $POPE $MONT
p1483
sg14
Vhttp://twitter.com
p1484
sg16
I00
sg17
I00
sg18
Nsg19
g0
(g20
g5
Ntp1485
Rp1486
(dp1487
g24
I00
sg25
I00
sg26
I01
sg27
VDDEEF6
p1488
sg29
L3315798743L
sg30
I00
sg31
(dp1489
g33
(dp1490
g35
(lp1491
sssg37
Vhttps://pbs.twimg.com/profile_images/608367794644787200/7Js9oXKP_normal.jpg
p1492
sg39
(dp1493
g41
I00
sg42
I00
sg43
I01
sg44
I00
sg45
L3315798743L
sg46
Vhttps://abs.twimg.com/images/themes/theme1/bg.png
p1494
sg48
I00
sg49
V333333
p1495
sg51
g1492
sg52
g1488
sg53
g1489
sg54
I12606
sg55
VC0DEED
p1496
sg57
V3315798743
p1497
sg59
VC0DEED
p1498
sg61
I55
sg62
I00
sg63
Nsg64
I82879
sg33
g65
sg66
I0
sg67
g65
sg68
V0084B4
p1499
sg70
Vhttp://pbs.twimg.com/profile_images/608367794644787200/7Js9oXKP_normal.jpg
p1500
sg72
I00
sg73
I00
sg74
Vhttp://abs.twimg.com/images/themes/theme1/bg.png
p1501
sg76
VStockfiendz
p1502
sg78
Ven
p1503
sg80
I00
sg81
I0
sg82
VMichael Cook
p1504
sg84
I00
sg85
Nsg86
VTue Jun 09 20:16:31 +0000 2015
p1505
sg88
I00
sg89
Nsg91
I00
sg92
I01
sg93
I00
ssg94
I00
sg95
g1495
sg96
I12606
sg97
g1496
sg98
g1497
sg99
I00
sg100
I55
sg101
I00
sg102
Nsg103
I82879
sg104
g65
sg105
I0
sg106
g65
sg107
g1499
sg108
g1500
sg109
I00
sg110
I00
sg111
g1498
sg112
g1501
sg113
g1502
sg114
g1503
sg115
I00
sg116
I00
sg117
I0
sg118
g1504
sg119
Nsg120
g121
(S'\x07\xdf\x06\t\x14\x10\x1f\x00\x00\x00'
p1506
tp1507
Rp1508
sg125
g1494
sg126
Nsg127
I00
sg128
I01
sg129
I00
sbsg130
Nsg29
L663992674995802112L
sg131
I0
sg132
VTwitter Web Client
p1509
sg114
Ven
p1510
sg135
g1486
sg120
g121
(S'\x07\xdf\x0b\n\x08\x0c,\x00\x00\x00'
p1511
tp1512
Rp1513
sg39
(dp1514
g140
Nsg141
I00
sg142
g1483
sg143
I00
sg144
Nsg45
L663992674995802112L
sg145
I0
sg146
V<a href="http://twitter.com" rel="nofollow">Twitter Web Client</a>
p1515
sg148
I00
sg149
Nsg53
(dp1516
g151
(lp1517
(dp1518
g154
(lp1519
I107
aI112
asg142
VENZY
p1520
sa(dp1521
g154
(lp1522
I113
aI118
asg142
VPOPE
p1523
sa(dp1524
g154
(lp1525
I119
aI124
asg142
VMONT
p1526
sasg157
(lp1527
sg159
(lp1528
sg35
(lp1529
(dp1530
g85
Vhttps://t.co/26VbgEBy77
p1531
sg154
(lp1532
I83
aI106
asg165
Vhttp://goo.gl/JYKKVk
p1533
sg167
Vgoo.gl/JYKKVk
p1534
sassg200
Nsg201
Nsg202
I0
sg57
V663992674995802112
p1535
sg204
I00
sg205
g1493
sg206
Nsg207
Nsg208
I00
sg78
g1510
sg86
VTue Nov 10 08:12:44 +0000 2015
p1536
sg210
Nsg211
Nsg212
(dp1537
g214
Ven
p1538
sg216
Vrecent
p1539
sssg218
g1537
sg219
Nsg220
Nsg31
g1516
sg221
Nsg222
Nsg98
g1535
sg223
I00
sg224
Nsg225
I0
sg226
Nsbag0
(g4
g5
Ntp1540
Rp1541
(dp1542
g9
I00
sg10
Nsg11
I00
sg12
VOur Pick On $HCTI More Than Tripled For Our Members, In 3 Weeks! Subscribe For Our New Picks: https://t.co/6sqzAAvjDY $ENZY $POPE $MONT
p1543
sg14
Vhttp://twitter.com
p1544
sg16
I00
sg17
I00
sg18
Nsg19
g0
(g20
g5
Ntp1545
Rp1546
(dp1547
g24
I00
sg25
I00
sg26
I01
sg27
VDDEEF6
p1548
sg29
L2447928920L
sg30
I00
sg31
(dp1549
g33
(dp1550
g35
(lp1551
(dp1552
g85
Vhttp://t.co/QYxLf9LJ7f
p1553
sg154
(lp1554
I94
aI116
asg165
Vhttp://www.pennystockdream.com/disclaimer
p1555
sg167
Vpennystockdream.com/disclaimer
p1556
sasssg37
Vhttps://pbs.twimg.com/profile_images/456523892308201472/sBGAsJTn_normal.png
p1557
sg39
(dp1558
g41
I00
sg42
I00
sg43
I01
sg44
I00
sg45
L2447928920L
sg46
Vhttps://abs.twimg.com/images/themes/theme1/bg.png
p1559
sg48
I00
sg49
V333333
p1560
sg51
g1557
sg52
g1548
sg53
g1549
sg54
I4321
sg55
VC0DEED
p1561
sg57
V2447928920
p1562
sg59
VC0DEED
p1563
sg61
I60
sg62
I00
sg63
Nsg64
I179299
sg33
VATTENTION: Read full disclaimer before looking at any of our tweets! Link To Full Disclaimer: http://t.co/QYxLf9LJ7f
p1564
sg66
I0
sg67
g65
sg68
V0084B4
p1565
sg70
Vhttp://pbs.twimg.com/profile_images/456523892308201472/sBGAsJTn_normal.png
p1566
sg72
I00
sg73
I00
sg74
Vhttp://abs.twimg.com/images/themes/theme1/bg.png
p1567
sg76
VStockenheimer1
p1568
sg78
Ven
p1569
sg80
I00
sg81
I0
sg82
VStockenheimerSchmidt
p1570
sg84
I00
sg85
Nsg86
VWed Apr 16 20:03:52 +0000 2014
p1571
sg88
I00
sg89
Nsg91
I00
sg92
I01
sg93
I00
ssg94
I00
sg95
g1560
sg96
I4321
sg97
g1561
sg98
g1562
sg99
I00
sg100
I60
sg101
I00
sg102
Nsg103
I179299
sg104
g1564
sg105
I0
sg106
g65
sg107
g1565
sg108
g1566
sg109
I00
sg110
I00
sg111
g1563
sg112
g1567
sg113
g1568
sg114
g1569
sg115
I00
sg116
I00
sg117
I0
sg118
g1570
sg119
Nsg120
g121
(S'\x07\xde\x04\x10\x14\x034\x00\x00\x00'
p1572
tp1573
Rp1574
sg125
g1559
sg126
Nsg127
I00
sg128
I01
sg129
I00
sbsg130
Nsg29
L663937563724509185L
sg131
I0
sg132
VTwitter Web Client
p1575
sg114
Ven
p1576
sg135
g1546
sg120
g121
(S'\x07\xdf\x0b\n\x04!-\x00\x00\x00'
p1577
tp1578
Rp1579
sg39
(dp1580
g140
Nsg141
I00
sg142
g1543
sg143
I00
sg144
Nsg45
L663937563724509185L
sg145
I0
sg146
V<a href="http://twitter.com" rel="nofollow">Twitter Web Client</a>
p1581
sg148
I00
sg149
Nsg53
(dp1582
g151
(lp1583
(dp1584
g154
(lp1585
I12
aI17
asg142
VHCTI
p1586
sa(dp1587
g154
(lp1588
I118
aI123
asg142
VENZY
p1589
sa(dp1590
g154
(lp1591
I124
aI129
asg142
VPOPE
p1592
sa(dp1593
g154
(lp1594
I130
aI135
asg142
VMONT
p1595
sasg157
(lp1596
sg159
(lp1597
sg35
(lp1598
(dp1599
g85
Vhttps://t.co/6sqzAAvjDY
p1600
sg154
(lp1601
I94
aI117
asg165
Vhttp://ow.ly/SP8LD
p1602
sg167
Vow.ly/SP8LD
p1603
sassg200
Nsg201
Nsg202
I0
sg57
V663937563724509185
p1604
sg204
I00
sg205
g1558
sg206
Nsg207
Nsg208
I00
sg78
g1576
sg86
VTue Nov 10 04:33:45 +0000 2015
p1605
sg210
Nsg211
Nsg212
(dp1606
g214
Ven
p1607
sg216
Vrecent
p1608
sssg218
g1606
sg219
Nsg220
Nsg31
g1582
sg221
Nsg222
Nsg98
g1604
sg223
I00
sg224
Nsg225
I0
sg226
Nsbag0
(g4
g5
Ntp1609
Rp1610
(dp1611
g9
I00
sg10
Nsg11
I00
sg12
VOur Stock Alerts Have Been Seeing Record Gains! Our New Pick Will Be MASSIVE: https://t.co/DXRm9DTWiK $ENZY $POPE $MONT
p1612
sg14
Vhttp://twitter.com
p1613
sg16
I00
sg17
I00
sg18
Nsg19
g0
(g20
g5
Ntp1614
Rp1615
(dp1616
g24
I00
sg25
I00
sg26
I01
sg27
VDDEEF6
p1617
sg29
L3091884801L
sg30
I00
sg31
(dp1618
g33
(dp1619
g35
(lp1620
(dp1621
g85
Vhttp://t.co/d1PvG67hF4
p1622
sg154
(lp1623
I79
aI101
asg165
Vhttp://tinyurl.com/mcsbvzz
p1624
sg167
Vtinyurl.com/mcsbvzz
p1625
sasssg37
Vhttps://pbs.twimg.com/profile_images/576989971883499521/yv0Bp7te_normal.jpeg
p1626
sg39
(dp1627
g41
I00
sg42
I00
sg43
I01
sg44
I00
sg45
L3091884801L
sg46
Vhttps://abs.twimg.com/images/themes/theme1/bg.png
p1628
sg48
I00
sg49
V333333
p1629
sg51
g1626
sg52
g1617
sg53
g1618
sg54
I15267
sg55
VC0DEED
p1630
sg57
V3091884801
p1631
sg59
VC0DEED
p1632
sg61
I65
sg62
I00
sg63
Nsg64
I170509
sg33
VRead our full disclaimer before looking at any of our tweets! Full Disclaimer: http://t.co/d1PvG67hF4
p1633
sg66
I1
sg67
g65
sg68
V0084B4
p1634
sg70
Vhttp://pbs.twimg.com/profile_images/576989971883499521/yv0Bp7te_normal.jpeg
p1635
sg72
I00
sg73
I00
sg74
Vhttp://abs.twimg.com/images/themes/theme1/bg.png
p1636
sg76
VStockDawgzz
p1637
sg78
Ven
p1638
sg80
I00
sg81
I0
sg82
VStock Dawgzz
p1639
sg84
I00
sg85
Nsg86
VSun Mar 15 06:13:17 +0000 2015
p1640
sg88
I00
sg89
Nsg91
I00
sg92
I01
sg93
I00
ssg94
I00
sg95
g1629
sg96
I15267
sg97
g1630
sg98
g1631
sg99
I00
sg100
I65
sg101
I00
sg102
Nsg103
I170509
sg104
g1633
sg105
I1
sg106
g65
sg107
g1634
sg108
g1635
sg109
I00
sg110
I00
sg111
g1632
sg112
g1636
sg113
g1637
sg114
g1638
sg115
I00
sg116
I00
sg117
I0
sg118
g1639
sg119
Nsg120
g121
(S'\x07\xdf\x03\x0f\x06\r\x11\x00\x00\x00'
p1641
tp1642
Rp1643
sg125
g1628
sg126
Nsg127
I00
sg128
I01
sg129
I00
sbsg130
Nsg29
L663937484800266241L
sg131
I0
sg132
VTwitter Web Client
p1644
sg114
Ven
p1645
sg135
g1615
sg120
g121
(S'\x07\xdf\x0b\n\x04!\x1a\x00\x00\x00'
p1646
tp1647
Rp1648
sg39
(dp1649
g140
Nsg141
I00
sg142
g1612
sg143
I00
sg144
Nsg45
L663937484800266241L
sg145
I0
sg146
V<a href="http://twitter.com" rel="nofollow">Twitter Web Client</a>
p1650
sg148
I00
sg149
Nsg53
(dp1651
g151
(lp1652
(dp1653
g154
(lp1654
I102
aI107
asg142
VENZY
p1655
sa(dp1656
g154
(lp1657
I108
aI113
asg142
VPOPE
p1658
sa(dp1659
g154
(lp1660
I114
aI119
asg142
VMONT
p1661
sasg157
(lp1662
sg159
(lp1663
sg35
(lp1664
(dp1665
g85
Vhttps://t.co/DXRm9DTWiK
p1666
sg154
(lp1667
I78
aI101
asg165
Vhttp://goo.gl/NGTqcj
p1668
sg167
Vgoo.gl/NGTqcj
p1669
sassg200
Nsg201
Nsg202
I0
sg57
V663937484800266241
p1670
sg204
I00
sg205
g1627
sg206
Nsg207
Nsg208
I00
sg78
g1645
sg86
VTue Nov 10 04:33:26 +0000 2015
p1671
sg210
Nsg211
Nsg212
(dp1672
g214
Ven
p1673
sg216
Vrecent
p1674
sssg218
g1672
sg219
Nsg220
Nsg31
g1651
sg221
Nsg222
Nsg98
g1670
sg223
I00
sg224
Nsg225
I0
sg226
Nsbag0
(g4
g5
Ntp1675
Rp1676
(dp1677
g9
I00
sg10
Nsg11
I00
sg12
VOur Stock Alerts Gained Over 1,900% In 2 And A Half Months! See Our Special New Pick: https://t.co/rdhi4T4cqG $ENZY $POPE $MONT
p1678
sg14
Vhttp://twitter.com
p1679
sg16
I00
sg17
I00
sg18
Nsg19
g0
(g20
g5
Ntp1680
Rp1681
(dp1682
g24
I00
sg25
I00
sg26
I01
sg27
VDDEEF6
p1683
sg29
L2447967798L
sg30
I00
sg31
(dp1684
g33
(dp1685
g35
(lp1686
(dp1687
g85
Vhttp://t.co/d1PvG67PuC
p1688
sg154
(lp1689
I80
aI102
asg165
Vhttp://tinyurl.com/mcsbvzz
p1690
sg167
Vtinyurl.com/mcsbvzz
p1691
sasssg37
Vhttps://pbs.twimg.com/profile_images/456529846420525056/wLucrlXI_normal.jpeg
p1692
sg39
(dp1693
g41
I00
sg42
I00
sg43
I01
sg44
I00
sg45
L2447967798L
sg46
Vhttps://abs.twimg.com/images/themes/theme1/bg.png
p1694
sg48
I00
sg49
V333333
p1695
sg51
g1692
sg52
g1683
sg53
g1684
sg54
I14103
sg55
VC0DEED
p1696
sg57
V2447967798
p1697
sg59
VC0DEED
p1698
sg61
I101
sg62
I00
sg63
Nsg64
I443646
sg33
VRead our full disclaimer before looking at any of our tweets! Full Disclaimer:  http://t.co/d1PvG67PuC
p1699
sg66
I8
sg67
g65
sg68
V0084B4
p1700
sg70
Vhttp://pbs.twimg.com/profile_images/456529846420525056/wLucrlXI_normal.jpeg
p1701
sg72
I00
sg73
I00
sg74
Vhttp://abs.twimg.com/images/themes/theme1/bg.png
p1702
sg76
VStockaholics
p1703
sg78
Ven
p1704
sg80
I00
sg81
I22
sg82
VStockaholics
p1705
sg84
I00
sg85
Nsg86
VWed Apr 16 20:27:43 +0000 2014
p1706
sg88
I00
sg89
Nsg91
I00
sg92
I01
sg93
I00
ssg94
I00
sg95
g1695
sg96
I14103
sg97
g1696
sg98
g1697
sg99
I00
sg100
I101
sg101
I00
sg102
Nsg103
I443646
sg104
g1699
sg105
I8
sg106
g65
sg107
g1700
sg108
g1701
sg109
I00
sg110
I00
sg111
g1698
sg112
g1702
sg113
g1703
sg114
g1704
sg115
I00
sg116
I00
sg117
I22
sg118
g1705
sg119
Nsg120
g121
(S'\x07\xde\x04\x10\x14\x1b+\x00\x00\x00'
p1707
tp1708
Rp1709
sg125
g1694
sg126
Nsg127
I00
sg128
I01
sg129
I00
sbsg130
Nsg29
L663936897497079809L
sg131
I0
sg132
VTwitter Web Client
p1710
sg114
Ven
p1711
sg135
g1681
sg120
g121
(S'\x07\xdf\x0b\n\x04\x1f\x06\x00\x00\x00'
p1712
tp1713
Rp1714
sg39
(dp1715
g140
Nsg141
I00
sg142
g1678
sg143
I00
sg144
Nsg45
L663936897497079809L
sg145
I0
sg146
V<a href="http://twitter.com" rel="nofollow">Twitter Web Client</a>
p1716
sg148
I00
sg149
Nsg53
(dp1717
g151
(lp1718
(dp1719
g154
(lp1720
I110
aI115
asg142
VENZY
p1721
sa(dp1722
g154
(lp1723
I116
aI121
asg142
VPOPE
p1724
sa(dp1725
g154
(lp1726
I122
aI127
asg142
VMONT
p1727
sasg157
(lp1728
sg159
(lp1729
sg35
(lp1730
(dp1731
g85
Vhttps://t.co/rdhi4T4cqG
p1732
sg154
(lp1733
I86
aI109
asg165
Vhttp://bit.ly/1P4EFQ5
p1734
sg167
Vbit.ly/1P4EFQ5
p1735
sassg200
Nsg201
Nsg202
I0
sg57
V663936897497079809
p1736
sg204
I00
sg205
g1693
sg206
Nsg207
Nsg208
I00
sg78
g1711
sg86
VTue Nov 10 04:31:06 +0000 2015
p1737
sg210
Nsg211
Nsg212
(dp1738
g214
Ven
p1739
sg216
Vrecent
p1740
sssg218
g1738
sg219
Nsg220
Nsg31
g1717
sg221
Nsg222
Nsg98
g1736
sg223
I00
sg224
Nsg225
I0
sg226
Nsbag0
(g4
g5
Ntp1741
Rp1742
(dp1743
g9
I00
sg10
Nsg11
I00
sg12
V$GEQU Has Increased Almost 20 TIMES In Value, For Our Subscribers! Huge News: https://t.co/viouXok21i $ENZY $POPE $MONT
p1744
sg14
Vhttp://twitter.com
p1745
sg16
I00
sg17
I00
sg18
Nsg19
g0
(g20
g5
Ntp1746
Rp1747
(dp1748
g24
I00
sg25
I00
sg26
I01
sg27
VDDEEF6
p1749
sg29
L3091880403L
sg30
I00
sg31
(dp1750
g33
(dp1751
g35
(lp1752
(dp1753
g85
Vhttp://t.co/d1PvG67hF4
p1754
sg154
(lp1755
I79
aI101
asg165
Vhttp://tinyurl.com/mcsbvzz
p1756
sg167
Vtinyurl.com/mcsbvzz
p1757
sasssg37
Vhttps://pbs.twimg.com/profile_images/576985932299026432/vGRv_VM-_normal.png
p1758
sg39
(dp1759
g41
I00
sg42
I00
sg43
I01
sg44
I00
sg45
L3091880403L
sg46
Vhttps://abs.twimg.com/images/themes/theme1/bg.png
p1760
sg48
I00
sg49
V333333
p1761
sg51
g1758
sg52
g1749
sg53
g1750
sg54
I15272
sg55
VC0DEED
p1762
sg57
V3091880403
p1763
sg59
VC0DEED
p1764
sg61
I71
sg62
I00
sg63
Nsg64
I173961
sg33
VRead our full disclaimer before looking at any of our tweets! Full Disclaimer: http://t.co/d1PvG67hF4
p1765
sg66
I0
sg67
g65
sg68
V0084B4
p1766
sg70
Vhttp://pbs.twimg.com/profile_images/576985932299026432/vGRv_VM-_normal.png
p1767
sg72
I00
sg73
I00
sg74
Vhttp://abs.twimg.com/images/themes/theme1/bg.png
p1768
sg76
VPennyStockingt
p1769
sg78
Ven
p1770
sg80
I00
sg81
I1
sg82
VPenny Stockington
p1771
sg84
I00
sg85
Nsg86
VSun Mar 15 05:57:31 +0000 2015
p1772
sg88
I00
sg89
Nsg91
I00
sg92
I01
sg93
I00
ssg94
I00
sg95
g1761
sg96
I15272
sg97
g1762
sg98
g1763
sg99
I00
sg100
I71
sg101
I00
sg102
Nsg103
I173961
sg104
g1765
sg105
I0
sg106
g65
sg107
g1766
sg108
g1767
sg109
I00
sg110
I00
sg111
g1764
sg112
g1768
sg113
g1769
sg114
g1770
sg115
I00
sg116
I00
sg117
I1
sg118
g1771
sg119
Nsg120
g121
(S'\x07\xdf\x03\x0f\x059\x1f\x00\x00\x00'
p1773
tp1774
Rp1775
sg125
g1760
sg126
Nsg127
I00
sg128
I01
sg129
I00
sbsg130
Nsg29
L663936419698745344L
sg131
I0
sg132
VTwitter Web Client
p1776
sg114
Ven
p1777
sg135
g1747
sg120
g121
(S'\x07\xdf\x0b\n\x04\x1d\x0c\x00\x00\x00'
p1778
tp1779
Rp1780
sg39
(dp1781
g140
Nsg141
I00
sg142
g1744
sg143
I00
sg144
Nsg45
L663936419698745344L
sg145
I0
sg146
V<a href="http://twitter.com" rel="nofollow">Twitter Web Client</a>
p1782
sg148
I00
sg149
Nsg53
(dp1783
g151
(lp1784
(dp1785
g154
(lp1786
I0
aI5
asg142
VGEQU
p1787
sa(dp1788
g154
(lp1789
I102
aI107
asg142
VENZY
p1790
sa(dp1791
g154
(lp1792
I108
aI113
asg142
VPOPE
p1793
sa(dp1794
g154
(lp1795
I114
aI119
asg142
VMONT
p1796
sasg157
(lp1797
sg159
(lp1798
sg35
(lp1799
(dp1800
g85
Vhttps://t.co/viouXok21i
p1801
sg154
(lp1802
I78
aI101
asg165
Vhttp://tr.im/abvm6
p1803
sg167
Vtr.im/abvm6
p1804
sassg200
Nsg201
Nsg202
I0
sg57
V663936419698745344
p1805
sg204
I00
sg205
g1759
sg206
Nsg207
Nsg208
I00
sg78
g1777
sg86
VTue Nov 10 04:29:12 +0000 2015
p1806
sg210
Nsg211
Nsg212
(dp1807
g214
Ven
p1808
sg216
Vrecent
p1809
sssg218
g1807
sg219
Nsg220
Nsg31
g1783
sg221
Nsg222
Nsg98
g1805
sg223
I00
sg224
Nsg225
I0
sg226
Nsbag0
(g4
g5
Ntp1810
Rp1811
(dp1812
g9
I00
sg10
Nsg11
I00
sg12
VThe Most Accurate Stock Alert Service Made $240,000 Yesterday https://t.co/8WvnrVmkBS .. $FTNT $POPE $ESCA
p1813
sg14
Vhttp://socialadcenter.com
p1814
sg16
I00
sg17
I00
sg18
Nsg19
g0
(g20
g5
Ntp1815
Rp1816
(dp1817
g24
I00
sg25
I00
sg26
I01
sg27
VDDEEF6
p1818
sg29
L2730855593L
sg30
I00
sg31
(dp1819
g85
(dp1820
g35
(lp1821
(dp1822
g85
Vhttp://t.co/UWzH8kOOl9
p1823
sg154
(lp1824
I0
aI22
asg165
Vhttp://PennyStockSecret.com
p1825
sg167
VPennyStockSecret.com
p1826
sassg33
(dp1827
g35
(lp1828
(dp1829
g85
Vhttp://t.co/UWzH8kOOl9
p1830
sg154
(lp1831
I11
aI33
asg165
Vhttp://PennyStockSecret.com
p1832
sg167
VPennyStockSecret.com
p1833
sasssg37
Vhttps://pbs.twimg.com/profile_images/573247485616889856/gHAtYS9O_normal.png
p1834
sg39
(dp1835
g41
I00
sg42
I00
sg43
I01
sg44
I00
sg45
L2730855593L
sg46
Vhttps://abs.twimg.com/images/themes/theme1/bg.png
p1836
sg48
I00
sg49
V333333
p1837
sg51
g1834
sg52
g1818
sg53
g1819
sg54
I2515
sg55
VC0DEED
p1838
sg57
V2730855593
p1839
sg59
VC0DEED
p1840
sg61
I25
sg62
I00
sg63
I0
sg64
I53231
sg33
VSign up to http://t.co/UWzH8kOOl9  and get the premiere penny stock newsletter for free! make sure you subscribe today!
p1841
sg66
I9
sg67
VUSA
p1842
sg68
V0084B4
p1843
sg70
Vhttp://pbs.twimg.com/profile_images/573247485616889856/gHAtYS9O_normal.png
p1844
sg72
I00
sg73
I00
sg1170
Vhttps://pbs.twimg.com/profile_banners/2730855593/1425507876
p1845
sg74
Vhttp://abs.twimg.com/images/themes/theme1/bg.png
p1846
sg76
Vstockschamp
p1847
sg78
Ven
p1848
sg80
I00
sg81
I0
sg82
Vstockschamp
p1849
sg84
I00
sg85
Vhttp://t.co/UWzH8kOOl9
p1850
sg86
VFri Aug 01 16:39:24 +0000 2014
p1851
sg88
I00
sg89
VDublin
p1852
sg91
I00
sg92
I01
sg93
I00
ssg94
I00
sg95
g1837
sg96
I2515
sg97
g1838
sg98
g1839
sg99
I00
sg100
I25
sg101
I00
sg102
I0
sg103
I53231
sg104
g1841
sg105
I9
sg106
g1842
sg107
g1843
sg108
g1844
sg109
I00
sg110
I00
sg111
g1840
sg1179
g1845
sg112
g1846
sg113
g1847
sg114
g1848
sg115
I00
sg116
I00
sg117
I0
sg118
g1849
sg119
g1850
sg120
g121
(S"\x07\xde\x08\x01\x10'\x18\x00\x00\x00"
p1853
tp1854
Rp1855
sg125
g1836
sg126
g1852
sg127
I00
sg128
I01
sg129
I00
sbsg130
Nsg29
L663764457441521664L
sg131
I0
sg132
VSocial Ad Center
p1856
sg114
Ven
p1857
sg135
g1816
sg120
g121
(S'\x07\xdf\x0b\t\x11\x055\x00\x00\x00'
p1858
tp1859
Rp1860
sg39
(dp1861
g140
Nsg141
I00
sg142
g1813
sg143
I00
sg144
Nsg45
L663764457441521664L
sg145
I0
sg146
V<a href="http://socialadcenter.com" rel="nofollow">Social Ad Center</a>
p1862
sg148
I00
sg149
Nsg53
(dp1863
g151
(lp1864
(dp1865
g154
(lp1866
I89
aI94
asg142
VFTNT
p1867
sa(dp1868
g154
(lp1869
I95
aI100
asg142
VPOPE
p1870
sa(dp1871
g154
(lp1872
I101
aI106
asg142
VESCA
p1873
sasg157
(lp1874
sg159
(lp1875
sg35
(lp1876
(dp1877
g85
Vhttps://t.co/8WvnrVmkBS
p1878
sg154
(lp1879
I62
aI85
asg165
Vhttp://PennyStockSecret.com
p1880
sg167
VPennyStockSecret.com
p1881
sassg200
Nsg201
Nsg202
I0
sg57
V663764457441521664
p1882
sg204
I00
sg205
g1835
sg206
Nsg207
Nsg208
I00
sg78
g1857
sg86
VMon Nov 09 17:05:53 +0000 2015
p1883
sg210
Nsg211
Nsg212
(dp1884
g214
Ven
p1885
sg216
Vrecent
p1886
sssg218
g1884
sg219
Nsg220
Nsg31
g1863
sg221
Nsg222
Nsg98
g1882
sg223
I00
sg224
Nsg225
I0
sg226
Nsbag0
(g4
g5
Ntp1887
Rp1888
(dp1889
g9
I00
sg10
Nsg11
I00
sg12
V$POPE POPE RESOURCES LTD PARTNERSHIP filed a new #XBRL report to the #SEC. https://t.co/hfTTAi4i0K
p1890
sg14
Vhttp://www.xbrl4.org/
p1891
sg16
I00
sg17
I00
sg18
Nsg19
g0
(g20
g5
Ntp1892
Rp1893
(dp1894
g24
I00
sg25
I00
sg26
I01
sg27
VDDEEF6
p1895
sg29
I179538557
sg30
I00
sg31
(dp1896
g85
(dp1897
g35
(lp1898
(dp1899
g85
Vhttp://t.co/yzdi83V9uz
p1900
sg154
(lp1901
I0
aI22
asg165
Vhttp://www.reportingstandard.com
p1902
sg167
Vreportingstandard.com
p1903
sassg33
(dp1904
g35
(lp1905
sssg37
Vhttps://pbs.twimg.com/profile_images/1105004443/Logo-Reporting_normal.jpg
p1906
sg39
(dp1907
g41
I00
sg42
I00
sg43
I01
sg44
I00
sg45
I179538557
sg46
Vhttps://abs.twimg.com/images/themes/theme1/bg.png
p1908
sg48
I00
sg49
V333333
p1909
sg51
g1906
sg52
g1895
sg53
g1896
sg54
I140
sg55
VC0DEED
p1910
sg57
V179538557
p1911
sg59
VC0DEED
p1912
sg61
I18
sg62
I00
sg63
I3600
sg64
I133110
sg33
VXBRL software for Regulators, Filers, Analysts and other software companies
p1913
sg66
I36
sg67
VEarth
p1914
sg68
V0084B4
p1915
sg70
Vhttp://pbs.twimg.com/profile_images/1105004443/Logo-Reporting_normal.jpg
p1916
sg72
I00
sg73
I00
sg74
Vhttp://abs.twimg.com/images/themes/theme1/bg.png
p1917
sg76
VXBRLStandard
p1918
sg78
Ves
p1919
sg80
I00
sg81
I0
sg82
VReporting Standards
p1920
sg84
I00
sg85
Vhttp://t.co/yzdi83V9uz
p1921
sg86
VTue Aug 17 14:55:42 +0000 2010
p1922
sg88
I00
sg89
VMadrid
p1923
sg91
I00
sg92
I01
sg93
I00
ssg94
I00
sg95
g1909
sg96
I140
sg97
g1910
sg98
g1911
sg99
I00
sg100
I18
sg101
I00
sg102
I3600
sg103
I133110
sg104
g1913
sg105
I36
sg106
g1914
sg107
g1915
sg108
g1916
sg109
I00
sg110
I00
sg111
g1912
sg112
g1917
sg113
g1918
sg114
g1919
sg115
I00
sg116
I00
sg117
I0
sg118
g1920
sg119
g1921
sg120
g121
(S'\x07\xda\x08\x11\x0e7*\x00\x00\x00'
p1924
tp1925
Rp1926
sg125
g1908
sg126
g1923
sg127
I00
sg128
I01
sg129
I00
sbsg130
Nsg29
L663625496740175873L
sg131
I0
sg132
VSEC Submissions feed
p1927
sg114
Ven
p1928
sg135
g1893
sg120
g121
(S'\x07\xdf\x0b\t\x075*\x00\x00\x00'
p1929
tp1930
Rp1931
sg39
(dp1932
g140
Nsg141
I00
sg142
g1890
sg143
I00
sg144
Nsg45
L663625496740175873L
sg145
I0
sg146
V<a href="http://www.xbrl4.org/" rel="nofollow">SEC Submissions feed</a>
p1933
sg148
I00
sg149
Nsg53
(dp1934
g151
(lp1935
(dp1936
g154
(lp1937
I0
aI5
asg142
VPOPE
p1938
sasg157
(lp1939
sg159
(lp1940
(dp1941
g154
(lp1942
I49
aI54
asg142
VXBRL
p1943
sa(dp1944
g154
(lp1945
I69
aI73
asg142
VSEC
p1946
sasg35
(lp1947
(dp1948
g85
Vhttps://t.co/hfTTAi4i0K
p1949
sg154
(lp1950
I75
aI98
asg165
Vhttp://www.xbrl4.org/regulators/seeReport.jsp?documentKey=http://www.sec.gov/Archives/edgar/data/784011/000115752315001695/pope-20150331.xml
p1951
sg167
Vxbrl4.org/regulators/see\u2026
p1952
sassg200
Nsg201
Nsg202
I0
sg57
V663625496740175873
p1953
sg204
I00
sg205
g1907
sg206
Nsg207
Nsg208
I00
sg78
g1928
sg86
VMon Nov 09 07:53:42 +0000 2015
p1954
sg210
Nsg211
Nsg212
(dp1955
g214
Ven
p1956
sg216
Vrecent
p1957
sssg218
g1955
sg219
Nsg220
Nsg31
g1934
sg221
Nsg222
Nsg98
g1953
sg223
I00
sg224
Nsg225
I0
sg226
Nsbag0
(g4
g5
Ntp1958
Rp1959
(dp1960
g9
I00
sg10
Nsg11
I00
sg12
VOur Pick On $HCTI More Than Tripled For Our Members, In 3 Weeks! Subscribe For Our New Picks: https://t.co/6sqzAAvjDY $ENZY $POPE $MONT
p1961
sg14
Vhttp://twitter.com
p1962
sg16
I00
sg17
I00
sg18
Nsg19
g0
(g20
g5
Ntp1963
Rp1964
(dp1965
g24
I00
sg25
I00
sg26
I01
sg27
VDDEEF6
p1966
sg29
L2447928920L
sg30
I00
sg31
(dp1967
g33
(dp1968
g35
(lp1969
(dp1970
g85
Vhttp://t.co/QYxLf9LJ7f
p1971
sg154
(lp1972
I94
aI116
asg165
Vhttp://www.pennystockdream.com/disclaimer
p1973
sg167
Vpennystockdream.com/disclaimer
p1974
sasssg37
Vhttps://pbs.twimg.com/profile_images/456523892308201472/sBGAsJTn_normal.png
p1975
sg39
(dp1976
g41
I00
sg42
I00
sg43
I01
sg44
I00
sg45
L2447928920L
sg46
Vhttps://abs.twimg.com/images/themes/theme1/bg.png
p1977
sg48
I00
sg49
V333333
p1978
sg51
g1975
sg52
g1966
sg53
g1967
sg54
I4321
sg55
VC0DEED
p1979
sg57
V2447928920
p1980
sg59
VC0DEED
p1981
sg61
I60
sg62
I00
sg63
Nsg64
I179299
sg33
VATTENTION: Read full disclaimer before looking at any of our tweets! Link To Full Disclaimer: http://t.co/QYxLf9LJ7f
p1982
sg66
I0
sg67
g65
sg68
V0084B4
p1983
sg70
Vhttp://pbs.twimg.com/profile_images/456523892308201472/sBGAsJTn_normal.png
p1984
sg72
I00
sg73
I00
sg74
Vhttp://abs.twimg.com/images/themes/theme1/bg.png
p1985
sg76
VStockenheimer1
p1986
sg78
Ven
p1987
sg80
I00
sg81
I0
sg82
VStockenheimerSchmidt
p1988
sg84
I00
sg85
Nsg86
VWed Apr 16 20:03:52 +0000 2014
p1989
sg88
I00
sg89
Nsg91
I00
sg92
I01
sg93
I00
ssg94
I00
sg95
g1978
sg96
I4321
sg97
g1979
sg98
g1980
sg99
I00
sg100
I60
sg101
I00
sg102
Nsg103
I179299
sg104
g1982
sg105
I0
sg106
g65
sg107
g1983
sg108
g1984
sg109
I00
sg110
I00
sg111
g1981
sg112
g1985
sg113
g1986
sg114
g1987
sg115
I00
sg116
I00
sg117
I0
sg118
g1988
sg119
Nsg120
g121
(S'\x07\xde\x04\x10\x14\x034\x00\x00\x00'
p1990
tp1991
Rp1992
sg125
g1977
sg126
Nsg127
I00
sg128
I01
sg129
I00
sbsg130
Nsg29
L663098286585311232L
sg131
I0
sg132
VTwitter Web Client
p1993
sg114
Ven
p1994
sg135
g1964
sg120
g121
(S'\x07\xdf\x0b\x07\x14:-\x00\x00\x00'
p1995
tp1996
Rp1997
sg39
(dp1998
g140
Nsg141
I00
sg142
g1961
sg143
I00
sg144
Nsg45
L663098286585311232L
sg145
I0
sg146
V<a href="http://twitter.com" rel="nofollow">Twitter Web Client</a>
p1999
sg148
I00
sg149
Nsg53
(dp2000
g151
(lp2001
(dp2002
g154
(lp2003
I12
aI17
asg142
VHCTI
p2004
sa(dp2005
g154
(lp2006
I118
aI123
asg142
VENZY
p2007
sa(dp2008
g154
(lp2009
I124
aI129
asg142
VPOPE
p2010
sa(dp2011
g154
(lp2012
I130
aI135
asg142
VMONT
p2013
sasg157
(lp2014
sg159
(lp2015
sg35
(lp2016
(dp2017
g85
Vhttps://t.co/6sqzAAvjDY
p2018
sg154
(lp2019
I94
aI117
asg165
Vhttp://ow.ly/SP8LD
p2020
sg167
Vow.ly/SP8LD
p2021
sassg200
Nsg201
Nsg202
I0
sg57
V663098286585311232
p2022
sg204
I00
sg205
g1976
sg206
Nsg207
Nsg208
I00
sg78
g1994
sg86
VSat Nov 07 20:58:45 +0000 2015
p2023
sg210
Nsg211
Nsg212
(dp2024
g214
Ven
p2025
sg216
Vrecent
p2026
sssg218
g2024
sg219
Nsg220
Nsg31
g2000
sg221
Nsg222
Nsg98
g2022
sg223
I00
sg224
Nsg225
I0
sg226
Nsbag0
(g4
g5
Ntp2027
Rp2028
(dp2029
g9
I00
sg10
Nsg11
I00
sg12
VOur Stock Alerts Have Been Seeing Record Gains! Our New Pick Will Be MASSIVE: https://t.co/DXRm9DTWiK $ENZY $POPE $MONT
p2030
sg14
Vhttp://twitter.com
p2031
sg16
I00
sg17
I00
sg18
Nsg19
g0
(g20
g5
Ntp2032
Rp2033
(dp2034
g24
I00
sg25
I00
sg26
I01
sg27
VDDEEF6
p2035
sg29
L3091884801L
sg30
I00
sg31
(dp2036
g33
(dp2037
g35
(lp2038
(dp2039
g85
Vhttp://t.co/d1PvG67hF4
p2040
sg154
(lp2041
I79
aI101
asg165
Vhttp://tinyurl.com/mcsbvzz
p2042
sg167
Vtinyurl.com/mcsbvzz
p2043
sasssg37
Vhttps://pbs.twimg.com/profile_images/576989971883499521/yv0Bp7te_normal.jpeg
p2044
sg39
(dp2045
g41
I00
sg42
I00
sg43
I01
sg44
I00
sg45
L3091884801L
sg46
Vhttps://abs.twimg.com/images/themes/theme1/bg.png
p2046
sg48
I00
sg49
V333333
p2047
sg51
g2044
sg52
g2035
sg53
g2036
sg54
I15267
sg55
VC0DEED
p2048
sg57
V3091884801
p2049
sg59
VC0DEED
p2050
sg61
I65
sg62
I00
sg63
Nsg64
I170509
sg33
VRead our full disclaimer before looking at any of our tweets! Full Disclaimer: http://t.co/d1PvG67hF4
p2051
sg66
I1
sg67
g65
sg68
V0084B4
p2052
sg70
Vhttp://pbs.twimg.com/profile_images/576989971883499521/yv0Bp7te_normal.jpeg
p2053
sg72
I00
sg73
I00
sg74
Vhttp://abs.twimg.com/images/themes/theme1/bg.png
p2054
sg76
VStockDawgzz
p2055
sg78
Ven
p2056
sg80
I00
sg81
I0
sg82
VStock Dawgzz
p2057
sg84
I00
sg85
Nsg86
VSun Mar 15 06:13:17 +0000 2015
p2058
sg88
I00
sg89
Nsg91
I00
sg92
I01
sg93
I00
ssg94
I00
sg95
g2047
sg96
I15267
sg97
g2048
sg98
g2049
sg99
I00
sg100
I65
sg101
I00
sg102
Nsg103
I170509
sg104
g2051
sg105
I1
sg106
g65
sg107
g2052
sg108
g2053
sg109
I00
sg110
I00
sg111
g2050
sg112
g2054
sg113
g2055
sg114
g2056
sg115
I00
sg116
I00
sg117
I0
sg118
g2057
sg119
Nsg120
g121
(S'\x07\xdf\x03\x0f\x06\r\x11\x00\x00\x00'
p2059
tp2060
Rp2061
sg125
g2046
sg126
Nsg127
I00
sg128
I01
sg129
I00
sbsg130
Nsg29
L663097937870893056L
sg131
I0
sg132
VTwitter Web Client
p2062
sg114
Ven
p2063
sg135
g2033
sg120
g121
(S'\x07\xdf\x0b\x07\x149\x16\x00\x00\x00'
p2064
tp2065
Rp2066
sg39
(dp2067
g140
Nsg141
I00
sg142
g2030
sg143
I00
sg144
Nsg45
L663097937870893056L
sg145
I0
sg146
V<a href="http://twitter.com" rel="nofollow">Twitter Web Client</a>
p2068
sg148
I00
sg149
Nsg53
(dp2069
g151
(lp2070
(dp2071
g154
(lp2072
I102
aI107
asg142
VENZY
p2073
sa(dp2074
g154
(lp2075
I108
aI113
asg142
VPOPE
p2076
sa(dp2077
g154
(lp2078
I114
aI119
asg142
VMONT
p2079
sasg157
(lp2080
sg159
(lp2081
sg35
(lp2082
(dp2083
g85
Vhttps://t.co/DXRm9DTWiK
p2084
sg154
(lp2085
I78
aI101
asg165
Vhttp://goo.gl/NGTqcj
p2086
sg167
Vgoo.gl/NGTqcj
p2087
sassg200
Nsg201
Nsg202
I0
sg57
V663097937870893056
p2088
sg204
I00
sg205
g2045
sg206
Nsg207
Nsg208
I00
sg78
g2063
sg86
VSat Nov 07 20:57:22 +0000 2015
p2089
sg210
Nsg211
Nsg212
(dp2090
g214
Ven
p2091
sg216
Vrecent
p2092
sssg218
g2090
sg219
Nsg220
Nsg31
g2069
sg221
Nsg222
Nsg98
g2088
sg223
I00
sg224
Nsg225
I0
sg226
Nsbag0
(g4
g5
Ntp2093
Rp2094
(dp2095
g9
I00
sg10
Nsg11
I00
sg12
VOur Platinum Members Have Been Seeing MASSIVE Gains On Our Penny Stock Picks! Subscribe Today: https://t.co/ro7o3SYbd1 $ENZY $POPE $MONT
p2096
sg14
Vhttp://twitter.com
p2097
sg16
I00
sg17
I00
sg18
Nsg19
g0
(g20
g5
Ntp2098
Rp2099
(dp2100
g24
I00
sg25
I00
sg26
I01
sg27
VDDEEF6
p2101
sg29
L2447901655L
sg30
I00
sg31
(dp2102
g33
(dp2103
g35
(lp2104
(dp2105
g85
Vhttp://t.co/QYxLf9LJ7f
p2106
sg154
(lp2107
I94
aI116
asg165
Vhttp://www.pennystockdream.com/disclaimer
p2108
sg167
Vpennystockdream.com/disclaimer
p2109
sasssg37
Vhttps://pbs.twimg.com/profile_images/456519281744703490/M4G5Ld8j_normal.jpeg
p2110
sg39
(dp2111
g41
I00
sg42
I00
sg43
I01
sg44
I00
sg45
L2447901655L
sg46
Vhttps://abs.twimg.com/images/themes/theme1/bg.png
p2112
sg48
I00
sg49
V333333
p2113
sg51
g2110
sg52
g2101
sg53
g2102
sg54
I13505
sg55
VC0DEED
p2114
sg57
V2447901655
p2115
sg59
VC0DEED
p2116
sg61
I79
sg62
I00
sg63
Nsg64
I234690
sg33
VATTENTION: Read full disclaimer before looking at any of our tweets! Link To Full Disclaimer: http://t.co/QYxLf9LJ7f
p2117
sg66
I1
sg67
g65
sg68
V0084B4
p2118
sg70
Vhttp://pbs.twimg.com/profile_images/456519281744703490/M4G5Ld8j_normal.jpeg
p2119
sg72
I00
sg73
I00
sg74
Vhttp://abs.twimg.com/images/themes/theme1/bg.png
p2120
sg76
VStockRocketzz
p2121
sg78
Ven
p2122
sg80
I00
sg81
I0
sg82
VStock Rocket
p2123
sg84
I00
sg85
Nsg86
VWed Apr 16 19:44:35 +0000 2014
p2124
sg88
I00
sg89
Nsg91
I00
sg92
I01
sg93
I00
ssg94
I00
sg95
g2113
sg96
I13505
sg97
g2114
sg98
g2115
sg99
I00
sg100
I79
sg101
I00
sg102
Nsg103
I234690
sg104
g2117
sg105
I1
sg106
g65
sg107
g2118
sg108
g2119
sg109
I00
sg110
I00
sg111
g2116
sg112
g2120
sg113
g2121
sg114
g2122
sg115
I00
sg116
I00
sg117
I0
sg118
g2123
sg119
Nsg120
g121
(S'\x07\xde\x04\x10\x13,#\x00\x00\x00'
p2125
tp2126
Rp2127
sg125
g2112
sg126
Nsg127
I00
sg128
I01
sg129
I00
sbsg130
Nsg29
L663097782144770049L
sg131
I0
sg132
VTwitter Web Client
p2128
sg114
Ven
p2129
sg135
g2099
sg120
g121
(S'\x07\xdf\x0b\x07\x148-\x00\x00\x00'
p2130
tp2131
Rp2132
sg39
(dp2133
g140
Nsg141
I00
sg142
g2096
sg143
I00
sg144
Nsg45
L663097782144770049L
sg145
I0
sg146
V<a href="http://twitter.com" rel="nofollow">Twitter Web Client</a>
p2134
sg148
I00
sg149
Nsg53
(dp2135
g151
(lp2136
(dp2137
g154
(lp2138
I119
aI124
asg142
VENZY
p2139
sa(dp2140
g154
(lp2141
I125
aI130
asg142
VPOPE
p2142
sa(dp2143
g154
(lp2144
I131
aI136
asg142
VMONT
p2145
sasg157
(lp2146
sg159
(lp2147
sg35
(lp2148
(dp2149
g85
Vhttps://t.co/ro7o3SYbd1
p2150
sg154
(lp2151
I95
aI118
asg165
Vhttp://tinyurl.com/o3lgmg3
p2152
sg167
Vtinyurl.com/o3lgmg3
p2153
sassg200
Nsg201
Nsg202
I0
sg57
V663097782144770049
p2154
sg204
I00
sg205
g2111
sg206
Nsg207
Nsg208
I00
sg78
g2129
sg86
VSat Nov 07 20:56:45 +0000 2015
p2155
sg210
Nsg211
Nsg212
(dp2156
g214
Ven
p2157
sg216
Vrecent
p2158
sssg218
g2156
sg219
Nsg220
Nsg31
g2135
sg221
Nsg222
Nsg98
g2154
sg223
I00
sg224
Nsg225
I0
sg226
Nsbag0
(g4
g5
Ntp2159
Rp2160
(dp2161
g9
I00
sg10
Nsg11
I00
sg12
VOur Stock Alerts Gained Over 1,900% In 2 And A Half Months! See Our Special New Pick: https://t.co/rdhi4T4cqG $ENZY $POPE $MONT
p2162
sg14
Vhttp://twitter.com
p2163
sg16
I00
sg17
I00
sg18
Nsg19
g0
(g20
g5
Ntp2164
Rp2165
(dp2166
g24
I00
sg25
I00
sg26
I01
sg27
VDDEEF6
p2167
sg29
L2447967798L
sg30
I00
sg31
(dp2168
g33
(dp2169
g35
(lp2170
(dp2171
g85
Vhttp://t.co/d1PvG67PuC
p2172
sg154
(lp2173
I80
aI102
asg165
Vhttp://tinyurl.com/mcsbvzz
p2174
sg167
Vtinyurl.com/mcsbvzz
p2175
sasssg37
Vhttps://pbs.twimg.com/profile_images/456529846420525056/wLucrlXI_normal.jpeg
p2176
sg39
(dp2177
g41
I00
sg42
I00
sg43
I01
sg44
I00
sg45
L2447967798L
sg46
Vhttps://abs.twimg.com/images/themes/theme1/bg.png
p2178
sg48
I00
sg49
V333333
p2179
sg51
g2176
sg52
g2167
sg53
g2168
sg54
I14103
sg55
VC0DEED
p2180
sg57
V2447967798
p2181
sg59
VC0DEED
p2182
sg61
I101
sg62
I00
sg63
Nsg64
I443646
sg33
VRead our full disclaimer before looking at any of our tweets! Full Disclaimer:  http://t.co/d1PvG67PuC
p2183
sg66
I8
sg67
g65
sg68
V0084B4
p2184
sg70
Vhttp://pbs.twimg.com/profile_images/456529846420525056/wLucrlXI_normal.jpeg
p2185
sg72
I00
sg73
I00
sg74
Vhttp://abs.twimg.com/images/themes/theme1/bg.png
p2186
sg76
VStockaholics
p2187
sg78
Ven
p2188
sg80
I00
sg81
I22
sg82
VStockaholics
p2189
sg84
I00
sg85
Nsg86
VWed Apr 16 20:27:43 +0000 2014
p2190
sg88
I00
sg89
Nsg91
I00
sg92
I01
sg93
I00
ssg94
I00
sg95
g2179
sg96
I14103
sg97
g2180
sg98
g2181
sg99
I00
sg100
I101
sg101
I00
sg102
Nsg103
I443646
sg104
g2183
sg105
I8
sg106
g65
sg107
g2184
sg108
g2185
sg109
I00
sg110
I00
sg111
g2182
sg112
g2186
sg113
g2187
sg114
g2188
sg115
I00
sg116
I00
sg117
I22
sg118
g2189
sg119
Nsg120
g121
(S'\x07\xde\x04\x10\x14\x1b+\x00\x00\x00'
p2191
tp2192
Rp2193
sg125
g2178
sg126
Nsg127
I00
sg128
I01
sg129
I00
sbsg130
Nsg29
L663093466382118912L
sg131
I0
sg132
VTwitter Web Client
p2194
sg114
Ven
p2195
sg135
g2165
sg120
g121
(S"\x07\xdf\x0b\x07\x14'$\x00\x00\x00"
p2196
tp2197
Rp2198
sg39
(dp2199
g140
Nsg141
I00
sg142
g2162
sg143
I00
sg144
Nsg45
L663093466382118912L
sg145
I0
sg146
V<a href="http://twitter.com" rel="nofollow">Twitter Web Client</a>
p2200
sg148
I00
sg149
Nsg53
(dp2201
g151
(lp2202
(dp2203
g154
(lp2204
I110
aI115
asg142
VENZY
p2205
sa(dp2206
g154
(lp2207
I116
aI121
asg142
VPOPE
p2208
sa(dp2209
g154
(lp2210
I122
aI127
asg142
VMONT
p2211
sasg157
(lp2212
sg159
(lp2213
sg35
(lp2214
(dp2215
g85
Vhttps://t.co/rdhi4T4cqG
p2216
sg154
(lp2217
I86
aI109
asg165
Vhttp://bit.ly/1P4EFQ5
p2218
sg167
Vbit.ly/1P4EFQ5
p2219
sassg200
Nsg201
Nsg202
I0
sg57
V663093466382118912
p2220
sg204
I00
sg205
g2177
sg206
Nsg207
Nsg208
I00
sg78
g2195
sg86
VSat Nov 07 20:39:36 +0000 2015
p2221
sg210
Nsg211
Nsg212
(dp2222
g214
Ven
p2223
sg216
Vrecent
p2224
sssg218
g2222
sg219
Nsg220
Nsg31
g2201
sg221
Nsg222
Nsg98
g2220
sg223
I00
sg224
Nsg225
I0
sg226
Nsbag0
(g4
g5
Ntp2225
Rp2226
(dp2227
g9
I00
sg10
Nsg11
I00
sg12
V$GEQU Has Increased Almost 20 TIMES In Value, For Our Subscribers! Huge News: https://t.co/viouXok21i $ENZY $POPE $MONT
p2228
sg14
Vhttp://twitter.com
p2229
sg16
I00
sg17
I00
sg18
Nsg19
g0
(g20
g5
Ntp2230
Rp2231
(dp2232
g24
I00
sg25
I00
sg26
I01
sg27
VDDEEF6
p2233
sg29
L3091880403L
sg30
I00
sg31
(dp2234
g33
(dp2235
g35
(lp2236
(dp2237
g85
Vhttp://t.co/d1PvG67hF4
p2238
sg154
(lp2239
I79
aI101
asg165
Vhttp://tinyurl.com/mcsbvzz
p2240
sg167
Vtinyurl.com/mcsbvzz
p2241
sasssg37
Vhttps://pbs.twimg.com/profile_images/576985932299026432/vGRv_VM-_normal.png
p2242
sg39
(dp2243
g41
I00
sg42
I00
sg43
I01
sg44
I00
sg45
L3091880403L
sg46
Vhttps://abs.twimg.com/images/themes/theme1/bg.png
p2244
sg48
I00
sg49
V333333
p2245
sg51
g2242
sg52
g2233
sg53
g2234
sg54
I15272
sg55
VC0DEED
p2246
sg57
V3091880403
p2247
sg59
VC0DEED
p2248
sg61
I71
sg62
I00
sg63
Nsg64
I173961
sg33
VRead our full disclaimer before looking at any of our tweets! Full Disclaimer: http://t.co/d1PvG67hF4
p2249
sg66
I0
sg67
g65
sg68
V0084B4
p2250
sg70
Vhttp://pbs.twimg.com/profile_images/576985932299026432/vGRv_VM-_normal.png
p2251
sg72
I00
sg73
I00
sg74
Vhttp://abs.twimg.com/images/themes/theme1/bg.png
p2252
sg76
VPennyStockingt
p2253
sg78
Ven
p2254
sg80
I00
sg81
I1
sg82
VPenny Stockington
p2255
sg84
I00
sg85
Nsg86
VSun Mar 15 05:57:31 +0000 2015
p2256
sg88
I00
sg89
Nsg91
I00
sg92
I01
sg93
I00
ssg94
I00
sg95
g2245
sg96
I15272
sg97
g2246
sg98
g2247
sg99
I00
sg100
I71
sg101
I00
sg102
Nsg103
I173961
sg104
g2249
sg105
I0
sg106
g65
sg107
g2250
sg108
g2251
sg109
I00
sg110
I00
sg111
g2248
sg112
g2252
sg113
g2253
sg114
g2254
sg115
I00
sg116
I00
sg117
I1
sg118
g2255
sg119
Nsg120
g121
(S'\x07\xdf\x03\x0f\x059\x1f\x00\x00\x00'
p2257
tp2258
Rp2259
sg125
g2244
sg126
Nsg127
I00
sg128
I01
sg129
I00
sbsg130
Nsg29
L663091036072370176L
sg131
I0
sg132
VTwitter Web Client
p2260
sg114
Ven
p2261
sg135
g2231
sg120
g121
(S'\x07\xdf\x0b\x07\x14\x1d9\x00\x00\x00'
p2262
tp2263
Rp2264
sg39
(dp2265
g140
Nsg141
I00
sg142
g2228
sg143
I00
sg144
Nsg45
L663091036072370176L
sg145
I0
sg146
V<a href="http://twitter.com" rel="nofollow">Twitter Web Client</a>
p2266
sg148
I00
sg149
Nsg53
(dp2267
g151
(lp2268
(dp2269
g154
(lp2270
I0
aI5
asg142
VGEQU
p2271
sa(dp2272
g154
(lp2273
I102
aI107
asg142
VENZY
p2274
sa(dp2275
g154
(lp2276
I108
aI113
asg142
VPOPE
p2277
sa(dp2278
g154
(lp2279
I114
aI119
asg142
VMONT
p2280
sasg157
(lp2281
sg159
(lp2282
sg35
(lp2283
(dp2284
g85
Vhttps://t.co/viouXok21i
p2285
sg154
(lp2286
I78
aI101
asg165
Vhttp://tr.im/abvm6
p2287
sg167
Vtr.im/abvm6
p2288
sassg200
Nsg201
Nsg202
I0
sg57
V663091036072370176
p2289
sg204
I00
sg205
g2243
sg206
Nsg207
Nsg208
I00
sg78
g2261
sg86
VSat Nov 07 20:29:57 +0000 2015
p2290
sg210
Nsg211
Nsg212
(dp2291
g214
Ven
p2292
sg216
Vrecent
p2293
sssg218
g2291
sg219
Nsg220
Nsg31
g2267
sg221
Nsg222
Nsg98
g2289
sg223
I00
sg224
Nsg225
I0
sg226
Nsbag0
(g4
g5
Ntp2294
Rp2295
(dp2296
g9
I00
sg10
Nsg11
I00
sg12
VOur Pick On $GEQU Gained Over 3,500% For Our Members Within 4 Months! See Our New Picks: https://t.co/YzphAts7wM $ENZY $POPE $MONT
p2297
sg14
Vhttp://twitter.com
p2298
sg16
I00
sg17
I00
sg18
Nsg19
g0
(g20
g5
Ntp2299
Rp2300
(dp2301
g24
I00
sg25
I00
sg26
I01
sg27
VDDEEF6
p2302
sg29
L3243313260L
sg30
I00
sg31
(dp2303
g33
(dp2304
g35
(lp2305
sssg37
Vhttps://pbs.twimg.com/profile_images/609376154588286976/l9qz1Ibc_normal.jpg
p2306
sg39
(dp2307
g41
I00
sg42
I00
sg43
I01
sg44
I00
sg45
L3243313260L
sg46
Vhttps://abs.twimg.com/images/themes/theme1/bg.png
p2308
sg48
I00
sg49
V333333
p2309
sg51
g2306
sg52
g2302
sg53
g2303
sg54
I19956
sg55
VC0DEED
p2310
sg57
V3243313260
p2311
sg59
VC0DEED
p2312
sg61
I55
sg62
I00
sg63
Nsg64
I81515
sg33
g65
sg66
I0
sg67
g65
sg68
V0084B4
p2313
sg70
Vhttp://pbs.twimg.com/profile_images/609376154588286976/l9qz1Ibc_normal.jpg
p2314
sg72
I00
sg73
I00
sg74
Vhttp://abs.twimg.com/images/themes/theme1/bg.png
p2315
sg76
VTheStockGuyz
p2316
sg78
Ven
p2317
sg80
I00
sg81
I0
sg82
VMichael James
p2318
sg84
I00
sg85
Nsg86
VFri Jun 12 14:53:00 +0000 2015
p2319
sg88
I00
sg89
Nsg91
I00
sg92
I01
sg93
I00
ssg94
I00
sg95
g2309
sg96
I19956
sg97
g2310
sg98
g2311
sg99
I00
sg100
I55
sg101
I00
sg102
Nsg103
I81515
sg104
g65
sg105
I0
sg106
g65
sg107
g2313
sg108
g2314
sg109
I00
sg110
I00
sg111
g2312
sg112
g2315
sg113
g2316
sg114
g2317
sg115
I00
sg116
I00
sg117
I0
sg118
g2318
sg119
Nsg120
g121
(S'\x07\xdf\x06\x0c\x0e5\x00\x00\x00\x00'
p2320
tp2321
Rp2322
sg125
g2308
sg126
Nsg127
I00
sg128
I01
sg129
I00
sbsg130
Nsg29
L663008361655443457L
sg131
I0
sg132
VTwitter Web Client
p2323
sg114
Ven
p2324
sg135
g2300
sg120
g121
(S'\x07\xdf\x0b\x07\x0f\x01\x1a\x00\x00\x00'
p2325
tp2326
Rp2327
sg39
(dp2328
g140
Nsg141
I00
sg142
g2297
sg143
I00
sg144
Nsg45
L663008361655443457L
sg145
I0
sg146
V<a href="http://twitter.com" rel="nofollow">Twitter Web Client</a>
p2329
sg148
I00
sg149
Nsg53
(dp2330
g151
(lp2331
(dp2332
g154
(lp2333
I12
aI17
asg142
VGEQU
p2334
sa(dp2335
g154
(lp2336
I113
aI118
asg142
VENZY
p2337
sa(dp2338
g154
(lp2339
I119
aI124
asg142
VPOPE
p2340
sa(dp2341
g154
(lp2342
I125
aI130
asg142
VMONT
p2343
sasg157
(lp2344
sg159
(lp2345
sg35
(lp2346
(dp2347
g85
Vhttps://t.co/YzphAts7wM
p2348
sg154
(lp2349
I89
aI112
asg165
Vhttp://bit.ly/1VTm35C
p2350
sg167
Vbit.ly/1VTm35C
p2351
sassg200
Nsg201
Nsg202
I0
sg57
V663008361655443457
p2352
sg204
I00
sg205
g2307
sg206
Nsg207
Nsg208
I00
sg78
g2324
sg86
VSat Nov 07 15:01:26 +0000 2015
p2353
sg210
Nsg211
Nsg212
(dp2354
g214
Ven
p2355
sg216
Vrecent
p2356
sssg218
g2354
sg219
Nsg220
Nsg31
g2330
sg221
Nsg222
Nsg98
g2352
sg223
I00
sg224
Nsg225
I0
sg226
Nsbag0
(g4
g5
Ntp2357
Rp2358
(dp2359
g9
I00
sg10
Nsg11
I00
sg12
VAfter 3,500% Gains In 4 Months We Have A New Stock Pick Coming Soon! See It Early: https://t.co/26VbgEBy77 $ENZY $POPE $MONT
p2360
sg14
Vhttp://twitter.com
p2361
sg16
I00
sg17
I00
sg18
Nsg19
g0
(g20
g5
Ntp2362
Rp2363
(dp2364
g24
I00
sg25
I00
sg26
I01
sg27
VDDEEF6
p2365
sg29
L3315798743L
sg30
I00
sg31
(dp2366
g33
(dp2367
g35
(lp2368
sssg37
Vhttps://pbs.twimg.com/profile_images/608367794644787200/7Js9oXKP_normal.jpg
p2369
sg39
(dp2370
g41
I00
sg42
I00
sg43
I01
sg44
I00
sg45
L3315798743L
sg46
Vhttps://abs.twimg.com/images/themes/theme1/bg.png
p2371
sg48
I00
sg49
V333333
p2372
sg51
g2369
sg52
g2365
sg53
g2366
sg54
I12606
sg55
VC0DEED
p2373
sg57
V3315798743
p2374
sg59
VC0DEED
p2375
sg61
I55
sg62
I00
sg63
Nsg64
I82879
sg33
g65
sg66
I0
sg67
g65
sg68
V0084B4
p2376
sg70
Vhttp://pbs.twimg.com/profile_images/608367794644787200/7Js9oXKP_normal.jpg
p2377
sg72
I00
sg73
I00
sg74
Vhttp://abs.twimg.com/images/themes/theme1/bg.png
p2378
sg76
VStockfiendz
p2379
sg78
Ven
p2380
sg80
I00
sg81
I0
sg82
VMichael Cook
p2381
sg84
I00
sg85
Nsg86
VTue Jun 09 20:16:31 +0000 2015
p2382
sg88
I00
sg89
Nsg91
I00
sg92
I01
sg93
I00
ssg94
I00
sg95
g2372
sg96
I12606
sg97
g2373
sg98
g2374
sg99
I00
sg100
I55
sg101
I00
sg102
Nsg103
I82879
sg104
g65
sg105
I0
sg106
g65
sg107
g2376
sg108
g2377
sg109
I00
sg110
I00
sg111
g2375
sg112
g2378
sg113
g2379
sg114
g2380
sg115
I00
sg116
I00
sg117
I0
sg118
g2381
sg119
Nsg120
g121
(S'\x07\xdf\x06\t\x14\x10\x1f\x00\x00\x00'
p2383
tp2384
Rp2385
sg125
g2371
sg126
Nsg127
I00
sg128
I01
sg129
I00
sbsg130
Nsg29
L663007725996130304L
sg131
I0
sg132
VTwitter Web Client
p2386
sg114
Ven
p2387
sg135
g2363
sg120
g121
(S'\x07\xdf\x0b\x07\x0e:6\x00\x00\x00'
p2388
tp2389
Rp2390
sg39
(dp2391
g140
Nsg141
I00
sg142
g2360
sg143
I00
sg144
Nsg45
L663007725996130304L
sg145
I0
sg146
V<a href="http://twitter.com" rel="nofollow">Twitter Web Client</a>
p2392
sg148
I00
sg149
Nsg53
(dp2393
g151
(lp2394
(dp2395
g154
(lp2396
I107
aI112
asg142
VENZY
p2397
sa(dp2398
g154
(lp2399
I113
aI118
asg142
VPOPE
p2400
sa(dp2401
g154
(lp2402
I119
aI124
asg142
VMONT
p2403
sasg157
(lp2404
sg159
(lp2405
sg35
(lp2406
(dp2407
g85
Vhttps://t.co/26VbgEBy77
p2408
sg154
(lp2409
I83
aI106
asg165
Vhttp://goo.gl/JYKKVk
p2410
sg167
Vgoo.gl/JYKKVk
p2411
sassg200
Nsg201
Nsg202
I0
sg57
V663007725996130304
p2412
sg204
I00
sg205
g2370
sg206
Nsg207
Nsg208
I00
sg78
g2387
sg86
VSat Nov 07 14:58:54 +0000 2015
p2413
sg210
Nsg211
Nsg212
(dp2414
g214
Ven
p2415
sg216
Vrecent
p2416
sssg218
g2414
sg219
Nsg220
Nsg31
g2393
sg221
Nsg222
Nsg98
g2412
sg223
I00
sg224
Nsg225
I0
sg226
Nsbag0
(g4
g5
Ntp2417
Rp2418
(dp2419
g9
I00
sg10
Nsg11
I00
sg12
V$POPE Institutional ownership up 1.08% Q/Q, with 7,712 net purchase https://t.co/aCt5y7y49J https://t.co/Zc5kk1YF8q
p2420
sg14
Vhttp://lovelystocks.com
p2421
sg16
I00
sg17
I00
sg18
Nsg19
g0
(g20
g5
Ntp2422
Rp2423
(dp2424
g24
I00
sg25
I00
sg26
I01
sg27
VF6FFD1
p2425
sg29
L2343862982L
sg30
I00
sg31
(dp2426
g33
(dp2427
g35
(lp2428
sssg37
Vhttps://pbs.twimg.com/profile_images/475757304042618880/GXfaDX___normal.jpeg
p2429
sg39
(dp2430
g41
I00
sg42
I00
sg43
I01
sg44
I00
sg45
L2343862982L
sg46
Vhttps://abs.twimg.com/images/themes/theme19/bg.gif
p2431
sg48
I00
sg49
V333333
p2432
sg51
g2429
sg52
g2425
sg53
g2426
sg54
I320
sg55
VFFF8AD
p2433
sg57
V2343862982
p2434
sg59
VFFF04D
p2435
sg61
I18
sg62
I00
sg63
I-14400
sg64
I61148
sg33
g65
sg66
I0
sg67
g65
sg68
V0099CC
p2436
sg70
Vhttp://pbs.twimg.com/profile_images/475757304042618880/GXfaDX___normal.jpeg
p2437
sg72
I00
sg73
I00
sg74
Vhttp://abs.twimg.com/images/themes/theme19/bg.gif
p2438
sg76
VWatchTheFunds
p2439
sg78
Ven
p2440
sg80
I00
sg81
I0
sg82
VWatchTheFunds
p2441
sg84
I00
sg85
Nsg86
VFri Feb 14 17:09:44 +0000 2014
p2442
sg88
I00
sg89
VAtlantic Time (Canada)
p2443
sg91
I00
sg92
I00
sg93
I00
ssg94
I00
sg95
g2432
sg96
I320
sg97
g2433
sg98
g2434
sg99
I00
sg100
I18
sg101
I00
sg102
I-14400
sg103
I61148
sg104
g65
sg105
I0
sg106
g65
sg107
g2436
sg108
g2437
sg109
I00
sg110
I00
sg111
g2435
sg112
g2438
sg113
g2439
sg114
g2440
sg115
I00
sg116
I00
sg117
I0
sg118
g2441
sg119
Nsg120
g121
(S'\x07\xde\x02\x0e\x11\t,\x00\x00\x00'
p2444
tp2445
Rp2446
sg125
g2431
sg126
g2443
sg127
I00
sg128
I00
sg129
I00
sbsg130
Nsg29
L662849464529481728L
sg131
I0
sg132
VWatchTheFunds
p2447
sg114
Ven
p2448
sg135
g2423
sg120
g121
(S'\x07\xdf\x0b\x07\x04\x1e\x02\x00\x00\x00'
p2449
tp2450
Rp2451
sg39
(dp2452
g140
Nsg141
I00
sg142
g2420
sg143
I00
sg144
Nsg45
L662849464529481728L
sg145
I0
sg146
V<a href="http://lovelystocks.com" rel="nofollow">WatchTheFunds</a>
p2453
sg148
I00
sg149
Nsg53
(dp2454
g151
(lp2455
(dp2456
g154
(lp2457
I0
aI5
asg142
VPOPE
p2458
sasg157
(lp2459
sg159
(lp2460
sg35
(lp2461
(dp2462
g85
Vhttps://t.co/aCt5y7y49J
p2463
sg154
(lp2464
I68
aI91
asg165
Vhttp://LovelyStocks.com/POPE
p2465
sg167
VLovelyStocks.com/POPE
p2466
sasg169
(lp2467
(dp2468
g165
Vhttp://twitter.com/WatchTheFunds/status/662849464529481728/photo/1
p2469
sg167
Vpic.twitter.com/Zc5kk1YF8q
p2470
sg85
Vhttps://t.co/Zc5kk1YF8q
p2471
sg175
Vhttps://pbs.twimg.com/media/CTLqE3PXIAQXc1z.jpg
p2472
sg57
V662849464445640708
p2473
sg178
(dp2474
g180
(dp2475
g182
I4
sg183
Vfit
p2476
sg185
I4
ssg186
(dp2477
g182
I4
sg183
Vfit
p2478
sg185
I4
ssg189
(dp2479
g182
I4
sg183
Vfit
p2480
sg185
I4
ssg192
(dp2481
g182
I4
sg183
Vcrop
p2482
sg185
I4
sssg154
(lp2483
I92
aI115
asg196
Vphoto
p2484
sg45
L662849464445640708L
sg198
Vhttp://pbs.twimg.com/media/CTLqE3PXIAQXc1z.jpg
p2485
sassg200
Nsg201
Nsg202
I0
sg57
V662849464529481728
p2486
sg204
I00
sg205
g2430
sg206
Nsg207
Nsg208
I00
sg78
g2448
sg86
VSat Nov 07 04:30:02 +0000 2015
p2487
sg210
Nsg211
Nsg212
(dp2488
g214
Ven
p2489
sg216
Vrecent
p2490
sssg218
g2488
sg219
Nsg220
Nsg31
g2454
sg221
Nsg222
Nsg98
g2486
sg223
I00
sg224
Nsg225
I0
sg226
Nsbag0
(g4
g5
Ntp2491
Rp2492
(dp2493
g9
I00
sg10
Nsg11
I00
sg12
VOur Platinum Members Have Been Seeing MASSIVE Gains On Our Penny Stock Picks! Subscribe Today: https://t.co/ro7o3SYbd1 $ENZY $POPE $MONT
p2494
sg14
Vhttp://twitter.com
p2495
sg16
I00
sg17
I00
sg18
Nsg19
g0
(g20
g5
Ntp2496
Rp2497
(dp2498
g24
I00
sg25
I00
sg26
I01
sg27
VDDEEF6
p2499
sg29
L2447901655L
sg30
I00
sg31
(dp2500
g33
(dp2501
g35
(lp2502
(dp2503
g85
Vhttp://t.co/QYxLf9LJ7f
p2504
sg154
(lp2505
I94
aI116
asg165
Vhttp://www.pennystockdream.com/disclaimer
p2506
sg167
Vpennystockdream.com/disclaimer
p2507
sasssg37
Vhttps://pbs.twimg.com/profile_images/456519281744703490/M4G5Ld8j_normal.jpeg
p2508
sg39
(dp2509
g41
I00
sg42
I00
sg43
I01
sg44
I00
sg45
L2447901655L
sg46
Vhttps://abs.twimg.com/images/themes/theme1/bg.png
p2510
sg48
I00
sg49
V333333
p2511
sg51
g2508
sg52
g2499
sg53
g2500
sg54
I13505
sg55
VC0DEED
p2512
sg57
V2447901655
p2513
sg59
VC0DEED
p2514
sg61
I79
sg62
I00
sg63
Nsg64
I234690
sg33
VATTENTION: Read full disclaimer before looking at any of our tweets! Link To Full Disclaimer: http://t.co/QYxLf9LJ7f
p2515
sg66
I1
sg67
g65
sg68
V0084B4
p2516
sg70
Vhttp://pbs.twimg.com/profile_images/456519281744703490/M4G5Ld8j_normal.jpeg
p2517
sg72
I00
sg73
I00
sg74
Vhttp://abs.twimg.com/images/themes/theme1/bg.png
p2518
sg76
VStockRocketzz
p2519
sg78
Ven
p2520
sg80
I00
sg81
I0
sg82
VStock Rocket
p2521
sg84
I00
sg85
Nsg86
VWed Apr 16 19:44:35 +0000 2014
p2522
sg88
I00
sg89
Nsg91
I00
sg92
I01
sg93
I00
ssg94
I00
sg95
g2511
sg96
I13505
sg97
g2512
sg98
g2513
sg99
I00
sg100
I79
sg101
I00
sg102
Nsg103
I234690
sg104
g2515
sg105
I1
sg106
g65
sg107
g2516
sg108
g2517
sg109
I00
sg110
I00
sg111
g2514
sg112
g2518
sg113
g2519
sg114
g2520
sg115
I00
sg116
I00
sg117
I0
sg118
g2521
sg119
Nsg120
g121
(S'\x07\xde\x04\x10\x13,#\x00\x00\x00'
p2523
tp2524
Rp2525
sg125
g2510
sg126
Nsg127
I00
sg128
I01
sg129
I00
sbsg130
Nsg29
L662662188675502081L
sg131
I0
sg132
VTwitter Web Client
p2526
sg114
Ven
p2527
sg135
g2497
sg120
g121
(S'\x07\xdf\x0b\x06\x10\x054\x00\x00\x00'
p2528
tp2529
Rp2530
sg39
(dp2531
g140
Nsg141
I00
sg142
g2494
sg143
I00
sg144
Nsg45
L662662188675502081L
sg145
I0
sg146
V<a href="http://twitter.com" rel="nofollow">Twitter Web Client</a>
p2532
sg148
I00
sg149
Nsg53
(dp2533
g151
(lp2534
(dp2535
g154
(lp2536
I119
aI124
asg142
VENZY
p2537
sa(dp2538
g154
(lp2539
I125
aI130
asg142
VPOPE
p2540
sa(dp2541
g154
(lp2542
I131
aI136
asg142
VMONT
p2543
sasg157
(lp2544
sg159
(lp2545
sg35
(lp2546
(dp2547
g85
Vhttps://t.co/ro7o3SYbd1
p2548
sg154
(lp2549
I95
aI118
asg165
Vhttp://tinyurl.com/o3lgmg3
p2550
sg167
Vtinyurl.com/o3lgmg3
p2551
sassg200
Nsg201
Nsg202
I0
sg57
V662662188675502081
p2552
sg204
I00
sg205
g2509
sg206
Nsg207
Nsg208
I00
sg78
g2527
sg86
VFri Nov 06 16:05:52 +0000 2015
p2553
sg210
Nsg211
Nsg212
(dp2554
g214
Ven
p2555
sg216
Vrecent
p2556
sssg218
g2554
sg219
Nsg220
Nsg31
g2533
sg221
Nsg222
Nsg98
g2552
sg223
I00
sg224
Nsg225
I0
sg226
Nsbag0
(g4
g5
Ntp2557
Rp2558
(dp2559
g9
I00
sg10
Nsg11
I00
sg12
VOur Pick On $HCTI More Than Tripled For Our Members, In 3 Weeks! Subscribe For Our New Picks: https://t.co/6sqzAAvjDY $ENZY $POPE $MONT
p2560
sg14
Vhttp://twitter.com
p2561
sg16
I00
sg17
I00
sg18
Nsg19
g0
(g20
g5
Ntp2562
Rp2563
(dp2564
g24
I00
sg25
I00
sg26
I01
sg27
VDDEEF6
p2565
sg29
L2447928920L
sg30
I00
sg31
(dp2566
g33
(dp2567
g35
(lp2568
(dp2569
g85
Vhttp://t.co/QYxLf9LJ7f
p2570
sg154
(lp2571
I94
aI116
asg165
Vhttp://www.pennystockdream.com/disclaimer
p2572
sg167
Vpennystockdream.com/disclaimer
p2573
sasssg37
Vhttps://pbs.twimg.com/profile_images/456523892308201472/sBGAsJTn_normal.png
p2574
sg39
(dp2575
g41
I00
sg42
I00
sg43
I01
sg44
I00
sg45
L2447928920L
sg46
Vhttps://abs.twimg.com/images/themes/theme1/bg.png
p2576
sg48
I00
sg49
V333333
p2577
sg51
g2574
sg52
g2565
sg53
g2566
sg54
I4321
sg55
VC0DEED
p2578
sg57
V2447928920
p2579
sg59
VC0DEED
p2580
sg61
I60
sg62
I00
sg63
Nsg64
I179299
sg33
VATTENTION: Read full disclaimer before looking at any of our tweets! Link To Full Disclaimer: http://t.co/QYxLf9LJ7f
p2581
sg66
I0
sg67
g65
sg68
V0084B4
p2582
sg70
Vhttp://pbs.twimg.com/profile_images/456523892308201472/sBGAsJTn_normal.png
p2583
sg72
I00
sg73
I00
sg74
Vhttp://abs.twimg.com/images/themes/theme1/bg.png
p2584
sg76
VStockenheimer1
p2585
sg78
Ven
p2586
sg80
I00
sg81
I0
sg82
VStockenheimerSchmidt
p2587
sg84
I00
sg85
Nsg86
VWed Apr 16 20:03:52 +0000 2014
p2588
sg88
I00
sg89
Nsg91
I00
sg92
I01
sg93
I00
ssg94
I00
sg95
g2577
sg96
I4321
sg97
g2578
sg98
g2579
sg99
I00
sg100
I60
sg101
I00
sg102
Nsg103
I179299
sg104
g2581
sg105
I0
sg106
g65
sg107
g2582
sg108
g2583
sg109
I00
sg110
I00
sg111
g2580
sg112
g2584
sg113
g2585
sg114
g2586
sg115
I00
sg116
I00
sg117
I0
sg118
g2587
sg119
Nsg120
g121
(S'\x07\xde\x04\x10\x14\x034\x00\x00\x00'
p2589
tp2590
Rp2591
sg125
g2576
sg126
Nsg127
I00
sg128
I01
sg129
I00
sbsg130
Nsg29
L662661926485381120L
sg131
I0
sg132
VTwitter Web Client
p2592
sg114
Ven
p2593
sg135
g2563
sg120
g121
(S'\x07\xdf\x0b\x06\x10\x041\x00\x00\x00'
p2594
tp2595
Rp2596
sg39
(dp2597
g140
Nsg141
I00
sg142
g2560
sg143
I00
sg144
Nsg45
L662661926485381120L
sg145
I0
sg146
V<a href="http://twitter.com" rel="nofollow">Twitter Web Client</a>
p2598
sg148
I00
sg149
Nsg53
(dp2599
g151
(lp2600
(dp2601
g154
(lp2602
I12
aI17
asg142
VHCTI
p2603
sa(dp2604
g154
(lp2605
I118
aI123
asg142
VENZY
p2606
sa(dp2607
g154
(lp2608
I124
aI129
asg142
VPOPE
p2609
sa(dp2610
g154
(lp2611
I130
aI135
asg142
VMONT
p2612
sasg157
(lp2613
sg159
(lp2614
sg35
(lp2615
(dp2616
g85
Vhttps://t.co/6sqzAAvjDY
p2617
sg154
(lp2618
I94
aI117
asg165
Vhttp://ow.ly/SP8LD
p2619
sg167
Vow.ly/SP8LD
p2620
sassg200
Nsg201
Nsg202
I0
sg57
V662661926485381120
p2621
sg204
I00
sg205
g2575
sg206
Nsg207
Nsg208
I00
sg78
g2593
sg86
VFri Nov 06 16:04:49 +0000 2015
p2622
sg210
Nsg211
Nsg212
(dp2623
g214
Ven
p2624
sg216
Vrecent
p2625
sssg218
g2623
sg219
Nsg220
Nsg31
g2599
sg221
Nsg222
Nsg98
g2621
sg223
I00
sg224
Nsg225
I0
sg226
Nsbag0
(g4
g5
Ntp2626
Rp2627
(dp2628
g9
I00
sg10
Nsg11
I00
sg12
VOur Stock Alerts Have Been Seeing Record Gains! Our New Pick Will Be MASSIVE: https://t.co/DXRm9DTWiK $ENZY $POPE $MONT
p2629
sg14
Vhttp://twitter.com
p2630
sg16
I00
sg17
I00
sg18
Nsg19
g0
(g20
g5
Ntp2631
Rp2632
(dp2633
g24
I00
sg25
I00
sg26
I01
sg27
VDDEEF6
p2634
sg29
L3091884801L
sg30
I00
sg31
(dp2635
g33
(dp2636
g35
(lp2637
(dp2638
g85
Vhttp://t.co/d1PvG67hF4
p2639
sg154
(lp2640
I79
aI101
asg165
Vhttp://tinyurl.com/mcsbvzz
p2641
sg167
Vtinyurl.com/mcsbvzz
p2642
sasssg37
Vhttps://pbs.twimg.com/profile_images/576989971883499521/yv0Bp7te_normal.jpeg
p2643
sg39
(dp2644
g41
I00
sg42
I00
sg43
I01
sg44
I00
sg45
L3091884801L
sg46
Vhttps://abs.twimg.com/images/themes/theme1/bg.png
p2645
sg48
I00
sg49
V333333
p2646
sg51
g2643
sg52
g2634
sg53
g2635
sg54
I15267
sg55
VC0DEED
p2647
sg57
V3091884801
p2648
sg59
VC0DEED
p2649
sg61
I65
sg62
I00
sg63
Nsg64
I170509
sg33
VRead our full disclaimer before looking at any of our tweets! Full Disclaimer: http://t.co/d1PvG67hF4
p2650
sg66
I1
sg67
g65
sg68
V0084B4
p2651
sg70
Vhttp://pbs.twimg.com/profile_images/576989971883499521/yv0Bp7te_normal.jpeg
p2652
sg72
I00
sg73
I00
sg74
Vhttp://abs.twimg.com/images/themes/theme1/bg.png
p2653
sg76
VStockDawgzz
p2654
sg78
Ven
p2655
sg80
I00
sg81
I0
sg82
VStock Dawgzz
p2656
sg84
I00
sg85
Nsg86
VSun Mar 15 06:13:17 +0000 2015
p2657
sg88
I00
sg89
Nsg91
I00
sg92
I01
sg93
I00
ssg94
I00
sg95
g2646
sg96
I15267
sg97
g2647
sg98
g2648
sg99
I00
sg100
I65
sg101
I00
sg102
Nsg103
I170509
sg104
g2650
sg105
I1
sg106
g65
sg107
g2651
sg108
g2652
sg109
I00
sg110
I00
sg111
g2649
sg112
g2653
sg113
g2654
sg114
g2655
sg115
I00
sg116
I00
sg117
I0
sg118
g2656
sg119
Nsg120
g121
(S'\x07\xdf\x03\x0f\x06\r\x11\x00\x00\x00'
p2658
tp2659
Rp2660
sg125
g2645
sg126
Nsg127
I00
sg128
I01
sg129
I00
sbsg130
Nsg29
L662661134856638465L
sg131
I0
sg132
VTwitter Web Client
p2661
sg114
Ven
p2662
sg135
g2632
sg120
g121
(S'\x07\xdf\x0b\x06\x10\x01(\x00\x00\x00'
p2663
tp2664
Rp2665
sg39
(dp2666
g140
Nsg141
I00
sg142
g2629
sg143
I00
sg144
Nsg45
L662661134856638465L
sg145
I0
sg146
V<a href="http://twitter.com" rel="nofollow">Twitter Web Client</a>
p2667
sg148
I00
sg149
Nsg53
(dp2668
g151
(lp2669
(dp2670
g154
(lp2671
I102
aI107
asg142
VENZY
p2672
sa(dp2673
g154
(lp2674
I108
aI113
asg142
VPOPE
p2675
sa(dp2676
g154
(lp2677
I114
aI119
asg142
VMONT
p2678
sasg157
(lp2679
sg159
(lp2680
sg35
(lp2681
(dp2682
g85
Vhttps://t.co/DXRm9DTWiK
p2683
sg154
(lp2684
I78
aI101
asg165
Vhttp://goo.gl/NGTqcj
p2685
sg167
Vgoo.gl/NGTqcj
p2686
sassg200
Nsg201
Nsg202
I0
sg57
V662661134856638465
p2687
sg204
I00
sg205
g2644
sg206
Nsg207
Nsg208
I00
sg78
g2662
sg86
VFri Nov 06 16:01:40 +0000 2015
p2688
sg210
Nsg211
Nsg212
(dp2689
g214
Ven
p2690
sg216
Vrecent
p2691
sssg218
g2689
sg219
Nsg220
Nsg31
g2668
sg221
Nsg222
Nsg98
g2687
sg223
I00
sg224
Nsg225
I0
sg226
Nsbag0
(g4
g5
Ntp2692
Rp2693
(dp2694
g9
I00
sg10
Nsg11
I00
sg12
VOur Stock Alerts Gained Over 1,900% In 2 And A Half Months! See Our Special New Pick: https://t.co/rdhi4T4cqG $ENZY $POPE $MONT
p2695
sg14
Vhttp://twitter.com
p2696
sg16
I00
sg17
I00
sg18
Nsg19
g0
(g20
g5
Ntp2697
Rp2698
(dp2699
g24
I00
sg25
I00
sg26
I01
sg27
VDDEEF6
p2700
sg29
L2447967798L
sg30
I00
sg31
(dp2701
g33
(dp2702
g35
(lp2703
(dp2704
g85
Vhttp://t.co/d1PvG67PuC
p2705
sg154
(lp2706
I80
aI102
asg165
Vhttp://tinyurl.com/mcsbvzz
p2707
sg167
Vtinyurl.com/mcsbvzz
p2708
sasssg37
Vhttps://pbs.twimg.com/profile_images/456529846420525056/wLucrlXI_normal.jpeg
p2709
sg39
(dp2710
g41
I00
sg42
I00
sg43
I01
sg44
I00
sg45
L2447967798L
sg46
Vhttps://abs.twimg.com/images/themes/theme1/bg.png
p2711
sg48
I00
sg49
V333333
p2712
sg51
g2709
sg52
g2700
sg53
g2701
sg54
I14103
sg55
VC0DEED
p2713
sg57
V2447967798
p2714
sg59
VC0DEED
p2715
sg61
I101
sg62
I00
sg63
Nsg64
I443646
sg33
VRead our full disclaimer before looking at any of our tweets! Full Disclaimer:  http://t.co/d1PvG67PuC
p2716
sg66
I8
sg67
g65
sg68
V0084B4
p2717
sg70
Vhttp://pbs.twimg.com/profile_images/456529846420525056/wLucrlXI_normal.jpeg
p2718
sg72
I00
sg73
I00
sg74
Vhttp://abs.twimg.com/images/themes/theme1/bg.png
p2719
sg76
VStockaholics
p2720
sg78
Ven
p2721
sg80
I00
sg81
I22
sg82
VStockaholics
p2722
sg84
I00
sg85
Nsg86
VWed Apr 16 20:27:43 +0000 2014
p2723
sg88
I00
sg89
Nsg91
I00
sg92
I01
sg93
I00
ssg94
I00
sg95
g2712
sg96
I14103
sg97
g2713
sg98
g2714
sg99
I00
sg100
I101
sg101
I00
sg102
Nsg103
I443646
sg104
g2716
sg105
I8
sg106
g65
sg107
g2717
sg108
g2718
sg109
I00
sg110
I00
sg111
g2715
sg112
g2719
sg113
g2720
sg114
g2721
sg115
I00
sg116
I00
sg117
I22
sg118
g2722
sg119
Nsg120
g121
(S'\x07\xde\x04\x10\x14\x1b+\x00\x00\x00'
p2724
tp2725
Rp2726
sg125
g2711
sg126
Nsg127
I00
sg128
I01
sg129
I00
sbsg130
Nsg29
L662658264191115264L
sg131
I0
sg132
VTwitter Web Client
p2727
sg114
Ven
p2728
sg135
g2698
sg120
g121
(S'\x07\xdf\x0b\x06\x0f2\x10\x00\x00\x00'
p2729
tp2730
Rp2731
sg39
(dp2732
g140
Nsg141
I00
sg142
g2695
sg143
I00
sg144
Nsg45
L662658264191115264L
sg145
I0
sg146
V<a href="http://twitter.com" rel="nofollow">Twitter Web Client</a>
p2733
sg148
I00
sg149
Nsg53
(dp2734
g151
(lp2735
(dp2736
g154
(lp2737
I110
aI115
asg142
VENZY
p2738
sa(dp2739
g154
(lp2740
I116
aI121
asg142
VPOPE
p2741
sa(dp2742
g154
(lp2743
I122
aI127
asg142
VMONT
p2744
sasg157
(lp2745
sg159
(lp2746
sg35
(lp2747
(dp2748
g85
Vhttps://t.co/rdhi4T4cqG
p2749
sg154
(lp2750
I86
aI109
asg165
Vhttp://bit.ly/1P4EFQ5
p2751
sg167
Vbit.ly/1P4EFQ5
p2752
sassg200
Nsg201
Nsg202
I0
sg57
V662658264191115264
p2753
sg204
I00
sg205
g2710
sg206
Nsg207
Nsg208
I00
sg78
g2728
sg86
VFri Nov 06 15:50:16 +0000 2015
p2754
sg210
Nsg211
Nsg212
(dp2755
g214
Ven
p2756
sg216
Vrecent
p2757
sssg218
g2755
sg219
Nsg220
Nsg31
g2734
sg221
Nsg222
Nsg98
g2753
sg223
I00
sg224
Nsg225
I0
sg226
Nsbag0
(g4
g5
Ntp2758
Rp2759
(dp2760
g9
I00
sg10
Nsg11
I00
sg12
V$GEQU Has Increased Almost 20 TIMES In Value, For Our Subscribers! Huge News: https://t.co/viouXok21i $ENZY $POPE $MONT
p2761
sg14
Vhttp://twitter.com
p2762
sg16
I00
sg17
I00
sg18
Nsg19
g0
(g20
g5
Ntp2763
Rp2764
(dp2765
g24
I00
sg25
I00
sg26
I01
sg27
VDDEEF6
p2766
sg29
L3091880403L
sg30
I00
sg31
(dp2767
g33
(dp2768
g35
(lp2769
(dp2770
g85
Vhttp://t.co/d1PvG67hF4
p2771
sg154
(lp2772
I79
aI101
asg165
Vhttp://tinyurl.com/mcsbvzz
p2773
sg167
Vtinyurl.com/mcsbvzz
p2774
sasssg37
Vhttps://pbs.twimg.com/profile_images/576985932299026432/vGRv_VM-_normal.png
p2775
sg39
(dp2776
g41
I00
sg42
I00
sg43
I01
sg44
I00
sg45
L3091880403L
sg46
Vhttps://abs.twimg.com/images/themes/theme1/bg.png
p2777
sg48
I00
sg49
V333333
p2778
sg51
g2775
sg52
g2766
sg53
g2767
sg54
I15272
sg55
VC0DEED
p2779
sg57
V3091880403
p2780
sg59
VC0DEED
p2781
sg61
I71
sg62
I00
sg63
Nsg64
I173961
sg33
VRead our full disclaimer before looking at any of our tweets! Full Disclaimer: http://t.co/d1PvG67hF4
p2782
sg66
I0
sg67
g65
sg68
V0084B4
p2783
sg70
Vhttp://pbs.twimg.com/profile_images/576985932299026432/vGRv_VM-_normal.png
p2784
sg72
I00
sg73
I00
sg74
Vhttp://abs.twimg.com/images/themes/theme1/bg.png
p2785
sg76
VPennyStockingt
p2786
sg78
Ven
p2787
sg80
I00
sg81
I1
sg82
VPenny Stockington
p2788
sg84
I00
sg85
Nsg86
VSun Mar 15 05:57:31 +0000 2015
p2789
sg88
I00
sg89
Nsg91
I00
sg92
I01
sg93
I00
ssg94
I00
sg95
g2778
sg96
I15272
sg97
g2779
sg98
g2780
sg99
I00
sg100
I71
sg101
I00
sg102
Nsg103
I173961
sg104
g2782
sg105
I0
sg106
g65
sg107
g2783
sg108
g2784
sg109
I00
sg110
I00
sg111
g2781
sg112
g2785
sg113
g2786
sg114
g2787
sg115
I00
sg116
I00
sg117
I1
sg118
g2788
sg119
Nsg120
g121
(S'\x07\xdf\x03\x0f\x059\x1f\x00\x00\x00'
p2790
tp2791
Rp2792
sg125
g2777
sg126
Nsg127
I00
sg128
I01
sg129
I00
sbsg130
Nsg29
L662655307961737217L
sg131
I0
sg132
VTwitter Web Client
p2793
sg114
Ven
p2794
sg135
g2764
sg120
g121
(S'\x07\xdf\x0b\x06\x0f&\x1f\x00\x00\x00'
p2795
tp2796
Rp2797
sg39
(dp2798
g140
Nsg141
I00
sg142
g2761
sg143
I00
sg144
Nsg45
L662655307961737217L
sg145
I0
sg146
V<a href="http://twitter.com" rel="nofollow">Twitter Web Client</a>
p2799
sg148
I00
sg149
Nsg53
(dp2800
g151
(lp2801
(dp2802
g154
(lp2803
I0
aI5
asg142
VGEQU
p2804
sa(dp2805
g154
(lp2806
I102
aI107
asg142
VENZY
p2807
sa(dp2808
g154
(lp2809
I108
aI113
asg142
VPOPE
p2810
sa(dp2811
g154
(lp2812
I114
aI119
asg142
VMONT
p2813
sasg157
(lp2814
sg159
(lp2815
sg35
(lp2816
(dp2817
g85
Vhttps://t.co/viouXok21i
p2818
sg154
(lp2819
I78
aI101
asg165
Vhttp://tr.im/abvm6
p2820
sg167
Vtr.im/abvm6
p2821
sassg200
Nsg201
Nsg202
I0
sg57
V662655307961737217
p2822
sg204
I00
sg205
g2776
sg206
Nsg207
Nsg208
I00
sg78
g2794
sg86
VFri Nov 06 15:38:31 +0000 2015
p2823
sg210
Nsg211
Nsg212
(dp2824
g214
Ven
p2825
sg216
Vrecent
p2826
sssg218
g2824
sg219
Nsg220
Nsg31
g2800
sg221
Nsg222
Nsg98
g2822
sg223
I00
sg224
Nsg225
I0
sg226
Nsbag0
(g4
g5
Ntp2827
Rp2828
(dp2829
g9
I00
sg10
Nsg11
I00
sg12
VPremium Alerts Ranked #1 For Gains 2834% Last Week https://t.co/n4FmW1UTLN .. $ENZY $POPE $MONT
p2830
sg14
Vhttp://socialadcenter.com
p2831
sg16
I00
sg17
I00
sg18
Nsg19
g0
(g20
g5
Ntp2832
Rp2833
(dp2834
g24
I00
sg25
I00
sg26
I01
sg27
VDDEEF6
p2835
sg29
L3260993737L
sg30
I00
sg31
(dp2836
g85
(dp2837
g35
(lp2838
(dp2839
g85
Vhttp://t.co/8dJZYrRhox
p2840
sg154
(lp2841
I0
aI22
asg165
Vhttp://pennystocksecret.com
p2842
sg167
Vpennystocksecret.com
p2843
sassg33
(dp2844
g35
(lp2845
sssg37
Vhttps://pbs.twimg.com/profile_images/617146377022279680/aAtOJ8fa_normal.jpg
p2846
sg39
(dp2847
g41
I00
sg42
I00
sg43
I01
sg44
I00
sg45
L3260993737L
sg46
Vhttps://abs.twimg.com/images/themes/theme1/bg.png
p2848
sg48
I00
sg49
V333333
p2849
sg51
g2846
sg52
g2835
sg53
g2836
sg54
I6023
sg55
VC0DEED
p2850
sg57
V3260993737
p2851
sg59
VC0DEED
p2852
sg61
I14
sg62
I00
sg63
I-28800
sg64
I26683
sg33
VGet The Best Penny Stocks Alerts For Free! Sign Up For 100% Free Email Alerts!
p2853
sg66
I10
sg67
VUnited States
p2854
sg68
V0084B4
p2855
sg70
Vhttp://pbs.twimg.com/profile_images/617146377022279680/aAtOJ8fa_normal.jpg
p2856
sg72
I00
sg73
I00
sg1170
Vhttps://pbs.twimg.com/profile_banners/3260993737/1435974310
p2857
sg74
Vhttp://abs.twimg.com/images/themes/theme1/bg.png
p2858
sg76
Vstocksguru99
p2859
sg78
Ven
p2860
sg80
I00
sg81
I0
sg82
VStocksguru99
p2861
sg84
I00
sg85
Vhttp://t.co/8dJZYrRhox
p2862
sg86
VTue Jun 30 07:36:09 +0000 2015
p2863
sg88
I00
sg89
VPacific Time (US & Canada)
p2864
sg91
I00
sg92
I01
sg93
I00
ssg94
I00
sg95
g2849
sg96
I6023
sg97
g2850
sg98
g2851
sg99
I00
sg100
I14
sg101
I00
sg102
I-28800
sg103
I26683
sg104
g2853
sg105
I10
sg106
g2854
sg107
g2855
sg108
g2856
sg109
I00
sg110
I00
sg111
g2852
sg1179
g2857
sg112
g2858
sg113
g2859
sg114
g2860
sg115
I00
sg116
I00
sg117
I0
sg118
g2861
sg119
g2862
sg120
g121
(S'\x07\xdf\x06\x1e\x07$\t\x00\x00\x00'
p2865
tp2866
Rp2867
sg125
g2848
sg126
g2864
sg127
I00
sg128
I01
sg129
I00
sbsg130
Nsg29
L662613300815855616L
sg131
I0
sg132
VSocial Ad Center
p2868
sg114
Ven
p2869
sg135
g2833
sg120
g121
(S'\x07\xdf\x0b\x06\x0c3$\x00\x00\x00'
p2870
tp2871
Rp2872
sg39
(dp2873
g140
Nsg141
I00
sg142
g2830
sg143
I00
sg144
Nsg45
L662613300815855616L
sg145
I0
sg146
V<a href="http://socialadcenter.com" rel="nofollow">Social Ad Center</a>
p2874
sg148
I00
sg149
Nsg53
(dp2875
g151
(lp2876
(dp2877
g154
(lp2878
I78
aI83
asg142
VENZY
p2879
sa(dp2880
g154
(lp2881
I84
aI89
asg142
VPOPE
p2882
sa(dp2883
g154
(lp2884
I90
aI95
asg142
VMONT
p2885
sasg157
(lp2886
sg159
(lp2887
sg35
(lp2888
(dp2889
g85
Vhttps://t.co/n4FmW1UTLN
p2890
sg154
(lp2891
I51
aI74
asg165
Vhttp://PennyStockSecret.com
p2892
sg167
VPennyStockSecret.com
p2893
sassg200
Nsg201
Nsg202
I0
sg57
V662613300815855616
p2894
sg204
I00
sg205
g2847
sg206
Nsg207
Nsg208
I00
sg78
g2869
sg86
VFri Nov 06 12:51:36 +0000 2015
p2895
sg210
Nsg211
Nsg212
(dp2896
g214
Ven
p2897
sg216
Vrecent
p2898
sssg218
g2896
sg219
Nsg220
Nsg31
g2875
sg221
Nsg222
Nsg98
g2894
sg223
I00
sg224
Nsg225
I0
sg226
Nsbag0
(g4
g5
Ntp2899
Rp2900
(dp2901
g9
I00
sg10
Nsg11
I00
sg12
VRanks #1 with over 80% in alert gains today. Click here https://t.co/9Vnnw3s1D8 .. $ENZY $POPE $MONT
p2902
sg14
Vhttp://socialadcenter.com
p2903
sg16
I00
sg17
I00
sg18
Nsg19
g0
(g20
g5
Ntp2904
Rp2905
(dp2906
g24
I00
sg25
I00
sg26
I01
sg27
VDDEEF6
p2907
sg29
L3261001351L
sg30
I00
sg31
(dp2908
g85
(dp2909
g35
(lp2910
(dp2911
g85
Vhttp://t.co/8dJZYrRhox
p2912
sg154
(lp2913
I0
aI22
asg165
Vhttp://pennystocksecret.com
p2914
sg167
Vpennystocksecret.com
p2915
sassg33
(dp2916
g35
(lp2917
(dp2918
g85
Vhttp://t.co/UWzH8kOOl9
p2919
sg154
(lp2920
I11
aI33
asg165
Vhttp://PennyStockSecret.com
p2921
sg167
VPennyStockSecret.com
p2922
sasssg37
Vhttps://pbs.twimg.com/profile_images/617517575241531392/vk4GKKpS_normal.jpg
p2923
sg39
(dp2924
g41
I00
sg42
I00
sg43
I01
sg44
I00
sg45
L3261001351L
sg46
Vhttps://abs.twimg.com/images/themes/theme1/bg.png
p2925
sg48
I00
sg49
V333333
p2926
sg51
g2923
sg52
g2907
sg53
g2908
sg54
I5237
sg55
VC0DEED
p2927
sg57
V3261001351
p2928
sg59
VC0DEED
p2929
sg61
I9
sg62
I00
sg63
I-28800
sg64
I17457
sg33
VSign up to http://t.co/UWzH8kOOl9  and get the premiere penny stock newsletter for free! make sure you subscribe today!
p2930
sg66
I12
sg67
VUnited States
p2931
sg68
V0084B4
p2932
sg70
Vhttp://pbs.twimg.com/profile_images/617517575241531392/vk4GKKpS_normal.jpg
p2933
sg72
I00
sg73
I00
sg1170
Vhttps://pbs.twimg.com/profile_banners/3261001351/1436062750
p2934
sg74
Vhttp://abs.twimg.com/images/themes/theme1/bg.png
p2935
sg76
Vstockmaster101
p2936
sg78
Ven
p2937
sg80
I00
sg81
I0
sg82
VStockmaster101
p2938
sg84
I00
sg85
Vhttp://t.co/8dJZYrRhox
p2939
sg86
VTue Jun 30 07:41:17 +0000 2015
p2940
sg88
I00
sg89
VPacific Time (US & Canada)
p2941
sg91
I00
sg92
I01
sg93
I00
ssg94
I00
sg95
g2926
sg96
I5237
sg97
g2927
sg98
g2928
sg99
I00
sg100
I9
sg101
I00
sg102
I-28800
sg103
I17457
sg104
g2930
sg105
I12
sg106
g2931
sg107
g2932
sg108
g2933
sg109
I00
sg110
I00
sg111
g2929
sg1179
g2934
sg112
g2935
sg113
g2936
sg114
g2937
sg115
I00
sg116
I00
sg117
I0
sg118
g2938
sg119
g2939
sg120
g121
(S'\x07\xdf\x06\x1e\x07)\x11\x00\x00\x00'
p2942
tp2943
Rp2944
sg125
g2925
sg126
g2941
sg127
I00
sg128
I01
sg129
I00
sbsg130
Nsg29
L661959839636021248L
sg131
I0
sg132
VSocial Ad Center
p2945
sg114
Ven
p2946
sg135
g2905
sg120
g121
(S'\x07\xdf\x0b\x04\x11";\x00\x00\x00'
p2947
tp2948
Rp2949
sg39
(dp2950
g140
Nsg141
I00
sg142
g2902
sg143
I00
sg144
Nsg45
L661959839636021248L
sg145
I0
sg146
V<a href="http://socialadcenter.com" rel="nofollow">Social Ad Center</a>
p2951
sg148
I00
sg149
Nsg53
(dp2952
g151
(lp2953
(dp2954
g154
(lp2955
I83
aI88
asg142
VENZY
p2956
sa(dp2957
g154
(lp2958
I89
aI94
asg142
VPOPE
p2959
sa(dp2960
g154
(lp2961
I95
aI100
asg142
VMONT
p2962
sasg157
(lp2963
sg159
(lp2964
sg35
(lp2965
(dp2966
g85
Vhttps://t.co/9Vnnw3s1D8
p2967
sg154
(lp2968
I56
aI79
asg165
Vhttp://PennyStockSecret.com
p2969
sg167
VPennyStockSecret.com
p2970
sassg200
Nsg201
Nsg202
I0
sg57
V661959839636021248
p2971
sg204
I00
sg205
g2924
sg206
Nsg207
Nsg208
I00
sg78
g2946
sg86
VWed Nov 04 17:34:59 +0000 2015
p2972
sg210
Nsg211
Nsg212
(dp2973
g214
Ven
p2974
sg216
Vrecent
p2975
sssg218
g2973
sg219
Nsg220
Nsg31
g2952
sg221
Nsg222
Nsg98
g2971
sg223
I00
sg224
Nsg225
I0
sg226
Nsbag0
(g4
g5
Ntp2976
Rp2977
(dp2978
g9
I00
sg10
Nsg11
I00
sg12
VOur Pick On $HCTI More Than Tripled For Our Members, In 3 Weeks! Subscribe For Our New Picks: https://t.co/6sqzAAvjDY $ENZY $POPE $MONT
p2979
sg14
Vhttp://twitter.com
p2980
sg16
I00
sg17
I00
sg18
Nsg19
g0
(g20
g5
Ntp2981
Rp2982
(dp2983
g24
I00
sg25
I00
sg26
I01
sg27
VDDEEF6
p2984
sg29
L2447928920L
sg30
I00
sg31
(dp2985
g33
(dp2986
g35
(lp2987
(dp2988
g85
Vhttp://t.co/QYxLf9LJ7f
p2989
sg154
(lp2990
I94
aI116
asg165
Vhttp://www.pennystockdream.com/disclaimer
p2991
sg167
Vpennystockdream.com/disclaimer
p2992
sasssg37
Vhttps://pbs.twimg.com/profile_images/456523892308201472/sBGAsJTn_normal.png
p2993
sg39
(dp2994
g41
I00
sg42
I00
sg43
I01
sg44
I00
sg45
L2447928920L
sg46
Vhttps://abs.twimg.com/images/themes/theme1/bg.png
p2995
sg48
I00
sg49
V333333
p2996
sg51
g2993
sg52
g2984
sg53
g2985
sg54
I4321
sg55
VC0DEED
p2997
sg57
V2447928920
p2998
sg59
VC0DEED
p2999
sg61
I60
sg62
I00
sg63
Nsg64
I179299
sg33
VATTENTION: Read full disclaimer before looking at any of our tweets! Link To Full Disclaimer: http://t.co/QYxLf9LJ7f
p3000
sg66
I0
sg67
g65
sg68
V0084B4
p3001
sg70
Vhttp://pbs.twimg.com/profile_images/456523892308201472/sBGAsJTn_normal.png
p3002
sg72
I00
sg73
I00
sg74
Vhttp://abs.twimg.com/images/themes/theme1/bg.png
p3003
sg76
VStockenheimer1
p3004
sg78
Ven
p3005
sg80
I00
sg81
I0
sg82
VStockenheimerSchmidt
p3006
sg84
I00
sg85
Nsg86
VWed Apr 16 20:03:52 +0000 2014
p3007
sg88
I00
sg89
Nsg91
I00
sg92
I01
sg93
I00
ssg94
I00
sg95
g2996
sg96
I4321
sg97
g2997
sg98
g2998
sg99
I00
sg100
I60
sg101
I00
sg102
Nsg103
I179299
sg104
g3000
sg105
I0
sg106
g65
sg107
g3001
sg108
g3002
sg109
I00
sg110
I00
sg111
g2999
sg112
g3003
sg113
g3004
sg114
g3005
sg115
I00
sg116
I00
sg117
I0
sg118
g3006
sg119
Nsg120
g121
(S'\x07\xde\x04\x10\x14\x034\x00\x00\x00'
p3008
tp3009
Rp3010
sg125
g2995
sg126
Nsg127
I00
sg128
I01
sg129
I00
sbsg130
Nsg29
L661901724471398400L
sg131
I0
sg132
VTwitter Web Client
p3011
sg114
Ven
p3012
sg135
g2982
sg120
g121
(S'\x07\xdf\x0b\x04\r,\x03\x00\x00\x00'
p3013
tp3014
Rp3015
sg39
(dp3016
g140
Nsg141
I00
sg142
g2979
sg143
I00
sg144
Nsg45
L661901724471398400L
sg145
I0
sg146
V<a href="http://twitter.com" rel="nofollow">Twitter Web Client</a>
p3017
sg148
I00
sg149
Nsg53
(dp3018
g151
(lp3019
(dp3020
g154
(lp3021
I12
aI17
asg142
VHCTI
p3022
sa(dp3023
g154
(lp3024
I118
aI123
asg142
VENZY
p3025
sa(dp3026
g154
(lp3027
I124
aI129
asg142
VPOPE
p3028
sa(dp3029
g154
(lp3030
I130
aI135
asg142
VMONT
p3031
sasg157
(lp3032
sg159
(lp3033
sg35
(lp3034
(dp3035
g85
Vhttps://t.co/6sqzAAvjDY
p3036
sg154
(lp3037
I94
aI117
asg165
Vhttp://ow.ly/SP8LD
p3038
sg167
Vow.ly/SP8LD
p3039
sassg200
Nsg201
Nsg202
I0
sg57
V661901724471398400
p3040
sg204
I00
sg205
g2994
sg206
Nsg207
Nsg208
I00
sg78
g3012
sg86
VWed Nov 04 13:44:03 +0000 2015
p3041
sg210
Nsg211
Nsg212
(dp3042
g214
Ven
p3043
sg216
Vrecent
p3044
sssg218
g3042
sg219
Nsg220
Nsg31
g3018
sg221
Nsg222
Nsg98
g3040
sg223
I00
sg224
Nsg225
I0
sg226
Nsbag0
(g4
g5
Ntp3045
Rp3046
(dp3047
g9
I00
sg10
Nsg11
I00
sg12
VOur Platinum Members Have Been Seeing MASSIVE Gains On Our Penny Stock Picks! Subscribe Today: https://t.co/ro7o3SYbd1 $ENZY $POPE $MONT
p3048
sg14
Vhttp://twitter.com
p3049
sg16
I00
sg17
I00
sg18
Nsg19
g0
(g20
g5
Ntp3050
Rp3051
(dp3052
g24
I00
sg25
I00
sg26
I01
sg27
VDDEEF6
p3053
sg29
L2447901655L
sg30
I00
sg31
(dp3054
g33
(dp3055
g35
(lp3056
(dp3057
g85
Vhttp://t.co/QYxLf9LJ7f
p3058
sg154
(lp3059
I94
aI116
asg165
Vhttp://www.pennystockdream.com/disclaimer
p3060
sg167
Vpennystockdream.com/disclaimer
p3061
sasssg37
Vhttps://pbs.twimg.com/profile_images/456519281744703490/M4G5Ld8j_normal.jpeg
p3062
sg39
(dp3063
g41
I00
sg42
I00
sg43
I01
sg44
I00
sg45
L2447901655L
sg46
Vhttps://abs.twimg.com/images/themes/theme1/bg.png
p3064
sg48
I00
sg49
V333333
p3065
sg51
g3062
sg52
g3053
sg53
g3054
sg54
I13505
sg55
VC0DEED
p3066
sg57
V2447901655
p3067
sg59
VC0DEED
p3068
sg61
I79
sg62
I00
sg63
Nsg64
I234690
sg33
VATTENTION: Read full disclaimer before looking at any of our tweets! Link To Full Disclaimer: http://t.co/QYxLf9LJ7f
p3069
sg66
I1
sg67
g65
sg68
V0084B4
p3070
sg70
Vhttp://pbs.twimg.com/profile_images/456519281744703490/M4G5Ld8j_normal.jpeg
p3071
sg72
I00
sg73
I00
sg74
Vhttp://abs.twimg.com/images/themes/theme1/bg.png
p3072
sg76
VStockRocketzz
p3073
sg78
Ven
p3074
sg80
I00
sg81
I0
sg82
VStock Rocket
p3075
sg84
I00
sg85
Nsg86
VWed Apr 16 19:44:35 +0000 2014
p3076
sg88
I00
sg89
Nsg91
I00
sg92
I01
sg93
I00
ssg94
I00
sg95
g3065
sg96
I13505
sg97
g3066
sg98
g3067
sg99
I00
sg100
I79
sg101
I00
sg102
Nsg103
I234690
sg104
g3069
sg105
I1
sg106
g65
sg107
g3070
sg108
g3071
sg109
I00
sg110
I00
sg111
g3068
sg112
g3072
sg113
g3073
sg114
g3074
sg115
I00
sg116
I00
sg117
I0
sg118
g3075
sg119
Nsg120
g121
(S'\x07\xde\x04\x10\x13,#\x00\x00\x00'
p3077
tp3078
Rp3079
sg125
g3064
sg126
Nsg127
I00
sg128
I01
sg129
I00
sbsg130
Nsg29
L661901609358770176L
sg131
I0
sg132
VTwitter Web Client
p3080
sg114
Ven
p3081
sg135
g3051
sg120
g121
(S'\x07\xdf\x0b\x04\r+#\x00\x00\x00'
p3082
tp3083
Rp3084
sg39
(dp3085
g140
Nsg141
I00
sg142
g3048
sg143
I00
sg144
Nsg45
L661901609358770176L
sg145
I0
sg146
V<a href="http://twitter.com" rel="nofollow">Twitter Web Client</a>
p3086
sg148
I00
sg149
Nsg53
(dp3087
g151
(lp3088
(dp3089
g154
(lp3090
I119
aI124
asg142
VENZY
p3091
sa(dp3092
g154
(lp3093
I125
aI130
asg142
VPOPE
p3094
sa(dp3095
g154
(lp3096
I131
aI136
asg142
VMONT
p3097
sasg157
(lp3098
sg159
(lp3099
sg35
(lp3100
(dp3101
g85
Vhttps://t.co/ro7o3SYbd1
p3102
sg154
(lp3103
I95
aI118
asg165
Vhttp://tinyurl.com/o3lgmg3
p3104
sg167
Vtinyurl.com/o3lgmg3
p3105
sassg200
Nsg201
Nsg202
I0
sg57
V661901609358770176
p3106
sg204
I00
sg205
g3063
sg206
Nsg207
Nsg208
I00
sg78
g3081
sg86
VWed Nov 04 13:43:35 +0000 2015
p3107
sg210
Nsg211
Nsg212
(dp3108
g214
Ven
p3109
sg216
Vrecent
p3110
sssg218
g3108
sg219
Nsg220
Nsg31
g3087
sg221
Nsg222
Nsg98
g3106
sg223
I00
sg224
Nsg225
I0
sg226
Nsbag0
(g4
g5
Ntp3111
Rp3112
(dp3113
g9
I00
sg10
Nsg11
I00
sg12
VOur Stock Alerts Have Been Seeing Record Gains! Our New Pick Will Be MASSIVE: https://t.co/DXRm9DTWiK $ENZY $POPE $MONT
p3114
sg14
Vhttp://twitter.com
p3115
sg16
I00
sg17
I00
sg18
Nsg19
g0
(g20
g5
Ntp3116
Rp3117
(dp3118
g24
I00
sg25
I00
sg26
I01
sg27
VDDEEF6
p3119
sg29
L3091884801L
sg30
I00
sg31
(dp3120
g33
(dp3121
g35
(lp3122
(dp3123
g85
Vhttp://t.co/d1PvG67hF4
p3124
sg154
(lp3125
I79
aI101
asg165
Vhttp://tinyurl.com/mcsbvzz
p3126
sg167
Vtinyurl.com/mcsbvzz
p3127
sasssg37
Vhttps://pbs.twimg.com/profile_images/576989971883499521/yv0Bp7te_normal.jpeg
p3128
sg39
(dp3129
g41
I00
sg42
I00
sg43
I01
sg44
I00
sg45
L3091884801L
sg46
Vhttps://abs.twimg.com/images/themes/theme1/bg.png
p3130
sg48
I00
sg49
V333333
p3131
sg51
g3128
sg52
g3119
sg53
g3120
sg54
I15267
sg55
VC0DEED
p3132
sg57
V3091884801
p3133
sg59
VC0DEED
p3134
sg61
I65
sg62
I00
sg63
Nsg64
I170509
sg33
VRead our full disclaimer before looking at any of our tweets! Full Disclaimer: http://t.co/d1PvG67hF4
p3135
sg66
I1
sg67
g65
sg68
V0084B4
p3136
sg70
Vhttp://pbs.twimg.com/profile_images/576989971883499521/yv0Bp7te_normal.jpeg
p3137
sg72
I00
sg73
I00
sg74
Vhttp://abs.twimg.com/images/themes/theme1/bg.png
p3138
sg76
VStockDawgzz
p3139
sg78
Ven
p3140
sg80
I00
sg81
I0
sg82
VStock Dawgzz
p3141
sg84
I00
sg85
Nsg86
VSun Mar 15 06:13:17 +0000 2015
p3142
sg88
I00
sg89
Nsg91
I00
sg92
I01
sg93
I00
ssg94
I00
sg95
g3131
sg96
I15267
sg97
g3132
sg98
g3133
sg99
I00
sg100
I65
sg101
I00
sg102
Nsg103
I170509
sg104
g3135
sg105
I1
sg106
g65
sg107
g3136
sg108
g3137
sg109
I00
sg110
I00
sg111
g3134
sg112
g3138
sg113
g3139
sg114
g3140
sg115
I00
sg116
I00
sg117
I0
sg118
g3141
sg119
Nsg120
g121
(S'\x07\xdf\x03\x0f\x06\r\x11\x00\x00\x00'
p3143
tp3144
Rp3145
sg125
g3130
sg126
Nsg127
I00
sg128
I01
sg129
I00
sbsg130
Nsg29
L661901401539403777L
sg131
I0
sg132
VTwitter Web Client
p3146
sg114
Ven
p3147
sg135
g3117
sg120
g121
(S'\x07\xdf\x0b\x04\r*.\x00\x00\x00'
p3148
tp3149
Rp3150
sg39
(dp3151
g140
Nsg141
I00
sg142
g3114
sg143
I00
sg144
Nsg45
L661901401539403777L
sg145
I0
sg146
V<a href="http://twitter.com" rel="nofollow">Twitter Web Client</a>
p3152
sg148
I00
sg149
Nsg53
(dp3153
g151
(lp3154
(dp3155
g154
(lp3156
I102
aI107
asg142
VENZY
p3157
sa(dp3158
g154
(lp3159
I108
aI113
asg142
VPOPE
p3160
sa(dp3161
g154
(lp3162
I114
aI119
asg142
VMONT
p3163
sasg157
(lp3164
sg159
(lp3165
sg35
(lp3166
(dp3167
g85
Vhttps://t.co/DXRm9DTWiK
p3168
sg154
(lp3169
I78
aI101
asg165
Vhttp://goo.gl/NGTqcj
p3170
sg167
Vgoo.gl/NGTqcj
p3171
sassg200
Nsg201
Nsg202
I0
sg57
V661901401539403777
p3172
sg204
I00
sg205
g3129
sg206
Nsg207
Nsg208
I00
sg78
g3147
sg86
VWed Nov 04 13:42:46 +0000 2015
p3173
sg210
Nsg211
Nsg212
(dp3174
g214
Ven
p3175
sg216
Vrecent
p3176
sssg218
g3174
sg219
Nsg220
Nsg31
g3153
sg221
Nsg222
Nsg98
g3172
sg223
I00
sg224
Nsg225
I0
sg226
Nsbag0
(g4
g5
Ntp3177
Rp3178
(dp3179
g9
I00
sg10
Nsg11
I00
sg12
VOur Stock Alerts Gained Over 1,900% In 2 And A Half Months! See Our Special New Pick: https://t.co/rdhi4T4cqG $ENZY $POPE $MONT
p3180
sg14
Vhttp://twitter.com
p3181
sg16
I00
sg17
I00
sg18
Nsg19
g0
(g20
g5
Ntp3182
Rp3183
(dp3184
g24
I00
sg25
I00
sg26
I01
sg27
VDDEEF6
p3185
sg29
L2447967798L
sg30
I00
sg31
(dp3186
g33
(dp3187
g35
(lp3188
(dp3189
g85
Vhttp://t.co/d1PvG67PuC
p3190
sg154
(lp3191
I80
aI102
asg165
Vhttp://tinyurl.com/mcsbvzz
p3192
sg167
Vtinyurl.com/mcsbvzz
p3193
sasssg37
Vhttps://pbs.twimg.com/profile_images/456529846420525056/wLucrlXI_normal.jpeg
p3194
sg39
(dp3195
g41
I00
sg42
I00
sg43
I01
sg44
I00
sg45
L2447967798L
sg46
Vhttps://abs.twimg.com/images/themes/theme1/bg.png
p3196
sg48
I00
sg49
V333333
p3197
sg51
g3194
sg52
g3185
sg53
g3186
sg54
I14103
sg55
VC0DEED
p3198
sg57
V2447967798
p3199
sg59
VC0DEED
p3200
sg61
I101
sg62
I00
sg63
Nsg64
I443646
sg33
VRead our full disclaimer before looking at any of our tweets! Full Disclaimer:  http://t.co/d1PvG67PuC
p3201
sg66
I8
sg67
g65
sg68
V0084B4
p3202
sg70
Vhttp://pbs.twimg.com/profile_images/456529846420525056/wLucrlXI_normal.jpeg
p3203
sg72
I00
sg73
I00
sg74
Vhttp://abs.twimg.com/images/themes/theme1/bg.png
p3204
sg76
VStockaholics
p3205
sg78
Ven
p3206
sg80
I00
sg81
I22
sg82
VStockaholics
p3207
sg84
I00
sg85
Nsg86
VWed Apr 16 20:27:43 +0000 2014
p3208
sg88
I00
sg89
Nsg91
I00
sg92
I01
sg93
I00
ssg94
I00
sg95
g3197
sg96
I14103
sg97
g3198
sg98
g3199
sg99
I00
sg100
I101
sg101
I00
sg102
Nsg103
I443646
sg104
g3201
sg105
I8
sg106
g65
sg107
g3202
sg108
g3203
sg109
I00
sg110
I00
sg111
g3200
sg112
g3204
sg113
g3205
sg114
g3206
sg115
I00
sg116
I00
sg117
I22
sg118
g3207
sg119
Nsg120
g121
(S'\x07\xde\x04\x10\x14\x1b+\x00\x00\x00'
p3209
tp3210
Rp3211
sg125
g3196
sg126
Nsg127
I00
sg128
I01
sg129
I00
sbsg130
Nsg29
L661900611219275776L
sg131
I0
sg132
VTwitter Web Client
p3212
sg114
Ven
p3213
sg135
g3183
sg120
g121
(S"\x07\xdf\x0b\x04\r'%\x00\x00\x00"
p3214
tp3215
Rp3216
sg39
(dp3217
g140
Nsg141
I00
sg142
g3180
sg143
I00
sg144
Nsg45
L661900611219275776L
sg145
I0
sg146
V<a href="http://twitter.com" rel="nofollow">Twitter Web Client</a>
p3218
sg148
I00
sg149
Nsg53
(dp3219
g151
(lp3220
(dp3221
g154
(lp3222
I110
aI115
asg142
VENZY
p3223
sa(dp3224
g154
(lp3225
I116
aI121
asg142
VPOPE
p3226
sa(dp3227
g154
(lp3228
I122
aI127
asg142
VMONT
p3229
sasg157
(lp3230
sg159
(lp3231
sg35
(lp3232
(dp3233
g85
Vhttps://t.co/rdhi4T4cqG
p3234
sg154
(lp3235
I86
aI109
asg165
Vhttp://bit.ly/1P4EFQ5
p3236
sg167
Vbit.ly/1P4EFQ5
p3237
sassg200
Nsg201
Nsg202
I0
sg57
V661900611219275776
p3238
sg204
I00
sg205
g3195
sg206
Nsg207
Nsg208
I00
sg78
g3213
sg86
VWed Nov 04 13:39:37 +0000 2015
p3239
sg210
Nsg211
Nsg212
(dp3240
g214
Ven
p3241
sg216
Vrecent
p3242
sssg218
g3240
sg219
Nsg220
Nsg31
g3219
sg221
Nsg222
Nsg98
g3238
sg223
I00
sg224
Nsg225
I0
sg226
Nsbag0
(g4
g5
Ntp3243
Rp3244
(dp3245
g9
I00
sg10
Nsg11
I00
sg12
V$GEQU Has Increased Almost 20 TIMES In Value, For Our Subscribers! Huge News: https://t.co/viouXok21i $ENZY $POPE $MONT
p3246
sg14
Vhttp://twitter.com
p3247
sg16
I00
sg17
I00
sg18
Nsg19
g0
(g20
g5
Ntp3248
Rp3249
(dp3250
g24
I00
sg25
I00
sg26
I01
sg27
VDDEEF6
p3251
sg29
L3091880403L
sg30
I00
sg31
(dp3252
g33
(dp3253
g35
(lp3254
(dp3255
g85
Vhttp://t.co/d1PvG67hF4
p3256
sg154
(lp3257
I79
aI101
asg165
Vhttp://tinyurl.com/mcsbvzz
p3258
sg167
Vtinyurl.com/mcsbvzz
p3259
sasssg37
Vhttps://pbs.twimg.com/profile_images/576985932299026432/vGRv_VM-_normal.png
p3260
sg39
(dp3261
g41
I00
sg42
I00
sg43
I01
sg44
I00
sg45
L3091880403L
sg46
Vhttps://abs.twimg.com/images/themes/theme1/bg.png
p3262
sg48
I00
sg49
V333333
p3263
sg51
g3260
sg52
g3251
sg53
g3252
sg54
I15272
sg55
VC0DEED
p3264
sg57
V3091880403
p3265
sg59
VC0DEED
p3266
sg61
I71
sg62
I00
sg63
Nsg64
I173961
sg33
VRead our full disclaimer before looking at any of our tweets! Full Disclaimer: http://t.co/d1PvG67hF4
p3267
sg66
I0
sg67
g65
sg68
V0084B4
p3268
sg70
Vhttp://pbs.twimg.com/profile_images/576985932299026432/vGRv_VM-_normal.png
p3269
sg72
I00
sg73
I00
sg74
Vhttp://abs.twimg.com/images/themes/theme1/bg.png
p3270
sg76
VPennyStockingt
p3271
sg78
Ven
p3272
sg80
I00
sg81
I1
sg82
VPenny Stockington
p3273
sg84
I00
sg85
Nsg86
VSun Mar 15 05:57:31 +0000 2015
p3274
sg88
I00
sg89
Nsg91
I00
sg92
I01
sg93
I00
ssg94
I00
sg95
g3263
sg96
I15272
sg97
g3264
sg98
g3265
sg99
I00
sg100
I71
sg101
I00
sg102
Nsg103
I173961
sg104
g3267
sg105
I0
sg106
g65
sg107
g3268
sg108
g3269
sg109
I00
sg110
I00
sg111
g3266
sg112
g3270
sg113
g3271
sg114
g3272
sg115
I00
sg116
I00
sg117
I1
sg118
g3273
sg119
Nsg120
g121
(S'\x07\xdf\x03\x0f\x059\x1f\x00\x00\x00'
p3275
tp3276
Rp3277
sg125
g3262
sg126
Nsg127
I00
sg128
I01
sg129
I00
sbsg130
Nsg29
L661899644436398080L
sg131
I0
sg132
VTwitter Web Client
p3278
sg114
Ven
p3279
sg135
g3249
sg120
g121
(S'\x07\xdf\x0b\x04\r#/\x00\x00\x00'
p3280
tp3281
Rp3282
sg39
(dp3283
g140
Nsg141
I00
sg142
g3246
sg143
I00
sg144
Nsg45
L661899644436398080L
sg145
I0
sg146
V<a href="http://twitter.com" rel="nofollow">Twitter Web Client</a>
p3284
sg148
I00
sg149
Nsg53
(dp3285
g151
(lp3286
(dp3287
g154
(lp3288
I0
aI5
asg142
VGEQU
p3289
sa(dp3290
g154
(lp3291
I102
aI107
asg142
VENZY
p3292
sa(dp3293
g154
(lp3294
I108
aI113
asg142
VPOPE
p3295
sa(dp3296
g154
(lp3297
I114
aI119
asg142
VMONT
p3298
sasg157
(lp3299
sg159
(lp3300
sg35
(lp3301
(dp3302
g85
Vhttps://t.co/viouXok21i
p3303
sg154
(lp3304
I78
aI101
asg165
Vhttp://tr.im/abvm6
p3305
sg167
Vtr.im/abvm6
p3306
sassg200
Nsg201
Nsg202
I0
sg57
V661899644436398080
p3307
sg204
I00
sg205
g3261
sg206
Nsg207
Nsg208
I00
sg78
g3279
sg86
VWed Nov 04 13:35:47 +0000 2015
p3308
sg210
Nsg211
Nsg212
(dp3309
g214
Ven
p3310
sg216
Vrecent
p3311
sssg218
g3309
sg219
Nsg220
Nsg31
g3285
sg221
Nsg222
Nsg98
g3307
sg223
I00
sg224
Nsg225
I0
sg226
Nsbag0
(g4
g5
Ntp3312
Rp3313
(dp3314
g9
I00
sg10
Nsg11
I00
sg12
V$POPE Institutional ownership up 1.08% Q/Q, with 7,712 net purchase https://t.co/aCt5y7y49J https://t.co/bLFR5jPgs5
p3315
sg14
Vhttp://lovelystocks.com
p3316
sg16
I00
sg17
I00
sg18
Nsg19
g0
(g20
g5
Ntp3317
Rp3318
(dp3319
g24
I00
sg25
I00
sg26
I01
sg27
VF6FFD1
p3320
sg29
L2343862982L
sg30
I00
sg31
(dp3321
g33
(dp3322
g35
(lp3323
sssg37
Vhttps://pbs.twimg.com/profile_images/475757304042618880/GXfaDX___normal.jpeg
p3324
sg39
(dp3325
g41
I00
sg42
I00
sg43
I01
sg44
I00
sg45
L2343862982L
sg46
Vhttps://abs.twimg.com/images/themes/theme19/bg.gif
p3326
sg48
I00
sg49
V333333
p3327
sg51
g3324
sg52
g3320
sg53
g3321
sg54
I320
sg55
VFFF8AD
p3328
sg57
V2343862982
p3329
sg59
VFFF04D
p3330
sg61
I18
sg62
I00
sg63
I-14400
sg64
I61148
sg33
g65
sg66
I0
sg67
g65
sg68
V0099CC
p3331
sg70
Vhttp://pbs.twimg.com/profile_images/475757304042618880/GXfaDX___normal.jpeg
p3332
sg72
I00
sg73
I00
sg74
Vhttp://abs.twimg.com/images/themes/theme19/bg.gif
p3333
sg76
VWatchTheFunds
p3334
sg78
Ven
p3335
sg80
I00
sg81
I0
sg82
VWatchTheFunds
p3336
sg84
I00
sg85
Nsg86
VFri Feb 14 17:09:44 +0000 2014
p3337
sg88
I00
sg89
VAtlantic Time (Canada)
p3338
sg91
I00
sg92
I00
sg93
I00
ssg94
I00
sg95
g3327
sg96
I320
sg97
g3328
sg98
g3329
sg99
I00
sg100
I18
sg101
I00
sg102
I-14400
sg103
I61148
sg104
g65
sg105
I0
sg106
g65
sg107
g3331
sg108
g3332
sg109
I00
sg110
I00
sg111
g3330
sg112
g3333
sg113
g3334
sg114
g3335
sg115
I00
sg116
I00
sg117
I0
sg118
g3336
sg119
Nsg120
g121
(S'\x07\xde\x02\x0e\x11\t,\x00\x00\x00'
p3339
tp3340
Rp3341
sg125
g3326
sg126
g3338
sg127
I00
sg128
I00
sg129
I00
sbsg130
Nsg29
L661783945000919040L
sg131
I0
sg132
VWatchTheFunds
p3342
sg114
Ven
p3343
sg135
g3318
sg120
g121
(S'\x07\xdf\x0b\x04\x058\x02\x00\x00\x00'
p3344
tp3345
Rp3346
sg39
(dp3347
g140
Nsg141
I00
sg142
g3315
sg143
I00
sg144
Nsg45
L661783945000919040L
sg145
I0
sg146
V<a href="http://lovelystocks.com" rel="nofollow">WatchTheFunds</a>
p3348
sg148
I00
sg149
Nsg53
(dp3349
g151
(lp3350
(dp3351
g154
(lp3352
I0
aI5
asg142
VPOPE
p3353
sasg157
(lp3354
sg159
(lp3355
sg35
(lp3356
(dp3357
g85
Vhttps://t.co/aCt5y7y49J
p3358
sg154
(lp3359
I68
aI91
asg165
Vhttp://LovelyStocks.com/POPE
p3360
sg167
VLovelyStocks.com/POPE
p3361
sasg169
(lp3362
(dp3363
g165
Vhttp://twitter.com/WatchTheFunds/status/661783945000919040/photo/1
p3364
sg167
Vpic.twitter.com/bLFR5jPgs5
p3365
sg85
Vhttps://t.co/bLFR5jPgs5
p3366
sg175
Vhttps://pbs.twimg.com/media/CS8g_dyWUAAVL0_.jpg
p3367
sg57
V661783944946405376
p3368
sg178
(dp3369
g180
(dp3370
g182
I4
sg183
Vfit
p3371
sg185
I4
ssg186
(dp3372
g182
I4
sg183
Vfit
p3373
sg185
I4
ssg189
(dp3374
g182
I4
sg183
Vfit
p3375
sg185
I4
ssg192
(dp3376
g182
I4
sg183
Vcrop
p3377
sg185
I4
sssg154
(lp3378
I92
aI115
asg196
Vphoto
p3379
sg45
L661783944946405376L
sg198
Vhttp://pbs.twimg.com/media/CS8g_dyWUAAVL0_.jpg
p3380
sassg200
Nsg201
Nsg202
I0
sg57
V661783945000919040
p3381
sg204
I00
sg205
g3325
sg206
Nsg207
Nsg208
I00
sg78
g3343
sg86
VWed Nov 04 05:56:02 +0000 2015
p3382
sg210
Nsg211
Nsg212
(dp3383
g214
Ven
p3384
sg216
Vrecent
p3385
sssg218
g3383
sg219
Nsg220
Nsg31
g3349
sg221
Nsg222
Nsg98
g3381
sg223
I00
sg224
Nsg225
I0
sg226
Nsbag0
(g4
g5
Ntp3386
Rp3387
(dp3388
g9
I00
sg10
Nsg11
I00
sg12
VPlatinum Members Saw Our Picks Gain Over 3,700% In 3 Months! Subscribe Today: https://t.co/cY8mh65j1l: https://t.co/yWn2CRCU6G $ENZY $POPE $
p3389
sg14
Vhttp://twitter.com
p3390
sg16
I00
sg17
I00
sg18
Nsg19
g0
(g20
g5
Ntp3391
Rp3392
(dp3393
g24
I00
sg25
I00
sg26
I01
sg27
VDDEEF6
p3394
sg29
L3243387344L
sg30
I00
sg31
(dp3395
g33
(dp3396
g35
(lp3397
sssg37
Vhttps://pbs.twimg.com/profile_images/609378706293821441/PgsP93Yo_normal.jpg
p3398
sg39
(dp3399
g41
I00
sg42
I00
sg43
I01
sg44
I00
sg45
L3243387344L
sg46
Vhttps://abs.twimg.com/images/themes/theme1/bg.png
p3400
sg48
I00
sg49
V333333
p3401
sg51
g3398
sg52
g3394
sg53
g3395
sg54
I12565
sg55
VC0DEED
p3402
sg57
V3243387344
p3403
sg59
VC0DEED
p3404
sg61
I50
sg62
I00
sg63
I-28800
sg64
I83039
sg33
g65
sg66
I0
sg67
g65
sg68
V0084B4
p3405
sg70
Vhttp://pbs.twimg.com/profile_images/609378706293821441/PgsP93Yo_normal.jpg
p3406
sg72
I00
sg73
I00
sg74
Vhttp://abs.twimg.com/images/themes/theme1/bg.png
p3407
sg76
VMoneyMarketzz
p3408
sg78
Ven
p3409
sg80
I00
sg81
I0
sg82
VPaul Henry
p3410
sg84
I00
sg85
Nsg86
VFri Jun 12 15:13:59 +0000 2015
p3411
sg88
I00
sg89
VPacific Time (US & Canada)
p3412
sg91
I00
sg92
I01
sg93
I00
ssg94
I00
sg95
g3401
sg96
I12565
sg97
g3402
sg98
g3403
sg99
I00
sg100
I50
sg101
I00
sg102
I-28800
sg103
I83039
sg104
g65
sg105
I0
sg106
g65
sg107
g3405
sg108
g3406
sg109
I00
sg110
I00
sg111
g3404
sg112
g3407
sg113
g3408
sg114
g3409
sg115
I00
sg116
I00
sg117
I0
sg118
g3410
sg119
Nsg120
g121
(S'\x07\xdf\x06\x0c\x0f\r;\x00\x00\x00'
p3413
tp3414
Rp3415
sg125
g3400
sg126
g3412
sg127
I00
sg128
I01
sg129
I00
sbsg130
Nsg29
L661729756577144832L
sg131
I0
sg132
VTwitter Web Client
p3416
sg114
Ven
p3417
sg135
g3392
sg120
g121
(S'\x07\xdf\x0b\x04\x02\x14*\x00\x00\x00'
p3418
tp3419
Rp3420
sg39
(dp3421
g140
Nsg141
I00
sg142
g3389
sg143
I00
sg144
Nsg45
L661729756577144832L
sg145
I0
sg146
V<a href="http://twitter.com" rel="nofollow">Twitter Web Client</a>
p3422
sg148
I00
sg149
Nsg53
(dp3423
g151
(lp3424
(dp3425
g154
(lp3426
I127
aI132
asg142
VENZY
p3427
sa(dp3428
g154
(lp3429
I133
aI138
asg142
VPOPE
p3430
sasg157
(lp3431
sg159
(lp3432
sg35
(lp3433
(dp3434
g85
Vhttps://t.co/cY8mh65j1l
p3435
sg154
(lp3436
I78
aI101
asg165
Vhttp://tr.im/Vcmhs
p3437
sg167
Vtr.im/Vcmhs
p3438
sa(dp3439
g85
Vhttps://t.co/yWn2CRCU6G
p3440
sg154
(lp3441
I103
aI126
asg165
Vhttp://tr.im/xU0Zy
p3442
sg167
Vtr.im/xU0Zy
p3443
sassg200
Nsg201
Nsg202
I0
sg57
V661729756577144832
p3444
sg204
I00
sg205
g3399
sg206
Nsg207
Nsg208
I00
sg78
g3417
sg86
VWed Nov 04 02:20:42 +0000 2015
p3445
sg210
Nsg211
Nsg212
(dp3446
g214
Ven
p3447
sg216
Vrecent
p3448
sssg218
g3446
sg219
Nsg220
Nsg31
g3423
sg221
Nsg222
Nsg98
g3444
sg223
I00
sg224
Nsg225
I0
sg226
Nsbag0
(g4
g5
Ntp3449
Rp3450
(dp3451
g9
I00
sg10
Nsg11
I00
sg12
VYesterday We Made $54,000 In Just One Trade More Info Here https://t.co/8WvnrVmkBS .. $ENZY $POPE $MONT
p3452
sg14
Vhttp://socialadcenter.com
p3453
sg16
I00
sg17
I00
sg18
Nsg19
g0
(g20
g5
Ntp3454
Rp3455
(dp3456
g24
I00
sg25
I00
sg26
I01
sg27
VDDEEF6
p3457
sg29
L2730855593L
sg30
I00
sg31
(dp3458
g85
(dp3459
g35
(lp3460
(dp3461
g85
Vhttp://t.co/UWzH8kOOl9
p3462
sg154
(lp3463
I0
aI22
asg165
Vhttp://PennyStockSecret.com
p3464
sg167
VPennyStockSecret.com
p3465
sassg33
(dp3466
g35
(lp3467
(dp3468
g85
Vhttp://t.co/UWzH8kOOl9
p3469
sg154
(lp3470
I11
aI33
asg165
Vhttp://PennyStockSecret.com
p3471
sg167
VPennyStockSecret.com
p3472
sasssg37
Vhttps://pbs.twimg.com/profile_images/573247485616889856/gHAtYS9O_normal.png
p3473
sg39
(dp3474
g41
I00
sg42
I00
sg43
I01
sg44
I00
sg45
L2730855593L
sg46
Vhttps://abs.twimg.com/images/themes/theme1/bg.png
p3475
sg48
I00
sg49
V333333
p3476
sg51
g3473
sg52
g3457
sg53
g3458
sg54
I2515
sg55
VC0DEED
p3477
sg57
V2730855593
p3478
sg59
VC0DEED
p3479
sg61
I25
sg62
I00
sg63
I0
sg64
I53231
sg33
VSign up to http://t.co/UWzH8kOOl9  and get the premiere penny stock newsletter for free! make sure you subscribe today!
p3480
sg66
I9
sg67
VUSA
p3481
sg68
V0084B4
p3482
sg70
Vhttp://pbs.twimg.com/profile_images/573247485616889856/gHAtYS9O_normal.png
p3483
sg72
I00
sg73
I00
sg1170
Vhttps://pbs.twimg.com/profile_banners/2730855593/1425507876
p3484
sg74
Vhttp://abs.twimg.com/images/themes/theme1/bg.png
p3485
sg76
Vstockschamp
p3486
sg78
Ven
p3487
sg80
I00
sg81
I0
sg82
Vstockschamp
p3488
sg84
I00
sg85
Vhttp://t.co/UWzH8kOOl9
p3489
sg86
VFri Aug 01 16:39:24 +0000 2014
p3490
sg88
I00
sg89
VDublin
p3491
sg91
I00
sg92
I01
sg93
I00
ssg94
I00
sg95
g3476
sg96
I2515
sg97
g3477
sg98
g3478
sg99
I00
sg100
I25
sg101
I00
sg102
I0
sg103
I53231
sg104
g3480
sg105
I9
sg106
g3481
sg107
g3482
sg108
g3483
sg109
I00
sg110
I00
sg111
g3479
sg1179
g3484
sg112
g3485
sg113
g3486
sg114
g3487
sg115
I00
sg116
I00
sg117
I0
sg118
g3488
sg119
g3489
sg120
g121
(S"\x07\xde\x08\x01\x10'\x18\x00\x00\x00"
p3492
tp3493
Rp3494
sg125
g3475
sg126
g3491
sg127
I00
sg128
I01
sg129
I00
sbsg130
Nsg29
L661585865198579713L
sg131
I0
sg132
VSocial Ad Center
p3495
sg114
Ven
p3496
sg135
g3455
sg120
g121
(S'\x07\xdf\x0b\x03\x1008\x00\x00\x00'
p3497
tp3498
Rp3499
sg39
(dp3500
g140
Nsg141
I00
sg142
g3452
sg143
I00
sg144
Nsg45
L661585865198579713L
sg145
I0
sg146
V<a href="http://socialadcenter.com" rel="nofollow">Social Ad Center</a>
p3501
sg148
I00
sg149
Nsg53
(dp3502
g151
(lp3503
(dp3504
g154
(lp3505
I86
aI91
asg142
VENZY
p3506
sa(dp3507
g154
(lp3508
I92
aI97
asg142
VPOPE
p3509
sa(dp3510
g154
(lp3511
I98
aI103
asg142
VMONT
p3512
sasg157
(lp3513
sg159
(lp3514
sg35
(lp3515
(dp3516
g85
Vhttps://t.co/8WvnrVmkBS
p3517
sg154
(lp3518
I59
aI82
asg165
Vhttp://PennyStockSecret.com
p3519
sg167
VPennyStockSecret.com
p3520
sassg200
Nsg201
Nsg202
I0
sg57
V661585865198579713
p3521
sg204
I00
sg205
g3474
sg206
Nsg207
Nsg208
I00
sg78
g3496
sg86
VTue Nov 03 16:48:56 +0000 2015
p3522
sg210
Nsg211
Nsg212
(dp3523
g214
Ven
p3524
sg216
Vrecent
p3525
sssg218
g3523
sg219
Nsg220
Nsg31
g3502
sg221
Nsg222
Nsg98
g3521
sg223
I00
sg224
Nsg225
I0
sg226
Nsbag0
(g4
g5
Ntp3526
Rp3527
(dp3528
g9
I00
sg10
Nsg11
I00
sg12
VOur Stock Pick On $GEQU Is Up 3,085.71% For Our Platinum Members! Subscribe Today: https://t.co/vokJGdW3OC $ENZY $POPE $MONT
p3529
sg14
Vhttp://twitter.com
p3530
sg16
I00
sg17
I00
sg18
Nsg19
g0
(g20
g5
Ntp3531
Rp3532
(dp3533
g24
I00
sg25
I00
sg26
I01
sg27
VDDEEF6
p3534
sg29
L3315798743L
sg30
I00
sg31
(dp3535
g33
(dp3536
g35
(lp3537
sssg37
Vhttps://pbs.twimg.com/profile_images/608367794644787200/7Js9oXKP_normal.jpg
p3538
sg39
(dp3539
g41
I00
sg42
I00
sg43
I01
sg44
I00
sg45
L3315798743L
sg46
Vhttps://abs.twimg.com/images/themes/theme1/bg.png
p3540
sg48
I00
sg49
V333333
p3541
sg51
g3538
sg52
g3534
sg53
g3535
sg54
I12606
sg55
VC0DEED
p3542
sg57
V3315798743
p3543
sg59
VC0DEED
p3544
sg61
I55
sg62
I00
sg63
Nsg64
I82879
sg33
g65
sg66
I0
sg67
g65
sg68
V0084B4
p3545
sg70
Vhttp://pbs.twimg.com/profile_images/608367794644787200/7Js9oXKP_normal.jpg
p3546
sg72
I00
sg73
I00
sg74
Vhttp://abs.twimg.com/images/themes/theme1/bg.png
p3547
sg76
VStockfiendz
p3548
sg78
Ven
p3549
sg80
I00
sg81
I0
sg82
VMichael Cook
p3550
sg84
I00
sg85
Nsg86
VTue Jun 09 20:16:31 +0000 2015
p3551
sg88
I00
sg89
Nsg91
I00
sg92
I01
sg93
I00
ssg94
I00
sg95
g3541
sg96
I12606
sg97
g3542
sg98
g3543
sg99
I00
sg100
I55
sg101
I00
sg102
Nsg103
I82879
sg104
g65
sg105
I0
sg106
g65
sg107
g3545
sg108
g3546
sg109
I00
sg110
I00
sg111
g3544
sg112
g3547
sg113
g3548
sg114
g3549
sg115
I00
sg116
I00
sg117
I0
sg118
g3550
sg119
Nsg120
g121
(S'\x07\xdf\x06\t\x14\x10\x1f\x00\x00\x00'
p3552
tp3553
Rp3554
sg125
g3540
sg126
Nsg127
I00
sg128
I01
sg129
I00
sbsg130
Nsg29
L661551383154458624L
sg131
I0
sg132
VTwitter Web Client
p3555
sg114
Ven
p3556
sg135
g3532
sg120
g121
(S'\x07\xdf\x0b\x03\x0e\x1f7\x00\x00\x00'
p3557
tp3558
Rp3559
sg39
(dp3560
g140
Nsg141
I00
sg142
g3529
sg143
I00
sg144
Nsg45
L661551383154458624L
sg145
I0
sg146
V<a href="http://twitter.com" rel="nofollow">Twitter Web Client</a>
p3561
sg148
I00
sg149
Nsg53
(dp3562
g151
(lp3563
(dp3564
g154
(lp3565
I18
aI23
asg142
VGEQU
p3566
sa(dp3567
g154
(lp3568
I107
aI112
asg142
VENZY
p3569
sa(dp3570
g154
(lp3571
I113
aI118
asg142
VPOPE
p3572
sa(dp3573
g154
(lp3574
I119
aI124
asg142
VMONT
p3575
sasg157
(lp3576
sg159
(lp3577
sg35
(lp3578
(dp3579
g85
Vhttps://t.co/vokJGdW3OC
p3580
sg154
(lp3581
I83
aI106
asg165
Vhttp://goo.gl/lBllxk
p3582
sg167
Vgoo.gl/lBllxk
p3583
sassg200
Nsg201
Nsg202
I0
sg57
V661551383154458624
p3584
sg204
I00
sg205
g3539
sg206
Nsg207
Nsg208
I00
sg78
g3556
sg86
VTue Nov 03 14:31:55 +0000 2015
p3585
sg210
Nsg211
Nsg212
(dp3586
g214
Ven
p3587
sg216
Vrecent
p3588
sssg218
g3586
sg219
Nsg220
Nsg31
g3562
sg221
Nsg222
Nsg98
g3584
sg223
I00
sg224
Nsg225
I0
sg226
Nsbag0
(g4
g5
Ntp3589
Rp3590
(dp3591
g9
I00
sg10
Nsg11
I00
sg12
VOur Pick On $GEQU Multiplied More Than 35 Times It's Value Since The Initial Alert! Big News: https://t.co/YzphAts7wM $ENZY $POPE $MONT
p3592
sg14
Vhttp://twitter.com
p3593
sg16
I00
sg17
I00
sg18
Nsg19
g0
(g20
g5
Ntp3594
Rp3595
(dp3596
g24
I00
sg25
I00
sg26
I01
sg27
VDDEEF6
p3597
sg29
L3243313260L
sg30
I00
sg31
(dp3598
g33
(dp3599
g35
(lp3600
sssg37
Vhttps://pbs.twimg.com/profile_images/609376154588286976/l9qz1Ibc_normal.jpg
p3601
sg39
(dp3602
g41
I00
sg42
I00
sg43
I01
sg44
I00
sg45
L3243313260L
sg46
Vhttps://abs.twimg.com/images/themes/theme1/bg.png
p3603
sg48
I00
sg49
V333333
p3604
sg51
g3601
sg52
g3597
sg53
g3598
sg54
I19956
sg55
VC0DEED
p3605
sg57
V3243313260
p3606
sg59
VC0DEED
p3607
sg61
I55
sg62
I00
sg63
Nsg64
I81515
sg33
g65
sg66
I0
sg67
g65
sg68
V0084B4
p3608
sg70
Vhttp://pbs.twimg.com/profile_images/609376154588286976/l9qz1Ibc_normal.jpg
p3609
sg72
I00
sg73
I00
sg74
Vhttp://abs.twimg.com/images/themes/theme1/bg.png
p3610
sg76
VTheStockGuyz
p3611
sg78
Ven
p3612
sg80
I00
sg81
I0
sg82
VMichael James
p3613
sg84
I00
sg85
Nsg86
VFri Jun 12 14:53:00 +0000 2015
p3614
sg88
I00
sg89
Nsg91
I00
sg92
I01
sg93
I00
ssg94
I00
sg95
g3604
sg96
I19956
sg97
g3605
sg98
g3606
sg99
I00
sg100
I55
sg101
I00
sg102
Nsg103
I81515
sg104
g65
sg105
I0
sg106
g65
sg107
g3608
sg108
g3609
sg109
I00
sg110
I00
sg111
g3607
sg112
g3610
sg113
g3611
sg114
g3612
sg115
I00
sg116
I00
sg117
I0
sg118
g3613
sg119
Nsg120
g121
(S'\x07\xdf\x06\x0c\x0e5\x00\x00\x00\x00'
p3615
tp3616
Rp3617
sg125
g3603
sg126
Nsg127
I00
sg128
I01
sg129
I00
sbsg130
Nsg29
L661535111175921665L
sg131
I0
sg132
VTwitter Web Client
p3618
sg114
Ven
p3619
sg135
g3595
sg120
g121
(S'\x07\xdf\x0b\x03\r\x1b\x0f\x00\x00\x00'
p3620
tp3621
Rp3622
sg39
(dp3623
g140
Nsg141
I00
sg142
g3592
sg143
I00
sg144
Nsg45
L661535111175921665L
sg145
I0
sg146
V<a href="http://twitter.com" rel="nofollow">Twitter Web Client</a>
p3624
sg148
I00
sg149
Nsg53
(dp3625
g151
(lp3626
(dp3627
g154
(lp3628
I12
aI17
asg142
VGEQU
p3629
sa(dp3630
g154
(lp3631
I118
aI123
asg142
VENZY
p3632
sa(dp3633
g154
(lp3634
I124
aI129
asg142
VPOPE
p3635
sa(dp3636
g154
(lp3637
I130
aI135
asg142
VMONT
p3638
sasg157
(lp3639
sg159
(lp3640
sg35
(lp3641
(dp3642
g85
Vhttps://t.co/YzphAts7wM
p3643
sg154
(lp3644
I94
aI117
asg165
Vhttp://bit.ly/1VTm35C
p3645
sg167
Vbit.ly/1VTm35C
p3646
sassg200
Nsg201
Nsg202
I0
sg57
V661535111175921665
p3647
sg204
I00
sg205
g3602
sg206
Nsg207
Nsg208
I00
sg78
g3619
sg86
VTue Nov 03 13:27:15 +0000 2015
p3648
sg210
Nsg211
Nsg212
(dp3649
g214
Ven
p3650
sg216
Vrecent
p3651
sssg218
g3649
sg219
Nsg220
Nsg31
g3625
sg221
Nsg222
Nsg98
g3647
sg223
I00
sg224
Nsg225
I0
sg226
Nsbag0
(g4
g5
Ntp3652
Rp3653
(dp3654
g9
I00
sg10
Nsg11
I00
sg12
VOur Stock Alerts Gained Over 1,900% In 2 And A Half Months! See Our Special New Pick: https://t.co/rdhi4T4cqG $ENZY $POPE $MONT
p3655
sg14
Vhttp://twitter.com
p3656
sg16
I00
sg17
I00
sg18
Nsg19
g0
(g20
g5
Ntp3657
Rp3658
(dp3659
g24
I00
sg25
I00
sg26
I01
sg27
VDDEEF6
p3660
sg29
L2447967798L
sg30
I00
sg31
(dp3661
g33
(dp3662
g35
(lp3663
(dp3664
g85
Vhttp://t.co/d1PvG67PuC
p3665
sg154
(lp3666
I80
aI102
asg165
Vhttp://tinyurl.com/mcsbvzz
p3667
sg167
Vtinyurl.com/mcsbvzz
p3668
sasssg37
Vhttps://pbs.twimg.com/profile_images/456529846420525056/wLucrlXI_normal.jpeg
p3669
sg39
(dp3670
g41
I00
sg42
I00
sg43
I01
sg44
I00
sg45
L2447967798L
sg46
Vhttps://abs.twimg.com/images/themes/theme1/bg.png
p3671
sg48
I00
sg49
V333333
p3672
sg51
g3669
sg52
g3660
sg53
g3661
sg54
I14103
sg55
VC0DEED
p3673
sg57
V2447967798
p3674
sg59
VC0DEED
p3675
sg61
I101
sg62
I00
sg63
Nsg64
I443646
sg33
VRead our full disclaimer before looking at any of our tweets! Full Disclaimer:  http://t.co/d1PvG67PuC
p3676
sg66
I8
sg67
g65
sg68
V0084B4
p3677
sg70
Vhttp://pbs.twimg.com/profile_images/456529846420525056/wLucrlXI_normal.jpeg
p3678
sg72
I00
sg73
I00
sg74
Vhttp://abs.twimg.com/images/themes/theme1/bg.png
p3679
sg76
VStockaholics
p3680
sg78
Ven
p3681
sg80
I00
sg81
I22
sg82
VStockaholics
p3682
sg84
I00
sg85
Nsg86
VWed Apr 16 20:27:43 +0000 2014
p3683
sg88
I00
sg89
Nsg91
I00
sg92
I01
sg93
I00
ssg94
I00
sg95
g3672
sg96
I14103
sg97
g3673
sg98
g3674
sg99
I00
sg100
I101
sg101
I00
sg102
Nsg103
I443646
sg104
g3676
sg105
I8
sg106
g65
sg107
g3677
sg108
g3678
sg109
I00
sg110
I00
sg111
g3675
sg112
g3679
sg113
g3680
sg114
g3681
sg115
I00
sg116
I00
sg117
I22
sg118
g3682
sg119
Nsg120
g121
(S'\x07\xde\x04\x10\x14\x1b+\x00\x00\x00'
p3684
tp3685
Rp3686
sg125
g3671
sg126
Nsg127
I00
sg128
I01
sg129
I00
sbsg130
Nsg29
L661394985464569856L
sg131
I0
sg132
VTwitter Web Client
p3687
sg114
Ven
p3688
sg135
g3658
sg120
g121
(S'\x07\xdf\x0b\x03\x04\n\x1b\x00\x00\x00'
p3689
tp3690
Rp3691
sg39
(dp3692
g140
Nsg141
I00
sg142
g3655
sg143
I00
sg144
Nsg45
L661394985464569856L
sg145
I0
sg146
V<a href="http://twitter.com" rel="nofollow">Twitter Web Client</a>
p3693
sg148
I00
sg149
Nsg53
(dp3694
g151
(lp3695
(dp3696
g154
(lp3697
I110
aI115
asg142
VENZY
p3698
sa(dp3699
g154
(lp3700
I116
aI121
asg142
VPOPE
p3701
sa(dp3702
g154
(lp3703
I122
aI127
asg142
VMONT
p3704
sasg157
(lp3705
sg159
(lp3706
sg35
(lp3707
(dp3708
g85
Vhttps://t.co/rdhi4T4cqG
p3709
sg154
(lp3710
I86
aI109
asg165
Vhttp://bit.ly/1P4EFQ5
p3711
sg167
Vbit.ly/1P4EFQ5
p3712
sassg200
Nsg201
Nsg202
I0
sg57
V661394985464569856
p3713
sg204
I00
sg205
g3670
sg206
Nsg207
Nsg208
I00
sg78
g3688
sg86
VTue Nov 03 04:10:27 +0000 2015
p3714
sg210
Nsg211
Nsg212
(dp3715
g214
Ven
p3716
sg216
Vrecent
p3717
sssg218
g3715
sg219
Nsg220
Nsg31
g3694
sg221
Nsg222
Nsg98
g3713
sg223
I00
sg224
Nsg225
I0
sg226
Nsbag0
(g4
g5
Ntp3718
Rp3719
(dp3720
g9
I00
sg10
Nsg11
I00
sg12
VOur Pick On $HCTI More Than Tripled For Our Members, In 3 Weeks! Subscribe For Our New Picks: https://t.co/6sqzAAvjDY $ENZY $POPE $MONT
p3721
sg14
Vhttp://twitter.com
p3722
sg16
I00
sg17
I00
sg18
Nsg19
g0
(g20
g5
Ntp3723
Rp3724
(dp3725
g24
I00
sg25
I00
sg26
I01
sg27
VDDEEF6
p3726
sg29
L2447928920L
sg30
I00
sg31
(dp3727
g33
(dp3728
g35
(lp3729
(dp3730
g85
Vhttp://t.co/QYxLf9LJ7f
p3731
sg154
(lp3732
I94
aI116
asg165
Vhttp://www.pennystockdream.com/disclaimer
p3733
sg167
Vpennystockdream.com/disclaimer
p3734
sasssg37
Vhttps://pbs.twimg.com/profile_images/456523892308201472/sBGAsJTn_normal.png
p3735
sg39
(dp3736
g41
I00
sg42
I00
sg43
I01
sg44
I00
sg45
L2447928920L
sg46
Vhttps://abs.twimg.com/images/themes/theme1/bg.png
p3737
sg48
I00
sg49
V333333
p3738
sg51
g3735
sg52
g3726
sg53
g3727
sg54
I4321
sg55
VC0DEED
p3739
sg57
V2447928920
p3740
sg59
VC0DEED
p3741
sg61
I60
sg62
I00
sg63
Nsg64
I179299
sg33
VATTENTION: Read full disclaimer before looking at any of our tweets! Link To Full Disclaimer: http://t.co/QYxLf9LJ7f
p3742
sg66
I0
sg67
g65
sg68
V0084B4
p3743
sg70
Vhttp://pbs.twimg.com/profile_images/456523892308201472/sBGAsJTn_normal.png
p3744
sg72
I00
sg73
I00
sg74
Vhttp://abs.twimg.com/images/themes/theme1/bg.png
p3745
sg76
VStockenheimer1
p3746
sg78
Ven
p3747
sg80
I00
sg81
I0
sg82
VStockenheimerSchmidt
p3748
sg84
I00
sg85
Nsg86
VWed Apr 16 20:03:52 +0000 2014
p3749
sg88
I00
sg89
Nsg91
I00
sg92
I01
sg93
I00
ssg94
I00
sg95
g3738
sg96
I4321
sg97
g3739
sg98
g3740
sg99
I00
sg100
I60
sg101
I00
sg102
Nsg103
I179299
sg104
g3742
sg105
I0
sg106
g65
sg107
g3743
sg108
g3744
sg109
I00
sg110
I00
sg111
g3741
sg112
g3745
sg113
g3746
sg114
g3747
sg115
I00
sg116
I00
sg117
I0
sg118
g3748
sg119
Nsg120
g121
(S'\x07\xde\x04\x10\x14\x034\x00\x00\x00'
p3750
tp3751
Rp3752
sg125
g3737
sg126
Nsg127
I00
sg128
I01
sg129
I00
sbsg130
Nsg29
L661393972082921472L
sg131
I0
sg132
VTwitter Web Client
p3753
sg114
Ven
p3754
sg135
g3724
sg120
g121
(S'\x07\xdf\x0b\x03\x04\x06\x19\x00\x00\x00'
p3755
tp3756
Rp3757
sg39
(dp3758
g140
Nsg141
I00
sg142
g3721
sg143
I00
sg144
Nsg45
L661393972082921472L
sg145
I0
sg146
V<a href="http://twitter.com" rel="nofollow">Twitter Web Client</a>
p3759
sg148
I00
sg149
Nsg53
(dp3760
g151
(lp3761
(dp3762
g154
(lp3763
I12
aI17
asg142
VHCTI
p3764
sa(dp3765
g154
(lp3766
I118
aI123
asg142
VENZY
p3767
sa(dp3768
g154
(lp3769
I124
aI129
asg142
VPOPE
p3770
sa(dp3771
g154
(lp3772
I130
aI135
asg142
VMONT
p3773
sasg157
(lp3774
sg159
(lp3775
sg35
(lp3776
(dp3777
g85
Vhttps://t.co/6sqzAAvjDY
p3778
sg154
(lp3779
I94
aI117
asg165
Vhttp://ow.ly/SP8LD
p3780
sg167
Vow.ly/SP8LD
p3781
sassg200
Nsg201
Nsg202
I0
sg57
V661393972082921472
p3782
sg204
I00
sg205
g3736
sg206
Nsg207
Nsg208
I00
sg78
g3754
sg86
VTue Nov 03 04:06:25 +0000 2015
p3783
sg210
Nsg211
Nsg212
(dp3784
g214
Ven
p3785
sg216
Vrecent
p3786
sssg218
g3784
sg219
Nsg220
Nsg31
g3760
sg221
Nsg222
Nsg98
g3782
sg223
I00
sg224
Nsg225
I0
sg226
Nsbag0
(g4
g5
Ntp3787
Rp3788
(dp3789
g9
I00
sg10
Nsg11
I00
sg12
VOur Platinum Members Have Been Seeing MASSIVE Gains On Our Penny Stock Picks! Subscribe Today: https://t.co/ro7o3SYbd1 $ENZY $POPE $MONT
p3790
sg14
Vhttp://twitter.com
p3791
sg16
I00
sg17
I00
sg18
Nsg19
g0
(g20
g5
Ntp3792
Rp3793
(dp3794
g24
I00
sg25
I00
sg26
I01
sg27
VDDEEF6
p3795
sg29
L2447901655L
sg30
I00
sg31
(dp3796
g33
(dp3797
g35
(lp3798
(dp3799
g85
Vhttp://t.co/QYxLf9LJ7f
p3800
sg154
(lp3801
I94
aI116
asg165
Vhttp://www.pennystockdream.com/disclaimer
p3802
sg167
Vpennystockdream.com/disclaimer
p3803
sasssg37
Vhttps://pbs.twimg.com/profile_images/456519281744703490/M4G5Ld8j_normal.jpeg
p3804
sg39
(dp3805
g41
I00
sg42
I00
sg43
I01
sg44
I00
sg45
L2447901655L
sg46
Vhttps://abs.twimg.com/images/themes/theme1/bg.png
p3806
sg48
I00
sg49
V333333
p3807
sg51
g3804
sg52
g3795
sg53
g3796
sg54
I13505
sg55
VC0DEED
p3808
sg57
V2447901655
p3809
sg59
VC0DEED
p3810
sg61
I79
sg62
I00
sg63
Nsg64
I234690
sg33
VATTENTION: Read full disclaimer before looking at any of our tweets! Link To Full Disclaimer: http://t.co/QYxLf9LJ7f
p3811
sg66
I1
sg67
g65
sg68
V0084B4
p3812
sg70
Vhttp://pbs.twimg.com/profile_images/456519281744703490/M4G5Ld8j_normal.jpeg
p3813
sg72
I00
sg73
I00
sg74
Vhttp://abs.twimg.com/images/themes/theme1/bg.png
p3814
sg76
VStockRocketzz
p3815
sg78
Ven
p3816
sg80
I00
sg81
I0
sg82
VStock Rocket
p3817
sg84
I00
sg85
Nsg86
VWed Apr 16 19:44:35 +0000 2014
p3818
sg88
I00
sg89
Nsg91
I00
sg92
I01
sg93
I00
ssg94
I00
sg95
g3807
sg96
I13505
sg97
g3808
sg98
g3809
sg99
I00
sg100
I79
sg101
I00
sg102
Nsg103
I234690
sg104
g3811
sg105
I1
sg106
g65
sg107
g3812
sg108
g3813
sg109
I00
sg110
I00
sg111
g3810
sg112
g3814
sg113
g3815
sg114
g3816
sg115
I00
sg116
I00
sg117
I0
sg118
g3817
sg119
Nsg120
g121
(S'\x07\xde\x04\x10\x13,#\x00\x00\x00'
p3819
tp3820
Rp3821
sg125
g3806
sg126
Nsg127
I00
sg128
I01
sg129
I00
sbsg130
Nsg29
L661390168486748164L
sg131
I0
sg132
VTwitter Web Client
p3822
sg114
Ven
p3823
sg135
g3793
sg120
g121
(S'\x07\xdf\x0b\x03\x033\x12\x00\x00\x00'
p3824
tp3825
Rp3826
sg39
(dp3827
g140
Nsg141
I00
sg142
g3790
sg143
I00
sg144
Nsg45
L661390168486748164L
sg145
I0
sg146
V<a href="http://twitter.com" rel="nofollow">Twitter Web Client</a>
p3828
sg148
I00
sg149
Nsg53
(dp3829
g151
(lp3830
(dp3831
g154
(lp3832
I119
aI124
asg142
VENZY
p3833
sa(dp3834
g154
(lp3835
I125
aI130
asg142
VPOPE
p3836
sa(dp3837
g154
(lp3838
I131
aI136
asg142
VMONT
p3839
sasg157
(lp3840
sg159
(lp3841
sg35
(lp3842
(dp3843
g85
Vhttps://t.co/ro7o3SYbd1
p3844
sg154
(lp3845
I95
aI118
asg165
Vhttp://tinyurl.com/o3lgmg3
p3846
sg167
Vtinyurl.com/o3lgmg3
p3847
sassg200
Nsg201
Nsg202
I0
sg57
V661390168486748164
p3848
sg204
I00
sg205
g3805
sg206
Nsg207
Nsg208
I00
sg78
g3823
sg86
VTue Nov 03 03:51:18 +0000 2015
p3849
sg210
Nsg211
Nsg212
(dp3850
g214
Ven
p3851
sg216
Vrecent
p3852
sssg218
g3850
sg219
Nsg220
Nsg31
g3829
sg221
Nsg222
Nsg98
g3848
sg223
I00
sg224
Nsg225
I0
sg226
Nsbag0
(g4
g5
Ntp3853
Rp3854
(dp3855
g9
I00
sg10
Nsg11
I00
sg12
V$GEQU Has Increased Almost 20 TIMES In Value, For Our Subscribers! Huge News: https://t.co/viouXok21i $ENZY $POPE $MONT
p3856
sg14
Vhttp://twitter.com
p3857
sg16
I00
sg17
I00
sg18
Nsg19
g0
(g20
g5
Ntp3858
Rp3859
(dp3860
g24
I00
sg25
I00
sg26
I01
sg27
VDDEEF6
p3861
sg29
L3091880403L
sg30
I00
sg31
(dp3862
g33
(dp3863
g35
(lp3864
(dp3865
g85
Vhttp://t.co/d1PvG67hF4
p3866
sg154
(lp3867
I79
aI101
asg165
Vhttp://tinyurl.com/mcsbvzz
p3868
sg167
Vtinyurl.com/mcsbvzz
p3869
sasssg37
Vhttps://pbs.twimg.com/profile_images/576985932299026432/vGRv_VM-_normal.png
p3870
sg39
(dp3871
g41
I00
sg42
I00
sg43
I01
sg44
I00
sg45
L3091880403L
sg46
Vhttps://abs.twimg.com/images/themes/theme1/bg.png
p3872
sg48
I00
sg49
V333333
p3873
sg51
g3870
sg52
g3861
sg53
g3862
sg54
I15272
sg55
VC0DEED
p3874
sg57
V3091880403
p3875
sg59
VC0DEED
p3876
sg61
I71
sg62
I00
sg63
Nsg64
I173961
sg33
VRead our full disclaimer before looking at any of our tweets! Full Disclaimer: http://t.co/d1PvG67hF4
p3877
sg66
I0
sg67
g65
sg68
V0084B4
p3878
sg70
Vhttp://pbs.twimg.com/profile_images/576985932299026432/vGRv_VM-_normal.png
p3879
sg72
I00
sg73
I00
sg74
Vhttp://abs.twimg.com/images/themes/theme1/bg.png
p3880
sg76
VPennyStockingt
p3881
sg78
Ven
p3882
sg80
I00
sg81
I1
sg82
VPenny Stockington
p3883
sg84
I00
sg85
Nsg86
VSun Mar 15 05:57:31 +0000 2015
p3884
sg88
I00
sg89
Nsg91
I00
sg92
I01
sg93
I00
ssg94
I00
sg95
g3873
sg96
I15272
sg97
g3874
sg98
g3875
sg99
I00
sg100
I71
sg101
I00
sg102
Nsg103
I173961
sg104
g3877
sg105
I0
sg106
g65
sg107
g3878
sg108
g3879
sg109
I00
sg110
I00
sg111
g3876
sg112
g3880
sg113
g3881
sg114
g3882
sg115
I00
sg116
I00
sg117
I1
sg118
g3883
sg119
Nsg120
g121
(S'\x07\xdf\x03\x0f\x059\x1f\x00\x00\x00'
p3885
tp3886
Rp3887
sg125
g3872
sg126
Nsg127
I00
sg128
I01
sg129
I00
sbsg130
Nsg29
L661388527826026496L
sg131
I0
sg132
VTwitter Web Client
p3888
sg114
Ven
p3889
sg135
g3859
sg120
g121
(S'\x07\xdf\x0b\x03\x03,/\x00\x00\x00'
p3890
tp3891
Rp3892
sg39
(dp3893
g140
Nsg141
I00
sg142
g3856
sg143
I00
sg144
Nsg45
L661388527826026496L
sg145
I0
sg146
V<a href="http://twitter.com" rel="nofollow">Twitter Web Client</a>
p3894
sg148
I00
sg149
Nsg53
(dp3895
g151
(lp3896
(dp3897
g154
(lp3898
I0
aI5
asg142
VGEQU
p3899
sa(dp3900
g154
(lp3901
I102
aI107
asg142
VENZY
p3902
sa(dp3903
g154
(lp3904
I108
aI113
asg142
VPOPE
p3905
sa(dp3906
g154
(lp3907
I114
aI119
asg142
VMONT
p3908
sasg157
(lp3909
sg159
(lp3910
sg35
(lp3911
(dp3912
g85
Vhttps://t.co/viouXok21i
p3913
sg154
(lp3914
I78
aI101
asg165
Vhttp://tr.im/abvm6
p3915
sg167
Vtr.im/abvm6
p3916
sassg200
Nsg201
Nsg202
I0
sg57
V661388527826026496
p3917
sg204
I00
sg205
g3871
sg206
Nsg207
Nsg208
I00
sg78
g3889
sg86
VTue Nov 03 03:44:47 +0000 2015
p3918
sg210
Nsg211
Nsg212
(dp3919
g214
Ven
p3920
sg216
Vrecent
p3921
sssg218
g3919
sg219
Nsg220
Nsg31
g3895
sg221
Nsg222
Nsg98
g3917
sg223
I00
sg224
Nsg225
I0
sg226
Nsbag0
(g4
g5
Ntp3922
Rp3923
(dp3924
g9
I00
sg10
Nsg11
I00
sg12
VOur Stock Alerts Have Been Seeing Record Gains! Our New Pick Will Be MASSIVE: https://t.co/DXRm9DTWiK $ENZY $POPE $MONT
p3925
sg14
Vhttp://twitter.com
p3926
sg16
I00
sg17
I00
sg18
Nsg19
g0
(g20
g5
Ntp3927
Rp3928
(dp3929
g24
I00
sg25
I00
sg26
I01
sg27
VDDEEF6
p3930
sg29
L3091884801L
sg30
I00
sg31
(dp3931
g33
(dp3932
g35
(lp3933
(dp3934
g85
Vhttp://t.co/d1PvG67hF4
p3935
sg154
(lp3936
I79
aI101
asg165
Vhttp://tinyurl.com/mcsbvzz
p3937
sg167
Vtinyurl.com/mcsbvzz
p3938
sasssg37
Vhttps://pbs.twimg.com/profile_images/576989971883499521/yv0Bp7te_normal.jpeg
p3939
sg39
(dp3940
g41
I00
sg42
I00
sg43
I01
sg44
I00
sg45
L3091884801L
sg46
Vhttps://abs.twimg.com/images/themes/theme1/bg.png
p3941
sg48
I00
sg49
V333333
p3942
sg51
g3939
sg52
g3930
sg53
g3931
sg54
I15267
sg55
VC0DEED
p3943
sg57
V3091884801
p3944
sg59
VC0DEED
p3945
sg61
I65
sg62
I00
sg63
Nsg64
I170509
sg33
VRead our full disclaimer before looking at any of our tweets! Full Disclaimer: http://t.co/d1PvG67hF4
p3946
sg66
I1
sg67
g65
sg68
V0084B4
p3947
sg70
Vhttp://pbs.twimg.com/profile_images/576989971883499521/yv0Bp7te_normal.jpeg
p3948
sg72
I00
sg73
I00
sg74
Vhttp://abs.twimg.com/images/themes/theme1/bg.png
p3949
sg76
VStockDawgzz
p3950
sg78
Ven
p3951
sg80
I00
sg81
I0
sg82
VStock Dawgzz
p3952
sg84
I00
sg85
Nsg86
VSun Mar 15 06:13:17 +0000 2015
p3953
sg88
I00
sg89
Nsg91
I00
sg92
I01
sg93
I00
ssg94
I00
sg95
g3942
sg96
I15267
sg97
g3943
sg98
g3944
sg99
I00
sg100
I65
sg101
I00
sg102
Nsg103
I170509
sg104
g3946
sg105
I1
sg106
g65
sg107
g3947
sg108
g3948
sg109
I00
sg110
I00
sg111
g3945
sg112
g3949
sg113
g3950
sg114
g3951
sg115
I00
sg116
I00
sg117
I0
sg118
g3952
sg119
Nsg120
g121
(S'\x07\xdf\x03\x0f\x06\r\x11\x00\x00\x00'
p3954
tp3955
Rp3956
sg125
g3941
sg126
Nsg127
I00
sg128
I01
sg129
I00
sbsg130
Nsg29
L661371760940605440L
sg131
I0
sg132
VTwitter Web Client
p3957
sg114
Ven
p3958
sg135
g3928
sg120
g121
(S'\x07\xdf\x0b\x03\x02&\n\x00\x00\x00'
p3959
tp3960
Rp3961
sg39
(dp3962
g140
Nsg141
I00
sg142
g3925
sg143
I00
sg144
Nsg45
L661371760940605440L
sg145
I0
sg146
V<a href="http://twitter.com" rel="nofollow">Twitter Web Client</a>
p3963
sg148
I00
sg149
Nsg53
(dp3964
g151
(lp3965
(dp3966
g154
(lp3967
I102
aI107
asg142
VENZY
p3968
sa(dp3969
g154
(lp3970
I108
aI113
asg142
VPOPE
p3971
sa(dp3972
g154
(lp3973
I114
aI119
asg142
VMONT
p3974
sasg157
(lp3975
sg159
(lp3976
sg35
(lp3977
(dp3978
g85
Vhttps://t.co/DXRm9DTWiK
p3979
sg154
(lp3980
I78
aI101
asg165
Vhttp://goo.gl/NGTqcj
p3981
sg167
Vgoo.gl/NGTqcj
p3982
sassg200
Nsg201
Nsg202
I1
sg57
V661371760940605440
p3983
sg204
I00
sg205
g3940
sg206
Nsg207
Nsg208
I00
sg78
g3958
sg86
VTue Nov 03 02:38:10 +0000 2015
p3984
sg210
Nsg211
Nsg212
(dp3985
g214
Ven
p3986
sg216
Vrecent
p3987
sssg218
g3985
sg219
Nsg220
Nsg31
g3964
sg221
Nsg222
Nsg98
g3983
sg223
I00
sg224
Nsg225
I1
sg226
Nsbag0
(g4
g5
Ntp3988
Rp3989
(dp3990
g9
I00
sg10
Nsg11
I00
sg12
VRanks #1 with over 80% in alert gains today. Click here https://t.co/9Vnnw3s1D8 .. $FTNT $POPE $ESCA
p3991
sg14
Vhttp://socialadcenter.com
p3992
sg16
I00
sg17
I00
sg18
Nsg19
g0
(g20
g5
Ntp3993
Rp3994
(dp3995
g24
I00
sg25
I00
sg26
I01
sg27
VDDEEF6
p3996
sg29
L3261001351L
sg30
I00
sg31
(dp3997
g85
(dp3998
g35
(lp3999
(dp4000
g85
Vhttp://t.co/8dJZYrRhox
p4001
sg154
(lp4002
I0
aI22
asg165
Vhttp://pennystocksecret.com
p4003
sg167
Vpennystocksecret.com
p4004
sassg33
(dp4005
g35
(lp4006
(dp4007
g85
Vhttp://t.co/UWzH8kOOl9
p4008
sg154
(lp4009
I11
aI33
asg165
Vhttp://PennyStockSecret.com
p4010
sg167
VPennyStockSecret.com
p4011
sasssg37
Vhttps://pbs.twimg.com/profile_images/617517575241531392/vk4GKKpS_normal.jpg
p4012
sg39
(dp4013
g41
I00
sg42
I00
sg43
I01
sg44
I00
sg45
L3261001351L
sg46
Vhttps://abs.twimg.com/images/themes/theme1/bg.png
p4014
sg48
I00
sg49
V333333
p4015
sg51
g4012
sg52
g3996
sg53
g3997
sg54
I5237
sg55
VC0DEED
p4016
sg57
V3261001351
p4017
sg59
VC0DEED
p4018
sg61
I9
sg62
I00
sg63
I-28800
sg64
I17457
sg33
VSign up to http://t.co/UWzH8kOOl9  and get the premiere penny stock newsletter for free! make sure you subscribe today!
p4019
sg66
I12
sg67
VUnited States
p4020
sg68
V0084B4
p4021
sg70
Vhttp://pbs.twimg.com/profile_images/617517575241531392/vk4GKKpS_normal.jpg
p4022
sg72
I00
sg73
I00
sg1170
Vhttps://pbs.twimg.com/profile_banners/3261001351/1436062750
p4023
sg74
Vhttp://abs.twimg.com/images/themes/theme1/bg.png
p4024
sg76
Vstockmaster101
p4025
sg78
Ven
p4026
sg80
I00
sg81
I0
sg82
VStockmaster101
p4027
sg84
I00
sg85
Vhttp://t.co/8dJZYrRhox
p4028
sg86
VTue Jun 30 07:41:17 +0000 2015
p4029
sg88
I00
sg89
VPacific Time (US & Canada)
p4030
sg91
I00
sg92
I01
sg93
I00
ssg94
I00
sg95
g4015
sg96
I5237
sg97
g4016
sg98
g4017
sg99
I00
sg100
I9
sg101
I00
sg102
I-28800
sg103
I17457
sg104
g4019
sg105
I12
sg106
g4020
sg107
g4021
sg108
g4022
sg109
I00
sg110
I00
sg111
g4018
sg1179
g4023
sg112
g4024
sg113
g4025
sg114
g4026
sg115
I00
sg116
I00
sg117
I0
sg118
g4027
sg119
g4028
sg120
g121
(S'\x07\xdf\x06\x1e\x07)\x11\x00\x00\x00'
p4031
tp4032
Rp4033
sg125
g4014
sg126
g4030
sg127
I00
sg128
I01
sg129
I00
sbsg130
Nsg29
L661226595978358784L
sg131
I0
sg132
VSocial Ad Center
p4034
sg114
Ven
p4035
sg135
g3994
sg120
g121
(S'\x07\xdf\x0b\x02\x11\x01\x14\x00\x00\x00'
p4036
tp4037
Rp4038
sg39
(dp4039
g140
Nsg141
I00
sg142
g3991
sg143
I00
sg144
Nsg45
L661226595978358784L
sg145
I0
sg146
V<a href="http://socialadcenter.com" rel="nofollow">Social Ad Center</a>
p4040
sg148
I00
sg149
Nsg53
(dp4041
g151
(lp4042
(dp4043
g154
(lp4044
I83
aI88
asg142
VFTNT
p4045
sa(dp4046
g154
(lp4047
I89
aI94
asg142
VPOPE
p4048
sa(dp4049
g154
(lp4050
I95
aI100
asg142
VESCA
p4051
sasg157
(lp4052
sg159
(lp4053
sg35
(lp4054
(dp4055
g85
Vhttps://t.co/9Vnnw3s1D8
p4056
sg154
(lp4057
I56
aI79
asg165
Vhttp://PennyStockSecret.com
p4058
sg167
VPennyStockSecret.com
p4059
sassg200
Nsg201
Nsg202
I0
sg57
V661226595978358784
p4060
sg204
I00
sg205
g4013
sg206
Nsg207
Nsg208
I00
sg78
g4035
sg86
VMon Nov 02 17:01:20 +0000 2015
p4061
sg210
Nsg211
Nsg212
(dp4062
g214
Ven
p4063
sg216
Vrecent
p4064
sssg218
g4062
sg219
Nsg220
Nsg31
g4041
sg221
Nsg222
Nsg98
g4060
sg223
I00
sg224
Nsg225
I0
sg226
Nsbatp4065
Rp4066
(dp4067
S'count'
p4068
I100
sS'completed_in'
p4069
F0.061
sS'_since_id'
p4070
NsS'refresh_url'
p4071
V?since_id=664426858834993152&q=%24POPE&include_entities=1
p4072
sS'query'
p4073
V%24POPE
p4074
sS'_max_id'
p4075
NsS'next_results'
p4076
Nsb.