ccopy_reg
_reconstructor
p0
(ctweepy.models
SearchResults
p1
c__builtin__
list
p2
(lp3
g0
(ctweepy.models
Status
p4
c__builtin__
object
p5
Ntp6
Rp7
(dp8
S'favorited'
p9
I00
sS'contributors'
p10
NsS'truncated'
p11
I00
sS'text'
p12
VSGBK 33.44 Stonegate Bank Stock Charts $SGBK Last Updated: 11/10/15 Last price: 33.44 Total volume: 50,182 SGB https://t.co/ivqfPO6qeH
p13
sS'source_url'
p14
Vhttp://investorshangout.com/
p15
sS'possibly_sensitive'
p16
I00
sS'is_quote_status'
p17
I00
sS'in_reply_to_status_id'
p18
NsS'user'
p19
g0
(ctweepy.models
User
p20
g5
Ntp21
Rp22
(dp23
S'follow_request_sent'
p24
I00
sS'has_extended_profile'
p25
I00
sS'profile_use_background_image'
p26
I01
sS'profile_sidebar_fill_color'
p27
VDDEEF6
p28
sS'id'
p29
L2243075472L
sS'verified'
p30
I00
sS'entities'
p31
(dp32
Vdescription
p33
(dp34
Vurls
p35
(lp36
sssS'profile_image_url_https'
p37
Vhttps://pbs.twimg.com/profile_images/378800000864394998/jZdHIX6v_normal.png
p38
sS'_json'
p39
(dp40
Vfollow_request_sent
p41
I00
sVhas_extended_profile
p42
I00
sVprofile_use_background_image
p43
I01
sVdefault_profile_image
p44
I00
sVid
p45
L2243075472L
sVprofile_background_image_url_https
p46
Vhttps://abs.twimg.com/images/themes/theme1/bg.png
p47
sVverified
p48
I00
sVprofile_text_color
p49
V333333
p50
sVprofile_image_url_https
p51
g38
sVprofile_sidebar_fill_color
p52
g28
sVentities
p53
g32
sVfollowers_count
p54
I1326
sVprofile_sidebar_border_color
p55
VC0DEED
p56
sVid_str
p57
V2243075472
p58
sVprofile_background_color
p59
VC0DEED
p60
sVlisted_count
p61
I67
sVis_translation_enabled
p62
I00
sVutc_offset
p63
NsVstatuses_count
p64
I428477
sg33
VStock Charts
p65
sVfriends_count
p66
I672
sVlocation
p67
V
p68
sVprofile_link_color
p69
V0084B4
p70
sVprofile_image_url
p71
Vhttp://pbs.twimg.com/profile_images/378800000864394998/jZdHIX6v_normal.png
p72
sVfollowing
p73
I00
sVgeo_enabled
p74
I00
sVprofile_background_image_url
p75
Vhttp://abs.twimg.com/images/themes/theme1/bg.png
p76
sVscreen_name
p77
Vchartguy89
p78
sVlang
p79
Ven
p80
sVprofile_background_tile
p81
I00
sVfavourites_count
p82
I0
sVname
p83
Vchartguy89
p84
sVnotifications
p85
I00
sVurl
p86
NsVcreated_at
p87
VThu Dec 12 23:46:22 +0000 2013
p88
sVcontributors_enabled
p89
I00
sVtime_zone
p90
NsVprotected
p91
I00
sVdefault_profile
p92
I01
sVis_translator
p93
I00
ssS'contributors_enabled'
p94
I00
sS'profile_text_color'
p95
g50
sS'followers_count'
p96
I1326
sS'profile_sidebar_border_color'
p97
g56
sS'id_str'
p98
g58
sS'default_profile_image'
p99
I00
sS'listed_count'
p100
I67
sS'is_translation_enabled'
p101
I00
sS'utc_offset'
p102
NsS'statuses_count'
p103
I428477
sS'description'
p104
g65
sS'friends_count'
p105
I672
sS'location'
p106
g68
sS'profile_link_color'
p107
g70
sS'profile_image_url'
p108
g72
sS'notifications'
p109
I00
sS'geo_enabled'
p110
I00
sS'profile_background_color'
p111
g60
sS'profile_background_image_url'
p112
g76
sS'screen_name'
p113
g78
sS'lang'
p114
g80
sS'following'
p115
I00
sS'profile_background_tile'
p116
I00
sS'favourites_count'
p117
I0
sS'name'
p118
g84
sS'url'
p119
NsS'created_at'
p120
cdatetime
datetime
p121
(S'\x07\xdd\x0c\x0c\x17.\x16\x00\x00\x00'
p122
tp123
Rp124
sS'profile_background_image_url_https'
p125
g47
sS'time_zone'
p126
NsS'protected'
p127
I00
sS'default_profile'
p128
I01
sS'is_translator'
p129
I00
sbsS'geo'
p130
Nsg29
L664336944562835456L
sS'favorite_count'
p131
I0
sS'source'
p132
VInvestors Hangout
p133
sg114
Vsl
p134
sS'author'
p135
g22
sg120
g121
(S'\x07\xdf\x0b\x0b\x07\x00-\x00\x00\x00'
p136
tp137
Rp138
sg39
(dp139
Vcontributors
p140
NsVtruncated
p141
I00
sVtext
p142
g13
sVis_quote_status
p143
I00
sVin_reply_to_status_id
p144
Nsg45
L664336944562835456L
sVfavorite_count
p145
I0
sVsource
p146
V<a href="http://investorshangout.com/" rel="nofollow">Investors Hangout</a>
p147
sVretweeted
p148
I00
sVcoordinates
p149
Nsg53
(dp150
Vsymbols
p151
(lp152
(dp153
Vindices
p154
(lp155
I39
aI44
asg142
VSGBK
p156
sasVuser_mentions
p157
(lp158
sVhashtags
p159
(lp160
sg35
(lp161
(dp162
g86
Vhttps://t.co/ivqfPO6qeH
p163
sg154
(lp164
I111
aI134
asVexpanded_url
p165
Vhttp://investorshangout.com/post/view?id=3331151
p166
sVdisplay_url
p167
Vinvestorshangout.com/post/view?id=3\u2026
p168
sassVin_reply_to_screen_name
p169
NsVin_reply_to_user_id
p170
NsVretweet_count
p171
I0
sg57
V664336944562835456
p172
sVfavorited
p173
I00
sVuser
p174
g40
sVgeo
p175
NsVin_reply_to_user_id_str
p176
NsVpossibly_sensitive
p177
I00
sg79
g134
sg87
VWed Nov 11 07:00:45 +0000 2015
p178
sVin_reply_to_status_id_str
p179
NsVplace
p180
NsVmetadata
p181
(dp182
Viso_language_code
p183
Vsl
p184
sVresult_type
p185
Vrecent
p186
sssS'metadata'
p187
g182
sS'coordinates'
p188
NsS'in_reply_to_user_id_str'
p189
Nsg31
g150
sS'in_reply_to_status_id_str'
p190
NsS'in_reply_to_screen_name'
p191
Nsg98
g172
sS'retweeted'
p192
I00
sS'place'
p193
NsS'retweet_count'
p194
I0
sS'in_reply_to_user_id'
p195
Nsbag0
(g4
g5
Ntp196
Rp197
(dp198
g9
I00
sg10
Nsg11
I00
sg12
VSGBK Year to date has changed +12.90% percent. +5.86% in the last 30 days. $SGBK Stonegate Bank Full breakdown https://t.co/MHf4Js6Cuv
p199
sg14
Vhttp://investorshangout.com/
p200
sg16
I00
sg17
I00
sg18
Nsg19
g0
(g20
g5
Ntp201
Rp202
(dp203
g24
I00
sg25
I00
sg26
I01
sg27
VC0DFEC
p204
sg29
L2181314366L
sg30
I00
sg31
(dp205
g33
(dp206
g35
(lp207
sssg37
Vhttps://pbs.twimg.com/profile_images/378800000709585641/f40eea5971a3bc6d1eaaebd2b3dd4ebb_normal.jpeg
p208
sg39
(dp209
g41
I00
sg42
I00
sg43
I01
sg44
I00
sg45
L2181314366L
sg46
Vhttps://abs.twimg.com/images/themes/theme15/bg.png
p210
sg48
I00
sg49
V333333
p211
sg51
g208
sg52
g204
sg53
g205
sg54
I778
sg55
VA8C7F7
p212
sg57
V2181314366
p213
sg59
V022330
p214
sg61
I174
sg62
I00
sg63
Nsg64
I191949
sg33
VLikes to follow many stocks
p215
sg66
I444
sg67
g68
sg69
V0084B4
p216
sg71
Vhttp://pbs.twimg.com/profile_images/378800000709585641/f40eea5971a3bc6d1eaaebd2b3dd4ebb_normal.jpeg
p217
sg73
I00
sg74
I00
sg75
Vhttp://abs.twimg.com/images/themes/theme15/bg.png
p218
sg77
VJake132013
p219
sg79
Ven
p220
sg81
I00
sg82
I0
sg83
VJake13
p221
sg85
I00
sg86
Nsg87
VFri Nov 08 02:42:49 +0000 2013
p222
sg89
I00
sg90
Nsg91
I00
sg92
I00
sg93
I00
ssg94
I00
sg95
g211
sg96
I778
sg97
g212
sg98
g213
sg99
I00
sg100
I174
sg101
I00
sg102
Nsg103
I191949
sg104
g215
sg105
I444
sg106
g68
sg107
g216
sg108
g217
sg109
I00
sg110
I00
sg111
g214
sg112
g218
sg113
g219
sg114
g220
sg115
I00
sg116
I00
sg117
I0
sg118
g221
sg119
Nsg120
g121
(S'\x07\xdd\x0b\x08\x02*1\x00\x00\x00'
p223
tp224
Rp225
sg125
g210
sg126
Nsg127
I00
sg128
I00
sg129
I00
sbsg130
Nsg29
L664325685977026560L
sg131
I0
sg132
VInvestors Hangout
p226
sg114
Ven
p227
sg135
g202
sg120
g121
(S'\x07\xdf\x0b\x0b\x06\x10\x00\x00\x00\x00'
p228
tp229
Rp230
sg39
(dp231
g140
Nsg141
I00
sg142
g199
sg143
I00
sg144
Nsg45
L664325685977026560L
sg145
I0
sg146
V<a href="http://investorshangout.com/" rel="nofollow">Investors Hangout</a>
p232
sg148
I00
sg149
Nsg53
(dp233
g151
(lp234
(dp235
g154
(lp236
I75
aI80
asg142
VSGBK
p237
sasg157
(lp238
sg159
(lp239
sg35
(lp240
(dp241
g86
Vhttps://t.co/MHf4Js6Cuv
p242
sg154
(lp243
I111
aI134
asg165
Vhttp://investorshangout.com/post/view?id=3331007
p244
sg167
Vinvestorshangout.com/post/view?id=3\u2026
p245
sassg169
Nsg170
Nsg171
I0
sg57
V664325685977026560
p246
sg173
I00
sg174
g209
sg175
Nsg176
Nsg177
I00
sg79
g227
sg87
VWed Nov 11 06:16:00 +0000 2015
p247
sg179
Nsg180
Nsg181
(dp248
g183
Ven
p249
sg185
Vrecent
p250
sssg187
g248
sg188
Nsg189
Nsg31
g233
sg190
Nsg191
Nsg98
g246
sg192
I00
sg193
Nsg194
I0
sg195
Nsbag0
(g4
g5
Ntp251
Rp252
(dp253
g9
I00
sg10
Nsg11
I00
sg12
Vchartguy89: HDOG HUB: SGBK 33.07 Stonegate Bank Stock Charts $SGBK Last https://t.co/1tYiZejh9E
p254
sg14
Vhttp://dlvr.it
p255
sg16
I00
sg17
I00
sg18
Nsg19
g0
(g20
g5
Ntp256
Rp257
(dp258
g24
I00
sg25
I00
sg26
I01
sg27
VDDEEF6
p259
sg29
L2197132710L
sg30
I00
sg31
(dp260
g86
(dp261
g35
(lp262
(dp263
g86
Vhttp://t.co/l4qmOlz0qf
p264
sg154
(lp265
I0
aI22
asg165
Vhttp://InvestorsHangout.com
p266
sg167
VInvestorsHangout.com
p267
sassg33
(dp268
g35
(lp269
sssg37
Vhttps://pbs.twimg.com/profile_images/378800000745813875/a705ee71c9a8fef96f541bed97373937_normal.png
p270
sg39
(dp271
g41
I00
sg42
I00
sg43
I01
sg44
I00
sg45
L2197132710L
sg46
Vhttps://abs.twimg.com/images/themes/theme1/bg.png
p272
sg48
I00
sg49
V333333
p273
sg51
g270
sg52
g259
sg53
g260
sg54
I704
sg55
VC0DEED
p274
sg57
V2197132710
p275
sg59
VC0DEED
p276
sg61
I72
sg62
I00
sg63
I-21600
sg64
I219468
sg33
VFREE Memberships with PREMIUM UNLIMITED POSTS, unlimited PM's, Private Boards, RSS Feeds, Search features for boards & Posts, it's even Free for IRP's
p277
sg66
I426
sg67
VInvestors Hangout
p278
sg69
V0084B4
p279
sg71
Vhttp://pbs.twimg.com/profile_images/378800000745813875/a705ee71c9a8fef96f541bed97373937_normal.png
p280
sg73
I00
sg74
I00
sg75
Vhttp://abs.twimg.com/images/themes/theme1/bg.png
p281
sg77
ViHangout4
p282
sg79
Ven
p283
sg81
I00
sg82
I0
sg83
ViHangout
p284
sg85
I00
sg86
Vhttp://t.co/l4qmOlz0qf
p285
sg87
VSat Nov 16 05:10:21 +0000 2013
p286
sg89
I00
sg90
VCentral Time (US & Canada)
p287
sg91
I00
sg92
I01
sg93
I00
ssg94
I00
sg95
g273
sg96
I704
sg97
g274
sg98
g275
sg99
I00
sg100
I72
sg101
I00
sg102
I-21600
sg103
I219468
sg104
g277
sg105
I426
sg106
g278
sg107
g279
sg108
g280
sg109
I00
sg110
I00
sg111
g276
sg112
g281
sg113
g282
sg114
g283
sg115
I00
sg116
I00
sg117
I0
sg118
g284
sg119
g285
sg120
g121
(S'\x07\xdd\x0b\x10\x05\n\x15\x00\x00\x00'
p288
tp289
Rp290
sg125
g272
sg126
g287
sg127
I00
sg128
I01
sg129
I00
sbsg130
Nsg29
L664007136251240448L
sg131
I0
sg132
Vdlvr.it
p291
sg114
Ven
p292
sg135
g257
sg120
g121
(S'\x07\xdf\x0b\n\t\n\x0c\x00\x00\x00'
p293
tp294
Rp295
sg39
(dp296
g140
Nsg141
I00
sg142
g254
sg143
I00
sg144
Nsg45
L664007136251240448L
sg145
I0
sg146
V<a href="http://dlvr.it" rel="nofollow">dlvr.it</a>
p297
sg148
I00
sg149
Nsg53
(dp298
g151
(lp299
(dp300
g154
(lp301
I61
aI66
asg142
VSGBK
p302
sasg157
(lp303
sg159
(lp304
sg35
(lp305
(dp306
g86
Vhttps://t.co/1tYiZejh9E
p307
sg154
(lp308
I72
aI95
asg165
Vhttp://dlvr.it/Cj0sQ7
p309
sg167
Vdlvr.it/Cj0sQ7
p310
sassg169
Nsg170
Nsg171
I0
sg57
V664007136251240448
p311
sg173
I00
sg174
g271
sg175
Nsg176
Nsg177
I00
sg79
g292
sg87
VTue Nov 10 09:10:12 +0000 2015
p312
sg179
Nsg180
Nsg181
(dp313
g183
Ven
p314
sg185
Vrecent
p315
sssg187
g313
sg188
Nsg189
Nsg31
g298
sg190
Nsg191
Nsg98
g311
sg192
I00
sg193
Nsg194
I0
sg195
Nsbag0
(g4
g5
Ntp316
Rp317
(dp318
g9
I00
sg10
Nsg11
I00
sg12
VSGBK 33.07 Stonegate Bank Stock Charts $SGBK Last Updated: 11/09/15 Last price: 33.07 Total volume: 46,003 SGB https://t.co/i42LD1WJ8w
p319
sg14
Vhttp://investorshangout.com/
p320
sg16
I00
sg17
I00
sg18
Nsg19
g0
(g20
g5
Ntp321
Rp322
(dp323
g24
I00
sg25
I00
sg26
I01
sg27
VDDEEF6
p324
sg29
L2243075472L
sg30
I00
sg31
(dp325
g33
(dp326
g35
(lp327
sssg37
Vhttps://pbs.twimg.com/profile_images/378800000864394998/jZdHIX6v_normal.png
p328
sg39
(dp329
g41
I00
sg42
I00
sg43
I01
sg44
I00
sg45
L2243075472L
sg46
Vhttps://abs.twimg.com/images/themes/theme1/bg.png
p330
sg48
I00
sg49
V333333
p331
sg51
g328
sg52
g324
sg53
g325
sg54
I1326
sg55
VC0DEED
p332
sg57
V2243075472
p333
sg59
VC0DEED
p334
sg61
I67
sg62
I00
sg63
Nsg64
I428477
sg33
VStock Charts
p335
sg66
I672
sg67
g68
sg69
V0084B4
p336
sg71
Vhttp://pbs.twimg.com/profile_images/378800000864394998/jZdHIX6v_normal.png
p337
sg73
I00
sg74
I00
sg75
Vhttp://abs.twimg.com/images/themes/theme1/bg.png
p338
sg77
Vchartguy89
p339
sg79
Ven
p340
sg81
I00
sg82
I0
sg83
Vchartguy89
p341
sg85
I00
sg86
Nsg87
VThu Dec 12 23:46:22 +0000 2013
p342
sg89
I00
sg90
Nsg91
I00
sg92
I01
sg93
I00
ssg94
I00
sg95
g331
sg96
I1326
sg97
g332
sg98
g333
sg99
I00
sg100
I67
sg101
I00
sg102
Nsg103
I428477
sg104
g335
sg105
I672
sg106
g68
sg107
g336
sg108
g337
sg109
I00
sg110
I00
sg111
g334
sg112
g338
sg113
g339
sg114
g340
sg115
I00
sg116
I00
sg117
I0
sg118
g341
sg119
Nsg120
g121
(S'\x07\xdd\x0c\x0c\x17.\x16\x00\x00\x00'
p343
tp344
Rp345
sg125
g330
sg126
Nsg127
I00
sg128
I01
sg129
I00
sbsg130
Nsg29
L664006876749651968L
sg131
I0
sg132
VInvestors Hangout
p346
sg114
Vsl
p347
sg135
g322
sg120
g121
(S'\x07\xdf\x0b\n\t\t\n\x00\x00\x00'
p348
tp349
Rp350
sg39
(dp351
g140
Nsg141
I00
sg142
g319
sg143
I00
sg144
Nsg45
L664006876749651968L
sg145
I0
sg146
V<a href="http://investorshangout.com/" rel="nofollow">Investors Hangout</a>
p352
sg148
I00
sg149
Nsg53
(dp353
g151
(lp354
(dp355
g154
(lp356
I39
aI44
asg142
VSGBK
p357
sasg157
(lp358
sg159
(lp359
sg35
(lp360
(dp361
g86
Vhttps://t.co/i42LD1WJ8w
p362
sg154
(lp363
I111
aI134
asg165
Vhttp://investorshangout.com/post/view?id=3327739
p364
sg167
Vinvestorshangout.com/post/view?id=3\u2026
p365
sassg169
Nsg170
Nsg171
I0
sg57
V664006876749651968
p366
sg173
I00
sg174
g329
sg175
Nsg176
Nsg177
I00
sg79
g347
sg87
VTue Nov 10 09:09:10 +0000 2015
p367
sg179
Nsg180
Nsg181
(dp368
g183
Vsl
p369
sg185
Vrecent
p370
sssg187
g368
sg188
Nsg189
Nsg31
g353
sg190
Nsg191
Nsg98
g366
sg192
I00
sg193
Nsg194
I0
sg195
Nsbag0
(g4
g5
Ntp371
Rp372
(dp373
g9
I00
sg10
Nsg11
I00
sg12
VSGBK Year to date has changed +11.65% percent. +4.69% in the last 30 days. $SGBK Stonegate Bank Full breakdown https://t.co/Qsp5z1tJ9J
p374
sg14
Vhttp://investorshangout.com/
p375
sg16
I00
sg17
I00
sg18
Nsg19
g0
(g20
g5
Ntp376
Rp377
(dp378
g24
I00
sg25
I00
sg26
I01
sg27
VC0DFEC
p379
sg29
L2181314366L
sg30
I00
sg31
(dp380
g33
(dp381
g35
(lp382
sssg37
Vhttps://pbs.twimg.com/profile_images/378800000709585641/f40eea5971a3bc6d1eaaebd2b3dd4ebb_normal.jpeg
p383
sg39
(dp384
g41
I00
sg42
I00
sg43
I01
sg44
I00
sg45
L2181314366L
sg46
Vhttps://abs.twimg.com/images/themes/theme15/bg.png
p385
sg48
I00
sg49
V333333
p386
sg51
g383
sg52
g379
sg53
g380
sg54
I778
sg55
VA8C7F7
p387
sg57
V2181314366
p388
sg59
V022330
p389
sg61
I174
sg62
I00
sg63
Nsg64
I191949
sg33
VLikes to follow many stocks
p390
sg66
I444
sg67
g68
sg69
V0084B4
p391
sg71
Vhttp://pbs.twimg.com/profile_images/378800000709585641/f40eea5971a3bc6d1eaaebd2b3dd4ebb_normal.jpeg
p392
sg73
I00
sg74
I00
sg75
Vhttp://abs.twimg.com/images/themes/theme15/bg.png
p393
sg77
VJake132013
p394
sg79
Ven
p395
sg81
I00
sg82
I0
sg83
VJake13
p396
sg85
I00
sg86
Nsg87
VFri Nov 08 02:42:49 +0000 2013
p397
sg89
I00
sg90
Nsg91
I00
sg92
I00
sg93
I00
ssg94
I00
sg95
g386
sg96
I778
sg97
g387
sg98
g388
sg99
I00
sg100
I174
sg101
I00
sg102
Nsg103
I191949
sg104
g390
sg105
I444
sg106
g68
sg107
g391
sg108
g392
sg109
I00
sg110
I00
sg111
g389
sg112
g393
sg113
g394
sg114
g395
sg115
I00
sg116
I00
sg117
I0
sg118
g396
sg119
Nsg120
g121
(S'\x07\xdd\x0b\x08\x02*1\x00\x00\x00'
p398
tp399
Rp400
sg125
g385
sg126
Nsg127
I00
sg128
I00
sg129
I00
sbsg130
Nsg29
L663989703327260672L
sg131
I0
sg132
VInvestors Hangout
p401
sg114
Ven
p402
sg135
g377
sg120
g121
(S'\x07\xdf\x0b\n\x08\x008\x00\x00\x00'
p403
tp404
Rp405
sg39
(dp406
g140
Nsg141
I00
sg142
g374
sg143
I00
sg144
Nsg45
L663989703327260672L
sg145
I0
sg146
V<a href="http://investorshangout.com/" rel="nofollow">Investors Hangout</a>
p407
sg148
I00
sg149
Nsg53
(dp408
g151
(lp409
(dp410
g154
(lp411
I75
aI80
asg142
VSGBK
p412
sasg157
(lp413
sg159
(lp414
sg35
(lp415
(dp416
g86
Vhttps://t.co/Qsp5z1tJ9J
p417
sg154
(lp418
I111
aI134
asg165
Vhttp://investorshangout.com/post/view?id=3327532
p419
sg167
Vinvestorshangout.com/post/view?id=3\u2026
p420
sassg169
Nsg170
Nsg171
I0
sg57
V663989703327260672
p421
sg173
I00
sg174
g384
sg175
Nsg176
Nsg177
I00
sg79
g402
sg87
VTue Nov 10 08:00:56 +0000 2015
p422
sg179
Nsg180
Nsg181
(dp423
g183
Ven
p424
sg185
Vrecent
p425
sssg187
g423
sg188
Nsg189
Nsg31
g408
sg190
Nsg191
Nsg98
g421
sg192
I00
sg193
Nsg194
I0
sg195
Nsbag0
(g4
g5
Ntp426
Rp427
(dp428
g9
I00
sg10
Nsg11
I00
sg12
VBrokerages Expect Stonegate Bank to Announce $0.54 Earnings Per Share $SGBK https://t.co/2wJgJEZuhW
p429
sg14
Vhttp://ifttt.com
p430
sg16
I00
sg17
I00
sg18
Nsg19
g0
(g20
g5
Ntp431
Rp432
(dp433
g24
I00
sg25
I00
sg26
I01
sg27
VDDEEF6
p434
sg29
L2920258887L
sg30
I00
sg31
(dp435
g33
(dp436
g35
(lp437
sssg37
Vhttps://abs.twimg.com/sticky/default_profile_images/default_profile_0_normal.png
p438
sg39
(dp439
g41
I00
sg42
I00
sg43
I01
sg44
I01
sg45
L2920258887L
sg46
Vhttps://abs.twimg.com/images/themes/theme1/bg.png
p440
sg48
I00
sg49
V333333
p441
sg51
g438
sg52
g434
sg53
g435
sg54
I1021
sg55
VC0DEED
p442
sg57
V2920258887
p443
sg59
VC0DEED
p444
sg61
I39
sg62
I00
sg63
Nsg64
I170284
sg33
g68
sg66
I40
sg67
g68
sg69
V0084B4
p445
sg71
Vhttp://abs.twimg.com/sticky/default_profile_images/default_profile_0_normal.png
p446
sg73
I00
sg74
I00
sg75
Vhttp://abs.twimg.com/images/themes/theme1/bg.png
p447
sg77
Vdakotafinancial
p448
sg79
Ven
p449
sg81
I00
sg82
I0
sg83
VDakota Financial 
p450
sg85
I00
sg86
Nsg87
VSat Dec 13 20:48:14 +0000 2014
p451
sg89
I00
sg90
Nsg91
I00
sg92
I01
sg93
I00
ssg94
I00
sg95
g441
sg96
I1021
sg97
g442
sg98
g443
sg99
I01
sg100
I39
sg101
I00
sg102
Nsg103
I170284
sg104
g68
sg105
I40
sg106
g68
sg107
g445
sg108
g446
sg109
I00
sg110
I00
sg111
g444
sg112
g447
sg113
g448
sg114
g449
sg115
I00
sg116
I00
sg117
I0
sg118
g450
sg119
Nsg120
g121
(S'\x07\xde\x0c\r\x140\x0e\x00\x00\x00'
p452
tp453
Rp454
sg125
g440
sg126
Nsg127
I00
sg128
I01
sg129
I00
sbsg130
Nsg29
L663764129057013761L
sg131
I0
sg132
VIFTTT
p455
sg114
Ven
p456
sg135
g432
sg120
g121
(S'\x07\xdf\x0b\t\x11\x04#\x00\x00\x00'
p457
tp458
Rp459
sg39
(dp460
g140
Nsg141
I00
sg142
g429
sg143
I00
sg144
Nsg45
L663764129057013761L
sg145
I0
sg146
V<a href="http://ifttt.com" rel="nofollow">IFTTT</a>
p461
sg148
I00
sg149
Nsg53
(dp462
g151
(lp463
(dp464
g154
(lp465
I70
aI75
asg142
VSGBK
p466
sasg157
(lp467
sg159
(lp468
sg35
(lp469
(dp470
g86
Vhttps://t.co/2wJgJEZuhW
p471
sg154
(lp472
I76
aI99
asg165
Vhttp://ift.tt/1Qpx9Qn
p473
sg167
Vift.tt/1Qpx9Qn
p474
sassg169
Nsg170
Nsg171
I0
sg57
V663764129057013761
p475
sg173
I00
sg174
g439
sg175
Nsg176
Nsg177
I00
sg79
g456
sg87
VMon Nov 09 17:04:35 +0000 2015
p476
sg179
Nsg180
Nsg181
(dp477
g183
Ven
p478
sg185
Vrecent
p479
sssg187
g477
sg188
Nsg189
Nsg31
g462
sg190
Nsg191
Nsg98
g475
sg192
I00
sg193
Nsg194
I0
sg195
Nsbag0
(g4
g5
Ntp480
Rp481
(dp482
g9
I00
sg10
Nsg11
I00
sg12
VBrokerages Expect Stonegate Bank to Announce $0.54 Earnings Per Share $SGBK https://t.co/6OIxFIkmT5 #acn
p483
sg14
Vhttp://ifttt.com
p484
sg16
I00
sg17
I00
sg18
Nsg19
g0
(g20
g5
Ntp485
Rp486
(dp487
g24
I00
sg25
I00
sg26
I01
sg27
VE8E8E8
p488
sg29
I52210566
sg30
I00
sg31
(dp489
g86
(dp490
g35
(lp491
(dp492
g86
Vhttp://t.co/odTc3pvcAe
p493
sg154
(lp494
I0
aI22
asg165
Vhttp://www.americanconsumernews.com/
p495
sg167
Vamericanconsumernews.com
p496
sassg33
(dp497
g35
(lp498
sssg37
Vhttps://pbs.twimg.com/profile_images/289298274/text_normal.jpg
p499
sg39
(dp500
g41
I00
sg42
I00
sg43
I01
sg44
I00
sg45
I52210566
sg46
Vhttps://pbs.twimg.com/profile_background_images/20558354/back.jpg
p501
sg48
I00
sg49
V333333
p502
sg51
g499
sg52
g488
sg53
g489
sg54
I1114
sg55
VADADAD
p503
sg57
V52210566
p504
sg59
V9AE4E8
p505
sg61
I96
sg62
I00
sg63
I-21600
sg64
I580839
sg33
VPersonal Finance and Consumer Tips
p506
sg66
I1412
sg67
VSioux Falls, SD
p507
sg69
V0084B4
p508
sg71
Vhttp://pbs.twimg.com/profile_images/289298274/text_normal.jpg
p509
sg73
I00
sg74
I00
sg75
Vhttp://pbs.twimg.com/profile_background_images/20558354/back.jpg
p510
sg77
VAmConsumerNews
p511
sg79
Ven
p512
sg81
I00
sg82
I0
sg83
VConsumer News
p513
sg85
I00
sg86
Vhttp://t.co/odTc3pvcAe
p514
sg87
VMon Jun 29 22:22:08 +0000 2009
p515
sg89
I00
sg90
VCentral Time (US & Canada)
p516
sg91
I00
sg92
I00
sg93
I00
ssg94
I00
sg95
g502
sg96
I1114
sg97
g503
sg98
g504
sg99
I00
sg100
I96
sg101
I00
sg102
I-21600
sg103
I580839
sg104
g506
sg105
I1412
sg106
g507
sg107
g508
sg108
g509
sg109
I00
sg110
I00
sg111
g505
sg112
g510
sg113
g511
sg114
g512
sg115
I00
sg116
I00
sg117
I0
sg118
g513
sg119
g514
sg120
g121
(S'\x07\xd9\x06\x1d\x16\x16\x08\x00\x00\x00'
p517
tp518
Rp519
sg125
g501
sg126
g516
sg127
I00
sg128
I00
sg129
I00
sbsg130
Nsg29
L663763225419362309L
sg131
I0
sg132
VIFTTT
p520
sg114
Ven
p521
sg135
g486
sg120
g121
(S'\x07\xdf\x0b\t\x11\x00;\x00\x00\x00'
p522
tp523
Rp524
sg39
(dp525
g140
Nsg141
I00
sg142
g483
sg143
I00
sg144
Nsg45
L663763225419362309L
sg145
I0
sg146
V<a href="http://ifttt.com" rel="nofollow">IFTTT</a>
p526
sg148
I00
sg149
Nsg53
(dp527
g151
(lp528
(dp529
g154
(lp530
I70
aI75
asg142
VSGBK
p531
sasg157
(lp532
sg159
(lp533
(dp534
g154
(lp535
I100
aI104
asg142
Vacn
p536
sasg35
(lp537
(dp538
g86
Vhttps://t.co/6OIxFIkmT5
p539
sg154
(lp540
I76
aI99
asg165
Vhttp://ift.tt/1XZMLwh
p541
sg167
Vift.tt/1XZMLwh
p542
sassg169
Nsg170
Nsg171
I0
sg57
V663763225419362309
p543
sg173
I00
sg174
g500
sg175
Nsg176
Nsg177
I00
sg79
g521
sg87
VMon Nov 09 17:00:59 +0000 2015
p544
sg179
Nsg180
Nsg181
(dp545
g183
Ven
p546
sg185
Vrecent
p547
sssg187
g545
sg188
Nsg189
Nsg31
g527
sg190
Nsg191
Nsg98
g543
sg192
I00
sg193
Nsg194
I0
sg195
Nsbag0
(g4
g5
Ntp548
Rp549
(dp550
g9
I00
sg10
Nsg11
I00
sg12
V$SGBK:\u000a\u000aBrokerages Expect Stonegate Bank to Announce $0.54 Earnings \u2026:\u000a\u000ahttps://t.co/VBTyRu6SF8
p551
sg14
Vhttp://www.stocknewswires.com
p552
sg16
I00
sg17
I00
sg18
Nsg19
g0
(g20
g5
Ntp553
Rp554
(dp555
g24
I00
sg25
I00
sg26
I01
sg27
VE3E2DE
p556
sg29
L2344619544L
sg30
I00
sg31
(dp557
g33
(dp558
g35
(lp559
sssg37
Vhttps://pbs.twimg.com/profile_images/562292381764952064/mVtp0UmJ_normal.jpeg
p560
sg39
(dp561
g41
I00
sg42
I00
sg43
I01
sg44
I00
sg45
L2344619544L
sg46
Vhttps://abs.twimg.com/images/themes/theme3/bg.gif
p562
sg48
I00
sg49
V634047
p563
sg51
g560
sg52
g556
sg53
g557
sg54
I516
sg55
VD3D2CF
p564
sg57
V2344619544
p565
sg59
VEDECE9
p566
sg61
I85
sg62
I01
sg63
I-18000
sg64
I182019
sg33
VNews about Stocks
p567
sg66
I0
sg67
VU.S.
p568
sg69
V088253
p569
sg71
Vhttp://pbs.twimg.com/profile_images/562292381764952064/mVtp0UmJ_normal.jpeg
p570
sg73
I00
sg74
I00
sg75
Vhttp://abs.twimg.com/images/themes/theme3/bg.gif
p571
sg77
VNewsToDesk
p572
sg79
Ven
p573
sg81
I00
sg82
I0
sg83
VBreakingStocksNews
p574
sg85
I00
sg86
Nsg87
VSat Feb 15 05:49:10 +0000 2014
p575
sg89
I00
sg90
VEastern Time (US & Canada)
p576
sg91
I00
sg92
I00
sg93
I00
ssg94
I00
sg95
g563
sg96
I516
sg97
g564
sg98
g565
sg99
I00
sg100
I85
sg101
I01
sg102
I-18000
sg103
I182019
sg104
g567
sg105
I0
sg106
g568
sg107
g569
sg108
g570
sg109
I00
sg110
I00
sg111
g566
sg112
g571
sg113
g572
sg114
g573
sg115
I00
sg116
I00
sg117
I0
sg118
g574
sg119
Nsg120
g121
(S'\x07\xde\x02\x0f\x051\n\x00\x00\x00'
p577
tp578
Rp579
sg125
g562
sg126
g576
sg127
I00
sg128
I00
sg129
I00
sbsg130
Nsg29
L663762742113865728L
sg131
I0
sg132
VStockNewsWires
p580
sg114
Ven
p581
sg135
g554
sg120
g121
(S'\x07\xdf\x0b\t\x10;\x04\x00\x00\x00'
p582
tp583
Rp584
sg39
(dp585
g140
Nsg141
I00
sg142
V$SGBK:\u000a\u000aBrokerages Expect Stonegate Bank to Announce $0.54 Earnings \u2026:\u000a\u000ahttps://t.co/VBTyRu6SF8
p586
sg143
I00
sg144
Nsg45
L663762742113865728L
sg145
I0
sg146
V<a href="http://www.stocknewswires.com" rel="nofollow">StockNewsWires</a>
p587
sg148
I00
sg149
Nsg53
(dp588
g151
(lp589
(dp590
g154
(lp591
I0
aI5
asg142
VSGBK
p592
sasg157
(lp593
sg159
(lp594
sg35
(lp595
(dp596
g86
Vhttps://t.co/VBTyRu6SF8
p597
sg154
(lp598
I72
aI95
asg165
Vhttp://StockNewsHour.com/sgbk-brokerages-expect-stonegate-bank-to-announce-0-54-earnings/
p599
sg167
VStockNewsHour.com/sgbk-brokerage\u2026
p600
sassg169
Nsg170
Nsg171
I0
sg57
V663762742113865728
p601
sg173
I00
sg174
g561
sg175
Nsg176
Nsg177
I00
sg79
g581
sg87
VMon Nov 09 16:59:04 +0000 2015
p602
sg179
Nsg180
Nsg181
(dp603
g183
Ven
p604
sg185
Vrecent
p605
sssg187
g603
sg188
Nsg189
Nsg31
g588
sg190
Nsg191
Nsg98
g601
sg192
I00
sg193
Nsg194
I0
sg195
Nsbag0
(g4
g5
Ntp606
Rp607
(dp608
g9
I00
sg10
Nsg11
I00
sg12
VSGBK 33.20 Stonegate Bank $SGBK added to my watch list. Right now with SGBK I am watching the last price 33.20 https://t.co/HNx0Pdnkch
p609
sg14
Vhttp://investorshangout.com/
p610
sg16
I00
sg17
I00
sg18
Nsg19
g0
(g20
g5
Ntp611
Rp612
(dp613
g24
I00
sg25
I00
sg26
I01
sg27
V252429
p614
sg29
L2181326676L
sg30
I00
sg31
(dp615
g33
(dp616
g35
(lp617
sssg37
Vhttps://pbs.twimg.com/profile_images/378800000709615783/34899be83af19233fc355a5a66c003e2_normal.jpeg
p618
sg39
(dp619
g41
I00
sg42
I00
sg43
I01
sg44
I00
sg45
L2181326676L
sg46
Vhttps://abs.twimg.com/images/themes/theme9/bg.gif
p620
sg48
I00
sg49
V666666
p621
sg51
g618
sg52
g614
sg53
g615
sg54
I687
sg55
V181A1E
p622
sg57
V2181326676
p623
sg59
V1A1B1F
p624
sg61
I170
sg62
I00
sg63
Nsg64
I184235
sg33
VI tweet stock research
p625
sg66
I445
sg67
g68
sg69
V2FC2EF
p626
sg71
Vhttp://pbs.twimg.com/profile_images/378800000709615783/34899be83af19233fc355a5a66c003e2_normal.jpeg
p627
sg73
I00
sg74
I00
sg75
Vhttp://abs.twimg.com/images/themes/theme9/bg.gif
p628
sg77
Vclayton_dd
p629
sg79
Ven
p630
sg81
I00
sg82
I0
sg83
Vclayton
p631
sg85
I00
sg86
Nsg87
VFri Nov 08 02:53:01 +0000 2013
p632
sg89
I00
sg90
Nsg91
I00
sg92
I00
sg93
I00
ssg94
I00
sg95
g621
sg96
I687
sg97
g622
sg98
g623
sg99
I00
sg100
I170
sg101
I00
sg102
Nsg103
I184235
sg104
g625
sg105
I445
sg106
g68
sg107
g626
sg108
g627
sg109
I00
sg110
I00
sg111
g624
sg112
g628
sg113
g629
sg114
g630
sg115
I00
sg116
I00
sg117
I0
sg118
g631
sg119
Nsg120
g121
(S'\x07\xdd\x0b\x08\x025\x01\x00\x00\x00'
p633
tp634
Rp635
sg125
g620
sg126
Nsg127
I00
sg128
I00
sg129
I00
sbsg130
Nsg29
L663758390208909312L
sg131
I0
sg132
VInvestors Hangout
p636
sg114
Ven
p637
sg135
g612
sg120
g121
(S'\x07\xdf\x0b\t\x10).\x00\x00\x00'
p638
tp639
Rp640
sg39
(dp641
g140
Nsg141
I00
sg142
g609
sg143
I00
sg144
Nsg45
L663758390208909312L
sg145
I0
sg146
V<a href="http://investorshangout.com/" rel="nofollow">Investors Hangout</a>
p642
sg148
I00
sg149
Nsg53
(dp643
g151
(lp644
(dp645
g154
(lp646
I26
aI31
asg142
VSGBK
p647
sasg157
(lp648
sg159
(lp649
sg35
(lp650
(dp651
g86
Vhttps://t.co/HNx0Pdnkch
p652
sg154
(lp653
I111
aI134
asg165
Vhttp://investorshangout.com/post/view?id=3325453
p654
sg167
Vinvestorshangout.com/post/view?id=3\u2026
p655
sassg169
Nsg170
Nsg171
I0
sg57
V663758390208909312
p656
sg173
I00
sg174
g619
sg175
Nsg176
Nsg177
I00
sg79
g637
sg87
VMon Nov 09 16:41:46 +0000 2015
p657
sg179
Nsg180
Nsg181
(dp658
g183
Ven
p659
sg185
Vrecent
p660
sssg187
g658
sg188
Nsg189
Nsg31
g643
sg190
Nsg191
Nsg98
g656
sg192
I00
sg193
Nsg194
I0
sg195
Nsbag0
(g4
g5
Ntp661
Rp662
(dp663
g9
I00
sg10
Nsg11
I00
sg12
VThe Most Accurate Stock Alert Service Made $240,000 Yesterday https://t.co/8WvnrVmkBS .. $IKAN $SGBK $CPHC
p664
sg14
Vhttp://socialadcenter.com
p665
sg16
I00
sg17
I00
sg18
Nsg19
g0
(g20
g5
Ntp666
Rp667
(dp668
g24
I00
sg25
I00
sg26
I01
sg27
VDDEEF6
p669
sg29
L2730855593L
sg30
I00
sg31
(dp670
g86
(dp671
g35
(lp672
(dp673
g86
Vhttp://t.co/UWzH8kOOl9
p674
sg154
(lp675
I0
aI22
asg165
Vhttp://PennyStockSecret.com
p676
sg167
VPennyStockSecret.com
p677
sassg33
(dp678
g35
(lp679
(dp680
g86
Vhttp://t.co/UWzH8kOOl9
p681
sg154
(lp682
I11
aI33
asg165
Vhttp://PennyStockSecret.com
p683
sg167
VPennyStockSecret.com
p684
sasssg37
Vhttps://pbs.twimg.com/profile_images/573247485616889856/gHAtYS9O_normal.png
p685
sg39
(dp686
g41
I00
sg42
I00
sg43
I01
sg44
I00
sg45
L2730855593L
sg46
Vhttps://abs.twimg.com/images/themes/theme1/bg.png
p687
sg48
I00
sg49
V333333
p688
sg51
g685
sg52
g669
sg53
g670
sg54
I2515
sg55
VC0DEED
p689
sg57
V2730855593
p690
sg59
VC0DEED
p691
sg61
I25
sg62
I00
sg63
I0
sg64
I53230
sg33
VSign up to http://t.co/UWzH8kOOl9  and get the premiere penny stock newsletter for free! make sure you subscribe today!
p692
sg66
I9
sg67
VUSA
p693
sg69
V0084B4
p694
sg71
Vhttp://pbs.twimg.com/profile_images/573247485616889856/gHAtYS9O_normal.png
p695
sg73
I00
sg74
I00
sVprofile_banner_url
p696
Vhttps://pbs.twimg.com/profile_banners/2730855593/1425507876
p697
sg75
Vhttp://abs.twimg.com/images/themes/theme1/bg.png
p698
sg77
Vstockschamp
p699
sg79
Ven
p700
sg81
I00
sg82
I0
sg83
Vstockschamp
p701
sg85
I00
sg86
Vhttp://t.co/UWzH8kOOl9
p702
sg87
VFri Aug 01 16:39:24 +0000 2014
p703
sg89
I00
sg90
VDublin
p704
sg91
I00
sg92
I01
sg93
I00
ssg94
I00
sg95
g688
sg96
I2515
sg97
g689
sg98
g690
sg99
I00
sg100
I25
sg101
I00
sg102
I0
sg103
I53230
sg104
g692
sg105
I9
sg106
g693
sg107
g694
sg108
g695
sg109
I00
sg110
I00
sg111
g691
sS'profile_banner_url'
p705
g697
sg112
g698
sg113
g699
sg114
g700
sg115
I00
sg116
I00
sg117
I0
sg118
g701
sg119
g702
sg120
g121
(S"\x07\xde\x08\x01\x10'\x18\x00\x00\x00"
p706
tp707
Rp708
sg125
g687
sg126
g704
sg127
I00
sg128
I01
sg129
I00
sbsg130
Nsg29
L663715875950690308L
sg131
I0
sg132
VSocial Ad Center
p709
sg114
Ven
p710
sg135
g667
sg120
g121
(S'\x07\xdf\x0b\t\r42\x00\x00\x00'
p711
tp712
Rp713
sg39
(dp714
g140
Nsg141
I00
sg142
g664
sg143
I00
sg144
Nsg45
L663715875950690308L
sg145
I0
sg146
V<a href="http://socialadcenter.com" rel="nofollow">Social Ad Center</a>
p715
sg148
I00
sg149
Nsg53
(dp716
g151
(lp717
(dp718
g154
(lp719
I89
aI94
asg142
VIKAN
p720
sa(dp721
g154
(lp722
I95
aI100
asg142
VSGBK
p723
sa(dp724
g154
(lp725
I101
aI106
asg142
VCPHC
p726
sasg157
(lp727
sg159
(lp728
sg35
(lp729
(dp730
g86
Vhttps://t.co/8WvnrVmkBS
p731
sg154
(lp732
I62
aI85
asg165
Vhttp://PennyStockSecret.com
p733
sg167
VPennyStockSecret.com
p734
sassg169
Nsg170
Nsg171
I0
sg57
V663715875950690308
p735
sg173
I00
sg174
g686
sg175
Nsg176
Nsg177
I00
sg79
g710
sg87
VMon Nov 09 13:52:50 +0000 2015
p736
sg179
Nsg180
Nsg181
(dp737
g183
Ven
p738
sg185
Vrecent
p739
sssg187
g737
sg188
Nsg189
Nsg31
g716
sg190
Nsg191
Nsg98
g735
sg192
I00
sg193
Nsg194
I0
sg195
Nsbag0
(g4
g5
Ntp740
Rp741
(dp742
g9
I00
sg10
Nsg11
I00
sg12
VRT @InvestWithConf: $SGBK is rated BUY, 10.8% upside by Wall Street analysts based on average ratings/targets https://t.co/ozLY6MYUsJ https\u2026
p743
sg14
Vhttp://twitter.com
p744
sg16
I00
sg17
I00
sg18
Nsg19
g0
(g20
g5
Ntp745
Rp746
(dp747
g24
I00
sg25
I00
sg26
I00
sg27
V000000
p748
sg29
L3903212893L
sg30
I00
sg31
(dp749
g86
(dp750
g35
(lp751
(dp752
g86
Vhttp://t.co/LHJRK2cSqh
p753
sg154
(lp754
I0
aI22
asg165
Vhttp://goo.gl/lh59ZJ
p755
sg167
Vgoo.gl/lh59ZJ
p756
sassg33
(dp757
g35
(lp758
(dp759
g86
Vhttp://t.co/LHJRK2cSqh
p760
sg154
(lp761
I137
aI159
asg165
Vhttp://goo.gl/lh59ZJ
p762
sg167
Vgoo.gl/lh59ZJ
p763
sasssg37
Vhttps://pbs.twimg.com/profile_images/654651905759547392/Lo-Dr-rU_normal.jpg
p764
sg39
(dp765
g41
I00
sg42
I00
sg43
I00
sg44
I00
sg45
L3903212893L
sg46
Vhttps://abs.twimg.com/images/themes/theme1/bg.png
p766
sg48
I00
sg49
V000000
p767
sg51
g764
sg52
g748
sg53
g749
sg54
I74
sg55
V000000
p768
sg57
V3903212893
p769
sg59
V000000
p770
sg61
I7
sg62
I00
sg63
I-21600
sg64
I346
sg33
V#Business #Consultant helping people to increase their reach on specific location or specific area.Need to reach more followers?Checkout http://t.co/LHJRK2cSqh
p771
sg66
I620
sg67
VGeorgia, USA
p772
sg69
VFFCC4D
p773
sg71
Vhttp://pbs.twimg.com/profile_images/654651905759547392/Lo-Dr-rU_normal.jpg
p774
sg73
I00
sg74
I00
sg75
Vhttp://abs.twimg.com/images/themes/theme1/bg.png
p775
sg77
VJanieaSanders
p776
sg79
Ven
p777
sg81
I00
sg82
I265
sg83
VJanie Sanders
p778
sg85
I00
sg86
Vhttp://t.co/LHJRK2cSqh
p779
sg87
VThu Oct 15 13:32:59 +0000 2015
p780
sg89
I00
sg90
VCentral Time (US & Canada)
p781
sg91
I00
sg92
I00
sg93
I00
ssg94
I00
sg95
g767
sg96
I74
sg97
g768
sg98
g769
sg99
I00
sg100
I7
sg101
I00
sg102
I-21600
sg103
I346
sg104
g771
sg105
I620
sg106
g772
sg107
g773
sg108
g774
sg109
I00
sg110
I00
sg111
g770
sg112
g775
sg113
g776
sg114
g777
sg115
I00
sg116
I00
sg117
I265
sg118
g778
sg119
g779
sg120
g121
(S'\x07\xdf\n\x0f\r ;\x00\x00\x00'
p782
tp783
Rp784
sg125
g766
sg126
g781
sg127
I00
sg128
I00
sg129
I00
sbsg130
Nsg29
L663678357033394176L
sg131
I0
sg132
VTwitter Web Client
p785
sg114
Ven
p786
sS'retweeted_status'
p787
g0
(g4
g5
Ntp788
Rp789
(dp790
g9
I00
sg10
Nsg11
I00
sg12
V$SGBK is rated BUY, 10.8% upside by Wall Street analysts based on average ratings/targets https://t.co/ozLY6MYUsJ https://t.co/ldKD4SpyhS
p791
sg14
Vhttp://investwithconf.blogspot.com
p792
sg16
I00
sg17
I00
sg18
Nsg19
g0
(g20
g5
Ntp793
Rp794
(dp795
g24
I00
sg25
I00
sg26
I01
sg27
VF6FFD1
p796
sg29
L2344623210L
sg30
I00
sg31
(dp797
g33
(dp798
g35
(lp799
sssg37
Vhttps://pbs.twimg.com/profile_images/597618707721035778/xao5eh5P_normal.jpg
p800
sg39
(dp801
g41
I00
sg42
I00
sg43
I01
sg44
I00
sg45
L2344623210L
sg46
Vhttps://abs.twimg.com/images/themes/theme19/bg.gif
p802
sg48
I00
sg49
V333333
p803
sg51
g800
sg52
g796
sg53
g797
sg54
I256
sg55
VFFF8AD
p804
sg57
V2344623210
p805
sg59
VFFF04D
p806
sg61
I16
sg62
I00
sg63
I-18000
sg64
I67446
sg33
g68
sg66
I0
sg67
g68
sg69
V0099CC
p807
sg71
Vhttp://pbs.twimg.com/profile_images/597618707721035778/xao5eh5P_normal.jpg
p808
sg73
I00
sg74
I00
sg75
Vhttp://abs.twimg.com/images/themes/theme19/bg.gif
p809
sg77
VInvestWithConf
p810
sg79
Ven
p811
sg81
I00
sg82
I0
sg83
VInvestWithConf
p812
sg85
I00
sg86
Nsg87
VSat Feb 15 05:52:28 +0000 2014
p813
sg89
I00
sg90
VEastern Time (US & Canada)
p814
sg91
I00
sg92
I00
sg93
I00
ssg94
I00
sg95
g803
sg96
I256
sg97
g804
sg98
g805
sg99
I00
sg100
I16
sg101
I00
sg102
I-18000
sg103
I67446
sg104
g68
sg105
I0
sg106
g68
sg107
g807
sg108
g808
sg109
I00
sg110
I00
sg111
g806
sg112
g809
sg113
g810
sg114
g811
sg115
I00
sg116
I00
sg117
I0
sg118
g812
sg119
Nsg120
g121
(S'\x07\xde\x02\x0f\x054\x1c\x00\x00\x00'
p815
tp816
Rp817
sg125
g802
sg126
g814
sg127
I00
sg128
I00
sg129
I00
sbsg130
Nsg29
L661431623968292864L
sg131
I6
sg132
VIWCE
p818
sg114
Ven
p819
sg135
g794
sg120
g121
(S'\x07\xdf\x0b\x03\x06$\x02\x00\x00\x00'
p820
tp821
Rp822
sg39
(dp823
g140
Nsg141
I00
sg142
g791
sg143
I00
sg144
Nsg45
L661431623968292864L
sg145
I6
sg146
V<a href="http://investwithconf.blogspot.com" rel="nofollow">IWCE</a>
p824
sg148
I00
sg149
Nsg53
(dp825
g151
(lp826
(dp827
g154
(lp828
I0
aI5
asg142
VSGBK
p829
sasg157
(lp830
sg159
(lp831
sg35
(lp832
(dp833
g86
Vhttps://t.co/ozLY6MYUsJ
p834
sg154
(lp835
I90
aI113
asg165
Vhttp://manyratings.com/SGBK
p836
sg167
Vmanyratings.com/SGBK
p837
sasVmedia
p838
(lp839
(dp840
g165
Vhttp://twitter.com/InvestWithConf/status/661431623968292864/photo/1
p841
sg167
Vpic.twitter.com/ldKD4SpyhS
p842
sg86
Vhttps://t.co/ldKD4SpyhS
p843
sVmedia_url_https
p844
Vhttps://pbs.twimg.com/media/CS3gjpRWwAEg2tr.jpg
p845
sg57
V661431623272022017
p846
sVsizes
p847
(dp848
Vlarge
p849
(dp850
Vh
p851
I4
sVresize
p852
Vfit
p853
sVw
p854
I4
ssVsmall
p855
(dp856
g851
I4
sg852
Vfit
p857
sg854
I4
ssVmedium
p858
(dp859
g851
I4
sg852
Vfit
p860
sg854
I4
ssVthumb
p861
(dp862
g851
I4
sg852
Vcrop
p863
sg854
I4
sssg154
(lp864
I114
aI137
asVtype
p865
Vphoto
p866
sg45
L661431623272022017L
sVmedia_url
p867
Vhttp://pbs.twimg.com/media/CS3gjpRWwAEg2tr.jpg
p868
sassg169
Nsg170
Nsg171
I13
sg57
V661431623968292864
p869
sg173
I00
sg174
g801
sg175
Nsg176
Nsg177
I00
sg79
g819
sg87
VTue Nov 03 06:36:02 +0000 2015
p870
sg179
Nsg180
Nsg181
(dp871
g183
Ven
p872
sg185
Vrecent
p873
sssg187
g871
sg188
Nsg189
Nsg31
g825
sg190
Nsg191
Nsg98
g869
sg192
I00
sg193
Nsg194
I13
sg195
Nsbsg135
g746
sg120
g121
(S'\x07\xdf\x0b\t\x0b\x17-\x00\x00\x00'
p874
tp875
Rp876
sg39
(dp877
g140
Nsg141
I00
sg142
g743
sg143
I00
sg144
Nsg45
L663678357033394176L
sg145
I0
sg146
V<a href="http://twitter.com" rel="nofollow">Twitter Web Client</a>
p878
sg148
I00
sg149
Nsg53
(dp879
g151
(lp880
(dp881
g154
(lp882
I20
aI25
asg142
VSGBK
p883
sasg157
(lp884
(dp885
g45
L2344623210L
sg154
(lp886
I3
aI18
asg57
V2344623210
p887
sg77
VInvestWithConf
p888
sg83
VInvestWithConf
p889
sasg159
(lp890
sg35
(lp891
(dp892
g86
Vhttps://t.co/ozLY6MYUsJ
p893
sg154
(lp894
I110
aI133
asg165
Vhttp://manyratings.com/SGBK
p895
sg167
Vmanyratings.com/SGBK
p896
sasg838
(lp897
(dp898
Vsource_user_id
p899
L2344623210L
sVsource_status_id_str
p900
V661431623968292864
p901
sg165
Vhttp://twitter.com/InvestWithConf/status/661431623968292864/photo/1
p902
sg167
Vpic.twitter.com/ldKD4SpyhS
p903
sg86
Vhttps://t.co/ldKD4SpyhS
p904
sg844
Vhttps://pbs.twimg.com/media/CS3gjpRWwAEg2tr.jpg
p905
sVsource_user_id_str
p906
V2344623210
p907
sVsource_status_id
p908
L661431623968292864L
sg57
V661431623272022017
p909
sg847
(dp910
g849
(dp911
g851
I4
sg852
Vfit
p912
sg854
I4
ssg855
(dp913
g851
I4
sg852
Vfit
p914
sg854
I4
ssg858
(dp915
g851
I4
sg852
Vfit
p916
sg854
I4
ssg861
(dp917
g851
I4
sg852
Vcrop
p918
sg854
I4
sssg154
(lp919
I139
aI140
asg865
Vphoto
p920
sg45
L661431623272022017L
sg867
Vhttp://pbs.twimg.com/media/CS3gjpRWwAEg2tr.jpg
p921
sassg169
Nsg170
Nsg171
I13
sg57
V663678357033394176
p922
sg173
I00
sVretweeted_status
p923
g823
sg174
g765
sg175
Nsg176
Nsg177
I00
sg79
g786
sg87
VMon Nov 09 11:23:45 +0000 2015
p924
sg179
Nsg180
Nsg181
(dp925
g183
Ven
p926
sg185
Vrecent
p927
sssg187
g925
sg188
Nsg189
Nsg31
g879
sg190
Nsg191
Nsg98
g922
sg192
I00
sg193
Nsg194
I13
sg195
Nsbag0
(g4
g5
Ntp928
Rp929
(dp930
g9
I00
sg10
Nsg11
I00
sg12
VRT @InvestWithConf: $SGBK is rated BUY, 10.8% upside by Wall Street analysts based on average ratings/targets https://t.co/ozLY6MYUsJ https\u2026
p931
sg14
Vhttp://twitter.com
p932
sg16
I00
sg17
I00
sg18
Nsg19
g0
(g20
g5
Ntp933
Rp934
(dp935
g24
I00
sg25
I00
sg26
I00
sg27
V000000
p936
sg29
L3905518525L
sg30
I00
sg31
(dp937
g86
(dp938
g35
(lp939
(dp940
g86
Vhttp://t.co/xcHN3sR6Ie
p941
sg154
(lp942
I0
aI22
asg165
Vhttp://goo.gl/Lc73jz
p943
sg167
Vgoo.gl/Lc73jz
p944
sassg33
(dp945
g35
(lp946
(dp947
g86
Vhttp://t.co/xcHN3sR6Ie
p948
sg154
(lp949
I97
aI119
asg165
Vhttp://goo.gl/Lc73jz
p950
sg167
Vgoo.gl/Lc73jz
p951
sasssg37
Vhttps://pbs.twimg.com/profile_images/654726945926569984/6axhSL5z_normal.jpg
p952
sg39
(dp953
g41
I00
sg42
I00
sg43
I00
sg44
I00
sg45
L3905518525L
sg46
Vhttps://abs.twimg.com/images/themes/theme1/bg.png
p954
sg48
I00
sg49
V000000
p955
sg51
g952
sg52
g936
sg53
g937
sg54
I72
sg55
V000000
p956
sg57
V3905518525
p957
sg59
V000000
p958
sg61
I6
sg62
I00
sg63
Nsg64
I361
sg33
V#BizTips #B2b #Realestate Investor and Social Media Guru! Learn how to get 100k Followers easily http://t.co/xcHN3sR6Ie
p959
sg66
I603
sg67
VMissouri, USA
p960
sg69
V89C9FA
p961
sg71
Vhttp://pbs.twimg.com/profile_images/654726945926569984/6axhSL5z_normal.jpg
p962
sg73
I00
sg74
I00
sg75
Vhttp://abs.twimg.com/images/themes/theme1/bg.png
p963
sg77
VAbrahamMckenzia
p964
sg79
Ven
p965
sg81
I00
sg82
I266
sg83
VAbrahamMckenzie
p966
sg85
I00
sg86
Vhttp://t.co/xcHN3sR6Ie
p967
sg87
VThu Oct 15 18:33:03 +0000 2015
p968
sg89
I00
sg90
Nsg91
I00
sg92
I00
sg93
I00
ssg94
I00
sg95
g955
sg96
I72
sg97
g956
sg98
g957
sg99
I00
sg100
I6
sg101
I00
sg102
Nsg103
I361
sg104
g959
sg105
I603
sg106
g960
sg107
g961
sg108
g962
sg109
I00
sg110
I00
sg111
g958
sg112
g963
sg113
g964
sg114
g965
sg115
I00
sg116
I00
sg117
I266
sg118
g966
sg119
g967
sg120
g121
(S'\x07\xdf\n\x0f\x12!\x03\x00\x00\x00'
p969
tp970
Rp971
sg125
g954
sg126
Nsg127
I00
sg128
I00
sg129
I00
sbsg130
Nsg29
L663642258084904960L
sg131
I0
sg132
VTwitter Web Client
p972
sg114
Ven
p973
sg787
g0
(g4
g5
Ntp974
Rp975
(dp976
g9
I00
sg10
Nsg11
I00
sg12
V$SGBK is rated BUY, 10.8% upside by Wall Street analysts based on average ratings/targets https://t.co/ozLY6MYUsJ https://t.co/ldKD4SpyhS
p977
sg14
Vhttp://investwithconf.blogspot.com
p978
sg16
I00
sg17
I00
sg18
Nsg19
g0
(g20
g5
Ntp979
Rp980
(dp981
g24
I00
sg25
I00
sg26
I01
sg27
VF6FFD1
p982
sg29
L2344623210L
sg30
I00
sg31
(dp983
g33
(dp984
g35
(lp985
sssg37
Vhttps://pbs.twimg.com/profile_images/597618707721035778/xao5eh5P_normal.jpg
p986
sg39
(dp987
g41
I00
sg42
I00
sg43
I01
sg44
I00
sg45
L2344623210L
sg46
Vhttps://abs.twimg.com/images/themes/theme19/bg.gif
p988
sg48
I00
sg49
V333333
p989
sg51
g986
sg52
g982
sg53
g983
sg54
I256
sg55
VFFF8AD
p990
sg57
V2344623210
p991
sg59
VFFF04D
p992
sg61
I16
sg62
I00
sg63
I-18000
sg64
I67446
sg33
g68
sg66
I0
sg67
g68
sg69
V0099CC
p993
sg71
Vhttp://pbs.twimg.com/profile_images/597618707721035778/xao5eh5P_normal.jpg
p994
sg73
I00
sg74
I00
sg75
Vhttp://abs.twimg.com/images/themes/theme19/bg.gif
p995
sg77
VInvestWithConf
p996
sg79
Ven
p997
sg81
I00
sg82
I0
sg83
VInvestWithConf
p998
sg85
I00
sg86
Nsg87
VSat Feb 15 05:52:28 +0000 2014
p999
sg89
I00
sg90
VEastern Time (US & Canada)
p1000
sg91
I00
sg92
I00
sg93
I00
ssg94
I00
sg95
g989
sg96
I256
sg97
g990
sg98
g991
sg99
I00
sg100
I16
sg101
I00
sg102
I-18000
sg103
I67446
sg104
g68
sg105
I0
sg106
g68
sg107
g993
sg108
g994
sg109
I00
sg110
I00
sg111
g992
sg112
g995
sg113
g996
sg114
g997
sg115
I00
sg116
I00
sg117
I0
sg118
g998
sg119
Nsg120
g121
(S'\x07\xde\x02\x0f\x054\x1c\x00\x00\x00'
p1001
tp1002
Rp1003
sg125
g988
sg126
g1000
sg127
I00
sg128
I00
sg129
I00
sbsg130
Nsg29
L661431623968292864L
sg131
I6
sg132
VIWCE
p1004
sg114
Ven
p1005
sg135
g980
sg120
g121
(S'\x07\xdf\x0b\x03\x06$\x02\x00\x00\x00'
p1006
tp1007
Rp1008
sg39
(dp1009
g140
Nsg141
I00
sg142
g977
sg143
I00
sg144
Nsg45
L661431623968292864L
sg145
I6
sg146
V<a href="http://investwithconf.blogspot.com" rel="nofollow">IWCE</a>
p1010
sg148
I00
sg149
Nsg53
(dp1011
g151
(lp1012
(dp1013
g154
(lp1014
I0
aI5
asg142
VSGBK
p1015
sasg157
(lp1016
sg159
(lp1017
sg35
(lp1018
(dp1019
g86
Vhttps://t.co/ozLY6MYUsJ
p1020
sg154
(lp1021
I90
aI113
asg165
Vhttp://manyratings.com/SGBK
p1022
sg167
Vmanyratings.com/SGBK
p1023
sasg838
(lp1024
(dp1025
g165
Vhttp://twitter.com/InvestWithConf/status/661431623968292864/photo/1
p1026
sg167
Vpic.twitter.com/ldKD4SpyhS
p1027
sg86
Vhttps://t.co/ldKD4SpyhS
p1028
sg844
Vhttps://pbs.twimg.com/media/CS3gjpRWwAEg2tr.jpg
p1029
sg57
V661431623272022017
p1030
sg847
(dp1031
g849
(dp1032
g851
I4
sg852
Vfit
p1033
sg854
I4
ssg855
(dp1034
g851
I4
sg852
Vfit
p1035
sg854
I4
ssg858
(dp1036
g851
I4
sg852
Vfit
p1037
sg854
I4
ssg861
(dp1038
g851
I4
sg852
Vcrop
p1039
sg854
I4
sssg154
(lp1040
I114
aI137
asg865
Vphoto
p1041
sg45
L661431623272022017L
sg867
Vhttp://pbs.twimg.com/media/CS3gjpRWwAEg2tr.jpg
p1042
sassg169
Nsg170
Nsg171
I13
sg57
V661431623968292864
p1043
sg173
I00
sg174
g987
sg175
Nsg176
Nsg177
I00
sg79
g1005
sg87
VTue Nov 03 06:36:02 +0000 2015
p1044
sg179
Nsg180
Nsg181
(dp1045
g183
Ven
p1046
sg185
Vrecent
p1047
sssg187
g1045
sg188
Nsg189
Nsg31
g1011
sg190
Nsg191
Nsg98
g1043
sg192
I00
sg193
Nsg194
I13
sg195
Nsbsg135
g934
sg120
g121
(S'\x07\xdf\x0b\t\t\x00\x12\x00\x00\x00'
p1048
tp1049
Rp1050
sg39
(dp1051
g140
Nsg141
I00
sg142
g931
sg143
I00
sg144
Nsg45
L663642258084904960L
sg145
I0
sg146
V<a href="http://twitter.com" rel="nofollow">Twitter Web Client</a>
p1052
sg148
I00
sg149
Nsg53
(dp1053
g151
(lp1054
(dp1055
g154
(lp1056
I20
aI25
asg142
VSGBK
p1057
sasg157
(lp1058
(dp1059
g45
L2344623210L
sg154
(lp1060
I3
aI18
asg57
V2344623210
p1061
sg77
VInvestWithConf
p1062
sg83
VInvestWithConf
p1063
sasg159
(lp1064
sg35
(lp1065
(dp1066
g86
Vhttps://t.co/ozLY6MYUsJ
p1067
sg154
(lp1068
I110
aI133
asg165
Vhttp://manyratings.com/SGBK
p1069
sg167
Vmanyratings.com/SGBK
p1070
sasg838
(lp1071
(dp1072
g899
L2344623210L
sg900
V661431623968292864
p1073
sg165
Vhttp://twitter.com/InvestWithConf/status/661431623968292864/photo/1
p1074
sg167
Vpic.twitter.com/ldKD4SpyhS
p1075
sg86
Vhttps://t.co/ldKD4SpyhS
p1076
sg844
Vhttps://pbs.twimg.com/media/CS3gjpRWwAEg2tr.jpg
p1077
sg906
V2344623210
p1078
sg908
L661431623968292864L
sg57
V661431623272022017
p1079
sg847
(dp1080
g849
(dp1081
g851
I4
sg852
Vfit
p1082
sg854
I4
ssg855
(dp1083
g851
I4
sg852
Vfit
p1084
sg854
I4
ssg858
(dp1085
g851
I4
sg852
Vfit
p1086
sg854
I4
ssg861
(dp1087
g851
I4
sg852
Vcrop
p1088
sg854
I4
sssg154
(lp1089
I139
aI140
asg865
Vphoto
p1090
sg45
L661431623272022017L
sg867
Vhttp://pbs.twimg.com/media/CS3gjpRWwAEg2tr.jpg
p1091
sassg169
Nsg170
Nsg171
I13
sg57
V663642258084904960
p1092
sg173
I00
sg923
g1009
sg174
g953
sg175
Nsg176
Nsg177
I00
sg79
g973
sg87
VMon Nov 09 09:00:18 +0000 2015
p1093
sg179
Nsg180
Nsg181
(dp1094
g183
Ven
p1095
sg185
Vrecent
p1096
sssg187
g1094
sg188
Nsg189
Nsg31
g1053
sg190
Nsg191
Nsg98
g1092
sg192
I00
sg193
Nsg194
I13
sg195
Nsbag0
(g4
g5
Ntp1097
Rp1098
(dp1099
g9
I00
sg10
Nsg11
I00
sg12
VRT @InvestWithConf: $SGBK is rated BUY, 10.8% upside by Wall Street analysts based on average ratings/targets https://t.co/ozLY6MYUsJ https\u2026
p1100
sg14
Vhttp://twitter.com
p1101
sg16
I00
sg17
I00
sg18
Nsg19
g0
(g20
g5
Ntp1102
Rp1103
(dp1104
g24
I00
sg25
I00
sg26
I00
sg27
V000000
p1105
sg29
L3903603674L
sg30
I00
sg31
(dp1106
g86
(dp1107
g35
(lp1108
(dp1109
g86
Vhttp://t.co/LHJRK2cSqh
p1110
sg154
(lp1111
I0
aI22
asg165
Vhttp://goo.gl/lh59ZJ
p1112
sg167
Vgoo.gl/lh59ZJ
p1113
sassg33
(dp1114
g35
(lp1115
(dp1116
g86
Vhttp://t.co/LHJRK2cSqh
p1117
sg154
(lp1118
I137
aI159
asg165
Vhttp://goo.gl/lh59ZJ
p1119
sg167
Vgoo.gl/lh59ZJ
p1120
sasssg37
Vhttps://pbs.twimg.com/profile_images/654666112622170112/9Jcx8Oi3_normal.jpg
p1121
sg39
(dp1122
g41
I00
sg42
I00
sg43
I00
sg44
I00
sg45
L3903603674L
sg46
Vhttps://abs.twimg.com/images/themes/theme1/bg.png
p1123
sg48
I00
sg49
V000000
p1124
sg51
g1121
sg52
g1105
sg53
g1106
sg54
I77
sg55
V000000
p1125
sg57
V3903603674
p1126
sg59
V000000
p1127
sg61
I1
sg62
I00
sg63
Nsg64
I346
sg33
V#Business #Consultant helping people to increase their reach on specific location or specific area.Need to reach more followers?Checkout http://t.co/LHJRK2cSqh
p1128
sg66
I610
sg67
VPhoenix, AZ
p1129
sg69
V000000
p1130
sg71
Vhttp://pbs.twimg.com/profile_images/654666112622170112/9Jcx8Oi3_normal.jpg
p1131
sg73
I00
sg74
I00
sg75
Vhttp://abs.twimg.com/images/themes/theme1/bg.png
p1132
sg77
VJuliadHughes
p1133
sg79
Ven
p1134
sg81
I00
sg82
I251
sg83
VJulia Hughes
p1135
sg85
I00
sg86
Vhttp://t.co/LHJRK2cSqh
p1136
sg87
VThu Oct 15 14:31:04 +0000 2015
p1137
sg89
I00
sg90
Nsg91
I00
sg92
I00
sg93
I00
ssg94
I00
sg95
g1124
sg96
I77
sg97
g1125
sg98
g1126
sg99
I00
sg100
I1
sg101
I00
sg102
Nsg103
I346
sg104
g1128
sg105
I610
sg106
g1129
sg107
g1130
sg108
g1131
sg109
I00
sg110
I00
sg111
g1127
sg112
g1132
sg113
g1133
sg114
g1134
sg115
I00
sg116
I00
sg117
I251
sg118
g1135
sg119
g1136
sg120
g121
(S'\x07\xdf\n\x0f\x0e\x1f\x04\x00\x00\x00'
p1138
tp1139
Rp1140
sg125
g1123
sg126
Nsg127
I00
sg128
I00
sg129
I00
sbsg130
Nsg29
L663632496332926976L
sg131
I0
sg132
VTwitter Web Client
p1141
sg114
Ven
p1142
sg787
g0
(g4
g5
Ntp1143
Rp1144
(dp1145
g9
I00
sg10
Nsg11
I00
sg12
V$SGBK is rated BUY, 10.8% upside by Wall Street analysts based on average ratings/targets https://t.co/ozLY6MYUsJ https://t.co/ldKD4SpyhS
p1146
sg14
Vhttp://investwithconf.blogspot.com
p1147
sg16
I00
sg17
I00
sg18
Nsg19
g0
(g20
g5
Ntp1148
Rp1149
(dp1150
g24
I00
sg25
I00
sg26
I01
sg27
VF6FFD1
p1151
sg29
L2344623210L
sg30
I00
sg31
(dp1152
g33
(dp1153
g35
(lp1154
sssg37
Vhttps://pbs.twimg.com/profile_images/597618707721035778/xao5eh5P_normal.jpg
p1155
sg39
(dp1156
g41
I00
sg42
I00
sg43
I01
sg44
I00
sg45
L2344623210L
sg46
Vhttps://abs.twimg.com/images/themes/theme19/bg.gif
p1157
sg48
I00
sg49
V333333
p1158
sg51
g1155
sg52
g1151
sg53
g1152
sg54
I256
sg55
VFFF8AD
p1159
sg57
V2344623210
p1160
sg59
VFFF04D
p1161
sg61
I16
sg62
I00
sg63
I-18000
sg64
I67446
sg33
g68
sg66
I0
sg67
g68
sg69
V0099CC
p1162
sg71
Vhttp://pbs.twimg.com/profile_images/597618707721035778/xao5eh5P_normal.jpg
p1163
sg73
I00
sg74
I00
sg75
Vhttp://abs.twimg.com/images/themes/theme19/bg.gif
p1164
sg77
VInvestWithConf
p1165
sg79
Ven
p1166
sg81
I00
sg82
I0
sg83
VInvestWithConf
p1167
sg85
I00
sg86
Nsg87
VSat Feb 15 05:52:28 +0000 2014
p1168
sg89
I00
sg90
VEastern Time (US & Canada)
p1169
sg91
I00
sg92
I00
sg93
I00
ssg94
I00
sg95
g1158
sg96
I256
sg97
g1159
sg98
g1160
sg99
I00
sg100
I16
sg101
I00
sg102
I-18000
sg103
I67446
sg104
g68
sg105
I0
sg106
g68
sg107
g1162
sg108
g1163
sg109
I00
sg110
I00
sg111
g1161
sg112
g1164
sg113
g1165
sg114
g1166
sg115
I00
sg116
I00
sg117
I0
sg118
g1167
sg119
Nsg120
g121
(S'\x07\xde\x02\x0f\x054\x1c\x00\x00\x00'
p1170
tp1171
Rp1172
sg125
g1157
sg126
g1169
sg127
I00
sg128
I00
sg129
I00
sbsg130
Nsg29
L661431623968292864L
sg131
I6
sg132
VIWCE
p1173
sg114
Ven
p1174
sg135
g1149
sg120
g121
(S'\x07\xdf\x0b\x03\x06$\x02\x00\x00\x00'
p1175
tp1176
Rp1177
sg39
(dp1178
g140
Nsg141
I00
sg142
g1146
sg143
I00
sg144
Nsg45
L661431623968292864L
sg145
I6
sg146
V<a href="http://investwithconf.blogspot.com" rel="nofollow">IWCE</a>
p1179
sg148
I00
sg149
Nsg53
(dp1180
g151
(lp1181
(dp1182
g154
(lp1183
I0
aI5
asg142
VSGBK
p1184
sasg157
(lp1185
sg159
(lp1186
sg35
(lp1187
(dp1188
g86
Vhttps://t.co/ozLY6MYUsJ
p1189
sg154
(lp1190
I90
aI113
asg165
Vhttp://manyratings.com/SGBK
p1191
sg167
Vmanyratings.com/SGBK
p1192
sasg838
(lp1193
(dp1194
g165
Vhttp://twitter.com/InvestWithConf/status/661431623968292864/photo/1
p1195
sg167
Vpic.twitter.com/ldKD4SpyhS
p1196
sg86
Vhttps://t.co/ldKD4SpyhS
p1197
sg844
Vhttps://pbs.twimg.com/media/CS3gjpRWwAEg2tr.jpg
p1198
sg57
V661431623272022017
p1199
sg847
(dp1200
g849
(dp1201
g851
I4
sg852
Vfit
p1202
sg854
I4
ssg855
(dp1203
g851
I4
sg852
Vfit
p1204
sg854
I4
ssg858
(dp1205
g851
I4
sg852
Vfit
p1206
sg854
I4
ssg861
(dp1207
g851
I4
sg852
Vcrop
p1208
sg854
I4
sssg154
(lp1209
I114
aI137
asg865
Vphoto
p1210
sg45
L661431623272022017L
sg867
Vhttp://pbs.twimg.com/media/CS3gjpRWwAEg2tr.jpg
p1211
sassg169
Nsg170
Nsg171
I13
sg57
V661431623968292864
p1212
sg173
I00
sg174
g1156
sg175
Nsg176
Nsg177
I00
sg79
g1174
sg87
VTue Nov 03 06:36:02 +0000 2015
p1213
sg179
Nsg180
Nsg181
(dp1214
g183
Ven
p1215
sg185
Vrecent
p1216
sssg187
g1214
sg188
Nsg189
Nsg31
g1180
sg190
Nsg191
Nsg98
g1212
sg192
I00
sg193
Nsg194
I13
sg195
Nsbsg135
g1103
sg120
g121
(S'\x07\xdf\x0b\t\x08\x15\x1f\x00\x00\x00'
p1217
tp1218
Rp1219
sg39
(dp1220
g140
Nsg141
I00
sg142
g1100
sg143
I00
sg144
Nsg45
L663632496332926976L
sg145
I0
sg146
V<a href="http://twitter.com" rel="nofollow">Twitter Web Client</a>
p1221
sg148
I00
sg149
Nsg53
(dp1222
g151
(lp1223
(dp1224
g154
(lp1225
I20
aI25
asg142
VSGBK
p1226
sasg157
(lp1227
(dp1228
g45
L2344623210L
sg154
(lp1229
I3
aI18
asg57
V2344623210
p1230
sg77
VInvestWithConf
p1231
sg83
VInvestWithConf
p1232
sasg159
(lp1233
sg35
(lp1234
(dp1235
g86
Vhttps://t.co/ozLY6MYUsJ
p1236
sg154
(lp1237
I110
aI133
asg165
Vhttp://manyratings.com/SGBK
p1238
sg167
Vmanyratings.com/SGBK
p1239
sasg838
(lp1240
(dp1241
g899
L2344623210L
sg900
V661431623968292864
p1242
sg165
Vhttp://twitter.com/InvestWithConf/status/661431623968292864/photo/1
p1243
sg167
Vpic.twitter.com/ldKD4SpyhS
p1244
sg86
Vhttps://t.co/ldKD4SpyhS
p1245
sg844
Vhttps://pbs.twimg.com/media/CS3gjpRWwAEg2tr.jpg
p1246
sg906
V2344623210
p1247
sg908
L661431623968292864L
sg57
V661431623272022017
p1248
sg847
(dp1249
g849
(dp1250
g851
I4
sg852
Vfit
p1251
sg854
I4
ssg855
(dp1252
g851
I4
sg852
Vfit
p1253
sg854
I4
ssg858
(dp1254
g851
I4
sg852
Vfit
p1255
sg854
I4
ssg861
(dp1256
g851
I4
sg852
Vcrop
p1257
sg854
I4
sssg154
(lp1258
I139
aI140
asg865
Vphoto
p1259
sg45
L661431623272022017L
sg867
Vhttp://pbs.twimg.com/media/CS3gjpRWwAEg2tr.jpg
p1260
sassg169
Nsg170
Nsg171
I13
sg57
V663632496332926976
p1261
sg173
I00
sg923
g1178
sg174
g1122
sg175
Nsg176
Nsg177
I00
sg79
g1142
sg87
VMon Nov 09 08:21:31 +0000 2015
p1262
sg179
Nsg180
Nsg181
(dp1263
g183
Ven
p1264
sg185
Vrecent
p1265
sssg187
g1263
sg188
Nsg189
Nsg31
g1222
sg190
Nsg191
Nsg98
g1261
sg192
I00
sg193
Nsg194
I13
sg195
Nsbag0
(g4
g5
Ntp1266
Rp1267
(dp1268
g9
I00
sg10
Nsg11
I00
sg12
V$SGBK: Wall Street analysts bullish on SGBK's earnings growth: https://t.co/bDmG40JWG1 https://t.co/nLCfCvoKOQ
p1269
sg14
Vhttp://example.com
p1270
sg16
I00
sg17
I00
sg18
Nsg19
g0
(g20
g5
Ntp1271
Rp1272
(dp1273
g24
I00
sg25
I00
sg26
I01
sg27
VDDEEF6
p1274
sg29
L3290849920L
sg30
I00
sg31
(dp1275
g33
(dp1276
g35
(lp1277
sssg37
Vhttps://pbs.twimg.com/profile_images/606146912773926912/tpzIX1Xs_normal.jpg
p1278
sg39
(dp1279
g41
I00
sg42
I00
sg43
I01
sg44
I00
sg45
L3290849920L
sg46
Vhttps://abs.twimg.com/images/themes/theme1/bg.png
p1280
sg48
I00
sg49
V333333
p1281
sg51
g1278
sg52
g1274
sg53
g1275
sg54
I166
sg55
VC0DEED
p1282
sg57
V3290849920
p1283
sg59
VC0DEED
p1284
sg61
I12
sg62
I00
sg63
I-28800
sg64
I44251
sg33
g68
sg66
I0
sg67
g68
sg69
V0084B4
p1285
sg71
Vhttp://pbs.twimg.com/profile_images/606146912773926912/tpzIX1Xs_normal.jpg
p1286
sg73
I00
sg74
I00
sg75
Vhttp://abs.twimg.com/images/themes/theme1/bg.png
p1287
sg77
VTimeForGrowth
p1288
sg79
Ven
p1289
sg81
I00
sg82
I0
sg83
VTimeForGrowth
p1290
sg85
I00
sg86
Nsg87
VWed May 20 03:22:57 +0000 2015
p1291
sg89
I00
sg90
VPacific Time (US & Canada)
p1292
sg91
I00
sg92
I01
sg93
I00
ssg94
I00
sg95
g1281
sg96
I166
sg97
g1282
sg98
g1283
sg99
I00
sg100
I12
sg101
I00
sg102
I-28800
sg103
I44251
sg104
g68
sg105
I0
sg106
g68
sg107
g1285
sg108
g1286
sg109
I00
sg110
I00
sg111
g1284
sg112
g1287
sg113
g1288
sg114
g1289
sg115
I00
sg116
I00
sg117
I0
sg118
g1290
sg119
Nsg120
g121
(S'\x07\xdf\x05\x14\x03\x169\x00\x00\x00'
p1293
tp1294
Rp1295
sg125
g1280
sg126
g1292
sg127
I00
sg128
I01
sg129
I00
sbsg130
Nsg29
L663542782968074240L
sg131
I0
sg132
VCrunchingTime
p1296
sg114
Ven
p1297
sg135
g1272
sg120
g121
(S'\x07\xdf\x0b\t\x02\x19\x02\x00\x00\x00'
p1298
tp1299
Rp1300
sg39
(dp1301
g140
Nsg141
I00
sg142
g1269
sg143
I00
sg144
Nsg45
L663542782968074240L
sg145
I0
sg146
V<a href="http://example.com" rel="nofollow">CrunchingTime</a>
p1302
sg148
I00
sg149
Nsg53
(dp1303
g151
(lp1304
(dp1305
g154
(lp1306
I0
aI5
asg142
VSGBK
p1307
sasg157
(lp1308
sg159
(lp1309
sg35
(lp1310
(dp1311
g86
Vhttps://t.co/bDmG40JWG1
p1312
sg154
(lp1313
I63
aI86
asg165
Vhttp://growthnumbers.com/SGBK
p1314
sg167
Vgrowthnumbers.com/SGBK
p1315
sasg838
(lp1316
(dp1317
g165
Vhttp://twitter.com/TimeForGrowth/status/663542782968074240/photo/1
p1318
sg167
Vpic.twitter.com/nLCfCvoKOQ
p1319
sg86
Vhttps://t.co/nLCfCvoKOQ
p1320
sg844
Vhttps://pbs.twimg.com/media/CTVgpTkWwAA-UKH.jpg
p1321
sg57
V663542782850678784
p1322
sg847
(dp1323
g849
(dp1324
g851
I4
sg852
Vfit
p1325
sg854
I4
ssg855
(dp1326
g851
I4
sg852
Vfit
p1327
sg854
I4
ssg858
(dp1328
g851
I4
sg852
Vfit
p1329
sg854
I4
ssg861
(dp1330
g851
I4
sg852
Vcrop
p1331
sg854
I4
sssg154
(lp1332
I87
aI110
asg865
Vphoto
p1333
sg45
L663542782850678784L
sg867
Vhttp://pbs.twimg.com/media/CTVgpTkWwAA-UKH.jpg
p1334
sassg169
Nsg170
Nsg171
I0
sg57
V663542782968074240
p1335
sg173
I00
sg174
g1279
sg175
Nsg176
Nsg177
I00
sg79
g1297
sg87
VMon Nov 09 02:25:02 +0000 2015
p1336
sg179
Nsg180
Nsg181
(dp1337
g183
Ven
p1338
sg185
Vrecent
p1339
sssg187
g1337
sg188
Nsg189
Nsg31
g1303
sg190
Nsg191
Nsg98
g1335
sg192
I00
sg193
Nsg194
I0
sg195
Nsbag0
(g4
g5
Ntp1340
Rp1341
(dp1342
g9
I00
sg10
Nsg11
I00
sg12
VRT @InvestWithConf: $SGBK is rated BUY, 10.8% upside by Wall Street analysts based on average ratings/targets https://t.co/ozLY6MYUsJ https\u2026
p1343
sg14
Vhttp://twitter.com
p1344
sg16
I00
sg17
I00
sg18
Nsg19
g0
(g20
g5
Ntp1345
Rp1346
(dp1347
g24
I00
sg25
I00
sg26
I00
sg27
V000000
p1348
sg29
L3905411004L
sg30
I00
sg31
(dp1349
g86
(dp1350
g35
(lp1351
(dp1352
g86
Vhttp://t.co/xcHN3sR6Ie
p1353
sg154
(lp1354
I0
aI22
asg165
Vhttp://goo.gl/Lc73jz
p1355
sg167
Vgoo.gl/Lc73jz
p1356
sassg33
(dp1357
g35
(lp1358
(dp1359
g86
Vhttp://t.co/xcHN3sR6Ie
p1360
sg154
(lp1361
I97
aI119
asg165
Vhttp://goo.gl/Lc73jz
p1362
sg167
Vgoo.gl/Lc73jz
p1363
sasssg37
Vhttps://pbs.twimg.com/profile_images/654727674728845317/0vAVsLEd_normal.jpg
p1364
sg39
(dp1365
g41
I00
sg42
I00
sg43
I00
sg44
I00
sg45
L3905411004L
sg46
Vhttps://abs.twimg.com/images/themes/theme1/bg.png
p1366
sg48
I00
sg49
V000000
p1367
sg51
g1364
sg52
g1348
sg53
g1349
sg54
I81
sg55
V000000
p1368
sg57
V3905411004
p1369
sg59
V000000
p1370
sg61
I2
sg62
I00
sg63
Nsg64
I345
sg33
V#BizTips #B2b #Realestate Investor and Social Media Guru! Learn how to get 100k Followers easily http://t.co/xcHN3sR6Ie
p1371
sg66
I626
sg67
VMissouri, USA
p1372
sg69
V89C9FA
p1373
sg71
Vhttp://pbs.twimg.com/profile_images/654727674728845317/0vAVsLEd_normal.jpg
p1374
sg73
I00
sg74
I00
sg75
Vhttp://abs.twimg.com/images/themes/theme1/bg.png
p1375
sg77
VRichardWilkinse
p1376
sg79
Ven
p1377
sg81
I00
sg82
I271
sg83
VRichardWilkins
p1378
sg85
I00
sg86
Vhttp://t.co/xcHN3sR6Ie
p1379
sg87
VThu Oct 15 18:35:47 +0000 2015
p1380
sg89
I00
sg90
Nsg91
I00
sg92
I00
sg93
I00
ssg94
I00
sg95
g1367
sg96
I81
sg97
g1368
sg98
g1369
sg99
I00
sg100
I2
sg101
I00
sg102
Nsg103
I345
sg104
g1371
sg105
I626
sg106
g1372
sg107
g1373
sg108
g1374
sg109
I00
sg110
I00
sg111
g1370
sg112
g1375
sg113
g1376
sg114
g1377
sg115
I00
sg116
I00
sg117
I271
sg118
g1378
sg119
g1379
sg120
g121
(S'\x07\xdf\n\x0f\x12#/\x00\x00\x00'
p1381
tp1382
Rp1383
sg125
g1366
sg126
Nsg127
I00
sg128
I00
sg129
I00
sbsg130
Nsg29
L663171449641762816L
sg131
I0
sg132
VTwitter Web Client
p1384
sg114
Ven
p1385
sg787
g0
(g4
g5
Ntp1386
Rp1387
(dp1388
g9
I00
sg10
Nsg11
I00
sg12
V$SGBK is rated BUY, 10.8% upside by Wall Street analysts based on average ratings/targets https://t.co/ozLY6MYUsJ https://t.co/ldKD4SpyhS
p1389
sg14
Vhttp://investwithconf.blogspot.com
p1390
sg16
I00
sg17
I00
sg18
Nsg19
g0
(g20
g5
Ntp1391
Rp1392
(dp1393
g24
I00
sg25
I00
sg26
I01
sg27
VF6FFD1
p1394
sg29
L2344623210L
sg30
I00
sg31
(dp1395
g33
(dp1396
g35
(lp1397
sssg37
Vhttps://pbs.twimg.com/profile_images/597618707721035778/xao5eh5P_normal.jpg
p1398
sg39
(dp1399
g41
I00
sg42
I00
sg43
I01
sg44
I00
sg45
L2344623210L
sg46
Vhttps://abs.twimg.com/images/themes/theme19/bg.gif
p1400
sg48
I00
sg49
V333333
p1401
sg51
g1398
sg52
g1394
sg53
g1395
sg54
I256
sg55
VFFF8AD
p1402
sg57
V2344623210
p1403
sg59
VFFF04D
p1404
sg61
I16
sg62
I00
sg63
I-18000
sg64
I67446
sg33
g68
sg66
I0
sg67
g68
sg69
V0099CC
p1405
sg71
Vhttp://pbs.twimg.com/profile_images/597618707721035778/xao5eh5P_normal.jpg
p1406
sg73
I00
sg74
I00
sg75
Vhttp://abs.twimg.com/images/themes/theme19/bg.gif
p1407
sg77
VInvestWithConf
p1408
sg79
Ven
p1409
sg81
I00
sg82
I0
sg83
VInvestWithConf
p1410
sg85
I00
sg86
Nsg87
VSat Feb 15 05:52:28 +0000 2014
p1411
sg89
I00
sg90
VEastern Time (US & Canada)
p1412
sg91
I00
sg92
I00
sg93
I00
ssg94
I00
sg95
g1401
sg96
I256
sg97
g1402
sg98
g1403
sg99
I00
sg100
I16
sg101
I00
sg102
I-18000
sg103
I67446
sg104
g68
sg105
I0
sg106
g68
sg107
g1405
sg108
g1406
sg109
I00
sg110
I00
sg111
g1404
sg112
g1407
sg113
g1408
sg114
g1409
sg115
I00
sg116
I00
sg117
I0
sg118
g1410
sg119
Nsg120
g121
(S'\x07\xde\x02\x0f\x054\x1c\x00\x00\x00'
p1413
tp1414
Rp1415
sg125
g1400
sg126
g1412
sg127
I00
sg128
I00
sg129
I00
sbsg130
Nsg29
L661431623968292864L
sg131
I6
sg132
VIWCE
p1416
sg114
Ven
p1417
sg135
g1392
sg120
g121
(S'\x07\xdf\x0b\x03\x06$\x02\x00\x00\x00'
p1418
tp1419
Rp1420
sg39
(dp1421
g140
Nsg141
I00
sg142
g1389
sg143
I00
sg144
Nsg45
L661431623968292864L
sg145
I6
sg146
V<a href="http://investwithconf.blogspot.com" rel="nofollow">IWCE</a>
p1422
sg148
I00
sg149
Nsg53
(dp1423
g151
(lp1424
(dp1425
g154
(lp1426
I0
aI5
asg142
VSGBK
p1427
sasg157
(lp1428
sg159
(lp1429
sg35
(lp1430
(dp1431
g86
Vhttps://t.co/ozLY6MYUsJ
p1432
sg154
(lp1433
I90
aI113
asg165
Vhttp://manyratings.com/SGBK
p1434
sg167
Vmanyratings.com/SGBK
p1435
sasg838
(lp1436
(dp1437
g165
Vhttp://twitter.com/InvestWithConf/status/661431623968292864/photo/1
p1438
sg167
Vpic.twitter.com/ldKD4SpyhS
p1439
sg86
Vhttps://t.co/ldKD4SpyhS
p1440
sg844
Vhttps://pbs.twimg.com/media/CS3gjpRWwAEg2tr.jpg
p1441
sg57
V661431623272022017
p1442
sg847
(dp1443
g849
(dp1444
g851
I4
sg852
Vfit
p1445
sg854
I4
ssg855
(dp1446
g851
I4
sg852
Vfit
p1447
sg854
I4
ssg858
(dp1448
g851
I4
sg852
Vfit
p1449
sg854
I4
ssg861
(dp1450
g851
I4
sg852
Vcrop
p1451
sg854
I4
sssg154
(lp1452
I114
aI137
asg865
Vphoto
p1453
sg45
L661431623272022017L
sg867
Vhttp://pbs.twimg.com/media/CS3gjpRWwAEg2tr.jpg
p1454
sassg169
Nsg170
Nsg171
I13
sg57
V661431623968292864
p1455
sg173
I00
sg174
g1399
sg175
Nsg176
Nsg177
I00
sg79
g1417
sg87
VTue Nov 03 06:36:02 +0000 2015
p1456
sg179
Nsg180
Nsg181
(dp1457
g183
Ven
p1458
sg185
Vrecent
p1459
sssg187
g1457
sg188
Nsg189
Nsg31
g1423
sg190
Nsg191
Nsg98
g1455
sg192
I00
sg193
Nsg194
I13
sg195
Nsbsg135
g1346
sg120
g121
(S'\x07\xdf\x0b\x08\x011\x1d\x00\x00\x00'
p1460
tp1461
Rp1462
sg39
(dp1463
g140
Nsg141
I00
sg142
g1343
sg143
I00
sg144
Nsg45
L663171449641762816L
sg145
I0
sg146
V<a href="http://twitter.com" rel="nofollow">Twitter Web Client</a>
p1464
sg148
I00
sg149
Nsg53
(dp1465
g151
(lp1466
(dp1467
g154
(lp1468
I20
aI25
asg142
VSGBK
p1469
sasg157
(lp1470
(dp1471
g45
L2344623210L
sg154
(lp1472
I3
aI18
asg57
V2344623210
p1473
sg77
VInvestWithConf
p1474
sg83
VInvestWithConf
p1475
sasg159
(lp1476
sg35
(lp1477
(dp1478
g86
Vhttps://t.co/ozLY6MYUsJ
p1479
sg154
(lp1480
I110
aI133
asg165
Vhttp://manyratings.com/SGBK
p1481
sg167
Vmanyratings.com/SGBK
p1482
sasg838
(lp1483
(dp1484
g899
L2344623210L
sg900
V661431623968292864
p1485
sg165
Vhttp://twitter.com/InvestWithConf/status/661431623968292864/photo/1
p1486
sg167
Vpic.twitter.com/ldKD4SpyhS
p1487
sg86
Vhttps://t.co/ldKD4SpyhS
p1488
sg844
Vhttps://pbs.twimg.com/media/CS3gjpRWwAEg2tr.jpg
p1489
sg906
V2344623210
p1490
sg908
L661431623968292864L
sg57
V661431623272022017
p1491
sg847
(dp1492
g849
(dp1493
g851
I4
sg852
Vfit
p1494
sg854
I4
ssg855
(dp1495
g851
I4
sg852
Vfit
p1496
sg854
I4
ssg858
(dp1497
g851
I4
sg852
Vfit
p1498
sg854
I4
ssg861
(dp1499
g851
I4
sg852
Vcrop
p1500
sg854
I4
sssg154
(lp1501
I139
aI140
asg865
Vphoto
p1502
sg45
L661431623272022017L
sg867
Vhttp://pbs.twimg.com/media/CS3gjpRWwAEg2tr.jpg
p1503
sassg169
Nsg170
Nsg171
I13
sg57
V663171449641762816
p1504
sg173
I00
sg923
g1421
sg174
g1365
sg175
Nsg176
Nsg177
I00
sg79
g1385
sg87
VSun Nov 08 01:49:29 +0000 2015
p1505
sg179
Nsg180
Nsg181
(dp1506
g183
Ven
p1507
sg185
Vrecent
p1508
sssg187
g1506
sg188
Nsg189
Nsg31
g1465
sg190
Nsg191
Nsg98
g1504
sg192
I00
sg193
Nsg194
I13
sg195
Nsbag0
(g4
g5
Ntp1509
Rp1510
(dp1511
g9
I00
sg10
Nsg11
I00
sg12
VRT @InvestWithConf: $SGBK is rated BUY, 10.8% upside by Wall Street analysts based on average ratings/targets https://t.co/ozLY6MYUsJ https\u2026
p1512
sg14
Vhttp://twitter.com
p1513
sg16
I00
sg17
I00
sg18
Nsg19
g0
(g20
g5
Ntp1514
Rp1515
(dp1516
g24
I00
sg25
I00
sg26
I00
sg27
V000000
p1517
sg29
L3903706154L
sg30
I00
sg31
(dp1518
g86
(dp1519
g35
(lp1520
(dp1521
g86
Vhttp://t.co/LHJRK2cSqh
p1522
sg154
(lp1523
I0
aI22
asg165
Vhttp://goo.gl/lh59ZJ
p1524
sg167
Vgoo.gl/lh59ZJ
p1525
sassg33
(dp1526
g35
(lp1527
(dp1528
g86
Vhttp://t.co/LHJRK2cSqh
p1529
sg154
(lp1530
I137
aI159
asg165
Vhttp://goo.gl/lh59ZJ
p1531
sg167
Vgoo.gl/lh59ZJ
p1532
sasssg37
Vhttps://pbs.twimg.com/profile_images/654669471089430529/ZSXPuaJY_normal.jpg
p1533
sg39
(dp1534
g41
I00
sg42
I00
sg43
I00
sg44
I00
sg45
L3903706154L
sg46
Vhttps://abs.twimg.com/images/themes/theme1/bg.png
p1535
sg48
I00
sg49
V000000
p1536
sg51
g1533
sg52
g1517
sg53
g1518
sg54
I78
sg55
V000000
p1537
sg57
V3903706154
p1538
sg59
V000000
p1539
sg61
I11
sg62
I00
sg63
Nsg64
I351
sg33
V#Business #Consultant helping people to increase their reach on specific location or specific area.Need to reach more followers?Checkout http://t.co/LHJRK2cSqh
p1540
sg66
I624
sg67
VIllinois, USA
p1541
sg69
V000000
p1542
sg71
Vhttp://pbs.twimg.com/profile_images/654669471089430529/ZSXPuaJY_normal.jpg
p1543
sg73
I00
sg74
I00
sg75
Vhttp://abs.twimg.com/images/themes/theme1/bg.png
p1544
sg77
VWendyaLogana
p1545
sg79
Ven
p1546
sg81
I00
sg82
I246
sg83
VWendy Logan
p1547
sg85
I00
sg86
Vhttp://t.co/LHJRK2cSqh
p1548
sg87
VThu Oct 15 14:44:21 +0000 2015
p1549
sg89
I00
sg90
Nsg91
I00
sg92
I00
sg93
I00
ssg94
I00
sg95
g1536
sg96
I78
sg97
g1537
sg98
g1538
sg99
I00
sg100
I11
sg101
I00
sg102
Nsg103
I351
sg104
g1540
sg105
I624
sg106
g1541
sg107
g1542
sg108
g1543
sg109
I00
sg110
I00
sg111
g1539
sg112
g1544
sg113
g1545
sg114
g1546
sg115
I00
sg116
I00
sg117
I246
sg118
g1547
sg119
g1548
sg120
g121
(S'\x07\xdf\n\x0f\x0e,\x15\x00\x00\x00'
p1550
tp1551
Rp1552
sg125
g1535
sg126
Nsg127
I00
sg128
I00
sg129
I00
sbsg130
Nsg29
L663166892710961152L
sg131
I0
sg132
VTwitter Web Client
p1553
sg114
Ven
p1554
sg787
g0
(g4
g5
Ntp1555
Rp1556
(dp1557
g9
I00
sg10
Nsg11
I00
sg12
V$SGBK is rated BUY, 10.8% upside by Wall Street analysts based on average ratings/targets https://t.co/ozLY6MYUsJ https://t.co/ldKD4SpyhS
p1558
sg14
Vhttp://investwithconf.blogspot.com
p1559
sg16
I00
sg17
I00
sg18
Nsg19
g0
(g20
g5
Ntp1560
Rp1561
(dp1562
g24
I00
sg25
I00
sg26
I01
sg27
VF6FFD1
p1563
sg29
L2344623210L
sg30
I00
sg31
(dp1564
g33
(dp1565
g35
(lp1566
sssg37
Vhttps://pbs.twimg.com/profile_images/597618707721035778/xao5eh5P_normal.jpg
p1567
sg39
(dp1568
g41
I00
sg42
I00
sg43
I01
sg44
I00
sg45
L2344623210L
sg46
Vhttps://abs.twimg.com/images/themes/theme19/bg.gif
p1569
sg48
I00
sg49
V333333
p1570
sg51
g1567
sg52
g1563
sg53
g1564
sg54
I256
sg55
VFFF8AD
p1571
sg57
V2344623210
p1572
sg59
VFFF04D
p1573
sg61
I16
sg62
I00
sg63
I-18000
sg64
I67446
sg33
g68
sg66
I0
sg67
g68
sg69
V0099CC
p1574
sg71
Vhttp://pbs.twimg.com/profile_images/597618707721035778/xao5eh5P_normal.jpg
p1575
sg73
I00
sg74
I00
sg75
Vhttp://abs.twimg.com/images/themes/theme19/bg.gif
p1576
sg77
VInvestWithConf
p1577
sg79
Ven
p1578
sg81
I00
sg82
I0
sg83
VInvestWithConf
p1579
sg85
I00
sg86
Nsg87
VSat Feb 15 05:52:28 +0000 2014
p1580
sg89
I00
sg90
VEastern Time (US & Canada)
p1581
sg91
I00
sg92
I00
sg93
I00
ssg94
I00
sg95
g1570
sg96
I256
sg97
g1571
sg98
g1572
sg99
I00
sg100
I16
sg101
I00
sg102
I-18000
sg103
I67446
sg104
g68
sg105
I0
sg106
g68
sg107
g1574
sg108
g1575
sg109
I00
sg110
I00
sg111
g1573
sg112
g1576
sg113
g1577
sg114
g1578
sg115
I00
sg116
I00
sg117
I0
sg118
g1579
sg119
Nsg120
g121
(S'\x07\xde\x02\x0f\x054\x1c\x00\x00\x00'
p1582
tp1583
Rp1584
sg125
g1569
sg126
g1581
sg127
I00
sg128
I00
sg129
I00
sbsg130
Nsg29
L661431623968292864L
sg131
I6
sg132
VIWCE
p1585
sg114
Ven
p1586
sg135
g1561
sg120
g121
(S'\x07\xdf\x0b\x03\x06$\x02\x00\x00\x00'
p1587
tp1588
Rp1589
sg39
(dp1590
g140
Nsg141
I00
sg142
g1558
sg143
I00
sg144
Nsg45
L661431623968292864L
sg145
I6
sg146
V<a href="http://investwithconf.blogspot.com" rel="nofollow">IWCE</a>
p1591
sg148
I00
sg149
Nsg53
(dp1592
g151
(lp1593
(dp1594
g154
(lp1595
I0
aI5
asg142
VSGBK
p1596
sasg157
(lp1597
sg159
(lp1598
sg35
(lp1599
(dp1600
g86
Vhttps://t.co/ozLY6MYUsJ
p1601
sg154
(lp1602
I90
aI113
asg165
Vhttp://manyratings.com/SGBK
p1603
sg167
Vmanyratings.com/SGBK
p1604
sasg838
(lp1605
(dp1606
g165
Vhttp://twitter.com/InvestWithConf/status/661431623968292864/photo/1
p1607
sg167
Vpic.twitter.com/ldKD4SpyhS
p1608
sg86
Vhttps://t.co/ldKD4SpyhS
p1609
sg844
Vhttps://pbs.twimg.com/media/CS3gjpRWwAEg2tr.jpg
p1610
sg57
V661431623272022017
p1611
sg847
(dp1612
g849
(dp1613
g851
I4
sg852
Vfit
p1614
sg854
I4
ssg855
(dp1615
g851
I4
sg852
Vfit
p1616
sg854
I4
ssg858
(dp1617
g851
I4
sg852
Vfit
p1618
sg854
I4
ssg861
(dp1619
g851
I4
sg852
Vcrop
p1620
sg854
I4
sssg154
(lp1621
I114
aI137
asg865
Vphoto
p1622
sg45
L661431623272022017L
sg867
Vhttp://pbs.twimg.com/media/CS3gjpRWwAEg2tr.jpg
p1623
sassg169
Nsg170
Nsg171
I13
sg57
V661431623968292864
p1624
sg173
I00
sg174
g1568
sg175
Nsg176
Nsg177
I00
sg79
g1586
sg87
VTue Nov 03 06:36:02 +0000 2015
p1625
sg179
Nsg180
Nsg181
(dp1626
g183
Ven
p1627
sg185
Vrecent
p1628
sssg187
g1626
sg188
Nsg189
Nsg31
g1592
sg190
Nsg191
Nsg98
g1624
sg192
I00
sg193
Nsg194
I13
sg195
Nsbsg135
g1515
sg120
g121
(S'\x07\xdf\x0b\x08\x01\x1f\x16\x00\x00\x00'
p1629
tp1630
Rp1631
sg39
(dp1632
g140
Nsg141
I00
sg142
g1512
sg143
I00
sg144
Nsg45
L663166892710961152L
sg145
I0
sg146
V<a href="http://twitter.com" rel="nofollow">Twitter Web Client</a>
p1633
sg148
I00
sg149
Nsg53
(dp1634
g151
(lp1635
(dp1636
g154
(lp1637
I20
aI25
asg142
VSGBK
p1638
sasg157
(lp1639
(dp1640
g45
L2344623210L
sg154
(lp1641
I3
aI18
asg57
V2344623210
p1642
sg77
VInvestWithConf
p1643
sg83
VInvestWithConf
p1644
sasg159
(lp1645
sg35
(lp1646
(dp1647
g86
Vhttps://t.co/ozLY6MYUsJ
p1648
sg154
(lp1649
I110
aI133
asg165
Vhttp://manyratings.com/SGBK
p1650
sg167
Vmanyratings.com/SGBK
p1651
sasg838
(lp1652
(dp1653
g899
L2344623210L
sg900
V661431623968292864
p1654
sg165
Vhttp://twitter.com/InvestWithConf/status/661431623968292864/photo/1
p1655
sg167
Vpic.twitter.com/ldKD4SpyhS
p1656
sg86
Vhttps://t.co/ldKD4SpyhS
p1657
sg844
Vhttps://pbs.twimg.com/media/CS3gjpRWwAEg2tr.jpg
p1658
sg906
V2344623210
p1659
sg908
L661431623968292864L
sg57
V661431623272022017
p1660
sg847
(dp1661
g849
(dp1662
g851
I4
sg852
Vfit
p1663
sg854
I4
ssg855
(dp1664
g851
I4
sg852
Vfit
p1665
sg854
I4
ssg858
(dp1666
g851
I4
sg852
Vfit
p1667
sg854
I4
ssg861
(dp1668
g851
I4
sg852
Vcrop
p1669
sg854
I4
sssg154
(lp1670
I139
aI140
asg865
Vphoto
p1671
sg45
L661431623272022017L
sg867
Vhttp://pbs.twimg.com/media/CS3gjpRWwAEg2tr.jpg
p1672
sassg169
Nsg170
Nsg171
I13
sg57
V663166892710961152
p1673
sg173
I00
sg923
g1590
sg174
g1534
sg175
Nsg176
Nsg177
I00
sg79
g1554
sg87
VSun Nov 08 01:31:22 +0000 2015
p1674
sg179
Nsg180
Nsg181
(dp1675
g183
Ven
p1676
sg185
Vrecent
p1677
sssg187
g1675
sg188
Nsg189
Nsg31
g1634
sg190
Nsg191
Nsg98
g1673
sg192
I00
sg193
Nsg194
I13
sg195
Nsbag0
(g4
g5
Ntp1678
Rp1679
(dp1680
g9
I00
sg10
Nsg11
I00
sg12
VStonegate Bank Hits New 12-Month High at $32.99 $SGBK https://t.co/OpEbdpuRFg
p1681
sg14
Vhttp://ifttt.com
p1682
sg16
I00
sg17
I00
sg18
Nsg19
g0
(g20
g5
Ntp1683
Rp1684
(dp1685
g24
I00
sg25
I00
sg26
I01
sg27
VEFEFEF
p1686
sg29
I1979190776
sg30
I00
sg31
(dp1687
g33
(dp1688
g35
(lp1689
sssg37
Vhttps://pbs.twimg.com/profile_images/378800000629011324/02a58ce4852fa2c0b053a8853393c35c_normal.png
p1690
sg39
(dp1691
g41
I00
sg42
I00
sg43
I01
sg44
I00
sg45
I1979190776
sg46
Vhttps://abs.twimg.com/images/themes/theme14/bg.gif
p1692
sg48
I00
sg49
V333333
p1693
sg51
g1690
sg52
g1686
sg53
g1687
sg54
I780
sg55
VEEEEEE
p1694
sg57
V1979190776
p1695
sg59
V131516
p1696
sg61
I83
sg62
I00
sg63
Nsg64
I347263
sg33
VMarket moving news
p1697
sg66
I11
sg67
VVirginia
p1698
sg69
V009999
p1699
sg71
Vhttp://pbs.twimg.com/profile_images/378800000629011324/02a58ce4852fa2c0b053a8853393c35c_normal.png
p1700
sg73
I00
sg74
I00
sg75
Vhttp://abs.twimg.com/images/themes/theme14/bg.gif
p1701
sg77
VTickerReport
p1702
sg79
Ven
p1703
sg81
I01
sg82
I0
sg83
VTicker Report
p1704
sg85
I00
sg86
Nsg87
VMon Oct 21 15:58:27 +0000 2013
p1705
sg89
I00
sg90
Nsg91
I00
sg92
I00
sg93
I00
ssg94
I00
sg95
g1693
sg96
I780
sg97
g1694
sg98
g1695
sg99
I00
sg100
I83
sg101
I00
sg102
Nsg103
I347263
sg104
g1697
sg105
I11
sg106
g1698
sg107
g1699
sg108
g1700
sg109
I00
sg110
I00
sg111
g1696
sg112
g1701
sg113
g1702
sg114
g1703
sg115
I00
sg116
I01
sg117
I0
sg118
g1704
sg119
Nsg120
g121
(S'\x07\xdd\n\x15\x0f:\x1b\x00\x00\x00'
p1706
tp1707
Rp1708
sg125
g1692
sg126
Nsg127
I00
sg128
I00
sg129
I00
sbsg130
Nsg29
L662946682385137664L
sg131
I0
sg132
VIFTTT
p1709
sg114
Ven
p1710
sg135
g1684
sg120
g121
(S'\x07\xdf\x0b\x07\n8\x14\x00\x00\x00'
p1711
tp1712
Rp1713
sg39
(dp1714
g140
Nsg141
I00
sg142
g1681
sg143
I00
sg144
Nsg45
L662946682385137664L
sg145
I0
sg146
V<a href="http://ifttt.com" rel="nofollow">IFTTT</a>
p1715
sg148
I00
sg149
Nsg53
(dp1716
g151
(lp1717
(dp1718
g154
(lp1719
I48
aI53
asg142
VSGBK
p1720
sasg157
(lp1721
sg159
(lp1722
sg35
(lp1723
(dp1724
g86
Vhttps://t.co/OpEbdpuRFg
p1725
sg154
(lp1726
I54
aI77
asg165
Vhttp://ift.tt/1PgIJ10
p1727
sg167
Vift.tt/1PgIJ10
p1728
sassg169
Nsg170
Nsg171
I0
sg57
V662946682385137664
p1729
sg173
I00
sg174
g1691
sg175
Nsg176
Nsg177
I00
sg79
g1710
sg87
VSat Nov 07 10:56:20 +0000 2015
p1730
sg179
Nsg180
Nsg181
(dp1731
g183
Ven
p1732
sg185
Vrecent
p1733
sssg187
g1731
sg188
Nsg189
Nsg31
g1716
sg190
Nsg191
Nsg98
g1729
sg192
I00
sg193
Nsg194
I0
sg195
Nsbag0
(g4
g5
Ntp1734
Rp1735
(dp1736
g9
I00
sg10
Nsg11
I00
sg12
VStonegate Bank Hits New 12-Month High at $32.99 $SGBK https://t.co/ICwi81AFHH
p1737
sg14
Vhttp://ifttt.com
p1738
sg16
I00
sg17
I00
sg18
Nsg19
g0
(g20
g5
Ntp1739
Rp1740
(dp1741
g24
I00
sg25
I00
sg26
I01
sg27
VCCDAFF
p1742
sg29
I61661638
sg30
I00
sg31
(dp1743
g86
(dp1744
g35
(lp1745
(dp1746
g86
Vhttp://t.co/7EZswS49Q1
p1747
sg154
(lp1748
I0
aI22
asg165
Vhttp://www.americanbankingnews.com/
p1749
sg167
Vamericanbankingnews.com
p1750
sassg33
(dp1751
g35
(lp1752
sssg37
Vhttps://pbs.twimg.com/profile_images/541252987/Image5_normal.jpg
p1753
sg39
(dp1754
g41
I00
sg42
I00
sg43
I01
sg44
I00
sg45
I61661638
sg46
Vhttps://pbs.twimg.com/profile_background_images/55647305/background.png
p1755
sg48
I00
sg49
V141414
p1756
sg51
g1753
sg52
g1742
sg53
g1743
sg54
I5557
sg55
VABB1D9
p1757
sg57
V61661638
p1758
sg59
V000000
p1759
sg61
I469
sg62
I00
sg63
I-21600
sg64
I693975
sg33
VBanks, Credit Unions & Financial Institutions
p1760
sg66
I2307
sg67
VSioux Falls, SD
p1761
sg69
VA60000
p1762
sg71
Vhttp://pbs.twimg.com/profile_images/541252987/Image5_normal.jpg
p1763
sg73
I00
sg74
I00
sg75
Vhttp://pbs.twimg.com/profile_background_images/55647305/background.png
p1764
sg77
VAmericanBanking
p1765
sg79
Ven
p1766
sg81
I01
sg82
I0
sg83
VUS Banking News
p1767
sg85
I00
sg86
Vhttp://t.co/7EZswS49Q1
p1768
sg87
VFri Jul 31 01:58:33 +0000 2009
p1769
sg89
I00
sg90
VCentral Time (US & Canada)
p1770
sg91
I00
sg92
I00
sg93
I00
ssg94
I00
sg95
g1756
sg96
I5557
sg97
g1757
sg98
g1758
sg99
I00
sg100
I469
sg101
I00
sg102
I-21600
sg103
I693975
sg104
g1760
sg105
I2307
sg106
g1761
sg107
g1762
sg108
g1763
sg109
I00
sg110
I00
sg111
g1759
sg112
g1764
sg113
g1765
sg114
g1766
sg115
I00
sg116
I01
sg117
I0
sg118
g1767
sg119
g1768
sg120
g121
(S'\x07\xd9\x07\x1f\x01:!\x00\x00\x00'
p1771
tp1772
Rp1773
sg125
g1755
sg126
g1770
sg127
I00
sg128
I00
sg129
I00
sbsg130
Nsg29
L662946511152668672L
sg131
I0
sg132
VIFTTT
p1774
sg114
Ven
p1775
sg135
g1740
sg120
g121
(S"\x07\xdf\x0b\x07\n7'\x00\x00\x00"
p1776
tp1777
Rp1778
sg39
(dp1779
g140
Nsg141
I00
sg142
g1737
sg143
I00
sg144
Nsg45
L662946511152668672L
sg145
I0
sg146
V<a href="http://ifttt.com" rel="nofollow">IFTTT</a>
p1780
sg148
I00
sg149
Nsg53
(dp1781
g151
(lp1782
(dp1783
g154
(lp1784
I48
aI53
asg142
VSGBK
p1785
sasg157
(lp1786
sg159
(lp1787
sg35
(lp1788
(dp1789
g86
Vhttps://t.co/ICwi81AFHH
p1790
sg154
(lp1791
I54
aI77
asg165
Vhttp://ift.tt/1PgIJ10
p1792
sg167
Vift.tt/1PgIJ10
p1793
sassg169
Nsg170
Nsg171
I0
sg57
V662946511152668672
p1794
sg173
I00
sg174
g1754
sg175
Nsg176
Nsg177
I00
sg79
g1775
sg87
VSat Nov 07 10:55:39 +0000 2015
p1795
sg179
Nsg180
Nsg181
(dp1796
g183
Ven
p1797
sg185
Vrecent
p1798
sssg187
g1796
sg188
Nsg189
Nsg31
g1781
sg190
Nsg191
Nsg98
g1794
sg192
I00
sg193
Nsg194
I0
sg195
Nsbag0
(g4
g5
Ntp1799
Rp1800
(dp1801
g9
I00
sg10
Nsg11
I00
sg12
VRT @InvestWithConf: $SGBK is rated BUY, 10.8% upside by Wall Street analysts based on average ratings/targets https://t.co/ozLY6MYUsJ https\u2026
p1802
sg14
Vhttp://twitter.com
p1803
sg16
I00
sg17
I00
sg18
Nsg19
g0
(g20
g5
Ntp1804
Rp1805
(dp1806
g24
I00
sg25
I00
sg26
I00
sg27
V000000
p1807
sg29
L3903598464L
sg30
I00
sg31
(dp1808
g86
(dp1809
g35
(lp1810
(dp1811
g86
Vhttp://t.co/LHJRK2cSqh
p1812
sg154
(lp1813
I0
aI22
asg165
Vhttp://goo.gl/lh59ZJ
p1814
sg167
Vgoo.gl/lh59ZJ
p1815
sassg33
(dp1816
g35
(lp1817
(dp1818
g86
Vhttp://t.co/LHJRK2cSqh
p1819
sg154
(lp1820
I137
aI159
asg165
Vhttp://goo.gl/lh59ZJ
p1821
sg167
Vgoo.gl/lh59ZJ
p1822
sasssg37
Vhttps://pbs.twimg.com/profile_images/654668510325379072/9cUQVpi-_normal.jpg
p1823
sg39
(dp1824
g41
I00
sg42
I00
sg43
I00
sg44
I00
sg45
L3903598464L
sg46
Vhttps://abs.twimg.com/images/themes/theme1/bg.png
p1825
sg48
I00
sg49
V000000
p1826
sg51
g1823
sg52
g1807
sg53
g1808
sg54
I66
sg55
V000000
p1827
sg57
V3903598464
p1828
sg59
V000000
p1829
sg61
I9
sg62
I00
sg63
Nsg64
I342
sg33
V#Business #Consultant helping people to increase their reach on specific location or specific area.Need to reach more followers?Checkout http://t.co/LHJRK2cSqh
p1830
sg66
I596
sg67
VChicago, IL
p1831
sg69
V9266CC
p1832
sg71
Vhttp://pbs.twimg.com/profile_images/654668510325379072/9cUQVpi-_normal.jpg
p1833
sg73
I00
sg74
I00
sg75
Vhttp://abs.twimg.com/images/themes/theme1/bg.png
p1834
sg77
VChristydJackson
p1835
sg79
Ven
p1836
sg81
I00
sg82
I253
sg83
VChristy Jackson
p1837
sg85
I00
sg86
Vhttp://t.co/LHJRK2cSqh
p1838
sg87
VThu Oct 15 14:39:58 +0000 2015
p1839
sg89
I00
sg90
Nsg91
I00
sg92
I00
sg93
I00
ssg94
I00
sg95
g1826
sg96
I66
sg97
g1827
sg98
g1828
sg99
I00
sg100
I9
sg101
I00
sg102
Nsg103
I342
sg104
g1830
sg105
I596
sg106
g1831
sg107
g1832
sg108
g1833
sg109
I00
sg110
I00
sg111
g1829
sg112
g1834
sg113
g1835
sg114
g1836
sg115
I00
sg116
I00
sg117
I253
sg118
g1837
sg119
g1838
sg120
g121
(S"\x07\xdf\n\x0f\x0e':\x00\x00\x00"
p1840
tp1841
Rp1842
sg125
g1825
sg126
Nsg127
I00
sg128
I00
sg129
I00
sbsg130
Nsg29
L662898542453854208L
sg131
I0
sg132
VTwitter Web Client
p1843
sg114
Ven
p1844
sg787
g0
(g4
g5
Ntp1845
Rp1846
(dp1847
g9
I00
sg10
Nsg11
I00
sg12
V$SGBK is rated BUY, 10.8% upside by Wall Street analysts based on average ratings/targets https://t.co/ozLY6MYUsJ https://t.co/ldKD4SpyhS
p1848
sg14
Vhttp://investwithconf.blogspot.com
p1849
sg16
I00
sg17
I00
sg18
Nsg19
g0
(g20
g5
Ntp1850
Rp1851
(dp1852
g24
I00
sg25
I00
sg26
I01
sg27
VF6FFD1
p1853
sg29
L2344623210L
sg30
I00
sg31
(dp1854
g33
(dp1855
g35
(lp1856
sssg37
Vhttps://pbs.twimg.com/profile_images/597618707721035778/xao5eh5P_normal.jpg
p1857
sg39
(dp1858
g41
I00
sg42
I00
sg43
I01
sg44
I00
sg45
L2344623210L
sg46
Vhttps://abs.twimg.com/images/themes/theme19/bg.gif
p1859
sg48
I00
sg49
V333333
p1860
sg51
g1857
sg52
g1853
sg53
g1854
sg54
I256
sg55
VFFF8AD
p1861
sg57
V2344623210
p1862
sg59
VFFF04D
p1863
sg61
I16
sg62
I00
sg63
I-18000
sg64
I67446
sg33
g68
sg66
I0
sg67
g68
sg69
V0099CC
p1864
sg71
Vhttp://pbs.twimg.com/profile_images/597618707721035778/xao5eh5P_normal.jpg
p1865
sg73
I00
sg74
I00
sg75
Vhttp://abs.twimg.com/images/themes/theme19/bg.gif
p1866
sg77
VInvestWithConf
p1867
sg79
Ven
p1868
sg81
I00
sg82
I0
sg83
VInvestWithConf
p1869
sg85
I00
sg86
Nsg87
VSat Feb 15 05:52:28 +0000 2014
p1870
sg89
I00
sg90
VEastern Time (US & Canada)
p1871
sg91
I00
sg92
I00
sg93
I00
ssg94
I00
sg95
g1860
sg96
I256
sg97
g1861
sg98
g1862
sg99
I00
sg100
I16
sg101
I00
sg102
I-18000
sg103
I67446
sg104
g68
sg105
I0
sg106
g68
sg107
g1864
sg108
g1865
sg109
I00
sg110
I00
sg111
g1863
sg112
g1866
sg113
g1867
sg114
g1868
sg115
I00
sg116
I00
sg117
I0
sg118
g1869
sg119
Nsg120
g121
(S'\x07\xde\x02\x0f\x054\x1c\x00\x00\x00'
p1872
tp1873
Rp1874
sg125
g1859
sg126
g1871
sg127
I00
sg128
I00
sg129
I00
sbsg130
Nsg29
L661431623968292864L
sg131
I6
sg132
VIWCE
p1875
sg114
Ven
p1876
sg135
g1851
sg120
g121
(S'\x07\xdf\x0b\x03\x06$\x02\x00\x00\x00'
p1877
tp1878
Rp1879
sg39
(dp1880
g140
Nsg141
I00
sg142
g1848
sg143
I00
sg144
Nsg45
L661431623968292864L
sg145
I6
sg146
V<a href="http://investwithconf.blogspot.com" rel="nofollow">IWCE</a>
p1881
sg148
I00
sg149
Nsg53
(dp1882
g151
(lp1883
(dp1884
g154
(lp1885
I0
aI5
asg142
VSGBK
p1886
sasg157
(lp1887
sg159
(lp1888
sg35
(lp1889
(dp1890
g86
Vhttps://t.co/ozLY6MYUsJ
p1891
sg154
(lp1892
I90
aI113
asg165
Vhttp://manyratings.com/SGBK
p1893
sg167
Vmanyratings.com/SGBK
p1894
sasg838
(lp1895
(dp1896
g165
Vhttp://twitter.com/InvestWithConf/status/661431623968292864/photo/1
p1897
sg167
Vpic.twitter.com/ldKD4SpyhS
p1898
sg86
Vhttps://t.co/ldKD4SpyhS
p1899
sg844
Vhttps://pbs.twimg.com/media/CS3gjpRWwAEg2tr.jpg
p1900
sg57
V661431623272022017
p1901
sg847
(dp1902
g849
(dp1903
g851
I4
sg852
Vfit
p1904
sg854
I4
ssg855
(dp1905
g851
I4
sg852
Vfit
p1906
sg854
I4
ssg858
(dp1907
g851
I4
sg852
Vfit
p1908
sg854
I4
ssg861
(dp1909
g851
I4
sg852
Vcrop
p1910
sg854
I4
sssg154
(lp1911
I114
aI137
asg865
Vphoto
p1912
sg45
L661431623272022017L
sg867
Vhttp://pbs.twimg.com/media/CS3gjpRWwAEg2tr.jpg
p1913
sassg169
Nsg170
Nsg171
I13
sg57
V661431623968292864
p1914
sg173
I00
sg174
g1858
sg175
Nsg176
Nsg177
I00
sg79
g1876
sg87
VTue Nov 03 06:36:02 +0000 2015
p1915
sg179
Nsg180
Nsg181
(dp1916
g183
Ven
p1917
sg185
Vrecent
p1918
sssg187
g1916
sg188
Nsg189
Nsg31
g1882
sg190
Nsg191
Nsg98
g1914
sg192
I00
sg193
Nsg194
I13
sg195
Nsbsg135
g1805
sg120
g121
(S'\x07\xdf\x0b\x07\x07-\x03\x00\x00\x00'
p1919
tp1920
Rp1921
sg39
(dp1922
g140
Nsg141
I00
sg142
g1802
sg143
I00
sg144
Nsg45
L662898542453854208L
sg145
I0
sg146
V<a href="http://twitter.com" rel="nofollow">Twitter Web Client</a>
p1923
sg148
I00
sg149
Nsg53
(dp1924
g151
(lp1925
(dp1926
g154
(lp1927
I20
aI25
asg142
VSGBK
p1928
sasg157
(lp1929
(dp1930
g45
L2344623210L
sg154
(lp1931
I3
aI18
asg57
V2344623210
p1932
sg77
VInvestWithConf
p1933
sg83
VInvestWithConf
p1934
sasg159
(lp1935
sg35
(lp1936
(dp1937
g86
Vhttps://t.co/ozLY6MYUsJ
p1938
sg154
(lp1939
I110
aI133
asg165
Vhttp://manyratings.com/SGBK
p1940
sg167
Vmanyratings.com/SGBK
p1941
sasg838
(lp1942
(dp1943
g899
L2344623210L
sg900
V661431623968292864
p1944
sg165
Vhttp://twitter.com/InvestWithConf/status/661431623968292864/photo/1
p1945
sg167
Vpic.twitter.com/ldKD4SpyhS
p1946
sg86
Vhttps://t.co/ldKD4SpyhS
p1947
sg844
Vhttps://pbs.twimg.com/media/CS3gjpRWwAEg2tr.jpg
p1948
sg906
V2344623210
p1949
sg908
L661431623968292864L
sg57
V661431623272022017
p1950
sg847
(dp1951
g849
(dp1952
g851
I4
sg852
Vfit
p1953
sg854
I4
ssg855
(dp1954
g851
I4
sg852
Vfit
p1955
sg854
I4
ssg858
(dp1956
g851
I4
sg852
Vfit
p1957
sg854
I4
ssg861
(dp1958
g851
I4
sg852
Vcrop
p1959
sg854
I4
sssg154
(lp1960
I139
aI140
asg865
Vphoto
p1961
sg45
L661431623272022017L
sg867
Vhttp://pbs.twimg.com/media/CS3gjpRWwAEg2tr.jpg
p1962
sassg169
Nsg170
Nsg171
I13
sg57
V662898542453854208
p1963
sg173
I00
sg923
g1880
sg174
g1824
sg175
Nsg176
Nsg177
I00
sg79
g1844
sg87
VSat Nov 07 07:45:03 +0000 2015
p1964
sg179
Nsg180
Nsg181
(dp1965
g183
Ven
p1966
sg185
Vrecent
p1967
sssg187
g1965
sg188
Nsg189
Nsg31
g1924
sg190
Nsg191
Nsg98
g1963
sg192
I00
sg193
Nsg194
I13
sg195
Nsbag0
(g4
g5
Ntp1968
Rp1969
(dp1970
g9
I00
sg10
Nsg11
I00
sg12
VRT @InvestWithConf: $SGBK is rated BUY, 10.8% upside by Wall Street analysts based on average ratings/targets https://t.co/ozLY6MYUsJ https\u2026
p1971
sg14
Vhttp://twitter.com
p1972
sg16
I00
sg17
I00
sg18
Nsg19
g0
(g20
g5
Ntp1973
Rp1974
(dp1975
g24
I00
sg25
I00
sg26
I01
sg27
VDDEEF6
p1976
sg29
L3905481792L
sg30
I00
sg31
(dp1977
g86
(dp1978
g35
(lp1979
(dp1980
g86
Vhttp://t.co/xcHN3sR6Ie
p1981
sg154
(lp1982
I0
aI22
asg165
Vhttp://goo.gl/Lc73jz
p1983
sg167
Vgoo.gl/Lc73jz
p1984
sassg33
(dp1985
g35
(lp1986
(dp1987
g86
Vhttp://t.co/xcHN3sR6Ie
p1988
sg154
(lp1989
I97
aI119
asg165
Vhttp://goo.gl/Lc73jz
p1990
sg167
Vgoo.gl/Lc73jz
p1991
sasssg37
Vhttps://pbs.twimg.com/profile_images/654730052093870080/lRpDeUl4_normal.jpg
p1992
sg39
(dp1993
g41
I00
sg42
I00
sg43
I01
sg44
I00
sg45
L3905481792L
sg46
Vhttps://abs.twimg.com/images/themes/theme1/bg.png
p1994
sg48
I00
sg49
V333333
p1995
sg51
g1992
sg52
g1976
sg53
g1977
sg54
I92
sg55
VC0DEED
p1996
sg57
V3905481792
p1997
sg59
VC0DEED
p1998
sg61
I8
sg62
I00
sg63
Nsg64
I355
sg33
V#BizTips #B2b #Realestate Investor and Social Media Guru! Learn how to get 100k Followers easily http://t.co/xcHN3sR6Ie
p1999
sg66
I630
sg67
VMontana, USA
p2000
sg69
V0084B4
p2001
sg71
Vhttp://pbs.twimg.com/profile_images/654730052093870080/lRpDeUl4_normal.jpg
p2002
sg73
I00
sg74
I00
sg75
Vhttp://abs.twimg.com/images/themes/theme1/bg.png
p2003
sg77
VBryanGonzalezea
p2004
sg79
Ven
p2005
sg81
I00
sg82
I260
sg83
VBryanGonzalez
p2006
sg85
I00
sg86
Vhttp://t.co/xcHN3sR6Ie
p2007
sg87
VThu Oct 15 18:44:59 +0000 2015
p2008
sg89
I00
sg90
Nsg91
I00
sg92
I01
sg93
I00
ssg94
I00
sg95
g1995
sg96
I92
sg97
g1996
sg98
g1997
sg99
I00
sg100
I8
sg101
I00
sg102
Nsg103
I355
sg104
g1999
sg105
I630
sg106
g2000
sg107
g2001
sg108
g2002
sg109
I00
sg110
I00
sg111
g1998
sg112
g2003
sg113
g2004
sg114
g2005
sg115
I00
sg116
I00
sg117
I260
sg118
g2006
sg119
g2007
sg120
g121
(S'\x07\xdf\n\x0f\x12,;\x00\x00\x00'
p2009
tp2010
Rp2011
sg125
g1994
sg126
Nsg127
I00
sg128
I01
sg129
I00
sbsg130
Nsg29
L662897466950467584L
sg131
I0
sg132
VTwitter Web Client
p2012
sg114
Ven
p2013
sg787
g0
(g4
g5
Ntp2014
Rp2015
(dp2016
g9
I00
sg10
Nsg11
I00
sg12
V$SGBK is rated BUY, 10.8% upside by Wall Street analysts based on average ratings/targets https://t.co/ozLY6MYUsJ https://t.co/ldKD4SpyhS
p2017
sg14
Vhttp://investwithconf.blogspot.com
p2018
sg16
I00
sg17
I00
sg18
Nsg19
g0
(g20
g5
Ntp2019
Rp2020
(dp2021
g24
I00
sg25
I00
sg26
I01
sg27
VF6FFD1
p2022
sg29
L2344623210L
sg30
I00
sg31
(dp2023
g33
(dp2024
g35
(lp2025
sssg37
Vhttps://pbs.twimg.com/profile_images/597618707721035778/xao5eh5P_normal.jpg
p2026
sg39
(dp2027
g41
I00
sg42
I00
sg43
I01
sg44
I00
sg45
L2344623210L
sg46
Vhttps://abs.twimg.com/images/themes/theme19/bg.gif
p2028
sg48
I00
sg49
V333333
p2029
sg51
g2026
sg52
g2022
sg53
g2023
sg54
I256
sg55
VFFF8AD
p2030
sg57
V2344623210
p2031
sg59
VFFF04D
p2032
sg61
I16
sg62
I00
sg63
I-18000
sg64
I67446
sg33
g68
sg66
I0
sg67
g68
sg69
V0099CC
p2033
sg71
Vhttp://pbs.twimg.com/profile_images/597618707721035778/xao5eh5P_normal.jpg
p2034
sg73
I00
sg74
I00
sg75
Vhttp://abs.twimg.com/images/themes/theme19/bg.gif
p2035
sg77
VInvestWithConf
p2036
sg79
Ven
p2037
sg81
I00
sg82
I0
sg83
VInvestWithConf
p2038
sg85
I00
sg86
Nsg87
VSat Feb 15 05:52:28 +0000 2014
p2039
sg89
I00
sg90
VEastern Time (US & Canada)
p2040
sg91
I00
sg92
I00
sg93
I00
ssg94
I00
sg95
g2029
sg96
I256
sg97
g2030
sg98
g2031
sg99
I00
sg100
I16
sg101
I00
sg102
I-18000
sg103
I67446
sg104
g68
sg105
I0
sg106
g68
sg107
g2033
sg108
g2034
sg109
I00
sg110
I00
sg111
g2032
sg112
g2035
sg113
g2036
sg114
g2037
sg115
I00
sg116
I00
sg117
I0
sg118
g2038
sg119
Nsg120
g121
(S'\x07\xde\x02\x0f\x054\x1c\x00\x00\x00'
p2041
tp2042
Rp2043
sg125
g2028
sg126
g2040
sg127
I00
sg128
I00
sg129
I00
sbsg130
Nsg29
L661431623968292864L
sg131
I6
sg132
VIWCE
p2044
sg114
Ven
p2045
sg135
g2020
sg120
g121
(S'\x07\xdf\x0b\x03\x06$\x02\x00\x00\x00'
p2046
tp2047
Rp2048
sg39
(dp2049
g140
Nsg141
I00
sg142
g2017
sg143
I00
sg144
Nsg45
L661431623968292864L
sg145
I6
sg146
V<a href="http://investwithconf.blogspot.com" rel="nofollow">IWCE</a>
p2050
sg148
I00
sg149
Nsg53
(dp2051
g151
(lp2052
(dp2053
g154
(lp2054
I0
aI5
asg142
VSGBK
p2055
sasg157
(lp2056
sg159
(lp2057
sg35
(lp2058
(dp2059
g86
Vhttps://t.co/ozLY6MYUsJ
p2060
sg154
(lp2061
I90
aI113
asg165
Vhttp://manyratings.com/SGBK
p2062
sg167
Vmanyratings.com/SGBK
p2063
sasg838
(lp2064
(dp2065
g165
Vhttp://twitter.com/InvestWithConf/status/661431623968292864/photo/1
p2066
sg167
Vpic.twitter.com/ldKD4SpyhS
p2067
sg86
Vhttps://t.co/ldKD4SpyhS
p2068
sg844
Vhttps://pbs.twimg.com/media/CS3gjpRWwAEg2tr.jpg
p2069
sg57
V661431623272022017
p2070
sg847
(dp2071
g849
(dp2072
g851
I4
sg852
Vfit
p2073
sg854
I4
ssg855
(dp2074
g851
I4
sg852
Vfit
p2075
sg854
I4
ssg858
(dp2076
g851
I4
sg852
Vfit
p2077
sg854
I4
ssg861
(dp2078
g851
I4
sg852
Vcrop
p2079
sg854
I4
sssg154
(lp2080
I114
aI137
asg865
Vphoto
p2081
sg45
L661431623272022017L
sg867
Vhttp://pbs.twimg.com/media/CS3gjpRWwAEg2tr.jpg
p2082
sassg169
Nsg170
Nsg171
I13
sg57
V661431623968292864
p2083
sg173
I00
sg174
g2027
sg175
Nsg176
Nsg177
I00
sg79
g2045
sg87
VTue Nov 03 06:36:02 +0000 2015
p2084
sg179
Nsg180
Nsg181
(dp2085
g183
Ven
p2086
sg185
Vrecent
p2087
sssg187
g2085
sg188
Nsg189
Nsg31
g2051
sg190
Nsg191
Nsg98
g2083
sg192
I00
sg193
Nsg194
I13
sg195
Nsbsg135
g1974
sg120
g121
(S'\x07\xdf\x0b\x07\x07(.\x00\x00\x00'
p2088
tp2089
Rp2090
sg39
(dp2091
g140
Nsg141
I00
sg142
g1971
sg143
I00
sg144
Nsg45
L662897466950467584L
sg145
I0
sg146
V<a href="http://twitter.com" rel="nofollow">Twitter Web Client</a>
p2092
sg148
I00
sg149
Nsg53
(dp2093
g151
(lp2094
(dp2095
g154
(lp2096
I20
aI25
asg142
VSGBK
p2097
sasg157
(lp2098
(dp2099
g45
L2344623210L
sg154
(lp2100
I3
aI18
asg57
V2344623210
p2101
sg77
VInvestWithConf
p2102
sg83
VInvestWithConf
p2103
sasg159
(lp2104
sg35
(lp2105
(dp2106
g86
Vhttps://t.co/ozLY6MYUsJ
p2107
sg154
(lp2108
I110
aI133
asg165
Vhttp://manyratings.com/SGBK
p2109
sg167
Vmanyratings.com/SGBK
p2110
sasg838
(lp2111
(dp2112
g899
L2344623210L
sg900
V661431623968292864
p2113
sg165
Vhttp://twitter.com/InvestWithConf/status/661431623968292864/photo/1
p2114
sg167
Vpic.twitter.com/ldKD4SpyhS
p2115
sg86
Vhttps://t.co/ldKD4SpyhS
p2116
sg844
Vhttps://pbs.twimg.com/media/CS3gjpRWwAEg2tr.jpg
p2117
sg906
V2344623210
p2118
sg908
L661431623968292864L
sg57
V661431623272022017
p2119
sg847
(dp2120
g849
(dp2121
g851
I4
sg852
Vfit
p2122
sg854
I4
ssg855
(dp2123
g851
I4
sg852
Vfit
p2124
sg854
I4
ssg858
(dp2125
g851
I4
sg852
Vfit
p2126
sg854
I4
ssg861
(dp2127
g851
I4
sg852
Vcrop
p2128
sg854
I4
sssg154
(lp2129
I139
aI140
asg865
Vphoto
p2130
sg45
L661431623272022017L
sg867
Vhttp://pbs.twimg.com/media/CS3gjpRWwAEg2tr.jpg
p2131
sassg169
Nsg170
Nsg171
I13
sg57
V662897466950467584
p2132
sg173
I00
sg923
g2049
sg174
g1993
sg175
Nsg176
Nsg177
I00
sg79
g2013
sg87
VSat Nov 07 07:40:46 +0000 2015
p2133
sg179
Nsg180
Nsg181
(dp2134
g183
Ven
p2135
sg185
Vrecent
p2136
sssg187
g2134
sg188
Nsg189
Nsg31
g2093
sg190
Nsg191
Nsg98
g2132
sg192
I00
sg193
Nsg194
I13
sg195
Nsbag0
(g4
g5
Ntp2137
Rp2138
(dp2139
g9
I00
sg10
Nsg11
I00
sg12
V09:49 New 52wk Highs: $CFNL $SFNC $SGBK
p2140
sg14
Vhttp://largevoid.com/
p2141
sg17
I00
sg18
Nsg19
g0
(g20
g5
Ntp2142
Rp2143
(dp2144
g24
I00
sg25
I00
sg26
I01
sg27
VEFEFEF
p2145
sg29
I412611622
sg30
I00
sg31
(dp2146
g86
(dp2147
g35
(lp2148
(dp2149
g86
Vhttp://t.co/x4EXOorWNT
p2150
sg154
(lp2151
I0
aI22
asg165
Vhttp://largevoid.com/
p2152
sg167
Vlargevoid.com
p2153
sassg33
(dp2154
g35
(lp2155
sssg37
Vhttps://pbs.twimg.com/profile_images/1639347555/Egg-Robot-Crop_normal.png
p2156
sg39
(dp2157
g41
I00
sg42
I00
sg43
I01
sg44
I00
sg45
I412611622
sg46
Vhttps://abs.twimg.com/images/themes/theme14/bg.gif
p2158
sg48
I00
sg49
V333333
p2159
sg51
g2156
sg52
g2145
sg53
g2146
sg54
I1143
sg55
VEEEEEE
p2160
sg57
V412611622
p2161
sg59
V131516
p2162
sg61
I82
sg62
I00
sg63
I-28800
sg64
I127507
sg33
VBot Slave to @LargeVoid
p2163
sg66
I1
sg67
VIn the wires
p2164
sg69
V009999
p2165
sg71
Vhttp://pbs.twimg.com/profile_images/1639347555/Egg-Robot-Crop_normal.png
p2166
sg73
I00
sg74
I00
sg696
Vhttps://pbs.twimg.com/profile_banners/412611622/1402240651
p2167
sg75
Vhttp://abs.twimg.com/images/themes/theme14/bg.gif
p2168
sg77
VLargeVoidBot
p2169
sg79
Ven
p2170
sg81
I01
sg82
I2
sg83
VLarge Void Bot
p2171
sg85
I00
sg86
Vhttp://t.co/x4EXOorWNT
p2172
sg87
VMon Nov 14 23:10:09 +0000 2011
p2173
sg89
I00
sg90
VPacific Time (US & Canada)
p2174
sg91
I00
sg92
I00
sg93
I00
ssg94
I00
sg95
g2159
sg96
I1143
sg97
g2160
sg98
g2161
sg99
I00
sg100
I82
sg101
I00
sg102
I-28800
sg103
I127507
sg104
g2163
sg105
I1
sg106
g2164
sg107
g2165
sg108
g2166
sg109
I00
sg110
I00
sg111
g2162
sg705
g2167
sg112
g2168
sg113
g2169
sg114
g2170
sg115
I00
sg116
I01
sg117
I2
sg118
g2171
sg119
g2172
sg120
g121
(S'\x07\xdb\x0b\x0e\x17\n\t\x00\x00\x00'
p2175
tp2176
Rp2177
sg125
g2158
sg126
g2174
sg127
I00
sg128
I00
sg129
I00
sbsg130
Nsg29
L662642910970576896L
sg131
I0
sg132
VLV PriceAlertBot
p2178
sg114
Ven
p2179
sg135
g2143
sg120
g121
(S'\x07\xdf\x0b\x06\x0e1\x0f\x00\x00\x00'
p2180
tp2181
Rp2182
sg39
(dp2183
g140
Nsg141
I00
sg142
g2140
sg143
I00
sg144
Nsg45
L662642910970576896L
sg145
I0
sg146
V<a href="http://largevoid.com/" rel="nofollow">LV PriceAlertBot</a>
p2184
sg148
I00
sg149
Nsg53
(dp2185
g151
(lp2186
(dp2187
g154
(lp2188
I22
aI27
asg142
VCFNL
p2189
sa(dp2190
g154
(lp2191
I28
aI33
asg142
VSFNC
p2192
sa(dp2193
g154
(lp2194
I34
aI39
asg142
VSGBK
p2195
sasg157
(lp2196
sg159
(lp2197
sg35
(lp2198
ssg169
Nsg170
Nsg171
I0
sg57
V662642910970576896
p2199
sg173
I00
sg174
g2157
sg175
Nsg176
Nsg79
g2179
sg87
VFri Nov 06 14:49:15 +0000 2015
p2200
sg179
Nsg180
Nsg181
(dp2201
g183
Ven
p2202
sg185
Vrecent
p2203
sssg187
g2201
sg188
Nsg189
Nsg31
g2185
sg190
Nsg191
Nsg98
g2199
sg192
I00
sg193
Nsg194
I0
sg195
Nsbag0
(g4
g5
Ntp2204
Rp2205
(dp2206
g9
I00
sg10
Nsg11
I00
sg12
VWeekly Research Analysts\u2019 Ratings Updates for Stonegate Bank $SGBK https://t.co/HaamvdKFyP
p2207
sg14
Vhttp://ifttt.com
p2208
sg16
I00
sg17
I00
sg18
Nsg19
g0
(g20
g5
Ntp2209
Rp2210
(dp2211
g24
I00
sg25
I00
sg26
I01
sg27
VDDEEF6
p2212
sg29
L2920258887L
sg30
I00
sg31
(dp2213
g33
(dp2214
g35
(lp2215
sssg37
Vhttps://abs.twimg.com/sticky/default_profile_images/default_profile_0_normal.png
p2216
sg39
(dp2217
g41
I00
sg42
I00
sg43
I01
sg44
I01
sg45
L2920258887L
sg46
Vhttps://abs.twimg.com/images/themes/theme1/bg.png
p2218
sg48
I00
sg49
V333333
p2219
sg51
g2216
sg52
g2212
sg53
g2213
sg54
I1021
sg55
VC0DEED
p2220
sg57
V2920258887
p2221
sg59
VC0DEED
p2222
sg61
I39
sg62
I00
sg63
Nsg64
I170284
sg33
g68
sg66
I40
sg67
g68
sg69
V0084B4
p2223
sg71
Vhttp://abs.twimg.com/sticky/default_profile_images/default_profile_0_normal.png
p2224
sg73
I00
sg74
I00
sg75
Vhttp://abs.twimg.com/images/themes/theme1/bg.png
p2225
sg77
Vdakotafinancial
p2226
sg79
Ven
p2227
sg81
I00
sg82
I0
sg83
VDakota Financial 
p2228
sg85
I00
sg86
Nsg87
VSat Dec 13 20:48:14 +0000 2014
p2229
sg89
I00
sg90
Nsg91
I00
sg92
I01
sg93
I00
ssg94
I00
sg95
g2219
sg96
I1021
sg97
g2220
sg98
g2221
sg99
I01
sg100
I39
sg101
I00
sg102
Nsg103
I170284
sg104
g68
sg105
I40
sg106
g68
sg107
g2223
sg108
g2224
sg109
I00
sg110
I00
sg111
g2222
sg112
g2225
sg113
g2226
sg114
g2227
sg115
I00
sg116
I00
sg117
I0
sg118
g2228
sg119
Nsg120
g121
(S'\x07\xde\x0c\r\x140\x0e\x00\x00\x00'
p2230
tp2231
Rp2232
sg125
g2218
sg126
Nsg127
I00
sg128
I01
sg129
I00
sbsg130
Nsg29
L662628819115892736L
sg131
I0
sg132
VIFTTT
p2233
sg114
Ven
p2234
sg135
g2210
sg120
g121
(S'\x07\xdf\x0b\x06\r5\x10\x00\x00\x00'
p2235
tp2236
Rp2237
sg39
(dp2238
g140
Nsg141
I00
sg142
g2207
sg143
I00
sg144
Nsg45
L662628819115892736L
sg145
I0
sg146
V<a href="http://ifttt.com" rel="nofollow">IFTTT</a>
p2239
sg148
I00
sg149
Nsg53
(dp2240
g151
(lp2241
(dp2242
g154
(lp2243
I61
aI66
asg142
VSGBK
p2244
sasg157
(lp2245
sg159
(lp2246
sg35
(lp2247
(dp2248
g86
Vhttps://t.co/HaamvdKFyP
p2249
sg154
(lp2250
I67
aI90
asg165
Vhttp://ift.tt/1NTIq9h
p2251
sg167
Vift.tt/1NTIq9h
p2252
sassg169
Nsg170
Nsg171
I0
sg57
V662628819115892736
p2253
sg173
I00
sg174
g2217
sg175
Nsg176
Nsg177
I00
sg79
g2234
sg87
VFri Nov 06 13:53:16 +0000 2015
p2254
sg179
Nsg180
Nsg181
(dp2255
g183
Ven
p2256
sg185
Vrecent
p2257
sssg187
g2255
sg188
Nsg189
Nsg31
g2240
sg190
Nsg191
Nsg98
g2253
sg192
I00
sg193
Nsg194
I0
sg195
Nsbag0
(g4
g5
Ntp2258
Rp2259
(dp2260
g9
I00
sg10
Nsg11
I00
sg12
VRT @InvestWithConf: $SGBK is rated BUY, 10.8% upside by Wall Street analysts based on average ratings/targets https://t.co/ozLY6MYUsJ https\u2026
p2261
sg14
Vhttp://twitter.com
p2262
sg16
I00
sg17
I00
sg18
Nsg19
g0
(g20
g5
Ntp2263
Rp2264
(dp2265
g24
I00
sg25
I00
sg26
I01
sg27
VDDEEF6
p2266
sg29
L3905579413L
sg30
I00
sg31
(dp2267
g86
(dp2268
g35
(lp2269
(dp2270
g86
Vhttp://t.co/xcHN3sR6Ie
p2271
sg154
(lp2272
I0
aI22
asg165
Vhttp://goo.gl/Lc73jz
p2273
sg167
Vgoo.gl/Lc73jz
p2274
sassg33
(dp2275
g35
(lp2276
(dp2277
g86
Vhttp://t.co/xcHN3sR6Ie
p2278
sg154
(lp2279
I97
aI119
asg165
Vhttp://goo.gl/Lc73jz
p2280
sg167
Vgoo.gl/Lc73jz
p2281
sasssg37
Vhttps://pbs.twimg.com/profile_images/654728972366819332/TAA72GRY_normal.jpg
p2282
sg39
(dp2283
g41
I00
sg42
I00
sg43
I01
sg44
I00
sg45
L3905579413L
sg46
Vhttps://abs.twimg.com/images/themes/theme1/bg.png
p2284
sg48
I00
sg49
V333333
p2285
sg51
g2282
sg52
g2266
sg53
g2267
sg54
I70
sg55
VC0DEED
p2286
sg57
V3905579413
p2287
sg59
VC0DEED
p2288
sg61
I4
sg62
I00
sg63
Nsg64
I335
sg33
V#BizTips #B2b #Realestate Investor and Social Media Guru! Learn how to get 100k Followers easily http://t.co/xcHN3sR6Ie
p2289
sg66
I605
sg67
VMontana, USA
p2290
sg69
V0084B4
p2291
sg71
Vhttp://pbs.twimg.com/profile_images/654728972366819332/TAA72GRY_normal.jpg
p2292
sg73
I00
sg74
I00
sg75
Vhttp://abs.twimg.com/images/themes/theme1/bg.png
p2293
sg77
VCecilWelchs
p2294
sg79
Ven
p2295
sg81
I00
sg82
I236
sg83
VCecilWelch
p2296
sg85
I00
sg86
Vhttp://t.co/xcHN3sR6Ie
p2297
sg87
VThu Oct 15 18:40:57 +0000 2015
p2298
sg89
I00
sg90
Nsg91
I00
sg92
I01
sg93
I00
ssg94
I00
sg95
g2285
sg96
I70
sg97
g2286
sg98
g2287
sg99
I00
sg100
I4
sg101
I00
sg102
Nsg103
I335
sg104
g2289
sg105
I605
sg106
g2290
sg107
g2291
sg108
g2292
sg109
I00
sg110
I00
sg111
g2288
sg112
g2293
sg113
g2294
sg114
g2295
sg115
I00
sg116
I00
sg117
I236
sg118
g2296
sg119
g2297
sg120
g121
(S'\x07\xdf\n\x0f\x12(9\x00\x00\x00'
p2299
tp2300
Rp2301
sg125
g2284
sg126
Nsg127
I00
sg128
I01
sg129
I00
sbsg130
Nsg29
L662436968597450752L
sg131
I0
sg132
VTwitter Web Client
p2302
sg114
Ven
p2303
sg787
g0
(g4
g5
Ntp2304
Rp2305
(dp2306
g9
I00
sg10
Nsg11
I00
sg12
V$SGBK is rated BUY, 10.8% upside by Wall Street analysts based on average ratings/targets https://t.co/ozLY6MYUsJ https://t.co/ldKD4SpyhS
p2307
sg14
Vhttp://investwithconf.blogspot.com
p2308
sg16
I00
sg17
I00
sg18
Nsg19
g0
(g20
g5
Ntp2309
Rp2310
(dp2311
g24
I00
sg25
I00
sg26
I01
sg27
VF6FFD1
p2312
sg29
L2344623210L
sg30
I00
sg31
(dp2313
g33
(dp2314
g35
(lp2315
sssg37
Vhttps://pbs.twimg.com/profile_images/597618707721035778/xao5eh5P_normal.jpg
p2316
sg39
(dp2317
g41
I00
sg42
I00
sg43
I01
sg44
I00
sg45
L2344623210L
sg46
Vhttps://abs.twimg.com/images/themes/theme19/bg.gif
p2318
sg48
I00
sg49
V333333
p2319
sg51
g2316
sg52
g2312
sg53
g2313
sg54
I256
sg55
VFFF8AD
p2320
sg57
V2344623210
p2321
sg59
VFFF04D
p2322
sg61
I16
sg62
I00
sg63
I-18000
sg64
I67446
sg33
g68
sg66
I0
sg67
g68
sg69
V0099CC
p2323
sg71
Vhttp://pbs.twimg.com/profile_images/597618707721035778/xao5eh5P_normal.jpg
p2324
sg73
I00
sg74
I00
sg75
Vhttp://abs.twimg.com/images/themes/theme19/bg.gif
p2325
sg77
VInvestWithConf
p2326
sg79
Ven
p2327
sg81
I00
sg82
I0
sg83
VInvestWithConf
p2328
sg85
I00
sg86
Nsg87
VSat Feb 15 05:52:28 +0000 2014
p2329
sg89
I00
sg90
VEastern Time (US & Canada)
p2330
sg91
I00
sg92
I00
sg93
I00
ssg94
I00
sg95
g2319
sg96
I256
sg97
g2320
sg98
g2321
sg99
I00
sg100
I16
sg101
I00
sg102
I-18000
sg103
I67446
sg104
g68
sg105
I0
sg106
g68
sg107
g2323
sg108
g2324
sg109
I00
sg110
I00
sg111
g2322
sg112
g2325
sg113
g2326
sg114
g2327
sg115
I00
sg116
I00
sg117
I0
sg118
g2328
sg119
Nsg120
g121
(S'\x07\xde\x02\x0f\x054\x1c\x00\x00\x00'
p2331
tp2332
Rp2333
sg125
g2318
sg126
g2330
sg127
I00
sg128
I00
sg129
I00
sbsg130
Nsg29
L661431623968292864L
sg131
I6
sg132
VIWCE
p2334
sg114
Ven
p2335
sg135
g2310
sg120
g121
(S'\x07\xdf\x0b\x03\x06$\x02\x00\x00\x00'
p2336
tp2337
Rp2338
sg39
(dp2339
g140
Nsg141
I00
sg142
g2307
sg143
I00
sg144
Nsg45
L661431623968292864L
sg145
I6
sg146
V<a href="http://investwithconf.blogspot.com" rel="nofollow">IWCE</a>
p2340
sg148
I00
sg149
Nsg53
(dp2341
g151
(lp2342
(dp2343
g154
(lp2344
I0
aI5
asg142
VSGBK
p2345
sasg157
(lp2346
sg159
(lp2347
sg35
(lp2348
(dp2349
g86
Vhttps://t.co/ozLY6MYUsJ
p2350
sg154
(lp2351
I90
aI113
asg165
Vhttp://manyratings.com/SGBK
p2352
sg167
Vmanyratings.com/SGBK
p2353
sasg838
(lp2354
(dp2355
g165
Vhttp://twitter.com/InvestWithConf/status/661431623968292864/photo/1
p2356
sg167
Vpic.twitter.com/ldKD4SpyhS
p2357
sg86
Vhttps://t.co/ldKD4SpyhS
p2358
sg844
Vhttps://pbs.twimg.com/media/CS3gjpRWwAEg2tr.jpg
p2359
sg57
V661431623272022017
p2360
sg847
(dp2361
g849
(dp2362
g851
I4
sg852
Vfit
p2363
sg854
I4
ssg855
(dp2364
g851
I4
sg852
Vfit
p2365
sg854
I4
ssg858
(dp2366
g851
I4
sg852
Vfit
p2367
sg854
I4
ssg861
(dp2368
g851
I4
sg852
Vcrop
p2369
sg854
I4
sssg154
(lp2370
I114
aI137
asg865
Vphoto
p2371
sg45
L661431623272022017L
sg867
Vhttp://pbs.twimg.com/media/CS3gjpRWwAEg2tr.jpg
p2372
sassg169
Nsg170
Nsg171
I13
sg57
V661431623968292864
p2373
sg173
I00
sg174
g2317
sg175
Nsg176
Nsg177
I00
sg79
g2335
sg87
VTue Nov 03 06:36:02 +0000 2015
p2374
sg179
Nsg180
Nsg181
(dp2375
g183
Ven
p2376
sg185
Vrecent
p2377
sssg187
g2375
sg188
Nsg189
Nsg31
g2341
sg190
Nsg191
Nsg98
g2373
sg192
I00
sg193
Nsg194
I13
sg195
Nsbsg135
g2264
sg120
g121
(S'\x07\xdf\x0b\x06\x01\n7\x00\x00\x00'
p2378
tp2379
Rp2380
sg39
(dp2381
g140
Nsg141
I00
sg142
g2261
sg143
I00
sg144
Nsg45
L662436968597450752L
sg145
I0
sg146
V<a href="http://twitter.com" rel="nofollow">Twitter Web Client</a>
p2382
sg148
I00
sg149
Nsg53
(dp2383
g151
(lp2384
(dp2385
g154
(lp2386
I20
aI25
asg142
VSGBK
p2387
sasg157
(lp2388
(dp2389
g45
L2344623210L
sg154
(lp2390
I3
aI18
asg57
V2344623210
p2391
sg77
VInvestWithConf
p2392
sg83
VInvestWithConf
p2393
sasg159
(lp2394
sg35
(lp2395
(dp2396
g86
Vhttps://t.co/ozLY6MYUsJ
p2397
sg154
(lp2398
I110
aI133
asg165
Vhttp://manyratings.com/SGBK
p2399
sg167
Vmanyratings.com/SGBK
p2400
sasg838
(lp2401
(dp2402
g899
L2344623210L
sg900
V661431623968292864
p2403
sg165
Vhttp://twitter.com/InvestWithConf/status/661431623968292864/photo/1
p2404
sg167
Vpic.twitter.com/ldKD4SpyhS
p2405
sg86
Vhttps://t.co/ldKD4SpyhS
p2406
sg844
Vhttps://pbs.twimg.com/media/CS3gjpRWwAEg2tr.jpg
p2407
sg906
V2344623210
p2408
sg908
L661431623968292864L
sg57
V661431623272022017
p2409
sg847
(dp2410
g849
(dp2411
g851
I4
sg852
Vfit
p2412
sg854
I4
ssg855
(dp2413
g851
I4
sg852
Vfit
p2414
sg854
I4
ssg858
(dp2415
g851
I4
sg852
Vfit
p2416
sg854
I4
ssg861
(dp2417
g851
I4
sg852
Vcrop
p2418
sg854
I4
sssg154
(lp2419
I139
aI140
asg865
Vphoto
p2420
sg45
L661431623272022017L
sg867
Vhttp://pbs.twimg.com/media/CS3gjpRWwAEg2tr.jpg
p2421
sassg169
Nsg170
Nsg171
I13
sg57
V662436968597450752
p2422
sg173
I00
sg923
g2339
sg174
g2283
sg175
Nsg176
Nsg177
I00
sg79
g2303
sg87
VFri Nov 06 01:10:55 +0000 2015
p2423
sg179
Nsg180
Nsg181
(dp2424
g183
Ven
p2425
sg185
Vrecent
p2426
sssg187
g2424
sg188
Nsg189
Nsg31
g2383
sg190
Nsg191
Nsg98
g2422
sg192
I00
sg193
Nsg194
I13
sg195
Nsbag0
(g4
g5
Ntp2427
Rp2428
(dp2429
g9
I00
sg10
Nsg11
I00
sg12
VWant automatic email alerts for $EMCI $CBD $SGBK $SGMS $BMTC? Subscribe to MarketBeat Daily https://t.co/nSJuDsYidj
p2430
sg14
Vhttps://zapier.com/
p2431
sg16
I00
sg17
I00
sg18
Nsg19
g0
(g20
g5
Ntp2432
Rp2433
(dp2434
g24
I00
sg25
I00
sg26
I01
sg27
VEFEFEF
p2435
sg29
I992182100
sg30
I00
sg31
(dp2436
g86
(dp2437
g35
(lp2438
(dp2439
g86
Vhttp://t.co/8V4MkNiWl0
p2440
sg154
(lp2441
I0
aI22
asg165
Vhttp://www.marketbeat.com
p2442
sg167
Vmarketbeat.com
p2443
sassg33
(dp2444
g35
(lp2445
(dp2446
g86
Vhttp://t.co/3t3pBdeo4G
p2447
sg154
(lp2448
I34
aI56
asg165
Vhttp://MarketBeat.com
p2449
sg167
VMarketBeat.com
p2450
sasssg37
Vhttps://pbs.twimg.com/profile_images/605433922986606592/LeOUrdkT_normal.png
p2451
sg39
(dp2452
g41
I00
sg42
I00
sg43
I01
sg44
I00
sg45
I992182100
sg46
Vhttps://abs.twimg.com/images/themes/theme14/bg.gif
p2453
sg48
I00
sg49
V333333
p2454
sg51
g2451
sg52
g2435
sg53
g2436
sg54
I3561
sg55
VFFFFFF
p2455
sg57
V992182100
p2456
sg59
V131516
p2457
sg61
I359
sg62
I00
sg63
Nsg64
I226213
sg33
VFormerly Analyst Ratings Network. http://t.co/3t3pBdeo4G tracks analyst upgrades, downgrades and new coverage in real-time.
p2458
sg66
I2
sg67
VSioux Falls, SD
p2459
sg69
V002277
p2460
sg71
Vhttp://pbs.twimg.com/profile_images/605433922986606592/LeOUrdkT_normal.png
p2461
sg73
I00
sg74
I00
sg696
Vhttps://pbs.twimg.com/profile_banners/992182100/1410482657
p2462
sg75
Vhttp://abs.twimg.com/images/themes/theme14/bg.gif
p2463
sg77
VRatingsNetwork
p2464
sg79
Ven
p2465
sg81
I01
sg82
I0
sg83
VMarketBeatCom
p2466
sg85
I00
sg86
Vhttp://t.co/8V4MkNiWl0
p2467
sg87
VThu Dec 06 01:50:15 +0000 2012
p2468
sg89
I00
sg90
Nsg91
I00
sg92
I00
sg93
I00
ssg94
I00
sg95
g2454
sg96
I3561
sg97
g2455
sg98
g2456
sg99
I00
sg100
I359
sg101
I00
sg102
Nsg103
I226213
sg104
g2458
sg105
I2
sg106
g2459
sg107
g2460
sg108
g2461
sg109
I00
sg110
I00
sg111
g2457
sg705
g2462
sg112
g2463
sg113
g2464
sg114
g2465
sg115
I00
sg116
I01
sg117
I0
sg118
g2466
sg119
g2467
sg120
g121
(S'\x07\xdc\x0c\x06\x012\x0f\x00\x00\x00'
p2469
tp2470
Rp2471
sg125
g2453
sg126
Nsg127
I00
sg128
I00
sg129
I00
sbsg130
Nsg29
L662372886041264129L
sg131
I0
sg132
VZapier.com
p2472
sg114
Ven
p2473
sg135
g2433
sg120
g121
(S'\x07\xdf\x0b\x05\x148\x10\x00\x00\x00'
p2474
tp2475
Rp2476
sg39
(dp2477
g140
Nsg141
I00
sg142
g2430
sg143
I00
sg144
Nsg45
L662372886041264129L
sg145
I0
sg146
V<a href="https://zapier.com/" rel="nofollow">Zapier.com</a>
p2478
sg148
I00
sg149
Nsg53
(dp2479
g151
(lp2480
(dp2481
g154
(lp2482
I32
aI37
asg142
VEMCI
p2483
sa(dp2484
g154
(lp2485
I38
aI42
asg142
VCBD
p2486
sa(dp2487
g154
(lp2488
I43
aI48
asg142
VSGBK
p2489
sa(dp2490
g154
(lp2491
I49
aI54
asg142
VSGMS
p2492
sa(dp2493
g154
(lp2494
I55
aI60
asg142
VBMTC
p2495
sasg157
(lp2496
sg159
(lp2497
sg35
(lp2498
(dp2499
g86
Vhttps://t.co/nSJuDsYidj
p2500
sg154
(lp2501
I92
aI115
asg165
Vhttp://bit.ly/arndailyw
p2502
sg167
Vbit.ly/arndailyw
p2503
sassg169
Nsg170
Nsg171
I0
sg57
V662372886041264129
p2504
sg173
I00
sg174
g2452
sg175
Nsg176
Nsg177
I00
sg79
g2473
sg87
VThu Nov 05 20:56:16 +0000 2015
p2505
sg179
Nsg180
Nsg181
(dp2506
g183
Ven
p2507
sg185
Vrecent
p2508
sssg187
g2506
sg188
Nsg189
Nsg31
g2479
sg190
Nsg191
Nsg98
g2504
sg192
I00
sg193
Nsg194
I0
sg195
Nsbag0
(g4
g5
Ntp2509
Rp2510
(dp2511
g9
I00
sg10
Nsg11
I00
sg12
VRT @InvestWithConf: $SGBK is rated BUY, 10.8% upside by Wall Street analysts based on average ratings/targets https://t.co/ozLY6MYUsJ https\u2026
p2512
sg14
Vhttp://twitter.com
p2513
sg16
I00
sg17
I00
sg18
Nsg19
g0
(g20
g5
Ntp2514
Rp2515
(dp2516
g24
I00
sg25
I00
sg26
I01
sg27
VDDEEF6
p2517
sg29
L3904846100L
sg30
I00
sg31
(dp2518
g86
(dp2519
g35
(lp2520
(dp2521
g86
Vhttp://t.co/xcHN3sR6Ie
p2522
sg154
(lp2523
I0
aI22
asg165
Vhttp://goo.gl/Lc73jz
p2524
sg167
Vgoo.gl/Lc73jz
p2525
sassg33
(dp2526
g35
(lp2527
(dp2528
g86
Vhttp://t.co/xcHN3sR6Ie
p2529
sg154
(lp2530
I138
aI160
asg165
Vhttp://goo.gl/Lc73jz
p2531
sg167
Vgoo.gl/Lc73jz
p2532
sasssg37
Vhttps://pbs.twimg.com/profile_images/654706703234023424/5gemE1NG_normal.jpg
p2533
sg39
(dp2534
g41
I00
sg42
I00
sg43
I01
sg44
I00
sg45
L3904846100L
sg46
Vhttps://abs.twimg.com/images/themes/theme1/bg.png
p2535
sg48
I00
sg49
V333333
p2536
sg51
g2533
sg52
g2517
sg53
g2518
sg54
I66
sg55
VC0DEED
p2537
sg57
V3904846100
p2538
sg59
VC0DEED
p2539
sg61
I5
sg62
I00
sg63
Nsg64
I364
sg33
V#BizTips #B2b #Realestate Investor and Social Media Guru! Learn how to get 100k Followers easily  on targetted followers on your profile ?http://t.co/xcHN3sR6Ie
p2540
sg66
I594
sg67
VUSA
p2541
sg69
V0084B4
p2542
sg71
Vhttp://pbs.twimg.com/profile_images/654706703234023424/5gemE1NG_normal.jpg
p2543
sg73
I00
sg74
I00
sg75
Vhttp://abs.twimg.com/images/themes/theme1/bg.png
p2544
sg77
VMarcosHollowayi
p2545
sg79
Ven
p2546
sg81
I00
sg82
I276
sg83
VMarcosHolloway
p2547
sg85
I00
sg86
Vhttp://t.co/xcHN3sR6Ie
p2548
sg87
VThu Oct 15 17:12:41 +0000 2015
p2549
sg89
I00
sg90
Nsg91
I00
sg92
I01
sg93
I00
ssg94
I00
sg95
g2536
sg96
I66
sg97
g2537
sg98
g2538
sg99
I00
sg100
I5
sg101
I00
sg102
Nsg103
I364
sg104
g2540
sg105
I594
sg106
g2541
sg107
g2542
sg108
g2543
sg109
I00
sg110
I00
sg111
g2539
sg112
g2544
sg113
g2545
sg114
g2546
sg115
I00
sg116
I00
sg117
I276
sg118
g2547
sg119
g2548
sg120
g121
(S'\x07\xdf\n\x0f\x11\x0c)\x00\x00\x00'
p2550
tp2551
Rp2552
sg125
g2535
sg126
Nsg127
I00
sg128
I01
sg129
I00
sbsg130
Nsg29
L662198258903613440L
sg131
I0
sg132
VTwitter Web Client
p2553
sg114
Ven
p2554
sg787
g0
(g4
g5
Ntp2555
Rp2556
(dp2557
g9
I00
sg10
Nsg11
I00
sg12
V$SGBK is rated BUY, 10.8% upside by Wall Street analysts based on average ratings/targets https://t.co/ozLY6MYUsJ https://t.co/ldKD4SpyhS
p2558
sg14
Vhttp://investwithconf.blogspot.com
p2559
sg16
I00
sg17
I00
sg18
Nsg19
g0
(g20
g5
Ntp2560
Rp2561
(dp2562
g24
I00
sg25
I00
sg26
I01
sg27
VF6FFD1
p2563
sg29
L2344623210L
sg30
I00
sg31
(dp2564
g33
(dp2565
g35
(lp2566
sssg37
Vhttps://pbs.twimg.com/profile_images/597618707721035778/xao5eh5P_normal.jpg
p2567
sg39
(dp2568
g41
I00
sg42
I00
sg43
I01
sg44
I00
sg45
L2344623210L
sg46
Vhttps://abs.twimg.com/images/themes/theme19/bg.gif
p2569
sg48
I00
sg49
V333333
p2570
sg51
g2567
sg52
g2563
sg53
g2564
sg54
I256
sg55
VFFF8AD
p2571
sg57
V2344623210
p2572
sg59
VFFF04D
p2573
sg61
I16
sg62
I00
sg63
I-18000
sg64
I67446
sg33
g68
sg66
I0
sg67
g68
sg69
V0099CC
p2574
sg71
Vhttp://pbs.twimg.com/profile_images/597618707721035778/xao5eh5P_normal.jpg
p2575
sg73
I00
sg74
I00
sg75
Vhttp://abs.twimg.com/images/themes/theme19/bg.gif
p2576
sg77
VInvestWithConf
p2577
sg79
Ven
p2578
sg81
I00
sg82
I0
sg83
VInvestWithConf
p2579
sg85
I00
sg86
Nsg87
VSat Feb 15 05:52:28 +0000 2014
p2580
sg89
I00
sg90
VEastern Time (US & Canada)
p2581
sg91
I00
sg92
I00
sg93
I00
ssg94
I00
sg95
g2570
sg96
I256
sg97
g2571
sg98
g2572
sg99
I00
sg100
I16
sg101
I00
sg102
I-18000
sg103
I67446
sg104
g68
sg105
I0
sg106
g68
sg107
g2574
sg108
g2575
sg109
I00
sg110
I00
sg111
g2573
sg112
g2576
sg113
g2577
sg114
g2578
sg115
I00
sg116
I00
sg117
I0
sg118
g2579
sg119
Nsg120
g121
(S'\x07\xde\x02\x0f\x054\x1c\x00\x00\x00'
p2582
tp2583
Rp2584
sg125
g2569
sg126
g2581
sg127
I00
sg128
I00
sg129
I00
sbsg130
Nsg29
L661431623968292864L
sg131
I6
sg132
VIWCE
p2585
sg114
Ven
p2586
sg135
g2561
sg120
g121
(S'\x07\xdf\x0b\x03\x06$\x02\x00\x00\x00'
p2587
tp2588
Rp2589
sg39
(dp2590
g140
Nsg141
I00
sg142
g2558
sg143
I00
sg144
Nsg45
L661431623968292864L
sg145
I6
sg146
V<a href="http://investwithconf.blogspot.com" rel="nofollow">IWCE</a>
p2591
sg148
I00
sg149
Nsg53
(dp2592
g151
(lp2593
(dp2594
g154
(lp2595
I0
aI5
asg142
VSGBK
p2596
sasg157
(lp2597
sg159
(lp2598
sg35
(lp2599
(dp2600
g86
Vhttps://t.co/ozLY6MYUsJ
p2601
sg154
(lp2602
I90
aI113
asg165
Vhttp://manyratings.com/SGBK
p2603
sg167
Vmanyratings.com/SGBK
p2604
sasg838
(lp2605
(dp2606
g165
Vhttp://twitter.com/InvestWithConf/status/661431623968292864/photo/1
p2607
sg167
Vpic.twitter.com/ldKD4SpyhS
p2608
sg86
Vhttps://t.co/ldKD4SpyhS
p2609
sg844
Vhttps://pbs.twimg.com/media/CS3gjpRWwAEg2tr.jpg
p2610
sg57
V661431623272022017
p2611
sg847
(dp2612
g849
(dp2613
g851
I4
sg852
Vfit
p2614
sg854
I4
ssg855
(dp2615
g851
I4
sg852
Vfit
p2616
sg854
I4
ssg858
(dp2617
g851
I4
sg852
Vfit
p2618
sg854
I4
ssg861
(dp2619
g851
I4
sg852
Vcrop
p2620
sg854
I4
sssg154
(lp2621
I114
aI137
asg865
Vphoto
p2622
sg45
L661431623272022017L
sg867
Vhttp://pbs.twimg.com/media/CS3gjpRWwAEg2tr.jpg
p2623
sassg169
Nsg170
Nsg171
I13
sg57
V661431623968292864
p2624
sg173
I00
sg174
g2568
sg175
Nsg176
Nsg177
I00
sg79
g2586
sg87
VTue Nov 03 06:36:02 +0000 2015
p2625
sg179
Nsg180
Nsg181
(dp2626
g183
Ven
p2627
sg185
Vrecent
p2628
sssg187
g2626
sg188
Nsg189
Nsg31
g2592
sg190
Nsg191
Nsg98
g2624
sg192
I00
sg193
Nsg194
I13
sg195
Nsbsg135
g2515
sg120
g121
(S'\x07\xdf\x0b\x05\t\x16\x16\x00\x00\x00'
p2629
tp2630
Rp2631
sg39
(dp2632
g140
Nsg141
I00
sg142
g2512
sg143
I00
sg144
Nsg45
L662198258903613440L
sg145
I0
sg146
V<a href="http://twitter.com" rel="nofollow">Twitter Web Client</a>
p2633
sg148
I00
sg149
Nsg53
(dp2634
g151
(lp2635
(dp2636
g154
(lp2637
I20
aI25
asg142
VSGBK
p2638
sasg157
(lp2639
(dp2640
g45
L2344623210L
sg154
(lp2641
I3
aI18
asg57
V2344623210
p2642
sg77
VInvestWithConf
p2643
sg83
VInvestWithConf
p2644
sasg159
(lp2645
sg35
(lp2646
(dp2647
g86
Vhttps://t.co/ozLY6MYUsJ
p2648
sg154
(lp2649
I110
aI133
asg165
Vhttp://manyratings.com/SGBK
p2650
sg167
Vmanyratings.com/SGBK
p2651
sasg838
(lp2652
(dp2653
g899
L2344623210L
sg900
V661431623968292864
p2654
sg165
Vhttp://twitter.com/InvestWithConf/status/661431623968292864/photo/1
p2655
sg167
Vpic.twitter.com/ldKD4SpyhS
p2656
sg86
Vhttps://t.co/ldKD4SpyhS
p2657
sg844
Vhttps://pbs.twimg.com/media/CS3gjpRWwAEg2tr.jpg
p2658
sg906
V2344623210
p2659
sg908
L661431623968292864L
sg57
V661431623272022017
p2660
sg847
(dp2661
g849
(dp2662
g851
I4
sg852
Vfit
p2663
sg854
I4
ssg855
(dp2664
g851
I4
sg852
Vfit
p2665
sg854
I4
ssg858
(dp2666
g851
I4
sg852
Vfit
p2667
sg854
I4
ssg861
(dp2668
g851
I4
sg852
Vcrop
p2669
sg854
I4
sssg154
(lp2670
I139
aI140
asg865
Vphoto
p2671
sg45
L661431623272022017L
sg867
Vhttp://pbs.twimg.com/media/CS3gjpRWwAEg2tr.jpg
p2672
sassg169
Nsg170
Nsg171
I13
sg57
V662198258903613440
p2673
sg173
I00
sg923
g2590
sg174
g2534
sg175
Nsg176
Nsg177
I00
sg79
g2554
sg87
VThu Nov 05 09:22:22 +0000 2015
p2674
sg179
Nsg180
Nsg181
(dp2675
g183
Ven
p2676
sg185
Vrecent
p2677
sssg187
g2675
sg188
Nsg189
Nsg31
g2634
sg190
Nsg191
Nsg98
g2673
sg192
I00
sg193
Nsg194
I13
sg195
Nsbag0
(g4
g5
Ntp2678
Rp2679
(dp2680
g9
I00
sg10
Nsg11
I00
sg12
VRT @InvestWithConf: $SGBK is rated BUY, 10.8% upside by Wall Street analysts based on average ratings/targets https://t.co/ozLY6MYUsJ https\u2026
p2681
sg14
Vhttp://twitter.com
p2682
sg16
I00
sg17
I00
sg18
Nsg19
g0
(g20
g5
Ntp2683
Rp2684
(dp2685
g24
I00
sg25
I00
sg26
I01
sg27
VDDEEF6
p2686
sg29
L3904995169L
sg30
I00
sg31
(dp2687
g86
(dp2688
g35
(lp2689
(dp2690
g86
Vhttp://t.co/xcHN3sR6Ie
p2691
sg154
(lp2692
I0
aI22
asg165
Vhttp://goo.gl/Lc73jz
p2693
sg167
Vgoo.gl/Lc73jz
p2694
sassg33
(dp2695
g35
(lp2696
(dp2697
g86
Vhttp://t.co/xcHN3sR6Ie
p2698
sg154
(lp2699
I97
aI119
asg165
Vhttp://goo.gl/Lc73jz
p2700
sg167
Vgoo.gl/Lc73jz
p2701
sasssg37
Vhttps://pbs.twimg.com/profile_images/654710043745476613/aV_laVK2_normal.jpg
p2702
sg39
(dp2703
g41
I00
sg42
I00
sg43
I01
sg44
I00
sg45
L3904995169L
sg46
Vhttps://abs.twimg.com/images/themes/theme1/bg.png
p2704
sg48
I00
sg49
V333333
p2705
sg51
g2702
sg52
g2686
sg53
g2687
sg54
I65
sg55
VC0DEED
p2706
sg57
V3904995169
p2707
sg59
VC0DEED
p2708
sg61
I6
sg62
I00
sg63
Nsg64
I350
sg33
V#BizTips #B2b #Realestate Investor and Social Media Guru! Learn how to get 100k Followers easily http://t.co/xcHN3sR6Ie
p2709
sg66
I617
sg67
VMinnesota, USA
p2710
sg69
V0084B4
p2711
sg71
Vhttp://pbs.twimg.com/profile_images/654710043745476613/aV_laVK2_normal.jpg
p2712
sg73
I00
sg74
I00
sg75
Vhttp://abs.twimg.com/images/themes/theme1/bg.png
p2713
sg77
VTerryJordanaw
p2714
sg79
Ven
p2715
sg81
I00
sg82
I255
sg83
VTerryJordan
p2716
sg85
I00
sg86
Vhttp://t.co/xcHN3sR6Ie
p2717
sg87
VThu Oct 15 17:25:01 +0000 2015
p2718
sg89
I00
sg90
Nsg91
I00
sg92
I01
sg93
I00
ssg94
I00
sg95
g2705
sg96
I65
sg97
g2706
sg98
g2707
sg99
I00
sg100
I6
sg101
I00
sg102
Nsg103
I350
sg104
g2709
sg105
I617
sg106
g2710
sg107
g2711
sg108
g2712
sg109
I00
sg110
I00
sg111
g2708
sg112
g2713
sg113
g2714
sg114
g2715
sg115
I00
sg116
I00
sg117
I255
sg118
g2716
sg119
g2717
sg120
g121
(S'\x07\xdf\n\x0f\x11\x19\x01\x00\x00\x00'
p2719
tp2720
Rp2721
sg125
g2704
sg126
Nsg127
I00
sg128
I01
sg129
I00
sbsg130
Nsg29
L662172169603018752L
sg131
I0
sg132
VTwitter Web Client
p2722
sg114
Ven
p2723
sg787
g0
(g4
g5
Ntp2724
Rp2725
(dp2726
g9
I00
sg10
Nsg11
I00
sg12
V$SGBK is rated BUY, 10.8% upside by Wall Street analysts based on average ratings/targets https://t.co/ozLY6MYUsJ https://t.co/ldKD4SpyhS
p2727
sg14
Vhttp://investwithconf.blogspot.com
p2728
sg16
I00
sg17
I00
sg18
Nsg19
g0
(g20
g5
Ntp2729
Rp2730
(dp2731
g24
I00
sg25
I00
sg26
I01
sg27
VF6FFD1
p2732
sg29
L2344623210L
sg30
I00
sg31
(dp2733
g33
(dp2734
g35
(lp2735
sssg37
Vhttps://pbs.twimg.com/profile_images/597618707721035778/xao5eh5P_normal.jpg
p2736
sg39
(dp2737
g41
I00
sg42
I00
sg43
I01
sg44
I00
sg45
L2344623210L
sg46
Vhttps://abs.twimg.com/images/themes/theme19/bg.gif
p2738
sg48
I00
sg49
V333333
p2739
sg51
g2736
sg52
g2732
sg53
g2733
sg54
I256
sg55
VFFF8AD
p2740
sg57
V2344623210
p2741
sg59
VFFF04D
p2742
sg61
I16
sg62
I00
sg63
I-18000
sg64
I67446
sg33
g68
sg66
I0
sg67
g68
sg69
V0099CC
p2743
sg71
Vhttp://pbs.twimg.com/profile_images/597618707721035778/xao5eh5P_normal.jpg
p2744
sg73
I00
sg74
I00
sg75
Vhttp://abs.twimg.com/images/themes/theme19/bg.gif
p2745
sg77
VInvestWithConf
p2746
sg79
Ven
p2747
sg81
I00
sg82
I0
sg83
VInvestWithConf
p2748
sg85
I00
sg86
Nsg87
VSat Feb 15 05:52:28 +0000 2014
p2749
sg89
I00
sg90
VEastern Time (US & Canada)
p2750
sg91
I00
sg92
I00
sg93
I00
ssg94
I00
sg95
g2739
sg96
I256
sg97
g2740
sg98
g2741
sg99
I00
sg100
I16
sg101
I00
sg102
I-18000
sg103
I67446
sg104
g68
sg105
I0
sg106
g68
sg107
g2743
sg108
g2744
sg109
I00
sg110
I00
sg111
g2742
sg112
g2745
sg113
g2746
sg114
g2747
sg115
I00
sg116
I00
sg117
I0
sg118
g2748
sg119
Nsg120
g121
(S'\x07\xde\x02\x0f\x054\x1c\x00\x00\x00'
p2751
tp2752
Rp2753
sg125
g2738
sg126
g2750
sg127
I00
sg128
I00
sg129
I00
sbsg130
Nsg29
L661431623968292864L
sg131
I6
sg132
VIWCE
p2754
sg114
Ven
p2755
sg135
g2730
sg120
g121
(S'\x07\xdf\x0b\x03\x06$\x02\x00\x00\x00'
p2756
tp2757
Rp2758
sg39
(dp2759
g140
Nsg141
I00
sg142
g2727
sg143
I00
sg144
Nsg45
L661431623968292864L
sg145
I6
sg146
V<a href="http://investwithconf.blogspot.com" rel="nofollow">IWCE</a>
p2760
sg148
I00
sg149
Nsg53
(dp2761
g151
(lp2762
(dp2763
g154
(lp2764
I0
aI5
asg142
VSGBK
p2765
sasg157
(lp2766
sg159
(lp2767
sg35
(lp2768
(dp2769
g86
Vhttps://t.co/ozLY6MYUsJ
p2770
sg154
(lp2771
I90
aI113
asg165
Vhttp://manyratings.com/SGBK
p2772
sg167
Vmanyratings.com/SGBK
p2773
sasg838
(lp2774
(dp2775
g165
Vhttp://twitter.com/InvestWithConf/status/661431623968292864/photo/1
p2776
sg167
Vpic.twitter.com/ldKD4SpyhS
p2777
sg86
Vhttps://t.co/ldKD4SpyhS
p2778
sg844
Vhttps://pbs.twimg.com/media/CS3gjpRWwAEg2tr.jpg
p2779
sg57
V661431623272022017
p2780
sg847
(dp2781
g849
(dp2782
g851
I4
sg852
Vfit
p2783
sg854
I4
ssg855
(dp2784
g851
I4
sg852
Vfit
p2785
sg854
I4
ssg858
(dp2786
g851
I4
sg852
Vfit
p2787
sg854
I4
ssg861
(dp2788
g851
I4
sg852
Vcrop
p2789
sg854
I4
sssg154
(lp2790
I114
aI137
asg865
Vphoto
p2791
sg45
L661431623272022017L
sg867
Vhttp://pbs.twimg.com/media/CS3gjpRWwAEg2tr.jpg
p2792
sassg169
Nsg170
Nsg171
I13
sg57
V661431623968292864
p2793
sg173
I00
sg174
g2737
sg175
Nsg176
Nsg177
I00
sg79
g2755
sg87
VTue Nov 03 06:36:02 +0000 2015
p2794
sg179
Nsg180
Nsg181
(dp2795
g183
Ven
p2796
sg185
Vrecent
p2797
sssg187
g2795
sg188
Nsg189
Nsg31
g2761
sg190
Nsg191
Nsg98
g2793
sg192
I00
sg193
Nsg194
I13
sg195
Nsbsg135
g2684
sg120
g121
(S'\x07\xdf\x0b\x05\x07&*\x00\x00\x00'
p2798
tp2799
Rp2800
sg39
(dp2801
g140
Nsg141
I00
sg142
g2681
sg143
I00
sg144
Nsg45
L662172169603018752L
sg145
I0
sg146
V<a href="http://twitter.com" rel="nofollow">Twitter Web Client</a>
p2802
sg148
I00
sg149
Nsg53
(dp2803
g151
(lp2804
(dp2805
g154
(lp2806
I20
aI25
asg142
VSGBK
p2807
sasg157
(lp2808
(dp2809
g45
L2344623210L
sg154
(lp2810
I3
aI18
asg57
V2344623210
p2811
sg77
VInvestWithConf
p2812
sg83
VInvestWithConf
p2813
sasg159
(lp2814
sg35
(lp2815
(dp2816
g86
Vhttps://t.co/ozLY6MYUsJ
p2817
sg154
(lp2818
I110
aI133
asg165
Vhttp://manyratings.com/SGBK
p2819
sg167
Vmanyratings.com/SGBK
p2820
sasg838
(lp2821
(dp2822
g899
L2344623210L
sg900
V661431623968292864
p2823
sg165
Vhttp://twitter.com/InvestWithConf/status/661431623968292864/photo/1
p2824
sg167
Vpic.twitter.com/ldKD4SpyhS
p2825
sg86
Vhttps://t.co/ldKD4SpyhS
p2826
sg844
Vhttps://pbs.twimg.com/media/CS3gjpRWwAEg2tr.jpg
p2827
sg906
V2344623210
p2828
sg908
L661431623968292864L
sg57
V661431623272022017
p2829
sg847
(dp2830
g849
(dp2831
g851
I4
sg852
Vfit
p2832
sg854
I4
ssg855
(dp2833
g851
I4
sg852
Vfit
p2834
sg854
I4
ssg858
(dp2835
g851
I4
sg852
Vfit
p2836
sg854
I4
ssg861
(dp2837
g851
I4
sg852
Vcrop
p2838
sg854
I4
sssg154
(lp2839
I139
aI140
asg865
Vphoto
p2840
sg45
L661431623272022017L
sg867
Vhttp://pbs.twimg.com/media/CS3gjpRWwAEg2tr.jpg
p2841
sassg169
Nsg170
Nsg171
I13
sg57
V662172169603018752
p2842
sg173
I00
sg923
g2759
sg174
g2703
sg175
Nsg176
Nsg177
I00
sg79
g2723
sg87
VThu Nov 05 07:38:42 +0000 2015
p2843
sg179
Nsg180
Nsg181
(dp2844
g183
Ven
p2845
sg185
Vrecent
p2846
sssg187
g2844
sg188
Nsg189
Nsg31
g2803
sg190
Nsg191
Nsg98
g2842
sg192
I00
sg193
Nsg194
I13
sg195
Nsbag0
(g4
g5
Ntp2847
Rp2848
(dp2849
g9
I00
sg10
Nsg11
I00
sg12
VRT @InvestWithConf: $SGBK is rated BUY, 10.8% upside by Wall Street analysts based on average ratings/targets https://t.co/ozLY6MYUsJ https\u2026
p2850
sg14
Vhttp://twitter.com
p2851
sg16
I00
sg17
I00
sg18
Nsg19
g0
(g20
g5
Ntp2852
Rp2853
(dp2854
g24
I00
sg25
I00
sg26
I00
sg27
V000000
p2855
sg29
L3904904720L
sg30
I00
sg31
(dp2856
g86
(dp2857
g35
(lp2858
(dp2859
g86
Vhttp://t.co/xcHN3sR6Ie
p2860
sg154
(lp2861
I0
aI22
asg165
Vhttp://goo.gl/Lc73jz
p2862
sg167
Vgoo.gl/Lc73jz
p2863
sassg33
(dp2864
g35
(lp2865
(dp2866
g86
Vhttp://t.co/xcHN3sR6Ie
p2867
sg154
(lp2868
I97
aI119
asg165
Vhttp://goo.gl/Lc73jz
p2869
sg167
Vgoo.gl/Lc73jz
p2870
sasssg37
Vhttps://pbs.twimg.com/profile_images/654708686804287488/MmqtlWAM_normal.jpg
p2871
sg39
(dp2872
g41
I00
sg42
I00
sg43
I00
sg44
I00
sg45
L3904904720L
sg46
Vhttps://abs.twimg.com/images/themes/theme1/bg.png
p2873
sg48
I00
sg49
V000000
p2874
sg51
g2871
sg52
g2855
sg53
g2856
sg54
I85
sg55
V000000
p2875
sg57
V3904904720
p2876
sg59
V000000
p2877
sg61
I7
sg62
I00
sg63
Nsg64
I360
sg33
V#BizTips #B2b #Realestate Investor and Social Media Guru! Learn how to get 100k Followers easily http://t.co/xcHN3sR6Ie
p2878
sg66
I591
sg67
VMichigan, USA
p2879
sg69
VDD2E44
p2880
sg71
Vhttp://pbs.twimg.com/profile_images/654708686804287488/MmqtlWAM_normal.jpg
p2881
sg73
I00
sg74
I00
sg75
Vhttp://abs.twimg.com/images/themes/theme1/bg.png
p2882
sg77
VMaxOsbornea
p2883
sg79
Ven
p2884
sg81
I00
sg82
I268
sg83
VMaxOsborne
p2885
sg85
I00
sg86
Vhttp://t.co/xcHN3sR6Ie
p2886
sg87
VThu Oct 15 17:20:18 +0000 2015
p2887
sg89
I00
sg90
Nsg91
I00
sg92
I00
sg93
I00
ssg94
I00
sg95
g2874
sg96
I85
sg97
g2875
sg98
g2876
sg99
I00
sg100
I7
sg101
I00
sg102
Nsg103
I360
sg104
g2878
sg105
I591
sg106
g2879
sg107
g2880
sg108
g2881
sg109
I00
sg110
I00
sg111
g2877
sg112
g2882
sg113
g2883
sg114
g2884
sg115
I00
sg116
I00
sg117
I268
sg118
g2885
sg119
g2886
sg120
g121
(S'\x07\xdf\n\x0f\x11\x14\x12\x00\x00\x00'
p2888
tp2889
Rp2890
sg125
g2873
sg126
Nsg127
I00
sg128
I00
sg129
I00
sbsg130
Nsg29
L662148683463528449L
sg131
I0
sg132
VTwitter Web Client
p2891
sg114
Ven
p2892
sg787
g0
(g4
g5
Ntp2893
Rp2894
(dp2895
g9
I00
sg10
Nsg11
I00
sg12
V$SGBK is rated BUY, 10.8% upside by Wall Street analysts based on average ratings/targets https://t.co/ozLY6MYUsJ https://t.co/ldKD4SpyhS
p2896
sg14
Vhttp://investwithconf.blogspot.com
p2897
sg16
I00
sg17
I00
sg18
Nsg19
g0
(g20
g5
Ntp2898
Rp2899
(dp2900
g24
I00
sg25
I00
sg26
I01
sg27
VF6FFD1
p2901
sg29
L2344623210L
sg30
I00
sg31
(dp2902
g33
(dp2903
g35
(lp2904
sssg37
Vhttps://pbs.twimg.com/profile_images/597618707721035778/xao5eh5P_normal.jpg
p2905
sg39
(dp2906
g41
I00
sg42
I00
sg43
I01
sg44
I00
sg45
L2344623210L
sg46
Vhttps://abs.twimg.com/images/themes/theme19/bg.gif
p2907
sg48
I00
sg49
V333333
p2908
sg51
g2905
sg52
g2901
sg53
g2902
sg54
I256
sg55
VFFF8AD
p2909
sg57
V2344623210
p2910
sg59
VFFF04D
p2911
sg61
I16
sg62
I00
sg63
I-18000
sg64
I67446
sg33
g68
sg66
I0
sg67
g68
sg69
V0099CC
p2912
sg71
Vhttp://pbs.twimg.com/profile_images/597618707721035778/xao5eh5P_normal.jpg
p2913
sg73
I00
sg74
I00
sg75
Vhttp://abs.twimg.com/images/themes/theme19/bg.gif
p2914
sg77
VInvestWithConf
p2915
sg79
Ven
p2916
sg81
I00
sg82
I0
sg83
VInvestWithConf
p2917
sg85
I00
sg86
Nsg87
VSat Feb 15 05:52:28 +0000 2014
p2918
sg89
I00
sg90
VEastern Time (US & Canada)
p2919
sg91
I00
sg92
I00
sg93
I00
ssg94
I00
sg95
g2908
sg96
I256
sg97
g2909
sg98
g2910
sg99
I00
sg100
I16
sg101
I00
sg102
I-18000
sg103
I67446
sg104
g68
sg105
I0
sg106
g68
sg107
g2912
sg108
g2913
sg109
I00
sg110
I00
sg111
g2911
sg112
g2914
sg113
g2915
sg114
g2916
sg115
I00
sg116
I00
sg117
I0
sg118
g2917
sg119
Nsg120
g121
(S'\x07\xde\x02\x0f\x054\x1c\x00\x00\x00'
p2920
tp2921
Rp2922
sg125
g2907
sg126
g2919
sg127
I00
sg128
I00
sg129
I00
sbsg130
Nsg29
L661431623968292864L
sg131
I6
sg132
VIWCE
p2923
sg114
Ven
p2924
sg135
g2899
sg120
g121
(S'\x07\xdf\x0b\x03\x06$\x02\x00\x00\x00'
p2925
tp2926
Rp2927
sg39
(dp2928
g140
Nsg141
I00
sg142
g2896
sg143
I00
sg144
Nsg45
L661431623968292864L
sg145
I6
sg146
V<a href="http://investwithconf.blogspot.com" rel="nofollow">IWCE</a>
p2929
sg148
I00
sg149
Nsg53
(dp2930
g151
(lp2931
(dp2932
g154
(lp2933
I0
aI5
asg142
VSGBK
p2934
sasg157
(lp2935
sg159
(lp2936
sg35
(lp2937
(dp2938
g86
Vhttps://t.co/ozLY6MYUsJ
p2939
sg154
(lp2940
I90
aI113
asg165
Vhttp://manyratings.com/SGBK
p2941
sg167
Vmanyratings.com/SGBK
p2942
sasg838
(lp2943
(dp2944
g165
Vhttp://twitter.com/InvestWithConf/status/661431623968292864/photo/1
p2945
sg167
Vpic.twitter.com/ldKD4SpyhS
p2946
sg86
Vhttps://t.co/ldKD4SpyhS
p2947
sg844
Vhttps://pbs.twimg.com/media/CS3gjpRWwAEg2tr.jpg
p2948
sg57
V661431623272022017
p2949
sg847
(dp2950
g849
(dp2951
g851
I4
sg852
Vfit
p2952
sg854
I4
ssg855
(dp2953
g851
I4
sg852
Vfit
p2954
sg854
I4
ssg858
(dp2955
g851
I4
sg852
Vfit
p2956
sg854
I4
ssg861
(dp2957
g851
I4
sg852
Vcrop
p2958
sg854
I4
sssg154
(lp2959
I114
aI137
asg865
Vphoto
p2960
sg45
L661431623272022017L
sg867
Vhttp://pbs.twimg.com/media/CS3gjpRWwAEg2tr.jpg
p2961
sassg169
Nsg170
Nsg171
I13
sg57
V661431623968292864
p2962
sg173
I00
sg174
g2906
sg175
Nsg176
Nsg177
I00
sg79
g2924
sg87
VTue Nov 03 06:36:02 +0000 2015
p2963
sg179
Nsg180
Nsg181
(dp2964
g183
Ven
p2965
sg185
Vrecent
p2966
sssg187
g2964
sg188
Nsg189
Nsg31
g2930
sg190
Nsg191
Nsg98
g2962
sg192
I00
sg193
Nsg194
I13
sg195
Nsbsg135
g2853
sg120
g121
(S'\x07\xdf\x0b\x05\x06\x05\x16\x00\x00\x00'
p2967
tp2968
Rp2969
sg39
(dp2970
g140
Nsg141
I00
sg142
g2850
sg143
I00
sg144
Nsg45
L662148683463528449L
sg145
I0
sg146
V<a href="http://twitter.com" rel="nofollow">Twitter Web Client</a>
p2971
sg148
I00
sg149
Nsg53
(dp2972
g151
(lp2973
(dp2974
g154
(lp2975
I20
aI25
asg142
VSGBK
p2976
sasg157
(lp2977
(dp2978
g45
L2344623210L
sg154
(lp2979
I3
aI18
asg57
V2344623210
p2980
sg77
VInvestWithConf
p2981
sg83
VInvestWithConf
p2982
sasg159
(lp2983
sg35
(lp2984
(dp2985
g86
Vhttps://t.co/ozLY6MYUsJ
p2986
sg154
(lp2987
I110
aI133
asg165
Vhttp://manyratings.com/SGBK
p2988
sg167
Vmanyratings.com/SGBK
p2989
sasg838
(lp2990
(dp2991
g899
L2344623210L
sg900
V661431623968292864
p2992
sg165
Vhttp://twitter.com/InvestWithConf/status/661431623968292864/photo/1
p2993
sg167
Vpic.twitter.com/ldKD4SpyhS
p2994
sg86
Vhttps://t.co/ldKD4SpyhS
p2995
sg844
Vhttps://pbs.twimg.com/media/CS3gjpRWwAEg2tr.jpg
p2996
sg906
V2344623210
p2997
sg908
L661431623968292864L
sg57
V661431623272022017
p2998
sg847
(dp2999
g849
(dp3000
g851
I4
sg852
Vfit
p3001
sg854
I4
ssg855
(dp3002
g851
I4
sg852
Vfit
p3003
sg854
I4
ssg858
(dp3004
g851
I4
sg852
Vfit
p3005
sg854
I4
ssg861
(dp3006
g851
I4
sg852
Vcrop
p3007
sg854
I4
sssg154
(lp3008
I139
aI140
asg865
Vphoto
p3009
sg45
L661431623272022017L
sg867
Vhttp://pbs.twimg.com/media/CS3gjpRWwAEg2tr.jpg
p3010
sassg169
Nsg170
Nsg171
I13
sg57
V662148683463528449
p3011
sg173
I00
sg923
g2928
sg174
g2872
sg175
Nsg176
Nsg177
I00
sg79
g2892
sg87
VThu Nov 05 06:05:22 +0000 2015
p3012
sg179
Nsg180
Nsg181
(dp3013
g183
Ven
p3014
sg185
Vrecent
p3015
sssg187
g3013
sg188
Nsg189
Nsg31
g2972
sg190
Nsg191
Nsg98
g3011
sg192
I00
sg193
Nsg194
I13
sg195
Nsbag0
(g4
g5
Ntp3016
Rp3017
(dp3018
g9
I00
sg10
Nsg11
I00
sg12
VRT @InvestWithConf: $SGBK is rated BUY, 10.8% upside by Wall Street analysts based on average ratings/targets https://t.co/ozLY6MYUsJ https\u2026
p3019
sg14
Vhttp://twitter.com
p3020
sg16
I00
sg17
I00
sg18
Nsg19
g0
(g20
g5
Ntp3021
Rp3022
(dp3023
g24
I00
sg25
I00
sg26
I00
sg27
V000000
p3024
sg29
L3903561798L
sg30
I00
sg31
(dp3025
g86
(dp3026
g35
(lp3027
(dp3028
g86
Vhttp://t.co/LHJRK2cSqh
p3029
sg154
(lp3030
I0
aI22
asg165
Vhttp://goo.gl/lh59ZJ
p3031
sg167
Vgoo.gl/lh59ZJ
p3032
sassg33
(dp3033
g35
(lp3034
(dp3035
g86
Vhttp://t.co/LHJRK2cSqh
p3036
sg154
(lp3037
I137
aI159
asg165
Vhttp://goo.gl/lh59ZJ
p3038
sg167
Vgoo.gl/lh59ZJ
p3039
sasssg37
Vhttps://pbs.twimg.com/profile_images/654667111244001284/UUFfmQu2_normal.jpg
p3040
sg39
(dp3041
g41
I00
sg42
I00
sg43
I00
sg44
I00
sg45
L3903561798L
sg46
Vhttps://abs.twimg.com/images/themes/theme1/bg.png
p3042
sg48
I00
sg49
V000000
p3043
sg51
g3040
sg52
g3024
sg53
g3025
sg54
I92
sg55
V000000
p3044
sg57
V3903561798
p3045
sg59
V000000
p3046
sg61
I9
sg62
I00
sg63
Nsg64
I359
sg33
V#Business #Consultant helping people to increase their reach on specific location or specific area.Need to reach more followers?Checkout http://t.co/LHJRK2cSqh
p3047
sg66
I583
sg67
VArizona, USA
p3048
sg69
VF5ABB5
p3049
sg71
Vhttp://pbs.twimg.com/profile_images/654667111244001284/UUFfmQu2_normal.jpg
p3050
sg73
I00
sg74
I00
sg75
Vhttp://abs.twimg.com/images/themes/theme1/bg.png
p3051
sg77
VRamonadJordan
p3052
sg79
Ven
p3053
sg81
I00
sg82
I262
sg83
VRamona Jordan
p3054
sg85
I00
sg86
Vhttp://t.co/LHJRK2cSqh
p3055
sg87
VThu Oct 15 14:35:11 +0000 2015
p3056
sg89
I00
sg90
Nsg91
I00
sg92
I00
sg93
I00
ssg94
I00
sg95
g3043
sg96
I92
sg97
g3044
sg98
g3045
sg99
I00
sg100
I9
sg101
I00
sg102
Nsg103
I359
sg104
g3047
sg105
I583
sg106
g3048
sg107
g3049
sg108
g3050
sg109
I00
sg110
I00
sg111
g3046
sg112
g3051
sg113
g3052
sg114
g3053
sg115
I00
sg116
I00
sg117
I262
sg118
g3054
sg119
g3055
sg120
g121
(S'\x07\xdf\n\x0f\x0e#\x0b\x00\x00\x00'
p3057
tp3058
Rp3059
sg125
g3042
sg126
Nsg127
I00
sg128
I00
sg129
I00
sbsg130
Nsg29
L662147396407705600L
sg131
I0
sg132
VTwitter Web Client
p3060
sg114
Ven
p3061
sg787
g0
(g4
g5
Ntp3062
Rp3063
(dp3064
g9
I00
sg10
Nsg11
I00
sg12
V$SGBK is rated BUY, 10.8% upside by Wall Street analysts based on average ratings/targets https://t.co/ozLY6MYUsJ https://t.co/ldKD4SpyhS
p3065
sg14
Vhttp://investwithconf.blogspot.com
p3066
sg16
I00
sg17
I00
sg18
Nsg19
g0
(g20
g5
Ntp3067
Rp3068
(dp3069
g24
I00
sg25
I00
sg26
I01
sg27
VF6FFD1
p3070
sg29
L2344623210L
sg30
I00
sg31
(dp3071
g33
(dp3072
g35
(lp3073
sssg37
Vhttps://pbs.twimg.com/profile_images/597618707721035778/xao5eh5P_normal.jpg
p3074
sg39
(dp3075
g41
I00
sg42
I00
sg43
I01
sg44
I00
sg45
L2344623210L
sg46
Vhttps://abs.twimg.com/images/themes/theme19/bg.gif
p3076
sg48
I00
sg49
V333333
p3077
sg51
g3074
sg52
g3070
sg53
g3071
sg54
I256
sg55
VFFF8AD
p3078
sg57
V2344623210
p3079
sg59
VFFF04D
p3080
sg61
I16
sg62
I00
sg63
I-18000
sg64
I67446
sg33
g68
sg66
I0
sg67
g68
sg69
V0099CC
p3081
sg71
Vhttp://pbs.twimg.com/profile_images/597618707721035778/xao5eh5P_normal.jpg
p3082
sg73
I00
sg74
I00
sg75
Vhttp://abs.twimg.com/images/themes/theme19/bg.gif
p3083
sg77
VInvestWithConf
p3084
sg79
Ven
p3085
sg81
I00
sg82
I0
sg83
VInvestWithConf
p3086
sg85
I00
sg86
Nsg87
VSat Feb 15 05:52:28 +0000 2014
p3087
sg89
I00
sg90
VEastern Time (US & Canada)
p3088
sg91
I00
sg92
I00
sg93
I00
ssg94
I00
sg95
g3077
sg96
I256
sg97
g3078
sg98
g3079
sg99
I00
sg100
I16
sg101
I00
sg102
I-18000
sg103
I67446
sg104
g68
sg105
I0
sg106
g68
sg107
g3081
sg108
g3082
sg109
I00
sg110
I00
sg111
g3080
sg112
g3083
sg113
g3084
sg114
g3085
sg115
I00
sg116
I00
sg117
I0
sg118
g3086
sg119
Nsg120
g121
(S'\x07\xde\x02\x0f\x054\x1c\x00\x00\x00'
p3089
tp3090
Rp3091
sg125
g3076
sg126
g3088
sg127
I00
sg128
I00
sg129
I00
sbsg130
Nsg29
L661431623968292864L
sg131
I6
sg132
VIWCE
p3092
sg114
Ven
p3093
sg135
g3068
sg120
g121
(S'\x07\xdf\x0b\x03\x06$\x02\x00\x00\x00'
p3094
tp3095
Rp3096
sg39
(dp3097
g140
Nsg141
I00
sg142
g3065
sg143
I00
sg144
Nsg45
L661431623968292864L
sg145
I6
sg146
V<a href="http://investwithconf.blogspot.com" rel="nofollow">IWCE</a>
p3098
sg148
I00
sg149
Nsg53
(dp3099
g151
(lp3100
(dp3101
g154
(lp3102
I0
aI5
asg142
VSGBK
p3103
sasg157
(lp3104
sg159
(lp3105
sg35
(lp3106
(dp3107
g86
Vhttps://t.co/ozLY6MYUsJ
p3108
sg154
(lp3109
I90
aI113
asg165
Vhttp://manyratings.com/SGBK
p3110
sg167
Vmanyratings.com/SGBK
p3111
sasg838
(lp3112
(dp3113
g165
Vhttp://twitter.com/InvestWithConf/status/661431623968292864/photo/1
p3114
sg167
Vpic.twitter.com/ldKD4SpyhS
p3115
sg86
Vhttps://t.co/ldKD4SpyhS
p3116
sg844
Vhttps://pbs.twimg.com/media/CS3gjpRWwAEg2tr.jpg
p3117
sg57
V661431623272022017
p3118
sg847
(dp3119
g849
(dp3120
g851
I4
sg852
Vfit
p3121
sg854
I4
ssg855
(dp3122
g851
I4
sg852
Vfit
p3123
sg854
I4
ssg858
(dp3124
g851
I4
sg852
Vfit
p3125
sg854
I4
ssg861
(dp3126
g851
I4
sg852
Vcrop
p3127
sg854
I4
sssg154
(lp3128
I114
aI137
asg865
Vphoto
p3129
sg45
L661431623272022017L
sg867
Vhttp://pbs.twimg.com/media/CS3gjpRWwAEg2tr.jpg
p3130
sassg169
Nsg170
Nsg171
I13
sg57
V661431623968292864
p3131
sg173
I00
sg174
g3075
sg175
Nsg176
Nsg177
I00
sg79
g3093
sg87
VTue Nov 03 06:36:02 +0000 2015
p3132
sg179
Nsg180
Nsg181
(dp3133
g183
Ven
p3134
sg185
Vrecent
p3135
sssg187
g3133
sg188
Nsg189
Nsg31
g3099
sg190
Nsg191
Nsg98
g3131
sg192
I00
sg193
Nsg194
I13
sg195
Nsbsg135
g3022
sg120
g121
(S'\x07\xdf\x0b\x05\x06\x00\x10\x00\x00\x00'
p3136
tp3137
Rp3138
sg39
(dp3139
g140
Nsg141
I00
sg142
g3019
sg143
I00
sg144
Nsg45
L662147396407705600L
sg145
I0
sg146
V<a href="http://twitter.com" rel="nofollow">Twitter Web Client</a>
p3140
sg148
I00
sg149
Nsg53
(dp3141
g151
(lp3142
(dp3143
g154
(lp3144
I20
aI25
asg142
VSGBK
p3145
sasg157
(lp3146
(dp3147
g45
L2344623210L
sg154
(lp3148
I3
aI18
asg57
V2344623210
p3149
sg77
VInvestWithConf
p3150
sg83
VInvestWithConf
p3151
sasg159
(lp3152
sg35
(lp3153
(dp3154
g86
Vhttps://t.co/ozLY6MYUsJ
p3155
sg154
(lp3156
I110
aI133
asg165
Vhttp://manyratings.com/SGBK
p3157
sg167
Vmanyratings.com/SGBK
p3158
sasg838
(lp3159
(dp3160
g899
L2344623210L
sg900
V661431623968292864
p3161
sg165
Vhttp://twitter.com/InvestWithConf/status/661431623968292864/photo/1
p3162
sg167
Vpic.twitter.com/ldKD4SpyhS
p3163
sg86
Vhttps://t.co/ldKD4SpyhS
p3164
sg844
Vhttps://pbs.twimg.com/media/CS3gjpRWwAEg2tr.jpg
p3165
sg906
V2344623210
p3166
sg908
L661431623968292864L
sg57
V661431623272022017
p3167
sg847
(dp3168
g849
(dp3169
g851
I4
sg852
Vfit
p3170
sg854
I4
ssg855
(dp3171
g851
I4
sg852
Vfit
p3172
sg854
I4
ssg858
(dp3173
g851
I4
sg852
Vfit
p3174
sg854
I4
ssg861
(dp3175
g851
I4
sg852
Vcrop
p3176
sg854
I4
sssg154
(lp3177
I139
aI140
asg865
Vphoto
p3178
sg45
L661431623272022017L
sg867
Vhttp://pbs.twimg.com/media/CS3gjpRWwAEg2tr.jpg
p3179
sassg169
Nsg170
Nsg171
I13
sg57
V662147396407705600
p3180
sg173
I00
sg923
g3097
sg174
g3041
sg175
Nsg176
Nsg177
I00
sg79
g3061
sg87
VThu Nov 05 06:00:16 +0000 2015
p3181
sg179
Nsg180
Nsg181
(dp3182
g183
Ven
p3183
sg185
Vrecent
p3184
sssg187
g3182
sg188
Nsg189
Nsg31
g3141
sg190
Nsg191
Nsg98
g3180
sg192
I00
sg193
Nsg194
I13
sg195
Nsbag0
(g4
g5
Ntp3185
Rp3186
(dp3187
g9
I00
sg10
Nsg11
I00
sg12
VRT @InvestWithConf: $SGBK is rated BUY, 10.8% upside by Wall Street analysts based on average ratings/targets https://t.co/ozLY6MYUsJ https\u2026
p3188
sg14
Vhttp://twitter.com
p3189
sg16
I00
sg17
I00
sg18
Nsg19
g0
(g20
g5
Ntp3190
Rp3191
(dp3192
g24
I00
sg25
I00
sg26
I00
sg27
V000000
p3193
sg29
L3904881314L
sg30
I00
sg31
(dp3194
g86
(dp3195
g35
(lp3196
(dp3197
g86
Vhttp://t.co/xcHN3sR6Ie
p3198
sg154
(lp3199
I0
aI22
asg165
Vhttp://goo.gl/Lc73jz
p3200
sg167
Vgoo.gl/Lc73jz
p3201
sassg33
(dp3202
g35
(lp3203
(dp3204
g86
Vhttp://t.co/xcHN3sR6Ie
p3205
sg154
(lp3206
I97
aI119
asg165
Vhttp://goo.gl/Lc73jz
p3207
sg167
Vgoo.gl/Lc73jz
p3208
sasssg37
Vhttps://pbs.twimg.com/profile_images/654707876506656768/ZHmzGhPD_normal.jpg
p3209
sg39
(dp3210
g41
I00
sg42
I00
sg43
I00
sg44
I00
sg45
L3904881314L
sg46
Vhttps://abs.twimg.com/images/themes/theme1/bg.png
p3211
sg48
I00
sg49
V000000
p3212
sg51
g3209
sg52
g3193
sg53
g3194
sg54
I71
sg55
V000000
p3213
sg57
V3904881314
p3214
sg59
V000000
p3215
sg61
I4
sg62
I00
sg63
Nsg64
I348
sg33
V#BizTips #B2b #Realestate Investor and Social Media Guru! Learn how to get 100k Followers easily http://t.co/xcHN3sR6Ie
p3216
sg66
I612
sg67
VMichigan, USA
p3217
sg69
V94D487
p3218
sg71
Vhttp://pbs.twimg.com/profile_images/654707876506656768/ZHmzGhPD_normal.jpg
p3219
sg73
I00
sg74
I00
sg75
Vhttp://abs.twimg.com/images/themes/theme1/bg.png
p3220
sg77
VEdmundStephenss
p3221
sg79
Ven
p3222
sg81
I00
sg82
I251
sg83
VEdmundStephens
p3223
sg85
I00
sg86
Vhttp://t.co/xcHN3sR6Ie
p3224
sg87
VThu Oct 15 17:17:15 +0000 2015
p3225
sg89
I00
sg90
Nsg91
I00
sg92
I00
sg93
I00
ssg94
I00
sg95
g3212
sg96
I71
sg97
g3213
sg98
g3214
sg99
I00
sg100
I4
sg101
I00
sg102
Nsg103
I348
sg104
g3216
sg105
I612
sg106
g3217
sg107
g3218
sg108
g3219
sg109
I00
sg110
I00
sg111
g3215
sg112
g3220
sg113
g3221
sg114
g3222
sg115
I00
sg116
I00
sg117
I251
sg118
g3223
sg119
g3224
sg120
g121
(S'\x07\xdf\n\x0f\x11\x11\x0f\x00\x00\x00'
p3226
tp3227
Rp3228
sg125
g3211
sg126
Nsg127
I00
sg128
I00
sg129
I00
sbsg130
Nsg29
L662137585280483328L
sg131
I0
sg132
VTwitter Web Client
p3229
sg114
Ven
p3230
sg787
g0
(g4
g5
Ntp3231
Rp3232
(dp3233
g9
I00
sg10
Nsg11
I00
sg12
V$SGBK is rated BUY, 10.8% upside by Wall Street analysts based on average ratings/targets https://t.co/ozLY6MYUsJ https://t.co/ldKD4SpyhS
p3234
sg14
Vhttp://investwithconf.blogspot.com
p3235
sg16
I00
sg17
I00
sg18
Nsg19
g0
(g20
g5
Ntp3236
Rp3237
(dp3238
g24
I00
sg25
I00
sg26
I01
sg27
VF6FFD1
p3239
sg29
L2344623210L
sg30
I00
sg31
(dp3240
g33
(dp3241
g35
(lp3242
sssg37
Vhttps://pbs.twimg.com/profile_images/597618707721035778/xao5eh5P_normal.jpg
p3243
sg39
(dp3244
g41
I00
sg42
I00
sg43
I01
sg44
I00
sg45
L2344623210L
sg46
Vhttps://abs.twimg.com/images/themes/theme19/bg.gif
p3245
sg48
I00
sg49
V333333
p3246
sg51
g3243
sg52
g3239
sg53
g3240
sg54
I256
sg55
VFFF8AD
p3247
sg57
V2344623210
p3248
sg59
VFFF04D
p3249
sg61
I16
sg62
I00
sg63
I-18000
sg64
I67446
sg33
g68
sg66
I0
sg67
g68
sg69
V0099CC
p3250
sg71
Vhttp://pbs.twimg.com/profile_images/597618707721035778/xao5eh5P_normal.jpg
p3251
sg73
I00
sg74
I00
sg75
Vhttp://abs.twimg.com/images/themes/theme19/bg.gif
p3252
sg77
VInvestWithConf
p3253
sg79
Ven
p3254
sg81
I00
sg82
I0
sg83
VInvestWithConf
p3255
sg85
I00
sg86
Nsg87
VSat Feb 15 05:52:28 +0000 2014
p3256
sg89
I00
sg90
VEastern Time (US & Canada)
p3257
sg91
I00
sg92
I00
sg93
I00
ssg94
I00
sg95
g3246
sg96
I256
sg97
g3247
sg98
g3248
sg99
I00
sg100
I16
sg101
I00
sg102
I-18000
sg103
I67446
sg104
g68
sg105
I0
sg106
g68
sg107
g3250
sg108
g3251
sg109
I00
sg110
I00
sg111
g3249
sg112
g3252
sg113
g3253
sg114
g3254
sg115
I00
sg116
I00
sg117
I0
sg118
g3255
sg119
Nsg120
g121
(S'\x07\xde\x02\x0f\x054\x1c\x00\x00\x00'
p3258
tp3259
Rp3260
sg125
g3245
sg126
g3257
sg127
I00
sg128
I00
sg129
I00
sbsg130
Nsg29
L661431623968292864L
sg131
I6
sg132
VIWCE
p3261
sg114
Ven
p3262
sg135
g3237
sg120
g121
(S'\x07\xdf\x0b\x03\x06$\x02\x00\x00\x00'
p3263
tp3264
Rp3265
sg39
(dp3266
g140
Nsg141
I00
sg142
g3234
sg143
I00
sg144
Nsg45
L661431623968292864L
sg145
I6
sg146
V<a href="http://investwithconf.blogspot.com" rel="nofollow">IWCE</a>
p3267
sg148
I00
sg149
Nsg53
(dp3268
g151
(lp3269
(dp3270
g154
(lp3271
I0
aI5
asg142
VSGBK
p3272
sasg157
(lp3273
sg159
(lp3274
sg35
(lp3275
(dp3276
g86
Vhttps://t.co/ozLY6MYUsJ
p3277
sg154
(lp3278
I90
aI113
asg165
Vhttp://manyratings.com/SGBK
p3279
sg167
Vmanyratings.com/SGBK
p3280
sasg838
(lp3281
(dp3282
g165
Vhttp://twitter.com/InvestWithConf/status/661431623968292864/photo/1
p3283
sg167
Vpic.twitter.com/ldKD4SpyhS
p3284
sg86
Vhttps://t.co/ldKD4SpyhS
p3285
sg844
Vhttps://pbs.twimg.com/media/CS3gjpRWwAEg2tr.jpg
p3286
sg57
V661431623272022017
p3287
sg847
(dp3288
g849
(dp3289
g851
I4
sg852
Vfit
p3290
sg854
I4
ssg855
(dp3291
g851
I4
sg852
Vfit
p3292
sg854
I4
ssg858
(dp3293
g851
I4
sg852
Vfit
p3294
sg854
I4
ssg861
(dp3295
g851
I4
sg852
Vcrop
p3296
sg854
I4
sssg154
(lp3297
I114
aI137
asg865
Vphoto
p3298
sg45
L661431623272022017L
sg867
Vhttp://pbs.twimg.com/media/CS3gjpRWwAEg2tr.jpg
p3299
sassg169
Nsg170
Nsg171
I13
sg57
V661431623968292864
p3300
sg173
I00
sg174
g3244
sg175
Nsg176
Nsg177
I00
sg79
g3262
sg87
VTue Nov 03 06:36:02 +0000 2015
p3301
sg179
Nsg180
Nsg181
(dp3302
g183
Ven
p3303
sg185
Vrecent
p3304
sssg187
g3302
sg188
Nsg189
Nsg31
g3268
sg190
Nsg191
Nsg98
g3300
sg192
I00
sg193
Nsg194
I13
sg195
Nsbsg135
g3191
sg120
g121
(S'\x07\xdf\x0b\x05\x05\x15\x10\x00\x00\x00'
p3305
tp3306
Rp3307
sg39
(dp3308
g140
Nsg141
I00
sg142
g3188
sg143
I00
sg144
Nsg45
L662137585280483328L
sg145
I0
sg146
V<a href="http://twitter.com" rel="nofollow">Twitter Web Client</a>
p3309
sg148
I00
sg149
Nsg53
(dp3310
g151
(lp3311
(dp3312
g154
(lp3313
I20
aI25
asg142
VSGBK
p3314
sasg157
(lp3315
(dp3316
g45
L2344623210L
sg154
(lp3317
I3
aI18
asg57
V2344623210
p3318
sg77
VInvestWithConf
p3319
sg83
VInvestWithConf
p3320
sasg159
(lp3321
sg35
(lp3322
(dp3323
g86
Vhttps://t.co/ozLY6MYUsJ
p3324
sg154
(lp3325
I110
aI133
asg165
Vhttp://manyratings.com/SGBK
p3326
sg167
Vmanyratings.com/SGBK
p3327
sasg838
(lp3328
(dp3329
g899
L2344623210L
sg900
V661431623968292864
p3330
sg165
Vhttp://twitter.com/InvestWithConf/status/661431623968292864/photo/1
p3331
sg167
Vpic.twitter.com/ldKD4SpyhS
p3332
sg86
Vhttps://t.co/ldKD4SpyhS
p3333
sg844
Vhttps://pbs.twimg.com/media/CS3gjpRWwAEg2tr.jpg
p3334
sg906
V2344623210
p3335
sg908
L661431623968292864L
sg57
V661431623272022017
p3336
sg847
(dp3337
g849
(dp3338
g851
I4
sg852
Vfit
p3339
sg854
I4
ssg855
(dp3340
g851
I4
sg852
Vfit
p3341
sg854
I4
ssg858
(dp3342
g851
I4
sg852
Vfit
p3343
sg854
I4
ssg861
(dp3344
g851
I4
sg852
Vcrop
p3345
sg854
I4
sssg154
(lp3346
I139
aI140
asg865
Vphoto
p3347
sg45
L661431623272022017L
sg867
Vhttp://pbs.twimg.com/media/CS3gjpRWwAEg2tr.jpg
p3348
sassg169
Nsg170
Nsg171
I13
sg57
V662137585280483328
p3349
sg173
I00
sg923
g3266
sg174
g3210
sg175
Nsg176
Nsg177
I00
sg79
g3230
sg87
VThu Nov 05 05:21:16 +0000 2015
p3350
sg179
Nsg180
Nsg181
(dp3351
g183
Ven
p3352
sg185
Vrecent
p3353
sssg187
g3351
sg188
Nsg189
Nsg31
g3310
sg190
Nsg191
Nsg98
g3349
sg192
I00
sg193
Nsg194
I13
sg195
Nsbag0
(g4
g5
Ntp3354
Rp3355
(dp3356
g9
I00
sg10
Nsg11
I00
sg12
VImp catalysts 4 MEIP &amp; CALA in d cmg week Here is DD 4 investors:https://t.co/lwSyWTxOEB $SGAR $SGB $SGBK $SGC $SGDJ $SGDM $SGEN $SGF
p3357
sg14
Vhttp://twittimer.com
p3358
sg16
I00
sg17
I00
sg18
Nsg19
g0
(g20
g5
Ntp3359
Rp3360
(dp3361
g24
I00
sg25
I01
sg26
I00
sg27
V000000
p3362
sg29
L3518191635L
sg30
I00
sg31
(dp3363
g86
(dp3364
g35
(lp3365
(dp3366
g86
Vhttps://t.co/ot2Kl5nyub
p3367
sg154
(lp3368
I0
aI23
asg165
Vhttps://groups.google.com/forum/#!forum/jbem777
p3369
sg167
Vgroups.google.com/forum/#!forum/\u2026
p3370
sassg33
(dp3371
g35
(lp3372
sssg37
Vhttps://pbs.twimg.com/profile_images/638885869433196544/C975RWXJ_normal.jpg
p3373
sg39
(dp3374
g41
I00
sg42
I01
sg43
I00
sg44
I00
sg45
L3518191635L
sg46
Vhttps://abs.twimg.com/images/themes/theme1/bg.png
p3375
sg48
I00
sg49
V000000
p3376
sg51
g3373
sg52
g3362
sg53
g3363
sg54
I28
sg55
V000000
p3377
sg57
V3518191635
p3378
sg59
V000000
p3379
sg61
I1
sg62
I00
sg63
I-28800
sg64
I1505
sg33
VHealthcare Stocks
p3380
sg66
I25
sg67
g68
sg69
V89C9FA
p3381
sg71
Vhttp://pbs.twimg.com/profile_images/638885869433196544/C975RWXJ_normal.jpg
p3382
sg73
I00
sg74
I00
sg75
Vhttp://abs.twimg.com/images/themes/theme1/bg.png
p3383
sg77
Vjbemstocks
p3384
sg79
Ven
p3385
sg81
I00
sg82
I0
sg83
VDUE DILIGENCE
p3386
sg85
I00
sg86
Vhttps://t.co/ot2Kl5nyub
p3387
sg87
VWed Sep 02 01:23:46 +0000 2015
p3388
sg89
I00
sg90
VPacific Time (US & Canada)
p3389
sg91
I00
sg92
I00
sg93
I00
ssg94
I00
sg95
g3376
sg96
I28
sg97
g3377
sg98
g3378
sg99
I00
sg100
I1
sg101
I00
sg102
I-28800
sg103
I1505
sg104
g3380
sg105
I25
sg106
g68
sg107
g3381
sg108
g3382
sg109
I00
sg110
I00
sg111
g3379
sg112
g3383
sg113
g3384
sg114
g3385
sg115
I00
sg116
I00
sg117
I0
sg118
g3386
sg119
g3387
sg120
g121
(S'\x07\xdf\t\x02\x01\x17.\x00\x00\x00'
p3390
tp3391
Rp3392
sg125
g3375
sg126
g3389
sg127
I00
sg128
I00
sg129
I00
sbsg130
Nsg29
L661916063974621184L
sg131
I0
sg132
VTwittimer
p3393
sg114
Vin
p3394
sg135
g3360
sg120
g121
(S'\x07\xdf\x0b\x04\x0e)\x02\x00\x00\x00'
p3395
tp3396
Rp3397
sg39
(dp3398
g140
Nsg141
I00
sg142
g3357
sg143
I00
sg144
Nsg45
L661916063974621184L
sg145
I0
sg146
V<a href="http://twittimer.com" rel="nofollow">Twittimer</a>
p3399
sg148
I00
sg149
Nsg53
(dp3400
g151
(lp3401
(dp3402
g154
(lp3403
I93
aI98
asg142
VSGAR
p3404
sa(dp3405
g154
(lp3406
I99
aI103
asg142
VSGB
p3407
sa(dp3408
g154
(lp3409
I104
aI109
asg142
VSGBK
p3410
sa(dp3411
g154
(lp3412
I110
aI114
asg142
VSGC
p3413
sa(dp3414
g154
(lp3415
I115
aI120
asg142
VSGDJ
p3416
sa(dp3417
g154
(lp3418
I121
aI126
asg142
VSGDM
p3419
sa(dp3420
g154
(lp3421
I127
aI132
asg142
VSGEN
p3422
sa(dp3423
g154
(lp3424
I133
aI137
asg142
VSGF
p3425
sasg157
(lp3426
sg159
(lp3427
sg35
(lp3428
(dp3429
g86
Vhttps://t.co/lwSyWTxOEB
p3430
sg154
(lp3431
I69
aI92
asg165
Vhttp://bit.ly/1KjZ8cR
p3432
sg167
Vbit.ly/1KjZ8cR
p3433
sassg169
Nsg170
Nsg171
I0
sg57
V661916063974621184
p3434
sg173
I00
sg174
g3374
sg175
Nsg176
Nsg177
I00
sg79
g3394
sg87
VWed Nov 04 14:41:02 +0000 2015
p3435
sg179
Nsg180
Nsg181
(dp3436
g183
Vin
p3437
sg185
Vrecent
p3438
sssg187
g3436
sg188
Nsg189
Nsg31
g3400
sg190
Nsg191
Nsg98
g3434
sg192
I00
sg193
Nsg194
I0
sg195
Nsbag0
(g4
g5
Ntp3439
Rp3440
(dp3441
g9
I00
sg10
Nsg11
I00
sg12
V$F $SGBK:\u000a\u000aMarket Movers: Ford Motor Company (NYSE:F), Bank of America \u2026:\u000a\u000ahttps://t.co/D3cN6SPAe4
p3442
sg14
Vhttp://www.newsflowing.com
p3443
sg16
I00
sg17
I00
sg18
Nsg19
g0
(g20
g5
Ntp3444
Rp3445
(dp3446
g24
I00
sg25
I00
sg26
I01
sg27
VE6F6F9
p3447
sg29
L2342215530L
sg30
I00
sg31
(dp3448
g33
(dp3449
g35
(lp3450
sssg37
Vhttps://pbs.twimg.com/profile_images/544036492876591104/7QJIB-XK_normal.jpeg
p3451
sg39
(dp3452
g41
I00
sg42
I00
sg43
I01
sg44
I00
sg45
L2342215530L
sg46
Vhttps://abs.twimg.com/images/themes/theme17/bg.gif
p3453
sg48
I00
sg49
V333333
p3454
sg51
g3451
sg52
g3447
sg53
g3448
sg54
I465
sg55
VDBE9ED
p3455
sg57
V2342215530
p3456
sg59
VDBE9ED
p3457
sg61
I89
sg62
I00
sg63
I-14400
sg64
I193000
sg33
g68
sg66
I0
sg67
g68
sg69
VCC3366
p3458
sg71
Vhttp://pbs.twimg.com/profile_images/544036492876591104/7QJIB-XK_normal.jpeg
p3459
sg73
I00
sg74
I00
sg75
Vhttp://abs.twimg.com/images/themes/theme17/bg.gif
p3460
sg77
Vnewswithvalue
p3461
sg79
Ven
p3462
sg81
I00
sg82
I0
sg83
VBreaking News Now
p3463
sg85
I00
sg86
Nsg87
VThu Feb 13 16:14:12 +0000 2014
p3464
sg89
I00
sg90
VAtlantic Time (Canada)
p3465
sg91
I00
sg92
I00
sg93
I00
ssg94
I00
sg95
g3454
sg96
I465
sg97
g3455
sg98
g3456
sg99
I00
sg100
I89
sg101
I00
sg102
I-14400
sg103
I193000
sg104
g68
sg105
I0
sg106
g68
sg107
g3458
sg108
g3459
sg109
I00
sg110
I00
sg111
g3457
sg112
g3460
sg113
g3461
sg114
g3462
sg115
I00
sg116
I00
sg117
I0
sg118
g3463
sg119
Nsg120
g121
(S'\x07\xde\x02\r\x10\x0e\x0c\x00\x00\x00'
p3466
tp3467
Rp3468
sg125
g3453
sg126
g3465
sg127
I00
sg128
I00
sg129
I00
sbsg130
Nsg29
L661903777188995072L
sg131
I0
sg132
VNFIG
p3469
sg114
Ven
p3470
sg135
g3445
sg120
g121
(S'\x07\xdf\x0b\x04\r4\x0c\x00\x00\x00'
p3471
tp3472
Rp3473
sg39
(dp3474
g140
Nsg141
I00
sg142
V$F $SGBK:\u000a\u000aMarket Movers: Ford Motor Company (NYSE:F), Bank of America \u2026:\u000a\u000ahttps://t.co/D3cN6SPAe4
p3475
sg143
I00
sg144
Nsg45
L661903777188995072L
sg145
I0
sg146
V<a href="http://www.newsflowing.com" rel="nofollow">NFIG</a>
p3476
sg148
I00
sg149
Nsg53
(dp3477
g151
(lp3478
(dp3479
g154
(lp3480
I0
aI2
asg142
VF
p3481
sa(dp3482
g154
(lp3483
I3
aI8
asg142
VSGBK
p3484
sasg157
(lp3485
sg159
(lp3486
sg35
(lp3487
(dp3488
g86
Vhttps://t.co/D3cN6SPAe4
p3489
sg154
(lp3490
I75
aI98
asg165
Vhttp://StockNewsHour.com/f-sgbk-market-movers-ford-motor-company-nysef-bank-of-america/
p3491
sg167
VStockNewsHour.com/f-sgbk-market-\u2026
p3492
sassg169
Nsg170
Nsg171
I0
sg57
V661903777188995072
p3493
sg173
I00
sg174
g3452
sg175
Nsg176
Nsg177
I00
sg79
g3470
sg87
VWed Nov 04 13:52:12 +0000 2015
p3494
sg179
Nsg180
Nsg181
(dp3495
g183
Ven
p3496
sg185
Vrecent
p3497
sssg187
g3495
sg188
Nsg189
Nsg31
g3477
sg190
Nsg191
Nsg98
g3493
sg192
I00
sg193
Nsg194
I0
sg195
Nsbag0
(g4
g5
Ntp3498
Rp3499
(dp3500
g9
I00
sg10
Nsg11
I00
sg12
V$SGBK is rated BUY, 10.8% upside by Wall Street analysts based on average ratings/targets https://t.co/ozLY6MYUsJ https://t.co/ldKD4SpyhS
p3501
sg14
Vhttp://investwithconf.blogspot.com
p3502
sg16
I00
sg17
I00
sg18
Nsg19
g0
(g20
g5
Ntp3503
Rp3504
(dp3505
g24
I00
sg25
I00
sg26
I01
sg27
VF6FFD1
p3506
sg29
L2344623210L
sg30
I00
sg31
(dp3507
g33
(dp3508
g35
(lp3509
sssg37
Vhttps://pbs.twimg.com/profile_images/597618707721035778/xao5eh5P_normal.jpg
p3510
sg39
(dp3511
g41
I00
sg42
I00
sg43
I01
sg44
I00
sg45
L2344623210L
sg46
Vhttps://abs.twimg.com/images/themes/theme19/bg.gif
p3512
sg48
I00
sg49
V333333
p3513
sg51
g3510
sg52
g3506
sg53
g3507
sg54
I256
sg55
VFFF8AD
p3514
sg57
V2344623210
p3515
sg59
VFFF04D
p3516
sg61
I16
sg62
I00
sg63
I-18000
sg64
I67446
sg33
g68
sg66
I0
sg67
g68
sg69
V0099CC
p3517
sg71
Vhttp://pbs.twimg.com/profile_images/597618707721035778/xao5eh5P_normal.jpg
p3518
sg73
I00
sg74
I00
sg75
Vhttp://abs.twimg.com/images/themes/theme19/bg.gif
p3519
sg77
VInvestWithConf
p3520
sg79
Ven
p3521
sg81
I00
sg82
I0
sg83
VInvestWithConf
p3522
sg85
I00
sg86
Nsg87
VSat Feb 15 05:52:28 +0000 2014
p3523
sg89
I00
sg90
VEastern Time (US & Canada)
p3524
sg91
I00
sg92
I00
sg93
I00
ssg94
I00
sg95
g3513
sg96
I256
sg97
g3514
sg98
g3515
sg99
I00
sg100
I16
sg101
I00
sg102
I-18000
sg103
I67446
sg104
g68
sg105
I0
sg106
g68
sg107
g3517
sg108
g3518
sg109
I00
sg110
I00
sg111
g3516
sg112
g3519
sg113
g3520
sg114
g3521
sg115
I00
sg116
I00
sg117
I0
sg118
g3522
sg119
Nsg120
g121
(S'\x07\xde\x02\x0f\x054\x1c\x00\x00\x00'
p3525
tp3526
Rp3527
sg125
g3512
sg126
g3524
sg127
I00
sg128
I00
sg129
I00
sbsg130
Nsg29
L661431623968292864L
sg131
I6
sg132
VIWCE
p3528
sg114
Ven
p3529
sg135
g3504
sg120
g121
(S'\x07\xdf\x0b\x03\x06$\x02\x00\x00\x00'
p3530
tp3531
Rp3532
sg39
(dp3533
g140
Nsg141
I00
sg142
g3501
sg143
I00
sg144
Nsg45
L661431623968292864L
sg145
I6
sg146
V<a href="http://investwithconf.blogspot.com" rel="nofollow">IWCE</a>
p3534
sg148
I00
sg149
Nsg53
(dp3535
g151
(lp3536
(dp3537
g154
(lp3538
I0
aI5
asg142
VSGBK
p3539
sasg157
(lp3540
sg159
(lp3541
sg35
(lp3542
(dp3543
g86
Vhttps://t.co/ozLY6MYUsJ
p3544
sg154
(lp3545
I90
aI113
asg165
Vhttp://manyratings.com/SGBK
p3546
sg167
Vmanyratings.com/SGBK
p3547
sasg838
(lp3548
(dp3549
g165
Vhttp://twitter.com/InvestWithConf/status/661431623968292864/photo/1
p3550
sg167
Vpic.twitter.com/ldKD4SpyhS
p3551
sg86
Vhttps://t.co/ldKD4SpyhS
p3552
sg844
Vhttps://pbs.twimg.com/media/CS3gjpRWwAEg2tr.jpg
p3553
sg57
V661431623272022017
p3554
sg847
(dp3555
g849
(dp3556
g851
I4
sg852
Vfit
p3557
sg854
I4
ssg855
(dp3558
g851
I4
sg852
Vfit
p3559
sg854
I4
ssg858
(dp3560
g851
I4
sg852
Vfit
p3561
sg854
I4
ssg861
(dp3562
g851
I4
sg852
Vcrop
p3563
sg854
I4
sssg154
(lp3564
I114
aI137
asg865
Vphoto
p3565
sg45
L661431623272022017L
sg867
Vhttp://pbs.twimg.com/media/CS3gjpRWwAEg2tr.jpg
p3566
sassg169
Nsg170
Nsg171
I13
sg57
V661431623968292864
p3567
sg173
I00
sg174
g3511
sg175
Nsg176
Nsg177
I00
sg79
g3529
sg87
VTue Nov 03 06:36:02 +0000 2015
p3568
sg179
Nsg180
Nsg181
(dp3569
g183
Ven
p3570
sg185
Vrecent
p3571
sssg187
g3569
sg188
Nsg189
Nsg31
g3535
sg190
Nsg191
Nsg98
g3567
sg192
I00
sg193
Nsg194
I13
sg195
Nsbag0
(g4
g5
Ntp3572
Rp3573
(dp3574
g9
I00
sg10
Nsg11
I00
sg12
V$SGBK:\u000a\u000aStonegate Bank Rating Increased to Buy at Zacks (SGBK):\u000a\u000ahttps://t.co/FK7jSkU7uk
p3575
sg14
Vhttp://www.stocknewswires.com
p3576
sg16
I00
sg17
I00
sg18
Nsg19
g0
(g20
g5
Ntp3577
Rp3578
(dp3579
g24
I00
sg25
I00
sg26
I01
sg27
VDAECF4
p3580
sg29
L2341445778L
sg30
I00
sg31
(dp3581
g33
(dp3582
g35
(lp3583
sssg37
Vhttps://pbs.twimg.com/profile_images/542238326397227008/UfZ0ulTf_normal.jpeg
p3584
sg39
(dp3585
g41
I00
sg42
I00
sg43
I01
sg44
I00
sg45
L2341445778L
sg46
Vhttps://abs.twimg.com/images/themes/theme2/bg.gif
p3586
sg48
I00
sg49
V663B12
p3587
sg51
g3584
sg52
g3580
sg53
g3581
sg54
I660
sg55
VC6E2EE
p3588
sg57
V2341445778
p3589
sg59
VC6E2EE
p3590
sg61
I107
sg62
I00
sg63
I-14400
sg64
I236872
sg33
VInvest like a fish
p3591
sg66
I9
sg67
VUnited States
p3592
sg69
V1F98C7
p3593
sg71
Vhttp://pbs.twimg.com/profile_images/542238326397227008/UfZ0ulTf_normal.jpeg
p3594
sg73
I00
sg74
I00
sg75
Vhttp://abs.twimg.com/images/themes/theme2/bg.gif
p3595
sg77
VStockNewsWires
p3596
sg79
Ven
p3597
sg81
I00
sg82
I0
sg83
VStockNewsWires
p3598
sg85
I00
sg86
Nsg87
VThu Feb 13 05:31:52 +0000 2014
p3599
sg89
I00
sg90
VAtlantic Time (Canada)
p3600
sg91
I00
sg92
I00
sg93
I00
ssg94
I00
sg95
g3587
sg96
I660
sg97
g3588
sg98
g3589
sg99
I00
sg100
I107
sg101
I00
sg102
I-14400
sg103
I236872
sg104
g3591
sg105
I9
sg106
g3592
sg107
g3593
sg108
g3594
sg109
I00
sg110
I00
sg111
g3590
sg112
g3595
sg113
g3596
sg114
g3597
sg115
I00
sg116
I00
sg117
I0
sg118
g3598
sg119
Nsg120
g121
(S'\x07\xde\x02\r\x05\x1f4\x00\x00\x00'
p3601
tp3602
Rp3603
sg125
g3586
sg126
g3600
sg127
I00
sg128
I00
sg129
I00
sbsg130
Nsg29
L661336496138551296L
sg131
I0
sg132
VStockNewsWires
p3604
sg114
Ven
p3605
sg135
g3578
sg120
g121
(S'\x07\xdf\x0b\x03\x00\x12\x02\x00\x00\x00'
p3606
tp3607
Rp3608
sg39
(dp3609
g140
Nsg141
I00
sg142
V$SGBK:\u000a\u000aStonegate Bank Rating Increased to Buy at Zacks (SGBK):\u000a\u000ahttps://t.co/FK7jSkU7uk
p3610
sg143
I00
sg144
Nsg45
L661336496138551296L
sg145
I0
sg146
V<a href="http://www.stocknewswires.com" rel="nofollow">StockNewsWires</a>
p3611
sg148
I00
sg149
Nsg53
(dp3612
g151
(lp3613
(dp3614
g154
(lp3615
I0
aI5
asg142
VSGBK
p3616
sasg157
(lp3617
sg159
(lp3618
sg35
(lp3619
(dp3620
g86
Vhttps://t.co/FK7jSkU7uk
p3621
sg154
(lp3622
I65
aI88
asg165
Vhttp://StockNewsHour.com/sgbk-stonegate-bank-rating-increased-to-buy-at-zacks-sgbk/
p3623
sg167
VStockNewsHour.com/sgbk-stonegate\u2026
p3624
sassg169
Nsg170
Nsg171
I0
sg57
V661336496138551296
p3625
sg173
I00
sg174
g3585
sg175
Nsg176
Nsg177
I00
sg79
g3605
sg87
VTue Nov 03 00:18:02 +0000 2015
p3626
sg179
Nsg180
Nsg181
(dp3627
g183
Ven
p3628
sg185
Vrecent
p3629
sssg187
g3627
sg188
Nsg189
Nsg31
g3612
sg190
Nsg191
Nsg98
g3625
sg192
I00
sg193
Nsg194
I0
sg195
Nsbag0
(g4
g5
Ntp3630
Rp3631
(dp3632
g9
I00
sg10
Nsg11
I00
sg12
VRanks #1 with over 80% in alert gains today. Click here https://t.co/9Vnnw3s1D8 .. $IKAN $SGBK $CPHC
p3633
sg14
Vhttp://socialadcenter.com
p3634
sg16
I00
sg17
I00
sg18
Nsg19
g0
(g20
g5
Ntp3635
Rp3636
(dp3637
g24
I00
sg25
I00
sg26
I01
sg27
VDDEEF6
p3638
sg29
L3261001351L
sg30
I00
sg31
(dp3639
g86
(dp3640
g35
(lp3641
(dp3642
g86
Vhttp://t.co/8dJZYrRhox
p3643
sg154
(lp3644
I0
aI22
asg165
Vhttp://pennystocksecret.com
p3645
sg167
Vpennystocksecret.com
p3646
sassg33
(dp3647
g35
(lp3648
(dp3649
g86
Vhttp://t.co/UWzH8kOOl9
p3650
sg154
(lp3651
I11
aI33
asg165
Vhttp://PennyStockSecret.com
p3652
sg167
VPennyStockSecret.com
p3653
sasssg37
Vhttps://pbs.twimg.com/profile_images/617517575241531392/vk4GKKpS_normal.jpg
p3654
sg39
(dp3655
g41
I00
sg42
I00
sg43
I01
sg44
I00
sg45
L3261001351L
sg46
Vhttps://abs.twimg.com/images/themes/theme1/bg.png
p3656
sg48
I00
sg49
V333333
p3657
sg51
g3654
sg52
g3638
sg53
g3639
sg54
I5237
sg55
VC0DEED
p3658
sg57
V3261001351
p3659
sg59
VC0DEED
p3660
sg61
I9
sg62
I00
sg63
I-28800
sg64
I17457
sg33
VSign up to http://t.co/UWzH8kOOl9  and get the premiere penny stock newsletter for free! make sure you subscribe today!
p3661
sg66
I12
sg67
VUnited States
p3662
sg69
V0084B4
p3663
sg71
Vhttp://pbs.twimg.com/profile_images/617517575241531392/vk4GKKpS_normal.jpg
p3664
sg73
I00
sg74
I00
sg696
Vhttps://pbs.twimg.com/profile_banners/3261001351/1436062750
p3665
sg75
Vhttp://abs.twimg.com/images/themes/theme1/bg.png
p3666
sg77
Vstockmaster101
p3667
sg79
Ven
p3668
sg81
I00
sg82
I0
sg83
VStockmaster101
p3669
sg85
I00
sg86
Vhttp://t.co/8dJZYrRhox
p3670
sg87
VTue Jun 30 07:41:17 +0000 2015
p3671
sg89
I00
sg90
VPacific Time (US & Canada)
p3672
sg91
I00
sg92
I01
sg93
I00
ssg94
I00
sg95
g3657
sg96
I5237
sg97
g3658
sg98
g3659
sg99
I00
sg100
I9
sg101
I00
sg102
I-28800
sg103
I17457
sg104
g3661
sg105
I12
sg106
g3662
sg107
g3663
sg108
g3664
sg109
I00
sg110
I00
sg111
g3660
sg705
g3665
sg112
g3666
sg113
g3667
sg114
g3668
sg115
I00
sg116
I00
sg117
I0
sg118
g3669
sg119
g3670
sg120
g121
(S'\x07\xdf\x06\x1e\x07)\x11\x00\x00\x00'
p3673
tp3674
Rp3675
sg125
g3656
sg126
g3672
sg127
I00
sg128
I01
sg129
I00
sbsg130
Nsg29
L661178015129272320L
sg131
I0
sg132
VSocial Ad Center
p3676
sg114
Ven
p3677
sg135
g3636
sg120
g121
(S'\x07\xdf\x0b\x02\r0\x11\x00\x00\x00'
p3678
tp3679
Rp3680
sg39
(dp3681
g140
Nsg141
I00
sg142
g3633
sg143
I00
sg144
Nsg45
L661178015129272320L
sg145
I0
sg146
V<a href="http://socialadcenter.com" rel="nofollow">Social Ad Center</a>
p3682
sg148
I00
sg149
Nsg53
(dp3683
g151
(lp3684
(dp3685
g154
(lp3686
I83
aI88
asg142
VIKAN
p3687
sa(dp3688
g154
(lp3689
I89
aI94
asg142
VSGBK
p3690
sa(dp3691
g154
(lp3692
I95
aI100
asg142
VCPHC
p3693
sasg157
(lp3694
sg159
(lp3695
sg35
(lp3696
(dp3697
g86
Vhttps://t.co/9Vnnw3s1D8
p3698
sg154
(lp3699
I56
aI79
asg165
Vhttp://PennyStockSecret.com
p3700
sg167
VPennyStockSecret.com
p3701
sassg169
Nsg170
Nsg171
I0
sg57
V661178015129272320
p3702
sg173
I00
sg174
g3655
sg175
Nsg176
Nsg177
I00
sg79
g3677
sg87
VMon Nov 02 13:48:17 +0000 2015
p3703
sg179
Nsg180
Nsg181
(dp3704
g183
Ven
p3705
sg185
Vrecent
p3706
sssg187
g3704
sg188
Nsg189
Nsg31
g3683
sg190
Nsg191
Nsg98
g3702
sg192
I00
sg193
Nsg194
I0
sg195
Nsbatp3707
Rp3708
(dp3709
S'count'
p3710
I100
sS'completed_in'
p3711
F0.044
sS'_since_id'
p3712
NsS'refresh_url'
p3713
V?since_id=664336944562835456&q=%24SGBK&include_entities=1
p3714
sS'query'
p3715
V%24SGBK
p3716
sS'_max_id'
p3717
NsS'next_results'
p3718
Nsb.