(dp0
S'overpriced'
p1
S'-1'
p2
sS'gold'
p3
S'1'
p4
sS'undervalued'
p5
g4
sS'ambition'
p6
g4
sS'cold'
p7
S'-1'
p8
sS'hate'
p9
S'-1'
p10
sS'poorly'
p11
S'-1'
p12
sS'profitable'
p13
g4
sS'upgrade'
p14
g4
sS'winner'
p15
g4
sS'hot'
p16
g4
sS'improvement'
p17
g4
sS'decreased'
p18
S'-1'
p19
sS'hope'
p20
g4
sS'good'
p21
g4
sS'risk'
p22
S'-1'
p23
sS'weakness'
p24
S'-1'
p25
sS'rise'
p26
g4
sS'disagreement'
p27
S'-1'
p28
sS'bear'
p29
S'-1'
p30
sS'upturn'
p31
g4
sS'worst'
p32
S'-1'
p33
sS'fall'
p34
S'-1'
p35
sS'awful'
p36
S'-1'
p37
sS'loss'
p38
S'-1'
p39
sS'like'
p40
g4
sS'success'
p41
g4
sS'outperform'
p42
g4
sS'drop'
p43
S'-1'
p44
sS'loser'
p45
S'-1'
p46
sS'pullback'
p47
S'-1'
p48
sS'bad'
p49
S'-1'
p50
sS'unstable'
p51
S'-1'
p52
sS'degrouth'
p53
S'-1'
p54
sS'decrease'
p55
S'-1'
p56
sS'higher'
p57
g4
sS'old'
p58
S'-1'
p59
sS'deal'
p60
g4
sS'unprofitable'
p61
S'-1'
p62
sS'jump'
p63
g4
sS'growth'
p64
g4
sS'fear'
p65
S'-1'
p66
sS'best'
p67
g4
sS'bullish'
p68
g4
sS'bottom'
p69
S'-1'
p70
sS'profit'
p71
g4
sS'bearish'
p72
S'-1'
p73
sS'increase'
p74
g4
sS'breakout'
p75
g4
sS'deficit'
p76
S'-1'
p77
sS'downturn'
p78
S'-1'
p79
sS'falling'
p80
S'-1'
p81
sS'boost'
p82
g4
sS'bought'
p83
g4
sS'comedown'
p84
S'-1'
p85
sS'weak'
p86
S'-1'
p87
sS'sold'
p88
S'-1'
p89
sS'notable'
p90
g4
sS'overvalued'
p91
S'-1'
p92
sS'expansion'
p93
g4
sS'sink'
p94
S'-1'
p95
sS'downgrade'
p96
S'-1'
p97
sS'dividend'
p98
g4
sS'strong'
p99
g4
sS'downgraded'
p100
S'-1'
p101
sS'great'
p102
g4
sS'backwards'
p103
S'-1'
p104
sS'launch'
p105
g4
sS'terrible'
p106
S'-1'
p107
sS'gainer'
p108
g4
sS'upgraded'
p109
g4
sS'raised'
p110
g4
sS'love'
p111
g4
sS'revenue'
p112
g4
sS'highly'
p113
g4
sS'down'
p114
S'-1'
p115
sS'put'
p116
S'-1'
p117
sS'rising'
p118
g4
sS'downside'
p119
S'-1'
p120
sS'downhill'
p121
S'-1'
p122
sS'decline'
p123
S'-1'
p124
sS'debt'
p125
S'-1'
p126
sS'sad'
p127
S'-1'
p128
sS'positive'
p129
g4
sS'top'
p130
g4
sS'negative'
p131
S'-1'
p132
sS'long'
p133
g4
sS'strategy'
p134
g4
sS'call'
p135
g4
sS'low'
p136
S'-1'
p137
sS'forward'
p138
g4
sS'breakthrough'
p139
g4
sS'happy'
p140
g4
sS'firm'
p141
g4
sS'buy'
p142
g4
sS'discourage'
p143
S'-1'
p144
sS'failure'
p145
S'-1'
p146
sS'gain'
p147
g4
sS'bull'
p148
g4
sS'expenses'
p149
S'-1'
p150
sS'buying'
p151
g4
sS'pull'
p152
S'-1'
p153
sS'solid'
p154
g4
sS'hike'
p155
g4
sS'up'
p156
g4
sS'recession'
p157
S'-1'
p158
sS'growing'
p159
g4
sS'flop'
p160
S'-1'
p161
sS'awesome'
p162
g4
sS'underachievement'
p163
S'-1'
p164
sS'high'
p165
g4
sS'selling'
p166
S'-1'
p167
sS'unlikely'
p168
S'-1'
p169
sS'vulnerable'
p170
S'-1'
p171
sS'increased'
p172
g4
sS'sell'
p173
S'-1'
p174
sS'strength'
p175
g4
sS'bankrupt'
p176
S'-1'
p177
sS'incredible'
p178
g4
sS'damage'
p179
S'-1'
p180
sS'amazing'
p181
g4
sS'potential'
p182
g4
sS'earnings'
p183
g4
sS'upside'
p184
g4
sS'nice'
p185
g4
sS'breakdown'
p186
S'-1'
p187
sS'badly'
p188
S'-1'
p189
sS'product'
p190
g4
sS'uptrend'
p191
g4
sS'downtrend'
p192
S'-1'
p193
sS'achievement'
p194
g4
sS'liability'
p195
S'-1'
p196
sS'lower'
p197
S'-1'
p198
sS'short'
p199
S'-1'
p200
sS'invest'
p201
g4
sS'failing'
p202
S'-1'
p203
sS'well'
p204
g4
sS'green'
p205
g4
sS'push'
p206
g4
s.