ccopy_reg
_reconstructor
p0
(ctweepy.models
SearchResults
p1
c__builtin__
list
p2
(lp3
g0
(ctweepy.models
Status
p4
c__builtin__
object
p5
Ntp6
Rp7
(dp8
S'favorited'
p9
I00
sS'contributors'
p10
NsS'truncated'
p11
I00
sS'text'
p12
V$CMCO:\u000a\u000aNew SEC Filing for CMCO: Form 8-K/A (No. 0001005229-15-000142):\u000a\u000ahttps://t.co/YULFJ1daBf
p13
sS'source_url'
p14
Vhttp://www.stocknewswires.com
p15
sS'possibly_sensitive'
p16
I00
sS'is_quote_status'
p17
I00
sS'in_reply_to_status_id'
p18
NsS'user'
p19
g0
(ctweepy.models
User
p20
g5
Ntp21
Rp22
(dp23
S'follow_request_sent'
p24
I00
sS'has_extended_profile'
p25
I00
sS'profile_use_background_image'
p26
I01
sS'profile_sidebar_fill_color'
p27
VE3E2DE
p28
sS'id'
p29
L2344619544L
sS'verified'
p30
I00
sS'entities'
p31
(dp32
Vdescription
p33
(dp34
Vurls
p35
(lp36
sssS'profile_image_url_https'
p37
Vhttps://pbs.twimg.com/profile_images/562292381764952064/mVtp0UmJ_normal.jpeg
p38
sS'_json'
p39
(dp40
Vfollow_request_sent
p41
I00
sVhas_extended_profile
p42
I00
sVprofile_use_background_image
p43
I01
sVdefault_profile_image
p44
I00
sVid
p45
L2344619544L
sVprofile_background_image_url_https
p46
Vhttps://abs.twimg.com/images/themes/theme3/bg.gif
p47
sVverified
p48
I00
sVprofile_text_color
p49
V634047
p50
sVprofile_image_url_https
p51
g38
sVprofile_sidebar_fill_color
p52
g28
sVentities
p53
g32
sVfollowers_count
p54
I516
sVprofile_sidebar_border_color
p55
VD3D2CF
p56
sVid_str
p57
V2344619544
p58
sVprofile_background_color
p59
VEDECE9
p60
sVlisted_count
p61
I85
sVis_translation_enabled
p62
I01
sVutc_offset
p63
I-18000
sVstatuses_count
p64
I182019
sg33
VNews about Stocks
p65
sVfriends_count
p66
I0
sVlocation
p67
VU.S.
p68
sVprofile_link_color
p69
V088253
p70
sVprofile_image_url
p71
Vhttp://pbs.twimg.com/profile_images/562292381764952064/mVtp0UmJ_normal.jpeg
p72
sVfollowing
p73
I00
sVgeo_enabled
p74
I00
sVprofile_background_image_url
p75
Vhttp://abs.twimg.com/images/themes/theme3/bg.gif
p76
sVscreen_name
p77
VNewsToDesk
p78
sVlang
p79
Ven
p80
sVprofile_background_tile
p81
I00
sVfavourites_count
p82
I0
sVname
p83
VBreakingStocksNews
p84
sVnotifications
p85
I00
sVurl
p86
NsVcreated_at
p87
VSat Feb 15 05:49:10 +0000 2014
p88
sVcontributors_enabled
p89
I00
sVtime_zone
p90
VEastern Time (US & Canada)
p91
sVprotected
p92
I00
sVdefault_profile
p93
I00
sVis_translator
p94
I00
ssS'contributors_enabled'
p95
I00
sS'profile_text_color'
p96
g50
sS'followers_count'
p97
I516
sS'profile_sidebar_border_color'
p98
g56
sS'id_str'
p99
g58
sS'default_profile_image'
p100
I00
sS'listed_count'
p101
I85
sS'is_translation_enabled'
p102
I01
sS'utc_offset'
p103
I-18000
sS'statuses_count'
p104
I182019
sS'description'
p105
g65
sS'friends_count'
p106
I0
sS'location'
p107
g68
sS'profile_link_color'
p108
g70
sS'profile_image_url'
p109
g72
sS'notifications'
p110
I00
sS'geo_enabled'
p111
I00
sS'profile_background_color'
p112
g60
sS'profile_background_image_url'
p113
g76
sS'screen_name'
p114
g78
sS'lang'
p115
g80
sS'following'
p116
I00
sS'profile_background_tile'
p117
I00
sS'favourites_count'
p118
I0
sS'name'
p119
g84
sS'url'
p120
NsS'created_at'
p121
cdatetime
datetime
p122
(S'\x07\xde\x02\x0f\x051\n\x00\x00\x00'
p123
tp124
Rp125
sS'profile_background_image_url_https'
p126
g47
sS'time_zone'
p127
g91
sS'protected'
p128
I00
sS'default_profile'
p129
I00
sS'is_translator'
p130
I00
sbsS'geo'
p131
Nsg29
L663837515984601088L
sS'favorite_count'
p132
I0
sS'source'
p133
VStockNewsWires
p134
sg115
Ven
p135
sS'author'
p136
g22
sg121
g122
(S'\x07\xdf\x0b\t\x158\x0b\x00\x00\x00'
p137
tp138
Rp139
sg39
(dp140
Vcontributors
p141
NsVtruncated
p142
I00
sVtext
p143
V$CMCO:\u000a\u000aNew SEC Filing for CMCO: Form 8-K/A (No. 0001005229-15-000142):\u000a\u000ahttps://t.co/YULFJ1daBf
p144
sVis_quote_status
p145
I00
sVin_reply_to_status_id
p146
Nsg45
L663837515984601088L
sVfavorite_count
p147
I0
sVsource
p148
V<a href="http://www.stocknewswires.com" rel="nofollow">StockNewsWires</a>
p149
sVretweeted
p150
I00
sVcoordinates
p151
Nsg53
(dp152
Vsymbols
p153
(lp154
(dp155
Vindices
p156
(lp157
I0
aI5
asg143
VCMCO
p158
sasVuser_mentions
p159
(lp160
sVhashtags
p161
(lp162
sg35
(lp163
(dp164
g86
Vhttps://t.co/YULFJ1daBf
p165
sg156
(lp166
I73
aI96
asVexpanded_url
p167
Vhttp://StockNewsHour.com/cmco-new-sec-filing-for-cmco-form-8-ka-no-0001005229-15-000142/
p168
sVdisplay_url
p169
VStockNewsHour.com/cmco-new-sec-f\u2026
p170
sassVin_reply_to_screen_name
p171
NsVin_reply_to_user_id
p172
NsVretweet_count
p173
I0
sg57
V663837515984601088
p174
sVfavorited
p175
I00
sVuser
p176
g40
sVgeo
p177
NsVin_reply_to_user_id_str
p178
NsVpossibly_sensitive
p179
I00
sg79
g135
sg87
VMon Nov 09 21:56:11 +0000 2015
p180
sVin_reply_to_status_id_str
p181
NsVplace
p182
NsVmetadata
p183
(dp184
Viso_language_code
p185
Ven
p186
sVresult_type
p187
Vrecent
p188
sssS'metadata'
p189
g184
sS'coordinates'
p190
NsS'in_reply_to_user_id_str'
p191
Nsg31
g152
sS'in_reply_to_status_id_str'
p192
NsS'in_reply_to_screen_name'
p193
Nsg99
g174
sS'retweeted'
p194
I00
sS'place'
p195
NsS'retweet_count'
p196
I0
sS'in_reply_to_user_id'
p197
Nsbag0
(g4
g5
Ntp198
Rp199
(dp200
g9
I00
sg10
Nsg11
I00
sg12
VNEW SEC Filing for $CMCO filed a moment ago: https://t.co/3rgFf2BNt6 https://t.co/6C2wuMRIQn
p201
sg14
Vhttp://fnsappbg.blogspot.com/
p202
sg16
I00
sg17
I00
sg18
Nsg19
g0
(g20
g5
Ntp203
Rp204
(dp205
g24
I00
sg25
I00
sg26
I01
sg27
VE6F6F9
p206
sg29
L2344363668L
sg30
I00
sg31
(dp207
g33
(dp208
g35
(lp209
sssg37
Vhttps://pbs.twimg.com/profile_images/477288831767425025/SqzMus3o_normal.jpeg
p210
sg39
(dp211
g41
I00
sg42
I00
sg43
I01
sg44
I00
sg45
L2344363668L
sg46
Vhttps://abs.twimg.com/images/themes/theme17/bg.gif
p212
sg48
I00
sg49
V333333
p213
sg51
g210
sg52
g206
sg53
g207
sg54
I91
sg55
VDBE9ED
p214
sg57
V2344363668
p215
sg59
VDBE9ED
p216
sg61
I7
sg62
I00
sg63
I-14400
sg64
I17354
sg33
V
p217
sg66
I6
sg67
g217
sg69
VCC3366
p218
sg71
Vhttp://pbs.twimg.com/profile_images/477288831767425025/SqzMus3o_normal.jpeg
p219
sg73
I00
sg74
I00
sg75
Vhttp://abs.twimg.com/images/themes/theme17/bg.gif
p220
sg77
Vflthelead
p221
sg79
Ven
p222
sg81
I00
sg82
I0
sg83
VNew SEC Filings
p223
sg85
I00
sg86
Nsg87
VSat Feb 15 01:32:19 +0000 2014
p224
sg89
I00
sg90
VAtlantic Time (Canada)
p225
sg92
I00
sg93
I00
sg94
I00
ssg95
I00
sg96
g213
sg97
I91
sg98
g214
sg99
g215
sg100
I00
sg101
I7
sg102
I00
sg103
I-14400
sg104
I17354
sg105
g217
sg106
I6
sg107
g217
sg108
g218
sg109
g219
sg110
I00
sg111
I00
sg112
g216
sg113
g220
sg114
g221
sg115
g222
sg116
I00
sg117
I00
sg118
I0
sg119
g223
sg120
Nsg121
g122
(S'\x07\xde\x02\x0f\x01 \x13\x00\x00\x00'
p226
tp227
Rp228
sg126
g212
sg127
g225
sg128
I00
sg129
I00
sg130
I00
sbsg131
Nsg29
L663837467640995840L
sg132
I0
sg133
VFNS_APP
p229
sg115
Ven
p230
sg136
g204
sg121
g122
(S'\x07\xdf\x0b\t\x158\x00\x00\x00\x00'
p231
tp232
Rp233
sg39
(dp234
g141
Nsg142
I00
sg143
g201
sg145
I00
sg146
Nsg45
L663837467640995840L
sg147
I0
sg148
V<a href="http://fnsappbg.blogspot.com/" rel="nofollow">FNS_APP</a>
p235
sg150
I00
sg151
Nsg53
(dp236
g153
(lp237
(dp238
g156
(lp239
I19
aI24
asg143
VCMCO
p240
sasg159
(lp241
sg161
(lp242
sg35
(lp243
(dp244
g86
Vhttps://t.co/3rgFf2BNt6
p245
sg156
(lp246
I45
aI68
asg167
Vhttp://stocknewsflow.com/1005229_000100522915000142_0001005229-15-000142
p247
sg169
Vstocknewsflow.com/1005229_000100\u2026
p248
sasVmedia
p249
(lp250
(dp251
g167
Vhttp://twitter.com/flthelead/status/663837467640995840/photo/1
p252
sg169
Vpic.twitter.com/6C2wuMRIQn
p253
sg86
Vhttps://t.co/6C2wuMRIQn
p254
sVmedia_url_https
p255
Vhttps://pbs.twimg.com/media/CTZsqM7W4AA7SXm.jpg
p256
sg57
V663837467364220928
p257
sVsizes
p258
(dp259
Vlarge
p260
(dp261
Vh
p262
I4
sVresize
p263
Vfit
p264
sVw
p265
I4
ssVsmall
p266
(dp267
g262
I4
sg263
Vfit
p268
sg265
I4
ssVmedium
p269
(dp270
g262
I4
sg263
Vfit
p271
sg265
I4
ssVthumb
p272
(dp273
g262
I4
sg263
Vcrop
p274
sg265
I4
sssg156
(lp275
I69
aI92
asVtype
p276
Vphoto
p277
sg45
L663837467364220928L
sVmedia_url
p278
Vhttp://pbs.twimg.com/media/CTZsqM7W4AA7SXm.jpg
p279
sassg171
Nsg172
Nsg173
I0
sg57
V663837467640995840
p280
sg175
I00
sg176
g211
sg177
Nsg178
Nsg179
I00
sg79
g230
sg87
VMon Nov 09 21:56:00 +0000 2015
p281
sg181
Nsg182
Nsg183
(dp282
g185
Ven
p283
sg187
Vrecent
p284
sssg189
g282
sg190
Nsg191
Nsg31
g236
sg192
Nsg193
Nsg99
g280
sg194
I00
sg195
Nsg196
I0
sg197
Nsbag0
(g4
g5
Ntp285
Rp286
(dp287
g9
I00
sg10
Nsg11
I00
sg12
VThe Most Accurate Stock Alert Service Made $240,000 Yesterday https://t.co/8WvnrVmkBS .. $KCAP $SQI $CMCO
p288
sg14
Vhttp://socialadcenter.com
p289
sg16
I00
sg17
I00
sg18
Nsg19
g0
(g20
g5
Ntp290
Rp291
(dp292
g24
I00
sg25
I00
sg26
I01
sg27
VDDEEF6
p293
sg29
L2730855593L
sg30
I00
sg31
(dp294
g86
(dp295
g35
(lp296
(dp297
g86
Vhttp://t.co/UWzH8kOOl9
p298
sg156
(lp299
I0
aI22
asg167
Vhttp://PennyStockSecret.com
p300
sg169
VPennyStockSecret.com
p301
sassg33
(dp302
g35
(lp303
(dp304
g86
Vhttp://t.co/UWzH8kOOl9
p305
sg156
(lp306
I11
aI33
asg167
Vhttp://PennyStockSecret.com
p307
sg169
VPennyStockSecret.com
p308
sasssg37
Vhttps://pbs.twimg.com/profile_images/573247485616889856/gHAtYS9O_normal.png
p309
sg39
(dp310
g41
I00
sg42
I00
sg43
I01
sg44
I00
sg45
L2730855593L
sg46
Vhttps://abs.twimg.com/images/themes/theme1/bg.png
p311
sg48
I00
sg49
V333333
p312
sg51
g309
sg52
g293
sg53
g294
sg54
I2515
sg55
VC0DEED
p313
sg57
V2730855593
p314
sg59
VC0DEED
p315
sg61
I25
sg62
I00
sg63
I0
sg64
I53230
sg33
VSign up to http://t.co/UWzH8kOOl9  and get the premiere penny stock newsletter for free! make sure you subscribe today!
p316
sg66
I9
sg67
VUSA
p317
sg69
V0084B4
p318
sg71
Vhttp://pbs.twimg.com/profile_images/573247485616889856/gHAtYS9O_normal.png
p319
sg73
I00
sg74
I00
sVprofile_banner_url
p320
Vhttps://pbs.twimg.com/profile_banners/2730855593/1425507876
p321
sg75
Vhttp://abs.twimg.com/images/themes/theme1/bg.png
p322
sg77
Vstockschamp
p323
sg79
Ven
p324
sg81
I00
sg82
I0
sg83
Vstockschamp
p325
sg85
I00
sg86
Vhttp://t.co/UWzH8kOOl9
p326
sg87
VFri Aug 01 16:39:24 +0000 2014
p327
sg89
I00
sg90
VDublin
p328
sg92
I00
sg93
I01
sg94
I00
ssg95
I00
sg96
g312
sg97
I2515
sg98
g313
sg99
g314
sg100
I00
sg101
I25
sg102
I00
sg103
I0
sg104
I53230
sg105
g316
sg106
I9
sg107
g317
sg108
g318
sg109
g319
sg110
I00
sg111
I00
sg112
g315
sS'profile_banner_url'
p329
g321
sg113
g322
sg114
g323
sg115
g324
sg116
I00
sg117
I00
sg118
I0
sg119
g325
sg120
g326
sg121
g122
(S"\x07\xde\x08\x01\x10'\x18\x00\x00\x00"
p330
tp331
Rp332
sg126
g311
sg127
g328
sg128
I00
sg129
I01
sg130
I00
sbsg131
Nsg29
L663762695426961408L
sg132
I0
sg133
VSocial Ad Center
p333
sg115
Ven
p334
sg136
g291
sg121
g122
(S'\x07\xdf\x0b\t\x10:5\x00\x00\x00'
p335
tp336
Rp337
sg39
(dp338
g141
Nsg142
I00
sg143
g288
sg145
I00
sg146
Nsg45
L663762695426961408L
sg147
I0
sg148
V<a href="http://socialadcenter.com" rel="nofollow">Social Ad Center</a>
p339
sg150
I00
sg151
Nsg53
(dp340
g153
(lp341
(dp342
g156
(lp343
I89
aI94
asg143
VKCAP
p344
sa(dp345
g156
(lp346
I95
aI99
asg143
VSQI
p347
sa(dp348
g156
(lp349
I100
aI105
asg143
VCMCO
p350
sasg159
(lp351
sg161
(lp352
sg35
(lp353
(dp354
g86
Vhttps://t.co/8WvnrVmkBS
p355
sg156
(lp356
I62
aI85
asg167
Vhttp://PennyStockSecret.com
p357
sg169
VPennyStockSecret.com
p358
sassg171
Nsg172
Nsg173
I0
sg57
V663762695426961408
p359
sg175
I00
sg176
g310
sg177
Nsg178
Nsg179
I00
sg79
g334
sg87
VMon Nov 09 16:58:53 +0000 2015
p360
sg181
Nsg182
Nsg183
(dp361
g185
Ven
p362
sg187
Vrecent
p363
sssg189
g361
sg190
Nsg191
Nsg31
g340
sg192
Nsg193
Nsg99
g359
sg194
I00
sg195
Nsg196
I0
sg197
Nsbag0
(g4
g5
Ntp364
Rp365
(dp366
g9
I00
sg10
Nsg11
I00
sg12
VSHORT Seller Alert $CMCO - COLUMBUS MCKINNON #ShortSeller #Stocks ~ via #AlertTrade
p367
sg14
Vhttp://dlvr.it
p368
sg17
I00
sg18
Nsg19
g0
(g20
g5
Ntp369
Rp370
(dp371
g24
I00
sg25
I00
sg26
I00
sg27
VC0DFEC
p372
sg29
I121158213
sg30
I00
sg31
(dp373
g86
(dp374
g35
(lp375
(dp376
g86
Vhttp://t.co/0qjAA0UcWX
p377
sg156
(lp378
I0
aI22
asg167
Vhttp://stockhorizon.com/at/performance/
p379
sg169
Vstockhorizon.com/at/performance/
p380
sassg33
(dp381
g35
(lp382
(dp383
g86
Vhttps://t.co/mounr6yodP
p384
sg156
(lp385
I107
aI130
asg167
Vhttp://goo.gl/qRm05l
p386
sg169
Vgoo.gl/qRm05l
p387
sasssg37
Vhttps://pbs.twimg.com/profile_images/479204884114198528/RcwJAUZk_normal.png
p388
sg39
(dp389
g41
I00
sg42
I00
sg43
I00
sg44
I00
sg45
I121158213
sg46
Vhttps://pbs.twimg.com/profile_background_images/448264669841465344/Hb9PWICH.png
p390
sg48
I00
sg49
V333333
p391
sg51
g388
sg52
g372
sg53
g373
sg54
I64062
sg55
VFFFFFF
p392
sg57
V121158213
p393
sg59
V010D12
p394
sg61
I1434
sg62
I00
sg63
I-18000
sg64
I763735
sg33
VNOV-04 LONG ALERT $EMES +32% \u2605 100% Automated Stock Trade Alerts #Trading #Stocks Short/Long  \u27a1  \u27a1 \u27a1 via \u2192 https://t.co/mounr6yodP
p395
sg66
I64324
sg67
V\u2193 \u2193 Trade Alerts Performance
p396
sg69
V0015B3
p397
sg71
Vhttp://pbs.twimg.com/profile_images/479204884114198528/RcwJAUZk_normal.png
p398
sg73
I00
sg74
I00
sg320
Vhttps://pbs.twimg.com/profile_banners/121158213/1403086379
p399
sg75
Vhttp://pbs.twimg.com/profile_background_images/448264669841465344/Hb9PWICH.png
p400
sg77
VAlertTrade
p401
sg79
Ven
p402
sg81
I00
sg82
I1197
sg83
VStock Trade Alerts
p403
sg85
I00
sg86
Vhttp://t.co/0qjAA0UcWX
p404
sg87
VMon Mar 08 16:14:34 +0000 2010
p405
sg89
I00
sg90
VEastern Time (US & Canada)
p406
sg92
I00
sg93
I00
sg94
I00
ssg95
I00
sg96
g391
sg97
I64062
sg98
g392
sg99
g393
sg100
I00
sg101
I1434
sg102
I00
sg103
I-18000
sg104
I763735
sg105
g395
sg106
I64324
sg107
g396
sg108
g397
sg109
g398
sg110
I00
sg111
I00
sg112
g394
sg329
g399
sg113
g400
sg114
g401
sg115
g402
sg116
I00
sg117
I00
sg118
I1197
sg119
g403
sg120
g404
sg121
g122
(S'\x07\xda\x03\x08\x10\x0e"\x00\x00\x00'
p407
tp408
Rp409
sg126
g390
sg127
g406
sg128
I00
sg129
I00
sg130
I00
sbsg131
Nsg29
L663739869856841730L
sg132
I0
sg133
Vdlvr.it
p410
sg115
Ven
p411
sg136
g370
sg121
g122
(S'\x07\xdf\x0b\t\x0f\x1c\x0b\x00\x00\x00'
p412
tp413
Rp414
sg39
(dp415
g141
Nsg142
I00
sg143
g367
sg145
I00
sg146
Nsg45
L663739869856841730L
sg147
I0
sg148
V<a href="http://dlvr.it" rel="nofollow">dlvr.it</a>
p416
sg150
I00
sg151
Nsg53
(dp417
g153
(lp418
(dp419
g156
(lp420
I19
aI24
asg143
VCMCO
p421
sasg159
(lp422
sg161
(lp423
(dp424
g156
(lp425
I45
aI57
asg143
VShortSeller
p426
sa(dp427
g156
(lp428
I58
aI65
asg143
VStocks
p429
sa(dp430
g156
(lp431
I72
aI83
asg143
VAlertTrade
p432
sasg35
(lp433
ssg171
Nsg172
Nsg173
I0
sg57
V663739869856841730
p434
sg175
I00
sg176
g389
sg177
Nsg178
Nsg79
g411
sg87
VMon Nov 09 15:28:11 +0000 2015
p435
sg181
Nsg182
Nsg183
(dp436
g185
Ven
p437
sg187
Vrecent
p438
sssg189
g436
sg190
Nsg191
Nsg31
g417
sg192
Nsg193
Nsg99
g434
sg194
I00
sg195
Nsg196
I0
sg197
Nsbag0
(g4
g5
Ntp439
Rp440
(dp441
g9
I00
sg10
Nsg11
I00
sg12
VColumbus McKinnon Corp. to Issue Quarterly Dividend of $0.04 on  November 23rd $CMCO https://t.co/e813VwA6XD
p442
sg14
Vhttp://ifttt.com
p443
sg16
I00
sg17
I00
sg18
Nsg19
g0
(g20
g5
Ntp444
Rp445
(dp446
g24
I00
sg25
I00
sg26
I01
sg27
VDDEEF6
p447
sg29
L2920258887L
sg30
I00
sg31
(dp448
g33
(dp449
g35
(lp450
sssg37
Vhttps://abs.twimg.com/sticky/default_profile_images/default_profile_0_normal.png
p451
sg39
(dp452
g41
I00
sg42
I00
sg43
I01
sg44
I01
sg45
L2920258887L
sg46
Vhttps://abs.twimg.com/images/themes/theme1/bg.png
p453
sg48
I00
sg49
V333333
p454
sg51
g451
sg52
g447
sg53
g448
sg54
I1021
sg55
VC0DEED
p455
sg57
V2920258887
p456
sg59
VC0DEED
p457
sg61
I39
sg62
I00
sg63
Nsg64
I170284
sg33
g217
sg66
I40
sg67
g217
sg69
V0084B4
p458
sg71
Vhttp://abs.twimg.com/sticky/default_profile_images/default_profile_0_normal.png
p459
sg73
I00
sg74
I00
sg75
Vhttp://abs.twimg.com/images/themes/theme1/bg.png
p460
sg77
Vdakotafinancial
p461
sg79
Ven
p462
sg81
I00
sg82
I0
sg83
VDakota Financial 
p463
sg85
I00
sg86
Nsg87
VSat Dec 13 20:48:14 +0000 2014
p464
sg89
I00
sg90
Nsg92
I00
sg93
I01
sg94
I00
ssg95
I00
sg96
g454
sg97
I1021
sg98
g455
sg99
g456
sg100
I01
sg101
I39
sg102
I00
sg103
Nsg104
I170284
sg105
g217
sg106
I40
sg107
g217
sg108
g458
sg109
g459
sg110
I00
sg111
I00
sg112
g457
sg113
g460
sg114
g461
sg115
g462
sg116
I00
sg117
I00
sg118
I0
sg119
g463
sg120
Nsg121
g122
(S'\x07\xde\x0c\r\x140\x0e\x00\x00\x00'
p465
tp466
Rp467
sg126
g453
sg127
Nsg128
I00
sg129
I01
sg130
I00
sbsg131
Nsg29
L663729760799989760L
sg132
I0
sg133
VIFTTT
p468
sg115
Ven
p469
sg136
g445
sg121
g122
(S'\x07\xdf\x0b\t\x0e0\x01\x00\x00\x00'
p470
tp471
Rp472
sg39
(dp473
g141
Nsg142
I00
sg143
g442
sg145
I00
sg146
Nsg45
L663729760799989760L
sg147
I0
sg148
V<a href="http://ifttt.com" rel="nofollow">IFTTT</a>
p474
sg150
I00
sg151
Nsg53
(dp475
g153
(lp476
(dp477
g156
(lp478
I79
aI84
asg143
VCMCO
p479
sasg159
(lp480
sg161
(lp481
sg35
(lp482
(dp483
g86
Vhttps://t.co/e813VwA6XD
p484
sg156
(lp485
I85
aI108
asg167
Vhttp://ift.tt/1OzjAia
p486
sg169
Vift.tt/1OzjAia
p487
sassg171
Nsg172
Nsg173
I0
sg57
V663729760799989760
p488
sg175
I00
sg176
g452
sg177
Nsg178
Nsg179
I00
sg79
g469
sg87
VMon Nov 09 14:48:01 +0000 2015
p489
sg181
Nsg182
Nsg183
(dp490
g185
Ven
p491
sg187
Vrecent
p492
sssg189
g490
sg190
Nsg191
Nsg31
g475
sg192
Nsg193
Nsg99
g488
sg194
I00
sg195
Nsg196
I0
sg197
Nsbag0
(g4
g5
Ntp493
Rp494
(dp495
g9
I00
sg10
Nsg11
I00
sg12
V$CMCO is rated BUY, 37.0% upside by Wall Street analysts based on average ratings/targets https://t.co/DdoIAZPxCe https://t.co/K6mrFf5Qdq
p496
sg14
Vhttp://investwithconf.blogspot.com
p497
sg16
I00
sg17
I00
sg18
Nsg19
g0
(g20
g5
Ntp498
Rp499
(dp500
g24
I00
sg25
I00
sg26
I01
sg27
VF6FFD1
p501
sg29
L2344623210L
sg30
I00
sg31
(dp502
g33
(dp503
g35
(lp504
sssg37
Vhttps://pbs.twimg.com/profile_images/597618707721035778/xao5eh5P_normal.jpg
p505
sg39
(dp506
g41
I00
sg42
I00
sg43
I01
sg44
I00
sg45
L2344623210L
sg46
Vhttps://abs.twimg.com/images/themes/theme19/bg.gif
p507
sg48
I00
sg49
V333333
p508
sg51
g505
sg52
g501
sg53
g502
sg54
I256
sg55
VFFF8AD
p509
sg57
V2344623210
p510
sg59
VFFF04D
p511
sg61
I16
sg62
I00
sg63
I-18000
sg64
I67447
sg33
g217
sg66
I0
sg67
g217
sg69
V0099CC
p512
sg71
Vhttp://pbs.twimg.com/profile_images/597618707721035778/xao5eh5P_normal.jpg
p513
sg73
I00
sg74
I00
sg75
Vhttp://abs.twimg.com/images/themes/theme19/bg.gif
p514
sg77
VInvestWithConf
p515
sg79
Ven
p516
sg81
I00
sg82
I0
sg83
VInvestWithConf
p517
sg85
I00
sg86
Nsg87
VSat Feb 15 05:52:28 +0000 2014
p518
sg89
I00
sg90
VEastern Time (US & Canada)
p519
sg92
I00
sg93
I00
sg94
I00
ssg95
I00
sg96
g508
sg97
I256
sg98
g509
sg99
g510
sg100
I00
sg101
I16
sg102
I00
sg103
I-18000
sg104
I67447
sg105
g217
sg106
I0
sg107
g217
sg108
g512
sg109
g513
sg110
I00
sg111
I00
sg112
g511
sg113
g514
sg114
g515
sg115
g516
sg116
I00
sg117
I00
sg118
I0
sg119
g517
sg120
Nsg121
g122
(S'\x07\xde\x02\x0f\x054\x1c\x00\x00\x00'
p520
tp521
Rp522
sg126
g507
sg127
g519
sg128
I00
sg129
I00
sg130
I00
sbsg131
Nsg29
L663087788850565120L
sg132
I0
sg133
VIWCE
p523
sg115
Ven
p524
sg136
g499
sg121
g122
(S'\x07\xdf\x0b\x07\x14\x11\x03\x00\x00\x00'
p525
tp526
Rp527
sg39
(dp528
g141
Nsg142
I00
sg143
g496
sg145
I00
sg146
Nsg45
L663087788850565120L
sg147
I0
sg148
V<a href="http://investwithconf.blogspot.com" rel="nofollow">IWCE</a>
p529
sg150
I00
sg151
Nsg53
(dp530
g153
(lp531
(dp532
g156
(lp533
I0
aI5
asg143
VCMCO
p534
sasg159
(lp535
sg161
(lp536
sg35
(lp537
(dp538
g86
Vhttps://t.co/DdoIAZPxCe
p539
sg156
(lp540
I90
aI113
asg167
Vhttp://manyratings.com/CMCO
p541
sg169
Vmanyratings.com/CMCO
p542
sasg249
(lp543
(dp544
g167
Vhttp://twitter.com/InvestWithConf/status/663087788850565120/photo/1
p545
sg169
Vpic.twitter.com/K6mrFf5Qdq
p546
sg86
Vhttps://t.co/K6mrFf5Qdq
p547
sg255
Vhttps://pbs.twimg.com/media/CTPC1J5XIAEdR4l.jpg
p548
sg57
V663087788598960129
p549
sg258
(dp550
g260
(dp551
g262
I4
sg263
Vfit
p552
sg265
I4
ssg266
(dp553
g262
I4
sg263
Vfit
p554
sg265
I4
ssg269
(dp555
g262
I4
sg263
Vfit
p556
sg265
I4
ssg272
(dp557
g262
I4
sg263
Vcrop
p558
sg265
I4
sssg156
(lp559
I114
aI137
asg276
Vphoto
p560
sg45
L663087788598960129L
sg278
Vhttp://pbs.twimg.com/media/CTPC1J5XIAEdR4l.jpg
p561
sassg171
Nsg172
Nsg173
I0
sg57
V663087788850565120
p562
sg175
I00
sg176
g506
sg177
Nsg178
Nsg179
I00
sg79
g524
sg87
VSat Nov 07 20:17:03 +0000 2015
p563
sg181
Nsg182
Nsg183
(dp564
g185
Ven
p565
sg187
Vrecent
p566
sssg189
g564
sg190
Nsg191
Nsg31
g530
sg192
Nsg193
Nsg99
g562
sg194
I00
sg195
Nsg196
I0
sg197
Nsbag0
(g4
g5
Ntp567
Rp568
(dp569
g9
I00
sg10
Nsg11
I00
sg12
V$CMCO:\u000a\u000aColumbus McKinnon Corp. Stock Rating Lowered by Zacks (CMCO):\u000a\u000ahttps://t.co/P6dUdelr0A
p570
sg14
Vhttp://www.newsflowing.com
p571
sg16
I00
sg17
I00
sg18
Nsg19
g0
(g20
g5
Ntp572
Rp573
(dp574
g24
I00
sg25
I00
sg26
I01
sg27
VDDFFCC
p575
sg29
L2342763212L
sg30
I00
sg31
(dp576
g33
(dp577
g35
(lp578
sssg37
Vhttps://pbs.twimg.com/profile_images/544036701056684032/FY2Xgs7b_normal.jpeg
p579
sg39
(dp580
g41
I00
sg42
I00
sg43
I01
sg44
I00
sg45
L2342763212L
sg46
Vhttps://abs.twimg.com/images/themes/theme16/bg.gif
p581
sg48
I00
sg49
V333333
p582
sg51
g579
sg52
g575
sg53
g576
sg54
I421
sg55
VBDDCAD
p583
sg57
V2342763212
p584
sg59
V9AE4E8
p585
sg61
I74
sg62
I00
sg63
I-14400
sg64
I193979
sg33
VNews as it happens
p586
sg66
I0
sg67
VUS
p587
sg69
V0084B4
p588
sg71
Vhttp://pbs.twimg.com/profile_images/544036701056684032/FY2Xgs7b_normal.jpeg
p589
sg73
I00
sg74
I00
sg75
Vhttp://abs.twimg.com/images/themes/theme16/bg.gif
p590
sg77
Vnewswelldone
p591
sg79
Ven
p592
sg81
I00
sg82
I0
sg83
VBreaking News
p593
sg85
I00
sg86
Nsg87
VFri Feb 14 00:21:52 +0000 2014
p594
sg89
I00
sg90
VAtlantic Time (Canada)
p595
sg92
I00
sg93
I00
sg94
I00
ssg95
I00
sg96
g582
sg97
I421
sg98
g583
sg99
g584
sg100
I00
sg101
I74
sg102
I00
sg103
I-14400
sg104
I193979
sg105
g586
sg106
I0
sg107
g587
sg108
g588
sg109
g589
sg110
I00
sg111
I00
sg112
g585
sg113
g590
sg114
g591
sg115
g592
sg116
I00
sg117
I00
sg118
I0
sg119
g593
sg120
Nsg121
g122
(S'\x07\xde\x02\x0e\x00\x154\x00\x00\x00'
p596
tp597
Rp598
sg126
g581
sg127
g595
sg128
I00
sg129
I00
sg130
I00
sbsg131
Nsg29
L662825557273485312L
sg132
I0
sg133
VNFIG
p599
sg115
Ven
p600
sg136
g573
sg121
g122
(S'\x07\xdf\x0b\x07\x027\x02\x00\x00\x00'
p601
tp602
Rp603
sg39
(dp604
g141
Nsg142
I00
sg143
V$CMCO:\u000a\u000aColumbus McKinnon Corp. Stock Rating Lowered by Zacks (CMCO):\u000a\u000ahttps://t.co/P6dUdelr0A
p605
sg145
I00
sg146
Nsg45
L662825557273485312L
sg147
I0
sg148
V<a href="http://www.newsflowing.com" rel="nofollow">NFIG</a>
p606
sg150
I00
sg151
Nsg53
(dp607
g153
(lp608
(dp609
g156
(lp610
I0
aI5
asg143
VCMCO
p611
sasg159
(lp612
sg161
(lp613
sg35
(lp614
(dp615
g86
Vhttps://t.co/P6dUdelr0A
p616
sg156
(lp617
I71
aI94
asg167
Vhttp://StockNewsHour.com/cmco-columbus-mckinnon-corp-stock-rating-lowered-by-zacks-cmco/
p618
sg169
VStockNewsHour.com/cmco-columbus-\u2026
p619
sassg171
Nsg172
Nsg173
I0
sg57
V662825557273485312
p620
sg175
I00
sg176
g580
sg177
Nsg178
Nsg179
I00
sg79
g600
sg87
VSat Nov 07 02:55:02 +0000 2015
p621
sg181
Nsg182
Nsg183
(dp622
g185
Ven
p623
sg187
Vrecent
p624
sssg189
g622
sg190
Nsg191
Nsg31
g607
sg192
Nsg193
Nsg99
g620
sg194
I00
sg195
Nsg196
I0
sg197
Nsbag0
(g4
g5
Ntp625
Rp626
(dp627
g9
I00
sg10
Nsg11
I00
sg12
VColumbus McKinnon Corp. Stock Rating Lowered by Zacks $CMCO https://t.co/qdmQTsCBw2
p628
sg14
Vhttp://ifttt.com
p629
sg16
I00
sg17
I00
sg18
Nsg19
g0
(g20
g5
Ntp630
Rp631
(dp632
g24
I00
sg25
I00
sg26
I01
sg27
VDDEEF6
p633
sg29
L2920258887L
sg30
I00
sg31
(dp634
g33
(dp635
g35
(lp636
sssg37
Vhttps://abs.twimg.com/sticky/default_profile_images/default_profile_0_normal.png
p637
sg39
(dp638
g41
I00
sg42
I00
sg43
I01
sg44
I01
sg45
L2920258887L
sg46
Vhttps://abs.twimg.com/images/themes/theme1/bg.png
p639
sg48
I00
sg49
V333333
p640
sg51
g637
sg52
g633
sg53
g634
sg54
I1021
sg55
VC0DEED
p641
sg57
V2920258887
p642
sg59
VC0DEED
p643
sg61
I39
sg62
I00
sg63
Nsg64
I170284
sg33
g217
sg66
I40
sg67
g217
sg69
V0084B4
p644
sg71
Vhttp://abs.twimg.com/sticky/default_profile_images/default_profile_0_normal.png
p645
sg73
I00
sg74
I00
sg75
Vhttp://abs.twimg.com/images/themes/theme1/bg.png
p646
sg77
Vdakotafinancial
p647
sg79
Ven
p648
sg81
I00
sg82
I0
sg83
VDakota Financial 
p649
sg85
I00
sg86
Nsg87
VSat Dec 13 20:48:14 +0000 2014
p650
sg89
I00
sg90
Nsg92
I00
sg93
I01
sg94
I00
ssg95
I00
sg96
g640
sg97
I1021
sg98
g641
sg99
g642
sg100
I01
sg101
I39
sg102
I00
sg103
Nsg104
I170284
sg105
g217
sg106
I40
sg107
g217
sg108
g644
sg109
g645
sg110
I00
sg111
I00
sg112
g643
sg113
g646
sg114
g647
sg115
g648
sg116
I00
sg117
I00
sg118
I0
sg119
g649
sg120
Nsg121
g122
(S'\x07\xde\x0c\r\x140\x0e\x00\x00\x00'
p651
tp652
Rp653
sg126
g639
sg127
Nsg128
I00
sg129
I01
sg130
I00
sbsg131
Nsg29
L662823275106607104L
sg132
I0
sg133
VIFTTT
p654
sg115
Ven
p655
sg136
g631
sg121
g122
(S'\x07\xdf\x0b\x07\x02-:\x00\x00\x00'
p656
tp657
Rp658
sg39
(dp659
g141
Nsg142
I00
sg143
g628
sg145
I00
sg146
Nsg45
L662823275106607104L
sg147
I0
sg148
V<a href="http://ifttt.com" rel="nofollow">IFTTT</a>
p660
sg150
I00
sg151
Nsg53
(dp661
g153
(lp662
(dp663
g156
(lp664
I54
aI59
asg143
VCMCO
p665
sasg159
(lp666
sg161
(lp667
sg35
(lp668
(dp669
g86
Vhttps://t.co/qdmQTsCBw2
p670
sg156
(lp671
I60
aI83
asg167
Vhttp://ift.tt/1kzT3UL
p672
sg169
Vift.tt/1kzT3UL
p673
sassg171
Nsg172
Nsg173
I0
sg57
V662823275106607104
p674
sg175
I00
sg176
g638
sg177
Nsg178
Nsg179
I00
sg79
g655
sg87
VSat Nov 07 02:45:58 +0000 2015
p675
sg181
Nsg182
Nsg183
(dp676
g185
Ven
p677
sg187
Vrecent
p678
sssg189
g676
sg190
Nsg191
Nsg31
g661
sg192
Nsg193
Nsg99
g674
sg194
I00
sg195
Nsg196
I0
sg197
Nsbag0
(g4
g5
Ntp679
Rp680
(dp681
g9
I00
sg10
Nsg11
I00
sg12
V$CMCO - Seaport Global Securities Issues Q1 2016 Earnings Forecast for Columbus McKinnon\u2026 https://t.co/Vgp2WCpfmi
p682
sg14
Vhttp://www.google.com/
p683
sg16
I00
sg17
I00
sg18
Nsg19
g0
(g20
g5
Ntp684
Rp685
(dp686
g24
I00
sg25
I00
sg26
I01
sg27
VDDEEF6
p687
sg29
I565538332
sg30
I00
sg31
(dp688
g86
(dp689
g35
(lp690
(dp691
g86
Vhttp://t.co/u5AEanTvP3
p692
sg156
(lp693
I0
aI22
asg167
Vhttp://www.zolmax.com
p694
sg169
Vzolmax.com
p695
sassg33
(dp696
g35
(lp697
(dp698
g86
Vhttp://t.co/SHZtZA5fhb
p699
sg156
(lp700
I14
aI36
asg167
Vhttp://Zolmax.com
p701
sg169
VZolmax.com
p702
sasssg37
Vhttps://pbs.twimg.com/profile_images/2172961480/zolmax_big_normal.jpg
p703
sg39
(dp704
g41
I00
sg42
I00
sg43
I01
sg44
I00
sg45
I565538332
sg46
Vhttps://abs.twimg.com/images/themes/theme1/bg.png
p705
sg48
I00
sg49
V333333
p706
sg51
g703
sg52
g687
sg53
g688
sg54
I424
sg55
VC0DEED
p707
sg57
V565538332
p708
sg59
VC0DEED
p709
sg61
I31
sg62
I00
sg63
Nsg64
I105006
sg33
VZolmax News - http://t.co/SHZtZA5fhb
p710
sg66
I5
sg67
g217
sg69
V0084B4
p711
sg71
Vhttp://pbs.twimg.com/profile_images/2172961480/zolmax_big_normal.jpg
p712
sg73
I00
sg74
I00
sg75
Vhttp://abs.twimg.com/images/themes/theme1/bg.png
p713
sg77
VZolmaxNews
p714
sg79
Ven
p715
sg81
I00
sg82
I0
sg83
VZolmax News
p716
sg85
I00
sg86
Vhttp://t.co/u5AEanTvP3
p717
sg87
VSat Apr 28 15:46:12 +0000 2012
p718
sg89
I00
sg90
Nsg92
I00
sg93
I01
sg94
I00
ssg95
I00
sg96
g706
sg97
I424
sg98
g707
sg99
g708
sg100
I00
sg101
I31
sg102
I00
sg103
Nsg104
I105006
sg105
g710
sg106
I5
sg107
g217
sg108
g711
sg109
g712
sg110
I00
sg111
I00
sg112
g709
sg113
g713
sg114
g714
sg115
g715
sg116
I00
sg117
I00
sg118
I0
sg119
g716
sg120
g717
sg121
g122
(S'\x07\xdc\x04\x1c\x0f.\x0c\x00\x00\x00'
p719
tp720
Rp721
sg126
g705
sg127
Nsg128
I00
sg129
I01
sg130
I00
sbsg131
Nsg29
L662503172280344576L
sg132
I0
sg133
VGoogle
p722
sg115
Ven
p723
sg136
g685
sg121
g122
(S'\x07\xdf\x0b\x06\x05!;\x00\x00\x00'
p724
tp725
Rp726
sg39
(dp727
g141
Nsg142
I00
sg143
g682
sg145
I00
sg146
Nsg45
L662503172280344576L
sg147
I0
sg148
V<a href="http://www.google.com/" rel="nofollow">Google</a>
p728
sg150
I00
sg151
Nsg53
(dp729
g153
(lp730
(dp731
g156
(lp732
I0
aI5
asg143
VCMCO
p733
sasg159
(lp734
sg161
(lp735
sg35
(lp736
(dp737
g86
Vhttps://t.co/Vgp2WCpfmi
p738
sg156
(lp739
I90
aI113
asg167
Vhttp://goo.gl/fb/OMEiPe
p740
sg169
Vgoo.gl/fb/OMEiPe
p741
sassg171
Nsg172
Nsg173
I0
sg57
V662503172280344576
p742
sg175
I00
sg176
g704
sg177
Nsg178
Nsg179
I00
sg79
g723
sg87
VFri Nov 06 05:33:59 +0000 2015
p743
sg181
Nsg182
Nsg183
(dp744
g185
Ven
p745
sg187
Vrecent
p746
sssg189
g744
sg190
Nsg191
Nsg31
g729
sg192
Nsg193
Nsg99
g742
sg194
I00
sg195
Nsg196
I0
sg197
Nsbag0
(g4
g5
Ntp747
Rp748
(dp749
g9
I00
sg10
Nsg11
I00
sg12
V$CMCO:\u000a\u000aAnalyst Reduces Q1 2016 EPS Estimates for Columbus McKinnon \u2026:\u000a\u000ahttps://t.co/McxU1ZZ3OO
p750
sg14
Vhttp://www.stocknewswires.com
p751
sg16
I00
sg17
I00
sg18
Nsg19
g0
(g20
g5
Ntp752
Rp753
(dp754
g24
I00
sg25
I00
sg26
I01
sg27
VDAECF4
p755
sg29
L2341445778L
sg30
I00
sg31
(dp756
g33
(dp757
g35
(lp758
sssg37
Vhttps://pbs.twimg.com/profile_images/542238326397227008/UfZ0ulTf_normal.jpeg
p759
sg39
(dp760
g41
I00
sg42
I00
sg43
I01
sg44
I00
sg45
L2341445778L
sg46
Vhttps://abs.twimg.com/images/themes/theme2/bg.gif
p761
sg48
I00
sg49
V663B12
p762
sg51
g759
sg52
g755
sg53
g756
sg54
I660
sg55
VC6E2EE
p763
sg57
V2341445778
p764
sg59
VC6E2EE
p765
sg61
I107
sg62
I00
sg63
I-14400
sg64
I236872
sg33
VInvest like a fish
p766
sg66
I9
sg67
VUnited States
p767
sg69
V1F98C7
p768
sg71
Vhttp://pbs.twimg.com/profile_images/542238326397227008/UfZ0ulTf_normal.jpeg
p769
sg73
I00
sg74
I00
sg75
Vhttp://abs.twimg.com/images/themes/theme2/bg.gif
p770
sg77
VStockNewsWires
p771
sg79
Ven
p772
sg81
I00
sg82
I0
sg83
VStockNewsWires
p773
sg85
I00
sg86
Nsg87
VThu Feb 13 05:31:52 +0000 2014
p774
sg89
I00
sg90
VAtlantic Time (Canada)
p775
sg92
I00
sg93
I00
sg94
I00
ssg95
I00
sg96
g762
sg97
I660
sg98
g763
sg99
g764
sg100
I00
sg101
I107
sg102
I00
sg103
I-14400
sg104
I236872
sg105
g766
sg106
I9
sg107
g767
sg108
g768
sg109
g769
sg110
I00
sg111
I00
sg112
g765
sg113
g770
sg114
g771
sg115
g772
sg116
I00
sg117
I00
sg118
I0
sg119
g773
sg120
Nsg121
g122
(S'\x07\xde\x02\r\x05\x1f4\x00\x00\x00'
p776
tp777
Rp778
sg126
g761
sg127
g775
sg128
I00
sg129
I00
sg130
I00
sbsg131
Nsg29
L662500699993997312L
sg132
I0
sg133
VStockNewsWires
p779
sg115
Ven
p780
sg136
g753
sg121
g122
(S'\x07\xdf\x0b\x06\x05\x18\n\x00\x00\x00'
p781
tp782
Rp783
sg39
(dp784
g141
Nsg142
I00
sg143
V$CMCO:\u000a\u000aAnalyst Reduces Q1 2016 EPS Estimates for Columbus McKinnon \u2026:\u000a\u000ahttps://t.co/McxU1ZZ3OO
p785
sg145
I00
sg146
Nsg45
L662500699993997312L
sg147
I0
sg148
V<a href="http://www.stocknewswires.com" rel="nofollow">StockNewsWires</a>
p786
sg150
I00
sg151
Nsg53
(dp787
g153
(lp788
(dp789
g156
(lp790
I0
aI5
asg143
VCMCO
p791
sasg159
(lp792
sg161
(lp793
sg35
(lp794
(dp795
g86
Vhttps://t.co/McxU1ZZ3OO
p796
sg156
(lp797
I72
aI95
asg167
Vhttp://StockNewsHour.com/cmco-analyst-reduces-q1-2016-eps-estimates-for-columbus-mckinnon-2/
p798
sg169
VStockNewsHour.com/cmco-analyst-r\u2026
p799
sassg171
Nsg172
Nsg173
I0
sg57
V662500699993997312
p800
sg175
I00
sg176
g760
sg177
Nsg178
Nsg179
I00
sg79
g780
sg87
VFri Nov 06 05:24:10 +0000 2015
p801
sg181
Nsg182
Nsg183
(dp802
g185
Ven
p803
sg187
Vrecent
p804
sssg189
g802
sg190
Nsg191
Nsg31
g787
sg192
Nsg193
Nsg99
g800
sg194
I00
sg195
Nsg196
I0
sg197
Nsbag0
(g4
g5
Ntp805
Rp806
(dp807
g9
I00
sg10
Nsg11
I00
sg12
V$CMCO:\u000a\u000aSeaport Global Securities Expects Columbus McKinnon Corp \u2026:\u000a\u000ahttps://t.co/I21j7qcb7T
p808
sg14
Vhttp://www.newsflowing.com
p809
sg16
I00
sg17
I00
sg18
Nsg19
g0
(g20
g5
Ntp810
Rp811
(dp812
g24
I00
sg25
I00
sg26
I01
sg27
VE6F6F9
p813
sg29
L2342215530L
sg30
I00
sg31
(dp814
g33
(dp815
g35
(lp816
sssg37
Vhttps://pbs.twimg.com/profile_images/544036492876591104/7QJIB-XK_normal.jpeg
p817
sg39
(dp818
g41
I00
sg42
I00
sg43
I01
sg44
I00
sg45
L2342215530L
sg46
Vhttps://abs.twimg.com/images/themes/theme17/bg.gif
p819
sg48
I00
sg49
V333333
p820
sg51
g817
sg52
g813
sg53
g814
sg54
I465
sg55
VDBE9ED
p821
sg57
V2342215530
p822
sg59
VDBE9ED
p823
sg61
I89
sg62
I00
sg63
I-14400
sg64
I193000
sg33
g217
sg66
I0
sg67
g217
sg69
VCC3366
p824
sg71
Vhttp://pbs.twimg.com/profile_images/544036492876591104/7QJIB-XK_normal.jpeg
p825
sg73
I00
sg74
I00
sg75
Vhttp://abs.twimg.com/images/themes/theme17/bg.gif
p826
sg77
Vnewswithvalue
p827
sg79
Ven
p828
sg81
I00
sg82
I0
sg83
VBreaking News Now
p829
sg85
I00
sg86
Nsg87
VThu Feb 13 16:14:12 +0000 2014
p830
sg89
I00
sg90
VAtlantic Time (Canada)
p831
sg92
I00
sg93
I00
sg94
I00
ssg95
I00
sg96
g820
sg97
I465
sg98
g821
sg99
g822
sg100
I00
sg101
I89
sg102
I00
sg103
I-14400
sg104
I193000
sg105
g217
sg106
I0
sg107
g217
sg108
g824
sg109
g825
sg110
I00
sg111
I00
sg112
g823
sg113
g826
sg114
g827
sg115
g828
sg116
I00
sg117
I00
sg118
I0
sg119
g829
sg120
Nsg121
g122
(S'\x07\xde\x02\r\x10\x0e\x0c\x00\x00\x00'
p832
tp833
Rp834
sg126
g819
sg127
g831
sg128
I00
sg129
I00
sg130
I00
sbsg131
Nsg29
L662500454417473536L
sg132
I0
sg133
VNFIG
p835
sg115
Ven
p836
sg136
g811
sg121
g122
(S'\x07\xdf\x0b\x06\x05\x17\x0b\x00\x00\x00'
p837
tp838
Rp839
sg39
(dp840
g141
Nsg142
I00
sg143
V$CMCO:\u000a\u000aSeaport Global Securities Expects Columbus McKinnon Corp \u2026:\u000a\u000ahttps://t.co/I21j7qcb7T
p841
sg145
I00
sg146
Nsg45
L662500454417473536L
sg147
I0
sg148
V<a href="http://www.newsflowing.com" rel="nofollow">NFIG</a>
p842
sg150
I00
sg151
Nsg53
(dp843
g153
(lp844
(dp845
g156
(lp846
I0
aI5
asg143
VCMCO
p847
sasg159
(lp848
sg161
(lp849
sg35
(lp850
(dp851
g86
Vhttps://t.co/I21j7qcb7T
p852
sg156
(lp853
I69
aI92
asg167
Vhttp://StockNewsHour.com/cmco-seaport-global-securities-expects-columbus-mckinnon-corp/
p854
sg169
VStockNewsHour.com/cmco-seaport-g\u2026
p855
sassg171
Nsg172
Nsg173
I0
sg57
V662500454417473536
p856
sg175
I00
sg176
g818
sg177
Nsg178
Nsg179
I00
sg79
g836
sg87
VFri Nov 06 05:23:11 +0000 2015
p857
sg181
Nsg182
Nsg183
(dp858
g185
Ven
p859
sg187
Vrecent
p860
sssg189
g858
sg190
Nsg191
Nsg31
g843
sg192
Nsg193
Nsg99
g856
sg194
I00
sg195
Nsg196
I0
sg197
Nsbag0
(g4
g5
Ntp861
Rp862
(dp863
g9
I00
sg10
Nsg11
I00
sg12
V$CMCO:\u000a\u000aBB&amp;T Corp. Expects Columbus McKinnon Corp. (CMCO) to Earn \u2026:\u000a\u000ahttps://t.co/BO9acq1KcA
p864
sg14
Vhttp://www.stocknewswires.com
p865
sg16
I00
sg17
I00
sg18
Nsg19
g0
(g20
g5
Ntp866
Rp867
(dp868
g24
I00
sg25
I00
sg26
I01
sg27
VE3E2DE
p869
sg29
L2344619544L
sg30
I00
sg31
(dp870
g33
(dp871
g35
(lp872
sssg37
Vhttps://pbs.twimg.com/profile_images/562292381764952064/mVtp0UmJ_normal.jpeg
p873
sg39
(dp874
g41
I00
sg42
I00
sg43
I01
sg44
I00
sg45
L2344619544L
sg46
Vhttps://abs.twimg.com/images/themes/theme3/bg.gif
p875
sg48
I00
sg49
V634047
p876
sg51
g873
sg52
g869
sg53
g870
sg54
I516
sg55
VD3D2CF
p877
sg57
V2344619544
p878
sg59
VEDECE9
p879
sg61
I85
sg62
I01
sg63
I-18000
sg64
I182019
sg33
VNews about Stocks
p880
sg66
I0
sg67
VU.S.
p881
sg69
V088253
p882
sg71
Vhttp://pbs.twimg.com/profile_images/562292381764952064/mVtp0UmJ_normal.jpeg
p883
sg73
I00
sg74
I00
sg75
Vhttp://abs.twimg.com/images/themes/theme3/bg.gif
p884
sg77
VNewsToDesk
p885
sg79
Ven
p886
sg81
I00
sg82
I0
sg83
VBreakingStocksNews
p887
sg85
I00
sg86
Nsg87
VSat Feb 15 05:49:10 +0000 2014
p888
sg89
I00
sg90
VEastern Time (US & Canada)
p889
sg92
I00
sg93
I00
sg94
I00
ssg95
I00
sg96
g876
sg97
I516
sg98
g877
sg99
g878
sg100
I00
sg101
I85
sg102
I01
sg103
I-18000
sg104
I182019
sg105
g880
sg106
I0
sg107
g881
sg108
g882
sg109
g883
sg110
I00
sg111
I00
sg112
g879
sg113
g884
sg114
g885
sg115
g886
sg116
I00
sg117
I00
sg118
I0
sg119
g887
sg120
Nsg121
g122
(S'\x07\xde\x02\x0f\x051\n\x00\x00\x00'
p890
tp891
Rp892
sg126
g875
sg127
g889
sg128
I00
sg129
I00
sg130
I00
sbsg131
Nsg29
L662500452953649152L
sg132
I0
sg133
VStockNewsWires
p893
sg115
Ven
p894
sg136
g867
sg121
g122
(S'\x07\xdf\x0b\x06\x05\x17\x0b\x00\x00\x00'
p895
tp896
Rp897
sg39
(dp898
g141
Nsg142
I00
sg143
V$CMCO:\u000a\u000aBB&amp;T Corp. Expects Columbus McKinnon Corp. (CMCO) to Earn \u2026:\u000a\u000ahttps://t.co/BO9acq1KcA
p899
sg145
I00
sg146
Nsg45
L662500452953649152L
sg147
I0
sg148
V<a href="http://www.stocknewswires.com" rel="nofollow">StockNewsWires</a>
p900
sg150
I00
sg151
Nsg53
(dp901
g153
(lp902
(dp903
g156
(lp904
I0
aI5
asg143
VCMCO
p905
sasg159
(lp906
sg161
(lp907
sg35
(lp908
(dp909
g86
Vhttps://t.co/BO9acq1KcA
p910
sg156
(lp911
I74
aI97
asg167
Vhttp://StockNewsHour.com/cmco-bbt-corp-expects-columbus-mckinnon-corp-cmco-to-earn/
p912
sg169
VStockNewsHour.com/cmco-bbt-corp-\u2026
p913
sassg171
Nsg172
Nsg173
I0
sg57
V662500452953649152
p914
sg175
I00
sg176
g874
sg177
Nsg178
Nsg179
I00
sg79
g894
sg87
VFri Nov 06 05:23:11 +0000 2015
p915
sg181
Nsg182
Nsg183
(dp916
g185
Ven
p917
sg187
Vrecent
p918
sssg189
g916
sg190
Nsg191
Nsg31
g901
sg192
Nsg193
Nsg99
g914
sg194
I00
sg195
Nsg196
I0
sg197
Nsbag0
(g4
g5
Ntp919
Rp920
(dp921
g9
I00
sg10
Nsg11
I00
sg12
V$CMCO:\u000a\u000aSeaport Global Securities Issues Q1 2016 Earnings Forecast for \u2026:\u000a\u000ahttps://t.co/tfkRcjZrLj
p922
sg14
Vhttp://www.newsflowing.com
p923
sg16
I00
sg17
I00
sg18
Nsg19
g0
(g20
g5
Ntp924
Rp925
(dp926
g24
I00
sg25
I00
sg26
I01
sg27
VE6F6F9
p927
sg29
L2342215530L
sg30
I00
sg31
(dp928
g33
(dp929
g35
(lp930
sssg37
Vhttps://pbs.twimg.com/profile_images/544036492876591104/7QJIB-XK_normal.jpeg
p931
sg39
(dp932
g41
I00
sg42
I00
sg43
I01
sg44
I00
sg45
L2342215530L
sg46
Vhttps://abs.twimg.com/images/themes/theme17/bg.gif
p933
sg48
I00
sg49
V333333
p934
sg51
g931
sg52
g927
sg53
g928
sg54
I465
sg55
VDBE9ED
p935
sg57
V2342215530
p936
sg59
VDBE9ED
p937
sg61
I89
sg62
I00
sg63
I-14400
sg64
I193000
sg33
g217
sg66
I0
sg67
g217
sg69
VCC3366
p938
sg71
Vhttp://pbs.twimg.com/profile_images/544036492876591104/7QJIB-XK_normal.jpeg
p939
sg73
I00
sg74
I00
sg75
Vhttp://abs.twimg.com/images/themes/theme17/bg.gif
p940
sg77
Vnewswithvalue
p941
sg79
Ven
p942
sg81
I00
sg82
I0
sg83
VBreaking News Now
p943
sg85
I00
sg86
Nsg87
VThu Feb 13 16:14:12 +0000 2014
p944
sg89
I00
sg90
VAtlantic Time (Canada)
p945
sg92
I00
sg93
I00
sg94
I00
ssg95
I00
sg96
g934
sg97
I465
sg98
g935
sg99
g936
sg100
I00
sg101
I89
sg102
I00
sg103
I-14400
sg104
I193000
sg105
g217
sg106
I0
sg107
g217
sg108
g938
sg109
g939
sg110
I00
sg111
I00
sg112
g937
sg113
g940
sg114
g941
sg115
g942
sg116
I00
sg117
I00
sg118
I0
sg119
g943
sg120
Nsg121
g122
(S'\x07\xde\x02\r\x10\x0e\x0c\x00\x00\x00'
p946
tp947
Rp948
sg126
g933
sg127
g945
sg128
I00
sg129
I00
sg130
I00
sbsg131
Nsg29
L662499946587930624L
sg132
I0
sg133
VNFIG
p949
sg115
Ven
p950
sg136
g925
sg121
g122
(S'\x07\xdf\x0b\x06\x05\x15\n\x00\x00\x00'
p951
tp952
Rp953
sg39
(dp954
g141
Nsg142
I00
sg143
V$CMCO:\u000a\u000aSeaport Global Securities Issues Q1 2016 Earnings Forecast for \u2026:\u000a\u000ahttps://t.co/tfkRcjZrLj
p955
sg145
I00
sg146
Nsg45
L662499946587930624L
sg147
I0
sg148
V<a href="http://www.newsflowing.com" rel="nofollow">NFIG</a>
p956
sg150
I00
sg151
Nsg53
(dp957
g153
(lp958
(dp959
g156
(lp960
I0
aI5
asg143
VCMCO
p961
sasg159
(lp962
sg161
(lp963
sg35
(lp964
(dp965
g86
Vhttps://t.co/tfkRcjZrLj
p966
sg156
(lp967
I75
aI98
asg167
Vhttp://StockNewsHour.com/cmco-seaport-global-securities-issues-q1-2016-earnings-forecast-for/
p968
sg169
VStockNewsHour.com/cmco-seaport-g\u2026
p969
sassg171
Nsg172
Nsg173
I0
sg57
V662499946587930624
p970
sg175
I00
sg176
g932
sg177
Nsg178
Nsg179
I00
sg79
g950
sg87
VFri Nov 06 05:21:10 +0000 2015
p971
sg181
Nsg182
Nsg183
(dp972
g185
Ven
p973
sg187
Vrecent
p974
sssg189
g972
sg190
Nsg191
Nsg31
g957
sg192
Nsg193
Nsg99
g970
sg194
I00
sg195
Nsg196
I0
sg197
Nsbag0
(g4
g5
Ntp975
Rp976
(dp977
g9
I00
sg10
Nsg11
I00
sg12
VBB&amp;T Corp. Expects Columbus McKinnon Corp. $CMCO to Earn FY2016 Earnings of $1.62 Per Share https://t.co/5uQQNwAivz
p978
sg14
Vhttp://ifttt.com
p979
sg16
I00
sg17
I00
sg18
Nsg19
g0
(g20
g5
Ntp980
Rp981
(dp982
g24
I00
sg25
I00
sg26
I01
sg27
VDDEEF6
p983
sg29
L2525892205L
sg30
I00
sg31
(dp984
g86
(dp985
g35
(lp986
(dp987
g86
Vhttp://t.co/oT0s8pX8T2
p988
sg156
(lp989
I0
aI22
asg167
Vhttp://www.intercooleronline.com
p990
sg169
Vintercooleronline.com
p991
sassg33
(dp992
g35
(lp993
sssg37
Vhttps://pbs.twimg.com/profile_images/471038514675474432/wc-6YgXp_normal.jpeg
p994
sg39
(dp995
g41
I00
sg42
I00
sg43
I01
sg44
I00
sg45
L2525892205L
sg46
Vhttps://abs.twimg.com/images/themes/theme1/bg.png
p996
sg48
I00
sg49
V333333
p997
sg51
g994
sg52
g983
sg53
g984
sg54
I414
sg55
VC0DEED
p998
sg57
V2525892205
p999
sg59
VC0DEED
p1000
sg61
I22
sg62
I00
sg63
Nsg64
I117976
sg33
g217
sg66
I6
sg67
VFlorida
p1001
sg69
V0084B4
p1002
sg71
Vhttp://pbs.twimg.com/profile_images/471038514675474432/wc-6YgXp_normal.jpeg
p1003
sg73
I00
sg74
I00
sg320
Vhttps://pbs.twimg.com/profile_banners/2525892205/1401139391
p1004
sg75
Vhttp://abs.twimg.com/images/themes/theme1/bg.png
p1005
sg77
Vintercooleronli
p1006
sg79
Ven
p1007
sg81
I00
sg82
I0
sg83
VInterCooler
p1008
sg85
I00
sg86
Vhttp://t.co/oT0s8pX8T2
p1009
sg87
VMon May 26 21:20:18 +0000 2014
p1010
sg89
I00
sg90
Nsg92
I00
sg93
I01
sg94
I00
ssg95
I00
sg96
g997
sg97
I414
sg98
g998
sg99
g999
sg100
I00
sg101
I22
sg102
I00
sg103
Nsg104
I117976
sg105
g217
sg106
I6
sg107
g1001
sg108
g1002
sg109
g1003
sg110
I00
sg111
I00
sg112
g1000
sg329
g1004
sg113
g1005
sg114
g1006
sg115
g1007
sg116
I00
sg117
I00
sg118
I0
sg119
g1008
sg120
g1009
sg121
g122
(S'\x07\xde\x05\x1a\x15\x14\x12\x00\x00\x00'
p1011
tp1012
Rp1013
sg126
g996
sg127
Nsg128
I00
sg129
I01
sg130
I00
sbsg131
Nsg29
L662499671919693824L
sg132
I0
sg133
VIFTTT
p1014
sg115
Ven
p1015
sg136
g981
sg121
g122
(S'\x07\xdf\x0b\x06\x05\x14\x05\x00\x00\x00'
p1016
tp1017
Rp1018
sg39
(dp1019
g141
Nsg142
I00
sg143
g978
sg145
I00
sg146
Nsg45
L662499671919693824L
sg147
I0
sg148
V<a href="http://ifttt.com" rel="nofollow">IFTTT</a>
p1020
sg150
I00
sg151
Nsg53
(dp1021
g153
(lp1022
(dp1023
g156
(lp1024
I47
aI52
asg143
VCMCO
p1025
sasg159
(lp1026
sg161
(lp1027
sg35
(lp1028
(dp1029
g86
Vhttps://t.co/5uQQNwAivz
p1030
sg156
(lp1031
I96
aI119
asg167
Vhttp://ift.tt/1NgtQFX
p1032
sg169
Vift.tt/1NgtQFX
p1033
sassg171
Nsg172
Nsg173
I0
sg57
V662499671919693824
p1034
sg175
I00
sg176
g995
sg177
Nsg178
Nsg179
I00
sg79
g1015
sg87
VFri Nov 06 05:20:05 +0000 2015
p1035
sg181
Nsg182
Nsg183
(dp1036
g185
Ven
p1037
sg187
Vrecent
p1038
sssg189
g1036
sg190
Nsg191
Nsg31
g1021
sg192
Nsg193
Nsg99
g1034
sg194
I00
sg195
Nsg196
I0
sg197
Nsbag0
(g4
g5
Ntp1039
Rp1040
(dp1041
g9
I00
sg10
Nsg11
I00
sg12
VSeaport Global Securities Expects Columbus McKinnon Corp. $CMCO to Earn FY2016 Earnings of $1.73 Per Share https://t.co/0herW9GTVJ
p1042
sg14
Vhttp://ifttt.com
p1043
sg16
I00
sg17
I00
sg18
Nsg19
g0
(g20
g5
Ntp1044
Rp1045
(dp1046
g24
I00
sg25
I00
sg26
I01
sg27
VDDEEF6
p1047
sg29
L2525892205L
sg30
I00
sg31
(dp1048
g86
(dp1049
g35
(lp1050
(dp1051
g86
Vhttp://t.co/oT0s8pX8T2
p1052
sg156
(lp1053
I0
aI22
asg167
Vhttp://www.intercooleronline.com
p1054
sg169
Vintercooleronline.com
p1055
sassg33
(dp1056
g35
(lp1057
sssg37
Vhttps://pbs.twimg.com/profile_images/471038514675474432/wc-6YgXp_normal.jpeg
p1058
sg39
(dp1059
g41
I00
sg42
I00
sg43
I01
sg44
I00
sg45
L2525892205L
sg46
Vhttps://abs.twimg.com/images/themes/theme1/bg.png
p1060
sg48
I00
sg49
V333333
p1061
sg51
g1058
sg52
g1047
sg53
g1048
sg54
I414
sg55
VC0DEED
p1062
sg57
V2525892205
p1063
sg59
VC0DEED
p1064
sg61
I22
sg62
I00
sg63
Nsg64
I117976
sg33
g217
sg66
I6
sg67
VFlorida
p1065
sg69
V0084B4
p1066
sg71
Vhttp://pbs.twimg.com/profile_images/471038514675474432/wc-6YgXp_normal.jpeg
p1067
sg73
I00
sg74
I00
sg320
Vhttps://pbs.twimg.com/profile_banners/2525892205/1401139391
p1068
sg75
Vhttp://abs.twimg.com/images/themes/theme1/bg.png
p1069
sg77
Vintercooleronli
p1070
sg79
Ven
p1071
sg81
I00
sg82
I0
sg83
VInterCooler
p1072
sg85
I00
sg86
Vhttp://t.co/oT0s8pX8T2
p1073
sg87
VMon May 26 21:20:18 +0000 2014
p1074
sg89
I00
sg90
Nsg92
I00
sg93
I01
sg94
I00
ssg95
I00
sg96
g1061
sg97
I414
sg98
g1062
sg99
g1063
sg100
I00
sg101
I22
sg102
I00
sg103
Nsg104
I117976
sg105
g217
sg106
I6
sg107
g1065
sg108
g1066
sg109
g1067
sg110
I00
sg111
I00
sg112
g1064
sg329
g1068
sg113
g1069
sg114
g1070
sg115
g1071
sg116
I00
sg117
I00
sg118
I0
sg119
g1072
sg120
g1073
sg121
g122
(S'\x07\xde\x05\x1a\x15\x14\x12\x00\x00\x00'
p1075
tp1076
Rp1077
sg126
g1060
sg127
Nsg128
I00
sg129
I01
sg130
I00
sbsg131
Nsg29
L662499669864546304L
sg132
I0
sg133
VIFTTT
p1078
sg115
Ven
p1079
sg136
g1045
sg121
g122
(S'\x07\xdf\x0b\x06\x05\x14\x04\x00\x00\x00'
p1080
tp1081
Rp1082
sg39
(dp1083
g141
Nsg142
I00
sg143
g1042
sg145
I00
sg146
Nsg45
L662499669864546304L
sg147
I0
sg148
V<a href="http://ifttt.com" rel="nofollow">IFTTT</a>
p1084
sg150
I00
sg151
Nsg53
(dp1085
g153
(lp1086
(dp1087
g156
(lp1088
I58
aI63
asg143
VCMCO
p1089
sasg159
(lp1090
sg161
(lp1091
sg35
(lp1092
(dp1093
g86
Vhttps://t.co/0herW9GTVJ
p1094
sg156
(lp1095
I107
aI130
asg167
Vhttp://ift.tt/20yMFhs
p1096
sg169
Vift.tt/20yMFhs
p1097
sassg171
Nsg172
Nsg173
I0
sg57
V662499669864546304
p1098
sg175
I00
sg176
g1059
sg177
Nsg178
Nsg179
I00
sg79
g1079
sg87
VFri Nov 06 05:20:04 +0000 2015
p1099
sg181
Nsg182
Nsg183
(dp1100
g185
Ven
p1101
sg187
Vrecent
p1102
sssg189
g1100
sg190
Nsg191
Nsg31
g1085
sg192
Nsg193
Nsg99
g1098
sg194
I00
sg195
Nsg196
I0
sg197
Nsbag0
(g4
g5
Ntp1103
Rp1104
(dp1105
g9
I00
sg10
Nsg11
I00
sg12
VBB&amp;T Corp. Weighs in on Columbus McKinnon Corp.\u2019s FY2017 Earnings $CMCO https://t.co/Im6SpI37xf
p1106
sg14
Vhttp://ifttt.com
p1107
sg16
I00
sg17
I00
sg18
Nsg19
g0
(g20
g5
Ntp1108
Rp1109
(dp1110
g24
I00
sg25
I00
sg26
I01
sg27
VDDEEF6
p1111
sg29
L2525892205L
sg30
I00
sg31
(dp1112
g86
(dp1113
g35
(lp1114
(dp1115
g86
Vhttp://t.co/oT0s8pX8T2
p1116
sg156
(lp1117
I0
aI22
asg167
Vhttp://www.intercooleronline.com
p1118
sg169
Vintercooleronline.com
p1119
sassg33
(dp1120
g35
(lp1121
sssg37
Vhttps://pbs.twimg.com/profile_images/471038514675474432/wc-6YgXp_normal.jpeg
p1122
sg39
(dp1123
g41
I00
sg42
I00
sg43
I01
sg44
I00
sg45
L2525892205L
sg46
Vhttps://abs.twimg.com/images/themes/theme1/bg.png
p1124
sg48
I00
sg49
V333333
p1125
sg51
g1122
sg52
g1111
sg53
g1112
sg54
I414
sg55
VC0DEED
p1126
sg57
V2525892205
p1127
sg59
VC0DEED
p1128
sg61
I22
sg62
I00
sg63
Nsg64
I117976
sg33
g217
sg66
I6
sg67
VFlorida
p1129
sg69
V0084B4
p1130
sg71
Vhttp://pbs.twimg.com/profile_images/471038514675474432/wc-6YgXp_normal.jpeg
p1131
sg73
I00
sg74
I00
sg320
Vhttps://pbs.twimg.com/profile_banners/2525892205/1401139391
p1132
sg75
Vhttp://abs.twimg.com/images/themes/theme1/bg.png
p1133
sg77
Vintercooleronli
p1134
sg79
Ven
p1135
sg81
I00
sg82
I0
sg83
VInterCooler
p1136
sg85
I00
sg86
Vhttp://t.co/oT0s8pX8T2
p1137
sg87
VMon May 26 21:20:18 +0000 2014
p1138
sg89
I00
sg90
Nsg92
I00
sg93
I01
sg94
I00
ssg95
I00
sg96
g1125
sg97
I414
sg98
g1126
sg99
g1127
sg100
I00
sg101
I22
sg102
I00
sg103
Nsg104
I117976
sg105
g217
sg106
I6
sg107
g1129
sg108
g1130
sg109
g1131
sg110
I00
sg111
I00
sg112
g1128
sg329
g1132
sg113
g1133
sg114
g1134
sg115
g1135
sg116
I00
sg117
I00
sg118
I0
sg119
g1136
sg120
g1137
sg121
g122
(S'\x07\xde\x05\x1a\x15\x14\x12\x00\x00\x00'
p1139
tp1140
Rp1141
sg126
g1124
sg127
Nsg128
I00
sg129
I01
sg130
I00
sbsg131
Nsg29
L662499667930980352L
sg132
I0
sg133
VIFTTT
p1142
sg115
Ven
p1143
sg136
g1109
sg121
g122
(S'\x07\xdf\x0b\x06\x05\x14\x04\x00\x00\x00'
p1144
tp1145
Rp1146
sg39
(dp1147
g141
Nsg142
I00
sg143
g1106
sg145
I00
sg146
Nsg45
L662499667930980352L
sg147
I0
sg148
V<a href="http://ifttt.com" rel="nofollow">IFTTT</a>
p1148
sg150
I00
sg151
Nsg53
(dp1149
g153
(lp1150
(dp1151
g156
(lp1152
I70
aI75
asg143
VCMCO
p1153
sasg159
(lp1154
sg161
(lp1155
sg35
(lp1156
(dp1157
g86
Vhttps://t.co/Im6SpI37xf
p1158
sg156
(lp1159
I76
aI99
asg167
Vhttp://ift.tt/1NgtP4Z
p1160
sg169
Vift.tt/1NgtP4Z
p1161
sassg171
Nsg172
Nsg173
I0
sg57
V662499667930980352
p1162
sg175
I00
sg176
g1123
sg177
Nsg178
Nsg179
I00
sg79
g1143
sg87
VFri Nov 06 05:20:04 +0000 2015
p1163
sg181
Nsg182
Nsg183
(dp1164
g185
Ven
p1165
sg187
Vrecent
p1166
sssg189
g1164
sg190
Nsg191
Nsg31
g1149
sg192
Nsg193
Nsg99
g1162
sg194
I00
sg195
Nsg196
I0
sg197
Nsbag0
(g4
g5
Ntp1167
Rp1168
(dp1169
g9
I00
sg10
Nsg11
I00
sg12
VAnalysts Set Expectations for Columbus McKinnon Corp.\u2019s Q4 2015 Earnings $CMCO https://t.co/6PYGNHwKBw
p1170
sg14
Vhttp://ifttt.com
p1171
sg16
I00
sg17
I00
sg18
Nsg19
g0
(g20
g5
Ntp1172
Rp1173
(dp1174
g24
I00
sg25
I00
sg26
I01
sg27
VC0DFEC
p1175
sg29
L2181281054L
sg30
I00
sg31
(dp1176
g86
(dp1177
g35
(lp1178
(dp1179
g86
Vhttp://t.co/NYpmdUJnIe
p1180
sg156
(lp1181
I0
aI22
asg167
Vhttp://www.wkrb13.com
p1182
sg169
Vwkrb13.com
p1183
sassg33
(dp1184
g35
(lp1185
(dp1186
g86
Vhttp://t.co/n4QyKK8afr
p1187
sg156
(lp1188
I31
aI53
asg167
Vhttp://WKRB13.com
p1189
sg169
VWKRB13.com
p1190
sasssg37
Vhttps://pbs.twimg.com/profile_images/378800000709495912/4d5b1653db87aeb8c4685ea3febc9ab0_normal.png
p1191
sg39
(dp1192
g41
I00
sg42
I00
sg43
I01
sg44
I00
sg45
L2181281054L
sg46
Vhttps://abs.twimg.com/images/themes/theme15/bg.png
p1193
sg48
I00
sg49
V333333
p1194
sg51
g1191
sg52
g1175
sg53
g1176
sg54
I506
sg55
VA8C7F7
p1195
sg57
V2181281054
p1196
sg59
V022330
p1197
sg61
I73
sg62
I00
sg63
Nsg64
I299436
sg33
VWKRB News - News and Analysis. http://t.co/n4QyKK8afr
p1198
sg66
I8
sg67
g217
sg69
V0084B4
p1199
sg71
Vhttp://pbs.twimg.com/profile_images/378800000709495912/4d5b1653db87aeb8c4685ea3febc9ab0_normal.png
p1200
sg73
I00
sg74
I00
sg75
Vhttp://abs.twimg.com/images/themes/theme15/bg.png
p1201
sg77
VWKRBNews
p1202
sg79
Ven
p1203
sg81
I00
sg82
I0
sg83
VWKRB News
p1204
sg85
I00
sg86
Vhttp://t.co/NYpmdUJnIe
p1205
sg87
VFri Nov 08 02:17:02 +0000 2013
p1206
sg89
I00
sg90
Nsg92
I00
sg93
I00
sg94
I00
ssg95
I00
sg96
g1194
sg97
I506
sg98
g1195
sg99
g1196
sg100
I00
sg101
I73
sg102
I00
sg103
Nsg104
I299436
sg105
g1198
sg106
I8
sg107
g217
sg108
g1199
sg109
g1200
sg110
I00
sg111
I00
sg112
g1197
sg113
g1201
sg114
g1202
sg115
g1203
sg116
I00
sg117
I00
sg118
I0
sg119
g1204
sg120
g1205
sg121
g122
(S'\x07\xdd\x0b\x08\x02\x11\x02\x00\x00\x00'
p1207
tp1208
Rp1209
sg126
g1193
sg127
Nsg128
I00
sg129
I00
sg130
I00
sbsg131
Nsg29
L662499583075962880L
sg132
I0
sg133
VIFTTT
p1210
sg115
Ven
p1211
sg136
g1173
sg121
g122
(S'\x07\xdf\x0b\x06\x05\x13+\x00\x00\x00'
p1212
tp1213
Rp1214
sg39
(dp1215
g141
Nsg142
I00
sg143
g1170
sg145
I00
sg146
Nsg45
L662499583075962880L
sg147
I0
sg148
V<a href="http://ifttt.com" rel="nofollow">IFTTT</a>
p1216
sg150
I00
sg151
Nsg53
(dp1217
g153
(lp1218
(dp1219
g156
(lp1220
I73
aI78
asg143
VCMCO
p1221
sasg159
(lp1222
sg161
(lp1223
sg35
(lp1224
(dp1225
g86
Vhttps://t.co/6PYGNHwKBw
p1226
sg156
(lp1227
I79
aI102
asg167
Vhttp://ift.tt/1Nw0LLe
p1228
sg169
Vift.tt/1Nw0LLe
p1229
sassg171
Nsg172
Nsg173
I0
sg57
V662499583075962880
p1230
sg175
I00
sg176
g1192
sg177
Nsg178
Nsg179
I00
sg79
g1211
sg87
VFri Nov 06 05:19:43 +0000 2015
p1231
sg181
Nsg182
Nsg183
(dp1232
g185
Ven
p1233
sg187
Vrecent
p1234
sssg189
g1232
sg190
Nsg191
Nsg31
g1217
sg192
Nsg193
Nsg99
g1230
sg194
I00
sg195
Nsg196
I0
sg197
Nsbag0
(g4
g5
Ntp1235
Rp1236
(dp1237
g9
I00
sg10
Nsg11
I00
sg12
VAnalyst Reduces Q1 2016 EPS Estimates for Columbus McKinnon Corp. $CMCO https://t.co/SC0bM5n1jP
p1238
sg14
Vhttp://ifttt.com
p1239
sg16
I00
sg17
I00
sg18
Nsg19
g0
(g20
g5
Ntp1240
Rp1241
(dp1242
g24
I00
sg25
I00
sg26
I01
sg27
VC0DFEC
p1243
sg29
L2181281054L
sg30
I00
sg31
(dp1244
g86
(dp1245
g35
(lp1246
(dp1247
g86
Vhttp://t.co/NYpmdUJnIe
p1248
sg156
(lp1249
I0
aI22
asg167
Vhttp://www.wkrb13.com
p1250
sg169
Vwkrb13.com
p1251
sassg33
(dp1252
g35
(lp1253
(dp1254
g86
Vhttp://t.co/n4QyKK8afr
p1255
sg156
(lp1256
I31
aI53
asg167
Vhttp://WKRB13.com
p1257
sg169
VWKRB13.com
p1258
sasssg37
Vhttps://pbs.twimg.com/profile_images/378800000709495912/4d5b1653db87aeb8c4685ea3febc9ab0_normal.png
p1259
sg39
(dp1260
g41
I00
sg42
I00
sg43
I01
sg44
I00
sg45
L2181281054L
sg46
Vhttps://abs.twimg.com/images/themes/theme15/bg.png
p1261
sg48
I00
sg49
V333333
p1262
sg51
g1259
sg52
g1243
sg53
g1244
sg54
I506
sg55
VA8C7F7
p1263
sg57
V2181281054
p1264
sg59
V022330
p1265
sg61
I73
sg62
I00
sg63
Nsg64
I299436
sg33
VWKRB News - News and Analysis. http://t.co/n4QyKK8afr
p1266
sg66
I8
sg67
g217
sg69
V0084B4
p1267
sg71
Vhttp://pbs.twimg.com/profile_images/378800000709495912/4d5b1653db87aeb8c4685ea3febc9ab0_normal.png
p1268
sg73
I00
sg74
I00
sg75
Vhttp://abs.twimg.com/images/themes/theme15/bg.png
p1269
sg77
VWKRBNews
p1270
sg79
Ven
p1271
sg81
I00
sg82
I0
sg83
VWKRB News
p1272
sg85
I00
sg86
Vhttp://t.co/NYpmdUJnIe
p1273
sg87
VFri Nov 08 02:17:02 +0000 2013
p1274
sg89
I00
sg90
Nsg92
I00
sg93
I00
sg94
I00
ssg95
I00
sg96
g1262
sg97
I506
sg98
g1263
sg99
g1264
sg100
I00
sg101
I73
sg102
I00
sg103
Nsg104
I299436
sg105
g1266
sg106
I8
sg107
g217
sg108
g1267
sg109
g1268
sg110
I00
sg111
I00
sg112
g1265
sg113
g1269
sg114
g1270
sg115
g1271
sg116
I00
sg117
I00
sg118
I0
sg119
g1272
sg120
g1273
sg121
g122
(S'\x07\xdd\x0b\x08\x02\x11\x02\x00\x00\x00'
p1275
tp1276
Rp1277
sg126
g1261
sg127
Nsg128
I00
sg129
I00
sg130
I00
sbsg131
Nsg29
L662499581322797056L
sg132
I0
sg133
VIFTTT
p1278
sg115
Ven
p1279
sg136
g1241
sg121
g122
(S'\x07\xdf\x0b\x06\x05\x13+\x00\x00\x00'
p1280
tp1281
Rp1282
sg39
(dp1283
g141
Nsg142
I00
sg143
g1238
sg145
I00
sg146
Nsg45
L662499581322797056L
sg147
I0
sg148
V<a href="http://ifttt.com" rel="nofollow">IFTTT</a>
p1284
sg150
I00
sg151
Nsg53
(dp1285
g153
(lp1286
(dp1287
g156
(lp1288
I66
aI71
asg143
VCMCO
p1289
sasg159
(lp1290
sg161
(lp1291
sg35
(lp1292
(dp1293
g86
Vhttps://t.co/SC0bM5n1jP
p1294
sg156
(lp1295
I72
aI95
asg167
Vhttp://ift.tt/1SuiFxM
p1296
sg169
Vift.tt/1SuiFxM
p1297
sassg171
Nsg172
Nsg173
I0
sg57
V662499581322797056
p1298
sg175
I00
sg176
g1260
sg177
Nsg178
Nsg179
I00
sg79
g1279
sg87
VFri Nov 06 05:19:43 +0000 2015
p1299
sg181
Nsg182
Nsg183
(dp1300
g185
Ven
p1301
sg187
Vrecent
p1302
sssg189
g1300
sg190
Nsg191
Nsg31
g1285
sg192
Nsg193
Nsg99
g1298
sg194
I00
sg195
Nsg196
I0
sg197
Nsbag0
(g4
g5
Ntp1303
Rp1304
(dp1305
g9
I00
sg10
Nsg11
I00
sg12
V$CMCO:\u000a\u000aAnalysts Set Expectations for Columbus McKinnon Corp.\u2019s Q4 2015 \u2026:\u000a\u000ahttps://t.co/PX6CUnVClZ
p1306
sg14
Vhttp://www.stocknewswires.com
p1307
sg16
I00
sg17
I00
sg18
Nsg19
g0
(g20
g5
Ntp1308
Rp1309
(dp1310
g24
I00
sg25
I00
sg26
I01
sg27
VE3E2DE
p1311
sg29
L2344619544L
sg30
I00
sg31
(dp1312
g33
(dp1313
g35
(lp1314
sssg37
Vhttps://pbs.twimg.com/profile_images/562292381764952064/mVtp0UmJ_normal.jpeg
p1315
sg39
(dp1316
g41
I00
sg42
I00
sg43
I01
sg44
I00
sg45
L2344619544L
sg46
Vhttps://abs.twimg.com/images/themes/theme3/bg.gif
p1317
sg48
I00
sg49
V634047
p1318
sg51
g1315
sg52
g1311
sg53
g1312
sg54
I516
sg55
VD3D2CF
p1319
sg57
V2344619544
p1320
sg59
VEDECE9
p1321
sg61
I85
sg62
I01
sg63
I-18000
sg64
I182019
sg33
VNews about Stocks
p1322
sg66
I0
sg67
VU.S.
p1323
sg69
V088253
p1324
sg71
Vhttp://pbs.twimg.com/profile_images/562292381764952064/mVtp0UmJ_normal.jpeg
p1325
sg73
I00
sg74
I00
sg75
Vhttp://abs.twimg.com/images/themes/theme3/bg.gif
p1326
sg77
VNewsToDesk
p1327
sg79
Ven
p1328
sg81
I00
sg82
I0
sg83
VBreakingStocksNews
p1329
sg85
I00
sg86
Nsg87
VSat Feb 15 05:49:10 +0000 2014
p1330
sg89
I00
sg90
VEastern Time (US & Canada)
p1331
sg92
I00
sg93
I00
sg94
I00
ssg95
I00
sg96
g1318
sg97
I516
sg98
g1319
sg99
g1320
sg100
I00
sg101
I85
sg102
I01
sg103
I-18000
sg104
I182019
sg105
g1322
sg106
I0
sg107
g1323
sg108
g1324
sg109
g1325
sg110
I00
sg111
I00
sg112
g1321
sg113
g1326
sg114
g1327
sg115
g1328
sg116
I00
sg117
I00
sg118
I0
sg119
g1329
sg120
Nsg121
g122
(S'\x07\xde\x02\x0f\x051\n\x00\x00\x00'
p1332
tp1333
Rp1334
sg126
g1317
sg127
g1331
sg128
I00
sg129
I00
sg130
I00
sbsg131
Nsg29
L662499441329442817L
sg132
I0
sg133
VStockNewsWires
p1335
sg115
Ven
p1336
sg136
g1309
sg121
g122
(S'\x07\xdf\x0b\x06\x05\x13\n\x00\x00\x00'
p1337
tp1338
Rp1339
sg39
(dp1340
g141
Nsg142
I00
sg143
V$CMCO:\u000a\u000aAnalysts Set Expectations for Columbus McKinnon Corp.\u2019s Q4 2015 \u2026:\u000a\u000ahttps://t.co/PX6CUnVClZ
p1341
sg145
I00
sg146
Nsg45
L662499441329442817L
sg147
I0
sg148
V<a href="http://www.stocknewswires.com" rel="nofollow">StockNewsWires</a>
p1342
sg150
I00
sg151
Nsg53
(dp1343
g153
(lp1344
(dp1345
g156
(lp1346
I0
aI5
asg143
VCMCO
p1347
sasg159
(lp1348
sg161
(lp1349
sg35
(lp1350
(dp1351
g86
Vhttps://t.co/PX6CUnVClZ
p1352
sg156
(lp1353
I76
aI99
asg167
Vhttp://StockNewsHour.com/cmco-analysts-set-expectations-for-columbus-mckinnon-corp-s-q4-2015/
p1354
sg169
VStockNewsHour.com/cmco-analysts-\u2026
p1355
sassg171
Nsg172
Nsg173
I0
sg57
V662499441329442817
p1356
sg175
I00
sg176
g1316
sg177
Nsg178
Nsg179
I00
sg79
g1336
sg87
VFri Nov 06 05:19:10 +0000 2015
p1357
sg181
Nsg182
Nsg183
(dp1358
g185
Ven
p1359
sg187
Vrecent
p1360
sssg189
g1358
sg190
Nsg191
Nsg31
g1343
sg192
Nsg193
Nsg99
g1356
sg194
I00
sg195
Nsg196
I0
sg197
Nsbag0
(g4
g5
Ntp1361
Rp1362
(dp1363
g9
I00
sg10
Nsg11
I00
sg12
VSeaport Global Securities Issues Q1 2016 Earnings Forecast for Columbus McKinnon Corp. $CMCO https://t.co/0oHQCbHWSC
p1364
sg14
Vhttp://ifttt.com
p1365
sg16
I00
sg17
I00
sg18
Nsg19
g0
(g20
g5
Ntp1366
Rp1367
(dp1368
g24
I00
sg25
I00
sg26
I01
sg27
VDDEEF6
p1369
sg29
I565538332
sg30
I00
sg31
(dp1370
g86
(dp1371
g35
(lp1372
(dp1373
g86
Vhttp://t.co/u5AEanTvP3
p1374
sg156
(lp1375
I0
aI22
asg167
Vhttp://www.zolmax.com
p1376
sg169
Vzolmax.com
p1377
sassg33
(dp1378
g35
(lp1379
(dp1380
g86
Vhttp://t.co/SHZtZA5fhb
p1381
sg156
(lp1382
I14
aI36
asg167
Vhttp://Zolmax.com
p1383
sg169
VZolmax.com
p1384
sasssg37
Vhttps://pbs.twimg.com/profile_images/2172961480/zolmax_big_normal.jpg
p1385
sg39
(dp1386
g41
I00
sg42
I00
sg43
I01
sg44
I00
sg45
I565538332
sg46
Vhttps://abs.twimg.com/images/themes/theme1/bg.png
p1387
sg48
I00
sg49
V333333
p1388
sg51
g1385
sg52
g1369
sg53
g1370
sg54
I424
sg55
VC0DEED
p1389
sg57
V565538332
p1390
sg59
VC0DEED
p1391
sg61
I31
sg62
I00
sg63
Nsg64
I105006
sg33
VZolmax News - http://t.co/SHZtZA5fhb
p1392
sg66
I5
sg67
g217
sg69
V0084B4
p1393
sg71
Vhttp://pbs.twimg.com/profile_images/2172961480/zolmax_big_normal.jpg
p1394
sg73
I00
sg74
I00
sg75
Vhttp://abs.twimg.com/images/themes/theme1/bg.png
p1395
sg77
VZolmaxNews
p1396
sg79
Ven
p1397
sg81
I00
sg82
I0
sg83
VZolmax News
p1398
sg85
I00
sg86
Vhttp://t.co/u5AEanTvP3
p1399
sg87
VSat Apr 28 15:46:12 +0000 2012
p1400
sg89
I00
sg90
Nsg92
I00
sg93
I01
sg94
I00
ssg95
I00
sg96
g1388
sg97
I424
sg98
g1389
sg99
g1390
sg100
I00
sg101
I31
sg102
I00
sg103
Nsg104
I105006
sg105
g1392
sg106
I5
sg107
g217
sg108
g1393
sg109
g1394
sg110
I00
sg111
I00
sg112
g1391
sg113
g1395
sg114
g1396
sg115
g1397
sg116
I00
sg117
I00
sg118
I0
sg119
g1398
sg120
g1399
sg121
g122
(S'\x07\xdc\x04\x1c\x0f.\x0c\x00\x00\x00'
p1401
tp1402
Rp1403
sg126
g1387
sg127
Nsg128
I00
sg129
I01
sg130
I00
sbsg131
Nsg29
L662499305199165440L
sg132
I0
sg133
VIFTTT
p1404
sg115
Ven
p1405
sg136
g1367
sg121
g122
(S'\x07\xdf\x0b\x06\x05\x12%\x00\x00\x00'
p1406
tp1407
Rp1408
sg39
(dp1409
g141
Nsg142
I00
sg143
g1364
sg145
I00
sg146
Nsg45
L662499305199165440L
sg147
I0
sg148
V<a href="http://ifttt.com" rel="nofollow">IFTTT</a>
p1410
sg150
I00
sg151
Nsg53
(dp1411
g153
(lp1412
(dp1413
g156
(lp1414
I87
aI92
asg143
VCMCO
p1415
sasg159
(lp1416
sg161
(lp1417
sg35
(lp1418
(dp1419
g86
Vhttps://t.co/0oHQCbHWSC
p1420
sg156
(lp1421
I93
aI116
asg167
Vhttp://ift.tt/1SuiB0Y
p1422
sg169
Vift.tt/1SuiB0Y
p1423
sassg171
Nsg172
Nsg173
I0
sg57
V662499305199165440
p1424
sg175
I00
sg176
g1386
sg177
Nsg178
Nsg179
I00
sg79
g1405
sg87
VFri Nov 06 05:18:37 +0000 2015
p1425
sg181
Nsg182
Nsg183
(dp1426
g185
Ven
p1427
sg187
Vrecent
p1428
sssg189
g1426
sg190
Nsg191
Nsg31
g1411
sg192
Nsg193
Nsg99
g1424
sg194
I00
sg195
Nsg196
I0
sg197
Nsbag0
(g4
g5
Ntp1429
Rp1430
(dp1431
g9
I00
sg10
Nsg11
I00
sg12
VSeaport Global Securities Weighs in on Columbus McKinnon Corp.\u2019s FY2016 Earnings $CMCO https://t.co/V45zKMksAS \u2026 \u2026 https://t.co/z4FkAoo3vy
p1432
sg14
Vhttp://ifttt.com
p1433
sg16
I00
sg17
I00
sg18
Nsg19
g0
(g20
g5
Ntp1434
Rp1435
(dp1436
g24
I00
sg25
I00
sg26
I01
sg27
VDDEEF6
p1437
sg29
L4068364581L
sg30
I00
sg31
(dp1438
g33
(dp1439
g35
(lp1440
sssg37
Vhttps://pbs.twimg.com/profile_images/659743716991627264/K5OF5MSt_normal.jpg
p1441
sg39
(dp1442
g41
I00
sg42
I00
sg43
I01
sg44
I00
sg45
L4068364581L
sg46
Vhttps://abs.twimg.com/images/themes/theme1/bg.png
p1443
sg48
I00
sg49
V333333
p1444
sg51
g1441
sg52
g1437
sg53
g1438
sg54
I3
sg55
VC0DEED
p1445
sg57
V4068364581
p1446
sg59
VC0DEED
p1447
sg61
I0
sg62
I00
sg63
I-21600
sg64
I33074
sg33
VRestauranteur, Humanitarian, Television Host, Oscar-loser, King of the Forest. Can you blow my whistle?.
p1448
sg66
I0
sg67
VPhiladelphia, PA
p1449
sg69
V0084B4
p1450
sg71
Vhttp://pbs.twimg.com/profile_images/659743716991627264/K5OF5MSt_normal.jpg
p1451
sg73
I00
sg74
I00
sg320
Vhttps://pbs.twimg.com/profile_banners/4068364581/1446130069
p1452
sg75
Vhttp://abs.twimg.com/images/themes/theme1/bg.png
p1453
sg77
VfussHanna
p1454
sg79
Ven
p1455
sg81
I00
sg82
I0
sg83
VHanna
p1456
sg85
I00
sg86
Nsg87
VThu Oct 29 14:44:12 +0000 2015
p1457
sg89
I00
sg90
VCentral Time (US & Canada)
p1458
sg92
I00
sg93
I01
sg94
I00
ssg95
I00
sg96
g1444
sg97
I3
sg98
g1445
sg99
g1446
sg100
I00
sg101
I0
sg102
I00
sg103
I-21600
sg104
I33074
sg105
g1448
sg106
I0
sg107
g1449
sg108
g1450
sg109
g1451
sg110
I00
sg111
I00
sg112
g1447
sg329
g1452
sg113
g1453
sg114
g1454
sg115
g1455
sg116
I00
sg117
I00
sg118
I0
sg119
g1456
sg120
Nsg121
g122
(S'\x07\xdf\n\x1d\x0e,\x0c\x00\x00\x00'
p1459
tp1460
Rp1461
sg126
g1443
sg127
g1458
sg128
I00
sg129
I01
sg130
I00
sbsg131
Nsg29
L662107640655400960L
sg132
I0
sg133
VIFTTT
p1462
sg115
Ven
p1463
sg136
g1435
sg121
g122
(S'\x07\xdf\x0b\x05\x03\x16\x11\x00\x00\x00'
p1464
tp1465
Rp1466
sg39
(dp1467
g141
Nsg142
I00
sg143
g1432
sg145
I00
sg146
Nsg45
L662107640655400960L
sg147
I0
sg148
V<a href="http://ifttt.com" rel="nofollow">IFTTT</a>
p1468
sg150
I00
sg151
Nsg53
(dp1469
g153
(lp1470
(dp1471
g156
(lp1472
I81
aI86
asg143
VCMCO
p1473
sasg159
(lp1474
sg161
(lp1475
sg35
(lp1476
(dp1477
g86
Vhttps://t.co/V45zKMksAS
p1478
sg156
(lp1479
I87
aI110
asg167
Vhttp://ift.tt/1RVUPKC
p1480
sg169
Vift.tt/1RVUPKC
p1481
sa(dp1482
g86
Vhttps://t.co/z4FkAoo3vy
p1483
sg156
(lp1484
I115
aI138
asg167
Vhttps://goo.gl/t4fpx2
p1485
sg169
Vgoo.gl/t4fpx2
p1486
sassg171
Nsg172
Nsg173
I0
sg57
V662107640655400960
p1487
sg175
I00
sg176
g1442
sg177
Nsg178
Nsg179
I00
sg79
g1463
sg87
VThu Nov 05 03:22:17 +0000 2015
p1488
sg181
Nsg182
Nsg183
(dp1489
g185
Ven
p1490
sg187
Vrecent
p1491
sssg189
g1489
sg190
Nsg191
Nsg31
g1469
sg192
Nsg193
Nsg99
g1487
sg194
I00
sg195
Nsg196
I0
sg197
Nsbag0
(g4
g5
Ntp1492
Rp1493
(dp1494
g9
I00
sg10
Nsg11
I00
sg12
VSeaport Global Securities Weighs in on Columbus McKinnon Corp.\u2019s FY2016 Earnings $CMCO https://t.co/tmqYIGAtfy \u2026 \u2026 https://t.co/z4FkAoo3vy
p1495
sg14
Vhttp://ifttt.com
p1496
sg16
I00
sg17
I00
sg18
Nsg19
g0
(g20
g5
Ntp1497
Rp1498
(dp1499
g24
I00
sg25
I00
sg26
I01
sg27
VDDEEF6
p1500
sg29
L4068364581L
sg30
I00
sg31
(dp1501
g33
(dp1502
g35
(lp1503
sssg37
Vhttps://pbs.twimg.com/profile_images/659743716991627264/K5OF5MSt_normal.jpg
p1504
sg39
(dp1505
g41
I00
sg42
I00
sg43
I01
sg44
I00
sg45
L4068364581L
sg46
Vhttps://abs.twimg.com/images/themes/theme1/bg.png
p1506
sg48
I00
sg49
V333333
p1507
sg51
g1504
sg52
g1500
sg53
g1501
sg54
I3
sg55
VC0DEED
p1508
sg57
V4068364581
p1509
sg59
VC0DEED
p1510
sg61
I0
sg62
I00
sg63
I-21600
sg64
I33074
sg33
VRestauranteur, Humanitarian, Television Host, Oscar-loser, King of the Forest. Can you blow my whistle?.
p1511
sg66
I0
sg67
VPhiladelphia, PA
p1512
sg69
V0084B4
p1513
sg71
Vhttp://pbs.twimg.com/profile_images/659743716991627264/K5OF5MSt_normal.jpg
p1514
sg73
I00
sg74
I00
sg320
Vhttps://pbs.twimg.com/profile_banners/4068364581/1446130069
p1515
sg75
Vhttp://abs.twimg.com/images/themes/theme1/bg.png
p1516
sg77
VfussHanna
p1517
sg79
Ven
p1518
sg81
I00
sg82
I0
sg83
VHanna
p1519
sg85
I00
sg86
Nsg87
VThu Oct 29 14:44:12 +0000 2015
p1520
sg89
I00
sg90
VCentral Time (US & Canada)
p1521
sg92
I00
sg93
I01
sg94
I00
ssg95
I00
sg96
g1507
sg97
I3
sg98
g1508
sg99
g1509
sg100
I00
sg101
I0
sg102
I00
sg103
I-21600
sg104
I33074
sg105
g1511
sg106
I0
sg107
g1512
sg108
g1513
sg109
g1514
sg110
I00
sg111
I00
sg112
g1510
sg329
g1515
sg113
g1516
sg114
g1517
sg115
g1518
sg116
I00
sg117
I00
sg118
I0
sg119
g1519
sg120
Nsg121
g122
(S'\x07\xdf\n\x1d\x0e,\x0c\x00\x00\x00'
p1522
tp1523
Rp1524
sg126
g1506
sg127
g1521
sg128
I00
sg129
I01
sg130
I00
sbsg131
Nsg29
L662107637354483712L
sg132
I0
sg133
VIFTTT
p1525
sg115
Ven
p1526
sg136
g1498
sg121
g122
(S'\x07\xdf\x0b\x05\x03\x16\x10\x00\x00\x00'
p1527
tp1528
Rp1529
sg39
(dp1530
g141
Nsg142
I00
sg143
g1495
sg145
I00
sg146
Nsg45
L662107637354483712L
sg147
I0
sg148
V<a href="http://ifttt.com" rel="nofollow">IFTTT</a>
p1531
sg150
I00
sg151
Nsg53
(dp1532
g153
(lp1533
(dp1534
g156
(lp1535
I81
aI86
asg143
VCMCO
p1536
sasg159
(lp1537
sg161
(lp1538
sg35
(lp1539
(dp1540
g86
Vhttps://t.co/tmqYIGAtfy
p1541
sg156
(lp1542
I87
aI110
asg167
Vhttp://ift.tt/1WBdg8B
p1543
sg169
Vift.tt/1WBdg8B
p1544
sa(dp1545
g86
Vhttps://t.co/z4FkAoo3vy
p1546
sg156
(lp1547
I115
aI138
asg167
Vhttps://goo.gl/t4fpx2
p1548
sg169
Vgoo.gl/t4fpx2
p1549
sassg171
Nsg172
Nsg173
I0
sg57
V662107637354483712
p1550
sg175
I00
sg176
g1505
sg177
Nsg178
Nsg179
I00
sg79
g1526
sg87
VThu Nov 05 03:22:16 +0000 2015
p1551
sg181
Nsg182
Nsg183
(dp1552
g185
Ven
p1553
sg187
Vrecent
p1554
sssg189
g1552
sg190
Nsg191
Nsg31
g1532
sg192
Nsg193
Nsg99
g1550
sg194
I00
sg195
Nsg196
I0
sg197
Nsbag0
(g4
g5
Ntp1555
Rp1556
(dp1557
g9
I00
sg10
Nsg11
I00
sg12
VSeaport Global Securities Weighs in on Columbus McKinnon Corp.\u2019s FY2016 Earnings $CMCO https://t.co/auix1NLhCl \u2026 \u2026 https://t.co/z4FkAoo3vy
p1558
sg14
Vhttp://ifttt.com
p1559
sg16
I00
sg17
I00
sg18
Nsg19
g0
(g20
g5
Ntp1560
Rp1561
(dp1562
g24
I00
sg25
I00
sg26
I01
sg27
VDDEEF6
p1563
sg29
L4068364581L
sg30
I00
sg31
(dp1564
g33
(dp1565
g35
(lp1566
sssg37
Vhttps://pbs.twimg.com/profile_images/659743716991627264/K5OF5MSt_normal.jpg
p1567
sg39
(dp1568
g41
I00
sg42
I00
sg43
I01
sg44
I00
sg45
L4068364581L
sg46
Vhttps://abs.twimg.com/images/themes/theme1/bg.png
p1569
sg48
I00
sg49
V333333
p1570
sg51
g1567
sg52
g1563
sg53
g1564
sg54
I3
sg55
VC0DEED
p1571
sg57
V4068364581
p1572
sg59
VC0DEED
p1573
sg61
I0
sg62
I00
sg63
I-21600
sg64
I33074
sg33
VRestauranteur, Humanitarian, Television Host, Oscar-loser, King of the Forest. Can you blow my whistle?.
p1574
sg66
I0
sg67
VPhiladelphia, PA
p1575
sg69
V0084B4
p1576
sg71
Vhttp://pbs.twimg.com/profile_images/659743716991627264/K5OF5MSt_normal.jpg
p1577
sg73
I00
sg74
I00
sg320
Vhttps://pbs.twimg.com/profile_banners/4068364581/1446130069
p1578
sg75
Vhttp://abs.twimg.com/images/themes/theme1/bg.png
p1579
sg77
VfussHanna
p1580
sg79
Ven
p1581
sg81
I00
sg82
I0
sg83
VHanna
p1582
sg85
I00
sg86
Nsg87
VThu Oct 29 14:44:12 +0000 2015
p1583
sg89
I00
sg90
VCentral Time (US & Canada)
p1584
sg92
I00
sg93
I01
sg94
I00
ssg95
I00
sg96
g1570
sg97
I3
sg98
g1571
sg99
g1572
sg100
I00
sg101
I0
sg102
I00
sg103
I-21600
sg104
I33074
sg105
g1574
sg106
I0
sg107
g1575
sg108
g1576
sg109
g1577
sg110
I00
sg111
I00
sg112
g1573
sg329
g1578
sg113
g1579
sg114
g1580
sg115
g1581
sg116
I00
sg117
I00
sg118
I0
sg119
g1582
sg120
Nsg121
g122
(S'\x07\xdf\n\x1d\x0e,\x0c\x00\x00\x00'
p1585
tp1586
Rp1587
sg126
g1569
sg127
g1584
sg128
I00
sg129
I01
sg130
I00
sbsg131
Nsg29
L662107635085418496L
sg132
I0
sg133
VIFTTT
p1588
sg115
Ven
p1589
sg136
g1561
sg121
g122
(S'\x07\xdf\x0b\x05\x03\x16\x10\x00\x00\x00'
p1590
tp1591
Rp1592
sg39
(dp1593
g141
Nsg142
I00
sg143
g1558
sg145
I00
sg146
Nsg45
L662107635085418496L
sg147
I0
sg148
V<a href="http://ifttt.com" rel="nofollow">IFTTT</a>
p1594
sg150
I00
sg151
Nsg53
(dp1595
g153
(lp1596
(dp1597
g156
(lp1598
I81
aI86
asg143
VCMCO
p1599
sasg159
(lp1600
sg161
(lp1601
sg35
(lp1602
(dp1603
g86
Vhttps://t.co/auix1NLhCl
p1604
sg156
(lp1605
I87
aI110
asg167
Vhttp://ift.tt/1RVTmUr
p1606
sg169
Vift.tt/1RVTmUr
p1607
sa(dp1608
g86
Vhttps://t.co/z4FkAoo3vy
p1609
sg156
(lp1610
I115
aI138
asg167
Vhttps://goo.gl/t4fpx2
p1611
sg169
Vgoo.gl/t4fpx2
p1612
sassg171
Nsg172
Nsg173
I0
sg57
V662107635085418496
p1613
sg175
I00
sg176
g1568
sg177
Nsg178
Nsg179
I00
sg79
g1589
sg87
VThu Nov 05 03:22:16 +0000 2015
p1614
sg181
Nsg182
Nsg183
(dp1615
g185
Ven
p1616
sg187
Vrecent
p1617
sssg189
g1615
sg190
Nsg191
Nsg31
g1595
sg192
Nsg193
Nsg99
g1613
sg194
I00
sg195
Nsg196
I0
sg197
Nsbag0
(g4
g5
Ntp1618
Rp1619
(dp1620
g9
I00
sg10
Nsg11
I00
sg12
VSeaport Global Securities Weighs in on Columbus McKinnon Corp.\u2019s FY2016 Earnings $CMCO https://t.co/V45zKMksAS \u2026 \u2026 https://t.co/z4FkAoo3vy
p1621
sg14
Vhttp://ifttt.com
p1622
sg16
I00
sg17
I00
sg18
Nsg19
g0
(g20
g5
Ntp1623
Rp1624
(dp1625
g24
I00
sg25
I00
sg26
I01
sg27
VDDEEF6
p1626
sg29
L4068364581L
sg30
I00
sg31
(dp1627
g33
(dp1628
g35
(lp1629
sssg37
Vhttps://pbs.twimg.com/profile_images/659743716991627264/K5OF5MSt_normal.jpg
p1630
sg39
(dp1631
g41
I00
sg42
I00
sg43
I01
sg44
I00
sg45
L4068364581L
sg46
Vhttps://abs.twimg.com/images/themes/theme1/bg.png
p1632
sg48
I00
sg49
V333333
p1633
sg51
g1630
sg52
g1626
sg53
g1627
sg54
I3
sg55
VC0DEED
p1634
sg57
V4068364581
p1635
sg59
VC0DEED
p1636
sg61
I0
sg62
I00
sg63
I-21600
sg64
I33074
sg33
VRestauranteur, Humanitarian, Television Host, Oscar-loser, King of the Forest. Can you blow my whistle?.
p1637
sg66
I0
sg67
VPhiladelphia, PA
p1638
sg69
V0084B4
p1639
sg71
Vhttp://pbs.twimg.com/profile_images/659743716991627264/K5OF5MSt_normal.jpg
p1640
sg73
I00
sg74
I00
sg320
Vhttps://pbs.twimg.com/profile_banners/4068364581/1446130069
p1641
sg75
Vhttp://abs.twimg.com/images/themes/theme1/bg.png
p1642
sg77
VfussHanna
p1643
sg79
Ven
p1644
sg81
I00
sg82
I0
sg83
VHanna
p1645
sg85
I00
sg86
Nsg87
VThu Oct 29 14:44:12 +0000 2015
p1646
sg89
I00
sg90
VCentral Time (US & Canada)
p1647
sg92
I00
sg93
I01
sg94
I00
ssg95
I00
sg96
g1633
sg97
I3
sg98
g1634
sg99
g1635
sg100
I00
sg101
I0
sg102
I00
sg103
I-21600
sg104
I33074
sg105
g1637
sg106
I0
sg107
g1638
sg108
g1639
sg109
g1640
sg110
I00
sg111
I00
sg112
g1636
sg329
g1641
sg113
g1642
sg114
g1643
sg115
g1644
sg116
I00
sg117
I00
sg118
I0
sg119
g1645
sg120
Nsg121
g122
(S'\x07\xdf\n\x1d\x0e,\x0c\x00\x00\x00'
p1648
tp1649
Rp1650
sg126
g1632
sg127
g1647
sg128
I00
sg129
I01
sg130
I00
sbsg131
Nsg29
L662103818344210432L
sg132
I0
sg133
VIFTTT
p1651
sg115
Ven
p1652
sg136
g1624
sg121
g122
(S'\x07\xdf\x0b\x05\x03\x07\x06\x00\x00\x00'
p1653
tp1654
Rp1655
sg39
(dp1656
g141
Nsg142
I00
sg143
g1621
sg145
I00
sg146
Nsg45
L662103818344210432L
sg147
I0
sg148
V<a href="http://ifttt.com" rel="nofollow">IFTTT</a>
p1657
sg150
I00
sg151
Nsg53
(dp1658
g153
(lp1659
(dp1660
g156
(lp1661
I81
aI86
asg143
VCMCO
p1662
sasg159
(lp1663
sg161
(lp1664
sg35
(lp1665
(dp1666
g86
Vhttps://t.co/V45zKMksAS
p1667
sg156
(lp1668
I87
aI110
asg167
Vhttp://ift.tt/1RVUPKC
p1669
sg169
Vift.tt/1RVUPKC
p1670
sa(dp1671
g86
Vhttps://t.co/z4FkAoo3vy
p1672
sg156
(lp1673
I115
aI138
asg167
Vhttps://goo.gl/t4fpx2
p1674
sg169
Vgoo.gl/t4fpx2
p1675
sassg171
Nsg172
Nsg173
I0
sg57
V662103818344210432
p1676
sg175
I00
sg176
g1631
sg177
Nsg178
Nsg179
I00
sg79
g1652
sg87
VThu Nov 05 03:07:06 +0000 2015
p1677
sg181
Nsg182
Nsg183
(dp1678
g185
Ven
p1679
sg187
Vrecent
p1680
sssg189
g1678
sg190
Nsg191
Nsg31
g1658
sg192
Nsg193
Nsg99
g1676
sg194
I00
sg195
Nsg196
I0
sg197
Nsbag0
(g4
g5
Ntp1681
Rp1682
(dp1683
g9
I00
sg10
Nsg11
I00
sg12
VSeaport Global Securities Weighs in on Columbus McKinnon Corp.\u2019s FY2016 Earnings $CMCO https://t.co/tmqYIGAtfy \u2026 \u2026 https://t.co/z4FkAoo3vy
p1684
sg14
Vhttp://ifttt.com
p1685
sg16
I00
sg17
I00
sg18
Nsg19
g0
(g20
g5
Ntp1686
Rp1687
(dp1688
g24
I00
sg25
I00
sg26
I01
sg27
VDDEEF6
p1689
sg29
L4068364581L
sg30
I00
sg31
(dp1690
g33
(dp1691
g35
(lp1692
sssg37
Vhttps://pbs.twimg.com/profile_images/659743716991627264/K5OF5MSt_normal.jpg
p1693
sg39
(dp1694
g41
I00
sg42
I00
sg43
I01
sg44
I00
sg45
L4068364581L
sg46
Vhttps://abs.twimg.com/images/themes/theme1/bg.png
p1695
sg48
I00
sg49
V333333
p1696
sg51
g1693
sg52
g1689
sg53
g1690
sg54
I3
sg55
VC0DEED
p1697
sg57
V4068364581
p1698
sg59
VC0DEED
p1699
sg61
I0
sg62
I00
sg63
I-21600
sg64
I33074
sg33
VRestauranteur, Humanitarian, Television Host, Oscar-loser, King of the Forest. Can you blow my whistle?.
p1700
sg66
I0
sg67
VPhiladelphia, PA
p1701
sg69
V0084B4
p1702
sg71
Vhttp://pbs.twimg.com/profile_images/659743716991627264/K5OF5MSt_normal.jpg
p1703
sg73
I00
sg74
I00
sg320
Vhttps://pbs.twimg.com/profile_banners/4068364581/1446130069
p1704
sg75
Vhttp://abs.twimg.com/images/themes/theme1/bg.png
p1705
sg77
VfussHanna
p1706
sg79
Ven
p1707
sg81
I00
sg82
I0
sg83
VHanna
p1708
sg85
I00
sg86
Nsg87
VThu Oct 29 14:44:12 +0000 2015
p1709
sg89
I00
sg90
VCentral Time (US & Canada)
p1710
sg92
I00
sg93
I01
sg94
I00
ssg95
I00
sg96
g1696
sg97
I3
sg98
g1697
sg99
g1698
sg100
I00
sg101
I0
sg102
I00
sg103
I-21600
sg104
I33074
sg105
g1700
sg106
I0
sg107
g1701
sg108
g1702
sg109
g1703
sg110
I00
sg111
I00
sg112
g1699
sg329
g1704
sg113
g1705
sg114
g1706
sg115
g1707
sg116
I00
sg117
I00
sg118
I0
sg119
g1708
sg120
Nsg121
g122
(S'\x07\xdf\n\x1d\x0e,\x0c\x00\x00\x00'
p1711
tp1712
Rp1713
sg126
g1695
sg127
g1710
sg128
I00
sg129
I01
sg130
I00
sbsg131
Nsg29
L662103816381317120L
sg132
I0
sg133
VIFTTT
p1714
sg115
Ven
p1715
sg136
g1687
sg121
g122
(S'\x07\xdf\x0b\x05\x03\x07\x05\x00\x00\x00'
p1716
tp1717
Rp1718
sg39
(dp1719
g141
Nsg142
I00
sg143
g1684
sg145
I00
sg146
Nsg45
L662103816381317120L
sg147
I0
sg148
V<a href="http://ifttt.com" rel="nofollow">IFTTT</a>
p1720
sg150
I00
sg151
Nsg53
(dp1721
g153
(lp1722
(dp1723
g156
(lp1724
I81
aI86
asg143
VCMCO
p1725
sasg159
(lp1726
sg161
(lp1727
sg35
(lp1728
(dp1729
g86
Vhttps://t.co/tmqYIGAtfy
p1730
sg156
(lp1731
I87
aI110
asg167
Vhttp://ift.tt/1WBdg8B
p1732
sg169
Vift.tt/1WBdg8B
p1733
sa(dp1734
g86
Vhttps://t.co/z4FkAoo3vy
p1735
sg156
(lp1736
I115
aI138
asg167
Vhttps://goo.gl/t4fpx2
p1737
sg169
Vgoo.gl/t4fpx2
p1738
sassg171
Nsg172
Nsg173
I0
sg57
V662103816381317120
p1739
sg175
I00
sg176
g1694
sg177
Nsg178
Nsg179
I00
sg79
g1715
sg87
VThu Nov 05 03:07:05 +0000 2015
p1740
sg181
Nsg182
Nsg183
(dp1741
g185
Ven
p1742
sg187
Vrecent
p1743
sssg189
g1741
sg190
Nsg191
Nsg31
g1721
sg192
Nsg193
Nsg99
g1739
sg194
I00
sg195
Nsg196
I0
sg197
Nsbag0
(g4
g5
Ntp1744
Rp1745
(dp1746
g9
I00
sg10
Nsg11
I00
sg12
VSeaport Global Securities Weighs in on Columbus McKinnon Corp.\u2019s FY2016 Earnings $CMCO https://t.co/auix1NLhCl \u2026 \u2026 https://t.co/z4FkAoo3vy
p1747
sg14
Vhttp://ifttt.com
p1748
sg16
I00
sg17
I00
sg18
Nsg19
g0
(g20
g5
Ntp1749
Rp1750
(dp1751
g24
I00
sg25
I00
sg26
I01
sg27
VDDEEF6
p1752
sg29
L4068364581L
sg30
I00
sg31
(dp1753
g33
(dp1754
g35
(lp1755
sssg37
Vhttps://pbs.twimg.com/profile_images/659743716991627264/K5OF5MSt_normal.jpg
p1756
sg39
(dp1757
g41
I00
sg42
I00
sg43
I01
sg44
I00
sg45
L4068364581L
sg46
Vhttps://abs.twimg.com/images/themes/theme1/bg.png
p1758
sg48
I00
sg49
V333333
p1759
sg51
g1756
sg52
g1752
sg53
g1753
sg54
I3
sg55
VC0DEED
p1760
sg57
V4068364581
p1761
sg59
VC0DEED
p1762
sg61
I0
sg62
I00
sg63
I-21600
sg64
I33074
sg33
VRestauranteur, Humanitarian, Television Host, Oscar-loser, King of the Forest. Can you blow my whistle?.
p1763
sg66
I0
sg67
VPhiladelphia, PA
p1764
sg69
V0084B4
p1765
sg71
Vhttp://pbs.twimg.com/profile_images/659743716991627264/K5OF5MSt_normal.jpg
p1766
sg73
I00
sg74
I00
sg320
Vhttps://pbs.twimg.com/profile_banners/4068364581/1446130069
p1767
sg75
Vhttp://abs.twimg.com/images/themes/theme1/bg.png
p1768
sg77
VfussHanna
p1769
sg79
Ven
p1770
sg81
I00
sg82
I0
sg83
VHanna
p1771
sg85
I00
sg86
Nsg87
VThu Oct 29 14:44:12 +0000 2015
p1772
sg89
I00
sg90
VCentral Time (US & Canada)
p1773
sg92
I00
sg93
I01
sg94
I00
ssg95
I00
sg96
g1759
sg97
I3
sg98
g1760
sg99
g1761
sg100
I00
sg101
I0
sg102
I00
sg103
I-21600
sg104
I33074
sg105
g1763
sg106
I0
sg107
g1764
sg108
g1765
sg109
g1766
sg110
I00
sg111
I00
sg112
g1762
sg329
g1767
sg113
g1768
sg114
g1769
sg115
g1770
sg116
I00
sg117
I00
sg118
I0
sg119
g1771
sg120
Nsg121
g122
(S'\x07\xdf\n\x1d\x0e,\x0c\x00\x00\x00'
p1774
tp1775
Rp1776
sg126
g1758
sg127
g1773
sg128
I00
sg129
I01
sg130
I00
sbsg131
Nsg29
L662103815370444800L
sg132
I0
sg133
VIFTTT
p1777
sg115
Ven
p1778
sg136
g1750
sg121
g122
(S'\x07\xdf\x0b\x05\x03\x07\x05\x00\x00\x00'
p1779
tp1780
Rp1781
sg39
(dp1782
g141
Nsg142
I00
sg143
g1747
sg145
I00
sg146
Nsg45
L662103815370444800L
sg147
I0
sg148
V<a href="http://ifttt.com" rel="nofollow">IFTTT</a>
p1783
sg150
I00
sg151
Nsg53
(dp1784
g153
(lp1785
(dp1786
g156
(lp1787
I81
aI86
asg143
VCMCO
p1788
sasg159
(lp1789
sg161
(lp1790
sg35
(lp1791
(dp1792
g86
Vhttps://t.co/auix1NLhCl
p1793
sg156
(lp1794
I87
aI110
asg167
Vhttp://ift.tt/1RVTmUr
p1795
sg169
Vift.tt/1RVTmUr
p1796
sa(dp1797
g86
Vhttps://t.co/z4FkAoo3vy
p1798
sg156
(lp1799
I115
aI138
asg167
Vhttps://goo.gl/t4fpx2
p1800
sg169
Vgoo.gl/t4fpx2
p1801
sassg171
Nsg172
Nsg173
I0
sg57
V662103815370444800
p1802
sg175
I00
sg176
g1757
sg177
Nsg178
Nsg179
I00
sg79
g1778
sg87
VThu Nov 05 03:07:05 +0000 2015
p1803
sg181
Nsg182
Nsg183
(dp1804
g185
Ven
p1805
sg187
Vrecent
p1806
sssg189
g1804
sg190
Nsg191
Nsg31
g1784
sg192
Nsg193
Nsg99
g1802
sg194
I00
sg195
Nsg196
I0
sg197
Nsbag0
(g4
g5
Ntp1807
Rp1808
(dp1809
g9
I00
sg10
Nsg11
I00
sg12
VSeaport Global Securities Weighs in on Columbus McKinnon Corp.\u2019s FY2016 Earnings $CMCO https://t.co/V45zKMksAS \u2026 https://t.co/z4FkAoo3vy
p1810
sg14
Vhttp://ifttt.com
p1811
sg16
I00
sg17
I00
sg18
Nsg19
g0
(g20
g5
Ntp1812
Rp1813
(dp1814
g24
I00
sg25
I00
sg26
I01
sg27
VDDEEF6
p1815
sg29
L4068364581L
sg30
I00
sg31
(dp1816
g33
(dp1817
g35
(lp1818
sssg37
Vhttps://pbs.twimg.com/profile_images/659743716991627264/K5OF5MSt_normal.jpg
p1819
sg39
(dp1820
g41
I00
sg42
I00
sg43
I01
sg44
I00
sg45
L4068364581L
sg46
Vhttps://abs.twimg.com/images/themes/theme1/bg.png
p1821
sg48
I00
sg49
V333333
p1822
sg51
g1819
sg52
g1815
sg53
g1816
sg54
I3
sg55
VC0DEED
p1823
sg57
V4068364581
p1824
sg59
VC0DEED
p1825
sg61
I0
sg62
I00
sg63
I-21600
sg64
I33074
sg33
VRestauranteur, Humanitarian, Television Host, Oscar-loser, King of the Forest. Can you blow my whistle?.
p1826
sg66
I0
sg67
VPhiladelphia, PA
p1827
sg69
V0084B4
p1828
sg71
Vhttp://pbs.twimg.com/profile_images/659743716991627264/K5OF5MSt_normal.jpg
p1829
sg73
I00
sg74
I00
sg320
Vhttps://pbs.twimg.com/profile_banners/4068364581/1446130069
p1830
sg75
Vhttp://abs.twimg.com/images/themes/theme1/bg.png
p1831
sg77
VfussHanna
p1832
sg79
Ven
p1833
sg81
I00
sg82
I0
sg83
VHanna
p1834
sg85
I00
sg86
Nsg87
VThu Oct 29 14:44:12 +0000 2015
p1835
sg89
I00
sg90
VCentral Time (US & Canada)
p1836
sg92
I00
sg93
I01
sg94
I00
ssg95
I00
sg96
g1822
sg97
I3
sg98
g1823
sg99
g1824
sg100
I00
sg101
I0
sg102
I00
sg103
I-21600
sg104
I33074
sg105
g1826
sg106
I0
sg107
g1827
sg108
g1828
sg109
g1829
sg110
I00
sg111
I00
sg112
g1825
sg329
g1830
sg113
g1831
sg114
g1832
sg115
g1833
sg116
I00
sg117
I00
sg118
I0
sg119
g1834
sg120
Nsg121
g122
(S'\x07\xdf\n\x1d\x0e,\x0c\x00\x00\x00'
p1837
tp1838
Rp1839
sg126
g1821
sg127
g1836
sg128
I00
sg129
I01
sg130
I00
sbsg131
Nsg29
L662100070179979264L
sg132
I0
sg133
VIFTTT
p1840
sg115
Ven
p1841
sg136
g1813
sg121
g122
(S'\x07\xdf\x0b\x05\x024\x0c\x00\x00\x00'
p1842
tp1843
Rp1844
sg39
(dp1845
g141
Nsg142
I00
sg143
g1810
sg145
I00
sg146
Nsg45
L662100070179979264L
sg147
I0
sg148
V<a href="http://ifttt.com" rel="nofollow">IFTTT</a>
p1846
sg150
I00
sg151
Nsg53
(dp1847
g153
(lp1848
(dp1849
g156
(lp1850
I81
aI86
asg143
VCMCO
p1851
sasg159
(lp1852
sg161
(lp1853
sg35
(lp1854
(dp1855
g86
Vhttps://t.co/V45zKMksAS
p1856
sg156
(lp1857
I87
aI110
asg167
Vhttp://ift.tt/1RVUPKC
p1858
sg169
Vift.tt/1RVUPKC
p1859
sa(dp1860
g86
Vhttps://t.co/z4FkAoo3vy
p1861
sg156
(lp1862
I113
aI136
asg167
Vhttps://goo.gl/t4fpx2
p1863
sg169
Vgoo.gl/t4fpx2
p1864
sassg171
Nsg172
Nsg173
I0
sg57
V662100070179979264
p1865
sg175
I00
sg176
g1820
sg177
Nsg178
Nsg179
I00
sg79
g1841
sg87
VThu Nov 05 02:52:12 +0000 2015
p1866
sg181
Nsg182
Nsg183
(dp1867
g185
Ven
p1868
sg187
Vrecent
p1869
sssg189
g1867
sg190
Nsg191
Nsg31
g1847
sg192
Nsg193
Nsg99
g1865
sg194
I00
sg195
Nsg196
I0
sg197
Nsbag0
(g4
g5
Ntp1870
Rp1871
(dp1872
g9
I00
sg10
Nsg11
I00
sg12
VSeaport Global Securities Weighs in on Columbus McKinnon Corp.\u2019s FY2016 Earnings $CMCO https://t.co/tmqYIGAtfy \u2026 https://t.co/z4FkAoo3vy
p1873
sg14
Vhttp://ifttt.com
p1874
sg16
I00
sg17
I00
sg18
Nsg19
g0
(g20
g5
Ntp1875
Rp1876
(dp1877
g24
I00
sg25
I00
sg26
I01
sg27
VDDEEF6
p1878
sg29
L4068364581L
sg30
I00
sg31
(dp1879
g33
(dp1880
g35
(lp1881
sssg37
Vhttps://pbs.twimg.com/profile_images/659743716991627264/K5OF5MSt_normal.jpg
p1882
sg39
(dp1883
g41
I00
sg42
I00
sg43
I01
sg44
I00
sg45
L4068364581L
sg46
Vhttps://abs.twimg.com/images/themes/theme1/bg.png
p1884
sg48
I00
sg49
V333333
p1885
sg51
g1882
sg52
g1878
sg53
g1879
sg54
I3
sg55
VC0DEED
p1886
sg57
V4068364581
p1887
sg59
VC0DEED
p1888
sg61
I0
sg62
I00
sg63
I-21600
sg64
I33074
sg33
VRestauranteur, Humanitarian, Television Host, Oscar-loser, King of the Forest. Can you blow my whistle?.
p1889
sg66
I0
sg67
VPhiladelphia, PA
p1890
sg69
V0084B4
p1891
sg71
Vhttp://pbs.twimg.com/profile_images/659743716991627264/K5OF5MSt_normal.jpg
p1892
sg73
I00
sg74
I00
sg320
Vhttps://pbs.twimg.com/profile_banners/4068364581/1446130069
p1893
sg75
Vhttp://abs.twimg.com/images/themes/theme1/bg.png
p1894
sg77
VfussHanna
p1895
sg79
Ven
p1896
sg81
I00
sg82
I0
sg83
VHanna
p1897
sg85
I00
sg86
Nsg87
VThu Oct 29 14:44:12 +0000 2015
p1898
sg89
I00
sg90
VCentral Time (US & Canada)
p1899
sg92
I00
sg93
I01
sg94
I00
ssg95
I00
sg96
g1885
sg97
I3
sg98
g1886
sg99
g1887
sg100
I00
sg101
I0
sg102
I00
sg103
I-21600
sg104
I33074
sg105
g1889
sg106
I0
sg107
g1890
sg108
g1891
sg109
g1892
sg110
I00
sg111
I00
sg112
g1888
sg329
g1893
sg113
g1894
sg114
g1895
sg115
g1896
sg116
I00
sg117
I00
sg118
I0
sg119
g1897
sg120
Nsg121
g122
(S'\x07\xdf\n\x1d\x0e,\x0c\x00\x00\x00'
p1900
tp1901
Rp1902
sg126
g1884
sg127
g1899
sg128
I00
sg129
I01
sg130
I00
sbsg131
Nsg29
L662100068036661248L
sg132
I0
sg133
VIFTTT
p1903
sg115
Ven
p1904
sg136
g1876
sg121
g122
(S'\x07\xdf\x0b\x05\x024\x0c\x00\x00\x00'
p1905
tp1906
Rp1907
sg39
(dp1908
g141
Nsg142
I00
sg143
g1873
sg145
I00
sg146
Nsg45
L662100068036661248L
sg147
I0
sg148
V<a href="http://ifttt.com" rel="nofollow">IFTTT</a>
p1909
sg150
I00
sg151
Nsg53
(dp1910
g153
(lp1911
(dp1912
g156
(lp1913
I81
aI86
asg143
VCMCO
p1914
sasg159
(lp1915
sg161
(lp1916
sg35
(lp1917
(dp1918
g86
Vhttps://t.co/tmqYIGAtfy
p1919
sg156
(lp1920
I87
aI110
asg167
Vhttp://ift.tt/1WBdg8B
p1921
sg169
Vift.tt/1WBdg8B
p1922
sa(dp1923
g86
Vhttps://t.co/z4FkAoo3vy
p1924
sg156
(lp1925
I113
aI136
asg167
Vhttps://goo.gl/t4fpx2
p1926
sg169
Vgoo.gl/t4fpx2
p1927
sassg171
Nsg172
Nsg173
I0
sg57
V662100068036661248
p1928
sg175
I00
sg176
g1883
sg177
Nsg178
Nsg179
I00
sg79
g1904
sg87
VThu Nov 05 02:52:12 +0000 2015
p1929
sg181
Nsg182
Nsg183
(dp1930
g185
Ven
p1931
sg187
Vrecent
p1932
sssg189
g1930
sg190
Nsg191
Nsg31
g1910
sg192
Nsg193
Nsg99
g1928
sg194
I00
sg195
Nsg196
I0
sg197
Nsbag0
(g4
g5
Ntp1933
Rp1934
(dp1935
g9
I00
sg10
Nsg11
I00
sg12
VSeaport Global Securities Weighs in on Columbus McKinnon Corp.\u2019s FY2016 Earnings $CMCO https://t.co/auix1NLhCl \u2026 https://t.co/z4FkAoo3vy
p1936
sg14
Vhttp://ifttt.com
p1937
sg16
I00
sg17
I00
sg18
Nsg19
g0
(g20
g5
Ntp1938
Rp1939
(dp1940
g24
I00
sg25
I00
sg26
I01
sg27
VDDEEF6
p1941
sg29
L4068364581L
sg30
I00
sg31
(dp1942
g33
(dp1943
g35
(lp1944
sssg37
Vhttps://pbs.twimg.com/profile_images/659743716991627264/K5OF5MSt_normal.jpg
p1945
sg39
(dp1946
g41
I00
sg42
I00
sg43
I01
sg44
I00
sg45
L4068364581L
sg46
Vhttps://abs.twimg.com/images/themes/theme1/bg.png
p1947
sg48
I00
sg49
V333333
p1948
sg51
g1945
sg52
g1941
sg53
g1942
sg54
I3
sg55
VC0DEED
p1949
sg57
V4068364581
p1950
sg59
VC0DEED
p1951
sg61
I0
sg62
I00
sg63
I-21600
sg64
I33074
sg33
VRestauranteur, Humanitarian, Television Host, Oscar-loser, King of the Forest. Can you blow my whistle?.
p1952
sg66
I0
sg67
VPhiladelphia, PA
p1953
sg69
V0084B4
p1954
sg71
Vhttp://pbs.twimg.com/profile_images/659743716991627264/K5OF5MSt_normal.jpg
p1955
sg73
I00
sg74
I00
sg320
Vhttps://pbs.twimg.com/profile_banners/4068364581/1446130069
p1956
sg75
Vhttp://abs.twimg.com/images/themes/theme1/bg.png
p1957
sg77
VfussHanna
p1958
sg79
Ven
p1959
sg81
I00
sg82
I0
sg83
VHanna
p1960
sg85
I00
sg86
Nsg87
VThu Oct 29 14:44:12 +0000 2015
p1961
sg89
I00
sg90
VCentral Time (US & Canada)
p1962
sg92
I00
sg93
I01
sg94
I00
ssg95
I00
sg96
g1948
sg97
I3
sg98
g1949
sg99
g1950
sg100
I00
sg101
I0
sg102
I00
sg103
I-21600
sg104
I33074
sg105
g1952
sg106
I0
sg107
g1953
sg108
g1954
sg109
g1955
sg110
I00
sg111
I00
sg112
g1951
sg329
g1956
sg113
g1957
sg114
g1958
sg115
g1959
sg116
I00
sg117
I00
sg118
I0
sg119
g1960
sg120
Nsg121
g122
(S'\x07\xdf\n\x1d\x0e,\x0c\x00\x00\x00'
p1963
tp1964
Rp1965
sg126
g1947
sg127
g1962
sg128
I00
sg129
I01
sg130
I00
sbsg131
Nsg29
L662100067080404996L
sg132
I0
sg133
VIFTTT
p1966
sg115
Ven
p1967
sg136
g1939
sg121
g122
(S'\x07\xdf\x0b\x05\x024\x0b\x00\x00\x00'
p1968
tp1969
Rp1970
sg39
(dp1971
g141
Nsg142
I00
sg143
g1936
sg145
I00
sg146
Nsg45
L662100067080404996L
sg147
I0
sg148
V<a href="http://ifttt.com" rel="nofollow">IFTTT</a>
p1972
sg150
I00
sg151
Nsg53
(dp1973
g153
(lp1974
(dp1975
g156
(lp1976
I81
aI86
asg143
VCMCO
p1977
sasg159
(lp1978
sg161
(lp1979
sg35
(lp1980
(dp1981
g86
Vhttps://t.co/auix1NLhCl
p1982
sg156
(lp1983
I87
aI110
asg167
Vhttp://ift.tt/1RVTmUr
p1984
sg169
Vift.tt/1RVTmUr
p1985
sa(dp1986
g86
Vhttps://t.co/z4FkAoo3vy
p1987
sg156
(lp1988
I113
aI136
asg167
Vhttps://goo.gl/t4fpx2
p1989
sg169
Vgoo.gl/t4fpx2
p1990
sassg171
Nsg172
Nsg173
I0
sg57
V662100067080404996
p1991
sg175
I00
sg176
g1946
sg177
Nsg178
Nsg179
I00
sg79
g1967
sg87
VThu Nov 05 02:52:11 +0000 2015
p1992
sg181
Nsg182
Nsg183
(dp1993
g185
Ven
p1994
sg187
Vrecent
p1995
sssg189
g1993
sg190
Nsg191
Nsg31
g1973
sg192
Nsg193
Nsg99
g1991
sg194
I00
sg195
Nsg196
I0
sg197
Nsbag0
(g4
g5
Ntp1996
Rp1997
(dp1998
g9
I00
sg10
Nsg11
I00
sg12
VSeaport Global Securities Weighs in on Columbus McKinnon Corp.\u2019s FY2016 Earnings $CMCO https://t.co/V45zKMksAS https://t.co/z4FkAoo3vy
p1999
sg14
Vhttp://ifttt.com
p2000
sg16
I00
sg17
I00
sg18
Nsg19
g0
(g20
g5
Ntp2001
Rp2002
(dp2003
g24
I00
sg25
I00
sg26
I01
sg27
VDDEEF6
p2004
sg29
L4068364581L
sg30
I00
sg31
(dp2005
g33
(dp2006
g35
(lp2007
sssg37
Vhttps://pbs.twimg.com/profile_images/659743716991627264/K5OF5MSt_normal.jpg
p2008
sg39
(dp2009
g41
I00
sg42
I00
sg43
I01
sg44
I00
sg45
L4068364581L
sg46
Vhttps://abs.twimg.com/images/themes/theme1/bg.png
p2010
sg48
I00
sg49
V333333
p2011
sg51
g2008
sg52
g2004
sg53
g2005
sg54
I3
sg55
VC0DEED
p2012
sg57
V4068364581
p2013
sg59
VC0DEED
p2014
sg61
I0
sg62
I00
sg63
I-21600
sg64
I33074
sg33
VRestauranteur, Humanitarian, Television Host, Oscar-loser, King of the Forest. Can you blow my whistle?.
p2015
sg66
I0
sg67
VPhiladelphia, PA
p2016
sg69
V0084B4
p2017
sg71
Vhttp://pbs.twimg.com/profile_images/659743716991627264/K5OF5MSt_normal.jpg
p2018
sg73
I00
sg74
I00
sg320
Vhttps://pbs.twimg.com/profile_banners/4068364581/1446130069
p2019
sg75
Vhttp://abs.twimg.com/images/themes/theme1/bg.png
p2020
sg77
VfussHanna
p2021
sg79
Ven
p2022
sg81
I00
sg82
I0
sg83
VHanna
p2023
sg85
I00
sg86
Nsg87
VThu Oct 29 14:44:12 +0000 2015
p2024
sg89
I00
sg90
VCentral Time (US & Canada)
p2025
sg92
I00
sg93
I01
sg94
I00
ssg95
I00
sg96
g2011
sg97
I3
sg98
g2012
sg99
g2013
sg100
I00
sg101
I0
sg102
I00
sg103
I-21600
sg104
I33074
sg105
g2015
sg106
I0
sg107
g2016
sg108
g2017
sg109
g2018
sg110
I00
sg111
I00
sg112
g2014
sg329
g2019
sg113
g2020
sg114
g2021
sg115
g2022
sg116
I00
sg117
I00
sg118
I0
sg119
g2023
sg120
Nsg121
g122
(S'\x07\xdf\n\x1d\x0e,\x0c\x00\x00\x00'
p2026
tp2027
Rp2028
sg126
g2010
sg127
g2025
sg128
I00
sg129
I01
sg130
I00
sbsg131
Nsg29
L662096388172455937L
sg132
I0
sg133
VIFTTT
p2029
sg115
Ven
p2030
sg136
g2002
sg121
g122
(S'\x07\xdf\x0b\x05\x02%"\x00\x00\x00'
p2031
tp2032
Rp2033
sg39
(dp2034
g141
Nsg142
I00
sg143
g1999
sg145
I00
sg146
Nsg45
L662096388172455937L
sg147
I0
sg148
V<a href="http://ifttt.com" rel="nofollow">IFTTT</a>
p2035
sg150
I00
sg151
Nsg53
(dp2036
g153
(lp2037
(dp2038
g156
(lp2039
I81
aI86
asg143
VCMCO
p2040
sasg159
(lp2041
sg161
(lp2042
sg35
(lp2043
(dp2044
g86
Vhttps://t.co/V45zKMksAS
p2045
sg156
(lp2046
I87
aI110
asg167
Vhttp://ift.tt/1RVUPKC
p2047
sg169
Vift.tt/1RVUPKC
p2048
sa(dp2049
g86
Vhttps://t.co/z4FkAoo3vy
p2050
sg156
(lp2051
I111
aI134
asg167
Vhttps://goo.gl/t4fpx2
p2052
sg169
Vgoo.gl/t4fpx2
p2053
sassg171
Nsg172
Nsg173
I0
sg57
V662096388172455937
p2054
sg175
I00
sg176
g2009
sg177
Nsg178
Nsg179
I00
sg79
g2030
sg87
VThu Nov 05 02:37:34 +0000 2015
p2055
sg181
Nsg182
Nsg183
(dp2056
g185
Ven
p2057
sg187
Vrecent
p2058
sssg189
g2056
sg190
Nsg191
Nsg31
g2036
sg192
Nsg193
Nsg99
g2054
sg194
I00
sg195
Nsg196
I0
sg197
Nsbag0
(g4
g5
Ntp2059
Rp2060
(dp2061
g9
I00
sg10
Nsg11
I00
sg12
VSeaport Global Securities Weighs in on Columbus McKinnon Corp.\u2019s FY2016 Earnings $CMCO https://t.co/tmqYIGAtfy https://t.co/z4FkAoo3vy
p2062
sg14
Vhttp://ifttt.com
p2063
sg16
I00
sg17
I00
sg18
Nsg19
g0
(g20
g5
Ntp2064
Rp2065
(dp2066
g24
I00
sg25
I00
sg26
I01
sg27
VDDEEF6
p2067
sg29
L4068364581L
sg30
I00
sg31
(dp2068
g33
(dp2069
g35
(lp2070
sssg37
Vhttps://pbs.twimg.com/profile_images/659743716991627264/K5OF5MSt_normal.jpg
p2071
sg39
(dp2072
g41
I00
sg42
I00
sg43
I01
sg44
I00
sg45
L4068364581L
sg46
Vhttps://abs.twimg.com/images/themes/theme1/bg.png
p2073
sg48
I00
sg49
V333333
p2074
sg51
g2071
sg52
g2067
sg53
g2068
sg54
I3
sg55
VC0DEED
p2075
sg57
V4068364581
p2076
sg59
VC0DEED
p2077
sg61
I0
sg62
I00
sg63
I-21600
sg64
I33074
sg33
VRestauranteur, Humanitarian, Television Host, Oscar-loser, King of the Forest. Can you blow my whistle?.
p2078
sg66
I0
sg67
VPhiladelphia, PA
p2079
sg69
V0084B4
p2080
sg71
Vhttp://pbs.twimg.com/profile_images/659743716991627264/K5OF5MSt_normal.jpg
p2081
sg73
I00
sg74
I00
sg320
Vhttps://pbs.twimg.com/profile_banners/4068364581/1446130069
p2082
sg75
Vhttp://abs.twimg.com/images/themes/theme1/bg.png
p2083
sg77
VfussHanna
p2084
sg79
Ven
p2085
sg81
I00
sg82
I0
sg83
VHanna
p2086
sg85
I00
sg86
Nsg87
VThu Oct 29 14:44:12 +0000 2015
p2087
sg89
I00
sg90
VCentral Time (US & Canada)
p2088
sg92
I00
sg93
I01
sg94
I00
ssg95
I00
sg96
g2074
sg97
I3
sg98
g2075
sg99
g2076
sg100
I00
sg101
I0
sg102
I00
sg103
I-21600
sg104
I33074
sg105
g2078
sg106
I0
sg107
g2079
sg108
g2080
sg109
g2081
sg110
I00
sg111
I00
sg112
g2077
sg329
g2082
sg113
g2083
sg114
g2084
sg115
g2085
sg116
I00
sg117
I00
sg118
I0
sg119
g2086
sg120
Nsg121
g122
(S'\x07\xdf\n\x1d\x0e,\x0c\x00\x00\x00'
p2089
tp2090
Rp2091
sg126
g2073
sg127
g2088
sg128
I00
sg129
I01
sg130
I00
sbsg131
Nsg29
L662096385702014976L
sg132
I0
sg133
VIFTTT
p2092
sg115
Ven
p2093
sg136
g2065
sg121
g122
(S'\x07\xdf\x0b\x05\x02%"\x00\x00\x00'
p2094
tp2095
Rp2096
sg39
(dp2097
g141
Nsg142
I00
sg143
g2062
sg145
I00
sg146
Nsg45
L662096385702014976L
sg147
I0
sg148
V<a href="http://ifttt.com" rel="nofollow">IFTTT</a>
p2098
sg150
I00
sg151
Nsg53
(dp2099
g153
(lp2100
(dp2101
g156
(lp2102
I81
aI86
asg143
VCMCO
p2103
sasg159
(lp2104
sg161
(lp2105
sg35
(lp2106
(dp2107
g86
Vhttps://t.co/tmqYIGAtfy
p2108
sg156
(lp2109
I87
aI110
asg167
Vhttp://ift.tt/1WBdg8B
p2110
sg169
Vift.tt/1WBdg8B
p2111
sa(dp2112
g86
Vhttps://t.co/z4FkAoo3vy
p2113
sg156
(lp2114
I111
aI134
asg167
Vhttps://goo.gl/t4fpx2
p2115
sg169
Vgoo.gl/t4fpx2
p2116
sassg171
Nsg172
Nsg173
I0
sg57
V662096385702014976
p2117
sg175
I00
sg176
g2072
sg177
Nsg178
Nsg179
I00
sg79
g2093
sg87
VThu Nov 05 02:37:34 +0000 2015
p2118
sg181
Nsg182
Nsg183
(dp2119
g185
Ven
p2120
sg187
Vrecent
p2121
sssg189
g2119
sg190
Nsg191
Nsg31
g2099
sg192
Nsg193
Nsg99
g2117
sg194
I00
sg195
Nsg196
I0
sg197
Nsbag0
(g4
g5
Ntp2122
Rp2123
(dp2124
g9
I00
sg10
Nsg11
I00
sg12
VSeaport Global Securities Weighs in on Columbus McKinnon Corp.\u2019s FY2016 Earnings $CMCO https://t.co/auix1NLhCl https://t.co/z4FkAoo3vy
p2125
sg14
Vhttp://ifttt.com
p2126
sg16
I00
sg17
I00
sg18
Nsg19
g0
(g20
g5
Ntp2127
Rp2128
(dp2129
g24
I00
sg25
I00
sg26
I01
sg27
VDDEEF6
p2130
sg29
L4068364581L
sg30
I00
sg31
(dp2131
g33
(dp2132
g35
(lp2133
sssg37
Vhttps://pbs.twimg.com/profile_images/659743716991627264/K5OF5MSt_normal.jpg
p2134
sg39
(dp2135
g41
I00
sg42
I00
sg43
I01
sg44
I00
sg45
L4068364581L
sg46
Vhttps://abs.twimg.com/images/themes/theme1/bg.png
p2136
sg48
I00
sg49
V333333
p2137
sg51
g2134
sg52
g2130
sg53
g2131
sg54
I3
sg55
VC0DEED
p2138
sg57
V4068364581
p2139
sg59
VC0DEED
p2140
sg61
I0
sg62
I00
sg63
I-21600
sg64
I33074
sg33
VRestauranteur, Humanitarian, Television Host, Oscar-loser, King of the Forest. Can you blow my whistle?.
p2141
sg66
I0
sg67
VPhiladelphia, PA
p2142
sg69
V0084B4
p2143
sg71
Vhttp://pbs.twimg.com/profile_images/659743716991627264/K5OF5MSt_normal.jpg
p2144
sg73
I00
sg74
I00
sg320
Vhttps://pbs.twimg.com/profile_banners/4068364581/1446130069
p2145
sg75
Vhttp://abs.twimg.com/images/themes/theme1/bg.png
p2146
sg77
VfussHanna
p2147
sg79
Ven
p2148
sg81
I00
sg82
I0
sg83
VHanna
p2149
sg85
I00
sg86
Nsg87
VThu Oct 29 14:44:12 +0000 2015
p2150
sg89
I00
sg90
VCentral Time (US & Canada)
p2151
sg92
I00
sg93
I01
sg94
I00
ssg95
I00
sg96
g2137
sg97
I3
sg98
g2138
sg99
g2139
sg100
I00
sg101
I0
sg102
I00
sg103
I-21600
sg104
I33074
sg105
g2141
sg106
I0
sg107
g2142
sg108
g2143
sg109
g2144
sg110
I00
sg111
I00
sg112
g2140
sg329
g2145
sg113
g2146
sg114
g2147
sg115
g2148
sg116
I00
sg117
I00
sg118
I0
sg119
g2149
sg120
Nsg121
g122
(S'\x07\xdf\n\x1d\x0e,\x0c\x00\x00\x00'
p2152
tp2153
Rp2154
sg126
g2136
sg127
g2151
sg128
I00
sg129
I01
sg130
I00
sbsg131
Nsg29
L662096383290302466L
sg132
I0
sg133
VIFTTT
p2155
sg115
Ven
p2156
sg136
g2128
sg121
g122
(S'\x07\xdf\x0b\x05\x02%!\x00\x00\x00'
p2157
tp2158
Rp2159
sg39
(dp2160
g141
Nsg142
I00
sg143
g2125
sg145
I00
sg146
Nsg45
L662096383290302466L
sg147
I0
sg148
V<a href="http://ifttt.com" rel="nofollow">IFTTT</a>
p2161
sg150
I00
sg151
Nsg53
(dp2162
g153
(lp2163
(dp2164
g156
(lp2165
I81
aI86
asg143
VCMCO
p2166
sasg159
(lp2167
sg161
(lp2168
sg35
(lp2169
(dp2170
g86
Vhttps://t.co/auix1NLhCl
p2171
sg156
(lp2172
I87
aI110
asg167
Vhttp://ift.tt/1RVTmUr
p2173
sg169
Vift.tt/1RVTmUr
p2174
sa(dp2175
g86
Vhttps://t.co/z4FkAoo3vy
p2176
sg156
(lp2177
I111
aI134
asg167
Vhttps://goo.gl/t4fpx2
p2178
sg169
Vgoo.gl/t4fpx2
p2179
sassg171
Nsg172
Nsg173
I0
sg57
V662096383290302466
p2180
sg175
I00
sg176
g2135
sg177
Nsg178
Nsg179
I00
sg79
g2156
sg87
VThu Nov 05 02:37:33 +0000 2015
p2181
sg181
Nsg182
Nsg183
(dp2182
g185
Ven
p2183
sg187
Vrecent
p2184
sssg189
g2182
sg190
Nsg191
Nsg31
g2162
sg192
Nsg193
Nsg99
g2180
sg194
I00
sg195
Nsg196
I0
sg197
Nsbag0
(g4
g5
Ntp2185
Rp2186
(dp2187
g9
I00
sg10
Nsg11
I00
sg12
VSeaport Global Securities Weighs in on Columbus McKinnon Corp.\u2019s FY2016 Earnings $CMCO https://t.co/Kq7eSyIK4U
p2188
sg14
Vhttp://ifttt.com
p2189
sg16
I00
sg17
I00
sg18
Nsg19
g0
(g20
g5
Ntp2190
Rp2191
(dp2192
g24
I00
sg25
I00
sg26
I01
sg27
VDDEEF6
p2193
sg29
L2348716116L
sg30
I00
sg31
(dp2194
g33
(dp2195
g35
(lp2196
sssg37
Vhttps://pbs.twimg.com/profile_images/435451774560780288/FFoDLORK_normal.jpeg
p2197
sg39
(dp2198
g41
I00
sg42
I00
sg43
I01
sg44
I00
sg45
L2348716116L
sg46
Vhttps://abs.twimg.com/images/themes/theme1/bg.png
p2199
sg48
I00
sg49
V333333
p2200
sg51
g2197
sg52
g2193
sg53
g2194
sg54
I2013
sg55
VC0DEED
p2201
sg57
V2348716116
p2202
sg59
VC0DEED
p2203
sg61
I44
sg62
I00
sg63
Nsg64
I161080
sg33
VThe Legacy is your news leader for headlines at the local, state and national level.
p2204
sg66
I11
sg67
g217
sg69
V0084B4
p2205
sg71
Vhttp://pbs.twimg.com/profile_images/435451774560780288/FFoDLORK_normal.jpeg
p2206
sg73
I00
sg74
I00
sg75
Vhttp://abs.twimg.com/images/themes/theme1/bg.png
p2207
sg77
Vthelegacynewswi
p2208
sg79
Ven
p2209
sg81
I00
sg82
I0
sg83
VThe Legacy News
p2210
sg85
I00
sg86
Nsg87
VMon Feb 17 16:19:38 +0000 2014
p2211
sg89
I00
sg90
Nsg92
I00
sg93
I01
sg94
I00
ssg95
I00
sg96
g2200
sg97
I2013
sg98
g2201
sg99
g2202
sg100
I00
sg101
I44
sg102
I00
sg103
Nsg104
I161080
sg105
g2204
sg106
I11
sg107
g217
sg108
g2205
sg109
g2206
sg110
I00
sg111
I00
sg112
g2203
sg113
g2207
sg114
g2208
sg115
g2209
sg116
I00
sg117
I00
sg118
I0
sg119
g2210
sg120
Nsg121
g122
(S'\x07\xde\x02\x11\x10\x13&\x00\x00\x00'
p2212
tp2213
Rp2214
sg126
g2199
sg127
Nsg128
I00
sg129
I01
sg130
I00
sbsg131
Nsg29
L662095513668485120L
sg132
I0
sg133
VIFTTT
p2215
sg115
Ven
p2216
sg136
g2191
sg121
g122
(S'\x07\xdf\x0b\x05\x02"\x06\x00\x00\x00'
p2217
tp2218
Rp2219
sg39
(dp2220
g141
Nsg142
I00
sg143
g2188
sg145
I00
sg146
Nsg45
L662095513668485120L
sg147
I0
sg148
V<a href="http://ifttt.com" rel="nofollow">IFTTT</a>
p2221
sg150
I00
sg151
Nsg53
(dp2222
g153
(lp2223
(dp2224
g156
(lp2225
I81
aI86
asg143
VCMCO
p2226
sasg159
(lp2227
sg161
(lp2228
sg35
(lp2229
(dp2230
g86
Vhttps://t.co/Kq7eSyIK4U
p2231
sg156
(lp2232
I87
aI110
asg167
Vhttp://ift.tt/1RVUPKC
p2233
sg169
Vift.tt/1RVUPKC
p2234
sassg171
Nsg172
Nsg173
I0
sg57
V662095513668485120
p2235
sg175
I00
sg176
g2198
sg177
Nsg178
Nsg179
I00
sg79
g2216
sg87
VThu Nov 05 02:34:06 +0000 2015
p2236
sg181
Nsg182
Nsg183
(dp2237
g185
Ven
p2238
sg187
Vrecent
p2239
sssg189
g2237
sg190
Nsg191
Nsg31
g2222
sg192
Nsg193
Nsg99
g2235
sg194
I00
sg195
Nsg196
I0
sg197
Nsbag0
(g4
g5
Ntp2240
Rp2241
(dp2242
g9
I00
sg10
Nsg11
I00
sg12
VBB&amp;T Corp. Brokers Decreases Earnings Estimates for Columbus McKinnon Corp. $CMCO https://t.co/DljIIZPhDb
p2243
sg14
Vhttp://ifttt.com
p2244
sg16
I00
sg17
I00
sg18
Nsg19
g0
(g20
g5
Ntp2245
Rp2246
(dp2247
g24
I00
sg25
I00
sg26
I01
sg27
VDDEEF6
p2248
sg29
L2743641378L
sg30
I00
sg31
(dp2249
g33
(dp2250
g35
(lp2251
sssg37
Vhttps://pbs.twimg.com/profile_images/501548634412838914/LR6q5snv_normal.jpeg
p2252
sg39
(dp2253
g41
I00
sg42
I00
sg43
I01
sg44
I00
sg45
L2743641378L
sg46
Vhttps://abs.twimg.com/images/themes/theme1/bg.png
p2254
sg48
I00
sg49
V333333
p2255
sg51
g2252
sg52
g2248
sg53
g2249
sg54
I668
sg55
VC0DEED
p2256
sg57
V2743641378
p2257
sg59
VC0DEED
p2258
sg61
I59
sg62
I00
sg63
Nsg64
I275759
sg33
g217
sg66
I0
sg67
g217
sg69
V0084B4
p2259
sg71
Vhttp://pbs.twimg.com/profile_images/501548634412838914/LR6q5snv_normal.jpeg
p2260
sg73
I00
sg74
I00
sg320
Vhttps://pbs.twimg.com/profile_banners/2743641378/1408413498
p2261
sg75
Vhttp://abs.twimg.com/images/themes/theme1/bg.png
p2262
sg77
VSleekMoneycom
p2263
sg79
Ven
p2264
sg81
I00
sg82
I0
sg83
VSleek Money
p2265
sg85
I00
sg86
Nsg87
VTue Aug 19 01:57:20 +0000 2014
p2266
sg89
I00
sg90
Nsg92
I00
sg93
I01
sg94
I00
ssg95
I00
sg96
g2255
sg97
I668
sg98
g2256
sg99
g2257
sg100
I00
sg101
I59
sg102
I00
sg103
Nsg104
I275759
sg105
g217
sg106
I0
sg107
g217
sg108
g2259
sg109
g2260
sg110
I00
sg111
I00
sg112
g2258
sg329
g2261
sg113
g2262
sg114
g2263
sg115
g2264
sg116
I00
sg117
I00
sg118
I0
sg119
g2265
sg120
Nsg121
g122
(S'\x07\xde\x08\x13\x019\x14\x00\x00\x00'
p2267
tp2268
Rp2269
sg126
g2254
sg127
Nsg128
I00
sg129
I01
sg130
I00
sbsg131
Nsg29
L662095075686658050L
sg132
I0
sg133
VIFTTT
p2270
sg115
Ven
p2271
sg136
g2246
sg121
g122
(S'\x07\xdf\x0b\x05\x02 \x15\x00\x00\x00'
p2272
tp2273
Rp2274
sg39
(dp2275
g141
Nsg142
I00
sg143
g2243
sg145
I00
sg146
Nsg45
L662095075686658050L
sg147
I0
sg148
V<a href="http://ifttt.com" rel="nofollow">IFTTT</a>
p2276
sg150
I00
sg151
Nsg53
(dp2277
g153
(lp2278
(dp2279
g156
(lp2280
I80
aI85
asg143
VCMCO
p2281
sasg159
(lp2282
sg161
(lp2283
sg35
(lp2284
(dp2285
g86
Vhttps://t.co/DljIIZPhDb
p2286
sg156
(lp2287
I86
aI109
asg167
Vhttp://ift.tt/1WxeWFq
p2288
sg169
Vift.tt/1WxeWFq
p2289
sassg171
Nsg172
Nsg173
I0
sg57
V662095075686658050
p2290
sg175
I00
sg176
g2253
sg177
Nsg178
Nsg179
I00
sg79
g2271
sg87
VThu Nov 05 02:32:21 +0000 2015
p2291
sg181
Nsg182
Nsg183
(dp2292
g185
Ven
p2293
sg187
Vrecent
p2294
sssg189
g2292
sg190
Nsg191
Nsg31
g2277
sg192
Nsg193
Nsg99
g2290
sg194
I00
sg195
Nsg196
I0
sg197
Nsbag0
(g4
g5
Ntp2295
Rp2296
(dp2297
g9
I00
sg10
Nsg11
I00
sg12
VSeaport Global Securities Weighs in on Columbus McKinnon Corp.\u2019s FY2016 Earnings $CMCO https://t.co/ww0m0J0iVg
p2298
sg14
Vhttp://ifttt.com
p2299
sg16
I00
sg17
I00
sg18
Nsg19
g0
(g20
g5
Ntp2300
Rp2301
(dp2302
g24
I00
sg25
I00
sg26
I01
sg27
VDDEEF6
p2303
sg29
L2743641378L
sg30
I00
sg31
(dp2304
g33
(dp2305
g35
(lp2306
sssg37
Vhttps://pbs.twimg.com/profile_images/501548634412838914/LR6q5snv_normal.jpeg
p2307
sg39
(dp2308
g41
I00
sg42
I00
sg43
I01
sg44
I00
sg45
L2743641378L
sg46
Vhttps://abs.twimg.com/images/themes/theme1/bg.png
p2309
sg48
I00
sg49
V333333
p2310
sg51
g2307
sg52
g2303
sg53
g2304
sg54
I668
sg55
VC0DEED
p2311
sg57
V2743641378
p2312
sg59
VC0DEED
p2313
sg61
I59
sg62
I00
sg63
Nsg64
I275759
sg33
g217
sg66
I0
sg67
g217
sg69
V0084B4
p2314
sg71
Vhttp://pbs.twimg.com/profile_images/501548634412838914/LR6q5snv_normal.jpeg
p2315
sg73
I00
sg74
I00
sg320
Vhttps://pbs.twimg.com/profile_banners/2743641378/1408413498
p2316
sg75
Vhttp://abs.twimg.com/images/themes/theme1/bg.png
p2317
sg77
VSleekMoneycom
p2318
sg79
Ven
p2319
sg81
I00
sg82
I0
sg83
VSleek Money
p2320
sg85
I00
sg86
Nsg87
VTue Aug 19 01:57:20 +0000 2014
p2321
sg89
I00
sg90
Nsg92
I00
sg93
I01
sg94
I00
ssg95
I00
sg96
g2310
sg97
I668
sg98
g2311
sg99
g2312
sg100
I00
sg101
I59
sg102
I00
sg103
Nsg104
I275759
sg105
g217
sg106
I0
sg107
g217
sg108
g2314
sg109
g2315
sg110
I00
sg111
I00
sg112
g2313
sg329
g2316
sg113
g2317
sg114
g2318
sg115
g2319
sg116
I00
sg117
I00
sg118
I0
sg119
g2320
sg120
Nsg121
g122
(S'\x07\xde\x08\x13\x019\x14\x00\x00\x00'
p2322
tp2323
Rp2324
sg126
g2309
sg127
Nsg128
I00
sg129
I01
sg130
I00
sbsg131
Nsg29
L662095073606311937L
sg132
I0
sg133
VIFTTT
p2325
sg115
Ven
p2326
sg136
g2301
sg121
g122
(S'\x07\xdf\x0b\x05\x02 \x15\x00\x00\x00'
p2327
tp2328
Rp2329
sg39
(dp2330
g141
Nsg142
I00
sg143
g2298
sg145
I00
sg146
Nsg45
L662095073606311937L
sg147
I0
sg148
V<a href="http://ifttt.com" rel="nofollow">IFTTT</a>
p2331
sg150
I00
sg151
Nsg53
(dp2332
g153
(lp2333
(dp2334
g156
(lp2335
I81
aI86
asg143
VCMCO
p2336
sasg159
(lp2337
sg161
(lp2338
sg35
(lp2339
(dp2340
g86
Vhttps://t.co/ww0m0J0iVg
p2341
sg156
(lp2342
I87
aI110
asg167
Vhttp://ift.tt/1WBdg8B
p2343
sg169
Vift.tt/1WBdg8B
p2344
sassg171
Nsg172
Nsg173
I0
sg57
V662095073606311937
p2345
sg175
I00
sg176
g2308
sg177
Nsg178
Nsg179
I00
sg79
g2326
sg87
VThu Nov 05 02:32:21 +0000 2015
p2346
sg181
Nsg182
Nsg183
(dp2347
g185
Ven
p2348
sg187
Vrecent
p2349
sssg189
g2347
sg190
Nsg191
Nsg31
g2332
sg192
Nsg193
Nsg99
g2345
sg194
I00
sg195
Nsg196
I0
sg197
Nsbag0
(g4
g5
Ntp2350
Rp2351
(dp2352
g9
I00
sg10
Nsg11
I00
sg12
VSeaport Global Securities Weighs in on Columbus McKinnon Corp.\u2019s FY2016 Earnings $CMCO https://t.co/1tUIEAnRt6
p2353
sg14
Vhttp://ifttt.com
p2354
sg16
I00
sg17
I00
sg18
Nsg19
g0
(g20
g5
Ntp2355
Rp2356
(dp2357
g24
I00
sg25
I00
sg26
I01
sg27
VEFEFEF
p2358
sg29
I1979190776
sg30
I00
sg31
(dp2359
g33
(dp2360
g35
(lp2361
sssg37
Vhttps://pbs.twimg.com/profile_images/378800000629011324/02a58ce4852fa2c0b053a8853393c35c_normal.png
p2362
sg39
(dp2363
g41
I00
sg42
I00
sg43
I01
sg44
I00
sg45
I1979190776
sg46
Vhttps://abs.twimg.com/images/themes/theme14/bg.gif
p2364
sg48
I00
sg49
V333333
p2365
sg51
g2362
sg52
g2358
sg53
g2359
sg54
I780
sg55
VEEEEEE
p2366
sg57
V1979190776
p2367
sg59
V131516
p2368
sg61
I83
sg62
I00
sg63
Nsg64
I347263
sg33
VMarket moving news
p2369
sg66
I11
sg67
VVirginia
p2370
sg69
V009999
p2371
sg71
Vhttp://pbs.twimg.com/profile_images/378800000629011324/02a58ce4852fa2c0b053a8853393c35c_normal.png
p2372
sg73
I00
sg74
I00
sg75
Vhttp://abs.twimg.com/images/themes/theme14/bg.gif
p2373
sg77
VTickerReport
p2374
sg79
Ven
p2375
sg81
I01
sg82
I0
sg83
VTicker Report
p2376
sg85
I00
sg86
Nsg87
VMon Oct 21 15:58:27 +0000 2013
p2377
sg89
I00
sg90
Nsg92
I00
sg93
I00
sg94
I00
ssg95
I00
sg96
g2365
sg97
I780
sg98
g2366
sg99
g2367
sg100
I00
sg101
I83
sg102
I00
sg103
Nsg104
I347263
sg105
g2369
sg106
I11
sg107
g2370
sg108
g2371
sg109
g2372
sg110
I00
sg111
I00
sg112
g2368
sg113
g2373
sg114
g2374
sg115
g2375
sg116
I00
sg117
I01
sg118
I0
sg119
g2376
sg120
Nsg121
g122
(S'\x07\xdd\n\x15\x0f:\x1b\x00\x00\x00'
p2378
tp2379
Rp2380
sg126
g2364
sg127
Nsg128
I00
sg129
I00
sg130
I00
sbsg131
Nsg29
L662093965836091392L
sg132
I0
sg133
VIFTTT
p2381
sg115
Ven
p2382
sg136
g2356
sg121
g122
(S'\x07\xdf\x0b\x05\x02\x1b9\x00\x00\x00'
p2383
tp2384
Rp2385
sg39
(dp2386
g141
Nsg142
I00
sg143
g2353
sg145
I00
sg146
Nsg45
L662093965836091392L
sg147
I0
sg148
V<a href="http://ifttt.com" rel="nofollow">IFTTT</a>
p2387
sg150
I00
sg151
Nsg53
(dp2388
g153
(lp2389
(dp2390
g156
(lp2391
I81
aI86
asg143
VCMCO
p2392
sasg159
(lp2393
sg161
(lp2394
sg35
(lp2395
(dp2396
g86
Vhttps://t.co/1tUIEAnRt6
p2397
sg156
(lp2398
I87
aI110
asg167
Vhttp://ift.tt/1RVTmUr
p2399
sg169
Vift.tt/1RVTmUr
p2400
sassg171
Nsg172
Nsg173
I0
sg57
V662093965836091392
p2401
sg175
I00
sg176
g2363
sg177
Nsg178
Nsg179
I00
sg79
g2382
sg87
VThu Nov 05 02:27:57 +0000 2015
p2402
sg181
Nsg182
Nsg183
(dp2403
g185
Ven
p2404
sg187
Vrecent
p2405
sssg189
g2403
sg190
Nsg191
Nsg31
g2388
sg192
Nsg193
Nsg99
g2401
sg194
I00
sg195
Nsg196
I0
sg197
Nsbag0
(g4
g5
Ntp2406
Rp2407
(dp2408
g9
I00
sg10
Nsg11
I00
sg12
VSeaport Global Securities Weighs in on Columbus McKinnon Corp.\u2019s FY2016 Earnings $CMCO https://t.co/8YAgsDFb9T
p2409
sg14
Vhttp://ifttt.com
p2410
sg16
I00
sg17
I00
sg18
Nsg19
g0
(g20
g5
Ntp2411
Rp2412
(dp2413
g24
I00
sg25
I00
sg26
I01
sg27
VCCDAFF
p2414
sg29
I61661638
sg30
I00
sg31
(dp2415
g86
(dp2416
g35
(lp2417
(dp2418
g86
Vhttp://t.co/7EZswS49Q1
p2419
sg156
(lp2420
I0
aI22
asg167
Vhttp://www.americanbankingnews.com/
p2421
sg169
Vamericanbankingnews.com
p2422
sassg33
(dp2423
g35
(lp2424
sssg37
Vhttps://pbs.twimg.com/profile_images/541252987/Image5_normal.jpg
p2425
sg39
(dp2426
g41
I00
sg42
I00
sg43
I01
sg44
I00
sg45
I61661638
sg46
Vhttps://pbs.twimg.com/profile_background_images/55647305/background.png
p2427
sg48
I00
sg49
V141414
p2428
sg51
g2425
sg52
g2414
sg53
g2415
sg54
I5557
sg55
VABB1D9
p2429
sg57
V61661638
p2430
sg59
V000000
p2431
sg61
I469
sg62
I00
sg63
I-21600
sg64
I693975
sg33
VBanks, Credit Unions & Financial Institutions
p2432
sg66
I2307
sg67
VSioux Falls, SD
p2433
sg69
VA60000
p2434
sg71
Vhttp://pbs.twimg.com/profile_images/541252987/Image5_normal.jpg
p2435
sg73
I00
sg74
I00
sg75
Vhttp://pbs.twimg.com/profile_background_images/55647305/background.png
p2436
sg77
VAmericanBanking
p2437
sg79
Ven
p2438
sg81
I01
sg82
I0
sg83
VUS Banking News
p2439
sg85
I00
sg86
Vhttp://t.co/7EZswS49Q1
p2440
sg87
VFri Jul 31 01:58:33 +0000 2009
p2441
sg89
I00
sg90
VCentral Time (US & Canada)
p2442
sg92
I00
sg93
I00
sg94
I00
ssg95
I00
sg96
g2428
sg97
I5557
sg98
g2429
sg99
g2430
sg100
I00
sg101
I469
sg102
I00
sg103
I-21600
sg104
I693975
sg105
g2432
sg106
I2307
sg107
g2433
sg108
g2434
sg109
g2435
sg110
I00
sg111
I00
sg112
g2431
sg113
g2436
sg114
g2437
sg115
g2438
sg116
I00
sg117
I01
sg118
I0
sg119
g2439
sg120
g2440
sg121
g122
(S'\x07\xd9\x07\x1f\x01:!\x00\x00\x00'
p2443
tp2444
Rp2445
sg126
g2427
sg127
g2442
sg128
I00
sg129
I00
sg130
I00
sbsg131
Nsg29
L662093397692448768L
sg132
I0
sg133
VIFTTT
p2446
sg115
Ven
p2447
sg136
g2412
sg121
g122
(S'\x07\xdf\x0b\x05\x02\x19)\x00\x00\x00'
p2448
tp2449
Rp2450
sg39
(dp2451
g141
Nsg142
I00
sg143
g2409
sg145
I00
sg146
Nsg45
L662093397692448768L
sg147
I0
sg148
V<a href="http://ifttt.com" rel="nofollow">IFTTT</a>
p2452
sg150
I00
sg151
Nsg53
(dp2453
g153
(lp2454
(dp2455
g156
(lp2456
I81
aI86
asg143
VCMCO
p2457
sasg159
(lp2458
sg161
(lp2459
sg35
(lp2460
(dp2461
g86
Vhttps://t.co/8YAgsDFb9T
p2462
sg156
(lp2463
I87
aI110
asg167
Vhttp://ift.tt/1RVTmUr
p2464
sg169
Vift.tt/1RVTmUr
p2465
sassg171
Nsg172
Nsg173
I0
sg57
V662093397692448768
p2466
sg175
I00
sg176
g2426
sg177
Nsg178
Nsg179
I00
sg79
g2447
sg87
VThu Nov 05 02:25:41 +0000 2015
p2467
sg181
Nsg182
Nsg183
(dp2468
g185
Ven
p2469
sg187
Vrecent
p2470
sssg189
g2468
sg190
Nsg191
Nsg31
g2453
sg192
Nsg193
Nsg99
g2466
sg194
I00
sg195
Nsg196
I0
sg197
Nsbag0
(g4
g5
Ntp2471
Rp2472
(dp2473
g9
I00
sg10
Nsg11
I00
sg12
VColumbus McKinnon Corp. Forecasted to Post FY2017 Earnings of $1.95 Per Share $CMCO https://t.co/C99Tee04gf
p2474
sg14
Vhttp://ifttt.com
p2475
sg16
I00
sg17
I00
sg18
Nsg19
g0
(g20
g5
Ntp2476
Rp2477
(dp2478
g24
I00
sg25
I00
sg26
I01
sg27
VDDEEF6
p2479
sg29
L2348716116L
sg30
I00
sg31
(dp2480
g33
(dp2481
g35
(lp2482
sssg37
Vhttps://pbs.twimg.com/profile_images/435451774560780288/FFoDLORK_normal.jpeg
p2483
sg39
(dp2484
g41
I00
sg42
I00
sg43
I01
sg44
I00
sg45
L2348716116L
sg46
Vhttps://abs.twimg.com/images/themes/theme1/bg.png
p2485
sg48
I00
sg49
V333333
p2486
sg51
g2483
sg52
g2479
sg53
g2480
sg54
I2013
sg55
VC0DEED
p2487
sg57
V2348716116
p2488
sg59
VC0DEED
p2489
sg61
I44
sg62
I00
sg63
Nsg64
I161080
sg33
VThe Legacy is your news leader for headlines at the local, state and national level.
p2490
sg66
I11
sg67
g217
sg69
V0084B4
p2491
sg71
Vhttp://pbs.twimg.com/profile_images/435451774560780288/FFoDLORK_normal.jpeg
p2492
sg73
I00
sg74
I00
sg75
Vhttp://abs.twimg.com/images/themes/theme1/bg.png
p2493
sg77
Vthelegacynewswi
p2494
sg79
Ven
p2495
sg81
I00
sg82
I0
sg83
VThe Legacy News
p2496
sg85
I00
sg86
Nsg87
VMon Feb 17 16:19:38 +0000 2014
p2497
sg89
I00
sg90
Nsg92
I00
sg93
I01
sg94
I00
ssg95
I00
sg96
g2486
sg97
I2013
sg98
g2487
sg99
g2488
sg100
I00
sg101
I44
sg102
I00
sg103
Nsg104
I161080
sg105
g2490
sg106
I11
sg107
g217
sg108
g2491
sg109
g2492
sg110
I00
sg111
I00
sg112
g2489
sg113
g2493
sg114
g2494
sg115
g2495
sg116
I00
sg117
I00
sg118
I0
sg119
g2496
sg120
Nsg121
g122
(S'\x07\xde\x02\x11\x10\x13&\x00\x00\x00'
p2498
tp2499
Rp2500
sg126
g2485
sg127
Nsg128
I00
sg129
I01
sg130
I00
sbsg131
Nsg29
L662069456617754624L
sg132
I0
sg133
VIFTTT
p2501
sg115
Ven
p2502
sg136
g2477
sg121
g122
(S'\x07\xdf\x0b\x05\x002!\x00\x00\x00'
p2503
tp2504
Rp2505
sg39
(dp2506
g141
Nsg142
I00
sg143
g2474
sg145
I00
sg146
Nsg45
L662069456617754624L
sg147
I0
sg148
V<a href="http://ifttt.com" rel="nofollow">IFTTT</a>
p2507
sg150
I00
sg151
Nsg53
(dp2508
g153
(lp2509
(dp2510
g156
(lp2511
I78
aI83
asg143
VCMCO
p2512
sasg159
(lp2513
sg161
(lp2514
sg35
(lp2515
(dp2516
g86
Vhttps://t.co/C99Tee04gf
p2517
sg156
(lp2518
I84
aI107
asg167
Vhttp://ift.tt/1GMp7iL
p2519
sg169
Vift.tt/1GMp7iL
p2520
sassg171
Nsg172
Nsg173
I0
sg57
V662069456617754624
p2521
sg175
I00
sg176
g2484
sg177
Nsg178
Nsg179
I00
sg79
g2502
sg87
VThu Nov 05 00:50:33 +0000 2015
p2522
sg181
Nsg182
Nsg183
(dp2523
g185
Ven
p2524
sg187
Vrecent
p2525
sssg189
g2523
sg190
Nsg191
Nsg31
g2508
sg192
Nsg193
Nsg99
g2521
sg194
I00
sg195
Nsg196
I0
sg197
Nsbag0
(g4
g5
Ntp2526
Rp2527
(dp2528
g9
I00
sg10
Nsg11
I00
sg12
VImp catalysts 4 MEIP &amp; CALA in d cmg week Here is DD 4 investors:https://t.co/lwSyWTxOEB $CM $CMA $CMA.W $CMBS $CMC $CMCM $CMCO $CMCSA
p2529
sg14
Vhttp://twittimer.com
p2530
sg16
I00
sg17
I00
sg18
Nsg19
g0
(g20
g5
Ntp2531
Rp2532
(dp2533
g24
I00
sg25
I01
sg26
I00
sg27
V000000
p2534
sg29
L3518191635L
sg30
I00
sg31
(dp2535
g86
(dp2536
g35
(lp2537
(dp2538
g86
Vhttps://t.co/ot2Kl5nyub
p2539
sg156
(lp2540
I0
aI23
asg167
Vhttps://groups.google.com/forum/#!forum/jbem777
p2541
sg169
Vgroups.google.com/forum/#!forum/\u2026
p2542
sassg33
(dp2543
g35
(lp2544
sssg37
Vhttps://pbs.twimg.com/profile_images/638885869433196544/C975RWXJ_normal.jpg
p2545
sg39
(dp2546
g41
I00
sg42
I01
sg43
I00
sg44
I00
sg45
L3518191635L
sg46
Vhttps://abs.twimg.com/images/themes/theme1/bg.png
p2547
sg48
I00
sg49
V000000
p2548
sg51
g2545
sg52
g2534
sg53
g2535
sg54
I28
sg55
V000000
p2549
sg57
V3518191635
p2550
sg59
V000000
p2551
sg61
I1
sg62
I00
sg63
I-28800
sg64
I1505
sg33
VHealthcare Stocks
p2552
sg66
I25
sg67
g217
sg69
V89C9FA
p2553
sg71
Vhttp://pbs.twimg.com/profile_images/638885869433196544/C975RWXJ_normal.jpg
p2554
sg73
I00
sg74
I00
sg75
Vhttp://abs.twimg.com/images/themes/theme1/bg.png
p2555
sg77
Vjbemstocks
p2556
sg79
Ven
p2557
sg81
I00
sg82
I0
sg83
VDUE DILIGENCE
p2558
sg85
I00
sg86
Vhttps://t.co/ot2Kl5nyub
p2559
sg87
VWed Sep 02 01:23:46 +0000 2015
p2560
sg89
I00
sg90
VPacific Time (US & Canada)
p2561
sg92
I00
sg93
I00
sg94
I00
ssg95
I00
sg96
g2548
sg97
I28
sg98
g2549
sg99
g2550
sg100
I00
sg101
I1
sg102
I00
sg103
I-28800
sg104
I1505
sg105
g2552
sg106
I25
sg107
g217
sg108
g2553
sg109
g2554
sg110
I00
sg111
I00
sg112
g2551
sg113
g2555
sg114
g2556
sg115
g2557
sg116
I00
sg117
I00
sg118
I0
sg119
g2558
sg120
g2559
sg121
g122
(S'\x07\xdf\t\x02\x01\x17.\x00\x00\x00'
p2562
tp2563
Rp2564
sg126
g2547
sg127
g2561
sg128
I00
sg129
I00
sg130
I00
sbsg131
Nsg29
L662051712329379840L
sg132
I0
sg133
VTwittimer
p2565
sg115
Vsl
p2566
sg136
g2532
sg121
g122
(S'\x07\xdf\x0b\x04\x17(\x03\x00\x00\x00'
p2567
tp2568
Rp2569
sg39
(dp2570
g141
Nsg142
I00
sg143
g2529
sg145
I00
sg146
Nsg45
L662051712329379840L
sg147
I0
sg148
V<a href="http://twittimer.com" rel="nofollow">Twittimer</a>
p2571
sg150
I00
sg151
Nsg53
(dp2572
g153
(lp2573
(dp2574
g156
(lp2575
I93
aI96
asg143
VCM
p2576
sa(dp2577
g156
(lp2578
I97
aI101
asg143
VCMA
p2579
sa(dp2580
g156
(lp2581
I102
aI108
asg143
VCMA.W
p2582
sa(dp2583
g156
(lp2584
I109
aI114
asg143
VCMBS
p2585
sa(dp2586
g156
(lp2587
I115
aI119
asg143
VCMC
p2588
sa(dp2589
g156
(lp2590
I120
aI125
asg143
VCMCM
p2591
sa(dp2592
g156
(lp2593
I126
aI131
asg143
VCMCO
p2594
sa(dp2595
g156
(lp2596
I132
aI138
asg143
VCMCSA
p2597
sasg159
(lp2598
sg161
(lp2599
sg35
(lp2600
(dp2601
g86
Vhttps://t.co/lwSyWTxOEB
p2602
sg156
(lp2603
I69
aI92
asg167
Vhttp://bit.ly/1KjZ8cR
p2604
sg169
Vbit.ly/1KjZ8cR
p2605
sassg171
Nsg172
Nsg173
I0
sg57
V662051712329379840
p2606
sg175
I00
sg176
g2546
sg177
Nsg178
Nsg179
I00
sg79
g2566
sg87
VWed Nov 04 23:40:03 +0000 2015
p2607
sg181
Nsg182
Nsg183
(dp2608
g185
Vsl
p2609
sg187
Vrecent
p2610
sssg189
g2608
sg190
Nsg191
Nsg31
g2572
sg192
Nsg193
Nsg99
g2606
sg194
I00
sg195
Nsg196
I0
sg197
Nsbag0
(g4
g5
Ntp2611
Rp2612
(dp2613
g9
I00
sg10
Nsg11
I00
sg12
VColumbus McKinnon Corp. Lowered to Hold at Zacks $CMCO https://t.co/zoAwiJq95P
p2614
sg14
Vhttp://ifttt.com
p2615
sg16
I00
sg17
I00
sg18
Nsg19
g0
(g20
g5
Ntp2616
Rp2617
(dp2618
g24
I00
sg25
I00
sg26
I01
sg27
VDDEEF6
p2619
sg29
I565538332
sg30
I00
sg31
(dp2620
g86
(dp2621
g35
(lp2622
(dp2623
g86
Vhttp://t.co/u5AEanTvP3
p2624
sg156
(lp2625
I0
aI22
asg167
Vhttp://www.zolmax.com
p2626
sg169
Vzolmax.com
p2627
sassg33
(dp2628
g35
(lp2629
(dp2630
g86
Vhttp://t.co/SHZtZA5fhb
p2631
sg156
(lp2632
I14
aI36
asg167
Vhttp://Zolmax.com
p2633
sg169
VZolmax.com
p2634
sasssg37
Vhttps://pbs.twimg.com/profile_images/2172961480/zolmax_big_normal.jpg
p2635
sg39
(dp2636
g41
I00
sg42
I00
sg43
I01
sg44
I00
sg45
I565538332
sg46
Vhttps://abs.twimg.com/images/themes/theme1/bg.png
p2637
sg48
I00
sg49
V333333
p2638
sg51
g2635
sg52
g2619
sg53
g2620
sg54
I424
sg55
VC0DEED
p2639
sg57
V565538332
p2640
sg59
VC0DEED
p2641
sg61
I31
sg62
I00
sg63
Nsg64
I105006
sg33
VZolmax News - http://t.co/SHZtZA5fhb
p2642
sg66
I5
sg67
g217
sg69
V0084B4
p2643
sg71
Vhttp://pbs.twimg.com/profile_images/2172961480/zolmax_big_normal.jpg
p2644
sg73
I00
sg74
I00
sg75
Vhttp://abs.twimg.com/images/themes/theme1/bg.png
p2645
sg77
VZolmaxNews
p2646
sg79
Ven
p2647
sg81
I00
sg82
I0
sg83
VZolmax News
p2648
sg85
I00
sg86
Vhttp://t.co/u5AEanTvP3
p2649
sg87
VSat Apr 28 15:46:12 +0000 2012
p2650
sg89
I00
sg90
Nsg92
I00
sg93
I01
sg94
I00
ssg95
I00
sg96
g2638
sg97
I424
sg98
g2639
sg99
g2640
sg100
I00
sg101
I31
sg102
I00
sg103
Nsg104
I105006
sg105
g2642
sg106
I5
sg107
g217
sg108
g2643
sg109
g2644
sg110
I00
sg111
I00
sg112
g2641
sg113
g2645
sg114
g2646
sg115
g2647
sg116
I00
sg117
I00
sg118
I0
sg119
g2648
sg120
g2649
sg121
g122
(S'\x07\xdc\x04\x1c\x0f.\x0c\x00\x00\x00'
p2651
tp2652
Rp2653
sg126
g2637
sg127
Nsg128
I00
sg129
I01
sg130
I00
sbsg131
Nsg29
L662022331741708288L
sg132
I0
sg133
VIFTTT
p2654
sg115
Ven
p2655
sg136
g2617
sg121
g122
(S'\x07\xdf\x0b\x04\x15+\x12\x00\x00\x00'
p2656
tp2657
Rp2658
sg39
(dp2659
g141
Nsg142
I00
sg143
g2614
sg145
I00
sg146
Nsg45
L662022331741708288L
sg147
I0
sg148
V<a href="http://ifttt.com" rel="nofollow">IFTTT</a>
p2660
sg150
I00
sg151
Nsg53
(dp2661
g153
(lp2662
(dp2663
g156
(lp2664
I49
aI54
asg143
VCMCO
p2665
sasg159
(lp2666
sg161
(lp2667
sg35
(lp2668
(dp2669
g86
Vhttps://t.co/zoAwiJq95P
p2670
sg156
(lp2671
I55
aI78
asg167
Vhttp://ift.tt/1Mddy0O
p2672
sg169
Vift.tt/1Mddy0O
p2673
sassg171
Nsg172
Nsg173
I0
sg57
V662022331741708288
p2674
sg175
I00
sg176
g2636
sg177
Nsg178
Nsg179
I00
sg79
g2655
sg87
VWed Nov 04 21:43:18 +0000 2015
p2675
sg181
Nsg182
Nsg183
(dp2676
g185
Ven
p2677
sg187
Vrecent
p2678
sssg189
g2676
sg190
Nsg191
Nsg31
g2661
sg192
Nsg193
Nsg99
g2674
sg194
I00
sg195
Nsg196
I0
sg197
Nsbag0
(g4
g5
Ntp2679
Rp2680
(dp2681
g9
I00
sg10
Nsg11
I00
sg12
V$CMCO:\u000a\u000aSeaport Global Securities Expects Columbus McKinnon Corp. to \u2026:\u000a\u000ahttps://t.co/jhLJrgL2ca \u2026 https://t.co/z4FkAoo3vy
p2682
sg14
Vhttp://ifttt.com
p2683
sg16
I00
sg17
I00
sg18
Nsg19
g0
(g20
g5
Ntp2684
Rp2685
(dp2686
g24
I00
sg25
I00
sg26
I01
sg27
VDDEEF6
p2687
sg29
L4068364581L
sg30
I00
sg31
(dp2688
g33
(dp2689
g35
(lp2690
sssg37
Vhttps://pbs.twimg.com/profile_images/659743716991627264/K5OF5MSt_normal.jpg
p2691
sg39
(dp2692
g41
I00
sg42
I00
sg43
I01
sg44
I00
sg45
L4068364581L
sg46
Vhttps://abs.twimg.com/images/themes/theme1/bg.png
p2693
sg48
I00
sg49
V333333
p2694
sg51
g2691
sg52
g2687
sg53
g2688
sg54
I3
sg55
VC0DEED
p2695
sg57
V4068364581
p2696
sg59
VC0DEED
p2697
sg61
I0
sg62
I00
sg63
I-21600
sg64
I33074
sg33
VRestauranteur, Humanitarian, Television Host, Oscar-loser, King of the Forest. Can you blow my whistle?.
p2698
sg66
I0
sg67
VPhiladelphia, PA
p2699
sg69
V0084B4
p2700
sg71
Vhttp://pbs.twimg.com/profile_images/659743716991627264/K5OF5MSt_normal.jpg
p2701
sg73
I00
sg74
I00
sg320
Vhttps://pbs.twimg.com/profile_banners/4068364581/1446130069
p2702
sg75
Vhttp://abs.twimg.com/images/themes/theme1/bg.png
p2703
sg77
VfussHanna
p2704
sg79
Ven
p2705
sg81
I00
sg82
I0
sg83
VHanna
p2706
sg85
I00
sg86
Nsg87
VThu Oct 29 14:44:12 +0000 2015
p2707
sg89
I00
sg90
VCentral Time (US & Canada)
p2708
sg92
I00
sg93
I01
sg94
I00
ssg95
I00
sg96
g2694
sg97
I3
sg98
g2695
sg99
g2696
sg100
I00
sg101
I0
sg102
I00
sg103
I-21600
sg104
I33074
sg105
g2698
sg106
I0
sg107
g2699
sg108
g2700
sg109
g2701
sg110
I00
sg111
I00
sg112
g2697
sg329
g2702
sg113
g2703
sg114
g2704
sg115
g2705
sg116
I00
sg117
I00
sg118
I0
sg119
g2706
sg120
Nsg121
g122
(S'\x07\xdf\n\x1d\x0e,\x0c\x00\x00\x00'
p2709
tp2710
Rp2711
sg126
g2693
sg127
g2708
sg128
I00
sg129
I01
sg130
I00
sbsg131
Nsg29
L661673353447645185L
sg132
I0
sg133
VIFTTT
p2712
sg115
Ven
p2713
sg136
g2685
sg121
g122
(S'\x07\xdf\x0b\x03\x16$#\x00\x00\x00'
p2714
tp2715
Rp2716
sg39
(dp2717
g141
Nsg142
I00
sg143
V$CMCO:\u000a\u000aSeaport Global Securities Expects Columbus McKinnon Corp. to \u2026:\u000a\u000ahttps://t.co/jhLJrgL2ca \u2026 https://t.co/z4FkAoo3vy
p2718
sg145
I00
sg146
Nsg45
L661673353447645185L
sg147
I0
sg148
V<a href="http://ifttt.com" rel="nofollow">IFTTT</a>
p2719
sg150
I00
sg151
Nsg53
(dp2720
g153
(lp2721
(dp2722
g156
(lp2723
I0
aI5
asg143
VCMCO
p2724
sasg159
(lp2725
sg161
(lp2726
sg35
(lp2727
(dp2728
g86
Vhttps://t.co/jhLJrgL2ca
p2729
sg156
(lp2730
I73
aI96
asg167
Vhttp://StockNewsHour.com/cmco-seaport-global-securities-expects-columbus-mckinnon-corp-to/
p2731
sg169
VStockNewsHour.com/cmco-seaport-g\u2026
p2732
sa(dp2733
g86
Vhttps://t.co/z4FkAoo3vy
p2734
sg156
(lp2735
I99
aI122
asg167
Vhttps://goo.gl/t4fpx2
p2736
sg169
Vgoo.gl/t4fpx2
p2737
sassg171
Nsg172
Nsg173
I0
sg57
V661673353447645185
p2738
sg175
I00
sg176
g2692
sg177
Nsg178
Nsg179
I00
sg79
g2713
sg87
VTue Nov 03 22:36:35 +0000 2015
p2739
sg181
Nsg182
Nsg183
(dp2740
g185
Ven
p2741
sg187
Vrecent
p2742
sssg189
g2740
sg190
Nsg191
Nsg31
g2720
sg192
Nsg193
Nsg99
g2738
sg194
I00
sg195
Nsg196
I0
sg197
Nsbag0
(g4
g5
Ntp2743
Rp2744
(dp2745
g9
I00
sg10
Nsg11
I00
sg12
VSeaport Global Securities Expects Columbus McKinnon Corp. to Earn Q1 2016 Earnings of $0.55 Per Share $CMCO \u2026 \u2026 https://t.co/z4FkAoo3vy
p2746
sg14
Vhttp://ifttt.com
p2747
sg16
I00
sg17
I00
sg18
Nsg19
g0
(g20
g5
Ntp2748
Rp2749
(dp2750
g24
I00
sg25
I00
sg26
I01
sg27
VDDEEF6
p2751
sg29
L4068364581L
sg30
I00
sg31
(dp2752
g33
(dp2753
g35
(lp2754
sssg37
Vhttps://pbs.twimg.com/profile_images/659743716991627264/K5OF5MSt_normal.jpg
p2755
sg39
(dp2756
g41
I00
sg42
I00
sg43
I01
sg44
I00
sg45
L4068364581L
sg46
Vhttps://abs.twimg.com/images/themes/theme1/bg.png
p2757
sg48
I00
sg49
V333333
p2758
sg51
g2755
sg52
g2751
sg53
g2752
sg54
I3
sg55
VC0DEED
p2759
sg57
V4068364581
p2760
sg59
VC0DEED
p2761
sg61
I0
sg62
I00
sg63
I-21600
sg64
I33074
sg33
VRestauranteur, Humanitarian, Television Host, Oscar-loser, King of the Forest. Can you blow my whistle?.
p2762
sg66
I0
sg67
VPhiladelphia, PA
p2763
sg69
V0084B4
p2764
sg71
Vhttp://pbs.twimg.com/profile_images/659743716991627264/K5OF5MSt_normal.jpg
p2765
sg73
I00
sg74
I00
sg320
Vhttps://pbs.twimg.com/profile_banners/4068364581/1446130069
p2766
sg75
Vhttp://abs.twimg.com/images/themes/theme1/bg.png
p2767
sg77
VfussHanna
p2768
sg79
Ven
p2769
sg81
I00
sg82
I0
sg83
VHanna
p2770
sg85
I00
sg86
Nsg87
VThu Oct 29 14:44:12 +0000 2015
p2771
sg89
I00
sg90
VCentral Time (US & Canada)
p2772
sg92
I00
sg93
I01
sg94
I00
ssg95
I00
sg96
g2758
sg97
I3
sg98
g2759
sg99
g2760
sg100
I00
sg101
I0
sg102
I00
sg103
I-21600
sg104
I33074
sg105
g2762
sg106
I0
sg107
g2763
sg108
g2764
sg109
g2765
sg110
I00
sg111
I00
sg112
g2761
sg329
g2766
sg113
g2767
sg114
g2768
sg115
g2769
sg116
I00
sg117
I00
sg118
I0
sg119
g2770
sg120
Nsg121
g122
(S'\x07\xdf\n\x1d\x0e,\x0c\x00\x00\x00'
p2773
tp2774
Rp2775
sg126
g2757
sg127
g2772
sg128
I00
sg129
I01
sg130
I00
sbsg131
Nsg29
L661673351849582592L
sg132
I0
sg133
VIFTTT
p2776
sg115
Ven
p2777
sg136
g2749
sg121
g122
(S'\x07\xdf\x0b\x03\x16$#\x00\x00\x00'
p2778
tp2779
Rp2780
sg39
(dp2781
g141
Nsg142
I00
sg143
g2746
sg145
I00
sg146
Nsg45
L661673351849582592L
sg147
I0
sg148
V<a href="http://ifttt.com" rel="nofollow">IFTTT</a>
p2782
sg150
I00
sg151
Nsg53
(dp2783
g153
(lp2784
(dp2785
g156
(lp2786
I102
aI107
asg143
VCMCO
p2787
sasg159
(lp2788
sg161
(lp2789
sg35
(lp2790
(dp2791
g86
Vhttps://t.co/z4FkAoo3vy
p2792
sg156
(lp2793
I112
aI135
asg167
Vhttps://goo.gl/t4fpx2
p2794
sg169
Vgoo.gl/t4fpx2
p2795
sassg171
Nsg172
Nsg173
I0
sg57
V661673351849582592
p2796
sg175
I00
sg176
g2756
sg177
Nsg178
Nsg179
I00
sg79
g2777
sg87
VTue Nov 03 22:36:35 +0000 2015
p2797
sg181
Nsg182
Nsg183
(dp2798
g185
Ven
p2799
sg187
Vrecent
p2800
sssg189
g2798
sg190
Nsg191
Nsg31
g2783
sg192
Nsg193
Nsg99
g2796
sg194
I00
sg195
Nsg196
I0
sg197
Nsbag0
(g4
g5
Ntp2801
Rp2802
(dp2803
g9
I00
sg10
Nsg11
I00
sg12
V$CMCO:\u000a\u000aBB&amp;T Corp. Issues FY2016 Earnings Forecast for Columbus \u2026:\u000a\u000ahttps://t.co/s3sy5wsi2l
p2804
sg14
Vhttp://www.stocknewswires.com
p2805
sg16
I00
sg17
I00
sg18
Nsg19
g0
(g20
g5
Ntp2806
Rp2807
(dp2808
g24
I00
sg25
I00
sg26
I01
sg27
VE3E2DE
p2809
sg29
L2344619544L
sg30
I00
sg31
(dp2810
g33
(dp2811
g35
(lp2812
sssg37
Vhttps://pbs.twimg.com/profile_images/562292381764952064/mVtp0UmJ_normal.jpeg
p2813
sg39
(dp2814
g41
I00
sg42
I00
sg43
I01
sg44
I00
sg45
L2344619544L
sg46
Vhttps://abs.twimg.com/images/themes/theme3/bg.gif
p2815
sg48
I00
sg49
V634047
p2816
sg51
g2813
sg52
g2809
sg53
g2810
sg54
I516
sg55
VD3D2CF
p2817
sg57
V2344619544
p2818
sg59
VEDECE9
p2819
sg61
I85
sg62
I01
sg63
I-18000
sg64
I182019
sg33
VNews about Stocks
p2820
sg66
I0
sg67
VU.S.
p2821
sg69
V088253
p2822
sg71
Vhttp://pbs.twimg.com/profile_images/562292381764952064/mVtp0UmJ_normal.jpeg
p2823
sg73
I00
sg74
I00
sg75
Vhttp://abs.twimg.com/images/themes/theme3/bg.gif
p2824
sg77
VNewsToDesk
p2825
sg79
Ven
p2826
sg81
I00
sg82
I0
sg83
VBreakingStocksNews
p2827
sg85
I00
sg86
Nsg87
VSat Feb 15 05:49:10 +0000 2014
p2828
sg89
I00
sg90
VEastern Time (US & Canada)
p2829
sg92
I00
sg93
I00
sg94
I00
ssg95
I00
sg96
g2816
sg97
I516
sg98
g2817
sg99
g2818
sg100
I00
sg101
I85
sg102
I01
sg103
I-18000
sg104
I182019
sg105
g2820
sg106
I0
sg107
g2821
sg108
g2822
sg109
g2823
sg110
I00
sg111
I00
sg112
g2819
sg113
g2824
sg114
g2825
sg115
g2826
sg116
I00
sg117
I00
sg118
I0
sg119
g2827
sg120
Nsg121
g122
(S'\x07\xde\x02\x0f\x051\n\x00\x00\x00'
p2830
tp2831
Rp2832
sg126
g2815
sg127
g2829
sg128
I00
sg129
I00
sg130
I00
sbsg131
Nsg29
L661671236947329025L
sg132
I0
sg133
VStockNewsWires
p2833
sg115
Ven
p2834
sg136
g2807
sg121
g122
(S'\x07\xdf\x0b\x03\x16\x1c\n\x00\x00\x00'
p2835
tp2836
Rp2837
sg39
(dp2838
g141
Nsg142
I00
sg143
V$CMCO:\u000a\u000aBB&amp;T Corp. Issues FY2016 Earnings Forecast for Columbus \u2026:\u000a\u000ahttps://t.co/s3sy5wsi2l
p2839
sg145
I00
sg146
Nsg45
L661671236947329025L
sg147
I0
sg148
V<a href="http://www.stocknewswires.com" rel="nofollow">StockNewsWires</a>
p2840
sg150
I00
sg151
Nsg53
(dp2841
g153
(lp2842
(dp2843
g156
(lp2844
I0
aI5
asg143
VCMCO
p2845
sasg159
(lp2846
sg161
(lp2847
sg35
(lp2848
(dp2849
g86
Vhttps://t.co/s3sy5wsi2l
p2850
sg156
(lp2851
I72
aI95
asg167
Vhttp://StockNewsHour.com/cmco-bbt-corp-issues-fy2016-earnings-forecast-for-columbus/
p2852
sg169
VStockNewsHour.com/cmco-bbt-corp-\u2026
p2853
sassg171
Nsg172
Nsg173
I0
sg57
V661671236947329025
p2854
sg175
I00
sg176
g2814
sg177
Nsg178
Nsg179
I00
sg79
g2834
sg87
VTue Nov 03 22:28:10 +0000 2015
p2855
sg181
Nsg182
Nsg183
(dp2856
g185
Ven
p2857
sg187
Vrecent
p2858
sssg189
g2856
sg190
Nsg191
Nsg31
g2841
sg192
Nsg193
Nsg99
g2854
sg194
I00
sg195
Nsg196
I0
sg197
Nsbag0
(g4
g5
Ntp2859
Rp2860
(dp2861
g9
I00
sg10
Nsg11
I00
sg12
V$CMCO:\u000a\u000aEquities Analysts Set Expectations for Columbus McKinnon Corp.\u2019s \u2026:\u000a\u000ahttps://t.co/vEYKrazCgg
p2862
sg14
Vhttp://www.newsflowing.com
p2863
sg16
I00
sg17
I00
sg18
Nsg19
g0
(g20
g5
Ntp2864
Rp2865
(dp2866
g24
I00
sg25
I00
sg26
I01
sg27
VDDFFCC
p2867
sg29
L2342763212L
sg30
I00
sg31
(dp2868
g33
(dp2869
g35
(lp2870
sssg37
Vhttps://pbs.twimg.com/profile_images/544036701056684032/FY2Xgs7b_normal.jpeg
p2871
sg39
(dp2872
g41
I00
sg42
I00
sg43
I01
sg44
I00
sg45
L2342763212L
sg46
Vhttps://abs.twimg.com/images/themes/theme16/bg.gif
p2873
sg48
I00
sg49
V333333
p2874
sg51
g2871
sg52
g2867
sg53
g2868
sg54
I421
sg55
VBDDCAD
p2875
sg57
V2342763212
p2876
sg59
V9AE4E8
p2877
sg61
I74
sg62
I00
sg63
I-14400
sg64
I193979
sg33
VNews as it happens
p2878
sg66
I0
sg67
VUS
p2879
sg69
V0084B4
p2880
sg71
Vhttp://pbs.twimg.com/profile_images/544036701056684032/FY2Xgs7b_normal.jpeg
p2881
sg73
I00
sg74
I00
sg75
Vhttp://abs.twimg.com/images/themes/theme16/bg.gif
p2882
sg77
Vnewswelldone
p2883
sg79
Ven
p2884
sg81
I00
sg82
I0
sg83
VBreaking News
p2885
sg85
I00
sg86
Nsg87
VFri Feb 14 00:21:52 +0000 2014
p2886
sg89
I00
sg90
VAtlantic Time (Canada)
p2887
sg92
I00
sg93
I00
sg94
I00
ssg95
I00
sg96
g2874
sg97
I421
sg98
g2875
sg99
g2876
sg100
I00
sg101
I74
sg102
I00
sg103
I-14400
sg104
I193979
sg105
g2878
sg106
I0
sg107
g2879
sg108
g2880
sg109
g2881
sg110
I00
sg111
I00
sg112
g2877
sg113
g2882
sg114
g2883
sg115
g2884
sg116
I00
sg117
I00
sg118
I0
sg119
g2885
sg120
Nsg121
g122
(S'\x07\xde\x02\x0e\x00\x154\x00\x00\x00'
p2888
tp2889
Rp2890
sg126
g2873
sg127
g2887
sg128
I00
sg129
I00
sg130
I00
sbsg131
Nsg29
L661669968682098688L
sg132
I0
sg133
VNFIG
p2891
sg115
Ven
p2892
sg136
g2865
sg121
g122
(S'\x07\xdf\x0b\x03\x16\x17\x08\x00\x00\x00'
p2893
tp2894
Rp2895
sg39
(dp2896
g141
Nsg142
I00
sg143
V$CMCO:\u000a\u000aEquities Analysts Set Expectations for Columbus McKinnon Corp.\u2019s \u2026:\u000a\u000ahttps://t.co/vEYKrazCgg
p2897
sg145
I00
sg146
Nsg45
L661669968682098688L
sg147
I0
sg148
V<a href="http://www.newsflowing.com" rel="nofollow">NFIG</a>
p2898
sg150
I00
sg151
Nsg53
(dp2899
g153
(lp2900
(dp2901
g156
(lp2902
I0
aI5
asg143
VCMCO
p2903
sasg159
(lp2904
sg161
(lp2905
sg35
(lp2906
(dp2907
g86
Vhttps://t.co/vEYKrazCgg
p2908
sg156
(lp2909
I77
aI100
asg167
Vhttp://StockNewsHour.com/cmco-equities-analysts-set-expectations-for-columbus-mckinnon-corp-s/
p2910
sg169
VStockNewsHour.com/cmco-equities-\u2026
p2911
sassg171
Nsg172
Nsg173
I0
sg57
V661669968682098688
p2912
sg175
I00
sg176
g2872
sg177
Nsg178
Nsg179
I00
sg79
g2892
sg87
VTue Nov 03 22:23:08 +0000 2015
p2913
sg181
Nsg182
Nsg183
(dp2914
g185
Ven
p2915
sg187
Vrecent
p2916
sssg189
g2914
sg190
Nsg191
Nsg31
g2899
sg192
Nsg193
Nsg99
g2912
sg194
I00
sg195
Nsg196
I0
sg197
Nsbag0
(g4
g5
Ntp2917
Rp2918
(dp2919
g9
I00
sg10
Nsg11
I00
sg12
V$CMCO:\u000a\u000aSeaport Global Securities Expects Columbus McKinnon Corp. to \u2026:\u000a\u000ahttps://t.co/jhLJrgL2ca https://t.co/z4FkAoo3vy
p2920
sg14
Vhttp://ifttt.com
p2921
sg16
I00
sg17
I00
sg18
Nsg19
g0
(g20
g5
Ntp2922
Rp2923
(dp2924
g24
I00
sg25
I00
sg26
I01
sg27
VDDEEF6
p2925
sg29
L4068364581L
sg30
I00
sg31
(dp2926
g33
(dp2927
g35
(lp2928
sssg37
Vhttps://pbs.twimg.com/profile_images/659743716991627264/K5OF5MSt_normal.jpg
p2929
sg39
(dp2930
g41
I00
sg42
I00
sg43
I01
sg44
I00
sg45
L4068364581L
sg46
Vhttps://abs.twimg.com/images/themes/theme1/bg.png
p2931
sg48
I00
sg49
V333333
p2932
sg51
g2929
sg52
g2925
sg53
g2926
sg54
I3
sg55
VC0DEED
p2933
sg57
V4068364581
p2934
sg59
VC0DEED
p2935
sg61
I0
sg62
I00
sg63
I-21600
sg64
I33074
sg33
VRestauranteur, Humanitarian, Television Host, Oscar-loser, King of the Forest. Can you blow my whistle?.
p2936
sg66
I0
sg67
VPhiladelphia, PA
p2937
sg69
V0084B4
p2938
sg71
Vhttp://pbs.twimg.com/profile_images/659743716991627264/K5OF5MSt_normal.jpg
p2939
sg73
I00
sg74
I00
sg320
Vhttps://pbs.twimg.com/profile_banners/4068364581/1446130069
p2940
sg75
Vhttp://abs.twimg.com/images/themes/theme1/bg.png
p2941
sg77
VfussHanna
p2942
sg79
Ven
p2943
sg81
I00
sg82
I0
sg83
VHanna
p2944
sg85
I00
sg86
Nsg87
VThu Oct 29 14:44:12 +0000 2015
p2945
sg89
I00
sg90
VCentral Time (US & Canada)
p2946
sg92
I00
sg93
I01
sg94
I00
ssg95
I00
sg96
g2932
sg97
I3
sg98
g2933
sg99
g2934
sg100
I00
sg101
I0
sg102
I00
sg103
I-21600
sg104
I33074
sg105
g2936
sg106
I0
sg107
g2937
sg108
g2938
sg109
g2939
sg110
I00
sg111
I00
sg112
g2935
sg329
g2940
sg113
g2941
sg114
g2942
sg115
g2943
sg116
I00
sg117
I00
sg118
I0
sg119
g2944
sg120
Nsg121
g122
(S'\x07\xdf\n\x1d\x0e,\x0c\x00\x00\x00'
p2947
tp2948
Rp2949
sg126
g2931
sg127
g2946
sg128
I00
sg129
I01
sg130
I00
sbsg131
Nsg29
L661669594210435072L
sg132
I0
sg133
VIFTTT
p2950
sg115
Ven
p2951
sg136
g2923
sg121
g122
(S"\x07\xdf\x0b\x03\x16\x15'\x00\x00\x00"
p2952
tp2953
Rp2954
sg39
(dp2955
g141
Nsg142
I00
sg143
V$CMCO:\u000a\u000aSeaport Global Securities Expects Columbus McKinnon Corp. to \u2026:\u000a\u000ahttps://t.co/jhLJrgL2ca https://t.co/z4FkAoo3vy
p2956
sg145
I00
sg146
Nsg45
L661669594210435072L
sg147
I0
sg148
V<a href="http://ifttt.com" rel="nofollow">IFTTT</a>
p2957
sg150
I00
sg151
Nsg53
(dp2958
g153
(lp2959
(dp2960
g156
(lp2961
I0
aI5
asg143
VCMCO
p2962
sasg159
(lp2963
sg161
(lp2964
sg35
(lp2965
(dp2966
g86
Vhttps://t.co/jhLJrgL2ca
p2967
sg156
(lp2968
I73
aI96
asg167
Vhttp://StockNewsHour.com/cmco-seaport-global-securities-expects-columbus-mckinnon-corp-to/
p2969
sg169
VStockNewsHour.com/cmco-seaport-g\u2026
p2970
sa(dp2971
g86
Vhttps://t.co/z4FkAoo3vy
p2972
sg156
(lp2973
I97
aI120
asg167
Vhttps://goo.gl/t4fpx2
p2974
sg169
Vgoo.gl/t4fpx2
p2975
sassg171
Nsg172
Nsg173
I0
sg57
V661669594210435072
p2976
sg175
I00
sg176
g2930
sg177
Nsg178
Nsg179
I00
sg79
g2951
sg87
VTue Nov 03 22:21:39 +0000 2015
p2977
sg181
Nsg182
Nsg183
(dp2978
g185
Ven
p2979
sg187
Vrecent
p2980
sssg189
g2978
sg190
Nsg191
Nsg31
g2958
sg192
Nsg193
Nsg99
g2976
sg194
I00
sg195
Nsg196
I0
sg197
Nsbag0
(g4
g5
Ntp2981
Rp2982
(dp2983
g9
I00
sg10
Nsg11
I00
sg12
VSeaport Global Securities Expects Columbus McKinnon Corp. to Earn Q1 2016 Earnings of $0.55 Per Share $CMCO \u2026 https://t.co/z4FkAoo3vy
p2984
sg14
Vhttp://ifttt.com
p2985
sg16
I00
sg17
I00
sg18
Nsg19
g0
(g20
g5
Ntp2986
Rp2987
(dp2988
g24
I00
sg25
I00
sg26
I01
sg27
VDDEEF6
p2989
sg29
L4068364581L
sg30
I00
sg31
(dp2990
g33
(dp2991
g35
(lp2992
sssg37
Vhttps://pbs.twimg.com/profile_images/659743716991627264/K5OF5MSt_normal.jpg
p2993
sg39
(dp2994
g41
I00
sg42
I00
sg43
I01
sg44
I00
sg45
L4068364581L
sg46
Vhttps://abs.twimg.com/images/themes/theme1/bg.png
p2995
sg48
I00
sg49
V333333
p2996
sg51
g2993
sg52
g2989
sg53
g2990
sg54
I3
sg55
VC0DEED
p2997
sg57
V4068364581
p2998
sg59
VC0DEED
p2999
sg61
I0
sg62
I00
sg63
I-21600
sg64
I33074
sg33
VRestauranteur, Humanitarian, Television Host, Oscar-loser, King of the Forest. Can you blow my whistle?.
p3000
sg66
I0
sg67
VPhiladelphia, PA
p3001
sg69
V0084B4
p3002
sg71
Vhttp://pbs.twimg.com/profile_images/659743716991627264/K5OF5MSt_normal.jpg
p3003
sg73
I00
sg74
I00
sg320
Vhttps://pbs.twimg.com/profile_banners/4068364581/1446130069
p3004
sg75
Vhttp://abs.twimg.com/images/themes/theme1/bg.png
p3005
sg77
VfussHanna
p3006
sg79
Ven
p3007
sg81
I00
sg82
I0
sg83
VHanna
p3008
sg85
I00
sg86
Nsg87
VThu Oct 29 14:44:12 +0000 2015
p3009
sg89
I00
sg90
VCentral Time (US & Canada)
p3010
sg92
I00
sg93
I01
sg94
I00
ssg95
I00
sg96
g2996
sg97
I3
sg98
g2997
sg99
g2998
sg100
I00
sg101
I0
sg102
I00
sg103
I-21600
sg104
I33074
sg105
g3000
sg106
I0
sg107
g3001
sg108
g3002
sg109
g3003
sg110
I00
sg111
I00
sg112
g2999
sg329
g3004
sg113
g3005
sg114
g3006
sg115
g3007
sg116
I00
sg117
I00
sg118
I0
sg119
g3008
sg120
Nsg121
g122
(S'\x07\xdf\n\x1d\x0e,\x0c\x00\x00\x00'
p3011
tp3012
Rp3013
sg126
g2995
sg127
g3010
sg128
I00
sg129
I01
sg130
I00
sbsg131
Nsg29
L661669592494956544L
sg132
I0
sg133
VIFTTT
p3014
sg115
Ven
p3015
sg136
g2987
sg121
g122
(S'\x07\xdf\x0b\x03\x16\x15&\x00\x00\x00'
p3016
tp3017
Rp3018
sg39
(dp3019
g141
Nsg142
I00
sg143
g2984
sg145
I00
sg146
Nsg45
L661669592494956544L
sg147
I0
sg148
V<a href="http://ifttt.com" rel="nofollow">IFTTT</a>
p3020
sg150
I00
sg151
Nsg53
(dp3021
g153
(lp3022
(dp3023
g156
(lp3024
I102
aI107
asg143
VCMCO
p3025
sasg159
(lp3026
sg161
(lp3027
sg35
(lp3028
(dp3029
g86
Vhttps://t.co/z4FkAoo3vy
p3030
sg156
(lp3031
I110
aI133
asg167
Vhttps://goo.gl/t4fpx2
p3032
sg169
Vgoo.gl/t4fpx2
p3033
sassg171
Nsg172
Nsg173
I0
sg57
V661669592494956544
p3034
sg175
I00
sg176
g2994
sg177
Nsg178
Nsg179
I00
sg79
g3015
sg87
VTue Nov 03 22:21:38 +0000 2015
p3035
sg181
Nsg182
Nsg183
(dp3036
g185
Ven
p3037
sg187
Vrecent
p3038
sssg189
g3036
sg190
Nsg191
Nsg31
g3021
sg192
Nsg193
Nsg99
g3034
sg194
I00
sg195
Nsg196
I0
sg197
Nsbag0
(g4
g5
Ntp3039
Rp3040
(dp3041
g9
I00
sg10
Nsg11
I00
sg12
V$CMCO:\u000a\u000aAnalyst Reduces Q1 2016 EPS Estimates for Columbus McKinnon \u2026:\u000a\u000ahttps://t.co/YvOOvLxBMR
p3042
sg14
Vhttp://fnsappbg.blogspot.com/
p3043
sg16
I00
sg17
I00
sg18
Nsg19
g0
(g20
g5
Ntp3044
Rp3045
(dp3046
g24
I00
sg25
I00
sg26
I01
sg27
VDDEEF6
p3047
sg29
L2881595931L
sg30
I00
sg31
(dp3048
g33
(dp3049
g35
(lp3050
sssg37
Vhttps://pbs.twimg.com/profile_images/542392174428434432/PfyzCfya_normal.jpeg
p3051
sg39
(dp3052
g41
I00
sg42
I00
sg43
I01
sg44
I00
sg45
L2881595931L
sg46
Vhttps://abs.twimg.com/images/themes/theme1/bg.png
p3053
sg48
I00
sg49
V333333
p3054
sg51
g3051
sg52
g3047
sg53
g3048
sg54
I593
sg55
VC0DEED
p3055
sg57
V2881595931
p3056
sg59
VC0DEED
p3057
sg61
I90
sg62
I00
sg63
I-18000
sg64
I235206
sg33
g217
sg66
I6
sg67
g217
sg69
V0084B4
p3058
sg71
Vhttp://pbs.twimg.com/profile_images/542392174428434432/PfyzCfya_normal.jpeg
p3059
sg73
I00
sg74
I00
sg75
Vhttp://abs.twimg.com/images/themes/theme1/bg.png
p3060
sg77
VProVesting
p3061
sg79
Ven
p3062
sg81
I00
sg82
I0
sg83
VProVesting
p3063
sg85
I00
sg86
Nsg87
VMon Nov 17 20:15:38 +0000 2014
p3064
sg89
I00
sg90
VEastern Time (US & Canada)
p3065
sg92
I00
sg93
I01
sg94
I00
ssg95
I00
sg96
g3054
sg97
I593
sg98
g3055
sg99
g3056
sg100
I00
sg101
I90
sg102
I00
sg103
I-18000
sg104
I235206
sg105
g217
sg106
I6
sg107
g217
sg108
g3058
sg109
g3059
sg110
I00
sg111
I00
sg112
g3057
sg113
g3060
sg114
g3061
sg115
g3062
sg116
I00
sg117
I00
sg118
I0
sg119
g3063
sg120
Nsg121
g122
(S'\x07\xde\x0b\x11\x14\x0f&\x00\x00\x00'
p3066
tp3067
Rp3068
sg126
g3053
sg127
g3065
sg128
I00
sg129
I01
sg130
I00
sbsg131
Nsg29
L661668960585261056L
sg132
I0
sg133
VFNS_APP
p3069
sg115
Ven
p3070
sg136
g3045
sg121
g122
(S'\x07\xdf\x0b\x03\x16\x13\x08\x00\x00\x00'
p3071
tp3072
Rp3073
sg39
(dp3074
g141
Nsg142
I00
sg143
V$CMCO:\u000a\u000aAnalyst Reduces Q1 2016 EPS Estimates for Columbus McKinnon \u2026:\u000a\u000ahttps://t.co/YvOOvLxBMR
p3075
sg145
I00
sg146
Nsg45
L661668960585261056L
sg147
I0
sg148
V<a href="http://fnsappbg.blogspot.com/" rel="nofollow">FNS_APP</a>
p3076
sg150
I00
sg151
Nsg53
(dp3077
g153
(lp3078
(dp3079
g156
(lp3080
I0
aI5
asg143
VCMCO
p3081
sasg159
(lp3082
sg161
(lp3083
sg35
(lp3084
(dp3085
g86
Vhttps://t.co/YvOOvLxBMR
p3086
sg156
(lp3087
I72
aI95
asg167
Vhttp://StockNewsHour.com/cmco-analyst-reduces-q1-2016-eps-estimates-for-columbus-mckinnon/
p3088
sg169
VStockNewsHour.com/cmco-analyst-r\u2026
p3089
sassg171
Nsg172
Nsg173
I0
sg57
V661668960585261056
p3090
sg175
I00
sg176
g3052
sg177
Nsg178
Nsg179
I00
sg79
g3070
sg87
VTue Nov 03 22:19:08 +0000 2015
p3091
sg181
Nsg182
Nsg183
(dp3092
g185
Ven
p3093
sg187
Vrecent
p3094
sssg189
g3092
sg190
Nsg191
Nsg31
g3077
sg192
Nsg193
Nsg99
g3090
sg194
I00
sg195
Nsg196
I0
sg197
Nsbag0
(g4
g5
Ntp3095
Rp3096
(dp3097
g9
I00
sg10
Nsg11
I00
sg12
V$CMCO:\u000a\u000aResearch Analysts Offer Predictions for Columbus McKinnon Corp.\u2019s \u2026:\u000a\u000ahttps://t.co/BpPLhSZcuK
p3098
sg14
Vhttp://www.newsflowing.com
p3099
sg16
I00
sg17
I00
sg18
Nsg19
g0
(g20
g5
Ntp3100
Rp3101
(dp3102
g24
I00
sg25
I00
sg26
I01
sg27
VDDFFCC
p3103
sg29
L2342763212L
sg30
I00
sg31
(dp3104
g33
(dp3105
g35
(lp3106
sssg37
Vhttps://pbs.twimg.com/profile_images/544036701056684032/FY2Xgs7b_normal.jpeg
p3107
sg39
(dp3108
g41
I00
sg42
I00
sg43
I01
sg44
I00
sg45
L2342763212L
sg46
Vhttps://abs.twimg.com/images/themes/theme16/bg.gif
p3109
sg48
I00
sg49
V333333
p3110
sg51
g3107
sg52
g3103
sg53
g3104
sg54
I421
sg55
VBDDCAD
p3111
sg57
V2342763212
p3112
sg59
V9AE4E8
p3113
sg61
I74
sg62
I00
sg63
I-14400
sg64
I193979
sg33
VNews as it happens
p3114
sg66
I0
sg67
VUS
p3115
sg69
V0084B4
p3116
sg71
Vhttp://pbs.twimg.com/profile_images/544036701056684032/FY2Xgs7b_normal.jpeg
p3117
sg73
I00
sg74
I00
sg75
Vhttp://abs.twimg.com/images/themes/theme16/bg.gif
p3118
sg77
Vnewswelldone
p3119
sg79
Ven
p3120
sg81
I00
sg82
I0
sg83
VBreaking News
p3121
sg85
I00
sg86
Nsg87
VFri Feb 14 00:21:52 +0000 2014
p3122
sg89
I00
sg90
VAtlantic Time (Canada)
p3123
sg92
I00
sg93
I00
sg94
I00
ssg95
I00
sg96
g3110
sg97
I421
sg98
g3111
sg99
g3112
sg100
I00
sg101
I74
sg102
I00
sg103
I-14400
sg104
I193979
sg105
g3114
sg106
I0
sg107
g3115
sg108
g3116
sg109
g3117
sg110
I00
sg111
I00
sg112
g3113
sg113
g3118
sg114
g3119
sg115
g3120
sg116
I00
sg117
I00
sg118
I0
sg119
g3121
sg120
Nsg121
g122
(S'\x07\xde\x02\x0e\x00\x154\x00\x00\x00'
p3124
tp3125
Rp3126
sg126
g3109
sg127
g3123
sg128
I00
sg129
I00
sg130
I00
sbsg131
Nsg29
L661668959826141184L
sg132
I0
sg133
VNFIG
p3127
sg115
Ven
p3128
sg136
g3101
sg121
g122
(S'\x07\xdf\x0b\x03\x16\x13\x07\x00\x00\x00'
p3129
tp3130
Rp3131
sg39
(dp3132
g141
Nsg142
I00
sg143
V$CMCO:\u000a\u000aResearch Analysts Offer Predictions for Columbus McKinnon Corp.\u2019s \u2026:\u000a\u000ahttps://t.co/BpPLhSZcuK
p3133
sg145
I00
sg146
Nsg45
L661668959826141184L
sg147
I0
sg148
V<a href="http://www.newsflowing.com" rel="nofollow">NFIG</a>
p3134
sg150
I00
sg151
Nsg53
(dp3135
g153
(lp3136
(dp3137
g156
(lp3138
I0
aI5
asg143
VCMCO
p3139
sasg159
(lp3140
sg161
(lp3141
sg35
(lp3142
(dp3143
g86
Vhttps://t.co/BpPLhSZcuK
p3144
sg156
(lp3145
I78
aI101
asg167
Vhttp://StockNewsHour.com/cmco-research-analysts-offer-predictions-for-columbus-mckinnon-corp-s/
p3146
sg169
VStockNewsHour.com/cmco-research-\u2026
p3147
sassg171
Nsg172
Nsg173
I0
sg57
V661668959826141184
p3148
sg175
I00
sg176
g3108
sg177
Nsg178
Nsg179
I00
sg79
g3128
sg87
VTue Nov 03 22:19:07 +0000 2015
p3149
sg181
Nsg182
Nsg183
(dp3150
g185
Ven
p3151
sg187
Vrecent
p3152
sssg189
g3150
sg190
Nsg191
Nsg31
g3135
sg192
Nsg193
Nsg99
g3148
sg194
I00
sg195
Nsg196
I0
sg197
Nsbag0
(g4
g5
Ntp3153
Rp3154
(dp3155
g9
I00
sg10
Nsg11
I00
sg12
V$CMCO:\u000a\u000aAnalyst Cuts Q1 2016 EPS Estimates for Columbus McKinnon Corp \u2026:\u000a\u000ahttps://t.co/xP165bvruf
p3156
sg14
Vhttp://www.stocknewswires.com
p3157
sg16
I00
sg17
I00
sg18
Nsg19
g0
(g20
g5
Ntp3158
Rp3159
(dp3160
g24
I00
sg25
I00
sg26
I01
sg27
VDAECF4
p3161
sg29
L2341445778L
sg30
I00
sg31
(dp3162
g33
(dp3163
g35
(lp3164
sssg37
Vhttps://pbs.twimg.com/profile_images/542238326397227008/UfZ0ulTf_normal.jpeg
p3165
sg39
(dp3166
g41
I00
sg42
I00
sg43
I01
sg44
I00
sg45
L2341445778L
sg46
Vhttps://abs.twimg.com/images/themes/theme2/bg.gif
p3167
sg48
I00
sg49
V663B12
p3168
sg51
g3165
sg52
g3161
sg53
g3162
sg54
I660
sg55
VC6E2EE
p3169
sg57
V2341445778
p3170
sg59
VC6E2EE
p3171
sg61
I107
sg62
I00
sg63
I-14400
sg64
I236872
sg33
VInvest like a fish
p3172
sg66
I9
sg67
VUnited States
p3173
sg69
V1F98C7
p3174
sg71
Vhttp://pbs.twimg.com/profile_images/542238326397227008/UfZ0ulTf_normal.jpeg
p3175
sg73
I00
sg74
I00
sg75
Vhttp://abs.twimg.com/images/themes/theme2/bg.gif
p3176
sg77
VStockNewsWires
p3177
sg79
Ven
p3178
sg81
I00
sg82
I0
sg83
VStockNewsWires
p3179
sg85
I00
sg86
Nsg87
VThu Feb 13 05:31:52 +0000 2014
p3180
sg89
I00
sg90
VAtlantic Time (Canada)
p3181
sg92
I00
sg93
I00
sg94
I00
ssg95
I00
sg96
g3168
sg97
I660
sg98
g3169
sg99
g3170
sg100
I00
sg101
I107
sg102
I00
sg103
I-14400
sg104
I236872
sg105
g3172
sg106
I9
sg107
g3173
sg108
g3174
sg109
g3175
sg110
I00
sg111
I00
sg112
g3171
sg113
g3176
sg114
g3177
sg115
g3178
sg116
I00
sg117
I00
sg118
I0
sg119
g3179
sg120
Nsg121
g122
(S'\x07\xde\x02\r\x05\x1f4\x00\x00\x00'
p3182
tp3183
Rp3184
sg126
g3167
sg127
g3181
sg128
I00
sg129
I00
sg130
I00
sbsg131
Nsg29
L661668958815301632L
sg132
I0
sg133
VStockNewsWires
p3185
sg115
Ven
p3186
sg136
g3159
sg121
g122
(S'\x07\xdf\x0b\x03\x16\x13\x07\x00\x00\x00'
p3187
tp3188
Rp3189
sg39
(dp3190
g141
Nsg142
I00
sg143
V$CMCO:\u000a\u000aAnalyst Cuts Q1 2016 EPS Estimates for Columbus McKinnon Corp \u2026:\u000a\u000ahttps://t.co/xP165bvruf
p3191
sg145
I00
sg146
Nsg45
L661668958815301632L
sg147
I0
sg148
V<a href="http://www.stocknewswires.com" rel="nofollow">StockNewsWires</a>
p3192
sg150
I00
sg151
Nsg53
(dp3193
g153
(lp3194
(dp3195
g156
(lp3196
I0
aI5
asg143
VCMCO
p3197
sasg159
(lp3198
sg161
(lp3199
sg35
(lp3200
(dp3201
g86
Vhttps://t.co/xP165bvruf
p3202
sg156
(lp3203
I74
aI97
asg167
Vhttp://StockNewsHour.com/cmco-analyst-cuts-q1-2016-eps-estimates-for-columbus-mckinnon-corp/
p3204
sg169
VStockNewsHour.com/cmco-analyst-c\u2026
p3205
sassg171
Nsg172
Nsg173
I0
sg57
V661668958815301632
p3206
sg175
I00
sg176
g3166
sg177
Nsg178
Nsg179
I00
sg79
g3186
sg87
VTue Nov 03 22:19:07 +0000 2015
p3207
sg181
Nsg182
Nsg183
(dp3208
g185
Ven
p3209
sg187
Vrecent
p3210
sssg189
g3208
sg190
Nsg191
Nsg31
g3193
sg192
Nsg193
Nsg99
g3206
sg194
I00
sg195
Nsg196
I0
sg197
Nsbag0
(g4
g5
Ntp3211
Rp3212
(dp3213
g9
I00
sg10
Nsg11
I00
sg12
V$CMCO:\u000a\u000aSeaport Global Securities Expects Columbus McKinnon Corp. to \u2026:\u000a\u000ahttps://t.co/Cn53MeDQAg
p3214
sg14
Vhttp://www.stocknewswires.com
p3215
sg16
I00
sg17
I00
sg18
Nsg19
g0
(g20
g5
Ntp3216
Rp3217
(dp3218
g24
I00
sg25
I00
sg26
I01
sg27
VE3E2DE
p3219
sg29
L2344619544L
sg30
I00
sg31
(dp3220
g33
(dp3221
g35
(lp3222
sssg37
Vhttps://pbs.twimg.com/profile_images/562292381764952064/mVtp0UmJ_normal.jpeg
p3223
sg39
(dp3224
g41
I00
sg42
I00
sg43
I01
sg44
I00
sg45
L2344619544L
sg46
Vhttps://abs.twimg.com/images/themes/theme3/bg.gif
p3225
sg48
I00
sg49
V634047
p3226
sg51
g3223
sg52
g3219
sg53
g3220
sg54
I516
sg55
VD3D2CF
p3227
sg57
V2344619544
p3228
sg59
VEDECE9
p3229
sg61
I85
sg62
I01
sg63
I-18000
sg64
I182019
sg33
VNews about Stocks
p3230
sg66
I0
sg67
VU.S.
p3231
sg69
V088253
p3232
sg71
Vhttp://pbs.twimg.com/profile_images/562292381764952064/mVtp0UmJ_normal.jpeg
p3233
sg73
I00
sg74
I00
sg75
Vhttp://abs.twimg.com/images/themes/theme3/bg.gif
p3234
sg77
VNewsToDesk
p3235
sg79
Ven
p3236
sg81
I00
sg82
I0
sg83
VBreakingStocksNews
p3237
sg85
I00
sg86
Nsg87
VSat Feb 15 05:49:10 +0000 2014
p3238
sg89
I00
sg90
VEastern Time (US & Canada)
p3239
sg92
I00
sg93
I00
sg94
I00
ssg95
I00
sg96
g3226
sg97
I516
sg98
g3227
sg99
g3228
sg100
I00
sg101
I85
sg102
I01
sg103
I-18000
sg104
I182019
sg105
g3230
sg106
I0
sg107
g3231
sg108
g3232
sg109
g3233
sg110
I00
sg111
I00
sg112
g3229
sg113
g3234
sg114
g3235
sg115
g3236
sg116
I00
sg117
I00
sg118
I0
sg119
g3237
sg120
Nsg121
g122
(S'\x07\xde\x02\x0f\x051\n\x00\x00\x00'
p3240
tp3241
Rp3242
sg126
g3225
sg127
g3239
sg128
I00
sg129
I00
sg130
I00
sbsg131
Nsg29
L661668957846421504L
sg132
I0
sg133
VStockNewsWires
p3243
sg115
Ven
p3244
sg136
g3217
sg121
g122
(S'\x07\xdf\x0b\x03\x16\x13\x07\x00\x00\x00'
p3245
tp3246
Rp3247
sg39
(dp3248
g141
Nsg142
I00
sg143
V$CMCO:\u000a\u000aSeaport Global Securities Expects Columbus McKinnon Corp. to \u2026:\u000a\u000ahttps://t.co/Cn53MeDQAg
p3249
sg145
I00
sg146
Nsg45
L661668957846421504L
sg147
I0
sg148
V<a href="http://www.stocknewswires.com" rel="nofollow">StockNewsWires</a>
p3250
sg150
I00
sg151
Nsg53
(dp3251
g153
(lp3252
(dp3253
g156
(lp3254
I0
aI5
asg143
VCMCO
p3255
sasg159
(lp3256
sg161
(lp3257
sg35
(lp3258
(dp3259
g86
Vhttps://t.co/Cn53MeDQAg
p3260
sg156
(lp3261
I73
aI96
asg167
Vhttp://StockNewsHour.com/cmco-seaport-global-securities-expects-columbus-mckinnon-corp-to/
p3262
sg169
VStockNewsHour.com/cmco-seaport-g\u2026
p3263
sassg171
Nsg172
Nsg173
I0
sg57
V661668957846421504
p3264
sg175
I00
sg176
g3224
sg177
Nsg178
Nsg179
I00
sg79
g3244
sg87
VTue Nov 03 22:19:07 +0000 2015
p3265
sg181
Nsg182
Nsg183
(dp3266
g185
Ven
p3267
sg187
Vrecent
p3268
sssg189
g3266
sg190
Nsg191
Nsg31
g3251
sg192
Nsg193
Nsg99
g3264
sg194
I00
sg195
Nsg196
I0
sg197
Nsbag0
(g4
g5
Ntp3269
Rp3270
(dp3271
g9
I00
sg10
Nsg11
I00
sg12
VSeaport Global Securities Expects Columbus McKinnon Corp. to Earn Q1 2016 Earnings of $0.55 Per Share $CMCO https://t.co/Y5sYhZgvGD
p3272
sg14
Vhttp://ifttt.com
p3273
sg16
I00
sg17
I00
sg18
Nsg19
g0
(g20
g5
Ntp3274
Rp3275
(dp3276
g24
I00
sg25
I00
sg26
I01
sg27
VDDEEF6
p3277
sg29
L2743641378L
sg30
I00
sg31
(dp3278
g33
(dp3279
g35
(lp3280
sssg37
Vhttps://pbs.twimg.com/profile_images/501548634412838914/LR6q5snv_normal.jpeg
p3281
sg39
(dp3282
g41
I00
sg42
I00
sg43
I01
sg44
I00
sg45
L2743641378L
sg46
Vhttps://abs.twimg.com/images/themes/theme1/bg.png
p3283
sg48
I00
sg49
V333333
p3284
sg51
g3281
sg52
g3277
sg53
g3278
sg54
I668
sg55
VC0DEED
p3285
sg57
V2743641378
p3286
sg59
VC0DEED
p3287
sg61
I59
sg62
I00
sg63
Nsg64
I275759
sg33
g217
sg66
I0
sg67
g217
sg69
V0084B4
p3288
sg71
Vhttp://pbs.twimg.com/profile_images/501548634412838914/LR6q5snv_normal.jpeg
p3289
sg73
I00
sg74
I00
sg320
Vhttps://pbs.twimg.com/profile_banners/2743641378/1408413498
p3290
sg75
Vhttp://abs.twimg.com/images/themes/theme1/bg.png
p3291
sg77
VSleekMoneycom
p3292
sg79
Ven
p3293
sg81
I00
sg82
I0
sg83
VSleek Money
p3294
sg85
I00
sg86
Nsg87
VTue Aug 19 01:57:20 +0000 2014
p3295
sg89
I00
sg90
Nsg92
I00
sg93
I01
sg94
I00
ssg95
I00
sg96
g3284
sg97
I668
sg98
g3285
sg99
g3286
sg100
I00
sg101
I59
sg102
I00
sg103
Nsg104
I275759
sg105
g217
sg106
I0
sg107
g217
sg108
g3288
sg109
g3289
sg110
I00
sg111
I00
sg112
g3287
sg329
g3290
sg113
g3291
sg114
g3292
sg115
g3293
sg116
I00
sg117
I00
sg118
I0
sg119
g3294
sg120
Nsg121
g122
(S'\x07\xde\x08\x13\x019\x14\x00\x00\x00'
p3296
tp3297
Rp3298
sg126
g3283
sg127
Nsg128
I00
sg129
I01
sg130
I00
sbsg131
Nsg29
L661668217815986176L
sg132
I0
sg133
VIFTTT
p3299
sg115
Ven
p3300
sg136
g3275
sg121
g122
(S'\x07\xdf\x0b\x03\x16\x10\n\x00\x00\x00'
p3301
tp3302
Rp3303
sg39
(dp3304
g141
Nsg142
I00
sg143
g3272
sg145
I00
sg146
Nsg45
L661668217815986176L
sg147
I0
sg148
V<a href="http://ifttt.com" rel="nofollow">IFTTT</a>
p3305
sg150
I00
sg151
Nsg53
(dp3306
g153
(lp3307
(dp3308
g156
(lp3309
I102
aI107
asg143
VCMCO
p3310
sasg159
(lp3311
sg161
(lp3312
sg35
(lp3313
(dp3314
g86
Vhttps://t.co/Y5sYhZgvGD
p3315
sg156
(lp3316
I108
aI131
asg167
Vhttp://ift.tt/20s9zXJ
p3317
sg169
Vift.tt/20s9zXJ
p3318
sassg171
Nsg172
Nsg173
I0
sg57
V661668217815986176
p3319
sg175
I00
sg176
g3282
sg177
Nsg178
Nsg179
I00
sg79
g3300
sg87
VTue Nov 03 22:16:10 +0000 2015
p3320
sg181
Nsg182
Nsg183
(dp3321
g185
Ven
p3322
sg187
Vrecent
p3323
sssg189
g3321
sg190
Nsg191
Nsg31
g3306
sg192
Nsg193
Nsg99
g3319
sg194
I00
sg195
Nsg196
I0
sg197
Nsbag0
(g4
g5
Ntp3324
Rp3325
(dp3326
g9
I00
sg10
Nsg11
I00
sg12
VBelow Ichimoku $RJI $SKM $ENI $CMCO $CETV $FTAI $NVCN $SNLN $JPEP $CHKE $DCUC https://t.co/hplLPfHa9h
p3327
sg14
Vhttp://www.hubspot.com/
p3328
sg16
I00
sg17
I00
sg18
Nsg19
g0
(g20
g5
Ntp3329
Rp3330
(dp3331
g24
I00
sg25
I00
sg26
I01
sg27
VDDEEF6
p3332
sg29
I528770977
sg30
I00
sg31
(dp3333
g86
(dp3334
g35
(lp3335
(dp3336
g86
Vhttp://t.co/yagT24hKEz
p3337
sg156
(lp3338
I0
aI22
asg167
Vhttp://www.dailystockplays.com
p3339
sg169
Vdailystockplays.com
p3340
sassg33
(dp3341
g35
(lp3342
(dp3343
g86
Vhttp://t.co/t0RdDDmf07
p3344
sg156
(lp3345
I73
aI95
asg167
Vhttp://DailyStockPlays.com
p3346
sg169
VDailyStockPlays.com
p3347
sasssg37
Vhttps://pbs.twimg.com/profile_images/601604696671817728/EntLiuyJ_normal.jpg
p3348
sg39
(dp3349
g41
I00
sg42
I00
sg43
I01
sg44
I00
sg45
I528770977
sg46
Vhttps://pbs.twimg.com/profile_background_images/572170271050588160/E1MW3Dim.jpeg
p3350
sg48
I00
sg49
V333333
p3351
sg51
g3348
sg52
g3332
sg53
g3333
sg54
I1570
sg55
VC0DEED
p3352
sg57
V528770977
p3353
sg59
VC0DEED
p3354
sg61
I82
sg62
I00
sg63
I-28800
sg64
I20063
sg33
VConsistent profitable Day Trades and Swing Trades in the Members Area on http://t.co/t0RdDDmf07 - Free 7 Day Trial Membership. Subscribe to us on YouTube.
p3355
sg66
I468
sg67
VCalifornia
p3356
sg69
V0084B4
p3357
sg71
Vhttp://pbs.twimg.com/profile_images/601604696671817728/EntLiuyJ_normal.jpg
p3358
sg73
I00
sg74
I00
sg75
Vhttp://pbs.twimg.com/profile_background_images/572170271050588160/E1MW3Dim.jpeg
p3359
sg77
VDailyStockPlays
p3360
sg79
Ven
p3361
sg81
I00
sg82
I6
sg83
Vdailystockplays.com
p3362
sg85
I00
sg86
Vhttp://t.co/yagT24hKEz
p3363
sg87
VSun Mar 18 19:19:58 +0000 2012
p3364
sg89
I00
sg90
VPacific Time (US & Canada)
p3365
sg92
I00
sg93
I00
sg94
I00
ssg95
I00
sg96
g3351
sg97
I1570
sg98
g3352
sg99
g3353
sg100
I00
sg101
I82
sg102
I00
sg103
I-28800
sg104
I20063
sg105
g3355
sg106
I468
sg107
g3356
sg108
g3357
sg109
g3358
sg110
I00
sg111
I00
sg112
g3354
sg113
g3359
sg114
g3360
sg115
g3361
sg116
I00
sg117
I00
sg118
I6
sg119
g3362
sg120
g3363
sg121
g122
(S'\x07\xdc\x03\x12\x13\x13:\x00\x00\x00'
p3366
tp3367
Rp3368
sg126
g3350
sg127
g3365
sg128
I00
sg129
I00
sg130
I00
sbsg131
Nsg29
L661526512345198592L
sg132
I0
sg133
VHubSpot
p3369
sg115
Vsl
p3370
sg136
g3330
sg121
g122
(S'\x07\xdf\x0b\x03\x0c5\x05\x00\x00\x00'
p3371
tp3372
Rp3373
sg39
(dp3374
g141
Nsg142
I00
sg143
g3327
sg145
I00
sg146
Nsg45
L661526512345198592L
sg147
I0
sg148
V<a href="http://www.hubspot.com/" rel="nofollow">HubSpot</a>
p3375
sg150
I00
sg151
Nsg53
(dp3376
g153
(lp3377
(dp3378
g156
(lp3379
I15
aI19
asg143
VRJI
p3380
sa(dp3381
g156
(lp3382
I20
aI24
asg143
VSKM
p3383
sa(dp3384
g156
(lp3385
I25
aI29
asg143
VENI
p3386
sa(dp3387
g156
(lp3388
I30
aI35
asg143
VCMCO
p3389
sa(dp3390
g156
(lp3391
I36
aI41
asg143
VCETV
p3392
sa(dp3393
g156
(lp3394
I42
aI47
asg143
VFTAI
p3395
sa(dp3396
g156
(lp3397
I48
aI53
asg143
VNVCN
p3398
sa(dp3399
g156
(lp3400
I54
aI59
asg143
VSNLN
p3401
sa(dp3402
g156
(lp3403
I60
aI65
asg143
VJPEP
p3404
sa(dp3405
g156
(lp3406
I66
aI71
asg143
VCHKE
p3407
sa(dp3408
g156
(lp3409
I72
aI77
asg143
VDCUC
p3410
sasg159
(lp3411
sg161
(lp3412
sg35
(lp3413
(dp3414
g86
Vhttps://t.co/hplLPfHa9h
p3415
sg156
(lp3416
I78
aI101
asg167
Vhttp://hubs.ly/H01m9_f0
p3417
sg169
Vhubs.ly/H01m9_f0
p3418
sassg171
Nsg172
Nsg173
I0
sg57
V661526512345198592
p3419
sg175
I00
sg176
g3349
sg177
Nsg178
Nsg179
I00
sg79
g3370
sg87
VTue Nov 03 12:53:05 +0000 2015
p3420
sg181
Nsg182
Nsg183
(dp3421
g185
Vsl
p3422
sg187
Vrecent
p3423
sssg189
g3421
sg190
Nsg191
Nsg31
g3376
sg192
Nsg193
Nsg99
g3419
sg194
I00
sg195
Nsg196
I0
sg197
Nsbag0
(g4
g5
Ntp3424
Rp3425
(dp3426
g9
I00
sg10
Nsg11
I00
sg12
VBelow Ichimoku $RJI $SKM $ENI $CMCO $CETV $FTAI $NVCN $SNLN $JPEP $CHKE $DCUC https://t.co/6JZyFDqrui
p3427
sg14
Vhttp://www.hubspot.com/
p3428
sg16
I00
sg17
I00
sg18
Nsg19
g0
(g20
g5
Ntp3429
Rp3430
(dp3431
g24
I00
sg25
I00
sg26
I01
sg27
VDDEEF6
p3432
sg29
I528770977
sg30
I00
sg31
(dp3433
g86
(dp3434
g35
(lp3435
(dp3436
g86
Vhttp://t.co/yagT24hKEz
p3437
sg156
(lp3438
I0
aI22
asg167
Vhttp://www.dailystockplays.com
p3439
sg169
Vdailystockplays.com
p3440
sassg33
(dp3441
g35
(lp3442
(dp3443
g86
Vhttp://t.co/t0RdDDmf07
p3444
sg156
(lp3445
I73
aI95
asg167
Vhttp://DailyStockPlays.com
p3446
sg169
VDailyStockPlays.com
p3447
sasssg37
Vhttps://pbs.twimg.com/profile_images/601604696671817728/EntLiuyJ_normal.jpg
p3448
sg39
(dp3449
g41
I00
sg42
I00
sg43
I01
sg44
I00
sg45
I528770977
sg46
Vhttps://pbs.twimg.com/profile_background_images/572170271050588160/E1MW3Dim.jpeg
p3450
sg48
I00
sg49
V333333
p3451
sg51
g3448
sg52
g3432
sg53
g3433
sg54
I1570
sg55
VC0DEED
p3452
sg57
V528770977
p3453
sg59
VC0DEED
p3454
sg61
I82
sg62
I00
sg63
I-28800
sg64
I20063
sg33
VConsistent profitable Day Trades and Swing Trades in the Members Area on http://t.co/t0RdDDmf07 - Free 7 Day Trial Membership. Subscribe to us on YouTube.
p3455
sg66
I468
sg67
VCalifornia
p3456
sg69
V0084B4
p3457
sg71
Vhttp://pbs.twimg.com/profile_images/601604696671817728/EntLiuyJ_normal.jpg
p3458
sg73
I00
sg74
I00
sg75
Vhttp://pbs.twimg.com/profile_background_images/572170271050588160/E1MW3Dim.jpeg
p3459
sg77
VDailyStockPlays
p3460
sg79
Ven
p3461
sg81
I00
sg82
I6
sg83
Vdailystockplays.com
p3462
sg85
I00
sg86
Vhttp://t.co/yagT24hKEz
p3463
sg87
VSun Mar 18 19:19:58 +0000 2012
p3464
sg89
I00
sg90
VPacific Time (US & Canada)
p3465
sg92
I00
sg93
I00
sg94
I00
ssg95
I00
sg96
g3451
sg97
I1570
sg98
g3452
sg99
g3453
sg100
I00
sg101
I82
sg102
I00
sg103
I-28800
sg104
I20063
sg105
g3455
sg106
I468
sg107
g3456
sg108
g3457
sg109
g3458
sg110
I00
sg111
I00
sg112
g3454
sg113
g3459
sg114
g3460
sg115
g3461
sg116
I00
sg117
I00
sg118
I6
sg119
g3462
sg120
g3463
sg121
g122
(S'\x07\xdc\x03\x12\x13\x13:\x00\x00\x00'
p3466
tp3467
Rp3468
sg126
g3450
sg127
g3465
sg128
I00
sg129
I00
sg130
I00
sbsg131
Nsg29
L661330198026129408L
sg132
I0
sg133
VHubSpot
p3469
sg115
Vsl
p3470
sg136
g3430
sg121
g122
(S'\x07\xdf\x0b\x02\x175\x00\x00\x00\x00'
p3471
tp3472
Rp3473
sg39
(dp3474
g141
Nsg142
I00
sg143
g3427
sg145
I00
sg146
Nsg45
L661330198026129408L
sg147
I0
sg148
V<a href="http://www.hubspot.com/" rel="nofollow">HubSpot</a>
p3475
sg150
I00
sg151
Nsg53
(dp3476
g153
(lp3477
(dp3478
g156
(lp3479
I15
aI19
asg143
VRJI
p3480
sa(dp3481
g156
(lp3482
I20
aI24
asg143
VSKM
p3483
sa(dp3484
g156
(lp3485
I25
aI29
asg143
VENI
p3486
sa(dp3487
g156
(lp3488
I30
aI35
asg143
VCMCO
p3489
sa(dp3490
g156
(lp3491
I36
aI41
asg143
VCETV
p3492
sa(dp3493
g156
(lp3494
I42
aI47
asg143
VFTAI
p3495
sa(dp3496
g156
(lp3497
I48
aI53
asg143
VNVCN
p3498
sa(dp3499
g156
(lp3500
I54
aI59
asg143
VSNLN
p3501
sa(dp3502
g156
(lp3503
I60
aI65
asg143
VJPEP
p3504
sa(dp3505
g156
(lp3506
I66
aI71
asg143
VCHKE
p3507
sa(dp3508
g156
(lp3509
I72
aI77
asg143
VDCUC
p3510
sasg159
(lp3511
sg161
(lp3512
sg35
(lp3513
(dp3514
g86
Vhttps://t.co/6JZyFDqrui
p3515
sg156
(lp3516
I78
aI101
asg167
Vhttp://hubs.ly/H01m6N90
p3517
sg169
Vhubs.ly/H01m6N90
p3518
sassg171
Nsg172
Nsg173
I0
sg57
V661330198026129408
p3519
sg175
I00
sg176
g3449
sg177
Nsg178
Nsg179
I00
sg79
g3470
sg87
VMon Nov 02 23:53:00 +0000 2015
p3520
sg181
Nsg182
Nsg183
(dp3521
g185
Vsl
p3522
sg187
Vrecent
p3523
sssg189
g3521
sg190
Nsg191
Nsg31
g3476
sg192
Nsg193
Nsg99
g3519
sg194
I00
sg195
Nsg196
I0
sg197
Nsbag0
(g4
g5
Ntp3524
Rp3525
(dp3526
g9
I00
sg10
Nsg11
I00
sg12
VColumbus McKinnon Corp. $CMCO Announces Quarterly  Earnings Results, Misses Estimates By $0.02 EPS https://t.co/2SjzQtnFh0
p3527
sg14
Vhttp://ifttt.com
p3528
sg16
I00
sg17
I00
sg18
Nsg19
g0
(g20
g5
Ntp3529
Rp3530
(dp3531
g24
I00
sg25
I00
sg26
I01
sg27
VDDEEF6
p3532
sg29
I565538332
sg30
I00
sg31
(dp3533
g86
(dp3534
g35
(lp3535
(dp3536
g86
Vhttp://t.co/u5AEanTvP3
p3537
sg156
(lp3538
I0
aI22
asg167
Vhttp://www.zolmax.com
p3539
sg169
Vzolmax.com
p3540
sassg33
(dp3541
g35
(lp3542
(dp3543
g86
Vhttp://t.co/SHZtZA5fhb
p3544
sg156
(lp3545
I14
aI36
asg167
Vhttp://Zolmax.com
p3546
sg169
VZolmax.com
p3547
sasssg37
Vhttps://pbs.twimg.com/profile_images/2172961480/zolmax_big_normal.jpg
p3548
sg39
(dp3549
g41
I00
sg42
I00
sg43
I01
sg44
I00
sg45
I565538332
sg46
Vhttps://abs.twimg.com/images/themes/theme1/bg.png
p3550
sg48
I00
sg49
V333333
p3551
sg51
g3548
sg52
g3532
sg53
g3533
sg54
I424
sg55
VC0DEED
p3552
sg57
V565538332
p3553
sg59
VC0DEED
p3554
sg61
I31
sg62
I00
sg63
Nsg64
I105006
sg33
VZolmax News - http://t.co/SHZtZA5fhb
p3555
sg66
I5
sg67
g217
sg69
V0084B4
p3556
sg71
Vhttp://pbs.twimg.com/profile_images/2172961480/zolmax_big_normal.jpg
p3557
sg73
I00
sg74
I00
sg75
Vhttp://abs.twimg.com/images/themes/theme1/bg.png
p3558
sg77
VZolmaxNews
p3559
sg79
Ven
p3560
sg81
I00
sg82
I0
sg83
VZolmax News
p3561
sg85
I00
sg86
Vhttp://t.co/u5AEanTvP3
p3562
sg87
VSat Apr 28 15:46:12 +0000 2012
p3563
sg89
I00
sg90
Nsg92
I00
sg93
I01
sg94
I00
ssg95
I00
sg96
g3551
sg97
I424
sg98
g3552
sg99
g3553
sg100
I00
sg101
I31
sg102
I00
sg103
Nsg104
I105006
sg105
g3555
sg106
I5
sg107
g217
sg108
g3556
sg109
g3557
sg110
I00
sg111
I00
sg112
g3554
sg113
g3558
sg114
g3559
sg115
g3560
sg116
I00
sg117
I00
sg118
I0
sg119
g3561
sg120
g3562
sg121
g122
(S'\x07\xdc\x04\x1c\x0f.\x0c\x00\x00\x00'
p3564
tp3565
Rp3566
sg126
g3550
sg127
Nsg128
I00
sg129
I01
sg130
I00
sbsg131
Nsg29
L661266660037410817L
sg132
I0
sg133
VIFTTT
p3567
sg115
Ven
p3568
sg136
g3530
sg121
g122
(S'\x07\xdf\x0b\x02\x13( \x00\x00\x00'
p3569
tp3570
Rp3571
sg39
(dp3572
g141
Nsg142
I00
sg143
g3527
sg145
I00
sg146
Nsg45
L661266660037410817L
sg147
I0
sg148
V<a href="http://ifttt.com" rel="nofollow">IFTTT</a>
p3573
sg150
I00
sg151
Nsg53
(dp3574
g153
(lp3575
(dp3576
g156
(lp3577
I24
aI29
asg143
VCMCO
p3578
sasg159
(lp3579
sg161
(lp3580
sg35
(lp3581
(dp3582
g86
Vhttps://t.co/2SjzQtnFh0
p3583
sg156
(lp3584
I99
aI122
asg167
Vhttp://ift.tt/1Q6knpZ
p3585
sg169
Vift.tt/1Q6knpZ
p3586
sassg171
Nsg172
Nsg173
I0
sg57
V661266660037410817
p3587
sg175
I00
sg176
g3549
sg177
Nsg178
Nsg179
I00
sg79
g3568
sg87
VMon Nov 02 19:40:32 +0000 2015
p3588
sg181
Nsg182
Nsg183
(dp3589
g185
Ven
p3590
sg187
Vrecent
p3591
sssg189
g3589
sg190
Nsg191
Nsg31
g3574
sg192
Nsg193
Nsg99
g3587
sg194
I00
sg195
Nsg196
I0
sg197
Nsbag0
(g4
g5
Ntp3592
Rp3593
(dp3594
g9
I00
sg10
Nsg11
I00
sg12
VRanks #1 with over 80% in alert gains today. Click here https://t.co/9Vnnw3s1D8 .. $KCAP $SQI $CMCO
p3595
sg14
Vhttp://socialadcenter.com
p3596
sg16
I00
sg17
I00
sg18
Nsg19
g0
(g20
g5
Ntp3597
Rp3598
(dp3599
g24
I00
sg25
I00
sg26
I01
sg27
VDDEEF6
p3600
sg29
L3261001351L
sg30
I00
sg31
(dp3601
g86
(dp3602
g35
(lp3603
(dp3604
g86
Vhttp://t.co/8dJZYrRhox
p3605
sg156
(lp3606
I0
aI22
asg167
Vhttp://pennystocksecret.com
p3607
sg169
Vpennystocksecret.com
p3608
sassg33
(dp3609
g35
(lp3610
(dp3611
g86
Vhttp://t.co/UWzH8kOOl9
p3612
sg156
(lp3613
I11
aI33
asg167
Vhttp://PennyStockSecret.com
p3614
sg169
VPennyStockSecret.com
p3615
sasssg37
Vhttps://pbs.twimg.com/profile_images/617517575241531392/vk4GKKpS_normal.jpg
p3616
sg39
(dp3617
g41
I00
sg42
I00
sg43
I01
sg44
I00
sg45
L3261001351L
sg46
Vhttps://abs.twimg.com/images/themes/theme1/bg.png
p3618
sg48
I00
sg49
V333333
p3619
sg51
g3616
sg52
g3600
sg53
g3601
sg54
I5237
sg55
VC0DEED
p3620
sg57
V3261001351
p3621
sg59
VC0DEED
p3622
sg61
I9
sg62
I00
sg63
I-28800
sg64
I17457
sg33
VSign up to http://t.co/UWzH8kOOl9  and get the premiere penny stock newsletter for free! make sure you subscribe today!
p3623
sg66
I12
sg67
VUnited States
p3624
sg69
V0084B4
p3625
sg71
Vhttp://pbs.twimg.com/profile_images/617517575241531392/vk4GKKpS_normal.jpg
p3626
sg73
I00
sg74
I00
sg320
Vhttps://pbs.twimg.com/profile_banners/3261001351/1436062750
p3627
sg75
Vhttp://abs.twimg.com/images/themes/theme1/bg.png
p3628
sg77
Vstockmaster101
p3629
sg79
Ven
p3630
sg81
I00
sg82
I0
sg83
VStockmaster101
p3631
sg85
I00
sg86
Vhttp://t.co/8dJZYrRhox
p3632
sg87
VTue Jun 30 07:41:17 +0000 2015
p3633
sg89
I00
sg90
VPacific Time (US & Canada)
p3634
sg92
I00
sg93
I01
sg94
I00
ssg95
I00
sg96
g3619
sg97
I5237
sg98
g3620
sg99
g3621
sg100
I00
sg101
I9
sg102
I00
sg103
I-28800
sg104
I17457
sg105
g3623
sg106
I12
sg107
g3624
sg108
g3625
sg109
g3626
sg110
I00
sg111
I00
sg112
g3622
sg329
g3627
sg113
g3628
sg114
g3629
sg115
g3630
sg116
I00
sg117
I00
sg118
I0
sg119
g3631
sg120
g3632
sg121
g122
(S'\x07\xdf\x06\x1e\x07)\x11\x00\x00\x00'
p3635
tp3636
Rp3637
sg126
g3618
sg127
g3634
sg128
I00
sg129
I01
sg130
I00
sbsg131
Nsg29
L661224834051932160L
sg132
I0
sg133
VSocial Ad Center
p3638
sg115
Ven
p3639
sg136
g3598
sg121
g122
(S'\x07\xdf\x0b\x02\x106\x14\x00\x00\x00'
p3640
tp3641
Rp3642
sg39
(dp3643
g141
Nsg142
I00
sg143
g3595
sg145
I00
sg146
Nsg45
L661224834051932160L
sg147
I0
sg148
V<a href="http://socialadcenter.com" rel="nofollow">Social Ad Center</a>
p3644
sg150
I00
sg151
Nsg53
(dp3645
g153
(lp3646
(dp3647
g156
(lp3648
I83
aI88
asg143
VKCAP
p3649
sa(dp3650
g156
(lp3651
I89
aI93
asg143
VSQI
p3652
sa(dp3653
g156
(lp3654
I94
aI99
asg143
VCMCO
p3655
sasg159
(lp3656
sg161
(lp3657
sg35
(lp3658
(dp3659
g86
Vhttps://t.co/9Vnnw3s1D8
p3660
sg156
(lp3661
I56
aI79
asg167
Vhttp://PennyStockSecret.com
p3662
sg169
VPennyStockSecret.com
p3663
sassg171
Nsg172
Nsg173
I0
sg57
V661224834051932160
p3664
sg175
I00
sg176
g3617
sg177
Nsg178
Nsg179
I00
sg79
g3639
sg87
VMon Nov 02 16:54:20 +0000 2015
p3665
sg181
Nsg182
Nsg183
(dp3666
g185
Ven
p3667
sg187
Vrecent
p3668
sssg189
g3666
sg190
Nsg191
Nsg31
g3645
sg192
Nsg193
Nsg99
g3664
sg194
I00
sg195
Nsg196
I0
sg197
Nsbatp3669
Rp3670
(dp3671
S'count'
p3672
I100
sS'completed_in'
p3673
F0.07
sS'_since_id'
p3674
NsS'refresh_url'
p3675
V?since_id=663837515984601088&q=%24CMCO&include_entities=1
p3676
sS'query'
p3677
V%24CMCO
p3678
sS'_max_id'
p3679
NsS'next_results'
p3680
Nsb.