ccopy_reg
_reconstructor
p0
(ctweepy.models
SearchResults
p1
c__builtin__
list
p2
(lp3
g0
(ctweepy.models
Status
p4
c__builtin__
object
p5
Ntp6
Rp7
(dp8
S'favorited'
p9
I00
sS'contributors'
p10
NsS'truncated'
p11
I00
sS'text'
p12
V$DERM:\u000a\u000aDermira (DERM) Announces Earnings Results:\u000a\u000ahttps://t.co/YHVANZUcJO
p13
sS'source_url'
p14
Vhttp://www.newsflowing.com
p15
sS'possibly_sensitive'
p16
I00
sS'is_quote_status'
p17
I00
sS'in_reply_to_status_id'
p18
NsS'user'
p19
g0
(ctweepy.models
User
p20
g5
Ntp21
Rp22
(dp23
S'follow_request_sent'
p24
I00
sS'has_extended_profile'
p25
I00
sS'profile_use_background_image'
p26
I01
sS'profile_sidebar_fill_color'
p27
VE6F6F9
p28
sS'id'
p29
L2342215530L
sS'verified'
p30
I00
sS'entities'
p31
(dp32
Vdescription
p33
(dp34
Vurls
p35
(lp36
sssS'profile_image_url_https'
p37
Vhttps://pbs.twimg.com/profile_images/544036492876591104/7QJIB-XK_normal.jpeg
p38
sS'_json'
p39
(dp40
Vfollow_request_sent
p41
I00
sVhas_extended_profile
p42
I00
sVprofile_use_background_image
p43
I01
sVdefault_profile_image
p44
I00
sVid
p45
L2342215530L
sVprofile_background_image_url_https
p46
Vhttps://abs.twimg.com/images/themes/theme17/bg.gif
p47
sVverified
p48
I00
sVprofile_text_color
p49
V333333
p50
sVprofile_image_url_https
p51
g38
sVprofile_sidebar_fill_color
p52
g28
sVentities
p53
g32
sVfollowers_count
p54
I465
sVprofile_sidebar_border_color
p55
VDBE9ED
p56
sVid_str
p57
V2342215530
p58
sVprofile_background_color
p59
VDBE9ED
p60
sVlisted_count
p61
I89
sVis_translation_enabled
p62
I00
sVutc_offset
p63
I-14400
sVstatuses_count
p64
I193001
sg33
V
p65
sVfriends_count
p66
I0
sVlocation
p67
g65
sVprofile_link_color
p68
VCC3366
p69
sVprofile_image_url
p70
Vhttp://pbs.twimg.com/profile_images/544036492876591104/7QJIB-XK_normal.jpeg
p71
sVfollowing
p72
I00
sVgeo_enabled
p73
I00
sVprofile_background_image_url
p74
Vhttp://abs.twimg.com/images/themes/theme17/bg.gif
p75
sVscreen_name
p76
Vnewswithvalue
p77
sVlang
p78
Ven
p79
sVprofile_background_tile
p80
I00
sVfavourites_count
p81
I0
sVname
p82
VBreaking News Now
p83
sVnotifications
p84
I00
sVurl
p85
NsVcreated_at
p86
VThu Feb 13 16:14:12 +0000 2014
p87
sVcontributors_enabled
p88
I00
sVtime_zone
p89
VAtlantic Time (Canada)
p90
sVprotected
p91
I00
sVdefault_profile
p92
I00
sVis_translator
p93
I00
ssS'contributors_enabled'
p94
I00
sS'profile_text_color'
p95
g50
sS'followers_count'
p96
I465
sS'profile_sidebar_border_color'
p97
g56
sS'id_str'
p98
g58
sS'default_profile_image'
p99
I00
sS'listed_count'
p100
I89
sS'is_translation_enabled'
p101
I00
sS'utc_offset'
p102
I-14400
sS'statuses_count'
p103
I193001
sS'description'
p104
g65
sS'friends_count'
p105
I0
sS'location'
p106
g65
sS'profile_link_color'
p107
g69
sS'profile_image_url'
p108
g71
sS'notifications'
p109
I00
sS'geo_enabled'
p110
I00
sS'profile_background_color'
p111
g60
sS'profile_background_image_url'
p112
g75
sS'screen_name'
p113
g77
sS'lang'
p114
g79
sS'following'
p115
I00
sS'profile_background_tile'
p116
I00
sS'favourites_count'
p117
I0
sS'name'
p118
g83
sS'url'
p119
NsS'created_at'
p120
cdatetime
datetime
p121
(S'\x07\xde\x02\r\x10\x0e\x0c\x00\x00\x00'
p122
tp123
Rp124
sS'profile_background_image_url_https'
p125
g47
sS'time_zone'
p126
g90
sS'protected'
p127
I00
sS'default_profile'
p128
I00
sS'is_translator'
p129
I00
sbsS'geo'
p130
Nsg29
L664275112343027712L
sS'favorite_count'
p131
I0
sS'source'
p132
VNFIG
p133
sg114
Ven
p134
sS'author'
p135
g22
sg120
g121
(S'\x07\xdf\x0b\x0b\x027\x03\x00\x00\x00'
p136
tp137
Rp138
sg39
(dp139
Vcontributors
p140
NsVtruncated
p141
I00
sVtext
p142
V$DERM:\u000a\u000aDermira (DERM) Announces Earnings Results:\u000a\u000ahttps://t.co/YHVANZUcJO
p143
sVis_quote_status
p144
I00
sVin_reply_to_status_id
p145
Nsg45
L664275112343027712L
sVfavorite_count
p146
I0
sVsource
p147
V<a href="http://www.newsflowing.com" rel="nofollow">NFIG</a>
p148
sVretweeted
p149
I00
sVcoordinates
p150
Nsg53
(dp151
Vsymbols
p152
(lp153
(dp154
Vindices
p155
(lp156
I0
aI5
asg142
VDERM
p157
sasVuser_mentions
p158
(lp159
sVhashtags
p160
(lp161
sg35
(lp162
(dp163
g85
Vhttps://t.co/YHVANZUcJO
p164
sg155
(lp165
I52
aI75
asVexpanded_url
p166
Vhttp://StockNewsHour.com/derm-dermira-derm-announces-earnings-results/
p167
sVdisplay_url
p168
VStockNewsHour.com/derm-dermira-d\u2026
p169
sassVin_reply_to_screen_name
p170
NsVin_reply_to_user_id
p171
NsVretweet_count
p172
I0
sg57
V664275112343027712
p173
sVfavorited
p174
I00
sVuser
p175
g40
sVgeo
p176
NsVin_reply_to_user_id_str
p177
NsVpossibly_sensitive
p178
I00
sg78
g134
sg86
VWed Nov 11 02:55:03 +0000 2015
p179
sVin_reply_to_status_id_str
p180
NsVplace
p181
NsVmetadata
p182
(dp183
Viso_language_code
p184
Ven
p185
sVresult_type
p186
Vrecent
p187
sssS'metadata'
p188
g183
sS'coordinates'
p189
NsS'in_reply_to_user_id_str'
p190
Nsg31
g151
sS'in_reply_to_status_id_str'
p191
NsS'in_reply_to_screen_name'
p192
Nsg98
g173
sS'retweeted'
p193
I00
sS'place'
p194
NsS'retweet_count'
p195
I0
sS'in_reply_to_user_id'
p196
Nsbag0
(g4
g5
Ntp197
Rp198
(dp199
g9
I00
sg10
Nsg11
I00
sg12
VDermira $DERM Announces  Earnings Results https://t.co/dtshNPJGnv
p200
sg14
Vhttp://ifttt.com
p201
sg16
I00
sg17
I00
sg18
Nsg19
g0
(g20
g5
Ntp202
Rp203
(dp204
g24
I00
sg25
I00
sg26
I01
sg27
VC0DFEC
p205
sg29
L2181281054L
sg30
I00
sg31
(dp206
g85
(dp207
g35
(lp208
(dp209
g85
Vhttp://t.co/NYpmdUJnIe
p210
sg155
(lp211
I0
aI22
asg166
Vhttp://www.wkrb13.com
p212
sg168
Vwkrb13.com
p213
sassg33
(dp214
g35
(lp215
(dp216
g85
Vhttp://t.co/n4QyKK8afr
p217
sg155
(lp218
I31
aI53
asg166
Vhttp://WKRB13.com
p219
sg168
VWKRB13.com
p220
sasssg37
Vhttps://pbs.twimg.com/profile_images/378800000709495912/4d5b1653db87aeb8c4685ea3febc9ab0_normal.png
p221
sg39
(dp222
g41
I00
sg42
I00
sg43
I01
sg44
I00
sg45
L2181281054L
sg46
Vhttps://abs.twimg.com/images/themes/theme15/bg.png
p223
sg48
I00
sg49
V333333
p224
sg51
g221
sg52
g205
sg53
g206
sg54
I506
sg55
VA8C7F7
p225
sg57
V2181281054
p226
sg59
V022330
p227
sg61
I73
sg62
I00
sg63
Nsg64
I299436
sg33
VWKRB News - News and Analysis. http://t.co/n4QyKK8afr
p228
sg66
I8
sg67
g65
sg68
V0084B4
p229
sg70
Vhttp://pbs.twimg.com/profile_images/378800000709495912/4d5b1653db87aeb8c4685ea3febc9ab0_normal.png
p230
sg72
I00
sg73
I00
sg74
Vhttp://abs.twimg.com/images/themes/theme15/bg.png
p231
sg76
VWKRBNews
p232
sg78
Ven
p233
sg80
I00
sg81
I0
sg82
VWKRB News
p234
sg84
I00
sg85
Vhttp://t.co/NYpmdUJnIe
p235
sg86
VFri Nov 08 02:17:02 +0000 2013
p236
sg88
I00
sg89
Nsg91
I00
sg92
I00
sg93
I00
ssg94
I00
sg95
g224
sg96
I506
sg97
g225
sg98
g226
sg99
I00
sg100
I73
sg101
I00
sg102
Nsg103
I299436
sg104
g228
sg105
I8
sg106
g65
sg107
g229
sg108
g230
sg109
I00
sg110
I00
sg111
g227
sg112
g231
sg113
g232
sg114
g233
sg115
I00
sg116
I00
sg117
I0
sg118
g234
sg119
g235
sg120
g121
(S'\x07\xdd\x0b\x08\x02\x11\x02\x00\x00\x00'
p237
tp238
Rp239
sg125
g223
sg126
Nsg127
I00
sg128
I00
sg129
I00
sbsg130
Nsg29
L664273728927346688L
sg131
I0
sg132
VIFTTT
p240
sg114
Ven
p241
sg135
g203
sg120
g121
(S'\x07\xdf\x0b\x0b\x021!\x00\x00\x00'
p242
tp243
Rp244
sg39
(dp245
g140
Nsg141
I00
sg142
g200
sg144
I00
sg145
Nsg45
L664273728927346688L
sg146
I0
sg147
V<a href="http://ifttt.com" rel="nofollow">IFTTT</a>
p246
sg149
I00
sg150
Nsg53
(dp247
g152
(lp248
(dp249
g155
(lp250
I8
aI13
asg142
VDERM
p251
sasg158
(lp252
sg160
(lp253
sg35
(lp254
(dp255
g85
Vhttps://t.co/dtshNPJGnv
p256
sg155
(lp257
I42
aI65
asg166
Vhttp://ift.tt/1PBpuhh
p258
sg168
Vift.tt/1PBpuhh
p259
sassg170
Nsg171
Nsg172
I0
sg57
V664273728927346688
p260
sg174
I00
sg175
g222
sg176
Nsg177
Nsg178
I00
sg78
g241
sg86
VWed Nov 11 02:49:33 +0000 2015
p261
sg180
Nsg181
Nsg182
(dp262
g184
Ven
p263
sg186
Vrecent
p264
sssg188
g262
sg189
Nsg190
Nsg31
g247
sg191
Nsg192
Nsg98
g260
sg193
I00
sg194
Nsg195
I0
sg196
Nsbag0
(g4
g5
Ntp265
Rp266
(dp267
g9
I00
sg10
Nsg11
I00
sg12
VDermira $DERM Announces Quarterly  Earnings Results https://t.co/gl7mXQiYft
p268
sg14
Vhttp://ifttt.com
p269
sg16
I00
sg17
I00
sg18
Nsg19
g0
(g20
g5
Ntp270
Rp271
(dp272
g24
I00
sg25
I00
sg26
I01
sg27
VEFEFEF
p273
sg29
I1979190776
sg30
I00
sg31
(dp274
g33
(dp275
g35
(lp276
sssg37
Vhttps://pbs.twimg.com/profile_images/378800000629011324/02a58ce4852fa2c0b053a8853393c35c_normal.png
p277
sg39
(dp278
g41
I00
sg42
I00
sg43
I01
sg44
I00
sg45
I1979190776
sg46
Vhttps://abs.twimg.com/images/themes/theme14/bg.gif
p279
sg48
I00
sg49
V333333
p280
sg51
g277
sg52
g273
sg53
g274
sg54
I780
sg55
VEEEEEE
p281
sg57
V1979190776
p282
sg59
V131516
p283
sg61
I83
sg62
I00
sg63
Nsg64
I347263
sg33
VMarket moving news
p284
sg66
I11
sg67
VVirginia
p285
sg68
V009999
p286
sg70
Vhttp://pbs.twimg.com/profile_images/378800000629011324/02a58ce4852fa2c0b053a8853393c35c_normal.png
p287
sg72
I00
sg73
I00
sg74
Vhttp://abs.twimg.com/images/themes/theme14/bg.gif
p288
sg76
VTickerReport
p289
sg78
Ven
p290
sg80
I01
sg81
I0
sg82
VTicker Report
p291
sg84
I00
sg85
Nsg86
VMon Oct 21 15:58:27 +0000 2013
p292
sg88
I00
sg89
Nsg91
I00
sg92
I00
sg93
I00
ssg94
I00
sg95
g280
sg96
I780
sg97
g281
sg98
g282
sg99
I00
sg100
I83
sg101
I00
sg102
Nsg103
I347263
sg104
g284
sg105
I11
sg106
g285
sg107
g286
sg108
g287
sg109
I00
sg110
I00
sg111
g283
sg112
g288
sg113
g289
sg114
g290
sg115
I00
sg116
I01
sg117
I0
sg118
g291
sg119
Nsg120
g121
(S'\x07\xdd\n\x15\x0f:\x1b\x00\x00\x00'
p293
tp294
Rp295
sg125
g279
sg126
Nsg127
I00
sg128
I00
sg129
I00
sbsg130
Nsg29
L664269151083626496L
sg131
I0
sg132
VIFTTT
p296
sg114
Ven
p297
sg135
g271
sg120
g121
(S'\x07\xdf\x0b\x0b\x02\x1f\x15\x00\x00\x00'
p298
tp299
Rp300
sg39
(dp301
g140
Nsg141
I00
sg142
g268
sg144
I00
sg145
Nsg45
L664269151083626496L
sg146
I0
sg147
V<a href="http://ifttt.com" rel="nofollow">IFTTT</a>
p302
sg149
I00
sg150
Nsg53
(dp303
g152
(lp304
(dp305
g155
(lp306
I8
aI13
asg142
VDERM
p307
sasg158
(lp308
sg160
(lp309
sg35
(lp310
(dp311
g85
Vhttps://t.co/gl7mXQiYft
p312
sg155
(lp313
I52
aI75
asg166
Vhttp://ift.tt/1QtCshT
p314
sg168
Vift.tt/1QtCshT
p315
sassg170
Nsg171
Nsg172
I0
sg57
V664269151083626496
p316
sg174
I00
sg175
g278
sg176
Nsg177
Nsg178
I00
sg78
g297
sg86
VWed Nov 11 02:31:21 +0000 2015
p317
sg180
Nsg181
Nsg182
(dp318
g184
Ven
p319
sg186
Vrecent
p320
sssg188
g318
sg189
Nsg190
Nsg31
g303
sg191
Nsg192
Nsg98
g316
sg193
I00
sg194
Nsg195
I0
sg196
Nsbag0
(g4
g5
Ntp321
Rp322
(dp323
g9
I00
sg10
Nsg11
I00
sg12
VDermira $DERM Announces Quarterly  Earnings Results https://t.co/LuPVMKtZ5S
p324
sg14
Vhttp://ifttt.com
p325
sg16
I00
sg17
I00
sg18
Nsg19
g0
(g20
g5
Ntp326
Rp327
(dp328
g24
I00
sg25
I00
sg26
I01
sg27
VDDEEF6
p329
sg29
L2920258887L
sg30
I00
sg31
(dp330
g33
(dp331
g35
(lp332
sssg37
Vhttps://abs.twimg.com/sticky/default_profile_images/default_profile_0_normal.png
p333
sg39
(dp334
g41
I00
sg42
I00
sg43
I01
sg44
I01
sg45
L2920258887L
sg46
Vhttps://abs.twimg.com/images/themes/theme1/bg.png
p335
sg48
I00
sg49
V333333
p336
sg51
g333
sg52
g329
sg53
g330
sg54
I1021
sg55
VC0DEED
p337
sg57
V2920258887
p338
sg59
VC0DEED
p339
sg61
I39
sg62
I00
sg63
Nsg64
I170284
sg33
g65
sg66
I40
sg67
g65
sg68
V0084B4
p340
sg70
Vhttp://abs.twimg.com/sticky/default_profile_images/default_profile_0_normal.png
p341
sg72
I00
sg73
I00
sg74
Vhttp://abs.twimg.com/images/themes/theme1/bg.png
p342
sg76
Vdakotafinancial
p343
sg78
Ven
p344
sg80
I00
sg81
I0
sg82
VDakota Financial 
p345
sg84
I00
sg85
Nsg86
VSat Dec 13 20:48:14 +0000 2014
p346
sg88
I00
sg89
Nsg91
I00
sg92
I01
sg93
I00
ssg94
I00
sg95
g336
sg96
I1021
sg97
g337
sg98
g338
sg99
I01
sg100
I39
sg101
I00
sg102
Nsg103
I170284
sg104
g65
sg105
I40
sg106
g65
sg107
g340
sg108
g341
sg109
I00
sg110
I00
sg111
g339
sg112
g342
sg113
g343
sg114
g344
sg115
I00
sg116
I00
sg117
I0
sg118
g345
sg119
Nsg120
g121
(S'\x07\xde\x0c\r\x140\x0e\x00\x00\x00'
p347
tp348
Rp349
sg125
g335
sg126
Nsg127
I00
sg128
I01
sg129
I00
sbsg130
Nsg29
L664266560035491840L
sg131
I0
sg132
VIFTTT
p350
sg114
Ven
p351
sg135
g327
sg120
g121
(S'\x07\xdf\x0b\x0b\x02\x15\x04\x00\x00\x00'
p352
tp353
Rp354
sg39
(dp355
g140
Nsg141
I00
sg142
g324
sg144
I00
sg145
Nsg45
L664266560035491840L
sg146
I0
sg147
V<a href="http://ifttt.com" rel="nofollow">IFTTT</a>
p356
sg149
I00
sg150
Nsg53
(dp357
g152
(lp358
(dp359
g155
(lp360
I8
aI13
asg142
VDERM
p361
sasg158
(lp362
sg160
(lp363
sg35
(lp364
(dp365
g85
Vhttps://t.co/LuPVMKtZ5S
p366
sg155
(lp367
I52
aI75
asg166
Vhttp://ift.tt/1NJ0aWJ
p368
sg168
Vift.tt/1NJ0aWJ
p369
sassg170
Nsg171
Nsg172
I0
sg57
V664266560035491840
p370
sg174
I00
sg175
g334
sg176
Nsg177
Nsg178
I00
sg78
g351
sg86
VWed Nov 11 02:21:04 +0000 2015
p371
sg180
Nsg181
Nsg182
(dp372
g184
Ven
p373
sg186
Vrecent
p374
sssg188
g372
sg189
Nsg190
Nsg31
g357
sg191
Nsg192
Nsg98
g370
sg193
I00
sg194
Nsg195
I0
sg196
Nsbag0
(g4
g5
Ntp375
Rp376
(dp377
g9
I00
sg10
Nsg11
I00
sg12
VDermira $DERM Announces Quarterly  Earnings Results https://t.co/OEUNmRKi1x #acn
p378
sg14
Vhttp://ifttt.com
p379
sg16
I00
sg17
I00
sg18
Nsg19
g0
(g20
g5
Ntp380
Rp381
(dp382
g24
I00
sg25
I00
sg26
I01
sg27
VE8E8E8
p383
sg29
I52210566
sg30
I00
sg31
(dp384
g85
(dp385
g35
(lp386
(dp387
g85
Vhttp://t.co/odTc3pvcAe
p388
sg155
(lp389
I0
aI22
asg166
Vhttp://www.americanconsumernews.com/
p390
sg168
Vamericanconsumernews.com
p391
sassg33
(dp392
g35
(lp393
sssg37
Vhttps://pbs.twimg.com/profile_images/289298274/text_normal.jpg
p394
sg39
(dp395
g41
I00
sg42
I00
sg43
I01
sg44
I00
sg45
I52210566
sg46
Vhttps://pbs.twimg.com/profile_background_images/20558354/back.jpg
p396
sg48
I00
sg49
V333333
p397
sg51
g394
sg52
g383
sg53
g384
sg54
I1114
sg55
VADADAD
p398
sg57
V52210566
p399
sg59
V9AE4E8
p400
sg61
I96
sg62
I00
sg63
I-21600
sg64
I580839
sg33
VPersonal Finance and Consumer Tips
p401
sg66
I1412
sg67
VSioux Falls, SD
p402
sg68
V0084B4
p403
sg70
Vhttp://pbs.twimg.com/profile_images/289298274/text_normal.jpg
p404
sg72
I00
sg73
I00
sg74
Vhttp://pbs.twimg.com/profile_background_images/20558354/back.jpg
p405
sg76
VAmConsumerNews
p406
sg78
Ven
p407
sg80
I00
sg81
I0
sg82
VConsumer News
p408
sg84
I00
sg85
Vhttp://t.co/odTc3pvcAe
p409
sg86
VMon Jun 29 22:22:08 +0000 2009
p410
sg88
I00
sg89
VCentral Time (US & Canada)
p411
sg91
I00
sg92
I00
sg93
I00
ssg94
I00
sg95
g397
sg96
I1114
sg97
g398
sg98
g399
sg99
I00
sg100
I96
sg101
I00
sg102
I-21600
sg103
I580839
sg104
g401
sg105
I1412
sg106
g402
sg107
g403
sg108
g404
sg109
I00
sg110
I00
sg111
g400
sg112
g405
sg113
g406
sg114
g407
sg115
I00
sg116
I00
sg117
I0
sg118
g408
sg119
g409
sg120
g121
(S'\x07\xd9\x06\x1d\x16\x16\x08\x00\x00\x00'
p412
tp413
Rp414
sg125
g396
sg126
g411
sg127
I00
sg128
I00
sg129
I00
sbsg130
Nsg29
L664265939970560000L
sg131
I0
sg132
VIFTTT
p415
sg114
Ven
p416
sg135
g381
sg120
g121
(S'\x07\xdf\x0b\x0b\x02\x12$\x00\x00\x00'
p417
tp418
Rp419
sg39
(dp420
g140
Nsg141
I00
sg142
g378
sg144
I00
sg145
Nsg45
L664265939970560000L
sg146
I0
sg147
V<a href="http://ifttt.com" rel="nofollow">IFTTT</a>
p421
sg149
I00
sg150
Nsg53
(dp422
g152
(lp423
(dp424
g155
(lp425
I8
aI13
asg142
VDERM
p426
sasg158
(lp427
sg160
(lp428
(dp429
g155
(lp430
I76
aI80
asg142
Vacn
p431
sasg35
(lp432
(dp433
g85
Vhttps://t.co/OEUNmRKi1x
p434
sg155
(lp435
I52
aI75
asg166
Vhttp://ift.tt/1WQMLwa
p436
sg168
Vift.tt/1WQMLwa
p437
sassg170
Nsg171
Nsg172
I0
sg57
V664265939970560000
p438
sg174
I00
sg175
g395
sg176
Nsg177
Nsg178
I00
sg78
g416
sg86
VWed Nov 11 02:18:36 +0000 2015
p439
sg180
Nsg181
Nsg182
(dp440
g184
Ven
p441
sg186
Vrecent
p442
sssg188
g440
sg189
Nsg190
Nsg31
g422
sg191
Nsg192
Nsg98
g438
sg193
I00
sg194
Nsg195
I0
sg196
Nsbag0
(g4
g5
Ntp443
Rp444
(dp445
g9
I00
sg10
Nsg11
I00
sg12
VDermira announces earnings. ($0.58) EPS. Beats estimates. https://t.co/O2TXR5vXN8 $DERM #DERM
p446
sg14
Vhttp://ifttt.com
p447
sg16
I00
sg17
I00
sg18
Nsg19
g0
(g20
g5
Ntp448
Rp449
(dp450
g24
I00
sg25
I00
sg26
I01
sg27
VE8E8E8
p451
sg29
I52210566
sg30
I00
sg31
(dp452
g85
(dp453
g35
(lp454
(dp455
g85
Vhttp://t.co/odTc3pvcAe
p456
sg155
(lp457
I0
aI22
asg166
Vhttp://www.americanconsumernews.com/
p458
sg168
Vamericanconsumernews.com
p459
sassg33
(dp460
g35
(lp461
sssg37
Vhttps://pbs.twimg.com/profile_images/289298274/text_normal.jpg
p462
sg39
(dp463
g41
I00
sg42
I00
sg43
I01
sg44
I00
sg45
I52210566
sg46
Vhttps://pbs.twimg.com/profile_background_images/20558354/back.jpg
p464
sg48
I00
sg49
V333333
p465
sg51
g462
sg52
g451
sg53
g452
sg54
I1114
sg55
VADADAD
p466
sg57
V52210566
p467
sg59
V9AE4E8
p468
sg61
I96
sg62
I00
sg63
I-21600
sg64
I580839
sg33
VPersonal Finance and Consumer Tips
p469
sg66
I1412
sg67
VSioux Falls, SD
p470
sg68
V0084B4
p471
sg70
Vhttp://pbs.twimg.com/profile_images/289298274/text_normal.jpg
p472
sg72
I00
sg73
I00
sg74
Vhttp://pbs.twimg.com/profile_background_images/20558354/back.jpg
p473
sg76
VAmConsumerNews
p474
sg78
Ven
p475
sg80
I00
sg81
I0
sg82
VConsumer News
p476
sg84
I00
sg85
Vhttp://t.co/odTc3pvcAe
p477
sg86
VMon Jun 29 22:22:08 +0000 2009
p478
sg88
I00
sg89
VCentral Time (US & Canada)
p479
sg91
I00
sg92
I00
sg93
I00
ssg94
I00
sg95
g465
sg96
I1114
sg97
g466
sg98
g467
sg99
I00
sg100
I96
sg101
I00
sg102
I-21600
sg103
I580839
sg104
g469
sg105
I1412
sg106
g470
sg107
g471
sg108
g472
sg109
I00
sg110
I00
sg111
g468
sg112
g473
sg113
g474
sg114
g475
sg115
I00
sg116
I00
sg117
I0
sg118
g476
sg119
g477
sg120
g121
(S'\x07\xd9\x06\x1d\x16\x16\x08\x00\x00\x00'
p480
tp481
Rp482
sg125
g464
sg126
g479
sg127
I00
sg128
I00
sg129
I00
sbsg130
Nsg29
L664265935419785216L
sg131
I1
sg132
VIFTTT
p483
sg114
Ven
p484
sg135
g449
sg120
g121
(S'\x07\xdf\x0b\x0b\x02\x12#\x00\x00\x00'
p485
tp486
Rp487
sg39
(dp488
g140
Nsg141
I00
sg142
g446
sg144
I00
sg145
Nsg45
L664265935419785216L
sg146
I1
sg147
V<a href="http://ifttt.com" rel="nofollow">IFTTT</a>
p489
sg149
I00
sg150
Nsg53
(dp490
g152
(lp491
(dp492
g155
(lp493
I82
aI87
asg142
VDERM
p494
sasg158
(lp495
sg160
(lp496
(dp497
g155
(lp498
I88
aI93
asg142
VDERM
p499
sasg35
(lp500
(dp501
g85
Vhttps://t.co/O2TXR5vXN8
p502
sg155
(lp503
I58
aI81
asg166
Vhttp://ift.tt/1SHdiLV
p504
sg168
Vift.tt/1SHdiLV
p505
sassg170
Nsg171
Nsg172
I0
sg57
V664265935419785216
p506
sg174
I00
sg175
g463
sg176
Nsg177
Nsg178
I00
sg78
g484
sg86
VWed Nov 11 02:18:35 +0000 2015
p507
sg180
Nsg181
Nsg182
(dp508
g184
Ven
p509
sg186
Vrecent
p510
sssg188
g508
sg189
Nsg190
Nsg31
g490
sg191
Nsg192
Nsg98
g506
sg193
I00
sg194
Nsg195
I0
sg196
Nsbag0
(g4
g5
Ntp511
Rp512
(dp513
g9
I00
sg10
Nsg11
I00
sg12
VDermira beats by $0.19 https://t.co/A8AZrXoRVS $DERM
p514
sg14
Vhttp://seekingalpha.com
p515
sg16
I00
sg17
I00
sg18
Nsg19
g0
(g20
g5
Ntp516
Rp517
(dp518
g24
I00
sg25
I00
sg26
I01
sg27
VDDEEF6
p519
sg29
I207441033
sg30
I00
sg31
(dp520
g33
(dp521
g35
(lp522
sssg37
Vhttps://pbs.twimg.com/profile_images/628450795533414401/xwE4BfP__normal.jpg
p523
sg39
(dp524
g41
I00
sg42
I00
sg43
I01
sg44
I00
sg45
I207441033
sg46
Vhttps://abs.twimg.com/images/themes/theme1/bg.png
p525
sg48
I00
sg49
V333333
p526
sg51
g523
sg52
g519
sg53
g520
sg54
I135
sg55
VC0DEED
p527
sg57
V207441033
p528
sg59
VC0DEED
p529
sg61
I30
sg62
I01
sg63
I7200
sg64
I30086
sg33
g65
sg66
I1
sg67
g65
sg68
V0084B4
p530
sg70
Vhttp://pbs.twimg.com/profile_images/628450795533414401/xwE4BfP__normal.jpg
p531
sg72
I00
sg73
I00
sVprofile_banner_url
p532
Vhttps://pbs.twimg.com/profile_banners/207441033/1438669732
p533
sg74
Vhttp://abs.twimg.com/images/themes/theme1/bg.png
p534
sg76
VSA_FACTSET
p535
sg78
Ven
p536
sg80
I00
sg81
I0
sg82
VSeeking Alpha
p537
sg84
I00
sg85
Nsg86
VMon Oct 25 10:13:55 +0000 2010
p538
sg88
I00
sg89
VBucharest
p539
sg91
I00
sg92
I01
sg93
I00
ssg94
I00
sg95
g526
sg96
I135
sg97
g527
sg98
g528
sg99
I00
sg100
I30
sg101
I01
sg102
I7200
sg103
I30086
sg104
g65
sg105
I1
sg106
g65
sg107
g530
sg108
g531
sg109
I00
sg110
I00
sg111
g529
sS'profile_banner_url'
p540
g533
sg112
g534
sg113
g535
sg114
g536
sg115
I00
sg116
I00
sg117
I0
sg118
g537
sg119
Nsg120
g121
(S'\x07\xda\n\x19\n\r7\x00\x00\x00'
p541
tp542
Rp543
sg125
g525
sg126
g539
sg127
I00
sg128
I01
sg129
I00
sbsg130
Nsg29
L664195860700336128L
sg131
I0
sg132
VSeeking Alpha
p544
sg114
Ven
p545
sg135
g517
sg120
g121
(S'\x07\xdf\x0b\n\x15(\x08\x00\x00\x00'
p546
tp547
Rp548
sg39
(dp549
g140
Nsg141
I00
sg142
g514
sg144
I00
sg145
Nsg45
L664195860700336128L
sg146
I0
sg147
V<a href="http://seekingalpha.com" rel="nofollow">Seeking Alpha</a>
p550
sg149
I00
sg150
Nsg53
(dp551
g152
(lp552
(dp553
g155
(lp554
I47
aI52
asg142
VDERM
p555
sasg158
(lp556
sg160
(lp557
sg35
(lp558
(dp559
g85
Vhttps://t.co/A8AZrXoRVS
p560
sg155
(lp561
I23
aI46
asg166
Vhttp://seekingalpha.com/news/2918606-dermira-beats-by-0_19?source=twitter_sa_factset
p562
sg168
Vseekingalpha.com/news/2918606-d\u2026
p563
sassg170
Nsg171
Nsg172
I0
sg57
V664195860700336128
p564
sg174
I00
sg175
g524
sg176
Nsg177
Nsg178
I00
sg78
g545
sg86
VTue Nov 10 21:40:08 +0000 2015
p565
sg180
Nsg181
Nsg182
(dp566
g184
Ven
p567
sg186
Vrecent
p568
sssg188
g566
sg189
Nsg190
Nsg31
g551
sg191
Nsg192
Nsg98
g564
sg193
I00
sg194
Nsg195
I0
sg196
Nsbag0
(g4
g5
Ntp569
Rp570
(dp571
g9
I00
sg10
Nsg11
I00
sg12
VDermira beats by $0.19 https://t.co/RXW8EqbNq0 $DERM
p572
sg14
Vhttp://seekingalpha.com
p573
sg16
I00
sg17
I00
sg18
Nsg19
g0
(g20
g5
Ntp574
Rp575
(dp576
g24
I00
sg25
I00
sg26
I01
sg27
VDDEEF6
p577
sg29
L2999760448L
sg30
I00
sg31
(dp578
g85
(dp579
g35
(lp580
(dp581
g85
Vhttp://t.co/pGg4GyH2y1
p582
sg155
(lp583
I0
aI22
asg166
Vhttp://seekingalpha.com/news/healthcare
p584
sg168
Vseekingalpha.com/news/healthcare
p585
sassg33
(dp586
g35
(lp587
(dp588
g85
Vhttps://t.co/IA82A8AOS3
p589
sg155
(lp590
I95
aI118
asg166
Vhttps://twitter.com/SeekingAlpha/following
p591
sg168
Vtwitter.com/SeekingAlpha/f\u2026
p592
sasssg37
Vhttps://pbs.twimg.com/profile_images/559722417979793408/OsxfkvzX_normal.png
p593
sg39
(dp594
g41
I00
sg42
I00
sg43
I01
sg44
I00
sg45
L2999760448L
sg46
Vhttps://abs.twimg.com/images/themes/theme1/bg.png
p595
sg48
I00
sg49
V333333
p596
sg51
g593
sg52
g577
sg53
g578
sg54
I1249
sg55
VC0DEED
p597
sg57
V2999760448
p598
sg59
VC0DEED
p599
sg61
I30
sg62
I01
sg63
I7200
sg64
I11569
sg33
VSeeking Alpha's breaking news and analysis of healthcare stocks. For all SA Twitter feeds, see https://t.co/IA82A8AOS3
p600
sg66
I32
sg67
g65
sg68
V360000
p601
sg70
Vhttp://pbs.twimg.com/profile_images/559722417979793408/OsxfkvzX_normal.png
p602
sg72
I00
sg73
I00
sg74
Vhttp://abs.twimg.com/images/themes/theme1/bg.png
p603
sg76
VSA_HealthInvest
p604
sg78
Ven
p605
sg80
I00
sg81
I0
sg82
VHealthcare Stocks
p606
sg84
I00
sg85
Vhttp://t.co/pGg4GyH2y1
p607
sg86
VMon Jan 26 14:39:13 +0000 2015
p608
sg88
I00
sg89
VBucharest
p609
sg91
I00
sg92
I00
sg93
I00
ssg94
I00
sg95
g596
sg96
I1249
sg97
g597
sg98
g598
sg99
I00
sg100
I30
sg101
I01
sg102
I7200
sg103
I11569
sg104
g600
sg105
I32
sg106
g65
sg107
g601
sg108
g602
sg109
I00
sg110
I00
sg111
g599
sg112
g603
sg113
g604
sg114
g605
sg115
I00
sg116
I00
sg117
I0
sg118
g606
sg119
g607
sg120
g121
(S"\x07\xdf\x01\x1a\x0e'\r\x00\x00\x00"
p610
tp611
Rp612
sg125
g595
sg126
g609
sg127
I00
sg128
I00
sg129
I00
sbsg130
Nsg29
L664195859425300480L
sg131
I0
sg132
VSeeking Alpha
p613
sg114
Ven
p614
sg135
g575
sg120
g121
(S'\x07\xdf\x0b\n\x15(\x07\x00\x00\x00'
p615
tp616
Rp617
sg39
(dp618
g140
Nsg141
I00
sg142
g572
sg144
I00
sg145
Nsg45
L664195859425300480L
sg146
I0
sg147
V<a href="http://seekingalpha.com" rel="nofollow">Seeking Alpha</a>
p619
sg149
I00
sg150
Nsg53
(dp620
g152
(lp621
(dp622
g155
(lp623
I47
aI52
asg142
VDERM
p624
sasg158
(lp625
sg160
(lp626
sg35
(lp627
(dp628
g85
Vhttps://t.co/RXW8EqbNq0
p629
sg155
(lp630
I23
aI46
asg166
Vhttp://seekingalpha.com/news/2918606-dermira-beats-by-0_19?source=twitter_sa_healthinvest
p631
sg168
Vseekingalpha.com/news/2918606-d\u2026
p632
sassg170
Nsg171
Nsg172
I0
sg57
V664195859425300480
p633
sg174
I00
sg175
g594
sg176
Nsg177
Nsg178
I00
sg78
g614
sg86
VTue Nov 10 21:40:07 +0000 2015
p634
sg180
Nsg181
Nsg182
(dp635
g184
Ven
p636
sg186
Vrecent
p637
sssg188
g635
sg189
Nsg190
Nsg31
g620
sg191
Nsg192
Nsg98
g633
sg193
I00
sg194
Nsg195
I0
sg196
Nsbag0
(g4
g5
Ntp638
Rp639
(dp640
g9
I00
sg10
Nsg11
I00
sg12
VDermira beats by $0.19 https://t.co/z81eC2I820 $DERM
p641
sg14
Vhttp://seekingalpha.com
p642
sg16
I00
sg17
I00
sg18
Nsg19
g0
(g20
g5
Ntp643
Rp644
(dp645
g24
I00
sg25
I00
sg26
I00
sg27
VF3F3F3
p646
sg29
I15296897
sg30
I00
sg31
(dp647
g85
(dp648
g35
(lp649
(dp650
g85
Vhttp://t.co/K8mUqhVprF
p651
sg155
(lp652
I0
aI22
asg166
Vhttp://seekingalpha.com/news/all
p653
sg168
Vseekingalpha.com/news/all
p654
sassg33
(dp655
g35
(lp656
(dp657
g85
Vhttps://t.co/nzLmsIKexy
p658
sg155
(lp659
I96
aI119
asg166
Vhttps://twitter.com/SeekingAlpha/following
p660
sg168
Vtwitter.com/SeekingAlpha/f\u2026
p661
sasssg37
Vhttps://pbs.twimg.com/profile_images/562235643225309184/BbO5bjbH_normal.png
p662
sg39
(dp663
g41
I00
sg42
I00
sg43
I00
sg44
I00
sg45
I15296897
sg46
Vhttps://pbs.twimg.com/profile_background_images/378800000040521500/f26581d4dd97008e0985dcfede25018e.png
p664
sg48
I00
sg49
V000000
p665
sg51
g662
sg52
g646
sg53
g647
sg54
I19259
sg55
VFFFFFF
p666
sg57
V15296897
p667
sg59
VC0DEED
p668
sg61
I1035
sg62
I00
sg63
I-10800
sg64
I373320
sg33
VReal-time stock market news from Seeking Alpha. See all options for Seeking Alpha on Twitter at https://t.co/nzLmsIKexy
p669
sg66
I33
sg67
VNew York
p670
sg68
V360000
p671
sg70
Vhttp://pbs.twimg.com/profile_images/562235643225309184/BbO5bjbH_normal.png
p672
sg72
I00
sg73
I00
sg74
Vhttp://pbs.twimg.com/profile_background_images/378800000040521500/f26581d4dd97008e0985dcfede25018e.png
p673
sg76
VMarketCurrents
p674
sg78
Ven
p675
sg80
I00
sg81
I0
sg82
VBreaking News
p676
sg84
I00
sg85
Vhttp://t.co/K8mUqhVprF
p677
sg86
VWed Jul 02 10:38:58 +0000 2008
p678
sg88
I00
sg89
VSantiago
p679
sg91
I00
sg92
I00
sg93
I00
ssg94
I00
sg95
g665
sg96
I19259
sg97
g666
sg98
g667
sg99
I00
sg100
I1035
sg101
I00
sg102
I-10800
sg103
I373320
sg104
g669
sg105
I33
sg106
g670
sg107
g671
sg108
g672
sg109
I00
sg110
I00
sg111
g668
sg112
g673
sg113
g674
sg114
g675
sg115
I00
sg116
I00
sg117
I0
sg118
g676
sg119
g677
sg120
g121
(S'\x07\xd8\x07\x02\n&:\x00\x00\x00'
p680
tp681
Rp682
sg125
g664
sg126
g679
sg127
I00
sg128
I00
sg129
I00
sbsg130
Nsg29
L664195857663655936L
sg131
I0
sg132
VSeeking Alpha
p683
sg114
Ven
p684
sg135
g644
sg120
g121
(S'\x07\xdf\x0b\n\x15(\x07\x00\x00\x00'
p685
tp686
Rp687
sg39
(dp688
g140
Nsg141
I00
sg142
g641
sg144
I00
sg145
Nsg45
L664195857663655936L
sg146
I0
sg147
V<a href="http://seekingalpha.com" rel="nofollow">Seeking Alpha</a>
p689
sg149
I00
sg150
Nsg53
(dp690
g152
(lp691
(dp692
g155
(lp693
I47
aI52
asg142
VDERM
p694
sasg158
(lp695
sg160
(lp696
sg35
(lp697
(dp698
g85
Vhttps://t.co/z81eC2I820
p699
sg155
(lp700
I23
aI46
asg166
Vhttp://seekingalpha.com/news/2918606-dermira-beats-by-0_19?source=feed_f
p701
sg168
Vseekingalpha.com/news/2918606-d\u2026
p702
sassg170
Nsg171
Nsg172
I0
sg57
V664195857663655936
p703
sg174
I00
sg175
g663
sg176
Nsg177
Nsg178
I00
sg78
g684
sg86
VTue Nov 10 21:40:07 +0000 2015
p704
sg180
Nsg181
Nsg182
(dp705
g184
Ven
p706
sg186
Vrecent
p707
sssg188
g705
sg189
Nsg190
Nsg31
g690
sg191
Nsg192
Nsg98
g703
sg193
I00
sg194
Nsg195
I0
sg196
Nsbag0
(g4
g5
Ntp708
Rp709
(dp710
g9
I00
sg10
Nsg11
I00
sg12
V$DERM:\u000a\u000aDermira Reports Third Quarter 2015 Financial Results and Provides \u2026:\u000a\u000ahttps://t.co/9EspZ9v457
p711
sg14
Vhttp://www.newsflowing.com
p712
sg16
I00
sg17
I00
sg18
Nsg19
g0
(g20
g5
Ntp713
Rp714
(dp715
g24
I00
sg25
I00
sg26
I01
sg27
VE6F6F9
p716
sg29
L2342215530L
sg30
I00
sg31
(dp717
g33
(dp718
g35
(lp719
sssg37
Vhttps://pbs.twimg.com/profile_images/544036492876591104/7QJIB-XK_normal.jpeg
p720
sg39
(dp721
g41
I00
sg42
I00
sg43
I01
sg44
I00
sg45
L2342215530L
sg46
Vhttps://abs.twimg.com/images/themes/theme17/bg.gif
p722
sg48
I00
sg49
V333333
p723
sg51
g720
sg52
g716
sg53
g717
sg54
I465
sg55
VDBE9ED
p724
sg57
V2342215530
p725
sg59
VDBE9ED
p726
sg61
I89
sg62
I00
sg63
I-14400
sg64
I193001
sg33
g65
sg66
I0
sg67
g65
sg68
VCC3366
p727
sg70
Vhttp://pbs.twimg.com/profile_images/544036492876591104/7QJIB-XK_normal.jpeg
p728
sg72
I00
sg73
I00
sg74
Vhttp://abs.twimg.com/images/themes/theme17/bg.gif
p729
sg76
Vnewswithvalue
p730
sg78
Ven
p731
sg80
I00
sg81
I0
sg82
VBreaking News Now
p732
sg84
I00
sg85
Nsg86
VThu Feb 13 16:14:12 +0000 2014
p733
sg88
I00
sg89
VAtlantic Time (Canada)
p734
sg91
I00
sg92
I00
sg93
I00
ssg94
I00
sg95
g723
sg96
I465
sg97
g724
sg98
g725
sg99
I00
sg100
I89
sg101
I00
sg102
I-14400
sg103
I193001
sg104
g65
sg105
I0
sg106
g65
sg107
g727
sg108
g728
sg109
I00
sg110
I00
sg111
g726
sg112
g729
sg113
g730
sg114
g731
sg115
I00
sg116
I00
sg117
I0
sg118
g732
sg119
Nsg120
g121
(S'\x07\xde\x02\r\x10\x0e\x0c\x00\x00\x00'
p735
tp736
Rp737
sg125
g722
sg126
g734
sg127
I00
sg128
I00
sg129
I00
sbsg130
Nsg29
L664194361069060096L
sg131
I0
sg132
VNFIG
p738
sg114
Ven
p739
sg135
g714
sg120
g121
(S'\x07\xdf\x0b\n\x15"\n\x00\x00\x00'
p740
tp741
Rp742
sg39
(dp743
g140
Nsg141
I00
sg142
V$DERM:\u000a\u000aDermira Reports Third Quarter 2015 Financial Results and Provides \u2026:\u000a\u000ahttps://t.co/9EspZ9v457
p744
sg144
I00
sg145
Nsg45
L664194361069060096L
sg146
I0
sg147
V<a href="http://www.newsflowing.com" rel="nofollow">NFIG</a>
p745
sg149
I00
sg150
Nsg53
(dp746
g152
(lp747
(dp748
g155
(lp749
I0
aI5
asg142
VDERM
p750
sasg158
(lp751
sg160
(lp752
sg35
(lp753
(dp754
g85
Vhttps://t.co/9EspZ9v457
p755
sg155
(lp756
I78
aI101
asg166
Vhttp://StockNewsHour.com/derm-dermira-reports-third-quarter-2015-financial-results-and-provides/
p757
sg168
VStockNewsHour.com/derm-dermira-r\u2026
p758
sassg170
Nsg171
Nsg172
I0
sg57
V664194361069060096
p759
sg174
I00
sg175
g721
sg176
Nsg177
Nsg178
I00
sg78
g739
sg86
VTue Nov 10 21:34:10 +0000 2015
p760
sg180
Nsg181
Nsg182
(dp761
g184
Ven
p762
sg186
Vrecent
p763
sssg188
g761
sg189
Nsg190
Nsg31
g746
sg191
Nsg192
Nsg98
g759
sg193
I00
sg194
Nsg195
I0
sg196
Nsbag0
(g4
g5
Ntp764
Rp765
(dp766
g9
I00
sg10
Nsg11
I00
sg12
VDermira Reports Third Quarter 2015 Financial Results and Provides Corporate Update $DERM https://t.co/szZjdF60Z5
p767
sg14
Vhttp://globenewswire.com
p768
sg16
I00
sg17
I00
sg18
Nsg19
g0
(g20
g5
Ntp769
Rp770
(dp771
g24
I00
sg25
I00
sg26
I01
sg27
VDDEEF6
p772
sg29
I438816954
sg30
I00
sg31
(dp773
g85
(dp774
g35
(lp775
(dp776
g85
Vhttp://t.co/wcNS0H8hwT
p777
sg155
(lp778
I0
aI22
asg166
Vhttp://globenewswire.com
p779
sg168
Vglobenewswire.com
p780
sassg33
(dp781
g35
(lp782
sssg37
Vhttps://pbs.twimg.com/profile_images/456885923221753857/TSrk7Sxb_normal.png
p783
sg39
(dp784
g41
I00
sg42
I00
sg43
I01
sg44
I00
sg45
I438816954
sg46
Vhttps://abs.twimg.com/images/themes/theme1/bg.png
p785
sg48
I00
sg49
V333333
p786
sg51
g783
sg52
g772
sg53
g773
sg54
I284
sg55
VC0DEED
p787
sg57
V438816954
p788
sg59
VC0DEED
p789
sg61
I61
sg62
I00
sg63
I-28800
sg64
I205695
sg33
VThe latest live news and press releases - directly from GlobeNewswire.
p790
sg66
I260
sg67
VGlobal
p791
sg68
V0084B4
p792
sg70
Vhttp://pbs.twimg.com/profile_images/456885923221753857/TSrk7Sxb_normal.png
p793
sg72
I00
sg73
I00
sg74
Vhttp://abs.twimg.com/images/themes/theme1/bg.png
p794
sg76
VGNWLive
p795
sg78
Ven
p796
sg80
I00
sg81
I0
sg82
VGNWLive
p797
sg84
I00
sg85
Vhttp://t.co/wcNS0H8hwT
p798
sg86
VSat Dec 17 01:58:33 +0000 2011
p799
sg88
I00
sg89
VPacific Time (US & Canada)
p800
sg91
I00
sg92
I01
sg93
I00
ssg94
I00
sg95
g786
sg96
I284
sg97
g787
sg98
g788
sg99
I00
sg100
I61
sg101
I00
sg102
I-28800
sg103
I205695
sg104
g790
sg105
I260
sg106
g791
sg107
g792
sg108
g793
sg109
I00
sg110
I00
sg111
g789
sg112
g794
sg113
g795
sg114
g796
sg115
I00
sg116
I00
sg117
I0
sg118
g797
sg119
g798
sg120
g121
(S'\x07\xdb\x0c\x11\x01:!\x00\x00\x00'
p801
tp802
Rp803
sg125
g785
sg126
g800
sg127
I00
sg128
I01
sg129
I00
sbsg130
Nsg29
L664192484688445440L
sg131
I0
sg132
VGNWLive
p804
sg114
Ven
p805
sg135
g770
sg120
g121
(S'\x07\xdf\x0b\n\x15\x1a+\x00\x00\x00'
p806
tp807
Rp808
sg39
(dp809
g140
Nsg141
I00
sg142
g767
sg144
I00
sg145
Nsg45
L664192484688445440L
sg146
I0
sg147
V<a href="http://globenewswire.com" rel="nofollow">GNWLive</a>
p810
sg149
I00
sg150
Nsg53
(dp811
g152
(lp812
(dp813
g155
(lp814
I83
aI88
asg142
VDERM
p815
sasg158
(lp816
sg160
(lp817
sg35
(lp818
(dp819
g85
Vhttps://t.co/szZjdF60Z5
p820
sg155
(lp821
I89
aI112
asg166
Vhttp://bit.ly/1MyFTlz
p822
sg168
Vbit.ly/1MyFTlz
p823
sassg170
Nsg171
Nsg172
I0
sg57
V664192484688445440
p824
sg174
I00
sg175
g784
sg176
Nsg177
Nsg178
I00
sg78
g805
sg86
VTue Nov 10 21:26:43 +0000 2015
p825
sg180
Nsg181
Nsg182
(dp826
g184
Ven
p827
sg186
Vrecent
p828
sssg188
g826
sg189
Nsg190
Nsg31
g811
sg191
Nsg192
Nsg98
g824
sg193
I00
sg194
Nsg195
I0
sg196
Nsbag0
(g4
g5
Ntp829
Rp830
(dp831
g9
I00
sg10
Nsg11
I00
sg12
V$DERM:\u000a\u000aNew Insider Transaction on DERM by 10%+ Owner:\u000a\u000ahttps://t.co/mT0s1Ic1AH
p832
sg14
Vhttp://www.stocknewswires.com
p833
sg16
I00
sg17
I00
sg18
Nsg19
g0
(g20
g5
Ntp834
Rp835
(dp836
g24
I00
sg25
I00
sg26
I01
sg27
VDAECF4
p837
sg29
L2341445778L
sg30
I00
sg31
(dp838
g33
(dp839
g35
(lp840
sssg37
Vhttps://pbs.twimg.com/profile_images/542238326397227008/UfZ0ulTf_normal.jpeg
p841
sg39
(dp842
g41
I00
sg42
I00
sg43
I01
sg44
I00
sg45
L2341445778L
sg46
Vhttps://abs.twimg.com/images/themes/theme2/bg.gif
p843
sg48
I00
sg49
V663B12
p844
sg51
g841
sg52
g837
sg53
g838
sg54
I660
sg55
VC6E2EE
p845
sg57
V2341445778
p846
sg59
VC6E2EE
p847
sg61
I107
sg62
I00
sg63
I-14400
sg64
I236872
sg33
VInvest like a fish
p848
sg66
I9
sg67
VUnited States
p849
sg68
V1F98C7
p850
sg70
Vhttp://pbs.twimg.com/profile_images/542238326397227008/UfZ0ulTf_normal.jpeg
p851
sg72
I00
sg73
I00
sg74
Vhttp://abs.twimg.com/images/themes/theme2/bg.gif
p852
sg76
VStockNewsWires
p853
sg78
Ven
p854
sg80
I00
sg81
I0
sg82
VStockNewsWires
p855
sg84
I00
sg85
Nsg86
VThu Feb 13 05:31:52 +0000 2014
p856
sg88
I00
sg89
VAtlantic Time (Canada)
p857
sg91
I00
sg92
I00
sg93
I00
ssg94
I00
sg95
g844
sg96
I660
sg97
g845
sg98
g846
sg99
I00
sg100
I107
sg101
I00
sg102
I-14400
sg103
I236872
sg104
g848
sg105
I9
sg106
g849
sg107
g850
sg108
g851
sg109
I00
sg110
I00
sg111
g847
sg112
g852
sg113
g853
sg114
g854
sg115
I00
sg116
I00
sg117
I0
sg118
g855
sg119
Nsg120
g121
(S'\x07\xde\x02\r\x05\x1f4\x00\x00\x00'
p858
tp859
Rp860
sg125
g843
sg126
g857
sg127
I00
sg128
I00
sg129
I00
sbsg130
Nsg29
L664178763362672640L
sg131
I0
sg132
VStockNewsWires
p861
sg114
Ven
p862
sg135
g835
sg120
g121
(S'\x07\xdf\x0b\n\x14 \x0b\x00\x00\x00'
p863
tp864
Rp865
sg39
(dp866
g140
Nsg141
I00
sg142
V$DERM:\u000a\u000aNew Insider Transaction on DERM by 10%+ Owner:\u000a\u000ahttps://t.co/mT0s1Ic1AH
p867
sg144
I00
sg145
Nsg45
L664178763362672640L
sg146
I0
sg147
V<a href="http://www.stocknewswires.com" rel="nofollow">StockNewsWires</a>
p868
sg149
I00
sg150
Nsg53
(dp869
g152
(lp870
(dp871
g155
(lp872
I0
aI5
asg142
VDERM
p873
sasg158
(lp874
sg160
(lp875
sg35
(lp876
(dp877
g85
Vhttps://t.co/mT0s1Ic1AH
p878
sg155
(lp879
I56
aI79
asg166
Vhttp://StockNewsHour.com/derm-new-insider-transaction-on-derm-by-10-owner/
p880
sg168
VStockNewsHour.com/derm-new-insid\u2026
p881
sassg170
Nsg171
Nsg172
I0
sg57
V664178763362672640
p882
sg174
I00
sg175
g842
sg176
Nsg177
Nsg178
I00
sg78
g862
sg86
VTue Nov 10 20:32:11 +0000 2015
p883
sg180
Nsg181
Nsg182
(dp884
g184
Ven
p885
sg186
Vrecent
p886
sssg188
g884
sg189
Nsg190
Nsg31
g869
sg191
Nsg192
Nsg98
g882
sg193
I00
sg194
Nsg195
I0
sg196
Nsbag0
(g4
g5
Ntp887
Rp888
(dp889
g9
I00
sg10
Nsg11
I00
sg12
VNEW insider transaction on $DERM reported a moment ago: https://t.co/AoNlhaxyuD
p890
sg14
Vhttp://insideri.com
p891
sg16
I00
sg17
I00
sg18
Nsg19
g0
(g20
g5
Ntp892
Rp893
(dp894
g24
I00
sg25
I00
sg26
I00
sg27
V000000
p895
sg29
L2344420430L
sg30
I00
sg31
(dp896
g33
(dp897
g35
(lp898
sssg37
Vhttps://pbs.twimg.com/profile_images/548481313670299648/XBAwS1Wn_normal.jpeg
p899
sg39
(dp900
g41
I00
sg42
I00
sg43
I00
sg44
I00
sg45
L2344420430L
sg46
Vhttps://abs.twimg.com/images/themes/theme8/bg.gif
p901
sg48
I00
sg49
V000000
p902
sg51
g899
sg52
g895
sg53
g896
sg54
I335
sg55
V000000
p903
sg57
V2344420430
p904
sg59
V000000
p905
sg61
I23
sg62
I00
sg63
I-18000
sg64
I57351
sg33
VFollow stock purchases and sales by insiders
p906
sg66
I0
sg67
VUnited States
p907
sg68
V9266CC
p908
sg70
Vhttp://pbs.twimg.com/profile_images/548481313670299648/XBAwS1Wn_normal.jpeg
p909
sg72
I00
sg73
I00
sg74
Vhttp://abs.twimg.com/images/themes/theme8/bg.gif
p910
sg76
VInsiderAlertsIA
p911
sg78
Ven
p912
sg80
I00
sg81
I0
sg82
VInsider Alerts
p913
sg84
I00
sg85
Nsg86
VSat Feb 15 02:29:07 +0000 2014
p914
sg88
I00
sg89
VEastern Time (US & Canada)
p915
sg91
I00
sg92
I00
sg93
I00
ssg94
I00
sg95
g902
sg96
I335
sg97
g903
sg98
g904
sg99
I00
sg100
I23
sg101
I00
sg102
I-18000
sg103
I57351
sg104
g906
sg105
I0
sg106
g907
sg107
g908
sg108
g909
sg109
I00
sg110
I00
sg111
g905
sg112
g910
sg113
g911
sg114
g912
sg115
I00
sg116
I00
sg117
I0
sg118
g913
sg119
Nsg120
g121
(S'\x07\xde\x02\x0f\x02\x1d\x07\x00\x00\x00'
p916
tp917
Rp918
sg125
g901
sg126
g915
sg127
I00
sg128
I00
sg129
I00
sbsg130
Nsg29
L664178543144865792L
sg131
I0
sg132
VInsider Alerts
p919
sg114
Ven
p920
sg135
g893
sg120
g121
(S'\x07\xdf\x0b\n\x14\x1f\x13\x00\x00\x00'
p921
tp922
Rp923
sg39
(dp924
g140
Nsg141
I00
sg142
g890
sg144
I00
sg145
Nsg45
L664178543144865792L
sg146
I0
sg147
V<a href="http://insideri.com" rel="nofollow">Insider Alerts</a>
p925
sg149
I00
sg150
Nsg53
(dp926
g152
(lp927
(dp928
g155
(lp929
I27
aI32
asg142
VDERM
p930
sasg158
(lp931
sg160
(lp932
sg35
(lp933
(dp934
g85
Vhttps://t.co/AoNlhaxyuD
p935
sg155
(lp936
I56
aI79
asg166
Vhttp://insideri.com/1557883_000089924315007860_0000899243-15-007860
p937
sg168
Vinsideri.com/1557883_000089\u2026
p938
sassg170
Nsg171
Nsg172
I0
sg57
V664178543144865792
p939
sg174
I00
sg175
g900
sg176
Nsg177
Nsg178
I00
sg78
g920
sg86
VTue Nov 10 20:31:19 +0000 2015
p940
sg180
Nsg181
Nsg182
(dp941
g184
Ven
p942
sg186
Vrecent
p943
sssg188
g941
sg189
Nsg190
Nsg31
g926
sg191
Nsg192
Nsg98
g939
sg193
I00
sg194
Nsg195
I0
sg196
Nsbag0
(g4
g5
Ntp944
Rp945
(dp946
g9
I00
sg10
Nsg11
I00
sg12
VDermira Stock Price Down 4.5% $DERM https://t.co/mnoRvOBQJd
p947
sg14
Vhttp://ifttt.com
p948
sg16
I00
sg17
I00
sg18
Nsg19
g0
(g20
g5
Ntp949
Rp950
(dp951
g24
I00
sg25
I00
sg26
I01
sg27
VEFEFEF
p952
sg29
I1979190776
sg30
I00
sg31
(dp953
g33
(dp954
g35
(lp955
sssg37
Vhttps://pbs.twimg.com/profile_images/378800000629011324/02a58ce4852fa2c0b053a8853393c35c_normal.png
p956
sg39
(dp957
g41
I00
sg42
I00
sg43
I01
sg44
I00
sg45
I1979190776
sg46
Vhttps://abs.twimg.com/images/themes/theme14/bg.gif
p958
sg48
I00
sg49
V333333
p959
sg51
g956
sg52
g952
sg53
g953
sg54
I780
sg55
VEEEEEE
p960
sg57
V1979190776
p961
sg59
V131516
p962
sg61
I83
sg62
I00
sg63
Nsg64
I347263
sg33
VMarket moving news
p963
sg66
I11
sg67
VVirginia
p964
sg68
V009999
p965
sg70
Vhttp://pbs.twimg.com/profile_images/378800000629011324/02a58ce4852fa2c0b053a8853393c35c_normal.png
p966
sg72
I00
sg73
I00
sg74
Vhttp://abs.twimg.com/images/themes/theme14/bg.gif
p967
sg76
VTickerReport
p968
sg78
Ven
p969
sg80
I01
sg81
I0
sg82
VTicker Report
p970
sg84
I00
sg85
Nsg86
VMon Oct 21 15:58:27 +0000 2013
p971
sg88
I00
sg89
Nsg91
I00
sg92
I00
sg93
I00
ssg94
I00
sg95
g959
sg96
I780
sg97
g960
sg98
g961
sg99
I00
sg100
I83
sg101
I00
sg102
Nsg103
I347263
sg104
g963
sg105
I11
sg106
g964
sg107
g965
sg108
g966
sg109
I00
sg110
I00
sg111
g962
sg112
g967
sg113
g968
sg114
g969
sg115
I00
sg116
I01
sg117
I0
sg118
g970
sg119
Nsg120
g121
(S'\x07\xdd\n\x15\x0f:\x1b\x00\x00\x00'
p972
tp973
Rp974
sg125
g958
sg126
Nsg127
I00
sg128
I00
sg129
I00
sbsg130
Nsg29
L664063826598449152L
sg131
I0
sg132
VIFTTT
p975
sg114
Ven
p976
sg135
g950
sg120
g121
(S'\x07\xdf\x0b\n\x0c7\x1c\x00\x00\x00'
p977
tp978
Rp979
sg39
(dp980
g140
Nsg141
I00
sg142
g947
sg144
I00
sg145
Nsg45
L664063826598449152L
sg146
I0
sg147
V<a href="http://ifttt.com" rel="nofollow">IFTTT</a>
p981
sg149
I00
sg150
Nsg53
(dp982
g152
(lp983
(dp984
g155
(lp985
I30
aI35
asg142
VDERM
p986
sasg158
(lp987
sg160
(lp988
sg35
(lp989
(dp990
g85
Vhttps://t.co/mnoRvOBQJd
p991
sg155
(lp992
I36
aI59
asg166
Vhttp://ift.tt/1NHdquQ
p993
sg168
Vift.tt/1NHdquQ
p994
sassg170
Nsg171
Nsg172
I0
sg57
V664063826598449152
p995
sg174
I00
sg175
g957
sg176
Nsg177
Nsg178
I00
sg78
g976
sg86
VTue Nov 10 12:55:28 +0000 2015
p996
sg180
Nsg181
Nsg182
(dp997
g184
Ven
p998
sg186
Vrecent
p999
sssg188
g997
sg189
Nsg190
Nsg31
g982
sg191
Nsg192
Nsg98
g995
sg193
I00
sg194
Nsg195
I0
sg196
Nsbag0
(g4
g5
Ntp1000
Rp1001
(dp1002
g9
I00
sg10
Nsg11
I00
sg12
VDermira Stock Price Down 4.5% $DERM https://t.co/XfNx3K53gG
p1003
sg14
Vhttp://ifttt.com
p1004
sg16
I00
sg17
I00
sg18
Nsg19
g0
(g20
g5
Ntp1005
Rp1006
(dp1007
g24
I00
sg25
I00
sg26
I01
sg27
VCCDAFF
p1008
sg29
I61661638
sg30
I00
sg31
(dp1009
g85
(dp1010
g35
(lp1011
(dp1012
g85
Vhttp://t.co/7EZswS49Q1
p1013
sg155
(lp1014
I0
aI22
asg166
Vhttp://www.americanbankingnews.com/
p1015
sg168
Vamericanbankingnews.com
p1016
sassg33
(dp1017
g35
(lp1018
sssg37
Vhttps://pbs.twimg.com/profile_images/541252987/Image5_normal.jpg
p1019
sg39
(dp1020
g41
I00
sg42
I00
sg43
I01
sg44
I00
sg45
I61661638
sg46
Vhttps://pbs.twimg.com/profile_background_images/55647305/background.png
p1021
sg48
I00
sg49
V141414
p1022
sg51
g1019
sg52
g1008
sg53
g1009
sg54
I5557
sg55
VABB1D9
p1023
sg57
V61661638
p1024
sg59
V000000
p1025
sg61
I469
sg62
I00
sg63
I-21600
sg64
I693975
sg33
VBanks, Credit Unions & Financial Institutions
p1026
sg66
I2307
sg67
VSioux Falls, SD
p1027
sg68
VA60000
p1028
sg70
Vhttp://pbs.twimg.com/profile_images/541252987/Image5_normal.jpg
p1029
sg72
I00
sg73
I00
sg74
Vhttp://pbs.twimg.com/profile_background_images/55647305/background.png
p1030
sg76
VAmericanBanking
p1031
sg78
Ven
p1032
sg80
I01
sg81
I0
sg82
VUS Banking News
p1033
sg84
I00
sg85
Vhttp://t.co/7EZswS49Q1
p1034
sg86
VFri Jul 31 01:58:33 +0000 2009
p1035
sg88
I00
sg89
VCentral Time (US & Canada)
p1036
sg91
I00
sg92
I00
sg93
I00
ssg94
I00
sg95
g1022
sg96
I5557
sg97
g1023
sg98
g1024
sg99
I00
sg100
I469
sg101
I00
sg102
I-21600
sg103
I693975
sg104
g1026
sg105
I2307
sg106
g1027
sg107
g1028
sg108
g1029
sg109
I00
sg110
I00
sg111
g1025
sg112
g1030
sg113
g1031
sg114
g1032
sg115
I00
sg116
I01
sg117
I0
sg118
g1033
sg119
g1034
sg120
g121
(S'\x07\xd9\x07\x1f\x01:!\x00\x00\x00'
p1037
tp1038
Rp1039
sg125
g1021
sg126
g1036
sg127
I00
sg128
I00
sg129
I00
sbsg130
Nsg29
L664063606959534080L
sg131
I0
sg132
VIFTTT
p1040
sg114
Ven
p1041
sg135
g1006
sg120
g121
(S'\x07\xdf\x0b\n\x0c6$\x00\x00\x00'
p1042
tp1043
Rp1044
sg39
(dp1045
g140
Nsg141
I00
sg142
g1003
sg144
I00
sg145
Nsg45
L664063606959534080L
sg146
I0
sg147
V<a href="http://ifttt.com" rel="nofollow">IFTTT</a>
p1046
sg149
I00
sg150
Nsg53
(dp1047
g152
(lp1048
(dp1049
g155
(lp1050
I30
aI35
asg142
VDERM
p1051
sasg158
(lp1052
sg160
(lp1053
sg35
(lp1054
(dp1055
g85
Vhttps://t.co/XfNx3K53gG
p1056
sg155
(lp1057
I36
aI59
asg166
Vhttp://ift.tt/1NHdquQ
p1058
sg168
Vift.tt/1NHdquQ
p1059
sassg170
Nsg171
Nsg172
I0
sg57
V664063606959534080
p1060
sg174
I00
sg175
g1020
sg176
Nsg177
Nsg178
I00
sg78
g1041
sg86
VTue Nov 10 12:54:36 +0000 2015
p1061
sg180
Nsg181
Nsg182
(dp1062
g184
Ven
p1063
sg186
Vrecent
p1064
sssg188
g1062
sg189
Nsg190
Nsg31
g1047
sg191
Nsg192
Nsg98
g1060
sg193
I00
sg194
Nsg195
I0
sg196
Nsbag0
(g4
g5
Ntp1065
Rp1066
(dp1067
g9
I00
sg10
Nsg11
I00
sg12
V$130960.KQ $078340.KQ $LCAM3.SA $CNFR $CDH.TO $COVS $CL.V $CRES.BA $CRN.TO $CYRX $2891.TW $KUB.V $DHI $DTRK $DCC.L $DERM $DWNI.DE $DCIX
p1068
sg14
Vhttps://twitter.com/USEarningsCal
p1069
sg17
I00
sg18
Nsg19
g0
(g20
g5
Ntp1070
Rp1071
(dp1072
g24
I00
sg25
I01
sg26
I00
sg27
V000000
p1073
sg29
L3272603407L
sg30
I00
sg31
(dp1074
g33
(dp1075
g35
(lp1076
sssg37
Vhttps://pbs.twimg.com/profile_images/621905731336323072/M63p67Ym_normal.jpg
p1077
sg39
(dp1078
g41
I00
sg42
I01
sg43
I00
sg44
I00
sg45
L3272603407L
sg46
Vhttps://abs.twimg.com/images/themes/theme1/bg.png
p1079
sg48
I00
sg49
V000000
p1080
sg51
g1077
sg52
g1073
sg53
g1074
sg54
I20
sg55
V000000
p1081
sg57
V3272603407
p1082
sg59
V000000
p1083
sg61
I4
sg62
I00
sg63
Nsg64
I436
sg33
VU.S. Earnings
p1084
sg66
I2
sg67
VUnited States
p1085
sg68
V4A913C
p1086
sg70
Vhttp://pbs.twimg.com/profile_images/621905731336323072/M63p67Ym_normal.jpg
p1087
sg72
I00
sg73
I00
sg532
Vhttps://pbs.twimg.com/profile_banners/3272603407/1437108798
p1088
sg74
Vhttp://abs.twimg.com/images/themes/theme1/bg.png
p1089
sg76
VUSEarningsCal
p1090
sg78
Ven
p1091
sg80
I00
sg81
I0
sg82
VUS Earnings Calendar
p1092
sg84
I00
sg85
Nsg86
VThu Jul 09 04:45:59 +0000 2015
p1093
sg88
I00
sg89
Nsg91
I00
sg92
I00
sg93
I00
ssg94
I00
sg95
g1080
sg96
I20
sg97
g1081
sg98
g1082
sg99
I00
sg100
I4
sg101
I00
sg102
Nsg103
I436
sg104
g1084
sg105
I2
sg106
g1085
sg107
g1086
sg108
g1087
sg109
I00
sg110
I00
sg111
g1083
sg540
g1088
sg112
g1089
sg113
g1090
sg114
g1091
sg115
I00
sg116
I00
sg117
I0
sg118
g1092
sg119
Nsg120
g121
(S'\x07\xdf\x07\t\x04-;\x00\x00\x00'
p1094
tp1095
Rp1096
sg125
g1079
sg126
Nsg127
I00
sg128
I00
sg129
I00
sbsg130
Nsg29
L663883783565787137L
sg131
I0
sg132
VUS Earnings Cal
p1097
sg114
Vin
p1098
sg135
g1071
sg120
g121
(S'\x07\xdf\x0b\n\x01\x00\x03\x00\x00\x00'
p1099
tp1100
Rp1101
sg39
(dp1102
g140
Nsg141
I00
sg142
g1068
sg144
I00
sg145
Nsg45
L663883783565787137L
sg146
I0
sg147
V<a href="https://twitter.com/USEarningsCal" rel="nofollow">US Earnings Cal</a>
p1103
sg149
I00
sg150
Nsg53
(dp1104
g152
(lp1105
(dp1106
g155
(lp1107
I32
aI37
asg142
VCNFR
p1108
sa(dp1109
g155
(lp1110
I38
aI45
asg142
VCDH.TO
p1111
sa(dp1112
g155
(lp1113
I46
aI51
asg142
VCOVS
p1114
sa(dp1115
g155
(lp1116
I52
aI57
asg142
VCL.V
p1117
sa(dp1118
g155
(lp1119
I58
aI66
asg142
VCRES.BA
p1120
sa(dp1121
g155
(lp1122
I67
aI74
asg142
VCRN.TO
p1123
sa(dp1124
g155
(lp1125
I75
aI80
asg142
VCYRX
p1126
sa(dp1127
g155
(lp1128
I90
aI96
asg142
VKUB.V
p1129
sa(dp1130
g155
(lp1131
I97
aI101
asg142
VDHI
p1132
sa(dp1133
g155
(lp1134
I102
aI107
asg142
VDTRK
p1135
sa(dp1136
g155
(lp1137
I108
aI114
asg142
VDCC.L
p1138
sa(dp1139
g155
(lp1140
I115
aI120
asg142
VDERM
p1141
sa(dp1142
g155
(lp1143
I121
aI129
asg142
VDWNI.DE
p1144
sa(dp1145
g155
(lp1146
I130
aI135
asg142
VDCIX
p1147
sasg158
(lp1148
sg160
(lp1149
sg35
(lp1150
ssg170
Nsg171
Nsg172
I0
sg57
V663883783565787137
p1151
sg174
I00
sg175
g1078
sg176
Nsg177
Nsg78
g1098
sg86
VTue Nov 10 01:00:03 +0000 2015
p1152
sg180
Nsg181
Nsg182
(dp1153
g184
Vin
p1154
sg186
Vrecent
p1155
sssg188
g1153
sg189
Nsg190
Nsg31
g1104
sg191
Nsg192
Nsg98
g1151
sg193
I00
sg194
Nsg195
I0
sg196
Nsbag0
(g4
g5
Ntp1156
Rp1157
(dp1158
g9
I00
sg10
Nsg11
I00
sg12
VDermira $DERM Set to Announce Quarterly Earnings on Tuesday https://t.co/yjy17QBlpY #acn
p1159
sg14
Vhttp://ifttt.com
p1160
sg16
I00
sg17
I00
sg18
Nsg19
g0
(g20
g5
Ntp1161
Rp1162
(dp1163
g24
I00
sg25
I00
sg26
I01
sg27
VE8E8E8
p1164
sg29
I52210566
sg30
I00
sg31
(dp1165
g85
(dp1166
g35
(lp1167
(dp1168
g85
Vhttp://t.co/odTc3pvcAe
p1169
sg155
(lp1170
I0
aI22
asg166
Vhttp://www.americanconsumernews.com/
p1171
sg168
Vamericanconsumernews.com
p1172
sassg33
(dp1173
g35
(lp1174
sssg37
Vhttps://pbs.twimg.com/profile_images/289298274/text_normal.jpg
p1175
sg39
(dp1176
g41
I00
sg42
I00
sg43
I01
sg44
I00
sg45
I52210566
sg46
Vhttps://pbs.twimg.com/profile_background_images/20558354/back.jpg
p1177
sg48
I00
sg49
V333333
p1178
sg51
g1175
sg52
g1164
sg53
g1165
sg54
I1114
sg55
VADADAD
p1179
sg57
V52210566
p1180
sg59
V9AE4E8
p1181
sg61
I96
sg62
I00
sg63
I-21600
sg64
I580839
sg33
VPersonal Finance and Consumer Tips
p1182
sg66
I1412
sg67
VSioux Falls, SD
p1183
sg68
V0084B4
p1184
sg70
Vhttp://pbs.twimg.com/profile_images/289298274/text_normal.jpg
p1185
sg72
I00
sg73
I00
sg74
Vhttp://pbs.twimg.com/profile_background_images/20558354/back.jpg
p1186
sg76
VAmConsumerNews
p1187
sg78
Ven
p1188
sg80
I00
sg81
I0
sg82
VConsumer News
p1189
sg84
I00
sg85
Vhttp://t.co/odTc3pvcAe
p1190
sg86
VMon Jun 29 22:22:08 +0000 2009
p1191
sg88
I00
sg89
VCentral Time (US & Canada)
p1192
sg91
I00
sg92
I00
sg93
I00
ssg94
I00
sg95
g1178
sg96
I1114
sg97
g1179
sg98
g1180
sg99
I00
sg100
I96
sg101
I00
sg102
I-21600
sg103
I580839
sg104
g1182
sg105
I1412
sg106
g1183
sg107
g1184
sg108
g1185
sg109
I00
sg110
I00
sg111
g1181
sg112
g1186
sg113
g1187
sg114
g1188
sg115
I00
sg116
I00
sg117
I0
sg118
g1189
sg119
g1190
sg120
g121
(S'\x07\xd9\x06\x1d\x16\x16\x08\x00\x00\x00'
p1193
tp1194
Rp1195
sg125
g1177
sg126
g1192
sg127
I00
sg128
I00
sg129
I00
sbsg130
Nsg29
L663790383965544448L
sg131
I0
sg132
VIFTTT
p1196
sg114
Ven
p1197
sg135
g1162
sg120
g121
(S'\x07\xdf\x0b\t\x1206\x00\x00\x00'
p1198
tp1199
Rp1200
sg39
(dp1201
g140
Nsg141
I00
sg142
g1159
sg144
I00
sg145
Nsg45
L663790383965544448L
sg146
I0
sg147
V<a href="http://ifttt.com" rel="nofollow">IFTTT</a>
p1202
sg149
I00
sg150
Nsg53
(dp1203
g152
(lp1204
(dp1205
g155
(lp1206
I8
aI13
asg142
VDERM
p1207
sasg158
(lp1208
sg160
(lp1209
(dp1210
g155
(lp1211
I84
aI88
asg142
Vacn
p1212
sasg35
(lp1213
(dp1214
g85
Vhttps://t.co/yjy17QBlpY
p1215
sg155
(lp1216
I60
aI83
asg166
Vhttp://ift.tt/1WMGjq2
p1217
sg168
Vift.tt/1WMGjq2
p1218
sassg170
Nsg171
Nsg172
I0
sg57
V663790383965544448
p1219
sg174
I00
sg175
g1176
sg176
Nsg177
Nsg178
I00
sg78
g1197
sg86
VMon Nov 09 18:48:54 +0000 2015
p1220
sg180
Nsg181
Nsg182
(dp1221
g184
Ven
p1222
sg186
Vrecent
p1223
sssg188
g1221
sg189
Nsg190
Nsg31
g1203
sg191
Nsg192
Nsg98
g1219
sg193
I00
sg194
Nsg195
I0
sg196
Nsbag0
(g4
g5
Ntp1224
Rp1225
(dp1226
g9
I00
sg10
Nsg11
I00
sg12
VIPOs and Transactions: Nov 2 \u2013 6 $AWGI $AXGN $BCYP $BKYM $DERM $DRRX $DTRM $FIT $GBSN FULL LIST &gt; https://t.co/rA4wJqd8H7
p1227
sg14
Vhttps://about.twitter.com/products/tweetdeck
p1228
sg16
I00
sg17
I00
sg18
Nsg19
g0
(g20
g5
Ntp1229
Rp1230
(dp1231
g24
I00
sg25
I00
sg26
I01
sg27
VDDFFCC
p1232
sg29
I314768563
sg30
I00
sg31
(dp1233
g85
(dp1234
g35
(lp1235
(dp1236
g85
Vhttp://t.co/8U4rY7pFVr
p1237
sg155
(lp1238
I0
aI22
asg166
Vhttp://www.virtualinvestorconferences.com
p1239
sg168
Vvirtualinvestorconferences.com
p1240
sassg33
(dp1241
g35
(lp1242
sssg37
Vhttps://pbs.twimg.com/profile_images/1471602334/ART_opportunities_normal.gif
p1243
sg39
(dp1244
g41
I00
sg42
I00
sg43
I01
sg44
I00
sg45
I314768563
sg46
Vhttps://abs.twimg.com/images/themes/theme16/bg.gif
p1245
sg48
I00
sg49
V333333
p1246
sg51
g1243
sg52
g1232
sg53
g1233
sg54
I6281
sg55
VBDDCAD
p1247
sg57
V314768563
p1248
sg59
V9AE4E8
p1249
sg61
I89
sg62
I00
sg63
Nsg64
I8494
sg33
VLIVE webcasts, each month, of CEOs at #OTC, #NASDAQ & #NYSE and an occasional #pennystock. Real-time Q&A. Free to listen \u2013 we even give away a Kindleeach month!
p1250
sg66
I2538
sg67
VVirtual Conferences Webcasts
p1251
sg68
V0084B4
p1252
sg70
Vhttp://pbs.twimg.com/profile_images/1471602334/ART_opportunities_normal.gif
p1253
sg72
I00
sg73
I00
sg74
Vhttp://abs.twimg.com/images/themes/theme16/bg.gif
p1254
sg76
VRIConferences
p1255
sg78
Ven
p1256
sg80
I00
sg81
I0
sg82
VVirtualInvestorConf.
p1257
sg84
I00
sg85
Vhttp://t.co/8U4rY7pFVr
p1258
sg86
VFri Jun 10 19:40:46 +0000 2011
p1259
sg88
I00
sg89
Nsg91
I00
sg92
I00
sg93
I00
ssg94
I00
sg95
g1246
sg96
I6281
sg97
g1247
sg98
g1248
sg99
I00
sg100
I89
sg101
I00
sg102
Nsg103
I8494
sg104
g1250
sg105
I2538
sg106
g1251
sg107
g1252
sg108
g1253
sg109
I00
sg110
I00
sg111
g1249
sg112
g1254
sg113
g1255
sg114
g1256
sg115
I00
sg116
I00
sg117
I0
sg118
g1257
sg119
g1258
sg120
g121
(S'\x07\xdb\x06\n\x13(.\x00\x00\x00'
p1260
tp1261
Rp1262
sg125
g1245
sg126
Nsg127
I00
sg128
I00
sg129
I00
sbsg130
Nsg29
L663745163295084544L
sg131
I0
sg132
VTweetDeck
p1263
sg114
Ven
p1264
sg135
g1230
sg120
g121
(S'\x07\xdf\x0b\t\x0f1\r\x00\x00\x00'
p1265
tp1266
Rp1267
sg39
(dp1268
g140
Nsg141
I00
sg142
g1227
sg144
I00
sg145
Nsg45
L663745163295084544L
sg146
I0
sg147
V<a href="https://about.twitter.com/products/tweetdeck" rel="nofollow">TweetDeck</a>
p1269
sg149
I00
sg150
Nsg53
(dp1270
g152
(lp1271
(dp1272
g155
(lp1273
I33
aI38
asg142
VAWGI
p1274
sa(dp1275
g155
(lp1276
I39
aI44
asg142
VAXGN
p1277
sa(dp1278
g155
(lp1279
I45
aI50
asg142
VBCYP
p1280
sa(dp1281
g155
(lp1282
I51
aI56
asg142
VBKYM
p1283
sa(dp1284
g155
(lp1285
I57
aI62
asg142
VDERM
p1286
sa(dp1287
g155
(lp1288
I63
aI68
asg142
VDRRX
p1289
sa(dp1290
g155
(lp1291
I69
aI74
asg142
VDTRM
p1292
sa(dp1293
g155
(lp1294
I75
aI79
asg142
VFIT
p1295
sa(dp1296
g155
(lp1297
I80
aI85
asg142
VGBSN
p1298
sasg158
(lp1299
sg160
(lp1300
sg35
(lp1301
(dp1302
g85
Vhttps://t.co/rA4wJqd8H7
p1303
sg155
(lp1304
I101
aI124
asg166
Vhttp://bit.ly/1WIGsQx
p1305
sg168
Vbit.ly/1WIGsQx
p1306
sassg170
Nsg171
Nsg172
I0
sg57
V663745163295084544
p1307
sg174
I00
sg175
g1244
sg176
Nsg177
Nsg178
I00
sg78
g1264
sg86
VMon Nov 09 15:49:13 +0000 2015
p1308
sg180
Nsg181
Nsg182
(dp1309
g184
Ven
p1310
sg186
Vrecent
p1311
sssg188
g1309
sg189
Nsg190
Nsg31
g1270
sg191
Nsg192
Nsg98
g1307
sg193
I00
sg194
Nsg195
I0
sg196
Nsbag0
(g4
g5
Ntp1312
Rp1313
(dp1314
g9
I00
sg10
Nsg11
I00
sg12
VThe Most Accurate Stock Alert Service Made $240,000 Yesterday https://t.co/8WvnrVmkBS .. $IRIX $SMCI $DERM
p1315
sg14
Vhttp://socialadcenter.com
p1316
sg16
I00
sg17
I00
sg18
Nsg19
g0
(g20
g5
Ntp1317
Rp1318
(dp1319
g24
I00
sg25
I00
sg26
I01
sg27
VDDEEF6
p1320
sg29
L2730855593L
sg30
I00
sg31
(dp1321
g85
(dp1322
g35
(lp1323
(dp1324
g85
Vhttp://t.co/UWzH8kOOl9
p1325
sg155
(lp1326
I0
aI22
asg166
Vhttp://PennyStockSecret.com
p1327
sg168
VPennyStockSecret.com
p1328
sassg33
(dp1329
g35
(lp1330
(dp1331
g85
Vhttp://t.co/UWzH8kOOl9
p1332
sg155
(lp1333
I11
aI33
asg166
Vhttp://PennyStockSecret.com
p1334
sg168
VPennyStockSecret.com
p1335
sasssg37
Vhttps://pbs.twimg.com/profile_images/573247485616889856/gHAtYS9O_normal.png
p1336
sg39
(dp1337
g41
I00
sg42
I00
sg43
I01
sg44
I00
sg45
L2730855593L
sg46
Vhttps://abs.twimg.com/images/themes/theme1/bg.png
p1338
sg48
I00
sg49
V333333
p1339
sg51
g1336
sg52
g1320
sg53
g1321
sg54
I2515
sg55
VC0DEED
p1340
sg57
V2730855593
p1341
sg59
VC0DEED
p1342
sg61
I25
sg62
I00
sg63
I0
sg64
I53231
sg33
VSign up to http://t.co/UWzH8kOOl9  and get the premiere penny stock newsletter for free! make sure you subscribe today!
p1343
sg66
I9
sg67
VUSA
p1344
sg68
V0084B4
p1345
sg70
Vhttp://pbs.twimg.com/profile_images/573247485616889856/gHAtYS9O_normal.png
p1346
sg72
I00
sg73
I00
sg532
Vhttps://pbs.twimg.com/profile_banners/2730855593/1425507876
p1347
sg74
Vhttp://abs.twimg.com/images/themes/theme1/bg.png
p1348
sg76
Vstockschamp
p1349
sg78
Ven
p1350
sg80
I00
sg81
I0
sg82
Vstockschamp
p1351
sg84
I00
sg85
Vhttp://t.co/UWzH8kOOl9
p1352
sg86
VFri Aug 01 16:39:24 +0000 2014
p1353
sg88
I00
sg89
VDublin
p1354
sg91
I00
sg92
I01
sg93
I00
ssg94
I00
sg95
g1339
sg96
I2515
sg97
g1340
sg98
g1341
sg99
I00
sg100
I25
sg101
I00
sg102
I0
sg103
I53231
sg104
g1343
sg105
I9
sg106
g1344
sg107
g1345
sg108
g1346
sg109
I00
sg110
I00
sg111
g1342
sg540
g1347
sg112
g1348
sg113
g1349
sg114
g1350
sg115
I00
sg116
I00
sg117
I0
sg118
g1351
sg119
g1352
sg120
g121
(S"\x07\xde\x08\x01\x10'\x18\x00\x00\x00"
p1355
tp1356
Rp1357
sg125
g1338
sg126
g1354
sg127
I00
sg128
I01
sg129
I00
sbsg130
Nsg29
L663625760880496640L
sg131
I0
sg132
VSocial Ad Center
p1358
sg114
Ven
p1359
sg135
g1318
sg120
g121
(S'\x07\xdf\x0b\t\x076-\x00\x00\x00'
p1360
tp1361
Rp1362
sg39
(dp1363
g140
Nsg141
I00
sg142
g1315
sg144
I00
sg145
Nsg45
L663625760880496640L
sg146
I0
sg147
V<a href="http://socialadcenter.com" rel="nofollow">Social Ad Center</a>
p1364
sg149
I00
sg150
Nsg53
(dp1365
g152
(lp1366
(dp1367
g155
(lp1368
I89
aI94
asg142
VIRIX
p1369
sa(dp1370
g155
(lp1371
I95
aI100
asg142
VSMCI
p1372
sa(dp1373
g155
(lp1374
I101
aI106
asg142
VDERM
p1375
sasg158
(lp1376
sg160
(lp1377
sg35
(lp1378
(dp1379
g85
Vhttps://t.co/8WvnrVmkBS
p1380
sg155
(lp1381
I62
aI85
asg166
Vhttp://PennyStockSecret.com
p1382
sg168
VPennyStockSecret.com
p1383
sassg170
Nsg171
Nsg172
I0
sg57
V663625760880496640
p1384
sg174
I00
sg175
g1337
sg176
Nsg177
Nsg178
I00
sg78
g1359
sg86
VMon Nov 09 07:54:45 +0000 2015
p1385
sg180
Nsg181
Nsg182
(dp1386
g184
Ven
p1387
sg186
Vrecent
p1388
sssg188
g1386
sg189
Nsg190
Nsg31
g1365
sg191
Nsg192
Nsg98
g1384
sg193
I00
sg194
Nsg195
I0
sg196
Nsbag0
(g4
g5
Ntp1389
Rp1390
(dp1391
g9
I00
sg10
Nsg11
I00
sg12
VDermira to release earnings on Tuesday. Analysts expect -0.77 EPS.  $DERM https://t.co/A58UHh55U6
p1392
sg14
Vhttp://ifttt.com
p1393
sg16
I00
sg17
I00
sg18
Nsg19
g0
(g20
g5
Ntp1394
Rp1395
(dp1396
g24
I00
sg25
I00
sg26
I01
sg27
VCCDAFF
p1397
sg29
I61661638
sg30
I00
sg31
(dp1398
g85
(dp1399
g35
(lp1400
(dp1401
g85
Vhttp://t.co/7EZswS49Q1
p1402
sg155
(lp1403
I0
aI22
asg166
Vhttp://www.americanbankingnews.com/
p1404
sg168
Vamericanbankingnews.com
p1405
sassg33
(dp1406
g35
(lp1407
sssg37
Vhttps://pbs.twimg.com/profile_images/541252987/Image5_normal.jpg
p1408
sg39
(dp1409
g41
I00
sg42
I00
sg43
I01
sg44
I00
sg45
I61661638
sg46
Vhttps://pbs.twimg.com/profile_background_images/55647305/background.png
p1410
sg48
I00
sg49
V141414
p1411
sg51
g1408
sg52
g1397
sg53
g1398
sg54
I5557
sg55
VABB1D9
p1412
sg57
V61661638
p1413
sg59
V000000
p1414
sg61
I469
sg62
I00
sg63
I-21600
sg64
I693975
sg33
VBanks, Credit Unions & Financial Institutions
p1415
sg66
I2307
sg67
VSioux Falls, SD
p1416
sg68
VA60000
p1417
sg70
Vhttp://pbs.twimg.com/profile_images/541252987/Image5_normal.jpg
p1418
sg72
I00
sg73
I00
sg74
Vhttp://pbs.twimg.com/profile_background_images/55647305/background.png
p1419
sg76
VAmericanBanking
p1420
sg78
Ven
p1421
sg80
I01
sg81
I0
sg82
VUS Banking News
p1422
sg84
I00
sg85
Vhttp://t.co/7EZswS49Q1
p1423
sg86
VFri Jul 31 01:58:33 +0000 2009
p1424
sg88
I00
sg89
VCentral Time (US & Canada)
p1425
sg91
I00
sg92
I00
sg93
I00
ssg94
I00
sg95
g1411
sg96
I5557
sg97
g1412
sg98
g1413
sg99
I00
sg100
I469
sg101
I00
sg102
I-21600
sg103
I693975
sg104
g1415
sg105
I2307
sg106
g1416
sg107
g1417
sg108
g1418
sg109
I00
sg110
I00
sg111
g1414
sg112
g1419
sg113
g1420
sg114
g1421
sg115
I00
sg116
I01
sg117
I0
sg118
g1422
sg119
g1423
sg120
g121
(S'\x07\xd9\x07\x1f\x01:!\x00\x00\x00'
p1426
tp1427
Rp1428
sg125
g1410
sg126
g1425
sg127
I00
sg128
I00
sg129
I00
sbsg130
Nsg29
L663599988270833664L
sg131
I0
sg132
VIFTTT
p1429
sg114
Ven
p1430
sg135
g1395
sg120
g121
(S'\x07\xdf\x0b\t\x06\x0c\x14\x00\x00\x00'
p1431
tp1432
Rp1433
sg39
(dp1434
g140
Nsg141
I00
sg142
g1392
sg144
I00
sg145
Nsg45
L663599988270833664L
sg146
I0
sg147
V<a href="http://ifttt.com" rel="nofollow">IFTTT</a>
p1435
sg149
I00
sg150
Nsg53
(dp1436
g152
(lp1437
(dp1438
g155
(lp1439
I68
aI73
asg142
VDERM
p1440
sasg158
(lp1441
sg160
(lp1442
sg35
(lp1443
(dp1444
g85
Vhttps://t.co/A58UHh55U6
p1445
sg155
(lp1446
I74
aI97
asg166
Vhttp://ift.tt/1HpcmdG
p1447
sg168
Vift.tt/1HpcmdG
p1448
sassg170
Nsg171
Nsg172
I0
sg57
V663599988270833664
p1449
sg174
I00
sg175
g1409
sg176
Nsg177
Nsg178
I00
sg78
g1430
sg86
VMon Nov 09 06:12:20 +0000 2015
p1450
sg180
Nsg181
Nsg182
(dp1451
g184
Ven
p1452
sg186
Vrecent
p1453
sssg188
g1451
sg189
Nsg190
Nsg31
g1436
sg191
Nsg192
Nsg98
g1449
sg193
I00
sg194
Nsg195
I0
sg196
Nsbag0
(g4
g5
Ntp1454
Rp1455
(dp1456
g9
I00
sg10
Nsg11
I00
sg12
V$DERM: Wall Street analysts bullish on DERM's earnings growth: https://t.co/YIv5mzPWNG https://t.co/xFQcT1I6R0
p1457
sg14
Vhttp://example.com
p1458
sg16
I00
sg17
I00
sg18
Nsg19
g0
(g20
g5
Ntp1459
Rp1460
(dp1461
g24
I00
sg25
I00
sg26
I01
sg27
VDDEEF6
p1462
sg29
L3290849920L
sg30
I00
sg31
(dp1463
g33
(dp1464
g35
(lp1465
sssg37
Vhttps://pbs.twimg.com/profile_images/606146912773926912/tpzIX1Xs_normal.jpg
p1466
sg39
(dp1467
g41
I00
sg42
I00
sg43
I01
sg44
I00
sg45
L3290849920L
sg46
Vhttps://abs.twimg.com/images/themes/theme1/bg.png
p1468
sg48
I00
sg49
V333333
p1469
sg51
g1466
sg52
g1462
sg53
g1463
sg54
I166
sg55
VC0DEED
p1470
sg57
V3290849920
p1471
sg59
VC0DEED
p1472
sg61
I12
sg62
I00
sg63
I-28800
sg64
I44252
sg33
g65
sg66
I0
sg67
g65
sg68
V0084B4
p1473
sg70
Vhttp://pbs.twimg.com/profile_images/606146912773926912/tpzIX1Xs_normal.jpg
p1474
sg72
I00
sg73
I00
sg74
Vhttp://abs.twimg.com/images/themes/theme1/bg.png
p1475
sg76
VTimeForGrowth
p1476
sg78
Ven
p1477
sg80
I00
sg81
I0
sg82
VTimeForGrowth
p1478
sg84
I00
sg85
Nsg86
VWed May 20 03:22:57 +0000 2015
p1479
sg88
I00
sg89
VPacific Time (US & Canada)
p1480
sg91
I00
sg92
I01
sg93
I00
ssg94
I00
sg95
g1469
sg96
I166
sg97
g1470
sg98
g1471
sg99
I00
sg100
I12
sg101
I00
sg102
I-28800
sg103
I44252
sg104
g65
sg105
I0
sg106
g65
sg107
g1473
sg108
g1474
sg109
I00
sg110
I00
sg111
g1472
sg112
g1475
sg113
g1476
sg114
g1477
sg115
I00
sg116
I00
sg117
I0
sg118
g1478
sg119
Nsg120
g121
(S'\x07\xdf\x05\x14\x03\x169\x00\x00\x00'
p1481
tp1482
Rp1483
sg125
g1468
sg126
g1480
sg127
I00
sg128
I01
sg129
I00
sbsg130
Nsg29
L663512081132625920L
sg131
I0
sg132
VCrunchingTime
p1484
sg114
Ven
p1485
sg135
g1460
sg120
g121
(S'\x07\xdf\x0b\t\x00\x17\x02\x00\x00\x00'
p1486
tp1487
Rp1488
sg39
(dp1489
g140
Nsg141
I00
sg142
g1457
sg144
I00
sg145
Nsg45
L663512081132625920L
sg146
I0
sg147
V<a href="http://example.com" rel="nofollow">CrunchingTime</a>
p1490
sg149
I00
sg150
Nsg53
(dp1491
g152
(lp1492
(dp1493
g155
(lp1494
I0
aI5
asg142
VDERM
p1495
sasg158
(lp1496
sg160
(lp1497
sg35
(lp1498
(dp1499
g85
Vhttps://t.co/YIv5mzPWNG
p1500
sg155
(lp1501
I63
aI86
asg166
Vhttp://growthnumbers.com/DERM
p1502
sg168
Vgrowthnumbers.com/DERM
p1503
sasVmedia
p1504
(lp1505
(dp1506
g166
Vhttp://twitter.com/TimeForGrowth/status/663512081132625920/photo/1
p1507
sg168
Vpic.twitter.com/xFQcT1I6R0
p1508
sg85
Vhttps://t.co/xFQcT1I6R0
p1509
sVmedia_url_https
p1510
Vhttps://pbs.twimg.com/media/CTVEuNuXAAIUWcA.jpg
p1511
sg57
V663512080855793666
p1512
sVsizes
p1513
(dp1514
Vlarge
p1515
(dp1516
Vh
p1517
I4
sVresize
p1518
Vfit
p1519
sVw
p1520
I4
ssVsmall
p1521
(dp1522
g1517
I4
sg1518
Vfit
p1523
sg1520
I4
ssVmedium
p1524
(dp1525
g1517
I4
sg1518
Vfit
p1526
sg1520
I4
ssVthumb
p1527
(dp1528
g1517
I4
sg1518
Vcrop
p1529
sg1520
I4
sssg155
(lp1530
I87
aI110
asVtype
p1531
Vphoto
p1532
sg45
L663512080855793666L
sVmedia_url
p1533
Vhttp://pbs.twimg.com/media/CTVEuNuXAAIUWcA.jpg
p1534
sassg170
Nsg171
Nsg172
I0
sg57
V663512081132625920
p1535
sg174
I00
sg175
g1467
sg176
Nsg177
Nsg178
I00
sg78
g1485
sg86
VMon Nov 09 00:23:02 +0000 2015
p1536
sg180
Nsg181
Nsg182
(dp1537
g184
Ven
p1538
sg186
Vrecent
p1539
sssg188
g1537
sg189
Nsg190
Nsg31
g1491
sg191
Nsg192
Nsg98
g1535
sg193
I00
sg194
Nsg195
I0
sg196
Nsbag0
(g4
g5
Ntp1540
Rp1541
(dp1542
g9
I00
sg10
Nsg11
I00
sg12
VDermira $DERM Set to Announce Earnings on Tuesday https://t.co/gTjuOwWdr3
p1543
sg14
Vhttp://ifttt.com
p1544
sg16
I00
sg17
I00
sg18
Nsg19
g0
(g20
g5
Ntp1545
Rp1546
(dp1547
g24
I00
sg25
I00
sg26
I01
sg27
VDDEEF6
p1548
sg29
L2920258887L
sg30
I00
sg31
(dp1549
g33
(dp1550
g35
(lp1551
sssg37
Vhttps://abs.twimg.com/sticky/default_profile_images/default_profile_0_normal.png
p1552
sg39
(dp1553
g41
I00
sg42
I00
sg43
I01
sg44
I01
sg45
L2920258887L
sg46
Vhttps://abs.twimg.com/images/themes/theme1/bg.png
p1554
sg48
I00
sg49
V333333
p1555
sg51
g1552
sg52
g1548
sg53
g1549
sg54
I1021
sg55
VC0DEED
p1556
sg57
V2920258887
p1557
sg59
VC0DEED
p1558
sg61
I39
sg62
I00
sg63
Nsg64
I170284
sg33
g65
sg66
I40
sg67
g65
sg68
V0084B4
p1559
sg70
Vhttp://abs.twimg.com/sticky/default_profile_images/default_profile_0_normal.png
p1560
sg72
I00
sg73
I00
sg74
Vhttp://abs.twimg.com/images/themes/theme1/bg.png
p1561
sg76
Vdakotafinancial
p1562
sg78
Ven
p1563
sg80
I00
sg81
I0
sg82
VDakota Financial 
p1564
sg84
I00
sg85
Nsg86
VSat Dec 13 20:48:14 +0000 2014
p1565
sg88
I00
sg89
Nsg91
I00
sg92
I01
sg93
I00
ssg94
I00
sg95
g1555
sg96
I1021
sg97
g1556
sg98
g1557
sg99
I01
sg100
I39
sg101
I00
sg102
Nsg103
I170284
sg104
g65
sg105
I40
sg106
g65
sg107
g1559
sg108
g1560
sg109
I00
sg110
I00
sg111
g1558
sg112
g1561
sg113
g1562
sg114
g1563
sg115
I00
sg116
I00
sg117
I0
sg118
g1564
sg119
Nsg120
g121
(S'\x07\xde\x0c\r\x140\x0e\x00\x00\x00'
p1566
tp1567
Rp1568
sg125
g1554
sg126
Nsg127
I00
sg128
I01
sg129
I00
sbsg130
Nsg29
L663448084123361281L
sg131
I0
sg132
VIFTTT
p1569
sg114
Ven
p1570
sg135
g1546
sg120
g121
(S'\x07\xdf\x0b\x08\x14\x08,\x00\x00\x00'
p1571
tp1572
Rp1573
sg39
(dp1574
g140
Nsg141
I00
sg142
g1543
sg144
I00
sg145
Nsg45
L663448084123361281L
sg146
I0
sg147
V<a href="http://ifttt.com" rel="nofollow">IFTTT</a>
p1575
sg149
I00
sg150
Nsg53
(dp1576
g152
(lp1577
(dp1578
g155
(lp1579
I8
aI13
asg142
VDERM
p1580
sasg158
(lp1581
sg160
(lp1582
sg35
(lp1583
(dp1584
g85
Vhttps://t.co/gTjuOwWdr3
p1585
sg155
(lp1586
I50
aI73
asg166
Vhttp://ift.tt/1NkSOnH
p1587
sg168
Vift.tt/1NkSOnH
p1588
sassg170
Nsg171
Nsg172
I0
sg57
V663448084123361281
p1589
sg174
I00
sg175
g1553
sg176
Nsg177
Nsg178
I00
sg78
g1570
sg86
VSun Nov 08 20:08:44 +0000 2015
p1590
sg180
Nsg181
Nsg182
(dp1591
g184
Ven
p1592
sg186
Vrecent
p1593
sssg188
g1591
sg189
Nsg190
Nsg31
g1576
sg191
Nsg192
Nsg98
g1589
sg193
I00
sg194
Nsg195
I0
sg196
Nsbag0
(g4
g5
Ntp1594
Rp1595
(dp1596
g9
I00
sg10
Nsg11
I00
sg12
VDermira $DERM Set to Announce Earnings on Tuesday https://t.co/MkiHeX1Oft
p1597
sg14
Vhttp://ifttt.com
p1598
sg16
I00
sg17
I00
sg18
Nsg19
g0
(g20
g5
Ntp1599
Rp1600
(dp1601
g24
I00
sg25
I00
sg26
I01
sg27
VDDEEF6
p1602
sg29
L2743641378L
sg30
I00
sg31
(dp1603
g33
(dp1604
g35
(lp1605
sssg37
Vhttps://pbs.twimg.com/profile_images/501548634412838914/LR6q5snv_normal.jpeg
p1606
sg39
(dp1607
g41
I00
sg42
I00
sg43
I01
sg44
I00
sg45
L2743641378L
sg46
Vhttps://abs.twimg.com/images/themes/theme1/bg.png
p1608
sg48
I00
sg49
V333333
p1609
sg51
g1606
sg52
g1602
sg53
g1603
sg54
I668
sg55
VC0DEED
p1610
sg57
V2743641378
p1611
sg59
VC0DEED
p1612
sg61
I59
sg62
I00
sg63
Nsg64
I275759
sg33
g65
sg66
I0
sg67
g65
sg68
V0084B4
p1613
sg70
Vhttp://pbs.twimg.com/profile_images/501548634412838914/LR6q5snv_normal.jpeg
p1614
sg72
I00
sg73
I00
sg532
Vhttps://pbs.twimg.com/profile_banners/2743641378/1408413498
p1615
sg74
Vhttp://abs.twimg.com/images/themes/theme1/bg.png
p1616
sg76
VSleekMoneycom
p1617
sg78
Ven
p1618
sg80
I00
sg81
I0
sg82
VSleek Money
p1619
sg84
I00
sg85
Nsg86
VTue Aug 19 01:57:20 +0000 2014
p1620
sg88
I00
sg89
Nsg91
I00
sg92
I01
sg93
I00
ssg94
I00
sg95
g1609
sg96
I668
sg97
g1610
sg98
g1611
sg99
I00
sg100
I59
sg101
I00
sg102
Nsg103
I275759
sg104
g65
sg105
I0
sg106
g65
sg107
g1613
sg108
g1614
sg109
I00
sg110
I00
sg111
g1612
sg540
g1615
sg112
g1616
sg113
g1617
sg114
g1618
sg115
I00
sg116
I00
sg117
I0
sg118
g1619
sg119
Nsg120
g121
(S'\x07\xde\x08\x13\x019\x14\x00\x00\x00'
p1621
tp1622
Rp1623
sg125
g1608
sg126
Nsg127
I00
sg128
I01
sg129
I00
sbsg130
Nsg29
L663448080910524418L
sg131
I0
sg132
VIFTTT
p1624
sg114
Ven
p1625
sg135
g1600
sg120
g121
(S'\x07\xdf\x0b\x08\x14\x08+\x00\x00\x00'
p1626
tp1627
Rp1628
sg39
(dp1629
g140
Nsg141
I00
sg142
g1597
sg144
I00
sg145
Nsg45
L663448080910524418L
sg146
I0
sg147
V<a href="http://ifttt.com" rel="nofollow">IFTTT</a>
p1630
sg149
I00
sg150
Nsg53
(dp1631
g152
(lp1632
(dp1633
g155
(lp1634
I8
aI13
asg142
VDERM
p1635
sasg158
(lp1636
sg160
(lp1637
sg35
(lp1638
(dp1639
g85
Vhttps://t.co/MkiHeX1Oft
p1640
sg155
(lp1641
I50
aI73
asg166
Vhttp://ift.tt/1Sa8y0t
p1642
sg168
Vift.tt/1Sa8y0t
p1643
sassg170
Nsg171
Nsg172
I0
sg57
V663448080910524418
p1644
sg174
I00
sg175
g1607
sg176
Nsg177
Nsg178
I00
sg78
g1625
sg86
VSun Nov 08 20:08:43 +0000 2015
p1645
sg180
Nsg181
Nsg182
(dp1646
g184
Ven
p1647
sg186
Vrecent
p1648
sssg188
g1646
sg189
Nsg190
Nsg31
g1631
sg191
Nsg192
Nsg98
g1644
sg193
I00
sg194
Nsg195
I0
sg196
Nsbag0
(g4
g5
Ntp1649
Rp1650
(dp1651
g9
I00
sg10
Nsg11
I00
sg12
V$DERM:\u000a\u000aDermira (DERM) Set to Announce Earnings on Tuesday:\u000a\u000ahttps://t.co/DzFKIHBq4B
p1652
sg14
Vhttp://fnsappbg.blogspot.com/
p1653
sg16
I00
sg17
I00
sg18
Nsg19
g0
(g20
g5
Ntp1654
Rp1655
(dp1656
g24
I00
sg25
I00
sg26
I01
sg27
VDDEEF6
p1657
sg29
L2881595931L
sg30
I00
sg31
(dp1658
g33
(dp1659
g35
(lp1660
sssg37
Vhttps://pbs.twimg.com/profile_images/542392174428434432/PfyzCfya_normal.jpeg
p1661
sg39
(dp1662
g41
I00
sg42
I00
sg43
I01
sg44
I00
sg45
L2881595931L
sg46
Vhttps://abs.twimg.com/images/themes/theme1/bg.png
p1663
sg48
I00
sg49
V333333
p1664
sg51
g1661
sg52
g1657
sg53
g1658
sg54
I593
sg55
VC0DEED
p1665
sg57
V2881595931
p1666
sg59
VC0DEED
p1667
sg61
I90
sg62
I00
sg63
I-18000
sg64
I235206
sg33
g65
sg66
I6
sg67
g65
sg68
V0084B4
p1668
sg70
Vhttp://pbs.twimg.com/profile_images/542392174428434432/PfyzCfya_normal.jpeg
p1669
sg72
I00
sg73
I00
sg74
Vhttp://abs.twimg.com/images/themes/theme1/bg.png
p1670
sg76
VProVesting
p1671
sg78
Ven
p1672
sg80
I00
sg81
I0
sg82
VProVesting
p1673
sg84
I00
sg85
Nsg86
VMon Nov 17 20:15:38 +0000 2014
p1674
sg88
I00
sg89
VEastern Time (US & Canada)
p1675
sg91
I00
sg92
I01
sg93
I00
ssg94
I00
sg95
g1664
sg96
I593
sg97
g1665
sg98
g1666
sg99
I00
sg100
I90
sg101
I00
sg102
I-18000
sg103
I235206
sg104
g65
sg105
I6
sg106
g65
sg107
g1668
sg108
g1669
sg109
I00
sg110
I00
sg111
g1667
sg112
g1670
sg113
g1671
sg114
g1672
sg115
I00
sg116
I00
sg117
I0
sg118
g1673
sg119
Nsg120
g121
(S'\x07\xde\x0b\x11\x14\x0f&\x00\x00\x00'
p1676
tp1677
Rp1678
sg125
g1663
sg126
g1675
sg127
I00
sg128
I01
sg129
I00
sbsg130
Nsg29
L663445139088633856L
sg131
I0
sg132
VFNS_APP
p1679
sg114
Ven
p1680
sg135
g1655
sg120
g121
(S'\x07\xdf\x0b\x08\x139\x02\x00\x00\x00'
p1681
tp1682
Rp1683
sg39
(dp1684
g140
Nsg141
I00
sg142
V$DERM:\u000a\u000aDermira (DERM) Set to Announce Earnings on Tuesday:\u000a\u000ahttps://t.co/DzFKIHBq4B
p1685
sg144
I00
sg145
Nsg45
L663445139088633856L
sg146
I0
sg147
V<a href="http://fnsappbg.blogspot.com/" rel="nofollow">FNS_APP</a>
p1686
sg149
I00
sg150
Nsg53
(dp1687
g152
(lp1688
(dp1689
g155
(lp1690
I0
aI5
asg142
VDERM
p1691
sasg158
(lp1692
sg160
(lp1693
sg35
(lp1694
(dp1695
g85
Vhttps://t.co/DzFKIHBq4B
p1696
sg155
(lp1697
I61
aI84
asg166
Vhttp://StockNewsHour.com/derm-dermira-derm-set-to-announce-earnings-on-tuesday/
p1698
sg168
VStockNewsHour.com/derm-dermira-d\u2026
p1699
sassg170
Nsg171
Nsg172
I0
sg57
V663445139088633856
p1700
sg174
I00
sg175
g1662
sg176
Nsg177
Nsg178
I00
sg78
g1680
sg86
VSun Nov 08 19:57:02 +0000 2015
p1701
sg180
Nsg181
Nsg182
(dp1702
g184
Ven
p1703
sg186
Vrecent
p1704
sssg188
g1702
sg189
Nsg190
Nsg31
g1687
sg191
Nsg192
Nsg98
g1700
sg193
I00
sg194
Nsg195
I0
sg196
Nsbag0
(g4
g5
Ntp1705
Rp1706
(dp1707
g9
I00
sg10
Nsg11
I00
sg12
VRT @fm23: $DERM https://t.co/lB0Zntnje4
p1708
sg14
Vhttp://twitter.com/download/iphone
p1709
sg16
I00
sg17
I00
sg18
Nsg19
g0
(g20
g5
Ntp1710
Rp1711
(dp1712
g24
I00
sg25
I00
sg26
I01
sg27
VDADADA
p1713
sg29
I2136001
sg30
I00
sg31
(dp1714
g33
(dp1715
g35
(lp1716
sssg37
Vhttps://pbs.twimg.com/profile_images/406759102/MOSS_normal.jpeg
p1717
sg39
(dp1718
g41
I00
sg42
I00
sg43
I01
sg44
I00
sg45
I2136001
sg46
Vhttps://pbs.twimg.com/profile_background_images/520242/back.gif
p1719
sg48
I00
sg49
V000000
p1720
sg51
g1717
sg52
g1713
sg53
g1714
sg54
I304
sg55
VDADADA
p1721
sg57
V2136001
p1722
sg59
V9BE5E9
p1723
sg61
I19
sg62
I00
sg63
I-18000
sg64
I4413
sg33
VStocks/Options. Drugs. Music: Megatoad/DemonSweat (RYM/LastFM)
p1724
sg66
I460
sg67
VEric Decker. Great Lakes.
p1725
sg68
V0000FF
p1726
sg70
Vhttp://pbs.twimg.com/profile_images/406759102/MOSS_normal.jpeg
p1727
sg72
I00
sg73
I00
sg74
Vhttp://pbs.twimg.com/profile_background_images/520242/back.gif
p1728
sg76
VToad
p1729
sg78
Ven
p1730
sg80
I01
sg81
I12359
sg82
VToad
p1731
sg84
I00
sg85
Nsg86
VSat Mar 24 21:41:32 +0000 2007
p1732
sg88
I00
sg89
VEastern Time (US & Canada)
p1733
sg91
I00
sg92
I00
sg93
I00
ssg94
I00
sg95
g1720
sg96
I304
sg97
g1721
sg98
g1722
sg99
I00
sg100
I19
sg101
I00
sg102
I-18000
sg103
I4413
sg104
g1724
sg105
I460
sg106
g1725
sg107
g1726
sg108
g1727
sg109
I00
sg110
I00
sg111
g1723
sg112
g1728
sg113
g1729
sg114
g1730
sg115
I00
sg116
I01
sg117
I12359
sg118
g1731
sg119
Nsg120
g121
(S'\x07\xd7\x03\x18\x15) \x00\x00\x00'
p1734
tp1735
Rp1736
sg125
g1719
sg126
g1733
sg127
I00
sg128
I00
sg129
I00
sbsg130
Nsg29
L663043338338222081L
sg131
I0
sg132
VTwitter for iPhone
p1737
sg114
Ven
p1738
sS'retweeted_status'
p1739
g0
(g4
g5
Ntp1740
Rp1741
(dp1742
g9
I00
sg10
Nsg11
I00
sg12
V$DERM https://t.co/lB0Zntnje4
p1743
sg14
Vhttp://www.fenrir-inc.com/jp/snapcrab/
p1744
sg16
I00
sg17
I00
sg18
Nsg19
g0
(g20
g5
Ntp1745
Rp1746
(dp1747
g24
I00
sg25
I00
sg26
I01
sg27
VDDEEF6
p1748
sg29
I16999433
sg30
I00
sg31
(dp1749
g85
(dp1750
g35
(lp1751
(dp1752
g85
Vhttp://t.co/XHIBWCyuAs
p1753
sg155
(lp1754
I0
aI22
asg166
Vhttp://coasthwy101.com
p1755
sg168
Vcoasthwy101.com
p1756
sassg33
(dp1757
g35
(lp1758
sssg37
Vhttps://pbs.twimg.com/profile_images/695765390/101_2rAvatar_normal_normal.png
p1759
sg39
(dp1760
g41
I00
sg42
I00
sg43
I01
sg44
I00
sg45
I16999433
sg46
Vhttps://pbs.twimg.com/profile_background_images/38324663/101_2rAvatar_normal.png
p1761
sg48
I00
sg49
V333333
p1762
sg51
g1759
sg52
g1748
sg53
g1749
sg54
I1970
sg55
V000000
p1763
sg57
V16999433
p1764
sg59
VC0DEED
p1765
sg61
I82
sg62
I00
sg63
I-28800
sg64
I22647
sg33
VTrading the US equities markets daily. It's all about stages, trends and waves. Anything i post is by no means a recommendation to buy or sell any security.
p1766
sg66
I579
sg67
VCarlsbad , Ca.
p1767
sg68
V3900B3
p1768
sg70
Vhttp://pbs.twimg.com/profile_images/695765390/101_2rAvatar_normal_normal.png
p1769
sg72
I00
sg73
I00
sg532
Vhttps://pbs.twimg.com/profile_banners/16999433/1368895671
p1770
sg74
Vhttp://pbs.twimg.com/profile_background_images/38324663/101_2rAvatar_normal.png
p1771
sg76
Vfm23
p1772
sg78
Ven
p1773
sg80
I01
sg81
I705
sg82
VPhil Martin
p1774
sg84
I00
sg85
Vhttp://t.co/XHIBWCyuAs
p1775
sg86
VMon Oct 27 14:39:29 +0000 2008
p1776
sg88
I00
sg89
VPacific Time (US & Canada)
p1777
sg91
I00
sg92
I00
sg93
I00
ssg94
I00
sg95
g1762
sg96
I1970
sg97
g1763
sg98
g1764
sg99
I00
sg100
I82
sg101
I00
sg102
I-28800
sg103
I22647
sg104
g1766
sg105
I579
sg106
g1767
sg107
g1768
sg108
g1769
sg109
I00
sg110
I00
sg111
g1765
sg540
g1770
sg112
g1771
sg113
g1772
sg114
g1773
sg115
I00
sg116
I01
sg117
I705
sg118
g1774
sg119
g1775
sg120
g121
(S"\x07\xd8\n\x1b\x0e'\x1d\x00\x00\x00"
p1778
tp1779
Rp1780
sg125
g1761
sg126
g1777
sg127
I00
sg128
I00
sg129
I00
sbsg130
Nsg29
L663035328010170368L
sg131
I0
sg132
VSnapCrab
p1781
sg114
Ven
p1782
sg135
g1746
sg120
g121
(S'\x07\xdf\x0b\x07\x100#\x00\x00\x00'
p1783
tp1784
Rp1785
sg39
(dp1786
g140
Nsg141
I00
sg142
g1743
sg144
I00
sg145
Nsg45
L663035328010170368L
sg146
I0
sg147
V<a href="http://www.fenrir-inc.com/jp/snapcrab/" rel="nofollow">SnapCrab</a>
p1787
sg149
I00
sg150
Nsg53
(dp1788
g152
(lp1789
(dp1790
g155
(lp1791
I0
aI5
asg142
VDERM
p1792
sasg158
(lp1793
sg160
(lp1794
sg35
(lp1795
sg1504
(lp1796
(dp1797
g166
Vhttp://twitter.com/fm23/status/663035328010170368/photo/1
p1798
sg168
Vpic.twitter.com/lB0Zntnje4
p1799
sg85
Vhttps://t.co/lB0Zntnje4
p1800
sg1510
Vhttps://pbs.twimg.com/media/CTOTHhjUkAAMFse.png
p1801
sg57
V663035327628480512
p1802
sg1513
(dp1803
g1521
(dp1804
g1517
I242
sg1518
Vfit
p1805
sg1520
I340
ssg1515
(dp1806
g1517
I730
sg1518
Vfit
p1807
sg1520
I1024
ssg1524
(dp1808
g1517
I427
sg1518
Vfit
p1809
sg1520
I600
ssg1527
(dp1810
g1517
I150
sg1518
Vcrop
p1811
sg1520
I150
sssg155
(lp1812
I6
aI29
asg1531
Vphoto
p1813
sg45
L663035327628480512L
sg1533
Vhttp://pbs.twimg.com/media/CTOTHhjUkAAMFse.png
p1814
sassg170
Nsg171
Nsg172
I1
sg57
V663035328010170368
p1815
sg174
I00
sg175
g1760
sg176
Nsg177
Nsg178
I00
sg78
g1782
sg86
VSat Nov 07 16:48:35 +0000 2015
p1816
sg180
Nsg181
Nsg182
(dp1817
g184
Ven
p1818
sg186
Vrecent
p1819
sssg188
g1817
sg189
Nsg190
Nsg31
g1788
sg191
Nsg192
Nsg98
g1815
sg193
I00
sg194
Nsg195
I1
sg196
Nsbsg135
g1711
sg120
g121
(S'\x07\xdf\x0b\x07\x11\x14\x19\x00\x00\x00'
p1820
tp1821
Rp1822
sg39
(dp1823
g140
Nsg141
I00
sg142
g1708
sg144
I00
sg145
Nsg45
L663043338338222081L
sg146
I0
sg147
V<a href="http://twitter.com/download/iphone" rel="nofollow">Twitter for iPhone</a>
p1824
sg149
I00
sg150
Nsg53
(dp1825
g152
(lp1826
(dp1827
g155
(lp1828
I10
aI15
asg142
VDERM
p1829
sasg158
(lp1830
(dp1831
g45
I16999433
sg155
(lp1832
I3
aI8
asg57
V16999433
p1833
sg76
Vfm23
p1834
sg82
VPhil Martin
p1835
sasg160
(lp1836
sg35
(lp1837
sg1504
(lp1838
(dp1839
Vsource_user_id
p1840
I16999433
sVsource_status_id_str
p1841
V663035328010170368
p1842
sg166
Vhttp://twitter.com/fm23/status/663035328010170368/photo/1
p1843
sg168
Vpic.twitter.com/lB0Zntnje4
p1844
sg85
Vhttps://t.co/lB0Zntnje4
p1845
sg1510
Vhttps://pbs.twimg.com/media/CTOTHhjUkAAMFse.png
p1846
sVsource_user_id_str
p1847
V16999433
p1848
sVsource_status_id
p1849
L663035328010170368L
sg57
V663035327628480512
p1850
sg1513
(dp1851
g1521
(dp1852
g1517
I242
sg1518
Vfit
p1853
sg1520
I340
ssg1515
(dp1854
g1517
I730
sg1518
Vfit
p1855
sg1520
I1024
ssg1524
(dp1856
g1517
I427
sg1518
Vfit
p1857
sg1520
I600
ssg1527
(dp1858
g1517
I150
sg1518
Vcrop
p1859
sg1520
I150
sssg155
(lp1860
I16
aI39
asg1531
Vphoto
p1861
sg45
L663035327628480512L
sg1533
Vhttp://pbs.twimg.com/media/CTOTHhjUkAAMFse.png
p1862
sassg170
Nsg171
Nsg172
I1
sg57
V663043338338222081
p1863
sg174
I00
sVretweeted_status
p1864
g1786
sg175
g1718
sg176
Nsg177
Nsg178
I00
sg78
g1738
sg86
VSat Nov 07 17:20:25 +0000 2015
p1865
sg180
Nsg181
Nsg182
(dp1866
g184
Ven
p1867
sg186
Vrecent
p1868
sssg188
g1866
sg189
Nsg190
Nsg31
g1825
sg191
Nsg192
Nsg98
g1863
sg193
I00
sg194
Nsg195
I1
sg196
Nsbag0
(g4
g5
Ntp1869
Rp1870
(dp1871
g9
I00
sg10
Nsg11
I00
sg12
V$DERM https://t.co/lB0Zntnje4
p1872
sg14
Vhttp://www.fenrir-inc.com/jp/snapcrab/
p1873
sg16
I00
sg17
I00
sg18
Nsg19
g0
(g20
g5
Ntp1874
Rp1875
(dp1876
g24
I00
sg25
I00
sg26
I01
sg27
VDDEEF6
p1877
sg29
I16999433
sg30
I00
sg31
(dp1878
g85
(dp1879
g35
(lp1880
(dp1881
g85
Vhttp://t.co/XHIBWCyuAs
p1882
sg155
(lp1883
I0
aI22
asg166
Vhttp://coasthwy101.com
p1884
sg168
Vcoasthwy101.com
p1885
sassg33
(dp1886
g35
(lp1887
sssg37
Vhttps://pbs.twimg.com/profile_images/695765390/101_2rAvatar_normal_normal.png
p1888
sg39
(dp1889
g41
I00
sg42
I00
sg43
I01
sg44
I00
sg45
I16999433
sg46
Vhttps://pbs.twimg.com/profile_background_images/38324663/101_2rAvatar_normal.png
p1890
sg48
I00
sg49
V333333
p1891
sg51
g1888
sg52
g1877
sg53
g1878
sg54
I1970
sg55
V000000
p1892
sg57
V16999433
p1893
sg59
VC0DEED
p1894
sg61
I82
sg62
I00
sg63
I-28800
sg64
I22647
sg33
VTrading the US equities markets daily. It's all about stages, trends and waves. Anything i post is by no means a recommendation to buy or sell any security.
p1895
sg66
I579
sg67
VCarlsbad , Ca.
p1896
sg68
V3900B3
p1897
sg70
Vhttp://pbs.twimg.com/profile_images/695765390/101_2rAvatar_normal_normal.png
p1898
sg72
I00
sg73
I00
sg532
Vhttps://pbs.twimg.com/profile_banners/16999433/1368895671
p1899
sg74
Vhttp://pbs.twimg.com/profile_background_images/38324663/101_2rAvatar_normal.png
p1900
sg76
Vfm23
p1901
sg78
Ven
p1902
sg80
I01
sg81
I705
sg82
VPhil Martin
p1903
sg84
I00
sg85
Vhttp://t.co/XHIBWCyuAs
p1904
sg86
VMon Oct 27 14:39:29 +0000 2008
p1905
sg88
I00
sg89
VPacific Time (US & Canada)
p1906
sg91
I00
sg92
I00
sg93
I00
ssg94
I00
sg95
g1891
sg96
I1970
sg97
g1892
sg98
g1893
sg99
I00
sg100
I82
sg101
I00
sg102
I-28800
sg103
I22647
sg104
g1895
sg105
I579
sg106
g1896
sg107
g1897
sg108
g1898
sg109
I00
sg110
I00
sg111
g1894
sg540
g1899
sg112
g1900
sg113
g1901
sg114
g1902
sg115
I00
sg116
I01
sg117
I705
sg118
g1903
sg119
g1904
sg120
g121
(S"\x07\xd8\n\x1b\x0e'\x1d\x00\x00\x00"
p1907
tp1908
Rp1909
sg125
g1890
sg126
g1906
sg127
I00
sg128
I00
sg129
I00
sbsg130
Nsg29
L663035328010170368L
sg131
I0
sg132
VSnapCrab
p1910
sg114
Ven
p1911
sg135
g1875
sg120
g121
(S'\x07\xdf\x0b\x07\x100#\x00\x00\x00'
p1912
tp1913
Rp1914
sg39
(dp1915
g140
Nsg141
I00
sg142
g1872
sg144
I00
sg145
Nsg45
L663035328010170368L
sg146
I0
sg147
V<a href="http://www.fenrir-inc.com/jp/snapcrab/" rel="nofollow">SnapCrab</a>
p1916
sg149
I00
sg150
Nsg53
(dp1917
g152
(lp1918
(dp1919
g155
(lp1920
I0
aI5
asg142
VDERM
p1921
sasg158
(lp1922
sg160
(lp1923
sg35
(lp1924
sg1504
(lp1925
(dp1926
g166
Vhttp://twitter.com/fm23/status/663035328010170368/photo/1
p1927
sg168
Vpic.twitter.com/lB0Zntnje4
p1928
sg85
Vhttps://t.co/lB0Zntnje4
p1929
sg1510
Vhttps://pbs.twimg.com/media/CTOTHhjUkAAMFse.png
p1930
sg57
V663035327628480512
p1931
sg1513
(dp1932
g1521
(dp1933
g1517
I242
sg1518
Vfit
p1934
sg1520
I340
ssg1515
(dp1935
g1517
I730
sg1518
Vfit
p1936
sg1520
I1024
ssg1524
(dp1937
g1517
I427
sg1518
Vfit
p1938
sg1520
I600
ssg1527
(dp1939
g1517
I150
sg1518
Vcrop
p1940
sg1520
I150
sssg155
(lp1941
I6
aI29
asg1531
Vphoto
p1942
sg45
L663035327628480512L
sg1533
Vhttp://pbs.twimg.com/media/CTOTHhjUkAAMFse.png
p1943
sassg170
Nsg171
Nsg172
I1
sg57
V663035328010170368
p1944
sg174
I00
sg175
g1889
sg176
Nsg177
Nsg178
I00
sg78
g1911
sg86
VSat Nov 07 16:48:35 +0000 2015
p1945
sg180
Nsg181
Nsg182
(dp1946
g184
Ven
p1947
sg186
Vrecent
p1948
sssg188
g1946
sg189
Nsg190
Nsg31
g1917
sg191
Nsg192
Nsg98
g1944
sg193
I00
sg194
Nsg195
I1
sg196
Nsbag0
(g4
g5
Ntp1949
Rp1950
(dp1951
g9
I00
sg10
Nsg11
I00
sg12
VXLB Materials Select Sector SPDR Prev Close\u000ahttps://t.co/e1q8WoDjha\u000a\u000a$XLB $DERM $PPCH $ECA #XLB #finance #stockmarket
p1952
sg14
Vhttp://dlvr.it
p1953
sg16
I00
sg17
I00
sg18
Nsg19
g0
(g20
g5
Ntp1954
Rp1955
(dp1956
g24
I00
sg25
I00
sg26
I01
sg27
VEFEFEF
p1957
sg29
I386787305
sg30
I00
sg31
(dp1958
g85
(dp1959
g35
(lp1960
(dp1961
g85
Vhttp://t.co/iooOMkelYs
p1962
sg155
(lp1963
I0
aI22
asg166
Vhttp://InvestorsHangout.com
p1964
sg168
VInvestorsHangout.com
p1965
sassg33
(dp1966
g35
(lp1967
sssg37
Vhttps://pbs.twimg.com/profile_images/1873655866/IHsmall_normal.jpg
p1968
sg39
(dp1969
g41
I00
sg42
I00
sg43
I01
sg44
I00
sg45
I386787305
sg46
Vhttps://abs.twimg.com/images/themes/theme14/bg.gif
p1970
sg48
I00
sg49
V333333
p1971
sg51
g1968
sg52
g1957
sg53
g1958
sg54
I3240
sg55
VFFFFFF
p1972
sg57
V386787305
p1973
sg59
V131516
p1974
sg61
I235
sg62
I00
sg63
I-18000
sg64
I399303
sg33
VNYSE, NASDAQ, AMEX, OTCBB, Pink Sheet, Penny Stocks, Stock Message Boards, Stock Forum, Investment Board, Investment Forum, Stock Charts, Stock Quotes
p1975
sg66
I2006
sg67
VLas Vegas
p1976
sg68
V009999
p1977
sg70
Vhttp://pbs.twimg.com/profile_images/1873655866/IHsmall_normal.jpg
p1978
sg72
I00
sg73
I00
sg74
Vhttp://abs.twimg.com/images/themes/theme14/bg.gif
p1979
sg76
VIHPosts
p1980
sg78
Ven
p1981
sg80
I01
sg81
I1
sg82
VInvestors Hangout
p1982
sg84
I00
sg85
Vhttp://t.co/iooOMkelYs
p1983
sg86
VFri Oct 07 22:17:55 +0000 2011
p1984
sg88
I00
sg89
VEastern Time (US & Canada)
p1985
sg91
I00
sg92
I00
sg93
I00
ssg94
I00
sg95
g1971
sg96
I3240
sg97
g1972
sg98
g1973
sg99
I00
sg100
I235
sg101
I00
sg102
I-18000
sg103
I399303
sg104
g1975
sg105
I2006
sg106
g1976
sg107
g1977
sg108
g1978
sg109
I00
sg110
I00
sg111
g1974
sg112
g1979
sg113
g1980
sg114
g1981
sg115
I00
sg116
I01
sg117
I1
sg118
g1982
sg119
g1983
sg120
g121
(S'\x07\xdb\n\x07\x16\x117\x00\x00\x00'
p1986
tp1987
Rp1988
sg125
g1970
sg126
g1985
sg127
I00
sg128
I00
sg129
I00
sbsg130
Nsg29
L662884828904165376L
sg131
I0
sg132
Vdlvr.it
p1989
sg114
Vde
p1990
sg135
g1955
sg120
g121
(S'\x07\xdf\x0b\x07\x062!\x00\x00\x00'
p1991
tp1992
Rp1993
sg39
(dp1994
g140
Nsg141
I00
sg142
VXLB Materials Select Sector SPDR Prev Close\u000ahttps://t.co/e1q8WoDjha\u000a\u000a$XLB $DERM $PPCH $ECA #XLB #finance #stockmarket
p1995
sg144
I00
sg145
Nsg45
L662884828904165376L
sg146
I0
sg147
V<a href="http://dlvr.it" rel="nofollow">dlvr.it</a>
p1996
sg149
I00
sg150
Nsg53
(dp1997
g152
(lp1998
(dp1999
g155
(lp2000
I69
aI73
asg142
VXLB
p2001
sa(dp2002
g155
(lp2003
I74
aI79
asg142
VDERM
p2004
sa(dp2005
g155
(lp2006
I80
aI85
asg142
VPPCH
p2007
sa(dp2008
g155
(lp2009
I86
aI90
asg142
VECA
p2010
sasg158
(lp2011
sg160
(lp2012
(dp2013
g155
(lp2014
I91
aI95
asg142
VXLB
p2015
sa(dp2016
g155
(lp2017
I96
aI104
asg142
Vfinance
p2018
sa(dp2019
g155
(lp2020
I105
aI117
asg142
Vstockmarket
p2021
sasg35
(lp2022
(dp2023
g85
Vhttps://t.co/e1q8WoDjha
p2024
sg155
(lp2025
I44
aI67
asg166
Vhttp://dlvr.it/CgZYlY
p2026
sg168
Vdlvr.it/CgZYlY
p2027
sassg170
Nsg171
Nsg172
I0
sg57
V662884828904165376
p2028
sg174
I00
sg175
g1969
sg176
Nsg177
Nsg178
I00
sg78
g1990
sg86
VSat Nov 07 06:50:33 +0000 2015
p2029
sg180
Nsg181
Nsg182
(dp2030
g184
Vde
p2031
sg186
Vrecent
p2032
sssg188
g2030
sg189
Nsg190
Nsg31
g1997
sg191
Nsg192
Nsg98
g2028
sg193
I00
sg194
Nsg195
I0
sg196
Nsbag0
(g4
g5
Ntp2033
Rp2034
(dp2035
g9
I00
sg10
Nsg11
I00
sg12
VDERM Dermira, Inc. Ask\u000ahttps://t.co/PwCoycza52\u000a\u000a$DERM $SCTY $IYR $FSLR #DERM #stock #tradeideas
p2036
sg14
Vhttp://dlvr.it
p2037
sg16
I00
sg17
I00
sg18
Nsg19
g0
(g20
g5
Ntp2038
Rp2039
(dp2040
g24
I00
sg25
I00
sg26
I01
sg27
VDDEEF6
p2041
sg29
L2579477766L
sg30
I00
sg31
(dp2042
g33
(dp2043
g35
(lp2044
sssg37
Vhttps://pbs.twimg.com/profile_images/480141663583477760/H21c7Bur_normal.png
p2045
sg39
(dp2046
g41
I00
sg42
I00
sg43
I01
sg44
I00
sg45
L2579477766L
sg46
Vhttps://abs.twimg.com/images/themes/theme1/bg.png
p2047
sg48
I00
sg49
V333333
p2048
sg51
g2045
sg52
g2041
sg53
g2042
sg54
I13262
sg55
VC0DEED
p2049
sg57
V2579477766
p2050
sg59
VC0DEED
p2051
sg61
I185
sg62
I00
sg63
Nsg64
I376289
sg33
g65
sg66
I426
sg67
g65
sg68
V0084B4
p2052
sg70
Vhttp://pbs.twimg.com/profile_images/480141663583477760/H21c7Bur_normal.png
p2053
sg72
I00
sg73
I00
sg74
Vhttp://abs.twimg.com/images/themes/theme1/bg.png
p2054
sg76
VIHPosts2
p2055
sg78
Ven
p2056
sg80
I00
sg81
I0
sg82
VInvestors Hangout
p2057
sg84
I00
sg85
Nsg86
VSat Jun 21 00:11:54 +0000 2014
p2058
sg88
I00
sg89
Nsg91
I00
sg92
I01
sg93
I00
ssg94
I00
sg95
g2048
sg96
I13262
sg97
g2049
sg98
g2050
sg99
I00
sg100
I185
sg101
I00
sg102
Nsg103
I376289
sg104
g65
sg105
I426
sg106
g65
sg107
g2052
sg108
g2053
sg109
I00
sg110
I00
sg111
g2051
sg112
g2054
sg113
g2055
sg114
g2056
sg115
I00
sg116
I00
sg117
I0
sg118
g2057
sg119
Nsg120
g121
(S'\x07\xde\x06\x15\x00\x0b6\x00\x00\x00'
p2059
tp2060
Rp2061
sg125
g2047
sg126
Nsg127
I00
sg128
I01
sg129
I00
sbsg130
Nsg29
L662881333979426817L
sg131
I0
sg132
Vdlvr.it
p2062
sg114
Vtr
p2063
sg135
g2039
sg120
g121
(S'\x07\xdf\x0b\x07\x06$(\x00\x00\x00'
p2064
tp2065
Rp2066
sg39
(dp2067
g140
Nsg141
I00
sg142
VDERM Dermira, Inc. Ask\u000ahttps://t.co/PwCoycza52\u000a\u000a$DERM $SCTY $IYR $FSLR #DERM #stock #tradeideas
p2068
sg144
I00
sg145
Nsg45
L662881333979426817L
sg146
I0
sg147
V<a href="http://dlvr.it" rel="nofollow">dlvr.it</a>
p2069
sg149
I00
sg150
Nsg53
(dp2070
g152
(lp2071
(dp2072
g155
(lp2073
I48
aI53
asg142
VDERM
p2074
sa(dp2075
g155
(lp2076
I54
aI59
asg142
VSCTY
p2077
sa(dp2078
g155
(lp2079
I60
aI64
asg142
VIYR
p2080
sa(dp2081
g155
(lp2082
I65
aI70
asg142
VFSLR
p2083
sasg158
(lp2084
sg160
(lp2085
(dp2086
g155
(lp2087
I71
aI76
asg142
VDERM
p2088
sa(dp2089
g155
(lp2090
I77
aI83
asg142
Vstock
p2091
sa(dp2092
g155
(lp2093
I84
aI95
asg142
Vtradeideas
p2094
sasg35
(lp2095
(dp2096
g85
Vhttps://t.co/PwCoycza52
p2097
sg155
(lp2098
I23
aI46
asg166
Vhttp://dlvr.it/CgZSDJ
p2099
sg168
Vdlvr.it/CgZSDJ
p2100
sassg170
Nsg171
Nsg172
I0
sg57
V662881333979426817
p2101
sg174
I00
sg175
g2046
sg176
Nsg177
Nsg178
I00
sg78
g2063
sg86
VSat Nov 07 06:36:40 +0000 2015
p2102
sg180
Nsg181
Nsg182
(dp2103
g184
Vtr
p2104
sg186
Vrecent
p2105
sssg188
g2103
sg189
Nsg190
Nsg31
g2070
sg191
Nsg192
Nsg98
g2101
sg193
I00
sg194
Nsg195
I0
sg196
Nsbag0
(g4
g5
Ntp2106
Rp2107
(dp2108
g9
I00
sg10
Nsg11
I00
sg12
VThen there's $CELG $ACAD $ADRO $CMRX  $ITCI $CNCE $DERM $RDUS \u000a$RARE $ONTY $TGTX $SAGE $SGYP $PTLA $NVTA $XON $DBVT Biotechnology Innovation
p2109
sg14
Vhttp://twitter.com
p2110
sg17
I00
sg18
Nsg19
g0
(g20
g5
Ntp2111
Rp2112
(dp2113
g24
I00
sg25
I00
sg26
I01
sg27
VDDEEF6
p2114
sg29
L3943627812L
sg30
I00
sg31
(dp2115
g33
(dp2116
g35
(lp2117
sssg37
Vhttps://pbs.twimg.com/profile_images/662844098500386816/803OY2Af_normal.jpg
p2118
sg39
(dp2119
g41
I00
sg42
I00
sg43
I01
sg44
I00
sg45
L3943627812L
sg46
Vhttps://abs.twimg.com/images/themes/theme1/bg.png
p2120
sg48
I00
sg49
V333333
p2121
sg51
g2118
sg52
g2114
sg53
g2115
sg54
I3
sg55
VC0DEED
p2122
sg57
V3943627812
p2123
sg59
VC0DEED
p2124
sg61
I1
sg62
I00
sg63
Nsg64
I18
sg33
g65
sg66
I0
sg67
g65
sg68
V0084B4
p2125
sg70
Vhttp://pbs.twimg.com/profile_images/662844098500386816/803OY2Af_normal.jpg
p2126
sg72
I00
sg73
I00
sg74
Vhttp://abs.twimg.com/images/themes/theme1/bg.png
p2127
sg76
VForever_DNA
p2128
sg78
Ven
p2129
sg80
I00
sg81
I0
sg82
VForever DNA
p2130
sg84
I00
sg85
Nsg86
VMon Oct 19 05:31:44 +0000 2015
p2131
sg88
I00
sg89
Nsg91
I00
sg92
I01
sg93
I00
ssg94
I00
sg95
g2121
sg96
I3
sg97
g2122
sg98
g2123
sg99
I00
sg100
I1
sg101
I00
sg102
Nsg103
I18
sg104
g65
sg105
I0
sg106
g65
sg107
g2125
sg108
g2126
sg109
I00
sg110
I00
sg111
g2124
sg112
g2127
sg113
g2128
sg114
g2129
sg115
I00
sg116
I00
sg117
I0
sg118
g2130
sg119
Nsg120
g121
(S'\x07\xdf\n\x13\x05\x1f,\x00\x00\x00'
p2132
tp2133
Rp2134
sg125
g2120
sg126
Nsg127
I00
sg128
I01
sg129
I00
sbsg130
Nsg29
L662841703657705472L
sg131
I0
sg132
VTwitter Web Client
p2135
sg114
Ven
p2136
sg135
g2112
sg120
g121
(S'\x07\xdf\x0b\x07\x03;\x0b\x00\x00\x00'
p2137
tp2138
Rp2139
sg39
(dp2140
g140
Nsg141
I00
sg142
VThen there's $CELG $ACAD $ADRO $CMRX  $ITCI $CNCE $DERM $RDUS \u000a$RARE $ONTY $TGTX $SAGE $SGYP $PTLA $NVTA $XON $DBVT Biotechnology Innovation
p2141
sg144
I00
sg145
Nsg45
L662841703657705472L
sg146
I0
sg147
V<a href="http://twitter.com" rel="nofollow">Twitter Web Client</a>
p2142
sg149
I00
sg150
Nsg53
(dp2143
g152
(lp2144
(dp2145
g155
(lp2146
I13
aI18
asg142
VCELG
p2147
sa(dp2148
g155
(lp2149
I19
aI24
asg142
VACAD
p2150
sa(dp2151
g155
(lp2152
I25
aI30
asg142
VADRO
p2153
sa(dp2154
g155
(lp2155
I31
aI36
asg142
VCMRX
p2156
sa(dp2157
g155
(lp2158
I38
aI43
asg142
VITCI
p2159
sa(dp2160
g155
(lp2161
I44
aI49
asg142
VCNCE
p2162
sa(dp2163
g155
(lp2164
I50
aI55
asg142
VDERM
p2165
sa(dp2166
g155
(lp2167
I56
aI61
asg142
VRDUS
p2168
sa(dp2169
g155
(lp2170
I63
aI68
asg142
VRARE
p2171
sa(dp2172
g155
(lp2173
I69
aI74
asg142
VONTY
p2174
sa(dp2175
g155
(lp2176
I75
aI80
asg142
VTGTX
p2177
sa(dp2178
g155
(lp2179
I81
aI86
asg142
VSAGE
p2180
sa(dp2181
g155
(lp2182
I87
aI92
asg142
VSGYP
p2183
sa(dp2184
g155
(lp2185
I93
aI98
asg142
VPTLA
p2186
sa(dp2187
g155
(lp2188
I99
aI104
asg142
VNVTA
p2189
sa(dp2190
g155
(lp2191
I105
aI109
asg142
VXON
p2192
sa(dp2193
g155
(lp2194
I110
aI115
asg142
VDBVT
p2195
sasg158
(lp2196
sg160
(lp2197
sg35
(lp2198
ssg170
Nsg171
Nsg172
I0
sg57
V662841703657705472
p2199
sg174
I00
sg175
g2119
sg176
Nsg177
Nsg78
g2136
sg86
VSat Nov 07 03:59:11 +0000 2015
p2200
sg180
Nsg181
Nsg182
(dp2201
g184
Ven
p2202
sg186
Vrecent
p2203
sssg188
g2201
sg189
Nsg190
Nsg31
g2143
sg191
Nsg192
Nsg98
g2199
sg193
I00
sg194
Nsg195
I0
sg196
Nsbag0
(g4
g5
Ntp2204
Rp2205
(dp2206
g9
I00
sg10
Nsg11
I00
sg12
V$DERM:\u000a\u000aDermira, Inc. (NASDAQ:DERM) Shares Given $37.333 Price Target:\u000a\u000ahttps://t.co/KoQVZVvE2n
p2207
sg14
Vhttp://www.newsflowing.com
p2208
sg16
I00
sg17
I00
sg18
Nsg19
g0
(g20
g5
Ntp2209
Rp2210
(dp2211
g24
I00
sg25
I00
sg26
I01
sg27
VE6F6F9
p2212
sg29
L2342215530L
sg30
I00
sg31
(dp2213
g33
(dp2214
g35
(lp2215
sssg37
Vhttps://pbs.twimg.com/profile_images/544036492876591104/7QJIB-XK_normal.jpeg
p2216
sg39
(dp2217
g41
I00
sg42
I00
sg43
I01
sg44
I00
sg45
L2342215530L
sg46
Vhttps://abs.twimg.com/images/themes/theme17/bg.gif
p2218
sg48
I00
sg49
V333333
p2219
sg51
g2216
sg52
g2212
sg53
g2213
sg54
I465
sg55
VDBE9ED
p2220
sg57
V2342215530
p2221
sg59
VDBE9ED
p2222
sg61
I89
sg62
I00
sg63
I-14400
sg64
I193001
sg33
g65
sg66
I0
sg67
g65
sg68
VCC3366
p2223
sg70
Vhttp://pbs.twimg.com/profile_images/544036492876591104/7QJIB-XK_normal.jpeg
p2224
sg72
I00
sg73
I00
sg74
Vhttp://abs.twimg.com/images/themes/theme17/bg.gif
p2225
sg76
Vnewswithvalue
p2226
sg78
Ven
p2227
sg80
I00
sg81
I0
sg82
VBreaking News Now
p2228
sg84
I00
sg85
Nsg86
VThu Feb 13 16:14:12 +0000 2014
p2229
sg88
I00
sg89
VAtlantic Time (Canada)
p2230
sg91
I00
sg92
I00
sg93
I00
ssg94
I00
sg95
g2219
sg96
I465
sg97
g2220
sg98
g2221
sg99
I00
sg100
I89
sg101
I00
sg102
I-14400
sg103
I193001
sg104
g65
sg105
I0
sg106
g65
sg107
g2223
sg108
g2224
sg109
I00
sg110
I00
sg111
g2222
sg112
g2225
sg113
g2226
sg114
g2227
sg115
I00
sg116
I00
sg117
I0
sg118
g2228
sg119
Nsg120
g121
(S'\x07\xde\x02\r\x10\x0e\x0c\x00\x00\x00'
p2231
tp2232
Rp2233
sg125
g2218
sg126
g2230
sg127
I00
sg128
I00
sg129
I00
sbsg130
Nsg29
L662352463643676672L
sg131
I0
sg132
VNFIG
p2234
sg114
Ven
p2235
sg135
g2210
sg120
g121
(S'\x07\xdf\x0b\x05\x13#\x07\x00\x00\x00'
p2236
tp2237
Rp2238
sg39
(dp2239
g140
Nsg141
I00
sg142
V$DERM:\u000a\u000aDermira, Inc. (NASDAQ:DERM) Shares Given $37.333 Price Target:\u000a\u000ahttps://t.co/KoQVZVvE2n
p2240
sg144
I00
sg145
Nsg45
L662352463643676672L
sg146
I0
sg147
V<a href="http://www.newsflowing.com" rel="nofollow">NFIG</a>
p2241
sg149
I00
sg150
Nsg53
(dp2242
g152
(lp2243
(dp2244
g155
(lp2245
I0
aI5
asg142
VDERM
p2246
sasg158
(lp2247
sg160
(lp2248
sg35
(lp2249
(dp2250
g85
Vhttps://t.co/KoQVZVvE2n
p2251
sg155
(lp2252
I72
aI95
asg166
Vhttp://StockNewsHour.com/derm-dermira-inc-nasdaqderm-shares-given-37-333-price-target/
p2253
sg168
VStockNewsHour.com/derm-dermira-i\u2026
p2254
sassg170
Nsg171
Nsg172
I0
sg57
V662352463643676672
p2255
sg174
I00
sg175
g2217
sg176
Nsg177
Nsg178
I00
sg78
g2235
sg86
VThu Nov 05 19:35:07 +0000 2015
p2256
sg180
Nsg181
Nsg182
(dp2257
g184
Ven
p2258
sg186
Vrecent
p2259
sssg188
g2257
sg189
Nsg190
Nsg31
g2242
sg191
Nsg192
Nsg98
g2255
sg193
I00
sg194
Nsg195
I0
sg196
Nsbag0
(g4
g5
Ntp2260
Rp2261
(dp2262
g9
I00
sg10
Nsg11
I00
sg12
VImp catalysts 4 MEIP &amp; CALA in d cmg week Here is DD 4 investors:https://t.co/lwSyWTxOEB $SFS $FWP $DERM $STDY $SKLN $GBT
p2263
sg14
Vhttp://twittimer.com
p2264
sg16
I00
sg17
I00
sg18
Nsg19
g0
(g20
g5
Ntp2265
Rp2266
(dp2267
g24
I00
sg25
I01
sg26
I00
sg27
V000000
p2268
sg29
L3518191635L
sg30
I00
sg31
(dp2269
g85
(dp2270
g35
(lp2271
(dp2272
g85
Vhttps://t.co/ot2Kl5nyub
p2273
sg155
(lp2274
I0
aI23
asg166
Vhttps://groups.google.com/forum/#!forum/jbem777
p2275
sg168
Vgroups.google.com/forum/#!forum/\u2026
p2276
sassg33
(dp2277
g35
(lp2278
sssg37
Vhttps://pbs.twimg.com/profile_images/638885869433196544/C975RWXJ_normal.jpg
p2279
sg39
(dp2280
g41
I00
sg42
I01
sg43
I00
sg44
I00
sg45
L3518191635L
sg46
Vhttps://abs.twimg.com/images/themes/theme1/bg.png
p2281
sg48
I00
sg49
V000000
p2282
sg51
g2279
sg52
g2268
sg53
g2269
sg54
I28
sg55
V000000
p2283
sg57
V3518191635
p2284
sg59
V000000
p2285
sg61
I1
sg62
I00
sg63
I-28800
sg64
I1505
sg33
VHealthcare Stocks
p2286
sg66
I25
sg67
g65
sg68
V89C9FA
p2287
sg70
Vhttp://pbs.twimg.com/profile_images/638885869433196544/C975RWXJ_normal.jpg
p2288
sg72
I00
sg73
I00
sg74
Vhttp://abs.twimg.com/images/themes/theme1/bg.png
p2289
sg76
Vjbemstocks
p2290
sg78
Ven
p2291
sg80
I00
sg81
I0
sg82
VDUE DILIGENCE
p2292
sg84
I00
sg85
Vhttps://t.co/ot2Kl5nyub
p2293
sg86
VWed Sep 02 01:23:46 +0000 2015
p2294
sg88
I00
sg89
VPacific Time (US & Canada)
p2295
sg91
I00
sg92
I00
sg93
I00
ssg94
I00
sg95
g2282
sg96
I28
sg97
g2283
sg98
g2284
sg99
I00
sg100
I1
sg101
I00
sg102
I-28800
sg103
I1505
sg104
g2286
sg105
I25
sg106
g65
sg107
g2287
sg108
g2288
sg109
I00
sg110
I00
sg111
g2285
sg112
g2289
sg113
g2290
sg114
g2291
sg115
I00
sg116
I00
sg117
I0
sg118
g2292
sg119
g2293
sg120
g121
(S'\x07\xdf\t\x02\x01\x17.\x00\x00\x00'
p2296
tp2297
Rp2298
sg125
g2281
sg126
g2295
sg127
I00
sg128
I00
sg129
I00
sbsg130
Nsg29
L662079408539172864L
sg131
I0
sg132
VTwittimer
p2299
sg114
Ven
p2300
sg135
g2266
sg120
g121
(S'\x07\xdf\x0b\x05\x01\x1e\x06\x00\x00\x00'
p2301
tp2302
Rp2303
sg39
(dp2304
g140
Nsg141
I00
sg142
g2263
sg144
I00
sg145
Nsg45
L662079408539172864L
sg146
I0
sg147
V<a href="http://twittimer.com" rel="nofollow">Twittimer</a>
p2305
sg149
I00
sg150
Nsg53
(dp2306
g152
(lp2307
(dp2308
g155
(lp2309
I93
aI97
asg142
VSFS
p2310
sa(dp2311
g155
(lp2312
I98
aI102
asg142
VFWP
p2313
sa(dp2314
g155
(lp2315
I103
aI108
asg142
VDERM
p2316
sa(dp2317
g155
(lp2318
I109
aI114
asg142
VSTDY
p2319
sa(dp2320
g155
(lp2321
I115
aI120
asg142
VSKLN
p2322
sa(dp2323
g155
(lp2324
I121
aI125
asg142
VGBT
p2325
sasg158
(lp2326
sg160
(lp2327
sg35
(lp2328
(dp2329
g85
Vhttps://t.co/lwSyWTxOEB
p2330
sg155
(lp2331
I69
aI92
asg166
Vhttp://bit.ly/1KjZ8cR
p2332
sg168
Vbit.ly/1KjZ8cR
p2333
sassg170
Nsg171
Nsg172
I0
sg57
V662079408539172864
p2334
sg174
I00
sg175
g2280
sg176
Nsg177
Nsg178
I00
sg78
g2300
sg86
VThu Nov 05 01:30:06 +0000 2015
p2335
sg180
Nsg181
Nsg182
(dp2336
g184
Ven
p2337
sg186
Vrecent
p2338
sssg188
g2336
sg189
Nsg190
Nsg31
g2306
sg191
Nsg192
Nsg98
g2334
sg193
I00
sg194
Nsg195
I0
sg196
Nsbag0
(g4
g5
Ntp2339
Rp2340
(dp2341
g9
I00
sg10
Nsg11
I00
sg12
VImp catalysts 4 MEIP &amp; CALA in d cmg week Here is DD 4 investors:https://t.co/lwSyWTxOEB $DEO $DEPO $DERM $DES $DEST $DEW $DEX $DF
p2342
sg14
Vhttp://twittimer.com
p2343
sg16
I00
sg17
I00
sg18
Nsg19
g0
(g20
g5
Ntp2344
Rp2345
(dp2346
g24
I00
sg25
I01
sg26
I00
sg27
V000000
p2347
sg29
L3518191635L
sg30
I00
sg31
(dp2348
g85
(dp2349
g35
(lp2350
(dp2351
g85
Vhttps://t.co/ot2Kl5nyub
p2352
sg155
(lp2353
I0
aI23
asg166
Vhttps://groups.google.com/forum/#!forum/jbem777
p2354
sg168
Vgroups.google.com/forum/#!forum/\u2026
p2355
sassg33
(dp2356
g35
(lp2357
sssg37
Vhttps://pbs.twimg.com/profile_images/638885869433196544/C975RWXJ_normal.jpg
p2358
sg39
(dp2359
g41
I00
sg42
I01
sg43
I00
sg44
I00
sg45
L3518191635L
sg46
Vhttps://abs.twimg.com/images/themes/theme1/bg.png
p2360
sg48
I00
sg49
V000000
p2361
sg51
g2358
sg52
g2347
sg53
g2348
sg54
I28
sg55
V000000
p2362
sg57
V3518191635
p2363
sg59
V000000
p2364
sg61
I1
sg62
I00
sg63
I-28800
sg64
I1505
sg33
VHealthcare Stocks
p2365
sg66
I25
sg67
g65
sg68
V89C9FA
p2366
sg70
Vhttp://pbs.twimg.com/profile_images/638885869433196544/C975RWXJ_normal.jpg
p2367
sg72
I00
sg73
I00
sg74
Vhttp://abs.twimg.com/images/themes/theme1/bg.png
p2368
sg76
Vjbemstocks
p2369
sg78
Ven
p2370
sg80
I00
sg81
I0
sg82
VDUE DILIGENCE
p2371
sg84
I00
sg85
Vhttps://t.co/ot2Kl5nyub
p2372
sg86
VWed Sep 02 01:23:46 +0000 2015
p2373
sg88
I00
sg89
VPacific Time (US & Canada)
p2374
sg91
I00
sg92
I00
sg93
I00
ssg94
I00
sg95
g2361
sg96
I28
sg97
g2362
sg98
g2363
sg99
I00
sg100
I1
sg101
I00
sg102
I-28800
sg103
I1505
sg104
g2365
sg105
I25
sg106
g65
sg107
g2366
sg108
g2367
sg109
I00
sg110
I00
sg111
g2364
sg112
g2368
sg113
g2369
sg114
g2370
sg115
I00
sg116
I00
sg117
I0
sg118
g2371
sg119
g2372
sg120
g121
(S'\x07\xdf\t\x02\x01\x17.\x00\x00\x00'
p2375
tp2376
Rp2377
sg125
g2360
sg126
g2374
sg127
I00
sg128
I00
sg129
I00
sbsg130
Nsg29
L662039632759033856L
sg131
I0
sg132
VTwittimer
p2378
sg114
Vfr
p2379
sg135
g2345
sg120
g121
(S'\x07\xdf\x0b\x04\x164\x03\x00\x00\x00'
p2380
tp2381
Rp2382
sg39
(dp2383
g140
Nsg141
I00
sg142
g2342
sg144
I00
sg145
Nsg45
L662039632759033856L
sg146
I0
sg147
V<a href="http://twittimer.com" rel="nofollow">Twittimer</a>
p2384
sg149
I00
sg150
Nsg53
(dp2385
g152
(lp2386
(dp2387
g155
(lp2388
I93
aI97
asg142
VDEO
p2389
sa(dp2390
g155
(lp2391
I98
aI103
asg142
VDEPO
p2392
sa(dp2393
g155
(lp2394
I104
aI109
asg142
VDERM
p2395
sa(dp2396
g155
(lp2397
I110
aI114
asg142
VDES
p2398
sa(dp2399
g155
(lp2400
I115
aI120
asg142
VDEST
p2401
sa(dp2402
g155
(lp2403
I121
aI125
asg142
VDEW
p2404
sa(dp2405
g155
(lp2406
I126
aI130
asg142
VDEX
p2407
sa(dp2408
g155
(lp2409
I131
aI134
asg142
VDF
p2410
sasg158
(lp2411
sg160
(lp2412
sg35
(lp2413
(dp2414
g85
Vhttps://t.co/lwSyWTxOEB
p2415
sg155
(lp2416
I69
aI92
asg166
Vhttp://bit.ly/1KjZ8cR
p2417
sg168
Vbit.ly/1KjZ8cR
p2418
sassg170
Nsg171
Nsg172
I0
sg57
V662039632759033856
p2419
sg174
I00
sg175
g2359
sg176
Nsg177
Nsg178
I00
sg78
g2379
sg86
VWed Nov 04 22:52:03 +0000 2015
p2420
sg180
Nsg181
Nsg182
(dp2421
g184
Vfr
p2422
sg186
Vrecent
p2423
sssg188
g2421
sg189
Nsg190
Nsg31
g2385
sg191
Nsg192
Nsg98
g2419
sg193
I00
sg194
Nsg195
I0
sg196
Nsbag0
(g4
g5
Ntp2424
Rp2425
(dp2426
g9
I00
sg10
Nsg11
I00
sg12
VInsider Selling: Dermira insider Eugene A. Bauer Sells 2,500 Shares of Stock $DERM https://t.co/Y6Vq78jxIc
p2427
sg14
Vhttp://ifttt.com
p2428
sg16
I00
sg17
I00
sg18
Nsg19
g0
(g20
g5
Ntp2429
Rp2430
(dp2431
g24
I00
sg25
I00
sg26
I01
sg27
VDDEEF6
p2432
sg29
L2348716116L
sg30
I00
sg31
(dp2433
g33
(dp2434
g35
(lp2435
sssg37
Vhttps://pbs.twimg.com/profile_images/435451774560780288/FFoDLORK_normal.jpeg
p2436
sg39
(dp2437
g41
I00
sg42
I00
sg43
I01
sg44
I00
sg45
L2348716116L
sg46
Vhttps://abs.twimg.com/images/themes/theme1/bg.png
p2438
sg48
I00
sg49
V333333
p2439
sg51
g2436
sg52
g2432
sg53
g2433
sg54
I2013
sg55
VC0DEED
p2440
sg57
V2348716116
p2441
sg59
VC0DEED
p2442
sg61
I44
sg62
I00
sg63
Nsg64
I161080
sg33
VThe Legacy is your news leader for headlines at the local, state and national level.
p2443
sg66
I11
sg67
g65
sg68
V0084B4
p2444
sg70
Vhttp://pbs.twimg.com/profile_images/435451774560780288/FFoDLORK_normal.jpeg
p2445
sg72
I00
sg73
I00
sg74
Vhttp://abs.twimg.com/images/themes/theme1/bg.png
p2446
sg76
Vthelegacynewswi
p2447
sg78
Ven
p2448
sg80
I00
sg81
I0
sg82
VThe Legacy News
p2449
sg84
I00
sg85
Nsg86
VMon Feb 17 16:19:38 +0000 2014
p2450
sg88
I00
sg89
Nsg91
I00
sg92
I01
sg93
I00
ssg94
I00
sg95
g2439
sg96
I2013
sg97
g2440
sg98
g2441
sg99
I00
sg100
I44
sg101
I00
sg102
Nsg103
I161080
sg104
g2443
sg105
I11
sg106
g65
sg107
g2444
sg108
g2445
sg109
I00
sg110
I00
sg111
g2442
sg112
g2446
sg113
g2447
sg114
g2448
sg115
I00
sg116
I00
sg117
I0
sg118
g2449
sg119
Nsg120
g121
(S'\x07\xde\x02\x11\x10\x13&\x00\x00\x00'
p2451
tp2452
Rp2453
sg125
g2438
sg126
Nsg127
I00
sg128
I01
sg129
I00
sbsg130
Nsg29
L662015863827136512L
sg131
I0
sg132
VIFTTT
p2454
sg114
Vde
p2455
sg135
g2430
sg120
g121
(S'\x07\xdf\x0b\x04\x15\x11$\x00\x00\x00'
p2456
tp2457
Rp2458
sg39
(dp2459
g140
Nsg141
I00
sg142
g2427
sg144
I00
sg145
Nsg45
L662015863827136512L
sg146
I0
sg147
V<a href="http://ifttt.com" rel="nofollow">IFTTT</a>
p2460
sg149
I00
sg150
Nsg53
(dp2461
g152
(lp2462
(dp2463
g155
(lp2464
I77
aI82
asg142
VDERM
p2465
sasg158
(lp2466
sg160
(lp2467
sg35
(lp2468
(dp2469
g85
Vhttps://t.co/Y6Vq78jxIc
p2470
sg155
(lp2471
I83
aI106
asg166
Vhttp://ift.tt/1GM5uaq
p2472
sg168
Vift.tt/1GM5uaq
p2473
sassg170
Nsg171
Nsg172
I0
sg57
V662015863827136512
p2474
sg174
I00
sg175
g2437
sg176
Nsg177
Nsg178
I00
sg78
g2455
sg86
VWed Nov 04 21:17:36 +0000 2015
p2475
sg180
Nsg181
Nsg182
(dp2476
g184
Vde
p2477
sg186
Vrecent
p2478
sssg188
g2476
sg189
Nsg190
Nsg31
g2461
sg191
Nsg192
Nsg98
g2474
sg193
I00
sg194
Nsg195
I0
sg196
Nsbag0
(g4
g5
Ntp2479
Rp2480
(dp2481
g9
I00
sg10
Nsg11
I00
sg12
VInsider Selling: Eugene A. Bauer Sells 2,500 Shares of Dermira Stock $DERM https://t.co/ZZ3Q35XZtO
p2482
sg14
Vhttp://ifttt.com
p2483
sg16
I00
sg17
I00
sg18
Nsg19
g0
(g20
g5
Ntp2484
Rp2485
(dp2486
g24
I00
sg25
I00
sg26
I01
sg27
VC0DFEC
p2487
sg29
L2181281054L
sg30
I00
sg31
(dp2488
g85
(dp2489
g35
(lp2490
(dp2491
g85
Vhttp://t.co/NYpmdUJnIe
p2492
sg155
(lp2493
I0
aI22
asg166
Vhttp://www.wkrb13.com
p2494
sg168
Vwkrb13.com
p2495
sassg33
(dp2496
g35
(lp2497
(dp2498
g85
Vhttp://t.co/n4QyKK8afr
p2499
sg155
(lp2500
I31
aI53
asg166
Vhttp://WKRB13.com
p2501
sg168
VWKRB13.com
p2502
sasssg37
Vhttps://pbs.twimg.com/profile_images/378800000709495912/4d5b1653db87aeb8c4685ea3febc9ab0_normal.png
p2503
sg39
(dp2504
g41
I00
sg42
I00
sg43
I01
sg44
I00
sg45
L2181281054L
sg46
Vhttps://abs.twimg.com/images/themes/theme15/bg.png
p2505
sg48
I00
sg49
V333333
p2506
sg51
g2503
sg52
g2487
sg53
g2488
sg54
I506
sg55
VA8C7F7
p2507
sg57
V2181281054
p2508
sg59
V022330
p2509
sg61
I73
sg62
I00
sg63
Nsg64
I299436
sg33
VWKRB News - News and Analysis. http://t.co/n4QyKK8afr
p2510
sg66
I8
sg67
g65
sg68
V0084B4
p2511
sg70
Vhttp://pbs.twimg.com/profile_images/378800000709495912/4d5b1653db87aeb8c4685ea3febc9ab0_normal.png
p2512
sg72
I00
sg73
I00
sg74
Vhttp://abs.twimg.com/images/themes/theme15/bg.png
p2513
sg76
VWKRBNews
p2514
sg78
Ven
p2515
sg80
I00
sg81
I0
sg82
VWKRB News
p2516
sg84
I00
sg85
Vhttp://t.co/NYpmdUJnIe
p2517
sg86
VFri Nov 08 02:17:02 +0000 2013
p2518
sg88
I00
sg89
Nsg91
I00
sg92
I00
sg93
I00
ssg94
I00
sg95
g2506
sg96
I506
sg97
g2507
sg98
g2508
sg99
I00
sg100
I73
sg101
I00
sg102
Nsg103
I299436
sg104
g2510
sg105
I8
sg106
g65
sg107
g2511
sg108
g2512
sg109
I00
sg110
I00
sg111
g2509
sg112
g2513
sg113
g2514
sg114
g2515
sg115
I00
sg116
I00
sg117
I0
sg118
g2516
sg119
g2517
sg120
g121
(S'\x07\xdd\x0b\x08\x02\x11\x02\x00\x00\x00'
p2519
tp2520
Rp2521
sg125
g2505
sg126
Nsg127
I00
sg128
I00
sg129
I00
sbsg130
Nsg29
L662015056280965120L
sg131
I0
sg132
VIFTTT
p2522
sg114
Vde
p2523
sg135
g2485
sg120
g121
(S'\x07\xdf\x0b\x04\x15\x0e\x17\x00\x00\x00'
p2524
tp2525
Rp2526
sg39
(dp2527
g140
Nsg141
I00
sg142
g2482
sg144
I00
sg145
Nsg45
L662015056280965120L
sg146
I0
sg147
V<a href="http://ifttt.com" rel="nofollow">IFTTT</a>
p2528
sg149
I00
sg150
Nsg53
(dp2529
g152
(lp2530
(dp2531
g155
(lp2532
I69
aI74
asg142
VDERM
p2533
sasg158
(lp2534
sg160
(lp2535
sg35
(lp2536
(dp2537
g85
Vhttps://t.co/ZZ3Q35XZtO
p2538
sg155
(lp2539
I75
aI98
asg166
Vhttp://ift.tt/1MAAaY9
p2540
sg168
Vift.tt/1MAAaY9
p2541
sassg170
Nsg171
Nsg172
I0
sg57
V662015056280965120
p2542
sg174
I00
sg175
g2504
sg176
Nsg177
Nsg178
I00
sg78
g2523
sg86
VWed Nov 04 21:14:23 +0000 2015
p2543
sg180
Nsg181
Nsg182
(dp2544
g184
Vde
p2545
sg186
Vrecent
p2546
sssg188
g2544
sg189
Nsg190
Nsg31
g2529
sg191
Nsg192
Nsg98
g2542
sg193
I00
sg194
Nsg195
I0
sg196
Nsbag0
(g4
g5
Ntp2547
Rp2548
(dp2549
g9
I00
sg10
Nsg11
I00
sg12
VDermira insider Eugene A. Bauer Sells 2,500 Shares $DERM https://t.co/tWDIQdd3rk
p2550
sg14
Vhttp://ifttt.com
p2551
sg16
I00
sg17
I00
sg18
Nsg19
g0
(g20
g5
Ntp2552
Rp2553
(dp2554
g24
I00
sg25
I00
sg26
I01
sg27
VEFEFEF
p2555
sg29
I1979190776
sg30
I00
sg31
(dp2556
g33
(dp2557
g35
(lp2558
sssg37
Vhttps://pbs.twimg.com/profile_images/378800000629011324/02a58ce4852fa2c0b053a8853393c35c_normal.png
p2559
sg39
(dp2560
g41
I00
sg42
I00
sg43
I01
sg44
I00
sg45
I1979190776
sg46
Vhttps://abs.twimg.com/images/themes/theme14/bg.gif
p2561
sg48
I00
sg49
V333333
p2562
sg51
g2559
sg52
g2555
sg53
g2556
sg54
I780
sg55
VEEEEEE
p2563
sg57
V1979190776
p2564
sg59
V131516
p2565
sg61
I83
sg62
I00
sg63
Nsg64
I347263
sg33
VMarket moving news
p2566
sg66
I11
sg67
VVirginia
p2567
sg68
V009999
p2568
sg70
Vhttp://pbs.twimg.com/profile_images/378800000629011324/02a58ce4852fa2c0b053a8853393c35c_normal.png
p2569
sg72
I00
sg73
I00
sg74
Vhttp://abs.twimg.com/images/themes/theme14/bg.gif
p2570
sg76
VTickerReport
p2571
sg78
Ven
p2572
sg80
I01
sg81
I0
sg82
VTicker Report
p2573
sg84
I00
sg85
Nsg86
VMon Oct 21 15:58:27 +0000 2013
p2574
sg88
I00
sg89
Nsg91
I00
sg92
I00
sg93
I00
ssg94
I00
sg95
g2562
sg96
I780
sg97
g2563
sg98
g2564
sg99
I00
sg100
I83
sg101
I00
sg102
Nsg103
I347263
sg104
g2566
sg105
I11
sg106
g2567
sg107
g2568
sg108
g2569
sg109
I00
sg110
I00
sg111
g2565
sg112
g2570
sg113
g2571
sg114
g2572
sg115
I00
sg116
I01
sg117
I0
sg118
g2573
sg119
Nsg120
g121
(S'\x07\xdd\n\x15\x0f:\x1b\x00\x00\x00'
p2575
tp2576
Rp2577
sg125
g2561
sg126
Nsg127
I00
sg128
I00
sg129
I00
sbsg130
Nsg29
L661738806870155264L
sg131
I0
sg132
VIFTTT
p2578
sg114
Vde
p2579
sg135
g2553
sg120
g121
(S'\x07\xdf\x0b\x04\x028(\x00\x00\x00'
p2580
tp2581
Rp2582
sg39
(dp2583
g140
Nsg141
I00
sg142
g2550
sg144
I00
sg145
Nsg45
L661738806870155264L
sg146
I0
sg147
V<a href="http://ifttt.com" rel="nofollow">IFTTT</a>
p2584
sg149
I00
sg150
Nsg53
(dp2585
g152
(lp2586
(dp2587
g155
(lp2588
I51
aI56
asg142
VDERM
p2589
sasg158
(lp2590
sg160
(lp2591
sg35
(lp2592
(dp2593
g85
Vhttps://t.co/tWDIQdd3rk
p2594
sg155
(lp2595
I57
aI80
asg166
Vhttp://ift.tt/1RQRKLV
p2596
sg168
Vift.tt/1RQRKLV
p2597
sassg170
Nsg171
Nsg172
I0
sg57
V661738806870155264
p2598
sg174
I00
sg175
g2560
sg176
Nsg177
Nsg178
I00
sg78
g2579
sg86
VWed Nov 04 02:56:40 +0000 2015
p2599
sg180
Nsg181
Nsg182
(dp2600
g184
Vde
p2601
sg186
Vrecent
p2602
sssg188
g2600
sg189
Nsg190
Nsg31
g2585
sg191
Nsg192
Nsg98
g2598
sg193
I00
sg194
Nsg195
I0
sg196
Nsbag0
(g4
g5
Ntp2603
Rp2604
(dp2605
g9
I00
sg10
Nsg11
I00
sg12
VDermira insider Eugene A. Bauer Sells 2,500 Shares $DERM https://t.co/RaglNXw3EY
p2606
sg14
Vhttp://ifttt.com
p2607
sg16
I00
sg17
I00
sg18
Nsg19
g0
(g20
g5
Ntp2608
Rp2609
(dp2610
g24
I00
sg25
I00
sg26
I01
sg27
VCCDAFF
p2611
sg29
I61661638
sg30
I00
sg31
(dp2612
g85
(dp2613
g35
(lp2614
(dp2615
g85
Vhttp://t.co/7EZswS49Q1
p2616
sg155
(lp2617
I0
aI22
asg166
Vhttp://www.americanbankingnews.com/
p2618
sg168
Vamericanbankingnews.com
p2619
sassg33
(dp2620
g35
(lp2621
sssg37
Vhttps://pbs.twimg.com/profile_images/541252987/Image5_normal.jpg
p2622
sg39
(dp2623
g41
I00
sg42
I00
sg43
I01
sg44
I00
sg45
I61661638
sg46
Vhttps://pbs.twimg.com/profile_background_images/55647305/background.png
p2624
sg48
I00
sg49
V141414
p2625
sg51
g2622
sg52
g2611
sg53
g2612
sg54
I5557
sg55
VABB1D9
p2626
sg57
V61661638
p2627
sg59
V000000
p2628
sg61
I469
sg62
I00
sg63
I-21600
sg64
I693975
sg33
VBanks, Credit Unions & Financial Institutions
p2629
sg66
I2307
sg67
VSioux Falls, SD
p2630
sg68
VA60000
p2631
sg70
Vhttp://pbs.twimg.com/profile_images/541252987/Image5_normal.jpg
p2632
sg72
I00
sg73
I00
sg74
Vhttp://pbs.twimg.com/profile_background_images/55647305/background.png
p2633
sg76
VAmericanBanking
p2634
sg78
Ven
p2635
sg80
I01
sg81
I0
sg82
VUS Banking News
p2636
sg84
I00
sg85
Vhttp://t.co/7EZswS49Q1
p2637
sg86
VFri Jul 31 01:58:33 +0000 2009
p2638
sg88
I00
sg89
VCentral Time (US & Canada)
p2639
sg91
I00
sg92
I00
sg93
I00
ssg94
I00
sg95
g2625
sg96
I5557
sg97
g2626
sg98
g2627
sg99
I00
sg100
I469
sg101
I00
sg102
I-21600
sg103
I693975
sg104
g2629
sg105
I2307
sg106
g2630
sg107
g2631
sg108
g2632
sg109
I00
sg110
I00
sg111
g2628
sg112
g2633
sg113
g2634
sg114
g2635
sg115
I00
sg116
I01
sg117
I0
sg118
g2636
sg119
g2637
sg120
g121
(S'\x07\xd9\x07\x1f\x01:!\x00\x00\x00'
p2640
tp2641
Rp2642
sg125
g2624
sg126
g2639
sg127
I00
sg128
I00
sg129
I00
sbsg130
Nsg29
L661738347849740289L
sg131
I0
sg132
VIFTTT
p2643
sg114
Vde
p2644
sg135
g2609
sg120
g121
(S'\x07\xdf\x0b\x04\x0263\x00\x00\x00'
p2645
tp2646
Rp2647
sg39
(dp2648
g140
Nsg141
I00
sg142
g2606
sg144
I00
sg145
Nsg45
L661738347849740289L
sg146
I0
sg147
V<a href="http://ifttt.com" rel="nofollow">IFTTT</a>
p2649
sg149
I00
sg150
Nsg53
(dp2650
g152
(lp2651
(dp2652
g155
(lp2653
I51
aI56
asg142
VDERM
p2654
sasg158
(lp2655
sg160
(lp2656
sg35
(lp2657
(dp2658
g85
Vhttps://t.co/RaglNXw3EY
p2659
sg155
(lp2660
I57
aI80
asg166
Vhttp://ift.tt/1RQRKLV
p2661
sg168
Vift.tt/1RQRKLV
p2662
sassg170
Nsg171
Nsg172
I0
sg57
V661738347849740289
p2663
sg174
I00
sg175
g2623
sg176
Nsg177
Nsg178
I00
sg78
g2644
sg86
VWed Nov 04 02:54:51 +0000 2015
p2664
sg180
Nsg181
Nsg182
(dp2665
g184
Vde
p2666
sg186
Vrecent
p2667
sssg188
g2665
sg189
Nsg190
Nsg31
g2650
sg191
Nsg192
Nsg98
g2663
sg193
I00
sg194
Nsg195
I0
sg196
Nsbag0
(g4
g5
Ntp2668
Rp2669
(dp2670
g9
I00
sg10
Nsg11
I00
sg12
V$DERM:\u000a\u000aDermira Given Average Rating of \u201cBuy\u201d by Brokerages (NASDAQ \u2026:\u000a\u000ahttps://t.co/81831b5D7T
p2671
sg14
Vhttp://www.newsflowing.com
p2672
sg16
I00
sg17
I00
sg18
Nsg19
g0
(g20
g5
Ntp2673
Rp2674
(dp2675
g24
I00
sg25
I00
sg26
I01
sg27
VDDFFCC
p2676
sg29
L2342763212L
sg30
I00
sg31
(dp2677
g33
(dp2678
g35
(lp2679
sssg37
Vhttps://pbs.twimg.com/profile_images/544036701056684032/FY2Xgs7b_normal.jpeg
p2680
sg39
(dp2681
g41
I00
sg42
I00
sg43
I01
sg44
I00
sg45
L2342763212L
sg46
Vhttps://abs.twimg.com/images/themes/theme16/bg.gif
p2682
sg48
I00
sg49
V333333
p2683
sg51
g2680
sg52
g2676
sg53
g2677
sg54
I421
sg55
VBDDCAD
p2684
sg57
V2342763212
p2685
sg59
V9AE4E8
p2686
sg61
I74
sg62
I00
sg63
I-14400
sg64
I193980
sg33
VNews as it happens
p2687
sg66
I0
sg67
VUS
p2688
sg68
V0084B4
p2689
sg70
Vhttp://pbs.twimg.com/profile_images/544036701056684032/FY2Xgs7b_normal.jpeg
p2690
sg72
I00
sg73
I00
sg74
Vhttp://abs.twimg.com/images/themes/theme16/bg.gif
p2691
sg76
Vnewswelldone
p2692
sg78
Ven
p2693
sg80
I00
sg81
I0
sg82
VBreaking News
p2694
sg84
I00
sg85
Nsg86
VFri Feb 14 00:21:52 +0000 2014
p2695
sg88
I00
sg89
VAtlantic Time (Canada)
p2696
sg91
I00
sg92
I00
sg93
I00
ssg94
I00
sg95
g2683
sg96
I421
sg97
g2684
sg98
g2685
sg99
I00
sg100
I74
sg101
I00
sg102
I-14400
sg103
I193980
sg104
g2687
sg105
I0
sg106
g2688
sg107
g2689
sg108
g2690
sg109
I00
sg110
I00
sg111
g2686
sg112
g2691
sg113
g2692
sg114
g2693
sg115
I00
sg116
I00
sg117
I0
sg118
g2694
sg119
Nsg120
g121
(S'\x07\xde\x02\x0e\x00\x154\x00\x00\x00'
p2697
tp2698
Rp2699
sg125
g2682
sg126
g2696
sg127
I00
sg128
I00
sg129
I00
sbsg130
Nsg29
L661669973224501248L
sg131
I0
sg132
VNFIG
p2700
sg114
Ven
p2701
sg135
g2674
sg120
g121
(S'\x07\xdf\x0b\x03\x16\x17\t\x00\x00\x00'
p2702
tp2703
Rp2704
sg39
(dp2705
g140
Nsg141
I00
sg142
V$DERM:\u000a\u000aDermira Given Average Rating of \u201cBuy\u201d by Brokerages (NASDAQ \u2026:\u000a\u000ahttps://t.co/81831b5D7T
p2706
sg144
I00
sg145
Nsg45
L661669973224501248L
sg146
I0
sg147
V<a href="http://www.newsflowing.com" rel="nofollow">NFIG</a>
p2707
sg149
I00
sg150
Nsg53
(dp2708
g152
(lp2709
(dp2710
g155
(lp2711
I0
aI5
asg142
VDERM
p2712
sasg158
(lp2713
sg160
(lp2714
sg35
(lp2715
(dp2716
g85
Vhttps://t.co/81831b5D7T
p2717
sg155
(lp2718
I72
aI95
asg166
Vhttp://StockNewsHour.com/derm-dermira-given-average-rating-of-buy-by-brokerages-nasdaq/
p2719
sg168
VStockNewsHour.com/derm-dermira-g\u2026
p2720
sassg170
Nsg171
Nsg172
I0
sg57
V661669973224501248
p2721
sg174
I00
sg175
g2681
sg176
Nsg177
Nsg178
I00
sg78
g2701
sg86
VTue Nov 03 22:23:09 +0000 2015
p2722
sg180
Nsg181
Nsg182
(dp2723
g184
Ven
p2724
sg186
Vrecent
p2725
sssg188
g2723
sg189
Nsg190
Nsg31
g2708
sg191
Nsg192
Nsg98
g2721
sg193
I00
sg194
Nsg195
I0
sg196
Nsbag0
(g4
g5
Ntp2726
Rp2727
(dp2728
g9
I00
sg10
Nsg11
I00
sg12
V$DERM:\u000a\u000aNew Insider Transaction on DERM by Chief Medical Officer:\u000a\u000ahttps://t.co/odGuNHIN87
p2729
sg14
Vhttp://www.stocknewswires.com
p2730
sg16
I00
sg17
I00
sg18
Nsg19
g0
(g20
g5
Ntp2731
Rp2732
(dp2733
g24
I00
sg25
I00
sg26
I01
sg27
VDAECF4
p2734
sg29
L2341445778L
sg30
I00
sg31
(dp2735
g33
(dp2736
g35
(lp2737
sssg37
Vhttps://pbs.twimg.com/profile_images/542238326397227008/UfZ0ulTf_normal.jpeg
p2738
sg39
(dp2739
g41
I00
sg42
I00
sg43
I01
sg44
I00
sg45
L2341445778L
sg46
Vhttps://abs.twimg.com/images/themes/theme2/bg.gif
p2740
sg48
I00
sg49
V663B12
p2741
sg51
g2738
sg52
g2734
sg53
g2735
sg54
I660
sg55
VC6E2EE
p2742
sg57
V2341445778
p2743
sg59
VC6E2EE
p2744
sg61
I107
sg62
I00
sg63
I-14400
sg64
I236872
sg33
VInvest like a fish
p2745
sg66
I9
sg67
VUnited States
p2746
sg68
V1F98C7
p2747
sg70
Vhttp://pbs.twimg.com/profile_images/542238326397227008/UfZ0ulTf_normal.jpeg
p2748
sg72
I00
sg73
I00
sg74
Vhttp://abs.twimg.com/images/themes/theme2/bg.gif
p2749
sg76
VStockNewsWires
p2750
sg78
Ven
p2751
sg80
I00
sg81
I0
sg82
VStockNewsWires
p2752
sg84
I00
sg85
Nsg86
VThu Feb 13 05:31:52 +0000 2014
p2753
sg88
I00
sg89
VAtlantic Time (Canada)
p2754
sg91
I00
sg92
I00
sg93
I00
ssg94
I00
sg95
g2741
sg96
I660
sg97
g2742
sg98
g2743
sg99
I00
sg100
I107
sg101
I00
sg102
I-14400
sg103
I236872
sg104
g2745
sg105
I9
sg106
g2746
sg107
g2747
sg108
g2748
sg109
I00
sg110
I00
sg111
g2744
sg112
g2749
sg113
g2750
sg114
g2751
sg115
I00
sg116
I00
sg117
I0
sg118
g2752
sg119
Nsg120
g121
(S'\x07\xde\x02\r\x05\x1f4\x00\x00\x00'
p2755
tp2756
Rp2757
sg125
g2740
sg126
g2754
sg127
I00
sg128
I00
sg129
I00
sbsg130
Nsg29
L661604298061717504L
sg131
I0
sg132
VStockNewsWires
p2758
sg114
Ven
p2759
sg135
g2732
sg120
g121
(S'\x07\xdf\x0b\x03\x12\x02\x0b\x00\x00\x00'
p2760
tp2761
Rp2762
sg39
(dp2763
g140
Nsg141
I00
sg142
V$DERM:\u000a\u000aNew Insider Transaction on DERM by Chief Medical Officer:\u000a\u000ahttps://t.co/odGuNHIN87
p2764
sg144
I00
sg145
Nsg45
L661604298061717504L
sg146
I0
sg147
V<a href="http://www.stocknewswires.com" rel="nofollow">StockNewsWires</a>
p2765
sg149
I00
sg150
Nsg53
(dp2766
g152
(lp2767
(dp2768
g155
(lp2769
I0
aI5
asg142
VDERM
p2770
sasg158
(lp2771
sg160
(lp2772
sg35
(lp2773
(dp2774
g85
Vhttps://t.co/odGuNHIN87
p2775
sg155
(lp2776
I67
aI90
asg166
Vhttp://StockNewsHour.com/derm-new-insider-transaction-on-derm-by-chief-medical-officer-3/
p2777
sg168
VStockNewsHour.com/derm-new-insid\u2026
p2778
sassg170
Nsg171
Nsg172
I0
sg57
V661604298061717504
p2779
sg174
I00
sg175
g2739
sg176
Nsg177
Nsg178
I00
sg78
g2759
sg86
VTue Nov 03 18:02:11 +0000 2015
p2780
sg180
Nsg181
Nsg182
(dp2781
g184
Ven
p2782
sg186
Vrecent
p2783
sssg188
g2781
sg189
Nsg190
Nsg31
g2766
sg191
Nsg192
Nsg98
g2779
sg193
I00
sg194
Nsg195
I0
sg196
Nsbag0
(g4
g5
Ntp2784
Rp2785
(dp2786
g9
I00
sg10
Nsg11
I00
sg12
VNEW insider transaction on $DERM reported a moment ago: https://t.co/6aKcAoWIlj
p2787
sg14
Vhttp://insideri.com
p2788
sg16
I00
sg17
I00
sg18
Nsg19
g0
(g20
g5
Ntp2789
Rp2790
(dp2791
g24
I00
sg25
I00
sg26
I00
sg27
V000000
p2792
sg29
L2344420430L
sg30
I00
sg31
(dp2793
g33
(dp2794
g35
(lp2795
sssg37
Vhttps://pbs.twimg.com/profile_images/548481313670299648/XBAwS1Wn_normal.jpeg
p2796
sg39
(dp2797
g41
I00
sg42
I00
sg43
I00
sg44
I00
sg45
L2344420430L
sg46
Vhttps://abs.twimg.com/images/themes/theme8/bg.gif
p2798
sg48
I00
sg49
V000000
p2799
sg51
g2796
sg52
g2792
sg53
g2793
sg54
I335
sg55
V000000
p2800
sg57
V2344420430
p2801
sg59
V000000
p2802
sg61
I23
sg62
I00
sg63
I-18000
sg64
I57351
sg33
VFollow stock purchases and sales by insiders
p2803
sg66
I0
sg67
VUnited States
p2804
sg68
V9266CC
p2805
sg70
Vhttp://pbs.twimg.com/profile_images/548481313670299648/XBAwS1Wn_normal.jpeg
p2806
sg72
I00
sg73
I00
sg74
Vhttp://abs.twimg.com/images/themes/theme8/bg.gif
p2807
sg76
VInsiderAlertsIA
p2808
sg78
Ven
p2809
sg80
I00
sg81
I0
sg82
VInsider Alerts
p2810
sg84
I00
sg85
Nsg86
VSat Feb 15 02:29:07 +0000 2014
p2811
sg88
I00
sg89
VEastern Time (US & Canada)
p2812
sg91
I00
sg92
I00
sg93
I00
ssg94
I00
sg95
g2799
sg96
I335
sg97
g2800
sg98
g2801
sg99
I00
sg100
I23
sg101
I00
sg102
I-18000
sg103
I57351
sg104
g2803
sg105
I0
sg106
g2804
sg107
g2805
sg108
g2806
sg109
I00
sg110
I00
sg111
g2802
sg112
g2807
sg113
g2808
sg114
g2809
sg115
I00
sg116
I00
sg117
I0
sg118
g2810
sg119
Nsg120
g121
(S'\x07\xde\x02\x0f\x02\x1d\x07\x00\x00\x00'
p2813
tp2814
Rp2815
sg125
g2798
sg126
g2812
sg127
I00
sg128
I00
sg129
I00
sbsg130
Nsg29
L661604084449955840L
sg131
I0
sg132
VInsider Alerts
p2816
sg114
Ven
p2817
sg135
g2790
sg120
g121
(S'\x07\xdf\x0b\x03\x12\x01\x14\x00\x00\x00'
p2818
tp2819
Rp2820
sg39
(dp2821
g140
Nsg141
I00
sg142
g2787
sg144
I00
sg145
Nsg45
L661604084449955840L
sg146
I0
sg147
V<a href="http://insideri.com" rel="nofollow">Insider Alerts</a>
p2822
sg149
I00
sg150
Nsg53
(dp2823
g152
(lp2824
(dp2825
g155
(lp2826
I27
aI32
asg142
VDERM
p2827
sasg158
(lp2828
sg160
(lp2829
sg35
(lp2830
(dp2831
g85
Vhttps://t.co/6aKcAoWIlj
p2832
sg155
(lp2833
I56
aI79
asg166
Vhttp://insideri.com/1557883_000156218015000942_0001562180-15-000942
p2834
sg168
Vinsideri.com/1557883_000156\u2026
p2835
sassg170
Nsg171
Nsg172
I0
sg57
V661604084449955840
p2836
sg174
I00
sg175
g2797
sg176
Nsg177
Nsg178
I00
sg78
g2817
sg86
VTue Nov 03 18:01:20 +0000 2015
p2837
sg180
Nsg181
Nsg182
(dp2838
g184
Ven
p2839
sg186
Vrecent
p2840
sssg188
g2838
sg189
Nsg190
Nsg31
g2823
sg191
Nsg192
Nsg98
g2836
sg193
I00
sg194
Nsg195
I0
sg196
Nsbag0
(g4
g5
Ntp2841
Rp2842
(dp2843
g9
I00
sg10
Nsg11
I00
sg12
V$DERM:\u000a\u000aDermira, Inc. (DERM) Files Form 4 Insider Selling : Eugene A Bauer \u2026:\u000a\u000ahttps://t.co/3EFX31pByb
p2844
sg14
Vhttp://www.stocknewswires.com
p2845
sg16
I00
sg17
I00
sg18
Nsg19
g0
(g20
g5
Ntp2846
Rp2847
(dp2848
g24
I00
sg25
I00
sg26
I01
sg27
VE3E2DE
p2849
sg29
L2344619544L
sg30
I00
sg31
(dp2850
g33
(dp2851
g35
(lp2852
sssg37
Vhttps://pbs.twimg.com/profile_images/562292381764952064/mVtp0UmJ_normal.jpeg
p2853
sg39
(dp2854
g41
I00
sg42
I00
sg43
I01
sg44
I00
sg45
L2344619544L
sg46
Vhttps://abs.twimg.com/images/themes/theme3/bg.gif
p2855
sg48
I00
sg49
V634047
p2856
sg51
g2853
sg52
g2849
sg53
g2850
sg54
I516
sg55
VD3D2CF
p2857
sg57
V2344619544
p2858
sg59
VEDECE9
p2859
sg61
I85
sg62
I01
sg63
I-18000
sg64
I182020
sg33
VNews about Stocks
p2860
sg66
I0
sg67
VU.S.
p2861
sg68
V088253
p2862
sg70
Vhttp://pbs.twimg.com/profile_images/562292381764952064/mVtp0UmJ_normal.jpeg
p2863
sg72
I00
sg73
I00
sg74
Vhttp://abs.twimg.com/images/themes/theme3/bg.gif
p2864
sg76
VNewsToDesk
p2865
sg78
Ven
p2866
sg80
I00
sg81
I0
sg82
VBreakingStocksNews
p2867
sg84
I00
sg85
Nsg86
VSat Feb 15 05:49:10 +0000 2014
p2868
sg88
I00
sg89
VEastern Time (US & Canada)
p2869
sg91
I00
sg92
I00
sg93
I00
ssg94
I00
sg95
g2856
sg96
I516
sg97
g2857
sg98
g2858
sg99
I00
sg100
I85
sg101
I01
sg102
I-18000
sg103
I182020
sg104
g2860
sg105
I0
sg106
g2861
sg107
g2862
sg108
g2863
sg109
I00
sg110
I00
sg111
g2859
sg112
g2864
sg113
g2865
sg114
g2866
sg115
I00
sg116
I00
sg117
I0
sg118
g2867
sg119
Nsg120
g121
(S'\x07\xde\x02\x0f\x051\n\x00\x00\x00'
p2870
tp2871
Rp2872
sg125
g2855
sg126
g2869
sg127
I00
sg128
I00
sg129
I00
sbsg130
Nsg29
L661604027080294400L
sg131
I0
sg132
VStockNewsWires
p2873
sg114
Vde
p2874
sg135
g2847
sg120
g121
(S'\x07\xdf\x0b\x03\x12\x01\x06\x00\x00\x00'
p2875
tp2876
Rp2877
sg39
(dp2878
g140
Nsg141
I00
sg142
V$DERM:\u000a\u000aDermira, Inc. (DERM) Files Form 4 Insider Selling : Eugene A Bauer \u2026:\u000a\u000ahttps://t.co/3EFX31pByb
p2879
sg144
I00
sg145
Nsg45
L661604027080294400L
sg146
I0
sg147
V<a href="http://www.stocknewswires.com" rel="nofollow">StockNewsWires</a>
p2880
sg149
I00
sg150
Nsg53
(dp2881
g152
(lp2882
(dp2883
g155
(lp2884
I0
aI5
asg142
VDERM
p2885
sasg158
(lp2886
sg160
(lp2887
sg35
(lp2888
(dp2889
g85
Vhttps://t.co/3EFX31pByb
p2890
sg155
(lp2891
I79
aI102
asg166
Vhttp://StockNewsHour.com/derm-dermira-inc-derm-files-form-4-insider-selling-eugene-a-bauer/
p2892
sg168
VStockNewsHour.com/derm-dermira-i\u2026
p2893
sassg170
Nsg171
Nsg172
I0
sg57
V661604027080294400
p2894
sg174
I00
sg175
g2854
sg176
Nsg177
Nsg178
I00
sg78
g2874
sg86
VTue Nov 03 18:01:06 +0000 2015
p2895
sg180
Nsg181
Nsg182
(dp2896
g184
Vde
p2897
sg186
Vrecent
p2898
sssg188
g2896
sg189
Nsg190
Nsg31
g2881
sg191
Nsg192
Nsg98
g2894
sg193
I00
sg194
Nsg195
I0
sg196
Nsbag0
(g4
g5
Ntp2899
Rp2900
(dp2901
g9
I00
sg10
Nsg11
I00
sg12
V$DERM Registration statement under Securities Act of 1933 (Form S-3) https://t.co/8dVdGtMqBo
p2902
sg14
Vhttps://mobile.twitter.com
p2903
sg16
I00
sg17
I00
sg18
Nsg19
g0
(g20
g5
Ntp2904
Rp2905
(dp2906
g24
I00
sg25
I00
sg26
I01
sg27
VDDEEF6
p2907
sg29
L4098443212L
sg30
I00
sg31
(dp2908
g33
(dp2909
g35
(lp2910
sssg37
Vhttps://abs.twimg.com/sticky/default_profile_images/default_profile_3_normal.png
p2911
sg39
(dp2912
g41
I00
sg42
I00
sg43
I01
sg44
I01
sg45
L4098443212L
sg46
Vhttps://abs.twimg.com/images/themes/theme1/bg.png
p2913
sg48
I00
sg49
V333333
p2914
sg51
g2911
sg52
g2907
sg53
g2908
sg54
I1
sg55
VC0DEED
p2915
sg57
V4098443212
p2916
sg59
VC0DEED
p2917
sg61
I0
sg62
I00
sg63
Nsg64
I413
sg33
VProviding Edgar Company Filings
p2918
sg66
I0
sg67
g65
sg68
V0084B4
p2919
sg70
Vhttp://abs.twimg.com/sticky/default_profile_images/default_profile_3_normal.png
p2920
sg72
I00
sg73
I00
sg74
Vhttp://abs.twimg.com/images/themes/theme1/bg.png
p2921
sg76
VEdgarFilings
p2922
sg78
Ven
p2923
sg80
I00
sg81
I0
sg82
VEdgar Sec News
p2924
sg84
I00
sg85
Nsg86
VMon Nov 02 16:20:55 +0000 2015
p2925
sg88
I00
sg89
Nsg91
I00
sg92
I01
sg93
I00
ssg94
I00
sg95
g2914
sg96
I1
sg97
g2915
sg98
g2916
sg99
I01
sg100
I0
sg101
I00
sg102
Nsg103
I413
sg104
g2918
sg105
I0
sg106
g65
sg107
g2919
sg108
g2920
sg109
I00
sg110
I00
sg111
g2917
sg112
g2921
sg113
g2922
sg114
g2923
sg115
I00
sg116
I00
sg117
I0
sg118
g2924
sg119
Nsg120
g121
(S'\x07\xdf\x0b\x02\x10\x147\x00\x00\x00'
p2926
tp2927
Rp2928
sg125
g2913
sg126
Nsg127
I00
sg128
I01
sg129
I00
sbsg130
Nsg29
L661516699188002816L
sg131
I0
sg132
VMobile Web (M2)
p2929
sg114
Ven
p2930
sg135
g2905
sg120
g121
(S'\x07\xdf\x0b\x03\x0c\x0e\x06\x00\x00\x00'
p2931
tp2932
Rp2933
sg39
(dp2934
g140
Nsg141
I00
sg142
g2902
sg144
I00
sg145
Nsg45
L661516699188002816L
sg146
I0
sg147
V<a href="https://mobile.twitter.com" rel="nofollow">Mobile Web (M2)</a>
p2935
sg149
I00
sg150
Nsg53
(dp2936
g152
(lp2937
(dp2938
g155
(lp2939
I0
aI5
asg142
VDERM
p2940
sasg158
(lp2941
sg160
(lp2942
sg35
(lp2943
(dp2944
g85
Vhttps://t.co/8dVdGtMqBo
p2945
sg155
(lp2946
I69
aI92
asg166
Vhttp://www.sec.gov/Archives/edgar/data/1557883/000110465915074961/a15-20848_1s3.htm
p2947
sg168
Vsec.gov/Archives/edgar\u2026
p2948
sassg170
Nsg171
Nsg172
I0
sg57
V661516699188002816
p2949
sg174
I00
sg175
g2912
sg176
Nsg177
Nsg178
I00
sg78
g2930
sg86
VTue Nov 03 12:14:06 +0000 2015
p2950
sg180
Nsg181
Nsg182
(dp2951
g184
Ven
p2952
sg186
Vrecent
p2953
sssg188
g2951
sg189
Nsg190
Nsg31
g2936
sg191
Nsg192
Nsg98
g2949
sg193
I00
sg194
Nsg195
I0
sg196
Nsbag0
(g4
g5
Ntp2954
Rp2955
(dp2956
g9
I00
sg10
Nsg11
I00
sg12
VRT @BioStocks: $DERM $300M shelf
p2957
sg14
Vhttp://twitter.com/download/iphone
p2958
sg17
I00
sg18
Nsg19
g0
(g20
g5
Ntp2959
Rp2960
(dp2961
g24
I00
sg25
I00
sg26
I00
sg27
V000000
p2962
sg29
L3816376277L
sg30
I00
sg31
(dp2963
g33
(dp2964
g35
(lp2965
sssg37
Vhttps://abs.twimg.com/sticky/default_profile_images/default_profile_0_normal.png
p2966
sg39
(dp2967
g41
I00
sg42
I00
sg43
I00
sg44
I01
sg45
L3816376277L
sg46
Vhttps://abs.twimg.com/images/themes/theme1/bg.png
p2968
sg48
I00
sg49
V000000
p2969
sg51
g2966
sg52
g2962
sg53
g2963
sg54
I19
sg55
V000000
p2970
sg57
V3816376277
p2971
sg59
V000000
p2972
sg61
I4
sg62
I00
sg63
Nsg64
I682
sg33
g65
sg66
I124
sg67
g65
sg68
V9266CC
p2973
sg70
Vhttp://abs.twimg.com/sticky/default_profile_images/default_profile_0_normal.png
p2974
sg72
I00
sg73
I01
sg74
Vhttp://abs.twimg.com/images/themes/theme1/bg.png
p2975
sg76
Vbiostockfan
p2976
sg78
Ven
p2977
sg80
I00
sg81
I109
sg82
VBiostockfan
p2978
sg84
I00
sg85
Nsg86
VTue Sep 29 16:48:08 +0000 2015
p2979
sg88
I00
sg89
Nsg91
I00
sg92
I00
sg93
I00
ssg94
I00
sg95
g2969
sg96
I19
sg97
g2970
sg98
g2971
sg99
I01
sg100
I4
sg101
I00
sg102
Nsg103
I682
sg104
g65
sg105
I124
sg106
g65
sg107
g2973
sg108
g2974
sg109
I00
sg110
I01
sg111
g2972
sg112
g2975
sg113
g2976
sg114
g2977
sg115
I00
sg116
I00
sg117
I109
sg118
g2978
sg119
Nsg120
g121
(S'\x07\xdf\t\x1d\x100\x08\x00\x00\x00'
p2980
tp2981
Rp2982
sg125
g2968
sg126
Nsg127
I00
sg128
I00
sg129
I00
sbsg130
Nsg29
L661320231697195008L
sg131
I0
sg132
VTwitter for iPhone
p2983
sg114
Ven
p2984
sg1739
g0
(g4
g5
Ntp2985
Rp2986
(dp2987
g9
I00
sg10
Nsg11
I00
sg12
V$DERM $300M shelf
p2988
sg14
Vhttp://twitter.com
p2989
sg17
I00
sg18
Nsg19
g0
(g20
g5
Ntp2990
Rp2991
(dp2992
g24
I00
sg25
I00
sg26
I01
sg27
V758AAD
p2993
sg29
I112872946
sg30
I00
sg31
(dp2994
g33
(dp2995
g35
(lp2996
sssg37
Vhttps://pbs.twimg.com/profile_images/378800000082257081/6edd185661b40bfc2243f52e375155d6_normal.png
p2997
sg39
(dp2998
g41
I00
sg42
I00
sg43
I01
sg44
I00
sg45
I112872946
sg46
Vhttps://pbs.twimg.com/profile_background_images/378800000014633129/e4a1daaed6839391409ac18e38cc4391.jpeg
p2999
sg48
I00
sg49
V0C2929
p3000
sg51
g2997
sg52
g2993
sg53
g2994
sg54
I14528
sg55
VFFFFFF
p3001
sg57
V112872946
p3002
sg59
VCF8084
p3003
sg61
I390
sg62
I00
sg63
I-18000
sg64
I21563
sg33
VThe dream is free, but the hustle is sold separately.
p3004
sg66
I71
sg67
VToronto
p3005
sg68
V420EB3
p3006
sg70
Vhttp://pbs.twimg.com/profile_images/378800000082257081/6edd185661b40bfc2243f52e375155d6_normal.png
p3007
sg72
I00
sg73
I00
sg532
Vhttps://pbs.twimg.com/profile_banners/112872946/1446433811
p3008
sg74
Vhttp://pbs.twimg.com/profile_background_images/378800000014633129/e4a1daaed6839391409ac18e38cc4391.jpeg
p3009
sg76
VBioStocks
p3010
sg78
Ven
p3011
sg80
I01
sg81
I153
sg82
VBio Stocks\u2122
p3012
sg84
I00
sg85
Nsg86
VWed Feb 10 00:09:48 +0000 2010
p3013
sg88
I00
sg89
VEastern Time (US & Canada)
p3014
sg91
I00
sg92
I00
sg93
I00
ssg94
I00
sg95
g3000
sg96
I14528
sg97
g3001
sg98
g3002
sg99
I00
sg100
I390
sg101
I00
sg102
I-18000
sg103
I21563
sg104
g3004
sg105
I71
sg106
g3005
sg107
g3006
sg108
g3007
sg109
I00
sg110
I00
sg111
g3003
sg540
g3008
sg112
g3009
sg113
g3010
sg114
g3011
sg115
I00
sg116
I01
sg117
I153
sg118
g3012
sg119
Nsg120
g121
(S'\x07\xda\x02\n\x00\t0\x00\x00\x00'
p3015
tp3016
Rp3017
sg125
g2999
sg126
g3014
sg127
I00
sg128
I00
sg129
I00
sbsg130
Nsg29
L661311661974753280L
sg131
I0
sg132
VTwitter Web Client
p3018
sg114
Ven
p3019
sg135
g2991
sg120
g121
(S"\x07\xdf\x0b\x02\x16'\x15\x00\x00\x00"
p3020
tp3021
Rp3022
sg39
(dp3023
g140
Nsg141
I00
sg142
g2988
sg144
I00
sg145
Nsg45
L661311661974753280L
sg146
I0
sg147
V<a href="http://twitter.com" rel="nofollow">Twitter Web Client</a>
p3024
sg149
I00
sg150
Nsg53
(dp3025
g152
(lp3026
(dp3027
g155
(lp3028
I0
aI5
asg142
VDERM
p3029
sasg158
(lp3030
sg160
(lp3031
sg35
(lp3032
ssg170
Nsg171
Nsg172
I1
sg57
V661311661974753280
p3033
sg174
I00
sg175
g2998
sg176
Nsg177
Nsg78
g3019
sg86
VMon Nov 02 22:39:21 +0000 2015
p3034
sg180
Nsg181
Nsg182
(dp3035
g184
Ven
p3036
sg186
Vrecent
p3037
sssg188
g3035
sg189
Nsg190
Nsg31
g3025
sg191
Nsg192
Nsg98
g3033
sg193
I00
sg194
Nsg195
I1
sg196
Nsbsg135
g2960
sg120
g121
(S'\x07\xdf\x0b\x02\x17\r\x18\x00\x00\x00'
p3038
tp3039
Rp3040
sg39
(dp3041
g140
Nsg141
I00
sg142
g2957
sg144
I00
sg145
Nsg45
L661320231697195008L
sg146
I0
sg147
V<a href="http://twitter.com/download/iphone" rel="nofollow">Twitter for iPhone</a>
p3042
sg149
I00
sg150
Nsg53
(dp3043
g152
(lp3044
(dp3045
g155
(lp3046
I15
aI20
asg142
VDERM
p3047
sasg158
(lp3048
(dp3049
g45
I112872946
sg155
(lp3050
I3
aI13
asg57
V112872946
p3051
sg76
VBioStocks
p3052
sg82
VBio Stocks\u2122
p3053
sasg160
(lp3054
sg35
(lp3055
ssg170
Nsg171
Nsg172
I1
sg57
V661320231697195008
p3056
sg174
I00
sg1864
g3023
sg175
g2967
sg176
Nsg177
Nsg78
g2984
sg86
VMon Nov 02 23:13:24 +0000 2015
p3057
sg180
Nsg181
Nsg182
(dp3058
g184
Ven
p3059
sg186
Vrecent
p3060
sssg188
g3058
sg189
Nsg190
Nsg31
g3043
sg191
Nsg192
Nsg98
g3056
sg193
I00
sg194
Nsg195
I1
sg196
Nsbag0
(g4
g5
Ntp3061
Rp3062
(dp3063
g9
I00
sg10
Nsg11
I00
sg12
V$DERM $300M shelf
p3064
sg14
Vhttp://twitter.com
p3065
sg17
I00
sg18
Nsg19
g0
(g20
g5
Ntp3066
Rp3067
(dp3068
g24
I00
sg25
I00
sg26
I01
sg27
V758AAD
p3069
sg29
I112872946
sg30
I00
sg31
(dp3070
g33
(dp3071
g35
(lp3072
sssg37
Vhttps://pbs.twimg.com/profile_images/378800000082257081/6edd185661b40bfc2243f52e375155d6_normal.png
p3073
sg39
(dp3074
g41
I00
sg42
I00
sg43
I01
sg44
I00
sg45
I112872946
sg46
Vhttps://pbs.twimg.com/profile_background_images/378800000014633129/e4a1daaed6839391409ac18e38cc4391.jpeg
p3075
sg48
I00
sg49
V0C2929
p3076
sg51
g3073
sg52
g3069
sg53
g3070
sg54
I14528
sg55
VFFFFFF
p3077
sg57
V112872946
p3078
sg59
VCF8084
p3079
sg61
I390
sg62
I00
sg63
I-18000
sg64
I21563
sg33
VThe dream is free, but the hustle is sold separately.
p3080
sg66
I71
sg67
VToronto
p3081
sg68
V420EB3
p3082
sg70
Vhttp://pbs.twimg.com/profile_images/378800000082257081/6edd185661b40bfc2243f52e375155d6_normal.png
p3083
sg72
I00
sg73
I00
sg532
Vhttps://pbs.twimg.com/profile_banners/112872946/1446433811
p3084
sg74
Vhttp://pbs.twimg.com/profile_background_images/378800000014633129/e4a1daaed6839391409ac18e38cc4391.jpeg
p3085
sg76
VBioStocks
p3086
sg78
Ven
p3087
sg80
I01
sg81
I153
sg82
VBio Stocks\u2122
p3088
sg84
I00
sg85
Nsg86
VWed Feb 10 00:09:48 +0000 2010
p3089
sg88
I00
sg89
VEastern Time (US & Canada)
p3090
sg91
I00
sg92
I00
sg93
I00
ssg94
I00
sg95
g3076
sg96
I14528
sg97
g3077
sg98
g3078
sg99
I00
sg100
I390
sg101
I00
sg102
I-18000
sg103
I21563
sg104
g3080
sg105
I71
sg106
g3081
sg107
g3082
sg108
g3083
sg109
I00
sg110
I00
sg111
g3079
sg540
g3084
sg112
g3085
sg113
g3086
sg114
g3087
sg115
I00
sg116
I01
sg117
I153
sg118
g3088
sg119
Nsg120
g121
(S'\x07\xda\x02\n\x00\t0\x00\x00\x00'
p3091
tp3092
Rp3093
sg125
g3075
sg126
g3090
sg127
I00
sg128
I00
sg129
I00
sbsg130
Nsg29
L661311661974753280L
sg131
I0
sg132
VTwitter Web Client
p3094
sg114
Ven
p3095
sg135
g3067
sg120
g121
(S"\x07\xdf\x0b\x02\x16'\x15\x00\x00\x00"
p3096
tp3097
Rp3098
sg39
(dp3099
g140
Nsg141
I00
sg142
g3064
sg144
I00
sg145
Nsg45
L661311661974753280L
sg146
I0
sg147
V<a href="http://twitter.com" rel="nofollow">Twitter Web Client</a>
p3100
sg149
I00
sg150
Nsg53
(dp3101
g152
(lp3102
(dp3103
g155
(lp3104
I0
aI5
asg142
VDERM
p3105
sasg158
(lp3106
sg160
(lp3107
sg35
(lp3108
ssg170
Nsg171
Nsg172
I1
sg57
V661311661974753280
p3109
sg174
I00
sg175
g3074
sg176
Nsg177
Nsg78
g3095
sg86
VMon Nov 02 22:39:21 +0000 2015
p3110
sg180
Nsg181
Nsg182
(dp3111
g184
Ven
p3112
sg186
Vrecent
p3113
sssg188
g3111
sg189
Nsg190
Nsg31
g3101
sg191
Nsg192
Nsg98
g3109
sg193
I00
sg194
Nsg195
I1
sg196
Nsbag0
(g4
g5
Ntp3114
Rp3115
(dp3116
g9
I00
sg10
Nsg11
I00
sg12
V$DERM:\u000a\u000aNew SEC Filing for DERM: Form S-3 (No. 0001104659-15-074961):\u000a\u000ahttps://t.co/w3qBIQuRRO
p3117
sg14
Vhttp://www.stocknewswires.com
p3118
sg16
I00
sg17
I00
sg18
Nsg19
g0
(g20
g5
Ntp3119
Rp3120
(dp3121
g24
I00
sg25
I00
sg26
I01
sg27
VDAECF4
p3122
sg29
L2341445778L
sg30
I00
sg31
(dp3123
g33
(dp3124
g35
(lp3125
sssg37
Vhttps://pbs.twimg.com/profile_images/542238326397227008/UfZ0ulTf_normal.jpeg
p3126
sg39
(dp3127
g41
I00
sg42
I00
sg43
I01
sg44
I00
sg45
L2341445778L
sg46
Vhttps://abs.twimg.com/images/themes/theme2/bg.gif
p3128
sg48
I00
sg49
V663B12
p3129
sg51
g3126
sg52
g3122
sg53
g3123
sg54
I660
sg55
VC6E2EE
p3130
sg57
V2341445778
p3131
sg59
VC6E2EE
p3132
sg61
I107
sg62
I00
sg63
I-14400
sg64
I236872
sg33
VInvest like a fish
p3133
sg66
I9
sg67
VUnited States
p3134
sg68
V1F98C7
p3135
sg70
Vhttp://pbs.twimg.com/profile_images/542238326397227008/UfZ0ulTf_normal.jpeg
p3136
sg72
I00
sg73
I00
sg74
Vhttp://abs.twimg.com/images/themes/theme2/bg.gif
p3137
sg76
VStockNewsWires
p3138
sg78
Ven
p3139
sg80
I00
sg81
I0
sg82
VStockNewsWires
p3140
sg84
I00
sg85
Nsg86
VThu Feb 13 05:31:52 +0000 2014
p3141
sg88
I00
sg89
VAtlantic Time (Canada)
p3142
sg91
I00
sg92
I00
sg93
I00
ssg94
I00
sg95
g3129
sg96
I660
sg97
g3130
sg98
g3131
sg99
I00
sg100
I107
sg101
I00
sg102
I-14400
sg103
I236872
sg104
g3133
sg105
I9
sg106
g3134
sg107
g3135
sg108
g3136
sg109
I00
sg110
I00
sg111
g3132
sg112
g3137
sg113
g3138
sg114
g3139
sg115
I00
sg116
I00
sg117
I0
sg118
g3140
sg119
Nsg120
g121
(S'\x07\xde\x02\r\x05\x1f4\x00\x00\x00'
p3143
tp3144
Rp3145
sg125
g3128
sg126
g3142
sg127
I00
sg128
I00
sg129
I00
sbsg130
Nsg29
L661309596221513728L
sg131
I0
sg132
VStockNewsWires
p3146
sg114
Ven
p3147
sg135
g3120
sg120
g121
(S'\x07\xdf\x0b\x02\x16\x1f\x08\x00\x00\x00'
p3148
tp3149
Rp3150
sg39
(dp3151
g140
Nsg141
I00
sg142
V$DERM:\u000a\u000aNew SEC Filing for DERM: Form S-3 (No. 0001104659-15-074961):\u000a\u000ahttps://t.co/w3qBIQuRRO
p3152
sg144
I00
sg145
Nsg45
L661309596221513728L
sg146
I0
sg147
V<a href="http://www.stocknewswires.com" rel="nofollow">StockNewsWires</a>
p3153
sg149
I00
sg150
Nsg53
(dp3154
g152
(lp3155
(dp3156
g155
(lp3157
I0
aI5
asg142
VDERM
p3158
sasg158
(lp3159
sg160
(lp3160
sg35
(lp3161
(dp3162
g85
Vhttps://t.co/w3qBIQuRRO
p3163
sg155
(lp3164
I71
aI94
asg166
Vhttp://StockNewsHour.com/derm-new-sec-filing-for-derm-form-s-3-no-0001104659-15-074961/
p3165
sg168
VStockNewsHour.com/derm-new-sec-f\u2026
p3166
sassg170
Nsg171
Nsg172
I0
sg57
V661309596221513728
p3167
sg174
I00
sg175
g3127
sg176
Nsg177
Nsg178
I00
sg78
g3147
sg86
VMon Nov 02 22:31:08 +0000 2015
p3168
sg180
Nsg181
Nsg182
(dp3169
g184
Ven
p3170
sg186
Vrecent
p3171
sssg188
g3169
sg189
Nsg190
Nsg31
g3154
sg191
Nsg192
Nsg98
g3167
sg193
I00
sg194
Nsg195
I0
sg196
Nsbag0
(g4
g5
Ntp3172
Rp3173
(dp3174
g9
I00
sg10
Nsg11
I00
sg12
VNEW SEC Filing for $DERM filed a moment ago: https://t.co/gsMrJxnoXV https://t.co/hkKG6ZPFWI
p3175
sg14
Vhttp://fnsappbg.blogspot.com/
p3176
sg16
I00
sg17
I00
sg18
Nsg19
g0
(g20
g5
Ntp3177
Rp3178
(dp3179
g24
I00
sg25
I00
sg26
I01
sg27
VE6F6F9
p3180
sg29
L2344363668L
sg30
I00
sg31
(dp3181
g33
(dp3182
g35
(lp3183
sssg37
Vhttps://pbs.twimg.com/profile_images/477288831767425025/SqzMus3o_normal.jpeg
p3184
sg39
(dp3185
g41
I00
sg42
I00
sg43
I01
sg44
I00
sg45
L2344363668L
sg46
Vhttps://abs.twimg.com/images/themes/theme17/bg.gif
p3186
sg48
I00
sg49
V333333
p3187
sg51
g3184
sg52
g3180
sg53
g3181
sg54
I91
sg55
VDBE9ED
p3188
sg57
V2344363668
p3189
sg59
VDBE9ED
p3190
sg61
I7
sg62
I00
sg63
I-14400
sg64
I17354
sg33
g65
sg66
I6
sg67
g65
sg68
VCC3366
p3191
sg70
Vhttp://pbs.twimg.com/profile_images/477288831767425025/SqzMus3o_normal.jpeg
p3192
sg72
I00
sg73
I00
sg74
Vhttp://abs.twimg.com/images/themes/theme17/bg.gif
p3193
sg76
Vflthelead
p3194
sg78
Ven
p3195
sg80
I00
sg81
I0
sg82
VNew SEC Filings
p3196
sg84
I00
sg85
Nsg86
VSat Feb 15 01:32:19 +0000 2014
p3197
sg88
I00
sg89
VAtlantic Time (Canada)
p3198
sg91
I00
sg92
I00
sg93
I00
ssg94
I00
sg95
g3187
sg96
I91
sg97
g3188
sg98
g3189
sg99
I00
sg100
I7
sg101
I00
sg102
I-14400
sg103
I17354
sg104
g65
sg105
I6
sg106
g65
sg107
g3191
sg108
g3192
sg109
I00
sg110
I00
sg111
g3190
sg112
g3193
sg113
g3194
sg114
g3195
sg115
I00
sg116
I00
sg117
I0
sg118
g3196
sg119
Nsg120
g121
(S'\x07\xde\x02\x0f\x01 \x13\x00\x00\x00'
p3199
tp3200
Rp3201
sg125
g3186
sg126
g3198
sg127
I00
sg128
I00
sg129
I00
sbsg130
Nsg29
L661309423000944640L
sg131
I0
sg132
VFNS_APP
p3202
sg114
Ven
p3203
sg135
g3178
sg120
g121
(S'\x07\xdf\x0b\x02\x16\x1e\x1b\x00\x00\x00'
p3204
tp3205
Rp3206
sg39
(dp3207
g140
Nsg141
I00
sg142
g3175
sg144
I00
sg145
Nsg45
L661309423000944640L
sg146
I0
sg147
V<a href="http://fnsappbg.blogspot.com/" rel="nofollow">FNS_APP</a>
p3208
sg149
I00
sg150
Nsg53
(dp3209
g152
(lp3210
(dp3211
g155
(lp3212
I19
aI24
asg142
VDERM
p3213
sasg158
(lp3214
sg160
(lp3215
sg35
(lp3216
(dp3217
g85
Vhttps://t.co/gsMrJxnoXV
p3218
sg155
(lp3219
I45
aI68
asg166
Vhttp://stocknewsflow.com/1557883_000110465915074961_0001104659-15-074961
p3220
sg168
Vstocknewsflow.com/1557883_000110\u2026
p3221
sasg1504
(lp3222
(dp3223
g166
Vhttp://twitter.com/flthelead/status/661309423000944640/photo/1
p3224
sg168
Vpic.twitter.com/hkKG6ZPFWI
p3225
sg85
Vhttps://t.co/hkKG6ZPFWI
p3226
sg1510
Vhttps://pbs.twimg.com/media/CS1xapjWsAAw2Sy.jpg
p3227
sg57
V661309422938009600
p3228
sg1513
(dp3229
g1515
(dp3230
g1517
I4
sg1518
Vfit
p3231
sg1520
I4
ssg1521
(dp3232
g1517
I4
sg1518
Vfit
p3233
sg1520
I4
ssg1524
(dp3234
g1517
I4
sg1518
Vfit
p3235
sg1520
I4
ssg1527
(dp3236
g1517
I4
sg1518
Vcrop
p3237
sg1520
I4
sssg155
(lp3238
I69
aI92
asg1531
Vphoto
p3239
sg45
L661309422938009600L
sg1533
Vhttp://pbs.twimg.com/media/CS1xapjWsAAw2Sy.jpg
p3240
sassg170
Nsg171
Nsg172
I0
sg57
V661309423000944640
p3241
sg174
I00
sg175
g3185
sg176
Nsg177
Nsg178
I00
sg78
g3203
sg86
VMon Nov 02 22:30:27 +0000 2015
p3242
sg180
Nsg181
Nsg182
(dp3243
g184
Ven
p3244
sg186
Vrecent
p3245
sssg188
g3243
sg189
Nsg190
Nsg31
g3209
sg191
Nsg192
Nsg98
g3241
sg193
I00
sg194
Nsg195
I0
sg196
Nsbatp3246
Rp3247
(dp3248
S'count'
p3249
I100
sS'completed_in'
p3250
F0.048
sS'_since_id'
p3251
NsS'refresh_url'
p3252
V?since_id=664275112343027712&q=%24DERM&include_entities=1
p3253
sS'query'
p3254
V%24DERM
p3255
sS'_max_id'
p3256
NsS'next_results'
p3257
Nsb.