ccopy_reg
_reconstructor
p0
(ctweepy.models
SearchResults
p1
c__builtin__
list
p2
(lp3
g0
(ctweepy.models
Status
p4
c__builtin__
object
p5
Ntp6
Rp7
(dp8
S'favorited'
p9
I00
sS'contributors'
p10
NsS'truncated'
p11
I00
sS'text'
p12
V$EGAN https://t.co/7F0C0wSWRX
p13
sS'source_url'
p14
Vhttp://stocktwits.com
p15
sS'possibly_sensitive'
p16
I00
sS'is_quote_status'
p17
I00
sS'in_reply_to_status_id'
p18
NsS'user'
p19
g0
(ctweepy.models
User
p20
g5
Ntp21
Rp22
(dp23
S'follow_request_sent'
p24
I00
sS'has_extended_profile'
p25
I00
sS'profile_use_background_image'
p26
I01
sS'profile_sidebar_fill_color'
p27
VDAECF4
p28
sS'id'
p29
I287727974
sS'verified'
p30
I00
sS'entities'
p31
(dp32
Vdescription
p33
(dp34
Vurls
p35
(lp36
sssS'profile_image_url_https'
p37
Vhttps://pbs.twimg.com/profile_images/656607031605010432/P9KbSWW5_normal.jpg
p38
sS'_json'
p39
(dp40
Vfollow_request_sent
p41
I00
sVhas_extended_profile
p42
I00
sVprofile_use_background_image
p43
I01
sVdefault_profile_image
p44
I00
sVid
p45
I287727974
sVprofile_background_image_url_https
p46
Vhttps://abs.twimg.com/images/themes/theme2/bg.gif
p47
sVverified
p48
I00
sVprofile_text_color
p49
V663B12
p50
sVprofile_image_url_https
p51
g38
sVprofile_sidebar_fill_color
p52
g28
sVentities
p53
g32
sVfollowers_count
p54
I433
sVprofile_sidebar_border_color
p55
VC6E2EE
p56
sVid_str
p57
V287727974
p58
sVprofile_background_color
p59
VC6E2EE
p60
sVlisted_count
p61
I6
sVis_translation_enabled
p62
I00
sVutc_offset
p63
I-18000
sVstatuses_count
p64
I1420
sg33
V\u201cSimplicity is the ultimate sophistication.\u201d  Leonardo Da Vinci
p65
sVfriends_count
p66
I558
sVlocation
p67
V
p68
sVprofile_link_color
p69
V1F98C7
p70
sVprofile_image_url
p71
Vhttp://pbs.twimg.com/profile_images/656607031605010432/P9KbSWW5_normal.jpg
p72
sVfollowing
p73
I00
sVgeo_enabled
p74
I00
sVprofile_banner_url
p75
Vhttps://pbs.twimg.com/profile_banners/287727974/1400626095
p76
sVprofile_background_image_url
p77
Vhttp://abs.twimg.com/images/themes/theme2/bg.gif
p78
sVscreen_name
p79
Vjhondrl
p80
sVlang
p81
Ves
p82
sVprofile_background_tile
p83
I00
sVfavourites_count
p84
I81
sVname
p85
VJohn Loaiza
p86
sVnotifications
p87
I00
sVurl
p88
NsVcreated_at
p89
VMon Apr 25 15:26:42 +0000 2011
p90
sVcontributors_enabled
p91
I00
sVtime_zone
p92
VBogota
p93
sVprotected
p94
I00
sVdefault_profile
p95
I00
sVis_translator
p96
I00
ssS'contributors_enabled'
p97
I00
sS'profile_text_color'
p98
g50
sS'followers_count'
p99
I433
sS'profile_sidebar_border_color'
p100
g56
sS'id_str'
p101
g58
sS'default_profile_image'
p102
I00
sS'listed_count'
p103
I6
sS'is_translation_enabled'
p104
I00
sS'utc_offset'
p105
I-18000
sS'statuses_count'
p106
I1420
sS'description'
p107
g65
sS'friends_count'
p108
I558
sS'location'
p109
g68
sS'profile_link_color'
p110
g70
sS'profile_image_url'
p111
g72
sS'notifications'
p112
I00
sS'geo_enabled'
p113
I00
sS'profile_background_color'
p114
g60
sS'profile_banner_url'
p115
g76
sS'profile_background_image_url'
p116
g78
sS'screen_name'
p117
g80
sS'lang'
p118
g82
sS'following'
p119
I00
sS'profile_background_tile'
p120
I00
sS'favourites_count'
p121
I81
sS'name'
p122
g86
sS'url'
p123
NsS'created_at'
p124
cdatetime
datetime
p125
(S'\x07\xdb\x04\x19\x0f\x1a*\x00\x00\x00'
p126
tp127
Rp128
sS'profile_background_image_url_https'
p129
g47
sS'time_zone'
p130
g93
sS'protected'
p131
I00
sS'default_profile'
p132
I00
sS'is_translator'
p133
I00
sbsS'geo'
p134
Nsg29
L664218836950908929L
sS'favorite_count'
p135
I0
sS'source'
p136
VStockTwits Web
p137
sg118
Vund
p138
sS'author'
p139
g22
sg124
g125
(S'\x07\xdf\x0b\n\x17\x0b\x19\x00\x00\x00'
p140
tp141
Rp142
sg39
(dp143
Vcontributors
p144
NsVtruncated
p145
I00
sVtext
p146
g13
sVis_quote_status
p147
I00
sVin_reply_to_status_id
p148
Nsg45
L664218836950908929L
sVfavorite_count
p149
I0
sVsource
p150
V<a href="http://stocktwits.com" rel="nofollow">StockTwits Web</a>
p151
sVretweeted
p152
I00
sVcoordinates
p153
Nsg53
(dp154
Vsymbols
p155
(lp156
(dp157
Vindices
p158
(lp159
I0
aI5
asg146
VEGAN
p160
sasVuser_mentions
p161
(lp162
sVhashtags
p163
(lp164
sg35
(lp165
(dp166
g88
Vhttps://t.co/7F0C0wSWRX
p167
sg158
(lp168
I6
aI29
asVexpanded_url
p169
Vhttp://stks.co/h3RDc
p170
sVdisplay_url
p171
Vstks.co/h3RDc
p172
sassVin_reply_to_screen_name
p173
NsVin_reply_to_user_id
p174
NsVretweet_count
p175
I0
sg57
V664218836950908929
p176
sVfavorited
p177
I00
sVuser
p178
g40
sVgeo
p179
NsVin_reply_to_user_id_str
p180
NsVpossibly_sensitive
p181
I00
sg81
g138
sg89
VTue Nov 10 23:11:25 +0000 2015
p182
sVin_reply_to_status_id_str
p183
NsVplace
p184
NsVmetadata
p185
(dp186
Viso_language_code
p187
Vund
p188
sVresult_type
p189
Vrecent
p190
sssS'metadata'
p191
g186
sS'coordinates'
p192
NsS'in_reply_to_user_id_str'
p193
Nsg31
g154
sS'in_reply_to_status_id_str'
p194
NsS'in_reply_to_screen_name'
p195
Nsg101
g176
sS'retweeted'
p196
I00
sS'place'
p197
NsS'retweet_count'
p198
I0
sS'in_reply_to_user_id'
p199
Nsbag0
(g4
g5
Ntp200
Rp201
(dp202
g9
I00
sg10
Nsg11
I00
sg12
VThe Most Accurate Stock Alert Service Made $240,000 Yesterday https://t.co/8WvnrVmkBS .. $EGAN $NTRS $WIX
p203
sg14
Vhttp://socialadcenter.com
p204
sg16
I00
sg17
I00
sg18
Nsg19
g0
(g20
g5
Ntp205
Rp206
(dp207
g24
I00
sg25
I00
sg26
I01
sg27
VDDEEF6
p208
sg29
L2730855593L
sg30
I00
sg31
(dp209
g88
(dp210
g35
(lp211
(dp212
g88
Vhttp://t.co/UWzH8kOOl9
p213
sg158
(lp214
I0
aI22
asg169
Vhttp://PennyStockSecret.com
p215
sg171
VPennyStockSecret.com
p216
sassg33
(dp217
g35
(lp218
(dp219
g88
Vhttp://t.co/UWzH8kOOl9
p220
sg158
(lp221
I11
aI33
asg169
Vhttp://PennyStockSecret.com
p222
sg171
VPennyStockSecret.com
p223
sasssg37
Vhttps://pbs.twimg.com/profile_images/573247485616889856/gHAtYS9O_normal.png
p224
sg39
(dp225
g41
I00
sg42
I00
sg43
I01
sg44
I00
sg45
L2730855593L
sg46
Vhttps://abs.twimg.com/images/themes/theme1/bg.png
p226
sg48
I00
sg49
V333333
p227
sg51
g224
sg52
g208
sg53
g209
sg54
I2515
sg55
VC0DEED
p228
sg57
V2730855593
p229
sg59
VC0DEED
p230
sg61
I25
sg62
I00
sg63
I0
sg64
I53229
sg33
VSign up to http://t.co/UWzH8kOOl9  and get the premiere penny stock newsletter for free! make sure you subscribe today!
p231
sg66
I9
sg67
VUSA
p232
sg69
V0084B4
p233
sg71
Vhttp://pbs.twimg.com/profile_images/573247485616889856/gHAtYS9O_normal.png
p234
sg73
I00
sg74
I00
sg75
Vhttps://pbs.twimg.com/profile_banners/2730855593/1425507876
p235
sg77
Vhttp://abs.twimg.com/images/themes/theme1/bg.png
p236
sg79
Vstockschamp
p237
sg81
Ven
p238
sg83
I00
sg84
I0
sg85
Vstockschamp
p239
sg87
I00
sg88
Vhttp://t.co/UWzH8kOOl9
p240
sg89
VFri Aug 01 16:39:24 +0000 2014
p241
sg91
I00
sg92
VDublin
p242
sg94
I00
sg95
I01
sg96
I00
ssg97
I00
sg98
g227
sg99
I2515
sg100
g228
sg101
g229
sg102
I00
sg103
I25
sg104
I00
sg105
I0
sg106
I53229
sg107
g231
sg108
I9
sg109
g232
sg110
g233
sg111
g234
sg112
I00
sg113
I00
sg114
g230
sg115
g235
sg116
g236
sg117
g237
sg118
g238
sg119
I00
sg120
I00
sg121
I0
sg122
g239
sg123
g240
sg124
g125
(S"\x07\xde\x08\x01\x10'\x18\x00\x00\x00"
p243
tp244
Rp245
sg129
g226
sg130
g242
sg131
I00
sg132
I01
sg133
I00
sbsg134
Nsg29
L663616195589857280L
sg135
I0
sg136
VSocial Ad Center
p246
sg118
Ven
p247
sg139
g206
sg124
g125
(S'\x07\xdf\x0b\t\x07\x10-\x00\x00\x00'
p248
tp249
Rp250
sg39
(dp251
g144
Nsg145
I00
sg146
g203
sg147
I00
sg148
Nsg45
L663616195589857280L
sg149
I0
sg150
V<a href="http://socialadcenter.com" rel="nofollow">Social Ad Center</a>
p252
sg152
I00
sg153
Nsg53
(dp253
g155
(lp254
(dp255
g158
(lp256
I89
aI94
asg146
VEGAN
p257
sa(dp258
g158
(lp259
I95
aI100
asg146
VNTRS
p260
sa(dp261
g158
(lp262
I101
aI105
asg146
VWIX
p263
sasg161
(lp264
sg163
(lp265
sg35
(lp266
(dp267
g88
Vhttps://t.co/8WvnrVmkBS
p268
sg158
(lp269
I62
aI85
asg169
Vhttp://PennyStockSecret.com
p270
sg171
VPennyStockSecret.com
p271
sassg173
Nsg174
Nsg175
I0
sg57
V663616195589857280
p272
sg177
I00
sg178
g225
sg179
Nsg180
Nsg181
I00
sg81
g247
sg89
VMon Nov 09 07:16:45 +0000 2015
p273
sg183
Nsg184
Nsg185
(dp274
g187
Ven
p275
sg189
Vrecent
p276
sssg191
g274
sg192
Nsg193
Nsg31
g253
sg194
Nsg195
Nsg101
g272
sg196
I00
sg197
Nsg198
I0
sg199
Nsbag0
(g4
g5
Ntp277
Rp278
(dp279
g9
I00
sg10
Nsg11
I00
sg12
VBrokers Set Expectations for eGain Corp\u2019s Q4 2015 Earnings $EGAN https://t.co/jVknaABPh7
p280
sg14
Vhttp://ifttt.com
p281
sg16
I00
sg17
I00
sg18
Nsg19
g0
(g20
g5
Ntp282
Rp283
(dp284
g24
I00
sg25
I00
sg26
I01
sg27
VDDEEF6
p285
sg29
L2525892205L
sg30
I00
sg31
(dp286
g88
(dp287
g35
(lp288
(dp289
g88
Vhttp://t.co/oT0s8pX8T2
p290
sg158
(lp291
I0
aI22
asg169
Vhttp://www.intercooleronline.com
p292
sg171
Vintercooleronline.com
p293
sassg33
(dp294
g35
(lp295
sssg37
Vhttps://pbs.twimg.com/profile_images/471038514675474432/wc-6YgXp_normal.jpeg
p296
sg39
(dp297
g41
I00
sg42
I00
sg43
I01
sg44
I00
sg45
L2525892205L
sg46
Vhttps://abs.twimg.com/images/themes/theme1/bg.png
p298
sg48
I00
sg49
V333333
p299
sg51
g296
sg52
g285
sg53
g286
sg54
I414
sg55
VC0DEED
p300
sg57
V2525892205
p301
sg59
VC0DEED
p302
sg61
I22
sg62
I00
sg63
Nsg64
I117976
sg33
g68
sg66
I6
sg67
VFlorida
p303
sg69
V0084B4
p304
sg71
Vhttp://pbs.twimg.com/profile_images/471038514675474432/wc-6YgXp_normal.jpeg
p305
sg73
I00
sg74
I00
sg75
Vhttps://pbs.twimg.com/profile_banners/2525892205/1401139391
p306
sg77
Vhttp://abs.twimg.com/images/themes/theme1/bg.png
p307
sg79
Vintercooleronli
p308
sg81
Ven
p309
sg83
I00
sg84
I0
sg85
VInterCooler
p310
sg87
I00
sg88
Vhttp://t.co/oT0s8pX8T2
p311
sg89
VMon May 26 21:20:18 +0000 2014
p312
sg91
I00
sg92
Nsg94
I00
sg95
I01
sg96
I00
ssg97
I00
sg98
g299
sg99
I414
sg100
g300
sg101
g301
sg102
I00
sg103
I22
sg104
I00
sg105
Nsg106
I117976
sg107
g68
sg108
I6
sg109
g303
sg110
g304
sg111
g305
sg112
I00
sg113
I00
sg114
g302
sg115
g306
sg116
g307
sg117
g308
sg118
g309
sg119
I00
sg120
I00
sg121
I0
sg122
g310
sg123
g311
sg124
g125
(S'\x07\xde\x05\x1a\x15\x14\x12\x00\x00\x00'
p313
tp314
Rp315
sg129
g298
sg130
Nsg131
I00
sg132
I01
sg133
I00
sbsg134
Nsg29
L663118610781589506L
sg135
I0
sg136
VIFTTT
p316
sg118
Ven
p317
sg139
g283
sg124
g125
(S'\x07\xdf\x0b\x07\x16\x13\x1f\x00\x00\x00'
p318
tp319
Rp320
sg39
(dp321
g144
Nsg145
I00
sg146
g280
sg147
I00
sg148
Nsg45
L663118610781589506L
sg149
I0
sg150
V<a href="http://ifttt.com" rel="nofollow">IFTTT</a>
p322
sg152
I00
sg153
Nsg53
(dp323
g155
(lp324
(dp325
g158
(lp326
I59
aI64
asg146
VEGAN
p327
sasg161
(lp328
sg163
(lp329
sg35
(lp330
(dp331
g88
Vhttps://t.co/jVknaABPh7
p332
sg158
(lp333
I65
aI88
asg169
Vhttp://ift.tt/1QlOYjt
p334
sg171
Vift.tt/1QlOYjt
p335
sassg173
Nsg174
Nsg175
I0
sg57
V663118610781589506
p336
sg177
I00
sg178
g297
sg179
Nsg180
Nsg181
I00
sg81
g317
sg89
VSat Nov 07 22:19:31 +0000 2015
p337
sg183
Nsg184
Nsg185
(dp338
g187
Ven
p339
sg189
Vrecent
p340
sssg191
g338
sg192
Nsg193
Nsg31
g323
sg194
Nsg195
Nsg101
g336
sg196
I00
sg197
Nsg198
I0
sg199
Nsbag0
(g4
g5
Ntp341
Rp342
(dp343
g9
I00
sg10
Nsg11
I00
sg12
VeGain Corp Forecasted to Post Q1 2016 Earnings of $$0.13 Per Share $EGAN https://t.co/8cfoB3BkJ0
p344
sg14
Vhttp://ifttt.com
p345
sg16
I00
sg17
I00
sg18
Nsg19
g0
(g20
g5
Ntp346
Rp347
(dp348
g24
I00
sg25
I00
sg26
I01
sg27
VDDEEF6
p349
sg29
L2525892205L
sg30
I00
sg31
(dp350
g88
(dp351
g35
(lp352
(dp353
g88
Vhttp://t.co/oT0s8pX8T2
p354
sg158
(lp355
I0
aI22
asg169
Vhttp://www.intercooleronline.com
p356
sg171
Vintercooleronline.com
p357
sassg33
(dp358
g35
(lp359
sssg37
Vhttps://pbs.twimg.com/profile_images/471038514675474432/wc-6YgXp_normal.jpeg
p360
sg39
(dp361
g41
I00
sg42
I00
sg43
I01
sg44
I00
sg45
L2525892205L
sg46
Vhttps://abs.twimg.com/images/themes/theme1/bg.png
p362
sg48
I00
sg49
V333333
p363
sg51
g360
sg52
g349
sg53
g350
sg54
I414
sg55
VC0DEED
p364
sg57
V2525892205
p365
sg59
VC0DEED
p366
sg61
I22
sg62
I00
sg63
Nsg64
I117976
sg33
g68
sg66
I6
sg67
VFlorida
p367
sg69
V0084B4
p368
sg71
Vhttp://pbs.twimg.com/profile_images/471038514675474432/wc-6YgXp_normal.jpeg
p369
sg73
I00
sg74
I00
sg75
Vhttps://pbs.twimg.com/profile_banners/2525892205/1401139391
p370
sg77
Vhttp://abs.twimg.com/images/themes/theme1/bg.png
p371
sg79
Vintercooleronli
p372
sg81
Ven
p373
sg83
I00
sg84
I0
sg85
VInterCooler
p374
sg87
I00
sg88
Vhttp://t.co/oT0s8pX8T2
p375
sg89
VMon May 26 21:20:18 +0000 2014
p376
sg91
I00
sg92
Nsg94
I00
sg95
I01
sg96
I00
ssg97
I00
sg98
g363
sg99
I414
sg100
g364
sg101
g365
sg102
I00
sg103
I22
sg104
I00
sg105
Nsg106
I117976
sg107
g68
sg108
I6
sg109
g367
sg110
g368
sg111
g369
sg112
I00
sg113
I00
sg114
g366
sg115
g370
sg116
g371
sg117
g372
sg118
g373
sg119
I00
sg120
I00
sg121
I0
sg122
g374
sg123
g375
sg124
g125
(S'\x07\xde\x05\x1a\x15\x14\x12\x00\x00\x00'
p377
tp378
Rp379
sg129
g362
sg130
Nsg131
I00
sg132
I01
sg133
I00
sbsg134
Nsg29
L663118609544269825L
sg135
I0
sg136
VIFTTT
p380
sg118
Ven
p381
sg139
g347
sg124
g125
(S'\x07\xdf\x0b\x07\x16\x13\x1f\x00\x00\x00'
p382
tp383
Rp384
sg39
(dp385
g144
Nsg145
I00
sg146
g344
sg147
I00
sg148
Nsg45
L663118609544269825L
sg149
I0
sg150
V<a href="http://ifttt.com" rel="nofollow">IFTTT</a>
p386
sg152
I00
sg153
Nsg53
(dp387
g155
(lp388
(dp389
g158
(lp390
I67
aI72
asg146
VEGAN
p391
sasg161
(lp392
sg163
(lp393
sg35
(lp394
(dp395
g88
Vhttps://t.co/8cfoB3BkJ0
p396
sg158
(lp397
I73
aI96
asg169
Vhttp://ift.tt/1NXgGR1
p398
sg171
Vift.tt/1NXgGR1
p399
sassg173
Nsg174
Nsg175
I0
sg57
V663118609544269825
p400
sg177
I00
sg178
g361
sg179
Nsg180
Nsg181
I00
sg81
g381
sg89
VSat Nov 07 22:19:31 +0000 2015
p401
sg183
Nsg184
Nsg185
(dp402
g187
Ven
p403
sg189
Vrecent
p404
sssg191
g402
sg192
Nsg193
Nsg31
g387
sg194
Nsg195
Nsg101
g400
sg196
I00
sg197
Nsg198
I0
sg199
Nsbag0
(g4
g5
Ntp405
Rp406
(dp407
g9
I00
sg10
Nsg11
I00
sg12
VAnalyst Lifts Q2 2016 EPS Estimates for eGain Corp $EGAN https://t.co/gv1E1Ix5G1
p408
sg14
Vhttp://ifttt.com
p409
sg16
I00
sg17
I00
sg18
Nsg19
g0
(g20
g5
Ntp410
Rp411
(dp412
g24
I00
sg25
I00
sg26
I01
sg27
VDDEEF6
p413
sg29
L2525892205L
sg30
I00
sg31
(dp414
g88
(dp415
g35
(lp416
(dp417
g88
Vhttp://t.co/oT0s8pX8T2
p418
sg158
(lp419
I0
aI22
asg169
Vhttp://www.intercooleronline.com
p420
sg171
Vintercooleronline.com
p421
sassg33
(dp422
g35
(lp423
sssg37
Vhttps://pbs.twimg.com/profile_images/471038514675474432/wc-6YgXp_normal.jpeg
p424
sg39
(dp425
g41
I00
sg42
I00
sg43
I01
sg44
I00
sg45
L2525892205L
sg46
Vhttps://abs.twimg.com/images/themes/theme1/bg.png
p426
sg48
I00
sg49
V333333
p427
sg51
g424
sg52
g413
sg53
g414
sg54
I414
sg55
VC0DEED
p428
sg57
V2525892205
p429
sg59
VC0DEED
p430
sg61
I22
sg62
I00
sg63
Nsg64
I117976
sg33
g68
sg66
I6
sg67
VFlorida
p431
sg69
V0084B4
p432
sg71
Vhttp://pbs.twimg.com/profile_images/471038514675474432/wc-6YgXp_normal.jpeg
p433
sg73
I00
sg74
I00
sg75
Vhttps://pbs.twimg.com/profile_banners/2525892205/1401139391
p434
sg77
Vhttp://abs.twimg.com/images/themes/theme1/bg.png
p435
sg79
Vintercooleronli
p436
sg81
Ven
p437
sg83
I00
sg84
I0
sg85
VInterCooler
p438
sg87
I00
sg88
Vhttp://t.co/oT0s8pX8T2
p439
sg89
VMon May 26 21:20:18 +0000 2014
p440
sg91
I00
sg92
Nsg94
I00
sg95
I01
sg96
I00
ssg97
I00
sg98
g427
sg99
I414
sg100
g428
sg101
g429
sg102
I00
sg103
I22
sg104
I00
sg105
Nsg106
I117976
sg107
g68
sg108
I6
sg109
g431
sg110
g432
sg111
g433
sg112
I00
sg113
I00
sg114
g430
sg115
g434
sg116
g435
sg117
g436
sg118
g437
sg119
I00
sg120
I00
sg121
I0
sg122
g438
sg123
g439
sg124
g125
(S'\x07\xde\x05\x1a\x15\x14\x12\x00\x00\x00'
p441
tp442
Rp443
sg129
g426
sg130
Nsg131
I00
sg132
I01
sg133
I00
sbsg134
Nsg29
L663118607996579841L
sg135
I0
sg136
VIFTTT
p444
sg118
Ven
p445
sg139
g411
sg124
g125
(S'\x07\xdf\x0b\x07\x16\x13\x1e\x00\x00\x00'
p446
tp447
Rp448
sg39
(dp449
g144
Nsg145
I00
sg146
g408
sg147
I00
sg148
Nsg45
L663118607996579841L
sg149
I0
sg150
V<a href="http://ifttt.com" rel="nofollow">IFTTT</a>
p450
sg152
I00
sg153
Nsg53
(dp451
g155
(lp452
(dp453
g158
(lp454
I51
aI56
asg146
VEGAN
p455
sasg161
(lp456
sg163
(lp457
sg35
(lp458
(dp459
g88
Vhttps://t.co/gv1E1Ix5G1
p460
sg158
(lp461
I57
aI80
asg169
Vhttp://ift.tt/1QlOYjq
p462
sg171
Vift.tt/1QlOYjq
p463
sassg173
Nsg174
Nsg175
I0
sg57
V663118607996579841
p464
sg177
I00
sg178
g425
sg179
Nsg180
Nsg181
I00
sg81
g445
sg89
VSat Nov 07 22:19:30 +0000 2015
p465
sg183
Nsg184
Nsg185
(dp466
g187
Ven
p467
sg189
Vrecent
p468
sssg191
g466
sg192
Nsg193
Nsg31
g451
sg194
Nsg195
Nsg101
g464
sg196
I00
sg197
Nsg198
I0
sg199
Nsbag0
(g4
g5
Ntp469
Rp470
(dp471
g9
I00
sg10
Nsg11
I00
sg12
VEquities Analysts Issue Forecasts for eGain Corp\u2019s FY2016 Earnings $EGAN https://t.co/GBPR278508
p472
sg14
Vhttp://ifttt.com
p473
sg16
I00
sg17
I00
sg18
Nsg19
g0
(g20
g5
Ntp474
Rp475
(dp476
g24
I00
sg25
I00
sg26
I01
sg27
VC0DFEC
p477
sg29
L2181281054L
sg30
I00
sg31
(dp478
g88
(dp479
g35
(lp480
(dp481
g88
Vhttp://t.co/NYpmdUJnIe
p482
sg158
(lp483
I0
aI22
asg169
Vhttp://www.wkrb13.com
p484
sg171
Vwkrb13.com
p485
sassg33
(dp486
g35
(lp487
(dp488
g88
Vhttp://t.co/n4QyKK8afr
p489
sg158
(lp490
I31
aI53
asg169
Vhttp://WKRB13.com
p491
sg171
VWKRB13.com
p492
sasssg37
Vhttps://pbs.twimg.com/profile_images/378800000709495912/4d5b1653db87aeb8c4685ea3febc9ab0_normal.png
p493
sg39
(dp494
g41
I00
sg42
I00
sg43
I01
sg44
I00
sg45
L2181281054L
sg46
Vhttps://abs.twimg.com/images/themes/theme15/bg.png
p495
sg48
I00
sg49
V333333
p496
sg51
g493
sg52
g477
sg53
g478
sg54
I506
sg55
VA8C7F7
p497
sg57
V2181281054
p498
sg59
V022330
p499
sg61
I73
sg62
I00
sg63
Nsg64
I299436
sg33
VWKRB News - News and Analysis. http://t.co/n4QyKK8afr
p500
sg66
I8
sg67
g68
sg69
V0084B4
p501
sg71
Vhttp://pbs.twimg.com/profile_images/378800000709495912/4d5b1653db87aeb8c4685ea3febc9ab0_normal.png
p502
sg73
I00
sg74
I00
sg77
Vhttp://abs.twimg.com/images/themes/theme15/bg.png
p503
sg79
VWKRBNews
p504
sg81
Ven
p505
sg83
I00
sg84
I0
sg85
VWKRB News
p506
sg87
I00
sg88
Vhttp://t.co/NYpmdUJnIe
p507
sg89
VFri Nov 08 02:17:02 +0000 2013
p508
sg91
I00
sg92
Nsg94
I00
sg95
I00
sg96
I00
ssg97
I00
sg98
g496
sg99
I506
sg100
g497
sg101
g498
sg102
I00
sg103
I73
sg104
I00
sg105
Nsg106
I299436
sg107
g500
sg108
I8
sg109
g68
sg110
g501
sg111
g502
sg112
I00
sg113
I00
sg114
g499
sg116
g503
sg117
g504
sg118
g505
sg119
I00
sg120
I00
sg121
I0
sg122
g506
sg123
g507
sg124
g125
(S'\x07\xdd\x0b\x08\x02\x11\x02\x00\x00\x00'
p509
tp510
Rp511
sg129
g495
sg130
Nsg131
I00
sg132
I00
sg133
I00
sbsg134
Nsg29
L663118579890577408L
sg135
I0
sg136
VIFTTT
p512
sg118
Ven
p513
sg139
g475
sg124
g125
(S'\x07\xdf\x0b\x07\x16\x13\x18\x00\x00\x00'
p514
tp515
Rp516
sg39
(dp517
g144
Nsg145
I00
sg146
g472
sg147
I00
sg148
Nsg45
L663118579890577408L
sg149
I0
sg150
V<a href="http://ifttt.com" rel="nofollow">IFTTT</a>
p518
sg152
I00
sg153
Nsg53
(dp519
g155
(lp520
(dp521
g158
(lp522
I67
aI72
asg146
VEGAN
p523
sasg161
(lp524
sg163
(lp525
sg35
(lp526
(dp527
g88
Vhttps://t.co/GBPR278508
p528
sg158
(lp529
I73
aI96
asg169
Vhttp://ift.tt/1lcoepQ
p530
sg171
Vift.tt/1lcoepQ
p531
sassg173
Nsg174
Nsg175
I0
sg57
V663118579890577408
p532
sg177
I00
sg178
g494
sg179
Nsg180
Nsg181
I00
sg81
g513
sg89
VSat Nov 07 22:19:24 +0000 2015
p533
sg183
Nsg184
Nsg185
(dp534
g187
Ven
p535
sg189
Vrecent
p536
sssg191
g534
sg192
Nsg193
Nsg31
g519
sg194
Nsg195
Nsg101
g532
sg196
I00
sg197
Nsg198
I0
sg199
Nsbag0
(g4
g5
Ntp537
Rp538
(dp539
g9
I00
sg10
Nsg11
I00
sg12
VAnalyst Lifts Q4 2015 EPS Estimates for eGain Corp $EGAN https://t.co/vemGkf3Liq
p540
sg14
Vhttp://ifttt.com
p541
sg16
I00
sg17
I00
sg18
Nsg19
g0
(g20
g5
Ntp542
Rp543
(dp544
g24
I00
sg25
I00
sg26
I01
sg27
VC0DFEC
p545
sg29
L2181281054L
sg30
I00
sg31
(dp546
g88
(dp547
g35
(lp548
(dp549
g88
Vhttp://t.co/NYpmdUJnIe
p550
sg158
(lp551
I0
aI22
asg169
Vhttp://www.wkrb13.com
p552
sg171
Vwkrb13.com
p553
sassg33
(dp554
g35
(lp555
(dp556
g88
Vhttp://t.co/n4QyKK8afr
p557
sg158
(lp558
I31
aI53
asg169
Vhttp://WKRB13.com
p559
sg171
VWKRB13.com
p560
sasssg37
Vhttps://pbs.twimg.com/profile_images/378800000709495912/4d5b1653db87aeb8c4685ea3febc9ab0_normal.png
p561
sg39
(dp562
g41
I00
sg42
I00
sg43
I01
sg44
I00
sg45
L2181281054L
sg46
Vhttps://abs.twimg.com/images/themes/theme15/bg.png
p563
sg48
I00
sg49
V333333
p564
sg51
g561
sg52
g545
sg53
g546
sg54
I506
sg55
VA8C7F7
p565
sg57
V2181281054
p566
sg59
V022330
p567
sg61
I73
sg62
I00
sg63
Nsg64
I299436
sg33
VWKRB News - News and Analysis. http://t.co/n4QyKK8afr
p568
sg66
I8
sg67
g68
sg69
V0084B4
p569
sg71
Vhttp://pbs.twimg.com/profile_images/378800000709495912/4d5b1653db87aeb8c4685ea3febc9ab0_normal.png
p570
sg73
I00
sg74
I00
sg77
Vhttp://abs.twimg.com/images/themes/theme15/bg.png
p571
sg79
VWKRBNews
p572
sg81
Ven
p573
sg83
I00
sg84
I0
sg85
VWKRB News
p574
sg87
I00
sg88
Vhttp://t.co/NYpmdUJnIe
p575
sg89
VFri Nov 08 02:17:02 +0000 2013
p576
sg91
I00
sg92
Nsg94
I00
sg95
I00
sg96
I00
ssg97
I00
sg98
g564
sg99
I506
sg100
g565
sg101
g566
sg102
I00
sg103
I73
sg104
I00
sg105
Nsg106
I299436
sg107
g568
sg108
I8
sg109
g68
sg110
g569
sg111
g570
sg112
I00
sg113
I00
sg114
g567
sg116
g571
sg117
g572
sg118
g573
sg119
I00
sg120
I00
sg121
I0
sg122
g574
sg123
g575
sg124
g125
(S'\x07\xdd\x0b\x08\x02\x11\x02\x00\x00\x00'
p577
tp578
Rp579
sg129
g563
sg130
Nsg131
I00
sg132
I00
sg133
I00
sbsg134
Nsg29
L663118578481262592L
sg135
I0
sg136
VIFTTT
p580
sg118
Ven
p581
sg139
g543
sg124
g125
(S'\x07\xdf\x0b\x07\x16\x13\x17\x00\x00\x00'
p582
tp583
Rp584
sg39
(dp585
g144
Nsg145
I00
sg146
g540
sg147
I00
sg148
Nsg45
L663118578481262592L
sg149
I0
sg150
V<a href="http://ifttt.com" rel="nofollow">IFTTT</a>
p586
sg152
I00
sg153
Nsg53
(dp587
g155
(lp588
(dp589
g158
(lp590
I51
aI56
asg146
VEGAN
p591
sasg161
(lp592
sg163
(lp593
sg35
(lp594
(dp595
g88
Vhttps://t.co/vemGkf3Liq
p596
sg158
(lp597
I57
aI80
asg169
Vhttp://ift.tt/1RFiNK8
p598
sg171
Vift.tt/1RFiNK8
p599
sassg173
Nsg174
Nsg175
I0
sg57
V663118578481262592
p600
sg177
I00
sg178
g562
sg179
Nsg180
Nsg181
I00
sg81
g581
sg89
VSat Nov 07 22:19:23 +0000 2015
p601
sg183
Nsg184
Nsg185
(dp602
g187
Ven
p603
sg189
Vrecent
p604
sssg191
g602
sg192
Nsg193
Nsg31
g587
sg194
Nsg195
Nsg101
g600
sg196
I00
sg197
Nsg198
I0
sg199
Nsbag0
(g4
g5
Ntp605
Rp606
(dp607
g9
I00
sg10
Nsg11
I00
sg12
VeGain Corp to Post Q2 2016 Earnings of $$0.12 Per Share, Craig Hallum Forecasts $EGAN https://t.co/airhunWumy
p608
sg14
Vhttp://ifttt.com
p609
sg16
I00
sg17
I00
sg18
Nsg19
g0
(g20
g5
Ntp610
Rp611
(dp612
g24
I00
sg25
I00
sg26
I01
sg27
VC0DFEC
p613
sg29
L2181281054L
sg30
I00
sg31
(dp614
g88
(dp615
g35
(lp616
(dp617
g88
Vhttp://t.co/NYpmdUJnIe
p618
sg158
(lp619
I0
aI22
asg169
Vhttp://www.wkrb13.com
p620
sg171
Vwkrb13.com
p621
sassg33
(dp622
g35
(lp623
(dp624
g88
Vhttp://t.co/n4QyKK8afr
p625
sg158
(lp626
I31
aI53
asg169
Vhttp://WKRB13.com
p627
sg171
VWKRB13.com
p628
sasssg37
Vhttps://pbs.twimg.com/profile_images/378800000709495912/4d5b1653db87aeb8c4685ea3febc9ab0_normal.png
p629
sg39
(dp630
g41
I00
sg42
I00
sg43
I01
sg44
I00
sg45
L2181281054L
sg46
Vhttps://abs.twimg.com/images/themes/theme15/bg.png
p631
sg48
I00
sg49
V333333
p632
sg51
g629
sg52
g613
sg53
g614
sg54
I506
sg55
VA8C7F7
p633
sg57
V2181281054
p634
sg59
V022330
p635
sg61
I73
sg62
I00
sg63
Nsg64
I299436
sg33
VWKRB News - News and Analysis. http://t.co/n4QyKK8afr
p636
sg66
I8
sg67
g68
sg69
V0084B4
p637
sg71
Vhttp://pbs.twimg.com/profile_images/378800000709495912/4d5b1653db87aeb8c4685ea3febc9ab0_normal.png
p638
sg73
I00
sg74
I00
sg77
Vhttp://abs.twimg.com/images/themes/theme15/bg.png
p639
sg79
VWKRBNews
p640
sg81
Ven
p641
sg83
I00
sg84
I0
sg85
VWKRB News
p642
sg87
I00
sg88
Vhttp://t.co/NYpmdUJnIe
p643
sg89
VFri Nov 08 02:17:02 +0000 2013
p644
sg91
I00
sg92
Nsg94
I00
sg95
I00
sg96
I00
ssg97
I00
sg98
g632
sg99
I506
sg100
g633
sg101
g634
sg102
I00
sg103
I73
sg104
I00
sg105
Nsg106
I299436
sg107
g636
sg108
I8
sg109
g68
sg110
g637
sg111
g638
sg112
I00
sg113
I00
sg114
g635
sg116
g639
sg117
g640
sg118
g641
sg119
I00
sg120
I00
sg121
I0
sg122
g642
sg123
g643
sg124
g125
(S'\x07\xdd\x0b\x08\x02\x11\x02\x00\x00\x00'
p645
tp646
Rp647
sg129
g631
sg130
Nsg131
I00
sg132
I00
sg133
I00
sbsg134
Nsg29
L663118576912605184L
sg135
I0
sg136
VIFTTT
p648
sg118
Ven
p649
sg139
g611
sg124
g125
(S'\x07\xdf\x0b\x07\x16\x13\x17\x00\x00\x00'
p650
tp651
Rp652
sg39
(dp653
g144
Nsg145
I00
sg146
g608
sg147
I00
sg148
Nsg45
L663118576912605184L
sg149
I0
sg150
V<a href="http://ifttt.com" rel="nofollow">IFTTT</a>
p654
sg152
I00
sg153
Nsg53
(dp655
g155
(lp656
(dp657
g158
(lp658
I80
aI85
asg146
VEGAN
p659
sasg161
(lp660
sg163
(lp661
sg35
(lp662
(dp663
g88
Vhttps://t.co/airhunWumy
p664
sg158
(lp665
I86
aI109
asg169
Vhttp://ift.tt/1lcochC
p666
sg171
Vift.tt/1lcochC
p667
sassg173
Nsg174
Nsg175
I0
sg57
V663118576912605184
p668
sg177
I00
sg178
g630
sg179
Nsg180
Nsg181
I00
sg81
g649
sg89
VSat Nov 07 22:19:23 +0000 2015
p669
sg183
Nsg184
Nsg185
(dp670
g187
Ven
p671
sg189
Vrecent
p672
sssg191
g670
sg192
Nsg193
Nsg31
g655
sg194
Nsg195
Nsg101
g668
sg196
I00
sg197
Nsg198
I0
sg199
Nsbag0
(g4
g5
Ntp673
Rp674
(dp675
g9
I00
sg10
Nsg11
I00
sg12
VEquities Analysts Issue Forecasts for eGain Corp\u2019s FY2016 Earnings $EGAN https://t.co/n238L5NW5S
p676
sg14
Vhttp://ifttt.com
p677
sg16
I00
sg17
I00
sg18
Nsg19
g0
(g20
g5
Ntp678
Rp679
(dp680
g24
I00
sg25
I00
sg26
I01
sg27
VEFEFEF
p681
sg29
I1979190776
sg30
I00
sg31
(dp682
g33
(dp683
g35
(lp684
sssg37
Vhttps://pbs.twimg.com/profile_images/378800000629011324/02a58ce4852fa2c0b053a8853393c35c_normal.png
p685
sg39
(dp686
g41
I00
sg42
I00
sg43
I01
sg44
I00
sg45
I1979190776
sg46
Vhttps://abs.twimg.com/images/themes/theme14/bg.gif
p687
sg48
I00
sg49
V333333
p688
sg51
g685
sg52
g681
sg53
g682
sg54
I780
sg55
VEEEEEE
p689
sg57
V1979190776
p690
sg59
V131516
p691
sg61
I83
sg62
I00
sg63
Nsg64
I347263
sg33
VMarket moving news
p692
sg66
I11
sg67
VVirginia
p693
sg69
V009999
p694
sg71
Vhttp://pbs.twimg.com/profile_images/378800000629011324/02a58ce4852fa2c0b053a8853393c35c_normal.png
p695
sg73
I00
sg74
I00
sg77
Vhttp://abs.twimg.com/images/themes/theme14/bg.gif
p696
sg79
VTickerReport
p697
sg81
Ven
p698
sg83
I01
sg84
I0
sg85
VTicker Report
p699
sg87
I00
sg88
Nsg89
VMon Oct 21 15:58:27 +0000 2013
p700
sg91
I00
sg92
Nsg94
I00
sg95
I00
sg96
I00
ssg97
I00
sg98
g688
sg99
I780
sg100
g689
sg101
g690
sg102
I00
sg103
I83
sg104
I00
sg105
Nsg106
I347263
sg107
g692
sg108
I11
sg109
g693
sg110
g694
sg111
g695
sg112
I00
sg113
I00
sg114
g691
sg116
g696
sg117
g697
sg118
g698
sg119
I00
sg120
I01
sg121
I0
sg122
g699
sg123
Nsg124
g125
(S'\x07\xdd\n\x15\x0f:\x1b\x00\x00\x00'
p701
tp702
Rp703
sg129
g687
sg130
Nsg131
I00
sg132
I00
sg133
I00
sbsg134
Nsg29
L663117866120671232L
sg135
I0
sg136
VIFTTT
p704
sg118
Ven
p705
sg139
g679
sg124
g125
(S'\x07\xdf\x0b\x07\x16\x10"\x00\x00\x00'
p706
tp707
Rp708
sg39
(dp709
g144
Nsg145
I00
sg146
g676
sg147
I00
sg148
Nsg45
L663117866120671232L
sg149
I0
sg150
V<a href="http://ifttt.com" rel="nofollow">IFTTT</a>
p710
sg152
I00
sg153
Nsg53
(dp711
g155
(lp712
(dp713
g158
(lp714
I67
aI72
asg146
VEGAN
p715
sasg161
(lp716
sg163
(lp717
sg35
(lp718
(dp719
g88
Vhttps://t.co/n238L5NW5S
p720
sg158
(lp721
I73
aI96
asg169
Vhttp://ift.tt/1NAAmfp
p722
sg171
Vift.tt/1NAAmfp
p723
sassg173
Nsg174
Nsg175
I0
sg57
V663117866120671232
p724
sg177
I00
sg178
g686
sg179
Nsg180
Nsg181
I00
sg81
g705
sg89
VSat Nov 07 22:16:34 +0000 2015
p725
sg183
Nsg184
Nsg185
(dp726
g187
Ven
p727
sg189
Vrecent
p728
sssg191
g726
sg192
Nsg193
Nsg31
g711
sg194
Nsg195
Nsg101
g724
sg196
I00
sg197
Nsg198
I0
sg199
Nsbag0
(g4
g5
Ntp729
Rp730
(dp731
g9
I00
sg10
Nsg11
I00
sg12
VBrokers Set Expectations for eGain Corp\u2019s Q4 2015 Earnings $EGAN https://t.co/gVM59rd0uf
p732
sg14
Vhttp://ifttt.com
p733
sg16
I00
sg17
I00
sg18
Nsg19
g0
(g20
g5
Ntp734
Rp735
(dp736
g24
I00
sg25
I00
sg26
I01
sg27
VEFEFEF
p737
sg29
I1979190776
sg30
I00
sg31
(dp738
g33
(dp739
g35
(lp740
sssg37
Vhttps://pbs.twimg.com/profile_images/378800000629011324/02a58ce4852fa2c0b053a8853393c35c_normal.png
p741
sg39
(dp742
g41
I00
sg42
I00
sg43
I01
sg44
I00
sg45
I1979190776
sg46
Vhttps://abs.twimg.com/images/themes/theme14/bg.gif
p743
sg48
I00
sg49
V333333
p744
sg51
g741
sg52
g737
sg53
g738
sg54
I780
sg55
VEEEEEE
p745
sg57
V1979190776
p746
sg59
V131516
p747
sg61
I83
sg62
I00
sg63
Nsg64
I347263
sg33
VMarket moving news
p748
sg66
I11
sg67
VVirginia
p749
sg69
V009999
p750
sg71
Vhttp://pbs.twimg.com/profile_images/378800000629011324/02a58ce4852fa2c0b053a8853393c35c_normal.png
p751
sg73
I00
sg74
I00
sg77
Vhttp://abs.twimg.com/images/themes/theme14/bg.gif
p752
sg79
VTickerReport
p753
sg81
Ven
p754
sg83
I01
sg84
I0
sg85
VTicker Report
p755
sg87
I00
sg88
Nsg89
VMon Oct 21 15:58:27 +0000 2013
p756
sg91
I00
sg92
Nsg94
I00
sg95
I00
sg96
I00
ssg97
I00
sg98
g744
sg99
I780
sg100
g745
sg101
g746
sg102
I00
sg103
I83
sg104
I00
sg105
Nsg106
I347263
sg107
g748
sg108
I11
sg109
g749
sg110
g750
sg111
g751
sg112
I00
sg113
I00
sg114
g747
sg116
g752
sg117
g753
sg118
g754
sg119
I00
sg120
I01
sg121
I0
sg122
g755
sg123
Nsg124
g125
(S'\x07\xdd\n\x15\x0f:\x1b\x00\x00\x00'
p757
tp758
Rp759
sg129
g743
sg130
Nsg131
I00
sg132
I00
sg133
I00
sbsg134
Nsg29
L663117863251746817L
sg135
I0
sg136
VIFTTT
p760
sg118
Ven
p761
sg139
g735
sg124
g125
(S'\x07\xdf\x0b\x07\x16\x10!\x00\x00\x00'
p762
tp763
Rp764
sg39
(dp765
g144
Nsg145
I00
sg146
g732
sg147
I00
sg148
Nsg45
L663117863251746817L
sg149
I0
sg150
V<a href="http://ifttt.com" rel="nofollow">IFTTT</a>
p766
sg152
I00
sg153
Nsg53
(dp767
g155
(lp768
(dp769
g158
(lp770
I59
aI64
asg146
VEGAN
p771
sasg161
(lp772
sg163
(lp773
sg35
(lp774
(dp775
g88
Vhttps://t.co/gVM59rd0uf
p776
sg158
(lp777
I65
aI88
asg169
Vhttp://ift.tt/1NXgsJI
p778
sg171
Vift.tt/1NXgsJI
p779
sassg173
Nsg174
Nsg175
I0
sg57
V663117863251746817
p780
sg177
I00
sg178
g742
sg179
Nsg180
Nsg181
I00
sg81
g761
sg89
VSat Nov 07 22:16:33 +0000 2015
p781
sg183
Nsg184
Nsg185
(dp782
g187
Ven
p783
sg189
Vrecent
p784
sssg191
g782
sg192
Nsg193
Nsg31
g767
sg194
Nsg195
Nsg101
g780
sg196
I00
sg197
Nsg198
I0
sg199
Nsbag0
(g4
g5
Ntp785
Rp786
(dp787
g9
I00
sg10
Nsg11
I00
sg12
VeGain Corp Forecasted to Post Q1 2016 Earnings of $$0.13 Per Share $EGAN https://t.co/85N30KgBAv
p788
sg14
Vhttp://ifttt.com
p789
sg16
I00
sg17
I00
sg18
Nsg19
g0
(g20
g5
Ntp790
Rp791
(dp792
g24
I00
sg25
I00
sg26
I01
sg27
VEFEFEF
p793
sg29
I1979190776
sg30
I00
sg31
(dp794
g33
(dp795
g35
(lp796
sssg37
Vhttps://pbs.twimg.com/profile_images/378800000629011324/02a58ce4852fa2c0b053a8853393c35c_normal.png
p797
sg39
(dp798
g41
I00
sg42
I00
sg43
I01
sg44
I00
sg45
I1979190776
sg46
Vhttps://abs.twimg.com/images/themes/theme14/bg.gif
p799
sg48
I00
sg49
V333333
p800
sg51
g797
sg52
g793
sg53
g794
sg54
I780
sg55
VEEEEEE
p801
sg57
V1979190776
p802
sg59
V131516
p803
sg61
I83
sg62
I00
sg63
Nsg64
I347263
sg33
VMarket moving news
p804
sg66
I11
sg67
VVirginia
p805
sg69
V009999
p806
sg71
Vhttp://pbs.twimg.com/profile_images/378800000629011324/02a58ce4852fa2c0b053a8853393c35c_normal.png
p807
sg73
I00
sg74
I00
sg77
Vhttp://abs.twimg.com/images/themes/theme14/bg.gif
p808
sg79
VTickerReport
p809
sg81
Ven
p810
sg83
I01
sg84
I0
sg85
VTicker Report
p811
sg87
I00
sg88
Nsg89
VMon Oct 21 15:58:27 +0000 2013
p812
sg91
I00
sg92
Nsg94
I00
sg95
I00
sg96
I00
ssg97
I00
sg98
g800
sg99
I780
sg100
g801
sg101
g802
sg102
I00
sg103
I83
sg104
I00
sg105
Nsg106
I347263
sg107
g804
sg108
I11
sg109
g805
sg110
g806
sg111
g807
sg112
I00
sg113
I00
sg114
g803
sg116
g808
sg117
g809
sg118
g810
sg119
I00
sg120
I01
sg121
I0
sg122
g811
sg123
Nsg124
g125
(S'\x07\xdd\n\x15\x0f:\x1b\x00\x00\x00'
p813
tp814
Rp815
sg129
g799
sg130
Nsg131
I00
sg132
I00
sg133
I00
sbsg134
Nsg29
L663117861204946944L
sg135
I0
sg136
VIFTTT
p816
sg118
Ven
p817
sg139
g791
sg124
g125
(S'\x07\xdf\x0b\x07\x16\x10 \x00\x00\x00'
p818
tp819
Rp820
sg39
(dp821
g144
Nsg145
I00
sg146
g788
sg147
I00
sg148
Nsg45
L663117861204946944L
sg149
I0
sg150
V<a href="http://ifttt.com" rel="nofollow">IFTTT</a>
p822
sg152
I00
sg153
Nsg53
(dp823
g155
(lp824
(dp825
g158
(lp826
I67
aI72
asg146
VEGAN
p827
sasg161
(lp828
sg163
(lp829
sg35
(lp830
(dp831
g88
Vhttps://t.co/85N30KgBAv
p832
sg158
(lp833
I73
aI96
asg169
Vhttp://ift.tt/1NAAmfn
p834
sg171
Vift.tt/1NAAmfn
p835
sassg173
Nsg174
Nsg175
I0
sg57
V663117861204946944
p836
sg177
I00
sg178
g798
sg179
Nsg180
Nsg181
I00
sg81
g817
sg89
VSat Nov 07 22:16:32 +0000 2015
p837
sg183
Nsg184
Nsg185
(dp838
g187
Ven
p839
sg189
Vrecent
p840
sssg191
g838
sg192
Nsg193
Nsg31
g823
sg194
Nsg195
Nsg101
g836
sg196
I00
sg197
Nsg198
I0
sg199
Nsbag0
(g4
g5
Ntp841
Rp842
(dp843
g9
I00
sg10
Nsg11
I00
sg12
VAnalyst Lifts Q2 2016 EPS Estimates for eGain Corp $EGAN https://t.co/WMFEeqoe6k
p844
sg14
Vhttp://ifttt.com
p845
sg16
I00
sg17
I00
sg18
Nsg19
g0
(g20
g5
Ntp846
Rp847
(dp848
g24
I00
sg25
I00
sg26
I01
sg27
VEFEFEF
p849
sg29
I1979190776
sg30
I00
sg31
(dp850
g33
(dp851
g35
(lp852
sssg37
Vhttps://pbs.twimg.com/profile_images/378800000629011324/02a58ce4852fa2c0b053a8853393c35c_normal.png
p853
sg39
(dp854
g41
I00
sg42
I00
sg43
I01
sg44
I00
sg45
I1979190776
sg46
Vhttps://abs.twimg.com/images/themes/theme14/bg.gif
p855
sg48
I00
sg49
V333333
p856
sg51
g853
sg52
g849
sg53
g850
sg54
I780
sg55
VEEEEEE
p857
sg57
V1979190776
p858
sg59
V131516
p859
sg61
I83
sg62
I00
sg63
Nsg64
I347263
sg33
VMarket moving news
p860
sg66
I11
sg67
VVirginia
p861
sg69
V009999
p862
sg71
Vhttp://pbs.twimg.com/profile_images/378800000629011324/02a58ce4852fa2c0b053a8853393c35c_normal.png
p863
sg73
I00
sg74
I00
sg77
Vhttp://abs.twimg.com/images/themes/theme14/bg.gif
p864
sg79
VTickerReport
p865
sg81
Ven
p866
sg83
I01
sg84
I0
sg85
VTicker Report
p867
sg87
I00
sg88
Nsg89
VMon Oct 21 15:58:27 +0000 2013
p868
sg91
I00
sg92
Nsg94
I00
sg95
I00
sg96
I00
ssg97
I00
sg98
g856
sg99
I780
sg100
g857
sg101
g858
sg102
I00
sg103
I83
sg104
I00
sg105
Nsg106
I347263
sg107
g860
sg108
I11
sg109
g861
sg110
g862
sg111
g863
sg112
I00
sg113
I00
sg114
g859
sg116
g864
sg117
g865
sg118
g866
sg119
I00
sg120
I01
sg121
I0
sg122
g867
sg123
Nsg124
g125
(S'\x07\xdd\n\x15\x0f:\x1b\x00\x00\x00'
p869
tp870
Rp871
sg129
g855
sg130
Nsg131
I00
sg132
I00
sg133
I00
sbsg134
Nsg29
L663117856725467136L
sg135
I0
sg136
VIFTTT
p872
sg118
Ven
p873
sg139
g847
sg124
g125
(S'\x07\xdf\x0b\x07\x16\x10\x1f\x00\x00\x00'
p874
tp875
Rp876
sg39
(dp877
g144
Nsg145
I00
sg146
g844
sg147
I00
sg148
Nsg45
L663117856725467136L
sg149
I0
sg150
V<a href="http://ifttt.com" rel="nofollow">IFTTT</a>
p878
sg152
I00
sg153
Nsg53
(dp879
g155
(lp880
(dp881
g158
(lp882
I51
aI56
asg146
VEGAN
p883
sasg161
(lp884
sg163
(lp885
sg35
(lp886
(dp887
g88
Vhttps://t.co/WMFEeqoe6k
p888
sg158
(lp889
I57
aI80
asg169
Vhttp://ift.tt/1NAAmfj
p890
sg171
Vift.tt/1NAAmfj
p891
sassg173
Nsg174
Nsg175
I0
sg57
V663117856725467136
p892
sg177
I00
sg178
g854
sg179
Nsg180
Nsg181
I00
sg81
g873
sg89
VSat Nov 07 22:16:31 +0000 2015
p893
sg183
Nsg184
Nsg185
(dp894
g187
Ven
p895
sg189
Vrecent
p896
sssg191
g894
sg192
Nsg193
Nsg31
g879
sg194
Nsg195
Nsg101
g892
sg196
I00
sg197
Nsg198
I0
sg199
Nsbag0
(g4
g5
Ntp897
Rp898
(dp899
g9
I00
sg10
Nsg11
I00
sg12
VCraig Hallum Brokers Raises Earnings Estimates for eGain Corp $EGAN https://t.co/uOIOXJRIrB
p900
sg14
Vhttp://ifttt.com
p901
sg16
I00
sg17
I00
sg18
Nsg19
g0
(g20
g5
Ntp902
Rp903
(dp904
g24
I00
sg25
I00
sg26
I01
sg27
VDDEEF6
p905
sg29
L2920258887L
sg30
I00
sg31
(dp906
g33
(dp907
g35
(lp908
sssg37
Vhttps://abs.twimg.com/sticky/default_profile_images/default_profile_0_normal.png
p909
sg39
(dp910
g41
I00
sg42
I00
sg43
I01
sg44
I01
sg45
L2920258887L
sg46
Vhttps://abs.twimg.com/images/themes/theme1/bg.png
p911
sg48
I00
sg49
V333333
p912
sg51
g909
sg52
g905
sg53
g906
sg54
I1021
sg55
VC0DEED
p913
sg57
V2920258887
p914
sg59
VC0DEED
p915
sg61
I39
sg62
I00
sg63
Nsg64
I170284
sg33
g68
sg66
I40
sg67
g68
sg69
V0084B4
p916
sg71
Vhttp://abs.twimg.com/sticky/default_profile_images/default_profile_0_normal.png
p917
sg73
I00
sg74
I00
sg77
Vhttp://abs.twimg.com/images/themes/theme1/bg.png
p918
sg79
Vdakotafinancial
p919
sg81
Ven
p920
sg83
I00
sg84
I0
sg85
VDakota Financial 
p921
sg87
I00
sg88
Nsg89
VSat Dec 13 20:48:14 +0000 2014
p922
sg91
I00
sg92
Nsg94
I00
sg95
I01
sg96
I00
ssg97
I00
sg98
g912
sg99
I1021
sg100
g913
sg101
g914
sg102
I01
sg103
I39
sg104
I00
sg105
Nsg106
I170284
sg107
g68
sg108
I40
sg109
g68
sg110
g916
sg111
g917
sg112
I00
sg113
I00
sg114
g915
sg116
g918
sg117
g919
sg118
g920
sg119
I00
sg120
I00
sg121
I0
sg122
g921
sg123
Nsg124
g125
(S'\x07\xde\x0c\r\x140\x0e\x00\x00\x00'
p923
tp924
Rp925
sg129
g911
sg130
Nsg131
I00
sg132
I01
sg133
I00
sbsg134
Nsg29
L663115213181460480L
sg135
I0
sg136
VIFTTT
p926
sg118
Ven
p927
sg139
g903
sg124
g125
(S'\x07\xdf\x0b\x07\x16\x06\x01\x00\x00\x00'
p928
tp929
Rp930
sg39
(dp931
g144
Nsg145
I00
sg146
g900
sg147
I00
sg148
Nsg45
L663115213181460480L
sg149
I0
sg150
V<a href="http://ifttt.com" rel="nofollow">IFTTT</a>
p932
sg152
I00
sg153
Nsg53
(dp933
g155
(lp934
(dp935
g158
(lp936
I62
aI67
asg146
VEGAN
p937
sasg161
(lp938
sg163
(lp939
sg35
(lp940
(dp941
g88
Vhttps://t.co/uOIOXJRIrB
p942
sg158
(lp943
I68
aI91
asg169
Vhttp://ift.tt/1lcn51g
p944
sg171
Vift.tt/1lcn51g
p945
sassg173
Nsg174
Nsg175
I0
sg57
V663115213181460480
p946
sg177
I00
sg178
g910
sg179
Nsg180
Nsg181
I00
sg81
g927
sg89
VSat Nov 07 22:06:01 +0000 2015
p947
sg183
Nsg184
Nsg185
(dp948
g187
Ven
p949
sg189
Vrecent
p950
sssg191
g948
sg192
Nsg193
Nsg31
g933
sg194
Nsg195
Nsg101
g946
sg196
I00
sg197
Nsg198
I0
sg199
Nsbag0
(g4
g5
Ntp951
Rp952
(dp953
g9
I00
sg10
Nsg11
I00
sg12
VCraig Hallum Brokers Lifts Earnings Estimates for eGain Corp $EGAN https://t.co/oHmNbtLQQF
p954
sg14
Vhttp://ifttt.com
p955
sg16
I00
sg17
I00
sg18
Nsg19
g0
(g20
g5
Ntp956
Rp957
(dp958
g24
I00
sg25
I00
sg26
I01
sg27
VDDEEF6
p959
sg29
L2920258887L
sg30
I00
sg31
(dp960
g33
(dp961
g35
(lp962
sssg37
Vhttps://abs.twimg.com/sticky/default_profile_images/default_profile_0_normal.png
p963
sg39
(dp964
g41
I00
sg42
I00
sg43
I01
sg44
I01
sg45
L2920258887L
sg46
Vhttps://abs.twimg.com/images/themes/theme1/bg.png
p965
sg48
I00
sg49
V333333
p966
sg51
g963
sg52
g959
sg53
g960
sg54
I1021
sg55
VC0DEED
p967
sg57
V2920258887
p968
sg59
VC0DEED
p969
sg61
I39
sg62
I00
sg63
Nsg64
I170284
sg33
g68
sg66
I40
sg67
g68
sg69
V0084B4
p970
sg71
Vhttp://abs.twimg.com/sticky/default_profile_images/default_profile_0_normal.png
p971
sg73
I00
sg74
I00
sg77
Vhttp://abs.twimg.com/images/themes/theme1/bg.png
p972
sg79
Vdakotafinancial
p973
sg81
Ven
p974
sg83
I00
sg84
I0
sg85
VDakota Financial 
p975
sg87
I00
sg88
Nsg89
VSat Dec 13 20:48:14 +0000 2014
p976
sg91
I00
sg92
Nsg94
I00
sg95
I01
sg96
I00
ssg97
I00
sg98
g966
sg99
I1021
sg100
g967
sg101
g968
sg102
I01
sg103
I39
sg104
I00
sg105
Nsg106
I170284
sg107
g68
sg108
I40
sg109
g68
sg110
g970
sg111
g971
sg112
I00
sg113
I00
sg114
g969
sg116
g972
sg117
g973
sg118
g974
sg119
I00
sg120
I00
sg121
I0
sg122
g975
sg123
Nsg124
g125
(S'\x07\xde\x0c\r\x140\x0e\x00\x00\x00'
p977
tp978
Rp979
sg129
g965
sg130
Nsg131
I00
sg132
I01
sg133
I00
sbsg134
Nsg29
L663115211352731648L
sg135
I0
sg136
VIFTTT
p980
sg118
Ven
p981
sg139
g957
sg124
g125
(S'\x07\xdf\x0b\x07\x16\x06\x01\x00\x00\x00'
p982
tp983
Rp984
sg39
(dp985
g144
Nsg145
I00
sg146
g954
sg147
I00
sg148
Nsg45
L663115211352731648L
sg149
I0
sg150
V<a href="http://ifttt.com" rel="nofollow">IFTTT</a>
p986
sg152
I00
sg153
Nsg53
(dp987
g155
(lp988
(dp989
g158
(lp990
I61
aI66
asg146
VEGAN
p991
sasg161
(lp992
sg163
(lp993
sg35
(lp994
(dp995
g88
Vhttps://t.co/oHmNbtLQQF
p996
sg158
(lp997
I67
aI90
asg169
Vhttp://ift.tt/1SA7gwA
p998
sg171
Vift.tt/1SA7gwA
p999
sassg173
Nsg174
Nsg175
I0
sg57
V663115211352731648
p1000
sg177
I00
sg178
g964
sg179
Nsg180
Nsg181
I00
sg81
g981
sg89
VSat Nov 07 22:06:01 +0000 2015
p1001
sg183
Nsg184
Nsg185
(dp1002
g187
Ven
p1003
sg189
Vrecent
p1004
sssg191
g1002
sg192
Nsg193
Nsg31
g987
sg194
Nsg195
Nsg101
g1000
sg196
I00
sg197
Nsg198
I0
sg199
Nsbag0
(g4
g5
Ntp1005
Rp1006
(dp1007
g9
I00
sg10
Nsg11
I00
sg12
VeGain Corp $EGAN Releases Quarterly  Earnings Results, Hits Estimates https://t.co/038wqDmfmN
p1008
sg14
Vhttp://ifttt.com
p1009
sg16
I00
sg17
I00
sg18
Nsg19
g0
(g20
g5
Ntp1010
Rp1011
(dp1012
g24
I00
sg25
I00
sg26
I01
sg27
VDDEEF6
p1013
sg29
L2743641378L
sg30
I00
sg31
(dp1014
g33
(dp1015
g35
(lp1016
sssg37
Vhttps://pbs.twimg.com/profile_images/501548634412838914/LR6q5snv_normal.jpeg
p1017
sg39
(dp1018
g41
I00
sg42
I00
sg43
I01
sg44
I00
sg45
L2743641378L
sg46
Vhttps://abs.twimg.com/images/themes/theme1/bg.png
p1019
sg48
I00
sg49
V333333
p1020
sg51
g1017
sg52
g1013
sg53
g1014
sg54
I668
sg55
VC0DEED
p1021
sg57
V2743641378
p1022
sg59
VC0DEED
p1023
sg61
I59
sg62
I00
sg63
Nsg64
I275759
sg33
g68
sg66
I0
sg67
g68
sg69
V0084B4
p1024
sg71
Vhttp://pbs.twimg.com/profile_images/501548634412838914/LR6q5snv_normal.jpeg
p1025
sg73
I00
sg74
I00
sg75
Vhttps://pbs.twimg.com/profile_banners/2743641378/1408413498
p1026
sg77
Vhttp://abs.twimg.com/images/themes/theme1/bg.png
p1027
sg79
VSleekMoneycom
p1028
sg81
Ven
p1029
sg83
I00
sg84
I0
sg85
VSleek Money
p1030
sg87
I00
sg88
Nsg89
VTue Aug 19 01:57:20 +0000 2014
p1031
sg91
I00
sg92
Nsg94
I00
sg95
I01
sg96
I00
ssg97
I00
sg98
g1020
sg99
I668
sg100
g1021
sg101
g1022
sg102
I00
sg103
I59
sg104
I00
sg105
Nsg106
I275759
sg107
g68
sg108
I0
sg109
g68
sg110
g1024
sg111
g1025
sg112
I00
sg113
I00
sg114
g1023
sg115
g1026
sg116
g1027
sg117
g1028
sg118
g1029
sg119
I00
sg120
I00
sg121
I0
sg122
g1030
sg123
Nsg124
g125
(S'\x07\xde\x08\x13\x019\x14\x00\x00\x00'
p1032
tp1033
Rp1034
sg129
g1019
sg130
Nsg131
I00
sg132
I01
sg133
I00
sbsg134
Nsg29
L662838451637764096L
sg135
I0
sg136
VIFTTT
p1035
sg118
Ven
p1036
sg139
g1011
sg124
g125
(S'\x07\xdf\x0b\x07\x03.\x10\x00\x00\x00'
p1037
tp1038
Rp1039
sg39
(dp1040
g144
Nsg145
I00
sg146
g1008
sg147
I00
sg148
Nsg45
L662838451637764096L
sg149
I0
sg150
V<a href="http://ifttt.com" rel="nofollow">IFTTT</a>
p1041
sg152
I00
sg153
Nsg53
(dp1042
g155
(lp1043
(dp1044
g158
(lp1045
I11
aI16
asg146
VEGAN
p1046
sasg161
(lp1047
sg163
(lp1048
sg35
(lp1049
(dp1050
g88
Vhttps://t.co/038wqDmfmN
p1051
sg158
(lp1052
I70
aI93
asg169
Vhttp://ift.tt/1NypyOP
p1053
sg171
Vift.tt/1NypyOP
p1054
sassg173
Nsg174
Nsg175
I0
sg57
V662838451637764096
p1055
sg177
I00
sg178
g1018
sg179
Nsg180
Nsg181
I00
sg81
g1036
sg89
VSat Nov 07 03:46:16 +0000 2015
p1056
sg183
Nsg184
Nsg185
(dp1057
g187
Ven
p1058
sg189
Vrecent
p1059
sssg191
g1057
sg192
Nsg193
Nsg31
g1042
sg194
Nsg195
Nsg101
g1055
sg196
I00
sg197
Nsg198
I0
sg199
Nsbag0
(g4
g5
Ntp1060
Rp1061
(dp1062
g9
I00
sg10
Nsg11
I00
sg12
VeGain Corp $EGAN Releases Quarterly  Earnings Results, Hits Estimates https://t.co/wTGcPLxnc3
p1063
sg14
Vhttp://ifttt.com
p1064
sg16
I00
sg17
I00
sg18
Nsg19
g0
(g20
g5
Ntp1065
Rp1066
(dp1067
g24
I00
sg25
I00
sg26
I01
sg27
VDDEEF6
p1068
sg29
L2525892205L
sg30
I00
sg31
(dp1069
g88
(dp1070
g35
(lp1071
(dp1072
g88
Vhttp://t.co/oT0s8pX8T2
p1073
sg158
(lp1074
I0
aI22
asg169
Vhttp://www.intercooleronline.com
p1075
sg171
Vintercooleronline.com
p1076
sassg33
(dp1077
g35
(lp1078
sssg37
Vhttps://pbs.twimg.com/profile_images/471038514675474432/wc-6YgXp_normal.jpeg
p1079
sg39
(dp1080
g41
I00
sg42
I00
sg43
I01
sg44
I00
sg45
L2525892205L
sg46
Vhttps://abs.twimg.com/images/themes/theme1/bg.png
p1081
sg48
I00
sg49
V333333
p1082
sg51
g1079
sg52
g1068
sg53
g1069
sg54
I414
sg55
VC0DEED
p1083
sg57
V2525892205
p1084
sg59
VC0DEED
p1085
sg61
I22
sg62
I00
sg63
Nsg64
I117976
sg33
g68
sg66
I6
sg67
VFlorida
p1086
sg69
V0084B4
p1087
sg71
Vhttp://pbs.twimg.com/profile_images/471038514675474432/wc-6YgXp_normal.jpeg
p1088
sg73
I00
sg74
I00
sg75
Vhttps://pbs.twimg.com/profile_banners/2525892205/1401139391
p1089
sg77
Vhttp://abs.twimg.com/images/themes/theme1/bg.png
p1090
sg79
Vintercooleronli
p1091
sg81
Ven
p1092
sg83
I00
sg84
I0
sg85
VInterCooler
p1093
sg87
I00
sg88
Vhttp://t.co/oT0s8pX8T2
p1094
sg89
VMon May 26 21:20:18 +0000 2014
p1095
sg91
I00
sg92
Nsg94
I00
sg95
I01
sg96
I00
ssg97
I00
sg98
g1082
sg99
I414
sg100
g1083
sg101
g1084
sg102
I00
sg103
I22
sg104
I00
sg105
Nsg106
I117976
sg107
g68
sg108
I6
sg109
g1086
sg110
g1087
sg111
g1088
sg112
I00
sg113
I00
sg114
g1085
sg115
g1089
sg116
g1090
sg117
g1091
sg118
g1092
sg119
I00
sg120
I00
sg121
I0
sg122
g1093
sg123
g1094
sg124
g125
(S'\x07\xde\x05\x1a\x15\x14\x12\x00\x00\x00'
p1096
tp1097
Rp1098
sg129
g1081
sg130
Nsg131
I00
sg132
I01
sg133
I00
sbsg134
Nsg29
L662838070304075776L
sg135
I0
sg136
VIFTTT
p1099
sg118
Ven
p1100
sg139
g1066
sg124
g125
(S'\x07\xdf\x0b\x07\x03,-\x00\x00\x00'
p1101
tp1102
Rp1103
sg39
(dp1104
g144
Nsg145
I00
sg146
g1063
sg147
I00
sg148
Nsg45
L662838070304075776L
sg149
I0
sg150
V<a href="http://ifttt.com" rel="nofollow">IFTTT</a>
p1105
sg152
I00
sg153
Nsg53
(dp1106
g155
(lp1107
(dp1108
g158
(lp1109
I11
aI16
asg146
VEGAN
p1110
sasg161
(lp1111
sg163
(lp1112
sg35
(lp1113
(dp1114
g88
Vhttps://t.co/wTGcPLxnc3
p1115
sg158
(lp1116
I70
aI93
asg169
Vhttp://ift.tt/1iIPIS2
p1117
sg171
Vift.tt/1iIPIS2
p1118
sassg173
Nsg174
Nsg175
I0
sg57
V662838070304075776
p1119
sg177
I00
sg178
g1080
sg179
Nsg180
Nsg181
I00
sg81
g1100
sg89
VSat Nov 07 03:44:45 +0000 2015
p1120
sg183
Nsg184
Nsg185
(dp1121
g187
Ven
p1122
sg189
Vrecent
p1123
sssg191
g1121
sg192
Nsg193
Nsg31
g1106
sg194
Nsg195
Nsg101
g1119
sg196
I00
sg197
Nsg198
I0
sg199
Nsbag0
(g4
g5
Ntp1124
Rp1125
(dp1126
g9
I00
sg10
Nsg11
I00
sg12
V$EGAN:\u000a\u000aeGain Corp Stock Rating Upgraded by Zacks (EGAN):\u000a\u000ahttps://t.co/5UwzB94OKs
p1127
sg14
Vhttp://fnsappbg.blogspot.com/
p1128
sg16
I00
sg17
I00
sg18
Nsg19
g0
(g20
g5
Ntp1129
Rp1130
(dp1131
g24
I00
sg25
I00
sg26
I01
sg27
VDDEEF6
p1132
sg29
L2881595931L
sg30
I00
sg31
(dp1133
g33
(dp1134
g35
(lp1135
sssg37
Vhttps://pbs.twimg.com/profile_images/542392174428434432/PfyzCfya_normal.jpeg
p1136
sg39
(dp1137
g41
I00
sg42
I00
sg43
I01
sg44
I00
sg45
L2881595931L
sg46
Vhttps://abs.twimg.com/images/themes/theme1/bg.png
p1138
sg48
I00
sg49
V333333
p1139
sg51
g1136
sg52
g1132
sg53
g1133
sg54
I593
sg55
VC0DEED
p1140
sg57
V2881595931
p1141
sg59
VC0DEED
p1142
sg61
I90
sg62
I00
sg63
I-18000
sg64
I235203
sg33
g68
sg66
I6
sg67
g68
sg69
V0084B4
p1143
sg71
Vhttp://pbs.twimg.com/profile_images/542392174428434432/PfyzCfya_normal.jpeg
p1144
sg73
I00
sg74
I00
sg77
Vhttp://abs.twimg.com/images/themes/theme1/bg.png
p1145
sg79
VProVesting
p1146
sg81
Ven
p1147
sg83
I00
sg84
I0
sg85
VProVesting
p1148
sg87
I00
sg88
Nsg89
VMon Nov 17 20:15:38 +0000 2014
p1149
sg91
I00
sg92
VEastern Time (US & Canada)
p1150
sg94
I00
sg95
I01
sg96
I00
ssg97
I00
sg98
g1139
sg99
I593
sg100
g1140
sg101
g1141
sg102
I00
sg103
I90
sg104
I00
sg105
I-18000
sg106
I235203
sg107
g68
sg108
I6
sg109
g68
sg110
g1143
sg111
g1144
sg112
I00
sg113
I00
sg114
g1142
sg116
g1145
sg117
g1146
sg118
g1147
sg119
I00
sg120
I00
sg121
I0
sg122
g1148
sg123
Nsg124
g125
(S'\x07\xde\x0b\x11\x14\x0f&\x00\x00\x00'
p1151
tp1152
Rp1153
sg129
g1138
sg130
g1150
sg131
I00
sg132
I01
sg133
I00
sbsg134
Nsg29
L662768461253357568L
sg135
I0
sg136
VFNS_APP
p1154
sg118
Ven
p1155
sg139
g1130
sg124
g125
(S'\x07\xdf\x0b\x06\x17\x08\t\x00\x00\x00'
p1156
tp1157
Rp1158
sg39
(dp1159
g144
Nsg145
I00
sg146
V$EGAN:\u000a\u000aeGain Corp Stock Rating Upgraded by Zacks (EGAN):\u000a\u000ahttps://t.co/5UwzB94OKs
p1160
sg147
I00
sg148
Nsg45
L662768461253357568L
sg149
I0
sg150
V<a href="http://fnsappbg.blogspot.com/" rel="nofollow">FNS_APP</a>
p1161
sg152
I00
sg153
Nsg53
(dp1162
g155
(lp1163
(dp1164
g158
(lp1165
I0
aI5
asg146
VEGAN
p1166
sasg161
(lp1167
sg163
(lp1168
sg35
(lp1169
(dp1170
g88
Vhttps://t.co/5UwzB94OKs
p1171
sg158
(lp1172
I59
aI82
asg169
Vhttp://StockNewsHour.com/egan-egain-corp-stock-rating-upgraded-by-zacks-egan/
p1173
sg171
VStockNewsHour.com/egan-egain-cor\u2026
p1174
sassg173
Nsg174
Nsg175
I0
sg57
V662768461253357568
p1175
sg177
I00
sg178
g1137
sg179
Nsg180
Nsg181
I00
sg81
g1155
sg89
VFri Nov 06 23:08:09 +0000 2015
p1176
sg183
Nsg184
Nsg185
(dp1177
g187
Ven
p1178
sg189
Vrecent
p1179
sssg191
g1177
sg192
Nsg193
Nsg31
g1162
sg194
Nsg195
Nsg101
g1175
sg196
I00
sg197
Nsg198
I0
sg199
Nsbag0
(g4
g5
Ntp1180
Rp1181
(dp1182
g9
I00
sg10
Nsg11
I00
sg12
VeGain Corp Upgraded by Zacks to \u201cHold\u201d $EGAN https://t.co/y8pTOo48ej
p1183
sg14
Vhttp://ifttt.com
p1184
sg16
I00
sg17
I00
sg18
Nsg19
g0
(g20
g5
Ntp1185
Rp1186
(dp1187
g24
I00
sg25
I00
sg26
I01
sg27
VDDEEF6
p1188
sg29
L2743641378L
sg30
I00
sg31
(dp1189
g33
(dp1190
g35
(lp1191
sssg37
Vhttps://pbs.twimg.com/profile_images/501548634412838914/LR6q5snv_normal.jpeg
p1192
sg39
(dp1193
g41
I00
sg42
I00
sg43
I01
sg44
I00
sg45
L2743641378L
sg46
Vhttps://abs.twimg.com/images/themes/theme1/bg.png
p1194
sg48
I00
sg49
V333333
p1195
sg51
g1192
sg52
g1188
sg53
g1189
sg54
I668
sg55
VC0DEED
p1196
sg57
V2743641378
p1197
sg59
VC0DEED
p1198
sg61
I59
sg62
I00
sg63
Nsg64
I275759
sg33
g68
sg66
I0
sg67
g68
sg69
V0084B4
p1199
sg71
Vhttp://pbs.twimg.com/profile_images/501548634412838914/LR6q5snv_normal.jpeg
p1200
sg73
I00
sg74
I00
sg75
Vhttps://pbs.twimg.com/profile_banners/2743641378/1408413498
p1201
sg77
Vhttp://abs.twimg.com/images/themes/theme1/bg.png
p1202
sg79
VSleekMoneycom
p1203
sg81
Ven
p1204
sg83
I00
sg84
I0
sg85
VSleek Money
p1205
sg87
I00
sg88
Nsg89
VTue Aug 19 01:57:20 +0000 2014
p1206
sg91
I00
sg92
Nsg94
I00
sg95
I01
sg96
I00
ssg97
I00
sg98
g1195
sg99
I668
sg100
g1196
sg101
g1197
sg102
I00
sg103
I59
sg104
I00
sg105
Nsg106
I275759
sg107
g68
sg108
I0
sg109
g68
sg110
g1199
sg111
g1200
sg112
I00
sg113
I00
sg114
g1198
sg115
g1201
sg116
g1202
sg117
g1203
sg118
g1204
sg119
I00
sg120
I00
sg121
I0
sg122
g1205
sg123
Nsg124
g125
(S'\x07\xde\x08\x13\x019\x14\x00\x00\x00'
p1207
tp1208
Rp1209
sg129
g1194
sg130
Nsg131
I00
sg132
I01
sg133
I00
sbsg134
Nsg29
L662765256540856322L
sg135
I0
sg136
VIFTTT
p1210
sg118
Ven
p1211
sg139
g1186
sg124
g125
(S'\x07\xdf\x0b\x06\x167\x19\x00\x00\x00'
p1212
tp1213
Rp1214
sg39
(dp1215
g144
Nsg145
I00
sg146
g1183
sg147
I00
sg148
Nsg45
L662765256540856322L
sg149
I0
sg150
V<a href="http://ifttt.com" rel="nofollow">IFTTT</a>
p1216
sg152
I00
sg153
Nsg53
(dp1217
g155
(lp1218
(dp1219
g158
(lp1220
I39
aI44
asg146
VEGAN
p1221
sasg161
(lp1222
sg163
(lp1223
sg35
(lp1224
(dp1225
g88
Vhttps://t.co/y8pTOo48ej
p1226
sg158
(lp1227
I45
aI68
asg169
Vhttp://ift.tt/1WDsKye
p1228
sg171
Vift.tt/1WDsKye
p1229
sassg173
Nsg174
Nsg175
I0
sg57
V662765256540856322
p1230
sg177
I00
sg178
g1193
sg179
Nsg180
Nsg181
I00
sg81
g1211
sg89
VFri Nov 06 22:55:25 +0000 2015
p1231
sg183
Nsg184
Nsg185
(dp1232
g187
Ven
p1233
sg189
Vrecent
p1234
sssg191
g1232
sg192
Nsg193
Nsg31
g1217
sg194
Nsg195
Nsg101
g1230
sg196
I00
sg197
Nsg198
I0
sg199
Nsbag0
(g4
g5
Ntp1235
Rp1236
(dp1237
g9
I00
sg10
Nsg11
I00
sg12
VeGain Corp Upgraded to Hold by Zacks $EGAN https://t.co/OtyzTHU0B7 #acn
p1238
sg14
Vhttp://ifttt.com
p1239
sg16
I00
sg17
I00
sg18
Nsg19
g0
(g20
g5
Ntp1240
Rp1241
(dp1242
g24
I00
sg25
I00
sg26
I01
sg27
VE8E8E8
p1243
sg29
I52210566
sg30
I00
sg31
(dp1244
g88
(dp1245
g35
(lp1246
(dp1247
g88
Vhttp://t.co/odTc3pvcAe
p1248
sg158
(lp1249
I0
aI22
asg169
Vhttp://www.americanconsumernews.com/
p1250
sg171
Vamericanconsumernews.com
p1251
sassg33
(dp1252
g35
(lp1253
sssg37
Vhttps://pbs.twimg.com/profile_images/289298274/text_normal.jpg
p1254
sg39
(dp1255
g41
I00
sg42
I00
sg43
I01
sg44
I00
sg45
I52210566
sg46
Vhttps://pbs.twimg.com/profile_background_images/20558354/back.jpg
p1256
sg48
I00
sg49
V333333
p1257
sg51
g1254
sg52
g1243
sg53
g1244
sg54
I1114
sg55
VADADAD
p1258
sg57
V52210566
p1259
sg59
V9AE4E8
p1260
sg61
I96
sg62
I00
sg63
I-21600
sg64
I580839
sg33
VPersonal Finance and Consumer Tips
p1261
sg66
I1412
sg67
VSioux Falls, SD
p1262
sg69
V0084B4
p1263
sg71
Vhttp://pbs.twimg.com/profile_images/289298274/text_normal.jpg
p1264
sg73
I00
sg74
I00
sg77
Vhttp://pbs.twimg.com/profile_background_images/20558354/back.jpg
p1265
sg79
VAmConsumerNews
p1266
sg81
Ven
p1267
sg83
I00
sg84
I0
sg85
VConsumer News
p1268
sg87
I00
sg88
Vhttp://t.co/odTc3pvcAe
p1269
sg89
VMon Jun 29 22:22:08 +0000 2009
p1270
sg91
I00
sg92
VCentral Time (US & Canada)
p1271
sg94
I00
sg95
I00
sg96
I00
ssg97
I00
sg98
g1257
sg99
I1114
sg100
g1258
sg101
g1259
sg102
I00
sg103
I96
sg104
I00
sg105
I-21600
sg106
I580839
sg107
g1261
sg108
I1412
sg109
g1262
sg110
g1263
sg111
g1264
sg112
I00
sg113
I00
sg114
g1260
sg116
g1265
sg117
g1266
sg118
g1267
sg119
I00
sg120
I00
sg121
I0
sg122
g1268
sg123
g1269
sg124
g125
(S'\x07\xd9\x06\x1d\x16\x16\x08\x00\x00\x00'
p1272
tp1273
Rp1274
sg129
g1256
sg130
g1271
sg131
I00
sg132
I00
sg133
I00
sbsg134
Nsg29
L662764198330544128L
sg135
I0
sg136
VIFTTT
p1275
sg118
Ven
p1276
sg139
g1241
sg124
g125
(S'\x07\xdf\x0b\x06\x163\r\x00\x00\x00'
p1277
tp1278
Rp1279
sg39
(dp1280
g144
Nsg145
I00
sg146
g1238
sg147
I00
sg148
Nsg45
L662764198330544128L
sg149
I0
sg150
V<a href="http://ifttt.com" rel="nofollow">IFTTT</a>
p1281
sg152
I00
sg153
Nsg53
(dp1282
g155
(lp1283
(dp1284
g158
(lp1285
I37
aI42
asg146
VEGAN
p1286
sasg161
(lp1287
sg163
(lp1288
(dp1289
g158
(lp1290
I67
aI71
asg146
Vacn
p1291
sasg35
(lp1292
(dp1293
g88
Vhttps://t.co/OtyzTHU0B7
p1294
sg158
(lp1295
I43
aI66
asg169
Vhttp://ift.tt/1Ouex2d
p1296
sg171
Vift.tt/1Ouex2d
p1297
sassg173
Nsg174
Nsg175
I0
sg57
V662764198330544128
p1298
sg177
I00
sg178
g1255
sg179
Nsg180
Nsg181
I00
sg81
g1276
sg89
VFri Nov 06 22:51:13 +0000 2015
p1299
sg183
Nsg184
Nsg185
(dp1300
g187
Ven
p1301
sg189
Vrecent
p1302
sssg191
g1300
sg192
Nsg193
Nsg31
g1282
sg194
Nsg195
Nsg101
g1298
sg196
I00
sg197
Nsg198
I0
sg199
Nsbag0
(g4
g5
Ntp1303
Rp1304
(dp1305
g9
I00
sg10
Nsg11
I00
sg12
V$EGAN received a new alert. Find out why at https://t.co/nZwqRf3BRT #stocks #daytrading #trading #mkt  #NYSE #NASDAQ #markets 603
p1306
sg14
Vhttp://www.aheadsup.com/
p1307
sg16
I00
sg17
I00
sg18
Nsg19
g0
(g20
g5
Ntp1308
Rp1309
(dp1310
g24
I00
sg25
I00
sg26
I01
sg27
VDDEEF6
p1311
sg29
I39546678
sg30
I00
sg31
(dp1312
g88
(dp1313
g35
(lp1314
(dp1315
g88
Vhttp://t.co/TlOjBDQQtY
p1316
sg158
(lp1317
I0
aI22
asg169
Vhttp://www.MediaSentiment.com
p1318
sg171
VMediaSentiment.com
p1319
sassg33
(dp1320
g35
(lp1321
(dp1322
g88
Vhttp://t.co/feRZl5QRu9
p1323
sg158
(lp1324
I129
aI151
asg169
Vhttp://www.aheadsup.com
p1325
sg171
Vaheadsup.com
p1326
sasssg37
Vhttps://pbs.twimg.com/profile_images/420277170586394624/5mABm6pI_normal.png
p1327
sg39
(dp1328
g41
I00
sg42
I00
sg43
I01
sg44
I00
sg45
I39546678
sg46
Vhttps://pbs.twimg.com/profile_background_images/378800000163732765/PdOKr6DH.png
p1329
sg48
I00
sg49
V333333
p1330
sg51
g1327
sg52
g1311
sg53
g1312
sg54
I7463
sg55
VFFFFFF
p1331
sg57
V39546678
p1332
sg59
VFFFFFF
p1333
sg61
I87
sg62
I00
sg63
I-28800
sg64
I291238
sg33
VMedia Sentiment helps you to find the news that matters to you from accounts you follow on twitter! New social networking tool: http://t.co/feRZl5QRu9
p1334
sg66
I7208
sg67
g68
sg69
V911955
p1335
sg71
Vhttp://pbs.twimg.com/profile_images/420277170586394624/5mABm6pI_normal.png
p1336
sg73
I00
sg74
I00
sg75
Vhttps://pbs.twimg.com/profile_banners/39546678/1389036891
p1337
sg77
Vhttp://pbs.twimg.com/profile_background_images/378800000163732765/PdOKr6DH.png
p1338
sg79
Vmediasentiment
p1339
sg81
Ven
p1340
sg83
I00
sg84
I4
sg85
VMedia Sentiment
p1341
sg87
I00
sg88
Vhttp://t.co/TlOjBDQQtY
p1342
sg89
VTue May 12 17:21:24 +0000 2009
p1343
sg91
I00
sg92
VPacific Time (US & Canada)
p1344
sg94
I00
sg95
I00
sg96
I00
ssg97
I00
sg98
g1330
sg99
I7463
sg100
g1331
sg101
g1332
sg102
I00
sg103
I87
sg104
I00
sg105
I-28800
sg106
I291238
sg107
g1334
sg108
I7208
sg109
g68
sg110
g1335
sg111
g1336
sg112
I00
sg113
I00
sg114
g1333
sg115
g1337
sg116
g1338
sg117
g1339
sg118
g1340
sg119
I00
sg120
I00
sg121
I4
sg122
g1341
sg123
g1342
sg124
g125
(S'\x07\xd9\x05\x0c\x11\x15\x18\x00\x00\x00'
p1345
tp1346
Rp1347
sg129
g1329
sg130
g1344
sg131
I00
sg132
I00
sg133
I00
sbsg134
Nsg29
L662762331848462336L
sg135
I0
sg136
VSocial Media Sentiment aheadsup
p1348
sg118
Ven
p1349
sg139
g1309
sg124
g125
(S'\x07\xdf\x0b\x06\x16+0\x00\x00\x00'
p1350
tp1351
Rp1352
sg39
(dp1353
g144
Nsg145
I00
sg146
g1306
sg147
I00
sg148
Nsg45
L662762331848462336L
sg149
I0
sg150
V<a href="http://www.aheadsup.com/" rel="nofollow">Social Media Sentiment aheadsup</a>
p1354
sg152
I00
sg153
Nsg53
(dp1355
g155
(lp1356
(dp1357
g158
(lp1358
I0
aI5
asg146
VEGAN
p1359
sasg161
(lp1360
sg163
(lp1361
(dp1362
g158
(lp1363
I68
aI75
asg146
Vstocks
p1364
sa(dp1365
g158
(lp1366
I76
aI87
asg146
Vdaytrading
p1367
sa(dp1368
g158
(lp1369
I88
aI96
asg146
Vtrading
p1370
sa(dp1371
g158
(lp1372
I97
aI101
asg146
Vmkt
p1373
sa(dp1374
g158
(lp1375
I103
aI108
asg146
VNYSE
p1376
sa(dp1377
g158
(lp1378
I109
aI116
asg146
VNASDAQ
p1379
sa(dp1380
g158
(lp1381
I117
aI125
asg146
Vmarkets
p1382
sasg35
(lp1383
(dp1384
g88
Vhttps://t.co/nZwqRf3BRT
p1385
sg158
(lp1386
I44
aI67
asg169
Vhttp://www.mediasentiment.com/
p1387
sg171
Vmediasentiment.com
p1388
sassg173
Nsg174
Nsg175
I0
sg57
V662762331848462336
p1389
sg177
I00
sg178
g1328
sg179
Nsg180
Nsg181
I00
sg81
g1349
sg89
VFri Nov 06 22:43:48 +0000 2015
p1390
sg183
Nsg184
Nsg185
(dp1391
g187
Ven
p1392
sg189
Vrecent
p1393
sssg191
g1391
sg192
Nsg193
Nsg31
g1355
sg194
Nsg195
Nsg101
g1389
sg196
I00
sg197
Nsg198
I0
sg199
Nsbag0
(g4
g5
Ntp1394
Rp1395
(dp1396
g9
I00
sg10
Nsg11
I00
sg12
VEGAIN Corp $EGAN 10-Q now available
p1397
sg14
Vhttp://www.instrumental-data.com/
p1398
sg17
I00
sg18
Nsg19
g0
(g20
g5
Ntp1399
Rp1400
(dp1401
g24
I00
sg25
I00
sg26
I01
sg27
VDDEEF6
p1402
sg29
I1059455906
sg30
I00
sg31
(dp1403
g88
(dp1404
g35
(lp1405
(dp1406
g88
Vhttp://t.co/oFA9055G
p1407
sg158
(lp1408
I0
aI20
asg169
Vhttp://instrumental-data.com
p1409
sg171
Vinstrumental-data.com
p1410
sassg33
(dp1411
g35
(lp1412
sssg37
Vhttps://pbs.twimg.com/profile_images/3180899556/40196e66743d89ac67495a06e8aa0e00_normal.png
p1413
sg39
(dp1414
g41
I00
sg42
I00
sg43
I01
sg44
I00
sg45
I1059455906
sg46
Vhttps://abs.twimg.com/images/themes/theme1/bg.png
p1415
sg48
I00
sg49
V333333
p1416
sg51
g1413
sg52
g1402
sg53
g1403
sg54
I202
sg55
VC0DEED
p1417
sg57
V1059455906
p1418
sg59
VC0DEED
p1419
sg61
I15
sg62
I00
sg63
Nsg64
I81234
sg33
VFundamental market data, cleaned, parsed, and available within minutes of company filing.
p1420
sg66
I4
sg67
VChicago
p1421
sg69
V0084B4
p1422
sg71
Vhttp://pbs.twimg.com/profile_images/3180899556/40196e66743d89ac67495a06e8aa0e00_normal.png
p1423
sg73
I00
sg74
I00
sg77
Vhttp://abs.twimg.com/images/themes/theme1/bg.png
p1424
sg79
VInstrumentalD
p1425
sg81
Ven
p1426
sg83
I00
sg84
I0
sg85
VInstrumental Data
p1427
sg87
I00
sg88
Vhttp://t.co/oFA9055G
p1428
sg89
VFri Jan 04 03:41:19 +0000 2013
p1429
sg91
I00
sg92
Nsg94
I00
sg95
I01
sg96
I00
ssg97
I00
sg98
g1416
sg99
I202
sg100
g1417
sg101
g1418
sg102
I00
sg103
I15
sg104
I00
sg105
Nsg106
I81234
sg107
g1420
sg108
I4
sg109
g1421
sg110
g1422
sg111
g1423
sg112
I00
sg113
I00
sg114
g1419
sg116
g1424
sg117
g1425
sg118
g1426
sg119
I00
sg120
I00
sg121
I0
sg122
g1427
sg123
g1428
sg124
g125
(S'\x07\xdd\x01\x04\x03)\x13\x00\x00\x00'
p1430
tp1431
Rp1432
sg129
g1415
sg130
Nsg131
I00
sg132
I01
sg133
I00
sbsg134
Nsg29
L662761576773115905L
sg135
I0
sg136
VInstrumental Data
p1433
sg118
Ven
p1434
sg139
g1400
sg124
g125
(S'\x07\xdf\x0b\x06\x16(0\x00\x00\x00'
p1435
tp1436
Rp1437
sg39
(dp1438
g144
Nsg145
I00
sg146
g1397
sg147
I00
sg148
Nsg45
L662761576773115905L
sg149
I0
sg150
V<a href="http://www.instrumental-data.com/" rel="nofollow">Instrumental Data</a>
p1439
sg152
I00
sg153
Nsg53
(dp1440
g155
(lp1441
(dp1442
g158
(lp1443
I11
aI16
asg146
VEGAN
p1444
sasg161
(lp1445
sg163
(lp1446
sg35
(lp1447
ssg173
Nsg174
Nsg175
I0
sg57
V662761576773115905
p1448
sg177
I00
sg178
g1414
sg179
Nsg180
Nsg81
g1434
sg89
VFri Nov 06 22:40:48 +0000 2015
p1449
sg183
Nsg184
Nsg185
(dp1450
g187
Ven
p1451
sg189
Vrecent
p1452
sssg191
g1450
sg192
Nsg193
Nsg31
g1440
sg194
Nsg195
Nsg101
g1448
sg196
I00
sg197
Nsg198
I0
sg199
Nsbag0
(g4
g5
Ntp1453
Rp1454
(dp1455
g9
I00
sg10
Nsg11
I00
sg12
VeGain Corp upgraded by Zacks to hold. https://t.co/kxh1qIsDBl $EGAN #EGAN
p1456
sg14
Vhttp://ifttt.com
p1457
sg16
I00
sg17
I00
sg18
Nsg19
g0
(g20
g5
Ntp1458
Rp1459
(dp1460
g24
I00
sg25
I00
sg26
I01
sg27
VF6FFD1
p1461
sg29
I68559732
sg30
I00
sg31
(dp1462
g88
(dp1463
g35
(lp1464
(dp1465
g88
Vhttp://t.co/OKklQuZ0Um
p1466
sg158
(lp1467
I0
aI22
asg169
Vhttp://www.americanconsumernews.com
p1468
sg171
Vamericanconsumernews.com
p1469
sassg33
(dp1470
g35
(lp1471
sssg37
Vhttps://pbs.twimg.com/profile_images/379977873/msn_normal.jpg
p1472
sg39
(dp1473
g41
I00
sg42
I00
sg43
I01
sg44
I00
sg45
I68559732
sg46
Vhttps://abs.twimg.com/images/themes/theme19/bg.gif
p1474
sg48
I00
sg49
V333333
p1475
sg51
g1472
sg52
g1461
sg53
g1462
sg54
I4381
sg55
VFFF8AD
p1476
sg57
V68559732
p1477
sg59
VFFF04D
p1478
sg61
I397
sg62
I00
sg63
I-21600
sg64
I255294
sg33
VNews for Consumers in a Changing World
p1479
sg66
I2843
sg67
VSioux Falls, SD
p1480
sg69
V0099CC
p1481
sg71
Vhttp://pbs.twimg.com/profile_images/379977873/msn_normal.jpg
p1482
sg73
I00
sg74
I00
sg77
Vhttp://abs.twimg.com/images/themes/theme19/bg.gif
p1483
sg79
VConsumerFeed
p1484
sg81
Ven
p1485
sg83
I00
sg84
I0
sg85
VUS Consumer News
p1486
sg87
I00
sg88
Vhttp://t.co/OKklQuZ0Um
p1487
sg89
VTue Aug 25 00:39:44 +0000 2009
p1488
sg91
I00
sg92
VCentral Time (US & Canada)
p1489
sg94
I00
sg95
I00
sg96
I00
ssg97
I00
sg98
g1475
sg99
I4381
sg100
g1476
sg101
g1477
sg102
I00
sg103
I397
sg104
I00
sg105
I-21600
sg106
I255294
sg107
g1479
sg108
I2843
sg109
g1480
sg110
g1481
sg111
g1482
sg112
I00
sg113
I00
sg114
g1478
sg116
g1483
sg117
g1484
sg118
g1485
sg119
I00
sg120
I00
sg121
I0
sg122
g1486
sg123
g1487
sg124
g125
(S"\x07\xd9\x08\x19\x00',\x00\x00\x00"
p1490
tp1491
Rp1492
sg129
g1474
sg130
g1489
sg131
I00
sg132
I00
sg133
I00
sbsg134
Nsg29
L662760698863333377L
sg135
I0
sg136
VIFTTT
p1493
sg118
Ven
p1494
sg139
g1459
sg124
g125
(S'\x07\xdf\x0b\x06\x16%\x12\x00\x00\x00'
p1495
tp1496
Rp1497
sg39
(dp1498
g144
Nsg145
I00
sg146
g1456
sg147
I00
sg148
Nsg45
L662760698863333377L
sg149
I0
sg150
V<a href="http://ifttt.com" rel="nofollow">IFTTT</a>
p1499
sg152
I00
sg153
Nsg53
(dp1500
g155
(lp1501
(dp1502
g158
(lp1503
I62
aI67
asg146
VEGAN
p1504
sasg161
(lp1505
sg163
(lp1506
(dp1507
g158
(lp1508
I68
aI73
asg146
VEGAN
p1509
sasg35
(lp1510
(dp1511
g88
Vhttps://t.co/kxh1qIsDBl
p1512
sg158
(lp1513
I38
aI61
asg169
Vhttp://ift.tt/1GPoXXL
p1514
sg171
Vift.tt/1GPoXXL
p1515
sassg173
Nsg174
Nsg175
I0
sg57
V662760698863333377
p1516
sg177
I00
sg178
g1473
sg179
Nsg180
Nsg181
I00
sg81
g1494
sg89
VFri Nov 06 22:37:18 +0000 2015
p1517
sg183
Nsg184
Nsg185
(dp1518
g187
Ven
p1519
sg189
Vrecent
p1520
sssg191
g1518
sg192
Nsg193
Nsg31
g1500
sg194
Nsg195
Nsg101
g1516
sg196
I00
sg197
Nsg198
I0
sg199
Nsbag0
(g4
g5
Ntp1521
Rp1522
(dp1523
g9
I00
sg10
Nsg11
I00
sg12
VeGain Corp upgraded by Zacks to hold. https://t.co/qDth5nyttX $EGAN #EGAN
p1524
sg14
Vhttp://ifttt.com
p1525
sg16
I00
sg17
I00
sg18
Nsg19
g0
(g20
g5
Ntp1526
Rp1527
(dp1528
g24
I00
sg25
I00
sg26
I01
sg27
VEFEFEF
p1529
sg29
I992182100
sg30
I00
sg31
(dp1530
g88
(dp1531
g35
(lp1532
(dp1533
g88
Vhttp://t.co/8V4MkNiWl0
p1534
sg158
(lp1535
I0
aI22
asg169
Vhttp://www.marketbeat.com
p1536
sg171
Vmarketbeat.com
p1537
sassg33
(dp1538
g35
(lp1539
(dp1540
g88
Vhttp://t.co/3t3pBdeo4G
p1541
sg158
(lp1542
I34
aI56
asg169
Vhttp://MarketBeat.com
p1543
sg171
VMarketBeat.com
p1544
sasssg37
Vhttps://pbs.twimg.com/profile_images/605433922986606592/LeOUrdkT_normal.png
p1545
sg39
(dp1546
g41
I00
sg42
I00
sg43
I01
sg44
I00
sg45
I992182100
sg46
Vhttps://abs.twimg.com/images/themes/theme14/bg.gif
p1547
sg48
I00
sg49
V333333
p1548
sg51
g1545
sg52
g1529
sg53
g1530
sg54
I3561
sg55
VFFFFFF
p1549
sg57
V992182100
p1550
sg59
V131516
p1551
sg61
I359
sg62
I00
sg63
Nsg64
I226213
sg33
VFormerly Analyst Ratings Network. http://t.co/3t3pBdeo4G tracks analyst upgrades, downgrades and new coverage in real-time.
p1552
sg66
I2
sg67
VSioux Falls, SD
p1553
sg69
V002277
p1554
sg71
Vhttp://pbs.twimg.com/profile_images/605433922986606592/LeOUrdkT_normal.png
p1555
sg73
I00
sg74
I00
sg75
Vhttps://pbs.twimg.com/profile_banners/992182100/1410482657
p1556
sg77
Vhttp://abs.twimg.com/images/themes/theme14/bg.gif
p1557
sg79
VRatingsNetwork
p1558
sg81
Ven
p1559
sg83
I01
sg84
I0
sg85
VMarketBeatCom
p1560
sg87
I00
sg88
Vhttp://t.co/8V4MkNiWl0
p1561
sg89
VThu Dec 06 01:50:15 +0000 2012
p1562
sg91
I00
sg92
Nsg94
I00
sg95
I00
sg96
I00
ssg97
I00
sg98
g1548
sg99
I3561
sg100
g1549
sg101
g1550
sg102
I00
sg103
I359
sg104
I00
sg105
Nsg106
I226213
sg107
g1552
sg108
I2
sg109
g1553
sg110
g1554
sg111
g1555
sg112
I00
sg113
I00
sg114
g1551
sg115
g1556
sg116
g1557
sg117
g1558
sg118
g1559
sg119
I00
sg120
I01
sg121
I0
sg122
g1560
sg123
g1561
sg124
g125
(S'\x07\xdc\x0c\x06\x012\x0f\x00\x00\x00'
p1563
tp1564
Rp1565
sg129
g1547
sg130
Nsg131
I00
sg132
I00
sg133
I00
sbsg134
Nsg29
L662759176268062720L
sg135
I0
sg136
VIFTTT
p1566
sg118
Ven
p1567
sg139
g1527
sg124
g125
(S'\x07\xdf\x0b\x06\x16\x1f\x0f\x00\x00\x00'
p1568
tp1569
Rp1570
sg39
(dp1571
g144
Nsg145
I00
sg146
g1524
sg147
I00
sg148
Nsg45
L662759176268062720L
sg149
I0
sg150
V<a href="http://ifttt.com" rel="nofollow">IFTTT</a>
p1572
sg152
I00
sg153
Nsg53
(dp1573
g155
(lp1574
(dp1575
g158
(lp1576
I62
aI67
asg146
VEGAN
p1577
sasg161
(lp1578
sg163
(lp1579
(dp1580
g158
(lp1581
I68
aI73
asg146
VEGAN
p1582
sasg35
(lp1583
(dp1584
g88
Vhttps://t.co/qDth5nyttX
p1585
sg158
(lp1586
I38
aI61
asg169
Vhttp://ift.tt/1GPoXXL
p1587
sg171
Vift.tt/1GPoXXL
p1588
sassg173
Nsg174
Nsg175
I0
sg57
V662759176268062720
p1589
sg177
I00
sg178
g1546
sg179
Nsg180
Nsg181
I00
sg81
g1567
sg89
VFri Nov 06 22:31:15 +0000 2015
p1590
sg183
Nsg184
Nsg185
(dp1591
g187
Ven
p1592
sg189
Vrecent
p1593
sssg191
g1591
sg192
Nsg193
Nsg31
g1573
sg194
Nsg195
Nsg101
g1589
sg196
I00
sg197
Nsg198
I0
sg199
Nsbag0
(g4
g5
Ntp1594
Rp1595
(dp1596
g9
I00
sg10
Nsg11
I00
sg12
VRT @StockNewsWires: $EGAN:\u000a\u000aGameStop Accelerates Digital Customer Service With eGain Cloud \u2026:\u000a\u000ahttps://t.co/tKfMIpHqR9
p1597
sg14
Vhttp://twitter.com
p1598
sg16
I00
sg17
I00
sg18
Nsg19
g0
(g20
g5
Ntp1599
Rp1600
(dp1601
g24
I00
sg25
I01
sg26
I01
sg27
V99CC33
p1602
sg29
I115369328
sg30
I00
sg31
(dp1603
g88
(dp1604
g35
(lp1605
(dp1606
g88
Vhttp://t.co/Q8Y7BwWGu3
p1607
sg158
(lp1608
I0
aI22
asg169
Vhttp://about.me/dvikhe
p1609
sg171
Vabout.me/dvikhe
p1610
sassg33
(dp1611
g35
(lp1612
sssg37
Vhttps://pbs.twimg.com/profile_images/583386823755317248/bXSX1PN3_normal.jpg
p1613
sg39
(dp1614
g41
I00
sg42
I01
sg43
I01
sg44
I00
sg45
I115369328
sg46
Vhttps://pbs.twimg.com/profile_background_images/378800000172163001/R0V7m9oT.jpeg
p1615
sg48
I00
sg49
V3E4415
p1616
sg51
g1613
sg52
g1602
sg53
g1603
sg54
I2222
sg55
V000000
p1617
sg57
V115369328
p1618
sg59
V352726
p1619
sg61
I75
sg62
I00
sg63
I19800
sg64
I5440
sg33
Vthere's nothing more beautiful than d way the ocean refuses to stop kissing d shoreline no matter how many times it\u2019s sent away.\u000aDigital Marketing Evangelist
p1620
sg66
I1972
sg67
VPune (India)
p1621
sg69
V89C9FA
p1622
sg71
Vhttp://pbs.twimg.com/profile_images/583386823755317248/bXSX1PN3_normal.jpg
p1623
sg73
I00
sg74
I01
sg75
Vhttps://pbs.twimg.com/profile_banners/115369328/1427925199
p1624
sg77
Vhttp://pbs.twimg.com/profile_background_images/378800000172163001/R0V7m9oT.jpeg
p1625
sg79
Vdvikhe
p1626
sg81
Ven
p1627
sg83
I00
sg84
I6
sg85
VDipesh Vijaya Ikhe
p1628
sg87
I00
sg88
Vhttp://t.co/Q8Y7BwWGu3
p1629
sg89
VThu Feb 18 12:50:00 +0000 2010
p1630
sg91
I00
sg92
VMumbai
p1631
sg94
I00
sg95
I00
sg96
I00
ssg97
I00
sg98
g1616
sg99
I2222
sg100
g1617
sg101
g1618
sg102
I00
sg103
I75
sg104
I00
sg105
I19800
sg106
I5440
sg107
Vthere's nothing more beautiful than d way the ocean refuses to stop kissing d shoreline no matter how many times it\u2019s sent away.\u000aDigital Marketing Evangelist
p1632
sg108
I1972
sg109
g1621
sg110
g1622
sg111
g1623
sg112
I00
sg113
I01
sg114
g1619
sg115
g1624
sg116
g1625
sg117
g1626
sg118
g1627
sg119
I00
sg120
I00
sg121
I6
sg122
g1628
sg123
g1629
sg124
g125
(S'\x07\xda\x02\x12\x0c2\x00\x00\x00\x00'
p1633
tp1634
Rp1635
sg129
g1615
sg130
g1631
sg131
I00
sg132
I00
sg133
I00
sbsg134
Nsg29
L662663002559115266L
sg135
I0
sg136
VTwitter Web Client
p1636
sg118
Ven
p1637
sS'retweeted_status'
p1638
g0
(g4
g5
Ntp1639
Rp1640
(dp1641
g9
I00
sg10
Nsg11
I00
sg12
V$EGAN:\u000a\u000aGameStop Accelerates Digital Customer Service With eGain Cloud \u2026:\u000a\u000ahttps://t.co/tKfMIpHqR9
p1642
sg14
Vhttp://www.stocknewswires.com
p1643
sg16
I00
sg17
I00
sg18
Nsg19
g0
(g20
g5
Ntp1644
Rp1645
(dp1646
g24
I00
sg25
I00
sg26
I01
sg27
VDAECF4
p1647
sg29
L2341445778L
sg30
I00
sg31
(dp1648
g33
(dp1649
g35
(lp1650
sssg37
Vhttps://pbs.twimg.com/profile_images/542238326397227008/UfZ0ulTf_normal.jpeg
p1651
sg39
(dp1652
g41
I00
sg42
I00
sg43
I01
sg44
I00
sg45
L2341445778L
sg46
Vhttps://abs.twimg.com/images/themes/theme2/bg.gif
p1653
sg48
I00
sg49
V663B12
p1654
sg51
g1651
sg52
g1647
sg53
g1648
sg54
I660
sg55
VC6E2EE
p1655
sg57
V2341445778
p1656
sg59
VC6E2EE
p1657
sg61
I107
sg62
I00
sg63
I-14400
sg64
I236872
sg33
VInvest like a fish
p1658
sg66
I9
sg67
VUnited States
p1659
sg69
V1F98C7
p1660
sg71
Vhttp://pbs.twimg.com/profile_images/542238326397227008/UfZ0ulTf_normal.jpeg
p1661
sg73
I00
sg74
I00
sg77
Vhttp://abs.twimg.com/images/themes/theme2/bg.gif
p1662
sg79
VStockNewsWires
p1663
sg81
Ven
p1664
sg83
I00
sg84
I0
sg85
VStockNewsWires
p1665
sg87
I00
sg88
Nsg89
VThu Feb 13 05:31:52 +0000 2014
p1666
sg91
I00
sg92
VAtlantic Time (Canada)
p1667
sg94
I00
sg95
I00
sg96
I00
ssg97
I00
sg98
g1654
sg99
I660
sg100
g1655
sg101
g1656
sg102
I00
sg103
I107
sg104
I00
sg105
I-14400
sg106
I236872
sg107
g1658
sg108
I9
sg109
g1659
sg110
g1660
sg111
g1661
sg112
I00
sg113
I00
sg114
g1657
sg116
g1662
sg117
g1663
sg118
g1664
sg119
I00
sg120
I00
sg121
I0
sg122
g1665
sg123
Nsg124
g125
(S'\x07\xde\x02\r\x05\x1f4\x00\x00\x00'
p1668
tp1669
Rp1670
sg129
g1653
sg130
g1667
sg131
I00
sg132
I00
sg133
I00
sbsg134
Nsg29
L662016811114868736L
sg135
I0
sg136
VStockNewsWires
p1671
sg118
Ven
p1672
sg139
g1645
sg124
g125
(S'\x07\xdf\x0b\x04\x15\x15\x16\x00\x00\x00'
p1673
tp1674
Rp1675
sg39
(dp1676
g144
Nsg145
I00
sg146
V$EGAN:\u000a\u000aGameStop Accelerates Digital Customer Service With eGain Cloud \u2026:\u000a\u000ahttps://t.co/tKfMIpHqR9
p1677
sg147
I00
sg148
Nsg45
L662016811114868736L
sg149
I0
sg150
V<a href="http://www.stocknewswires.com" rel="nofollow">StockNewsWires</a>
p1678
sg152
I00
sg153
Nsg53
(dp1679
g155
(lp1680
(dp1681
g158
(lp1682
I0
aI5
asg146
VEGAN
p1683
sasg161
(lp1684
sg163
(lp1685
sg35
(lp1686
(dp1687
g88
Vhttps://t.co/tKfMIpHqR9
p1688
sg158
(lp1689
I75
aI98
asg169
Vhttp://StockNewsHour.com/egan-gamestop-accelerates-digital-customer-service-with-egain-cloud/
p1690
sg171
VStockNewsHour.com/egan-gamestop-\u2026
p1691
sassg173
Nsg174
Nsg175
I2
sg57
V662016811114868736
p1692
sg177
I00
sg178
g1652
sg179
Nsg180
Nsg181
I00
sg81
g1672
sg89
VWed Nov 04 21:21:22 +0000 2015
p1693
sg183
Nsg184
Nsg185
(dp1694
g187
Ven
p1695
sg189
Vrecent
p1696
sssg191
g1694
sg192
Nsg193
Nsg31
g1679
sg194
Nsg195
Nsg101
g1692
sg196
I00
sg197
Nsg198
I2
sg199
Nsbsg139
g1600
sg124
g125
(S'\x07\xdf\x0b\x06\x10\t\x06\x00\x00\x00'
p1697
tp1698
Rp1699
sg39
(dp1700
g144
Nsg145
I00
sg146
VRT @StockNewsWires: $EGAN:\u000a\u000aGameStop Accelerates Digital Customer Service With eGain Cloud \u2026:\u000a\u000ahttps://t.co/tKfMIpHqR9
p1701
sg147
I00
sg148
Nsg45
L662663002559115266L
sg149
I0
sg150
V<a href="http://twitter.com" rel="nofollow">Twitter Web Client</a>
p1702
sg152
I00
sg153
Nsg53
(dp1703
g155
(lp1704
(dp1705
g158
(lp1706
I20
aI25
asg146
VEGAN
p1707
sasg161
(lp1708
(dp1709
g45
L2341445778L
sg158
(lp1710
I3
aI18
asg57
V2341445778
p1711
sg79
VStockNewsWires
p1712
sg85
VStockNewsWires
p1713
sasg163
(lp1714
sg35
(lp1715
(dp1716
g88
Vhttps://t.co/tKfMIpHqR9
p1717
sg158
(lp1718
I95
aI118
asg169
Vhttp://StockNewsHour.com/egan-gamestop-accelerates-digital-customer-service-with-egain-cloud/
p1719
sg171
VStockNewsHour.com/egan-gamestop-\u2026
p1720
sassg173
Nsg174
Nsg175
I2
sg57
V662663002559115266
p1721
sg177
I00
sVretweeted_status
p1722
g1676
sg178
g1614
sg179
Nsg180
Nsg181
I00
sg81
g1637
sg89
VFri Nov 06 16:09:06 +0000 2015
p1723
sg183
Nsg184
Nsg185
(dp1724
g187
Ven
p1725
sg189
Vrecent
p1726
sssg191
g1724
sg192
Nsg193
Nsg31
g1703
sg194
Nsg195
Nsg101
g1721
sg196
I00
sg197
Nsg198
I2
sg199
Nsbag0
(g4
g5
Ntp1727
Rp1728
(dp1729
g9
I00
sg10
Nsg11
I00
sg12
V$EGAN:\u000a\u000aMomentum Stock in Focus \u2013 eGain Corporation (NASDAQ:EGAN):\u000a\u000ahttps://t.co/REo77mmplL
p1730
sg14
Vhttp://www.newsflowing.com
p1731
sg16
I00
sg17
I00
sg18
Nsg19
g0
(g20
g5
Ntp1732
Rp1733
(dp1734
g24
I00
sg25
I00
sg26
I01
sg27
VDDFFCC
p1735
sg29
L2342763212L
sg30
I00
sg31
(dp1736
g33
(dp1737
g35
(lp1738
sssg37
Vhttps://pbs.twimg.com/profile_images/544036701056684032/FY2Xgs7b_normal.jpeg
p1739
sg39
(dp1740
g41
I00
sg42
I00
sg43
I01
sg44
I00
sg45
L2342763212L
sg46
Vhttps://abs.twimg.com/images/themes/theme16/bg.gif
p1741
sg48
I00
sg49
V333333
p1742
sg51
g1739
sg52
g1735
sg53
g1736
sg54
I421
sg55
VBDDCAD
p1743
sg57
V2342763212
p1744
sg59
V9AE4E8
p1745
sg61
I74
sg62
I00
sg63
I-14400
sg64
I193979
sg33
VNews as it happens
p1746
sg66
I0
sg67
VUS
p1747
sg69
V0084B4
p1748
sg71
Vhttp://pbs.twimg.com/profile_images/544036701056684032/FY2Xgs7b_normal.jpeg
p1749
sg73
I00
sg74
I00
sg77
Vhttp://abs.twimg.com/images/themes/theme16/bg.gif
p1750
sg79
Vnewswelldone
p1751
sg81
Ven
p1752
sg83
I00
sg84
I0
sg85
VBreaking News
p1753
sg87
I00
sg88
Nsg89
VFri Feb 14 00:21:52 +0000 2014
p1754
sg91
I00
sg92
VAtlantic Time (Canada)
p1755
sg94
I00
sg95
I00
sg96
I00
ssg97
I00
sg98
g1742
sg99
I421
sg100
g1743
sg101
g1744
sg102
I00
sg103
I74
sg104
I00
sg105
I-14400
sg106
I193979
sg107
g1746
sg108
I0
sg109
g1747
sg110
g1748
sg111
g1749
sg112
I00
sg113
I00
sg114
g1745
sg116
g1750
sg117
g1751
sg118
g1752
sg119
I00
sg120
I00
sg121
I0
sg122
g1753
sg123
Nsg124
g125
(S'\x07\xde\x02\x0e\x00\x154\x00\x00\x00'
p1756
tp1757
Rp1758
sg129
g1741
sg130
g1755
sg131
I00
sg132
I00
sg133
I00
sbsg134
Nsg29
L662302138157150210L
sg135
I0
sg136
VNFIG
p1759
sg118
Ven
p1760
sg139
g1733
sg124
g125
(S'\x07\xdf\x0b\x05\x10\x0f\t\x00\x00\x00'
p1761
tp1762
Rp1763
sg39
(dp1764
g144
Nsg145
I00
sg146
V$EGAN:\u000a\u000aMomentum Stock in Focus \u2013 eGain Corporation (NASDAQ:EGAN):\u000a\u000ahttps://t.co/REo77mmplL
p1765
sg147
I00
sg148
Nsg45
L662302138157150210L
sg149
I0
sg150
V<a href="http://www.newsflowing.com" rel="nofollow">NFIG</a>
p1766
sg152
I00
sg153
Nsg53
(dp1767
g155
(lp1768
(dp1769
g158
(lp1770
I0
aI5
asg146
VEGAN
p1771
sasg161
(lp1772
sg163
(lp1773
sg35
(lp1774
(dp1775
g88
Vhttps://t.co/REo77mmplL
p1776
sg158
(lp1777
I68
aI91
asg169
Vhttp://StockNewsHour.com/egan-momentum-stock-in-focus-egain-corporation-nasdaqegan-2/
p1778
sg171
VStockNewsHour.com/egan-momentum-\u2026
p1779
sassg173
Nsg174
Nsg175
I0
sg57
V662302138157150210
p1780
sg177
I00
sg178
g1740
sg179
Nsg180
Nsg181
I00
sg81
g1760
sg89
VThu Nov 05 16:15:09 +0000 2015
p1781
sg183
Nsg184
Nsg185
(dp1782
g187
Ven
p1783
sg189
Vrecent
p1784
sssg191
g1782
sg192
Nsg193
Nsg31
g1767
sg194
Nsg195
Nsg101
g1780
sg196
I00
sg197
Nsg198
I0
sg199
Nsbag0
(g4
g5
Ntp1785
Rp1786
(dp1787
g9
I00
sg10
Nsg11
I00
sg12
VRT @StockNewsWires: $EGAN:\u000a\u000aGameStop Accelerates Digital Customer Service With eGain Cloud \u2026:\u000a\u000ahttps://t.co/tKfMIpHqR9
p1788
sg14
Vhttp://twitter.com
p1789
sg16
I00
sg17
I00
sg18
Nsg19
g0
(g20
g5
Ntp1790
Rp1791
(dp1792
g24
I00
sg25
I00
sg26
I00
sg27
VFFF7CC
p1793
sg29
I21237175
sg30
I00
sg31
(dp1794
g88
(dp1795
g35
(lp1796
(dp1797
g88
Vhttp://t.co/rjQMZQWGHp
p1798
sg158
(lp1799
I0
aI22
asg169
Vhttp://www.egain.com
p1800
sg171
Vegain.com
p1801
sassg33
(dp1802
g35
(lp1803
sssg37
Vhttps://pbs.twimg.com/profile_images/2162650818/logo_egain_normal.gif
p1804
sg39
(dp1805
g41
I00
sg42
I00
sg43
I00
sg44
I00
sg45
I21237175
sg46
Vhttps://abs.twimg.com/images/themes/theme12/bg.gif
p1806
sg48
I00
sg49
V0C3E53
p1807
sg51
g1804
sg52
g1793
sg53
g1794
sg54
I2243
sg55
VFFFFFF
p1808
sg57
V21237175
p1809
sg59
V000000
p1810
sg61
I154
sg62
I00
sg63
I-28800
sg64
I3594
sg33
VeGain is a leading provider of cloud customer engagement solutions.
p1811
sg66
I1172
sg67
VSunnyvale, CA
p1812
sg69
VFF0000
p1813
sg71
Vhttp://pbs.twimg.com/profile_images/2162650818/logo_egain_normal.gif
p1814
sg73
I00
sg74
I01
sg75
Vhttps://pbs.twimg.com/profile_banners/21237175/1445412824
p1815
sg77
Vhttp://abs.twimg.com/images/themes/theme12/bg.gif
p1816
sg79
VeGain
p1817
sg81
Ven
p1818
sg83
I00
sg84
I63
sg85
VeGain
p1819
sg87
I00
sg88
Vhttp://t.co/rjQMZQWGHp
p1820
sg89
VWed Feb 18 20:28:56 +0000 2009
p1821
sg91
I00
sg92
VPacific Time (US & Canada)
p1822
sg94
I00
sg95
I00
sg96
I00
ssg97
I00
sg98
g1807
sg99
I2243
sg100
g1808
sg101
g1809
sg102
I00
sg103
I154
sg104
I00
sg105
I-28800
sg106
I3594
sg107
g1811
sg108
I1172
sg109
g1812
sg110
g1813
sg111
g1814
sg112
I00
sg113
I01
sg114
g1810
sg115
g1815
sg116
g1816
sg117
g1817
sg118
g1818
sg119
I00
sg120
I00
sg121
I63
sg122
g1819
sg123
g1820
sg124
g125
(S'\x07\xd9\x02\x12\x14\x1c8\x00\x00\x00'
p1823
tp1824
Rp1825
sg129
g1806
sg130
g1822
sg131
I00
sg132
I00
sg133
I00
sbsg134
Nsg29
L662174027969007616L
sg135
I0
sg136
VTwitter Web Client
p1826
sg118
Ven
p1827
sg1638
g0
(g4
g5
Ntp1828
Rp1829
(dp1830
g9
I00
sg10
Nsg11
I00
sg12
V$EGAN:\u000a\u000aGameStop Accelerates Digital Customer Service With eGain Cloud \u2026:\u000a\u000ahttps://t.co/tKfMIpHqR9
p1831
sg14
Vhttp://www.stocknewswires.com
p1832
sg16
I00
sg17
I00
sg18
Nsg19
g0
(g20
g5
Ntp1833
Rp1834
(dp1835
g24
I00
sg25
I00
sg26
I01
sg27
VDAECF4
p1836
sg29
L2341445778L
sg30
I00
sg31
(dp1837
g33
(dp1838
g35
(lp1839
sssg37
Vhttps://pbs.twimg.com/profile_images/542238326397227008/UfZ0ulTf_normal.jpeg
p1840
sg39
(dp1841
g41
I00
sg42
I00
sg43
I01
sg44
I00
sg45
L2341445778L
sg46
Vhttps://abs.twimg.com/images/themes/theme2/bg.gif
p1842
sg48
I00
sg49
V663B12
p1843
sg51
g1840
sg52
g1836
sg53
g1837
sg54
I660
sg55
VC6E2EE
p1844
sg57
V2341445778
p1845
sg59
VC6E2EE
p1846
sg61
I107
sg62
I00
sg63
I-14400
sg64
I236872
sg33
VInvest like a fish
p1847
sg66
I9
sg67
VUnited States
p1848
sg69
V1F98C7
p1849
sg71
Vhttp://pbs.twimg.com/profile_images/542238326397227008/UfZ0ulTf_normal.jpeg
p1850
sg73
I00
sg74
I00
sg77
Vhttp://abs.twimg.com/images/themes/theme2/bg.gif
p1851
sg79
VStockNewsWires
p1852
sg81
Ven
p1853
sg83
I00
sg84
I0
sg85
VStockNewsWires
p1854
sg87
I00
sg88
Nsg89
VThu Feb 13 05:31:52 +0000 2014
p1855
sg91
I00
sg92
VAtlantic Time (Canada)
p1856
sg94
I00
sg95
I00
sg96
I00
ssg97
I00
sg98
g1843
sg99
I660
sg100
g1844
sg101
g1845
sg102
I00
sg103
I107
sg104
I00
sg105
I-14400
sg106
I236872
sg107
g1847
sg108
I9
sg109
g1848
sg110
g1849
sg111
g1850
sg112
I00
sg113
I00
sg114
g1846
sg116
g1851
sg117
g1852
sg118
g1853
sg119
I00
sg120
I00
sg121
I0
sg122
g1854
sg123
Nsg124
g125
(S'\x07\xde\x02\r\x05\x1f4\x00\x00\x00'
p1857
tp1858
Rp1859
sg129
g1842
sg130
g1856
sg131
I00
sg132
I00
sg133
I00
sbsg134
Nsg29
L662016811114868736L
sg135
I0
sg136
VStockNewsWires
p1860
sg118
Ven
p1861
sg139
g1834
sg124
g125
(S'\x07\xdf\x0b\x04\x15\x15\x16\x00\x00\x00'
p1862
tp1863
Rp1864
sg39
(dp1865
g144
Nsg145
I00
sg146
V$EGAN:\u000a\u000aGameStop Accelerates Digital Customer Service With eGain Cloud \u2026:\u000a\u000ahttps://t.co/tKfMIpHqR9
p1866
sg147
I00
sg148
Nsg45
L662016811114868736L
sg149
I0
sg150
V<a href="http://www.stocknewswires.com" rel="nofollow">StockNewsWires</a>
p1867
sg152
I00
sg153
Nsg53
(dp1868
g155
(lp1869
(dp1870
g158
(lp1871
I0
aI5
asg146
VEGAN
p1872
sasg161
(lp1873
sg163
(lp1874
sg35
(lp1875
(dp1876
g88
Vhttps://t.co/tKfMIpHqR9
p1877
sg158
(lp1878
I75
aI98
asg169
Vhttp://StockNewsHour.com/egan-gamestop-accelerates-digital-customer-service-with-egain-cloud/
p1879
sg171
VStockNewsHour.com/egan-gamestop-\u2026
p1880
sassg173
Nsg174
Nsg175
I2
sg57
V662016811114868736
p1881
sg177
I00
sg178
g1841
sg179
Nsg180
Nsg181
I00
sg81
g1861
sg89
VWed Nov 04 21:21:22 +0000 2015
p1882
sg183
Nsg184
Nsg185
(dp1883
g187
Ven
p1884
sg189
Vrecent
p1885
sssg191
g1883
sg192
Nsg193
Nsg31
g1868
sg194
Nsg195
Nsg101
g1881
sg196
I00
sg197
Nsg198
I2
sg199
Nsbsg139
g1791
sg124
g125
(S'\x07\xdf\x0b\x05\x07.\x05\x00\x00\x00'
p1886
tp1887
Rp1888
sg39
(dp1889
g144
Nsg145
I00
sg146
VRT @StockNewsWires: $EGAN:\u000a\u000aGameStop Accelerates Digital Customer Service With eGain Cloud \u2026:\u000a\u000ahttps://t.co/tKfMIpHqR9
p1890
sg147
I00
sg148
Nsg45
L662174027969007616L
sg149
I0
sg150
V<a href="http://twitter.com" rel="nofollow">Twitter Web Client</a>
p1891
sg152
I00
sg153
Nsg53
(dp1892
g155
(lp1893
(dp1894
g158
(lp1895
I20
aI25
asg146
VEGAN
p1896
sasg161
(lp1897
(dp1898
g45
L2341445778L
sg158
(lp1899
I3
aI18
asg57
V2341445778
p1900
sg79
VStockNewsWires
p1901
sg85
VStockNewsWires
p1902
sasg163
(lp1903
sg35
(lp1904
(dp1905
g88
Vhttps://t.co/tKfMIpHqR9
p1906
sg158
(lp1907
I95
aI118
asg169
Vhttp://StockNewsHour.com/egan-gamestop-accelerates-digital-customer-service-with-egain-cloud/
p1908
sg171
VStockNewsHour.com/egan-gamestop-\u2026
p1909
sassg173
Nsg174
Nsg175
I2
sg57
V662174027969007616
p1910
sg177
I00
sg1722
g1865
sg178
g1805
sg179
Nsg180
Nsg181
I00
sg81
g1827
sg89
VThu Nov 05 07:46:05 +0000 2015
p1911
sg183
Nsg184
Nsg185
(dp1912
g187
Ven
p1913
sg189
Vrecent
p1914
sssg191
g1912
sg192
Nsg193
Nsg31
g1892
sg194
Nsg195
Nsg101
g1910
sg196
I00
sg197
Nsg198
I2
sg199
Nsbag0
(g4
g5
Ntp1915
Rp1916
(dp1917
g9
I00
sg10
Nsg11
I00
sg12
V$EGAN Earnings result is out. Check out next day hist price reaction, EPS &amp; Revenue Surprise. https://t.co/haBZIuhfBT
p1918
sg14
Vhttp://www.hootsuite.com
p1919
sg16
I00
sg17
I00
sg18
Nsg19
g0
(g20
g5
Ntp1920
Rp1921
(dp1922
g24
I00
sg25
I00
sg26
I01
sg27
VDDEEF6
p1923
sg29
L2683803193L
sg30
I00
sg31
(dp1924
g88
(dp1925
g35
(lp1926
(dp1927
g88
Vhttp://t.co/TkVoSXCWAo
p1928
sg158
(lp1929
I0
aI22
asg169
Vhttp://StocksEarning.com
p1930
sg171
VStocksEarning.com
p1931
sassg33
(dp1932
g35
(lp1933
sssg37
Vhttps://pbs.twimg.com/profile_images/493963538138804226/wKa0JIgx_normal.jpeg
p1934
sg39
(dp1935
g41
I00
sg42
I00
sg43
I01
sg44
I00
sg45
L2683803193L
sg46
Vhttps://abs.twimg.com/images/themes/theme1/bg.png
p1936
sg48
I00
sg49
V333333
p1937
sg51
g1934
sg52
g1923
sg53
g1924
sg54
I406
sg55
VC0DEED
p1938
sg57
V2683803193
p1939
sg59
VC0DEED
p1940
sg61
I29
sg62
I00
sg63
Nsg64
I38513
sg33
VFinancial services website dedicated to provide the research on Stocks Earnings by using our proprietary indicators. Do your own research. Tweets not advice.
p1941
sg66
I100
sg67
VNew York, NY
p1942
sg69
V0084B4
p1943
sg71
Vhttp://pbs.twimg.com/profile_images/493963538138804226/wKa0JIgx_normal.jpeg
p1944
sg73
I00
sg74
I00
sg77
Vhttp://abs.twimg.com/images/themes/theme1/bg.png
p1945
sg79
VStocksEarnings
p1946
sg81
Ven
p1947
sg83
I00
sg84
I6
sg85
VStockEarnings.com
p1948
sg87
I00
sg88
Vhttp://t.co/TkVoSXCWAo
p1949
sg89
VSun Jul 27 01:23:04 +0000 2014
p1950
sg91
I00
sg92
Nsg94
I00
sg95
I01
sg96
I00
ssg97
I00
sg98
g1937
sg99
I406
sg100
g1938
sg101
g1939
sg102
I00
sg103
I29
sg104
I00
sg105
Nsg106
I38513
sg107
g1941
sg108
I100
sg109
g1942
sg110
g1943
sg111
g1944
sg112
I00
sg113
I00
sg114
g1940
sg116
g1945
sg117
g1946
sg118
g1947
sg119
I00
sg120
I00
sg121
I6
sg122
g1948
sg123
g1949
sg124
g125
(S'\x07\xde\x07\x1b\x01\x17\x04\x00\x00\x00'
p1951
tp1952
Rp1953
sg129
g1936
sg130
Nsg131
I00
sg132
I01
sg133
I00
sbsg134
Nsg29
L662114685492285440L
sg135
I0
sg136
VHootsuite
p1954
sg118
Ven
p1955
sg139
g1921
sg124
g125
(S'\x07\xdf\x0b\x05\x032\x11\x00\x00\x00'
p1956
tp1957
Rp1958
sg39
(dp1959
g144
Nsg145
I00
sg146
g1918
sg147
I00
sg148
Nsg45
L662114685492285440L
sg149
I0
sg150
V<a href="http://www.hootsuite.com" rel="nofollow">Hootsuite</a>
p1960
sg152
I00
sg153
Nsg53
(dp1961
g155
(lp1962
(dp1963
g158
(lp1964
I0
aI5
asg146
VEGAN
p1965
sasg161
(lp1966
sg163
(lp1967
sg35
(lp1968
(dp1969
g88
Vhttps://t.co/haBZIuhfBT
p1970
sg158
(lp1971
I98
aI121
asg169
Vhttp://ow.ly/Ug0yz
p1972
sg171
Vow.ly/Ug0yz
p1973
sassg173
Nsg174
Nsg175
I0
sg57
V662114685492285440
p1974
sg177
I00
sg178
g1935
sg179
Nsg180
Nsg181
I00
sg81
g1955
sg89
VThu Nov 05 03:50:17 +0000 2015
p1975
sg183
Nsg184
Nsg185
(dp1976
g187
Ven
p1977
sg189
Vrecent
p1978
sssg191
g1976
sg192
Nsg193
Nsg31
g1961
sg194
Nsg195
Nsg101
g1974
sg196
I00
sg197
Nsg198
I0
sg199
Nsbag0
(g4
g5
Ntp1979
Rp1980
(dp1981
g9
I00
sg10
Nsg11
I00
sg12
VImp catalysts 4 MEIP &amp; CALA in d cmg week Here is DD 4 investors:https://t.co/lwSyWTxOEB $NFEC $TPLM $UNXL $LLEX $SYRG $EGAN
p1982
sg14
Vhttp://twittimer.com
p1983
sg16
I00
sg17
I00
sg18
Nsg19
g0
(g20
g5
Ntp1984
Rp1985
(dp1986
g24
I00
sg25
I01
sg26
I00
sg27
V000000
p1987
sg29
L3518191635L
sg30
I00
sg31
(dp1988
g88
(dp1989
g35
(lp1990
(dp1991
g88
Vhttps://t.co/ot2Kl5nyub
p1992
sg158
(lp1993
I0
aI23
asg169
Vhttps://groups.google.com/forum/#!forum/jbem777
p1994
sg171
Vgroups.google.com/forum/#!forum/\u2026
p1995
sassg33
(dp1996
g35
(lp1997
sssg37
Vhttps://pbs.twimg.com/profile_images/638885869433196544/C975RWXJ_normal.jpg
p1998
sg39
(dp1999
g41
I00
sg42
I01
sg43
I00
sg44
I00
sg45
L3518191635L
sg46
Vhttps://abs.twimg.com/images/themes/theme1/bg.png
p2000
sg48
I00
sg49
V000000
p2001
sg51
g1998
sg52
g1987
sg53
g1988
sg54
I28
sg55
V000000
p2002
sg57
V3518191635
p2003
sg59
V000000
p2004
sg61
I1
sg62
I00
sg63
I-28800
sg64
I1505
sg33
VHealthcare Stocks
p2005
sg66
I25
sg67
g68
sg69
V89C9FA
p2006
sg71
Vhttp://pbs.twimg.com/profile_images/638885869433196544/C975RWXJ_normal.jpg
p2007
sg73
I00
sg74
I00
sg77
Vhttp://abs.twimg.com/images/themes/theme1/bg.png
p2008
sg79
Vjbemstocks
p2009
sg81
Ven
p2010
sg83
I00
sg84
I0
sg85
VDUE DILIGENCE
p2011
sg87
I00
sg88
Vhttps://t.co/ot2Kl5nyub
p2012
sg89
VWed Sep 02 01:23:46 +0000 2015
p2013
sg91
I00
sg92
VPacific Time (US & Canada)
p2014
sg94
I00
sg95
I00
sg96
I00
ssg97
I00
sg98
g2001
sg99
I28
sg100
g2002
sg101
g2003
sg102
I00
sg103
I1
sg104
I00
sg105
I-28800
sg106
I1505
sg107
g2005
sg108
I25
sg109
g68
sg110
g2006
sg111
g2007
sg112
I00
sg113
I00
sg114
g2004
sg116
g2008
sg117
g2009
sg118
g2010
sg119
I00
sg120
I00
sg121
I0
sg122
g2011
sg123
g2012
sg124
g125
(S'\x07\xdf\t\x02\x01\x17.\x00\x00\x00'
p2015
tp2016
Rp2017
sg129
g2000
sg130
g2014
sg131
I00
sg132
I00
sg133
I00
sbsg134
Nsg29
L662110879194869760L
sg135
I0
sg136
VTwittimer
p2018
sg118
Vnl
p2019
sg139
g1985
sg124
g125
(S'\x07\xdf\x0b\x05\x03#\t\x00\x00\x00'
p2020
tp2021
Rp2022
sg39
(dp2023
g144
Nsg145
I00
sg146
g1982
sg147
I00
sg148
Nsg45
L662110879194869760L
sg149
I0
sg150
V<a href="http://twittimer.com" rel="nofollow">Twittimer</a>
p2024
sg152
I00
sg153
Nsg53
(dp2025
g155
(lp2026
(dp2027
g158
(lp2028
I93
aI98
asg146
VNFEC
p2029
sa(dp2030
g158
(lp2031
I99
aI104
asg146
VTPLM
p2032
sa(dp2033
g158
(lp2034
I105
aI110
asg146
VUNXL
p2035
sa(dp2036
g158
(lp2037
I111
aI116
asg146
VLLEX
p2038
sa(dp2039
g158
(lp2040
I117
aI122
asg146
VSYRG
p2041
sa(dp2042
g158
(lp2043
I123
aI128
asg146
VEGAN
p2044
sasg161
(lp2045
sg163
(lp2046
sg35
(lp2047
(dp2048
g88
Vhttps://t.co/lwSyWTxOEB
p2049
sg158
(lp2050
I69
aI92
asg169
Vhttp://bit.ly/1KjZ8cR
p2051
sg171
Vbit.ly/1KjZ8cR
p2052
sassg173
Nsg174
Nsg175
I0
sg57
V662110879194869760
p2053
sg177
I00
sg178
g1999
sg179
Nsg180
Nsg181
I00
sg81
g2019
sg89
VThu Nov 05 03:35:09 +0000 2015
p2054
sg183
Nsg184
Nsg185
(dp2055
g187
Vnl
p2056
sg189
Vrecent
p2057
sssg191
g2055
sg192
Nsg193
Nsg31
g2025
sg194
Nsg195
Nsg101
g2053
sg196
I00
sg197
Nsg198
I0
sg199
Nsbag0
(g4
g5
Ntp2058
Rp2059
(dp2060
g9
I00
sg10
Nsg11
I00
sg12
VWebsite -&gt; https://t.co/w3Zx7ERlRG     $EGAN Reports Wednesday, Consensus Est. Rev: $16.777M, EPS: $-0.12 https://t.co/hmwgWqZQYV
p2061
sg14
Vhttp://www.capitalmarketlabs.com
p2062
sg16
I00
sg17
I00
sg18
Nsg19
g0
(g20
g5
Ntp2063
Rp2064
(dp2065
g24
I00
sg25
I00
sg26
I01
sg27
VDDEEF6
p2066
sg29
L2796938558L
sg30
I00
sg31
(dp2067
g88
(dp2068
g35
(lp2069
(dp2070
g88
Vhttp://t.co/l29UpUXIyx
p2071
sg158
(lp2072
I0
aI22
asg169
Vhttp://CMLviz.com
p2073
sg171
VCMLviz.com
p2074
sassg33
(dp2075
g35
(lp2076
sssg37
Vhttps://pbs.twimg.com/profile_images/641786844405829632/hfZZ4zXJ_normal.png
p2077
sg39
(dp2078
g41
I00
sg42
I00
sg43
I01
sg44
I00
sg45
L2796938558L
sg46
Vhttps://abs.twimg.com/images/themes/theme1/bg.png
p2079
sg48
I00
sg49
V333333
p2080
sg51
g2077
sg52
g2066
sg53
g2067
sg54
I1730
sg55
VC0DEED
p2081
sg57
V2796938558
p2082
sg59
VC0DEED
p2083
sg61
I72
sg62
I00
sg63
I-28800
sg64
I196904
sg33
VThis is the #CML visual DATA FEED, providing trends minute-by-minute. This account tweets a lot! The official account is @capitalmktlabs and @ophirgottlieb
p2084
sg66
I16
sg67
VLos Angeles
p2085
sg69
V0084B4
p2086
sg71
Vhttp://pbs.twimg.com/profile_images/641786844405829632/hfZZ4zXJ_normal.png
p2087
sg73
I00
sg74
I00
sg75
Vhttps://pbs.twimg.com/profile_banners/2796938558/1441848711
p2088
sg77
Vhttp://abs.twimg.com/images/themes/theme1/bg.png
p2089
sg79
VCMLviz
p2090
sg81
Ven
p2091
sg83
I00
sg84
I585
sg85
VCapital Market Labs
p2092
sg87
I00
sg88
Vhttp://t.co/l29UpUXIyx
p2093
sg89
VMon Sep 08 00:42:45 +0000 2014
p2094
sg91
I00
sg92
VTijuana
p2095
sg94
I00
sg95
I01
sg96
I00
ssg97
I00
sg98
g2080
sg99
I1730
sg100
g2081
sg101
g2082
sg102
I00
sg103
I72
sg104
I00
sg105
I-28800
sg106
I196904
sg107
g2084
sg108
I16
sg109
g2085
sg110
g2086
sg111
g2087
sg112
I00
sg113
I00
sg114
g2083
sg115
g2088
sg116
g2089
sg117
g2090
sg118
g2091
sg119
I00
sg120
I00
sg121
I585
sg122
g2092
sg123
g2093
sg124
g125
(S'\x07\xde\t\x08\x00*-\x00\x00\x00'
p2096
tp2097
Rp2098
sg129
g2079
sg130
g2095
sg131
I00
sg132
I01
sg133
I00
sbsg134
Nsg29
L662035489248010240L
sg135
I0
sg136
VCML_VisualFeed
p2099
sg118
Ven
p2100
sg139
g2064
sg124
g125
(S'\x07\xdf\x0b\x04\x16##\x00\x00\x00'
p2101
tp2102
Rp2103
sg39
(dp2104
g144
Nsg145
I00
sg146
g2061
sg147
I00
sg148
Nsg45
L662035489248010240L
sg149
I0
sg150
V<a href="http://www.capitalmarketlabs.com" rel="nofollow">CML_VisualFeed</a>
p2105
sg152
I00
sg153
Nsg53
(dp2106
g155
(lp2107
(dp2108
g158
(lp2109
I42
aI47
asg146
VEGAN
p2110
sasg161
(lp2111
sg163
(lp2112
sg35
(lp2113
(dp2114
g88
Vhttps://t.co/w3Zx7ERlRG
p2115
sg158
(lp2116
I14
aI37
asg169
Vhttp://bit.ly/1McdG5n
p2117
sg171
Vbit.ly/1McdG5n
p2118
sasVmedia
p2119
(lp2120
(dp2121
g169
Vhttp://twitter.com/CMLviz/status/662035489248010240/photo/1
p2122
sg171
Vpic.twitter.com/hmwgWqZQYV
p2123
sg88
Vhttps://t.co/hmwgWqZQYV
p2124
sVmedia_url_https
p2125
Vhttps://pbs.twimg.com/media/CTAFxPKUsAAuuPQ.png
p2126
sg57
V662035488665022464
p2127
sVsizes
p2128
(dp2129
Vlarge
p2130
(dp2131
Vh
p2132
I551
sVresize
p2133
Vfit
p2134
sVw
p2135
I789
ssVsmall
p2136
(dp2137
g2132
I237
sg2133
Vfit
p2138
sg2135
I340
ssVmedium
p2139
(dp2140
g2132
I418
sg2133
Vfit
p2141
sg2135
I600
ssVthumb
p2142
(dp2143
g2132
I150
sg2133
Vcrop
p2144
sg2135
I150
sssg158
(lp2145
I109
aI132
asVtype
p2146
Vphoto
p2147
sg45
L662035488665022464L
sVmedia_url
p2148
Vhttp://pbs.twimg.com/media/CTAFxPKUsAAuuPQ.png
p2149
sassg173
Nsg174
Nsg175
I0
sg57
V662035489248010240
p2150
sg177
I00
sg178
g2078
sg179
Nsg180
Nsg181
I00
sg81
g2100
sg89
VWed Nov 04 22:35:35 +0000 2015
p2151
sg183
Nsg184
Nsg185
(dp2152
g187
Ven
p2153
sg189
Vrecent
p2154
sssg191
g2152
sg192
Nsg193
Nsg31
g2106
sg194
Nsg195
Nsg101
g2150
sg196
I00
sg197
Nsg198
I0
sg199
Nsbag0
(g4
g5
Ntp2155
Rp2156
(dp2157
g9
I00
sg10
Nsg11
I00
sg12
VeGain Corp announces earnings. ($0.12) EPS. Meets estimates. $16.47m revenue. https://t.co/aEpMqyU7la $EGAN #EGAN
p2158
sg14
Vhttp://ifttt.com
p2159
sg16
I00
sg17
I00
sg18
Nsg19
g0
(g20
g5
Ntp2160
Rp2161
(dp2162
g24
I00
sg25
I00
sg26
I01
sg27
VCCDAFF
p2163
sg29
I61661638
sg30
I00
sg31
(dp2164
g88
(dp2165
g35
(lp2166
(dp2167
g88
Vhttp://t.co/7EZswS49Q1
p2168
sg158
(lp2169
I0
aI22
asg169
Vhttp://www.americanbankingnews.com/
p2170
sg171
Vamericanbankingnews.com
p2171
sassg33
(dp2172
g35
(lp2173
sssg37
Vhttps://pbs.twimg.com/profile_images/541252987/Image5_normal.jpg
p2174
sg39
(dp2175
g41
I00
sg42
I00
sg43
I01
sg44
I00
sg45
I61661638
sg46
Vhttps://pbs.twimg.com/profile_background_images/55647305/background.png
p2176
sg48
I00
sg49
V141414
p2177
sg51
g2174
sg52
g2163
sg53
g2164
sg54
I5557
sg55
VABB1D9
p2178
sg57
V61661638
p2179
sg59
V000000
p2180
sg61
I469
sg62
I00
sg63
I-21600
sg64
I693975
sg33
VBanks, Credit Unions & Financial Institutions
p2181
sg66
I2307
sg67
VSioux Falls, SD
p2182
sg69
VA60000
p2183
sg71
Vhttp://pbs.twimg.com/profile_images/541252987/Image5_normal.jpg
p2184
sg73
I00
sg74
I00
sg77
Vhttp://pbs.twimg.com/profile_background_images/55647305/background.png
p2185
sg79
VAmericanBanking
p2186
sg81
Ven
p2187
sg83
I01
sg84
I0
sg85
VUS Banking News
p2188
sg87
I00
sg88
Vhttp://t.co/7EZswS49Q1
p2189
sg89
VFri Jul 31 01:58:33 +0000 2009
p2190
sg91
I00
sg92
VCentral Time (US & Canada)
p2191
sg94
I00
sg95
I00
sg96
I00
ssg97
I00
sg98
g2177
sg99
I5557
sg100
g2178
sg101
g2179
sg102
I00
sg103
I469
sg104
I00
sg105
I-21600
sg106
I693975
sg107
g2181
sg108
I2307
sg109
g2182
sg110
g2183
sg111
g2184
sg112
I00
sg113
I00
sg114
g2180
sg116
g2185
sg117
g2186
sg118
g2187
sg119
I00
sg120
I01
sg121
I0
sg122
g2188
sg123
g2189
sg124
g125
(S'\x07\xd9\x07\x1f\x01:!\x00\x00\x00'
p2192
tp2193
Rp2194
sg129
g2176
sg130
g2191
sg131
I00
sg132
I00
sg133
I00
sbsg134
Nsg29
L662030887601750016L
sg135
I1
sg136
VIFTTT
p2195
sg118
Ven
p2196
sg139
g2161
sg124
g125
(S'\x07\xdf\x0b\x04\x16\x11\x12\x00\x00\x00'
p2197
tp2198
Rp2199
sg39
(dp2200
g144
Nsg145
I00
sg146
g2158
sg147
I00
sg148
Nsg45
L662030887601750016L
sg149
I1
sg150
V<a href="http://ifttt.com" rel="nofollow">IFTTT</a>
p2201
sg152
I00
sg153
Nsg53
(dp2202
g155
(lp2203
(dp2204
g158
(lp2205
I102
aI107
asg146
VEGAN
p2206
sasg161
(lp2207
sg163
(lp2208
(dp2209
g158
(lp2210
I108
aI113
asg146
VEGAN
p2211
sasg35
(lp2212
(dp2213
g88
Vhttps://t.co/aEpMqyU7la
p2214
sg158
(lp2215
I78
aI101
asg169
Vhttp://ift.tt/1XQAz0P
p2216
sg171
Vift.tt/1XQAz0P
p2217
sassg173
Nsg174
Nsg175
I0
sg57
V662030887601750016
p2218
sg177
I00
sg178
g2175
sg179
Nsg180
Nsg181
I00
sg81
g2196
sg89
VWed Nov 04 22:17:18 +0000 2015
p2219
sg183
Nsg184
Nsg185
(dp2220
g187
Ven
p2221
sg189
Vrecent
p2222
sssg191
g2220
sg192
Nsg193
Nsg31
g2202
sg194
Nsg195
Nsg101
g2218
sg196
I00
sg197
Nsg198
I0
sg199
Nsbag0
(g4
g5
Ntp2223
Rp2224
(dp2225
g9
I00
sg10
Nsg11
I00
sg12
VImp catalysts 4 MEIP &amp; CALA in d cmg week Here is DD 4 investors:https://t.co/lwSyWTxOEB $EFU $EFUT $EFV $EFX $EFZ $EGAN $EGAS $EGBN
p2226
sg14
Vhttp://twittimer.com
p2227
sg16
I00
sg17
I00
sg18
Nsg19
g0
(g20
g5
Ntp2228
Rp2229
(dp2230
g24
I00
sg25
I01
sg26
I00
sg27
V000000
p2231
sg29
L3518191635L
sg30
I00
sg31
(dp2232
g88
(dp2233
g35
(lp2234
(dp2235
g88
Vhttps://t.co/ot2Kl5nyub
p2236
sg158
(lp2237
I0
aI23
asg169
Vhttps://groups.google.com/forum/#!forum/jbem777
p2238
sg171
Vgroups.google.com/forum/#!forum/\u2026
p2239
sassg33
(dp2240
g35
(lp2241
sssg37
Vhttps://pbs.twimg.com/profile_images/638885869433196544/C975RWXJ_normal.jpg
p2242
sg39
(dp2243
g41
I00
sg42
I01
sg43
I00
sg44
I00
sg45
L3518191635L
sg46
Vhttps://abs.twimg.com/images/themes/theme1/bg.png
p2244
sg48
I00
sg49
V000000
p2245
sg51
g2242
sg52
g2231
sg53
g2232
sg54
I28
sg55
V000000
p2246
sg57
V3518191635
p2247
sg59
V000000
p2248
sg61
I1
sg62
I00
sg63
I-28800
sg64
I1505
sg33
VHealthcare Stocks
p2249
sg66
I25
sg67
g68
sg69
V89C9FA
p2250
sg71
Vhttp://pbs.twimg.com/profile_images/638885869433196544/C975RWXJ_normal.jpg
p2251
sg73
I00
sg74
I00
sg77
Vhttp://abs.twimg.com/images/themes/theme1/bg.png
p2252
sg79
Vjbemstocks
p2253
sg81
Ven
p2254
sg83
I00
sg84
I0
sg85
VDUE DILIGENCE
p2255
sg87
I00
sg88
Vhttps://t.co/ot2Kl5nyub
p2256
sg89
VWed Sep 02 01:23:46 +0000 2015
p2257
sg91
I00
sg92
VPacific Time (US & Canada)
p2258
sg94
I00
sg95
I00
sg96
I00
ssg97
I00
sg98
g2245
sg99
I28
sg100
g2246
sg101
g2247
sg102
I00
sg103
I1
sg104
I00
sg105
I-28800
sg106
I1505
sg107
g2249
sg108
I25
sg109
g68
sg110
g2250
sg111
g2251
sg112
I00
sg113
I00
sg114
g2248
sg116
g2252
sg117
g2253
sg118
g2254
sg119
I00
sg120
I00
sg121
I0
sg122
g2255
sg123
g2256
sg124
g125
(S'\x07\xdf\t\x02\x01\x17.\x00\x00\x00'
p2259
tp2260
Rp2261
sg129
g2244
sg130
g2258
sg131
I00
sg132
I00
sg133
I00
sbsg134
Nsg29
L662030354669158400L
sg135
I0
sg136
VTwittimer
p2262
sg118
Vde
p2263
sg139
g2229
sg124
g125
(S'\x07\xdf\x0b\x04\x16\x0f\x0b\x00\x00\x00'
p2264
tp2265
Rp2266
sg39
(dp2267
g144
Nsg145
I00
sg146
g2226
sg147
I00
sg148
Nsg45
L662030354669158400L
sg149
I0
sg150
V<a href="http://twittimer.com" rel="nofollow">Twittimer</a>
p2268
sg152
I00
sg153
Nsg53
(dp2269
g155
(lp2270
(dp2271
g158
(lp2272
I93
aI97
asg146
VEFU
p2273
sa(dp2274
g158
(lp2275
I98
aI103
asg146
VEFUT
p2276
sa(dp2277
g158
(lp2278
I104
aI108
asg146
VEFV
p2279
sa(dp2280
g158
(lp2281
I109
aI113
asg146
VEFX
p2282
sa(dp2283
g158
(lp2284
I114
aI118
asg146
VEFZ
p2285
sa(dp2286
g158
(lp2287
I119
aI124
asg146
VEGAN
p2288
sa(dp2289
g158
(lp2290
I125
aI130
asg146
VEGAS
p2291
sa(dp2292
g158
(lp2293
I131
aI136
asg146
VEGBN
p2294
sasg161
(lp2295
sg163
(lp2296
sg35
(lp2297
(dp2298
g88
Vhttps://t.co/lwSyWTxOEB
p2299
sg158
(lp2300
I69
aI92
asg169
Vhttp://bit.ly/1KjZ8cR
p2301
sg171
Vbit.ly/1KjZ8cR
p2302
sassg173
Nsg174
Nsg175
I0
sg57
V662030354669158400
p2303
sg177
I00
sg178
g2243
sg179
Nsg180
Nsg181
I00
sg81
g2263
sg89
VWed Nov 04 22:15:11 +0000 2015
p2304
sg183
Nsg184
Nsg185
(dp2305
g187
Vde
p2306
sg189
Vrecent
p2307
sssg191
g2305
sg192
Nsg193
Nsg31
g2269
sg194
Nsg195
Nsg101
g2303
sg196
I00
sg197
Nsg198
I0
sg199
Nsbag0
(g4
g5
Ntp2308
Rp2309
(dp2310
g9
I00
sg10
Nsg11
I00
sg12
VeGain Corp announces earnings. ($0.12) EPS. Meets estimates. $16.47m revenue. https://t.co/v1opulNoER $EGAN #EGAN
p2311
sg14
Vhttp://ifttt.com
p2312
sg16
I00
sg17
I00
sg18
Nsg19
g0
(g20
g5
Ntp2313
Rp2314
(dp2315
g24
I00
sg25
I00
sg26
I01
sg27
VE8E8E8
p2316
sg29
I52210566
sg30
I00
sg31
(dp2317
g88
(dp2318
g35
(lp2319
(dp2320
g88
Vhttp://t.co/odTc3pvcAe
p2321
sg158
(lp2322
I0
aI22
asg169
Vhttp://www.americanconsumernews.com/
p2323
sg171
Vamericanconsumernews.com
p2324
sassg33
(dp2325
g35
(lp2326
sssg37
Vhttps://pbs.twimg.com/profile_images/289298274/text_normal.jpg
p2327
sg39
(dp2328
g41
I00
sg42
I00
sg43
I01
sg44
I00
sg45
I52210566
sg46
Vhttps://pbs.twimg.com/profile_background_images/20558354/back.jpg
p2329
sg48
I00
sg49
V333333
p2330
sg51
g2327
sg52
g2316
sg53
g2317
sg54
I1114
sg55
VADADAD
p2331
sg57
V52210566
p2332
sg59
V9AE4E8
p2333
sg61
I96
sg62
I00
sg63
I-21600
sg64
I580839
sg33
VPersonal Finance and Consumer Tips
p2334
sg66
I1412
sg67
VSioux Falls, SD
p2335
sg69
V0084B4
p2336
sg71
Vhttp://pbs.twimg.com/profile_images/289298274/text_normal.jpg
p2337
sg73
I00
sg74
I00
sg77
Vhttp://pbs.twimg.com/profile_background_images/20558354/back.jpg
p2338
sg79
VAmConsumerNews
p2339
sg81
Ven
p2340
sg83
I00
sg84
I0
sg85
VConsumer News
p2341
sg87
I00
sg88
Vhttp://t.co/odTc3pvcAe
p2342
sg89
VMon Jun 29 22:22:08 +0000 2009
p2343
sg91
I00
sg92
VCentral Time (US & Canada)
p2344
sg94
I00
sg95
I00
sg96
I00
ssg97
I00
sg98
g2330
sg99
I1114
sg100
g2331
sg101
g2332
sg102
I00
sg103
I96
sg104
I00
sg105
I-21600
sg106
I580839
sg107
g2334
sg108
I1412
sg109
g2335
sg110
g2336
sg111
g2337
sg112
I00
sg113
I00
sg114
g2333
sg116
g2338
sg117
g2339
sg118
g2340
sg119
I00
sg120
I00
sg121
I0
sg122
g2341
sg123
g2342
sg124
g125
(S'\x07\xd9\x06\x1d\x16\x16\x08\x00\x00\x00'
p2345
tp2346
Rp2347
sg129
g2329
sg130
g2344
sg131
I00
sg132
I00
sg133
I00
sbsg134
Nsg29
L662029705743323136L
sg135
I0
sg136
VIFTTT
p2348
sg118
Ven
p2349
sg139
g2314
sg124
g125
(S'\x07\xdf\x0b\x04\x16\x0c$\x00\x00\x00'
p2350
tp2351
Rp2352
sg39
(dp2353
g144
Nsg145
I00
sg146
g2311
sg147
I00
sg148
Nsg45
L662029705743323136L
sg149
I0
sg150
V<a href="http://ifttt.com" rel="nofollow">IFTTT</a>
p2354
sg152
I00
sg153
Nsg53
(dp2355
g155
(lp2356
(dp2357
g158
(lp2358
I102
aI107
asg146
VEGAN
p2359
sasg161
(lp2360
sg163
(lp2361
(dp2362
g158
(lp2363
I108
aI113
asg146
VEGAN
p2364
sasg35
(lp2365
(dp2366
g88
Vhttps://t.co/v1opulNoER
p2367
sg158
(lp2368
I78
aI101
asg169
Vhttp://ift.tt/1XQAz0P
p2369
sg171
Vift.tt/1XQAz0P
p2370
sassg173
Nsg174
Nsg175
I0
sg57
V662029705743323136
p2371
sg177
I00
sg178
g2328
sg179
Nsg180
Nsg181
I00
sg81
g2349
sg89
VWed Nov 04 22:12:36 +0000 2015
p2372
sg183
Nsg184
Nsg185
(dp2373
g187
Ven
p2374
sg189
Vrecent
p2375
sssg191
g2373
sg192
Nsg193
Nsg31
g2355
sg194
Nsg195
Nsg101
g2371
sg196
I00
sg197
Nsg198
I0
sg199
Nsbag0
(g4
g5
Ntp2376
Rp2377
(dp2378
g9
I00
sg10
Nsg11
I00
sg12
VeGain Communications EPS in-line, misses on revenue https://t.co/62QVoIz9Ew $EGAN
p2379
sg14
Vhttp://seekingalpha.com
p2380
sg16
I00
sg17
I00
sg18
Nsg19
g0
(g20
g5
Ntp2381
Rp2382
(dp2383
g24
I00
sg25
I00
sg26
I01
sg27
VDDEEF6
p2384
sg29
I207441033
sg30
I00
sg31
(dp2385
g33
(dp2386
g35
(lp2387
sssg37
Vhttps://pbs.twimg.com/profile_images/628450795533414401/xwE4BfP__normal.jpg
p2388
sg39
(dp2389
g41
I00
sg42
I00
sg43
I01
sg44
I00
sg45
I207441033
sg46
Vhttps://abs.twimg.com/images/themes/theme1/bg.png
p2390
sg48
I00
sg49
V333333
p2391
sg51
g2388
sg52
g2384
sg53
g2385
sg54
I135
sg55
VC0DEED
p2392
sg57
V207441033
p2393
sg59
VC0DEED
p2394
sg61
I30
sg62
I01
sg63
I7200
sg64
I30085
sg33
g68
sg66
I1
sg67
g68
sg69
V0084B4
p2395
sg71
Vhttp://pbs.twimg.com/profile_images/628450795533414401/xwE4BfP__normal.jpg
p2396
sg73
I00
sg74
I00
sg75
Vhttps://pbs.twimg.com/profile_banners/207441033/1438669732
p2397
sg77
Vhttp://abs.twimg.com/images/themes/theme1/bg.png
p2398
sg79
VSA_FACTSET
p2399
sg81
Ven
p2400
sg83
I00
sg84
I0
sg85
VSeeking Alpha
p2401
sg87
I00
sg88
Nsg89
VMon Oct 25 10:13:55 +0000 2010
p2402
sg91
I00
sg92
VBucharest
p2403
sg94
I00
sg95
I01
sg96
I00
ssg97
I00
sg98
g2391
sg99
I135
sg100
g2392
sg101
g2393
sg102
I00
sg103
I30
sg104
I01
sg105
I7200
sg106
I30085
sg107
g68
sg108
I1
sg109
g68
sg110
g2395
sg111
g2396
sg112
I00
sg113
I00
sg114
g2394
sg115
g2397
sg116
g2398
sg117
g2399
sg118
g2400
sg119
I00
sg120
I00
sg121
I0
sg122
g2401
sg123
Nsg124
g125
(S'\x07\xda\n\x19\n\r7\x00\x00\x00'
p2404
tp2405
Rp2406
sg129
g2390
sg130
g2403
sg131
I00
sg132
I01
sg133
I00
sbsg134
Nsg29
L662029235297497088L
sg135
I0
sg136
VSeeking Alpha
p2407
sg118
Ven
p2408
sg139
g2382
sg124
g125
(S'\x07\xdf\x0b\x04\x16\n,\x00\x00\x00'
p2409
tp2410
Rp2411
sg39
(dp2412
g144
Nsg145
I00
sg146
g2379
sg147
I00
sg148
Nsg45
L662029235297497088L
sg149
I0
sg150
V<a href="http://seekingalpha.com" rel="nofollow">Seeking Alpha</a>
p2413
sg152
I00
sg153
Nsg53
(dp2414
g155
(lp2415
(dp2416
g158
(lp2417
I76
aI81
asg146
VEGAN
p2418
sasg161
(lp2419
sg163
(lp2420
sg35
(lp2421
(dp2422
g88
Vhttps://t.co/62QVoIz9Ew
p2423
sg158
(lp2424
I52
aI75
asg169
Vhttp://seekingalpha.com/news/2897216-egain-communications-eps-in-line-misses-on-revenue?source=twitter_sa_factset
p2425
sg171
Vseekingalpha.com/news/2897216-e\u2026
p2426
sassg173
Nsg174
Nsg175
I0
sg57
V662029235297497088
p2427
sg177
I00
sg178
g2389
sg179
Nsg180
Nsg181
I00
sg81
g2408
sg89
VWed Nov 04 22:10:44 +0000 2015
p2428
sg183
Nsg184
Nsg185
(dp2429
g187
Ven
p2430
sg189
Vrecent
p2431
sssg191
g2429
sg192
Nsg193
Nsg31
g2414
sg194
Nsg195
Nsg101
g2427
sg196
I00
sg197
Nsg198
I0
sg199
Nsbag0
(g4
g5
Ntp2432
Rp2433
(dp2434
g9
I00
sg10
Nsg11
I00
sg12
VeGain Communications EPS in-line, misses on revenue https://t.co/R0NOpD7zBx $EGAN
p2435
sg14
Vhttp://seekingalpha.com
p2436
sg16
I00
sg17
I00
sg18
Nsg19
g0
(g20
g5
Ntp2437
Rp2438
(dp2439
g24
I00
sg25
I00
sg26
I00
sg27
VDDEEF6
p2440
sg29
I201296379
sg30
I00
sg31
(dp2441
g88
(dp2442
g35
(lp2443
(dp2444
g88
Vhttp://t.co/92fdg1URYX
p2445
sg158
(lp2446
I0
aI22
asg169
Vhttp://seekingalpha.com/currents/tech
p2447
sg171
Vseekingalpha.com/currents/tech
p2448
sassg33
(dp2449
g35
(lp2450
(dp2451
g88
Vhttps://t.co/nzLmsIKexy
p2452
sg158
(lp2453
I95
aI118
asg169
Vhttps://twitter.com/SeekingAlpha/following
p2454
sg171
Vtwitter.com/SeekingAlpha/f\u2026
p2455
sasssg37
Vhttps://pbs.twimg.com/profile_images/562221086536785921/0GCwkfuV_normal.png
p2456
sg39
(dp2457
g41
I00
sg42
I00
sg43
I00
sg44
I00
sg45
I201296379
sg46
Vhttps://pbs.twimg.com/profile_background_images/378800000123987065/12db58c4165f5b1230832461011ea368.png
p2458
sg48
I00
sg49
V333333
p2459
sg51
g2456
sg52
g2440
sg53
g2441
sg54
I2949
sg55
VFFFFFF
p2460
sg57
V201296379
p2461
sg59
VC0DEED
p2462
sg61
I149
sg62
I00
sg63
I-18000
sg64
I32712
sg33
VBreaking news and analysis about tech stocks from Seeking Alpha. See all SA Twitter options at https://t.co/nzLmsIKexy
p2463
sg66
I33
sg67
g68
sg69
V360000
p2464
sg71
Vhttp://pbs.twimg.com/profile_images/562221086536785921/0GCwkfuV_normal.png
p2465
sg73
I00
sg74
I00
sg77
Vhttp://pbs.twimg.com/profile_background_images/378800000123987065/12db58c4165f5b1230832461011ea368.png
p2466
sg79
VSAlphaTech
p2467
sg81
Ven
p2468
sg83
I00
sg84
I0
sg85
VTech Stocks
p2469
sg87
I00
sg88
Vhttp://t.co/92fdg1URYX
p2470
sg89
VMon Oct 11 14:58:14 +0000 2010
p2471
sg91
I00
sg92
VEastern Time (US & Canada)
p2472
sg94
I00
sg95
I00
sg96
I00
ssg97
I00
sg98
g2459
sg99
I2949
sg100
g2460
sg101
g2461
sg102
I00
sg103
I149
sg104
I00
sg105
I-18000
sg106
I32712
sg107
g2463
sg108
I33
sg109
g68
sg110
g2464
sg111
g2465
sg112
I00
sg113
I00
sg114
g2462
sg116
g2466
sg117
g2467
sg118
g2468
sg119
I00
sg120
I00
sg121
I0
sg122
g2469
sg123
g2470
sg124
g125
(S'\x07\xda\n\x0b\x0e:\x0e\x00\x00\x00'
p2473
tp2474
Rp2475
sg129
g2458
sg130
g2472
sg131
I00
sg132
I00
sg133
I00
sbsg134
Nsg29
L662029234106269696L
sg135
I0
sg136
VSeeking Alpha
p2476
sg118
Ven
p2477
sg139
g2438
sg124
g125
(S'\x07\xdf\x0b\x04\x16\n+\x00\x00\x00'
p2478
tp2479
Rp2480
sg39
(dp2481
g144
Nsg145
I00
sg146
g2435
sg147
I00
sg148
Nsg45
L662029234106269696L
sg149
I0
sg150
V<a href="http://seekingalpha.com" rel="nofollow">Seeking Alpha</a>
p2482
sg152
I00
sg153
Nsg53
(dp2483
g155
(lp2484
(dp2485
g158
(lp2486
I76
aI81
asg146
VEGAN
p2487
sasg161
(lp2488
sg163
(lp2489
sg35
(lp2490
(dp2491
g88
Vhttps://t.co/R0NOpD7zBx
p2492
sg158
(lp2493
I52
aI75
asg169
Vhttp://seekingalpha.com/news/2897216-egain-communications-eps-in-line-misses-on-revenue?source=twitter_salphatech
p2494
sg171
Vseekingalpha.com/news/2897216-e\u2026
p2495
sassg173
Nsg174
Nsg175
I0
sg57
V662029234106269696
p2496
sg177
I00
sg178
g2457
sg179
Nsg180
Nsg181
I00
sg81
g2477
sg89
VWed Nov 04 22:10:43 +0000 2015
p2497
sg183
Nsg184
Nsg185
(dp2498
g187
Ven
p2499
sg189
Vrecent
p2500
sssg191
g2498
sg192
Nsg193
Nsg31
g2483
sg194
Nsg195
Nsg101
g2496
sg196
I00
sg197
Nsg198
I0
sg199
Nsbag0
(g4
g5
Ntp2501
Rp2502
(dp2503
g9
I00
sg10
Nsg11
I00
sg12
VeGain Communications EPS in-line, misses on revenue https://t.co/7EK0HwKzF7 $EGAN
p2504
sg14
Vhttp://seekingalpha.com
p2505
sg16
I00
sg17
I00
sg18
Nsg19
g0
(g20
g5
Ntp2506
Rp2507
(dp2508
g24
I00
sg25
I00
sg26
I00
sg27
VF3F3F3
p2509
sg29
I15296897
sg30
I00
sg31
(dp2510
g88
(dp2511
g35
(lp2512
(dp2513
g88
Vhttp://t.co/K8mUqhVprF
p2514
sg158
(lp2515
I0
aI22
asg169
Vhttp://seekingalpha.com/news/all
p2516
sg171
Vseekingalpha.com/news/all
p2517
sassg33
(dp2518
g35
(lp2519
(dp2520
g88
Vhttps://t.co/nzLmsIKexy
p2521
sg158
(lp2522
I96
aI119
asg169
Vhttps://twitter.com/SeekingAlpha/following
p2523
sg171
Vtwitter.com/SeekingAlpha/f\u2026
p2524
sasssg37
Vhttps://pbs.twimg.com/profile_images/562235643225309184/BbO5bjbH_normal.png
p2525
sg39
(dp2526
g41
I00
sg42
I00
sg43
I00
sg44
I00
sg45
I15296897
sg46
Vhttps://pbs.twimg.com/profile_background_images/378800000040521500/f26581d4dd97008e0985dcfede25018e.png
p2527
sg48
I00
sg49
V000000
p2528
sg51
g2525
sg52
g2509
sg53
g2510
sg54
I19259
sg55
VFFFFFF
p2529
sg57
V15296897
p2530
sg59
VC0DEED
p2531
sg61
I1035
sg62
I00
sg63
I-10800
sg64
I373319
sg33
VReal-time stock market news from Seeking Alpha. See all options for Seeking Alpha on Twitter at https://t.co/nzLmsIKexy
p2532
sg66
I33
sg67
VNew York
p2533
sg69
V360000
p2534
sg71
Vhttp://pbs.twimg.com/profile_images/562235643225309184/BbO5bjbH_normal.png
p2535
sg73
I00
sg74
I00
sg77
Vhttp://pbs.twimg.com/profile_background_images/378800000040521500/f26581d4dd97008e0985dcfede25018e.png
p2536
sg79
VMarketCurrents
p2537
sg81
Ven
p2538
sg83
I00
sg84
I0
sg85
VBreaking News
p2539
sg87
I00
sg88
Vhttp://t.co/K8mUqhVprF
p2540
sg89
VWed Jul 02 10:38:58 +0000 2008
p2541
sg91
I00
sg92
VSantiago
p2542
sg94
I00
sg95
I00
sg96
I00
ssg97
I00
sg98
g2528
sg99
I19259
sg100
g2529
sg101
g2530
sg102
I00
sg103
I1035
sg104
I00
sg105
I-10800
sg106
I373319
sg107
g2532
sg108
I33
sg109
g2533
sg110
g2534
sg111
g2535
sg112
I00
sg113
I00
sg114
g2531
sg116
g2536
sg117
g2537
sg118
g2538
sg119
I00
sg120
I00
sg121
I0
sg122
g2539
sg123
g2540
sg124
g125
(S'\x07\xd8\x07\x02\n&:\x00\x00\x00'
p2543
tp2544
Rp2545
sg129
g2527
sg130
g2542
sg131
I00
sg132
I00
sg133
I00
sbsg134
Nsg29
L662029232629923841L
sg135
I0
sg136
VSeeking Alpha
p2546
sg118
Ven
p2547
sg139
g2507
sg124
g125
(S'\x07\xdf\x0b\x04\x16\n+\x00\x00\x00'
p2548
tp2549
Rp2550
sg39
(dp2551
g144
Nsg145
I00
sg146
g2504
sg147
I00
sg148
Nsg45
L662029232629923841L
sg149
I0
sg150
V<a href="http://seekingalpha.com" rel="nofollow">Seeking Alpha</a>
p2552
sg152
I00
sg153
Nsg53
(dp2553
g155
(lp2554
(dp2555
g158
(lp2556
I76
aI81
asg146
VEGAN
p2557
sasg161
(lp2558
sg163
(lp2559
sg35
(lp2560
(dp2561
g88
Vhttps://t.co/7EK0HwKzF7
p2562
sg158
(lp2563
I52
aI75
asg169
Vhttp://seekingalpha.com/news/2897216-egain-communications-eps-in-line-misses-on-revenue?source=feed_f
p2564
sg171
Vseekingalpha.com/news/2897216-e\u2026
p2565
sassg173
Nsg174
Nsg175
I0
sg57
V662029232629923841
p2566
sg177
I00
sg178
g2526
sg179
Nsg180
Nsg181
I00
sg81
g2547
sg89
VWed Nov 04 22:10:43 +0000 2015
p2567
sg183
Nsg184
Nsg185
(dp2568
g187
Ven
p2569
sg189
Vrecent
p2570
sssg191
g2568
sg192
Nsg193
Nsg31
g2553
sg194
Nsg195
Nsg101
g2566
sg196
I00
sg197
Nsg198
I0
sg199
Nsbag0
(g4
g5
Ntp2571
Rp2572
(dp2573
g9
I00
sg10
Nsg11
I00
sg12
V$EGAN:\u000a\u000aGameStop Accelerates Digital Customer Service With eGain Cloud \u2026:\u000a\u000ahttps://t.co/tKfMIpHqR9
p2574
sg14
Vhttp://www.stocknewswires.com
p2575
sg16
I00
sg17
I00
sg18
Nsg19
g0
(g20
g5
Ntp2576
Rp2577
(dp2578
g24
I00
sg25
I00
sg26
I01
sg27
VDAECF4
p2579
sg29
L2341445778L
sg30
I00
sg31
(dp2580
g33
(dp2581
g35
(lp2582
sssg37
Vhttps://pbs.twimg.com/profile_images/542238326397227008/UfZ0ulTf_normal.jpeg
p2583
sg39
(dp2584
g41
I00
sg42
I00
sg43
I01
sg44
I00
sg45
L2341445778L
sg46
Vhttps://abs.twimg.com/images/themes/theme2/bg.gif
p2585
sg48
I00
sg49
V663B12
p2586
sg51
g2583
sg52
g2579
sg53
g2580
sg54
I660
sg55
VC6E2EE
p2587
sg57
V2341445778
p2588
sg59
VC6E2EE
p2589
sg61
I107
sg62
I00
sg63
I-14400
sg64
I236872
sg33
VInvest like a fish
p2590
sg66
I9
sg67
VUnited States
p2591
sg69
V1F98C7
p2592
sg71
Vhttp://pbs.twimg.com/profile_images/542238326397227008/UfZ0ulTf_normal.jpeg
p2593
sg73
I00
sg74
I00
sg77
Vhttp://abs.twimg.com/images/themes/theme2/bg.gif
p2594
sg79
VStockNewsWires
p2595
sg81
Ven
p2596
sg83
I00
sg84
I0
sg85
VStockNewsWires
p2597
sg87
I00
sg88
Nsg89
VThu Feb 13 05:31:52 +0000 2014
p2598
sg91
I00
sg92
VAtlantic Time (Canada)
p2599
sg94
I00
sg95
I00
sg96
I00
ssg97
I00
sg98
g2586
sg99
I660
sg100
g2587
sg101
g2588
sg102
I00
sg103
I107
sg104
I00
sg105
I-14400
sg106
I236872
sg107
g2590
sg108
I9
sg109
g2591
sg110
g2592
sg111
g2593
sg112
I00
sg113
I00
sg114
g2589
sg116
g2594
sg117
g2595
sg118
g2596
sg119
I00
sg120
I00
sg121
I0
sg122
g2597
sg123
Nsg124
g125
(S'\x07\xde\x02\r\x05\x1f4\x00\x00\x00'
p2600
tp2601
Rp2602
sg129
g2585
sg130
g2599
sg131
I00
sg132
I00
sg133
I00
sbsg134
Nsg29
L662016811114868736L
sg135
I0
sg136
VStockNewsWires
p2603
sg118
Ven
p2604
sg139
g2577
sg124
g125
(S'\x07\xdf\x0b\x04\x15\x15\x16\x00\x00\x00'
p2605
tp2606
Rp2607
sg39
(dp2608
g144
Nsg145
I00
sg146
V$EGAN:\u000a\u000aGameStop Accelerates Digital Customer Service With eGain Cloud \u2026:\u000a\u000ahttps://t.co/tKfMIpHqR9
p2609
sg147
I00
sg148
Nsg45
L662016811114868736L
sg149
I0
sg150
V<a href="http://www.stocknewswires.com" rel="nofollow">StockNewsWires</a>
p2610
sg152
I00
sg153
Nsg53
(dp2611
g155
(lp2612
(dp2613
g158
(lp2614
I0
aI5
asg146
VEGAN
p2615
sasg161
(lp2616
sg163
(lp2617
sg35
(lp2618
(dp2619
g88
Vhttps://t.co/tKfMIpHqR9
p2620
sg158
(lp2621
I75
aI98
asg169
Vhttp://StockNewsHour.com/egan-gamestop-accelerates-digital-customer-service-with-egain-cloud/
p2622
sg171
VStockNewsHour.com/egan-gamestop-\u2026
p2623
sassg173
Nsg174
Nsg175
I2
sg57
V662016811114868736
p2624
sg177
I00
sg178
g2584
sg179
Nsg180
Nsg181
I00
sg81
g2604
sg89
VWed Nov 04 21:21:22 +0000 2015
p2625
sg183
Nsg184
Nsg185
(dp2626
g187
Ven
p2627
sg189
Vrecent
p2628
sssg191
g2626
sg192
Nsg193
Nsg31
g2611
sg194
Nsg195
Nsg101
g2624
sg196
I00
sg197
Nsg198
I2
sg199
Nsbag0
(g4
g5
Ntp2629
Rp2630
(dp2631
g9
I00
sg10
Nsg11
I00
sg12
V$EGAN:\u000a\u000aNew SEC Filing for EGAN: Form 8-K (No. 0001558370-15-002247):\u000a\u000ahttps://t.co/xUTuwxznOC
p2632
sg14
Vhttp://fnsappbg.blogspot.com/
p2633
sg16
I00
sg17
I00
sg18
Nsg19
g0
(g20
g5
Ntp2634
Rp2635
(dp2636
g24
I00
sg25
I00
sg26
I01
sg27
VDDEEF6
p2637
sg29
L2881595931L
sg30
I00
sg31
(dp2638
g33
(dp2639
g35
(lp2640
sssg37
Vhttps://pbs.twimg.com/profile_images/542392174428434432/PfyzCfya_normal.jpeg
p2641
sg39
(dp2642
g41
I00
sg42
I00
sg43
I01
sg44
I00
sg45
L2881595931L
sg46
Vhttps://abs.twimg.com/images/themes/theme1/bg.png
p2643
sg48
I00
sg49
V333333
p2644
sg51
g2641
sg52
g2637
sg53
g2638
sg54
I593
sg55
VC0DEED
p2645
sg57
V2881595931
p2646
sg59
VC0DEED
p2647
sg61
I90
sg62
I00
sg63
I-18000
sg64
I235203
sg33
g68
sg66
I6
sg67
g68
sg69
V0084B4
p2648
sg71
Vhttp://pbs.twimg.com/profile_images/542392174428434432/PfyzCfya_normal.jpeg
p2649
sg73
I00
sg74
I00
sg77
Vhttp://abs.twimg.com/images/themes/theme1/bg.png
p2650
sg79
VProVesting
p2651
sg81
Ven
p2652
sg83
I00
sg84
I0
sg85
VProVesting
p2653
sg87
I00
sg88
Nsg89
VMon Nov 17 20:15:38 +0000 2014
p2654
sg91
I00
sg92
VEastern Time (US & Canada)
p2655
sg94
I00
sg95
I01
sg96
I00
ssg97
I00
sg98
g2644
sg99
I593
sg100
g2645
sg101
g2646
sg102
I00
sg103
I90
sg104
I00
sg105
I-18000
sg106
I235203
sg107
g68
sg108
I6
sg109
g68
sg110
g2648
sg111
g2649
sg112
I00
sg113
I00
sg114
g2647
sg116
g2650
sg117
g2651
sg118
g2652
sg119
I00
sg120
I00
sg121
I0
sg122
g2653
sg123
Nsg124
g125
(S'\x07\xde\x0b\x11\x14\x0f&\x00\x00\x00'
p2656
tp2657
Rp2658
sg129
g2643
sg130
g2655
sg131
I00
sg132
I01
sg133
I00
sbsg134
Nsg29
L662014240308482048L
sg135
I0
sg136
VFNS_APP
p2659
sg118
Ven
p2660
sg139
g2635
sg124
g125
(S'\x07\xdf\x0b\x04\x15\x0b\t\x00\x00\x00'
p2661
tp2662
Rp2663
sg39
(dp2664
g144
Nsg145
I00
sg146
V$EGAN:\u000a\u000aNew SEC Filing for EGAN: Form 8-K (No. 0001558370-15-002247):\u000a\u000ahttps://t.co/xUTuwxznOC
p2665
sg147
I00
sg148
Nsg45
L662014240308482048L
sg149
I0
sg150
V<a href="http://fnsappbg.blogspot.com/" rel="nofollow">FNS_APP</a>
p2666
sg152
I00
sg153
Nsg53
(dp2667
g155
(lp2668
(dp2669
g158
(lp2670
I0
aI5
asg146
VEGAN
p2671
sasg161
(lp2672
sg163
(lp2673
sg35
(lp2674
(dp2675
g88
Vhttps://t.co/xUTuwxznOC
p2676
sg158
(lp2677
I71
aI94
asg169
Vhttp://StockNewsHour.com/egan-new-sec-filing-for-egan-form-8-k-no-0001558370-15-002247/
p2678
sg171
VStockNewsHour.com/egan-new-sec-f\u2026
p2679
sassg173
Nsg174
Nsg175
I0
sg57
V662014240308482048
p2680
sg177
I00
sg178
g2642
sg179
Nsg180
Nsg181
I00
sg81
g2660
sg89
VWed Nov 04 21:11:09 +0000 2015
p2681
sg183
Nsg184
Nsg185
(dp2682
g187
Ven
p2683
sg189
Vrecent
p2684
sssg191
g2682
sg192
Nsg193
Nsg31
g2667
sg194
Nsg195
Nsg101
g2680
sg196
I00
sg197
Nsg198
I0
sg199
Nsbag0
(g4
g5
Ntp2685
Rp2686
(dp2687
g9
I00
sg10
Nsg11
I00
sg12
VNEW SEC Filing for $EGAN filed a moment ago: https://t.co/c4wkCnzlNa https://t.co/OIPEuITMg0
p2688
sg14
Vhttp://www.newsflowing.com
p2689
sg16
I00
sg17
I00
sg18
Nsg19
g0
(g20
g5
Ntp2690
Rp2691
(dp2692
g24
I00
sg25
I00
sg26
I01
sg27
VF3F3F3
p2693
sg29
L2341446434L
sg30
I00
sg31
(dp2694
g33
(dp2695
g35
(lp2696
sssg37
Vhttps://pbs.twimg.com/profile_images/562323085005565953/2Sazc-dB_normal.jpeg
p2697
sg39
(dp2698
g41
I00
sg42
I00
sg43
I01
sg44
I00
sg45
L2341446434L
sg46
Vhttps://abs.twimg.com/images/themes/theme7/bg.gif
p2699
sg48
I00
sg49
V333333
p2700
sg51
g2697
sg52
g2693
sg53
g2694
sg54
I69
sg55
VDFDFDF
p2701
sg57
V2341446434
p2702
sg59
VEBEBEB
p2703
sg61
I6
sg62
I00
sg63
I-14400
sg64
I26716
sg33
g68
sg66
I0
sg67
g68
sg69
V990000
p2704
sg71
Vhttp://pbs.twimg.com/profile_images/562323085005565953/2Sazc-dB_normal.jpeg
p2705
sg73
I00
sg74
I00
sg77
Vhttp://abs.twimg.com/images/themes/theme7/bg.gif
p2706
sg79
VNewsThatIs
p2707
sg81
Ven
p2708
sg83
I00
sg84
I0
sg85
VSEC Filings Reporter
p2709
sg87
I00
sg88
Nsg89
VThu Feb 13 05:31:19 +0000 2014
p2710
sg91
I00
sg92
VAtlantic Time (Canada)
p2711
sg94
I00
sg95
I00
sg96
I00
ssg97
I00
sg98
g2700
sg99
I69
sg100
g2701
sg101
g2702
sg102
I00
sg103
I6
sg104
I00
sg105
I-14400
sg106
I26716
sg107
g68
sg108
I0
sg109
g68
sg110
g2704
sg111
g2705
sg112
I00
sg113
I00
sg114
g2703
sg116
g2706
sg117
g2707
sg118
g2708
sg119
I00
sg120
I00
sg121
I0
sg122
g2709
sg123
Nsg124
g125
(S'\x07\xde\x02\r\x05\x1f\x13\x00\x00\x00'
p2712
tp2713
Rp2714
sg129
g2699
sg130
g2711
sg131
I00
sg132
I00
sg133
I00
sbsg134
Nsg29
L662014169416376320L
sg135
I0
sg136
VNFIG
p2715
sg118
Ven
p2716
sg139
g2691
sg124
g125
(S'\x07\xdf\x0b\x04\x15\n4\x00\x00\x00'
p2717
tp2718
Rp2719
sg39
(dp2720
g144
Nsg145
I00
sg146
g2688
sg147
I00
sg148
Nsg45
L662014169416376320L
sg149
I0
sg150
V<a href="http://www.newsflowing.com" rel="nofollow">NFIG</a>
p2721
sg152
I00
sg153
Nsg53
(dp2722
g155
(lp2723
(dp2724
g158
(lp2725
I19
aI24
asg146
VEGAN
p2726
sasg161
(lp2727
sg163
(lp2728
sg35
(lp2729
(dp2730
g88
Vhttps://t.co/c4wkCnzlNa
p2731
sg158
(lp2732
I45
aI68
asg169
Vhttp://stocknewsflow.com/1066194_000155837015002247_0001558370-15-002247
p2733
sg171
Vstocknewsflow.com/1066194_000155\u2026
p2734
sasg2119
(lp2735
(dp2736
g169
Vhttp://twitter.com/NewsThatIs/status/662014169416376320/photo/1
p2737
sg171
Vpic.twitter.com/OIPEuITMg0
p2738
sg88
Vhttps://t.co/OIPEuITMg0
p2739
sg2125
Vhttps://pbs.twimg.com/media/CS_yYSfWsAAVMiF.jpg
p2740
sg57
V662014169340882944
p2741
sg2128
(dp2742
g2130
(dp2743
g2132
I4
sg2133
Vfit
p2744
sg2135
I4
ssg2136
(dp2745
g2132
I4
sg2133
Vfit
p2746
sg2135
I4
ssg2139
(dp2747
g2132
I4
sg2133
Vfit
p2748
sg2135
I4
ssg2142
(dp2749
g2132
I4
sg2133
Vcrop
p2750
sg2135
I4
sssg158
(lp2751
I69
aI92
asg2146
Vphoto
p2752
sg45
L662014169340882944L
sg2148
Vhttp://pbs.twimg.com/media/CS_yYSfWsAAVMiF.jpg
p2753
sassg173
Nsg174
Nsg175
I0
sg57
V662014169416376320
p2754
sg177
I00
sg178
g2698
sg179
Nsg180
Nsg181
I00
sg81
g2716
sg89
VWed Nov 04 21:10:52 +0000 2015
p2755
sg183
Nsg184
Nsg185
(dp2756
g187
Ven
p2757
sg189
Vrecent
p2758
sssg191
g2756
sg192
Nsg193
Nsg31
g2722
sg194
Nsg195
Nsg101
g2754
sg196
I00
sg197
Nsg198
I0
sg199
Nsbag0
(g4
g5
Ntp2759
Rp2760
(dp2761
g9
I00
sg10
Nsg11
I00
sg12
V$EGAN: EGAIN Corp filed a form 8-K. https://t.co/HjNPyRuhuI
p2762
sg14
Vhttp://www.jivedata.com/sec
p2763
sg16
I00
sg17
I00
sg18
Nsg19
g0
(g20
g5
Ntp2764
Rp2765
(dp2766
g24
I00
sg25
I00
sg26
I01
sg27
VDDEEF6
p2767
sg29
I898018302
sg30
I00
sg31
(dp2768
g88
(dp2769
g35
(lp2770
(dp2771
g88
Vhttp://t.co/pWCxN8KLo5
p2772
sg158
(lp2773
I0
aI22
asg169
Vhttp://www.jivedata.com
p2774
sg171
Vjivedata.com
p2775
sassg33
(dp2776
g35
(lp2777
sssg37
Vhttps://pbs.twimg.com/profile_images/416320093316841472/YhFYvqmi_normal.png
p2778
sg39
(dp2779
g41
I00
sg42
I00
sg43
I01
sg44
I00
sg45
I898018302
sg46
Vhttps://pbs.twimg.com/profile_background_images/378800000157544683/R6GKx2Ke.png
p2780
sg48
I00
sg49
V333333
p2781
sg51
g2778
sg52
g2767
sg53
g2768
sg54
I87
sg55
VFFFFFF
p2782
sg57
V898018302
p2783
sg59
VFFFFFF
p2784
sg61
I14
sg62
I00
sg63
I-18000
sg64
I56088
sg33
VFinancial. Data. Done. Right. This is a real-time feed of XBRL financial data from 10-K's and 10-Q's
p2785
sg66
I0
sg67
VNew York, NY
p2786
sg69
V0084B4
p2787
sg71
Vhttp://pbs.twimg.com/profile_images/416320093316841472/YhFYvqmi_normal.png
p2788
sg73
I00
sg74
I00
sg77
Vhttp://pbs.twimg.com/profile_background_images/378800000157544683/R6GKx2Ke.png
p2789
sg79
Vsec_filings
p2790
sg81
Ven
p2791
sg83
I00
sg84
I0
sg85
VSec Filings
p2792
sg87
I00
sg88
Vhttp://t.co/pWCxN8KLo5
p2793
sg89
VMon Oct 22 17:25:30 +0000 2012
p2794
sg91
I00
sg92
VEastern Time (US & Canada)
p2795
sg94
I00
sg95
I00
sg96
I00
ssg97
I00
sg98
g2781
sg99
I87
sg100
g2782
sg101
g2783
sg102
I00
sg103
I14
sg104
I00
sg105
I-18000
sg106
I56088
sg107
g2785
sg108
I0
sg109
g2786
sg110
g2787
sg111
g2788
sg112
I00
sg113
I00
sg114
g2784
sg116
g2789
sg117
g2790
sg118
g2791
sg119
I00
sg120
I00
sg121
I0
sg122
g2792
sg123
g2793
sg124
g125
(S'\x07\xdc\n\x16\x11\x19\x1e\x00\x00\x00'
p2796
tp2797
Rp2798
sg129
g2780
sg130
g2795
sg131
I00
sg132
I00
sg133
I00
sbsg134
Nsg29
L662013343423590400L
sg135
I0
sg136
VJive Data SEC Filings
p2799
sg118
Ven
p2800
sg139
g2765
sg124
g125
(S'\x07\xdf\x0b\x04\x15\x07#\x00\x00\x00'
p2801
tp2802
Rp2803
sg39
(dp2804
g144
Nsg145
I00
sg146
g2762
sg147
I00
sg148
Nsg45
L662013343423590400L
sg149
I0
sg150
V<a href="http://www.jivedata.com/sec" rel="nofollow">Jive Data SEC Filings</a>
p2805
sg152
I00
sg153
Nsg53
(dp2806
g155
(lp2807
(dp2808
g158
(lp2809
I0
aI5
asg146
VEGAN
p2810
sasg161
(lp2811
sg163
(lp2812
sg35
(lp2813
(dp2814
g88
Vhttps://t.co/HjNPyRuhuI
p2815
sg158
(lp2816
I36
aI59
asg169
Vhttp://www.jivedata.com/filings/EGAN/
p2817
sg171
Vjivedata.com/filings/EGAN/
p2818
sassg173
Nsg174
Nsg175
I0
sg57
V662013343423590400
p2819
sg177
I00
sg178
g2779
sg179
Nsg180
Nsg181
I00
sg81
g2800
sg89
VWed Nov 04 21:07:35 +0000 2015
p2820
sg183
Nsg184
Nsg185
(dp2821
g187
Ven
p2822
sg189
Vrecent
p2823
sssg191
g2821
sg192
Nsg193
Nsg31
g2806
sg194
Nsg195
Nsg101
g2819
sg196
I00
sg197
Nsg198
I0
sg199
Nsbag0
(g4
g5
Ntp2824
Rp2825
(dp2826
g9
I00
sg10
Nsg11
I00
sg12
V$EGAN ER TODAY After Close. SP were DOWN 8 times out of last 13 qtrs (61%) in ER. https://t.co/Judht8ZSa0
p2827
sg14
Vhttp://www.hootsuite.com
p2828
sg16
I00
sg17
I00
sg18
Nsg19
g0
(g20
g5
Ntp2829
Rp2830
(dp2831
g24
I00
sg25
I00
sg26
I01
sg27
VDDEEF6
p2832
sg29
L2683803193L
sg30
I00
sg31
(dp2833
g88
(dp2834
g35
(lp2835
(dp2836
g88
Vhttp://t.co/TkVoSXCWAo
p2837
sg158
(lp2838
I0
aI22
asg169
Vhttp://StocksEarning.com
p2839
sg171
VStocksEarning.com
p2840
sassg33
(dp2841
g35
(lp2842
sssg37
Vhttps://pbs.twimg.com/profile_images/493963538138804226/wKa0JIgx_normal.jpeg
p2843
sg39
(dp2844
g41
I00
sg42
I00
sg43
I01
sg44
I00
sg45
L2683803193L
sg46
Vhttps://abs.twimg.com/images/themes/theme1/bg.png
p2845
sg48
I00
sg49
V333333
p2846
sg51
g2843
sg52
g2832
sg53
g2833
sg54
I406
sg55
VC0DEED
p2847
sg57
V2683803193
p2848
sg59
VC0DEED
p2849
sg61
I29
sg62
I00
sg63
Nsg64
I38513
sg33
VFinancial services website dedicated to provide the research on Stocks Earnings by using our proprietary indicators. Do your own research. Tweets not advice.
p2850
sg66
I100
sg67
VNew York, NY
p2851
sg69
V0084B4
p2852
sg71
Vhttp://pbs.twimg.com/profile_images/493963538138804226/wKa0JIgx_normal.jpeg
p2853
sg73
I00
sg74
I00
sg77
Vhttp://abs.twimg.com/images/themes/theme1/bg.png
p2854
sg79
VStocksEarnings
p2855
sg81
Ven
p2856
sg83
I00
sg84
I6
sg85
VStockEarnings.com
p2857
sg87
I00
sg88
Vhttp://t.co/TkVoSXCWAo
p2858
sg89
VSun Jul 27 01:23:04 +0000 2014
p2859
sg91
I00
sg92
Nsg94
I00
sg95
I01
sg96
I00
ssg97
I00
sg98
g2846
sg99
I406
sg100
g2847
sg101
g2848
sg102
I00
sg103
I29
sg104
I00
sg105
Nsg106
I38513
sg107
g2850
sg108
I100
sg109
g2851
sg110
g2852
sg111
g2853
sg112
I00
sg113
I00
sg114
g2849
sg116
g2854
sg117
g2855
sg118
g2856
sg119
I00
sg120
I00
sg121
I6
sg122
g2857
sg123
g2858
sg124
g125
(S'\x07\xde\x07\x1b\x01\x17\x04\x00\x00\x00'
p2860
tp2861
Rp2862
sg129
g2845
sg130
Nsg131
I00
sg132
I01
sg133
I00
sbsg134
Nsg29
L661971269043290113L
sg135
I0
sg136
VHootsuite
p2863
sg118
Ven
p2864
sg139
g2830
sg124
g125
(S'\x07\xdf\x0b\x04\x12\x14\x18\x00\x00\x00'
p2865
tp2866
Rp2867
sg39
(dp2868
g144
Nsg145
I00
sg146
g2827
sg147
I00
sg148
Nsg45
L661971269043290113L
sg149
I0
sg150
V<a href="http://www.hootsuite.com" rel="nofollow">Hootsuite</a>
p2869
sg152
I00
sg153
Nsg53
(dp2870
g155
(lp2871
(dp2872
g158
(lp2873
I0
aI5
asg146
VEGAN
p2874
sasg161
(lp2875
sg163
(lp2876
sg35
(lp2877
(dp2878
g88
Vhttps://t.co/Judht8ZSa0
p2879
sg158
(lp2880
I82
aI105
asg169
Vhttp://ow.ly/UfbvM
p2881
sg171
Vow.ly/UfbvM
p2882
sassg173
Nsg174
Nsg175
I0
sg57
V661971269043290113
p2883
sg177
I00
sg178
g2844
sg179
Nsg180
Nsg181
I00
sg81
g2864
sg89
VWed Nov 04 18:20:24 +0000 2015
p2884
sg183
Nsg184
Nsg185
(dp2885
g187
Ven
p2886
sg189
Vrecent
p2887
sssg191
g2885
sg192
Nsg193
Nsg31
g2870
sg194
Nsg195
Nsg101
g2883
sg196
I00
sg197
Nsg198
I0
sg199
Nsbag0
(g4
g5
Ntp2888
Rp2889
(dp2890
g9
I00
sg10
Nsg11
I00
sg12
VWebsite -&gt; https://t.co/w3Zx7ERlRG     $EGAN Reports Wednesday, Consensus Est. Rev: $16.777M, EPS: $-0.12 https://t.co/E5MJiVwj9O
p2891
sg14
Vhttp://www.capitalmarketlabs.com
p2892
sg16
I00
sg17
I00
sg18
Nsg19
g0
(g20
g5
Ntp2893
Rp2894
(dp2895
g24
I00
sg25
I00
sg26
I01
sg27
VDDEEF6
p2896
sg29
L2796938558L
sg30
I00
sg31
(dp2897
g88
(dp2898
g35
(lp2899
(dp2900
g88
Vhttp://t.co/l29UpUXIyx
p2901
sg158
(lp2902
I0
aI22
asg169
Vhttp://CMLviz.com
p2903
sg171
VCMLviz.com
p2904
sassg33
(dp2905
g35
(lp2906
sssg37
Vhttps://pbs.twimg.com/profile_images/641786844405829632/hfZZ4zXJ_normal.png
p2907
sg39
(dp2908
g41
I00
sg42
I00
sg43
I01
sg44
I00
sg45
L2796938558L
sg46
Vhttps://abs.twimg.com/images/themes/theme1/bg.png
p2909
sg48
I00
sg49
V333333
p2910
sg51
g2907
sg52
g2896
sg53
g2897
sg54
I1730
sg55
VC0DEED
p2911
sg57
V2796938558
p2912
sg59
VC0DEED
p2913
sg61
I72
sg62
I00
sg63
I-28800
sg64
I196904
sg33
VThis is the #CML visual DATA FEED, providing trends minute-by-minute. This account tweets a lot! The official account is @capitalmktlabs and @ophirgottlieb
p2914
sg66
I16
sg67
VLos Angeles
p2915
sg69
V0084B4
p2916
sg71
Vhttp://pbs.twimg.com/profile_images/641786844405829632/hfZZ4zXJ_normal.png
p2917
sg73
I00
sg74
I00
sg75
Vhttps://pbs.twimg.com/profile_banners/2796938558/1441848711
p2918
sg77
Vhttp://abs.twimg.com/images/themes/theme1/bg.png
p2919
sg79
VCMLviz
p2920
sg81
Ven
p2921
sg83
I00
sg84
I585
sg85
VCapital Market Labs
p2922
sg87
I00
sg88
Vhttp://t.co/l29UpUXIyx
p2923
sg89
VMon Sep 08 00:42:45 +0000 2014
p2924
sg91
I00
sg92
VTijuana
p2925
sg94
I00
sg95
I01
sg96
I00
ssg97
I00
sg98
g2910
sg99
I1730
sg100
g2911
sg101
g2912
sg102
I00
sg103
I72
sg104
I00
sg105
I-28800
sg106
I196904
sg107
g2914
sg108
I16
sg109
g2915
sg110
g2916
sg111
g2917
sg112
I00
sg113
I00
sg114
g2913
sg115
g2918
sg116
g2919
sg117
g2920
sg118
g2921
sg119
I00
sg120
I00
sg121
I585
sg122
g2922
sg123
g2923
sg124
g125
(S'\x07\xde\t\x08\x00*-\x00\x00\x00'
p2926
tp2927
Rp2928
sg129
g2909
sg130
g2925
sg131
I00
sg132
I01
sg133
I00
sbsg134
Nsg29
L661867171249717249L
sg135
I0
sg136
VCML_VisualFeed
p2929
sg118
Ven
p2930
sg139
g2894
sg124
g125
(S'\x07\xdf\x0b\x04\x0b\x1a-\x00\x00\x00'
p2931
tp2932
Rp2933
sg39
(dp2934
g144
Nsg145
I00
sg146
g2891
sg147
I00
sg148
Nsg45
L661867171249717249L
sg149
I0
sg150
V<a href="http://www.capitalmarketlabs.com" rel="nofollow">CML_VisualFeed</a>
p2935
sg152
I00
sg153
Nsg53
(dp2936
g155
(lp2937
(dp2938
g158
(lp2939
I42
aI47
asg146
VEGAN
p2940
sasg161
(lp2941
sg163
(lp2942
sg35
(lp2943
(dp2944
g88
Vhttps://t.co/w3Zx7ERlRG
p2945
sg158
(lp2946
I14
aI37
asg169
Vhttp://bit.ly/1McdG5n
p2947
sg171
Vbit.ly/1McdG5n
p2948
sasg2119
(lp2949
(dp2950
g169
Vhttp://twitter.com/CMLviz/status/661867171249717249/photo/1
p2951
sg171
Vpic.twitter.com/E5MJiVwj9O
p2952
sg88
Vhttps://t.co/E5MJiVwj9O
p2953
sg2125
Vhttps://pbs.twimg.com/media/CS9srlWU8AEYE9z.png
p2954
sg57
V661867166262685697
p2955
sg2128
(dp2956
g2130
(dp2957
g2132
I505
sg2133
Vfit
p2958
sg2135
I790
ssg2136
(dp2959
g2132
I217
sg2133
Vfit
p2960
sg2135
I340
ssg2139
(dp2961
g2132
I383
sg2133
Vfit
p2962
sg2135
I600
ssg2142
(dp2963
g2132
I150
sg2133
Vcrop
p2964
sg2135
I150
sssg158
(lp2965
I109
aI132
asg2146
Vphoto
p2966
sg45
L661867166262685697L
sg2148
Vhttp://pbs.twimg.com/media/CS9srlWU8AEYE9z.png
p2967
sassg173
Nsg174
Nsg175
I0
sg57
V661867171249717249
p2968
sg177
I00
sg178
g2908
sg179
Nsg180
Nsg181
I00
sg81
g2930
sg89
VWed Nov 04 11:26:45 +0000 2015
p2969
sg183
Nsg184
Nsg185
(dp2970
g187
Ven
p2971
sg189
Vrecent
p2972
sssg191
g2970
sg192
Nsg193
Nsg31
g2936
sg194
Nsg195
Nsg101
g2968
sg196
I00
sg197
Nsg198
I0
sg199
Nsbag0
(g4
g5
Ntp2973
Rp2974
(dp2975
g9
I00
sg10
Nsg11
I00
sg12
V$DML.TO $DETNOR.OL $DXCM $DSCO $DORO.ST $DCO $DPM.TO $DXPE $DYN $EGAN $EGLT $EE $ELPL4.SA $EBIO $RDEN $EMES $ENBL $EFX.TO $EFOI $ETE $ETP
p2976
sg14
Vhttps://twitter.com/USEarningsCal
p2977
sg17
I00
sg18
Nsg19
g0
(g20
g5
Ntp2978
Rp2979
(dp2980
g24
I00
sg25
I01
sg26
I00
sg27
V000000
p2981
sg29
L3272603407L
sg30
I00
sg31
(dp2982
g33
(dp2983
g35
(lp2984
sssg37
Vhttps://pbs.twimg.com/profile_images/621905731336323072/M63p67Ym_normal.jpg
p2985
sg39
(dp2986
g41
I00
sg42
I01
sg43
I00
sg44
I00
sg45
L3272603407L
sg46
Vhttps://abs.twimg.com/images/themes/theme1/bg.png
p2987
sg48
I00
sg49
V000000
p2988
sg51
g2985
sg52
g2981
sg53
g2982
sg54
I20
sg55
V000000
p2989
sg57
V3272603407
p2990
sg59
V000000
p2991
sg61
I4
sg62
I00
sg63
Nsg64
I436
sg33
VU.S. Earnings
p2992
sg66
I2
sg67
VUnited States
p2993
sg69
V4A913C
p2994
sg71
Vhttp://pbs.twimg.com/profile_images/621905731336323072/M63p67Ym_normal.jpg
p2995
sg73
I00
sg74
I00
sg75
Vhttps://pbs.twimg.com/profile_banners/3272603407/1437108798
p2996
sg77
Vhttp://abs.twimg.com/images/themes/theme1/bg.png
p2997
sg79
VUSEarningsCal
p2998
sg81
Ven
p2999
sg83
I00
sg84
I0
sg85
VUS Earnings Calendar
p3000
sg87
I00
sg88
Nsg89
VThu Jul 09 04:45:59 +0000 2015
p3001
sg91
I00
sg92
Nsg94
I00
sg95
I00
sg96
I00
ssg97
I00
sg98
g2988
sg99
I20
sg100
g2989
sg101
g2990
sg102
I00
sg103
I4
sg104
I00
sg105
Nsg106
I436
sg107
g2992
sg108
I2
sg109
g2993
sg110
g2994
sg111
g2995
sg112
I00
sg113
I00
sg114
g2991
sg115
g2996
sg116
g2997
sg117
g2998
sg118
g2999
sg119
I00
sg120
I00
sg121
I0
sg122
g3000
sg123
Nsg124
g125
(S'\x07\xdf\x07\t\x04-;\x00\x00\x00'
p3002
tp3003
Rp3004
sg129
g2987
sg130
Nsg131
I00
sg132
I00
sg133
I00
sbsg134
Nsg29
L661709460289662976L
sg135
I0
sg136
VUS Earnings Cal
p3005
sg118
Vund
p3006
sg139
g2979
sg124
g125
(S'\x07\xdf\x0b\x04\x01\x00\x03\x00\x00\x00'
p3007
tp3008
Rp3009
sg39
(dp3010
g144
Nsg145
I00
sg146
g2976
sg147
I00
sg148
Nsg45
L661709460289662976L
sg149
I0
sg150
V<a href="https://twitter.com/USEarningsCal" rel="nofollow">US Earnings Cal</a>
p3011
sg152
I00
sg153
Nsg53
(dp3012
g155
(lp3013
(dp3014
g158
(lp3015
I0
aI7
asg146
VDML.TO
p3016
sa(dp3017
g158
(lp3018
I8
aI18
asg146
VDETNOR.OL
p3019
sa(dp3020
g158
(lp3021
I19
aI24
asg146
VDXCM
p3022
sa(dp3023
g158
(lp3024
I25
aI30
asg146
VDSCO
p3025
sa(dp3026
g158
(lp3027
I31
aI39
asg146
VDORO.ST
p3028
sa(dp3029
g158
(lp3030
I40
aI44
asg146
VDCO
p3031
sa(dp3032
g158
(lp3033
I45
aI52
asg146
VDPM.TO
p3034
sa(dp3035
g158
(lp3036
I53
aI58
asg146
VDXPE
p3037
sa(dp3038
g158
(lp3039
I59
aI63
asg146
VDYN
p3040
sa(dp3041
g158
(lp3042
I64
aI69
asg146
VEGAN
p3043
sa(dp3044
g158
(lp3045
I70
aI75
asg146
VEGLT
p3046
sa(dp3047
g158
(lp3048
I76
aI79
asg146
VEE
p3049
sa(dp3050
g158
(lp3051
I90
aI95
asg146
VEBIO
p3052
sa(dp3053
g158
(lp3054
I96
aI101
asg146
VRDEN
p3055
sa(dp3056
g158
(lp3057
I102
aI107
asg146
VEMES
p3058
sa(dp3059
g158
(lp3060
I108
aI113
asg146
VENBL
p3061
sa(dp3062
g158
(lp3063
I114
aI121
asg146
VEFX.TO
p3064
sa(dp3065
g158
(lp3066
I122
aI127
asg146
VEFOI
p3067
sa(dp3068
g158
(lp3069
I128
aI132
asg146
VETE
p3070
sa(dp3071
g158
(lp3072
I133
aI137
asg146
VETP
p3073
sasg161
(lp3074
sg163
(lp3075
sg35
(lp3076
ssg173
Nsg174
Nsg175
I0
sg57
V661709460289662976
p3077
sg177
I00
sg178
g2986
sg179
Nsg180
Nsg81
g3006
sg89
VWed Nov 04 01:00:03 +0000 2015
p3078
sg183
Nsg184
Nsg185
(dp3079
g187
Vund
p3080
sg189
Vrecent
p3081
sssg191
g3079
sg192
Nsg193
Nsg31
g3012
sg194
Nsg195
Nsg101
g3077
sg196
I00
sg197
Nsg198
I0
sg199
Nsbag0
(g4
g5
Ntp3082
Rp3083
(dp3084
g9
I00
sg10
Nsg11
I00
sg12
V$EGAN ER on 11/4 After Close. SP were DOWN 8 times out of last 13 qtrs (61%) in ER. https://t.co/cTw8oCjpmx
p3085
sg14
Vhttp://www.hootsuite.com
p3086
sg16
I00
sg17
I00
sg18
Nsg19
g0
(g20
g5
Ntp3087
Rp3088
(dp3089
g24
I00
sg25
I00
sg26
I01
sg27
VDDEEF6
p3090
sg29
L2683803193L
sg30
I00
sg31
(dp3091
g88
(dp3092
g35
(lp3093
(dp3094
g88
Vhttp://t.co/TkVoSXCWAo
p3095
sg158
(lp3096
I0
aI22
asg169
Vhttp://StocksEarning.com
p3097
sg171
VStocksEarning.com
p3098
sassg33
(dp3099
g35
(lp3100
sssg37
Vhttps://pbs.twimg.com/profile_images/493963538138804226/wKa0JIgx_normal.jpeg
p3101
sg39
(dp3102
g41
I00
sg42
I00
sg43
I01
sg44
I00
sg45
L2683803193L
sg46
Vhttps://abs.twimg.com/images/themes/theme1/bg.png
p3103
sg48
I00
sg49
V333333
p3104
sg51
g3101
sg52
g3090
sg53
g3091
sg54
I406
sg55
VC0DEED
p3105
sg57
V2683803193
p3106
sg59
VC0DEED
p3107
sg61
I29
sg62
I00
sg63
Nsg64
I38513
sg33
VFinancial services website dedicated to provide the research on Stocks Earnings by using our proprietary indicators. Do your own research. Tweets not advice.
p3108
sg66
I100
sg67
VNew York, NY
p3109
sg69
V0084B4
p3110
sg71
Vhttp://pbs.twimg.com/profile_images/493963538138804226/wKa0JIgx_normal.jpeg
p3111
sg73
I00
sg74
I00
sg77
Vhttp://abs.twimg.com/images/themes/theme1/bg.png
p3112
sg79
VStocksEarnings
p3113
sg81
Ven
p3114
sg83
I00
sg84
I6
sg85
VStockEarnings.com
p3115
sg87
I00
sg88
Vhttp://t.co/TkVoSXCWAo
p3116
sg89
VSun Jul 27 01:23:04 +0000 2014
p3117
sg91
I00
sg92
Nsg94
I00
sg95
I01
sg96
I00
ssg97
I00
sg98
g3104
sg99
I406
sg100
g3105
sg101
g3106
sg102
I00
sg103
I29
sg104
I00
sg105
Nsg106
I38513
sg107
g3108
sg108
I100
sg109
g3109
sg110
g3110
sg111
g3111
sg112
I00
sg113
I00
sg114
g3107
sg116
g3112
sg117
g3113
sg118
g3114
sg119
I00
sg120
I00
sg121
I6
sg122
g3115
sg123
g3116
sg124
g125
(S'\x07\xde\x07\x1b\x01\x17\x04\x00\x00\x00'
p3118
tp3119
Rp3120
sg129
g3103
sg130
Nsg131
I00
sg132
I01
sg133
I00
sbsg134
Nsg29
L661559926188298240L
sg135
I0
sg136
VHootsuite
p3121
sg118
Ven
p3122
sg139
g3088
sg124
g125
(S'\x07\xdf\x0b\x03\x0f\x054\x00\x00\x00'
p3123
tp3124
Rp3125
sg39
(dp3126
g144
Nsg145
I00
sg146
g3085
sg147
I00
sg148
Nsg45
L661559926188298240L
sg149
I0
sg150
V<a href="http://www.hootsuite.com" rel="nofollow">Hootsuite</a>
p3127
sg152
I00
sg153
Nsg53
(dp3128
g155
(lp3129
(dp3130
g158
(lp3131
I0
aI5
asg146
VEGAN
p3132
sasg161
(lp3133
sg163
(lp3134
sg35
(lp3135
(dp3136
g88
Vhttps://t.co/cTw8oCjpmx
p3137
sg158
(lp3138
I84
aI107
asg169
Vhttp://ow.ly/Uawx3
p3139
sg171
Vow.ly/Uawx3
p3140
sassg173
Nsg174
Nsg175
I0
sg57
V661559926188298240
p3141
sg177
I00
sg178
g3102
sg179
Nsg180
Nsg181
I00
sg81
g3122
sg89
VTue Nov 03 15:05:52 +0000 2015
p3142
sg183
Nsg184
Nsg185
(dp3143
g187
Ven
p3144
sg189
Vrecent
p3145
sssg191
g3143
sg192
Nsg193
Nsg31
g3128
sg194
Nsg195
Nsg101
g3141
sg196
I00
sg197
Nsg198
I0
sg199
Nsbag0
(g4
g5
Ntp3146
Rp3147
(dp3148
g9
I00
sg10
Nsg11
I00
sg12
VWebsite -&gt; https://t.co/w3Zx7ERlRG     $EGAN Reports Wednesday, Consensus Est. Rev: $16.777M, EPS: $-0.12 https://t.co/mgMQv15lzk
p3149
sg14
Vhttp://www.capitalmarketlabs.com
p3150
sg16
I00
sg17
I00
sg18
Nsg19
g0
(g20
g5
Ntp3151
Rp3152
(dp3153
g24
I00
sg25
I00
sg26
I01
sg27
VDDEEF6
p3154
sg29
L2796938558L
sg30
I00
sg31
(dp3155
g88
(dp3156
g35
(lp3157
(dp3158
g88
Vhttp://t.co/l29UpUXIyx
p3159
sg158
(lp3160
I0
aI22
asg169
Vhttp://CMLviz.com
p3161
sg171
VCMLviz.com
p3162
sassg33
(dp3163
g35
(lp3164
sssg37
Vhttps://pbs.twimg.com/profile_images/641786844405829632/hfZZ4zXJ_normal.png
p3165
sg39
(dp3166
g41
I00
sg42
I00
sg43
I01
sg44
I00
sg45
L2796938558L
sg46
Vhttps://abs.twimg.com/images/themes/theme1/bg.png
p3167
sg48
I00
sg49
V333333
p3168
sg51
g3165
sg52
g3154
sg53
g3155
sg54
I1730
sg55
VC0DEED
p3169
sg57
V2796938558
p3170
sg59
VC0DEED
p3171
sg61
I72
sg62
I00
sg63
I-28800
sg64
I196904
sg33
VThis is the #CML visual DATA FEED, providing trends minute-by-minute. This account tweets a lot! The official account is @capitalmktlabs and @ophirgottlieb
p3172
sg66
I16
sg67
VLos Angeles
p3173
sg69
V0084B4
p3174
sg71
Vhttp://pbs.twimg.com/profile_images/641786844405829632/hfZZ4zXJ_normal.png
p3175
sg73
I00
sg74
I00
sg75
Vhttps://pbs.twimg.com/profile_banners/2796938558/1441848711
p3176
sg77
Vhttp://abs.twimg.com/images/themes/theme1/bg.png
p3177
sg79
VCMLviz
p3178
sg81
Ven
p3179
sg83
I00
sg84
I585
sg85
VCapital Market Labs
p3180
sg87
I00
sg88
Vhttp://t.co/l29UpUXIyx
p3181
sg89
VMon Sep 08 00:42:45 +0000 2014
p3182
sg91
I00
sg92
VTijuana
p3183
sg94
I00
sg95
I01
sg96
I00
ssg97
I00
sg98
g3168
sg99
I1730
sg100
g3169
sg101
g3170
sg102
I00
sg103
I72
sg104
I00
sg105
I-28800
sg106
I196904
sg107
g3172
sg108
I16
sg109
g3173
sg110
g3174
sg111
g3175
sg112
I00
sg113
I00
sg114
g3171
sg115
g3176
sg116
g3177
sg117
g3178
sg118
g3179
sg119
I00
sg120
I00
sg121
I585
sg122
g3180
sg123
g3181
sg124
g125
(S'\x07\xde\t\x08\x00*-\x00\x00\x00'
p3184
tp3185
Rp3186
sg129
g3167
sg130
g3183
sg131
I00
sg132
I01
sg133
I00
sbsg134
Nsg29
L661529996641480704L
sg135
I0
sg136
VCML_VisualFeed
p3187
sg118
Ven
p3188
sg139
g3152
sg124
g125
(S'\x07\xdf\x0b\x03\r\x068\x00\x00\x00'
p3189
tp3190
Rp3191
sg39
(dp3192
g144
Nsg145
I00
sg146
g3149
sg147
I00
sg148
Nsg45
L661529996641480704L
sg149
I0
sg150
V<a href="http://www.capitalmarketlabs.com" rel="nofollow">CML_VisualFeed</a>
p3193
sg152
I00
sg153
Nsg53
(dp3194
g155
(lp3195
(dp3196
g158
(lp3197
I42
aI47
asg146
VEGAN
p3198
sasg161
(lp3199
sg163
(lp3200
sg35
(lp3201
(dp3202
g88
Vhttps://t.co/w3Zx7ERlRG
p3203
sg158
(lp3204
I14
aI37
asg169
Vhttp://bit.ly/1McdG5n
p3205
sg171
Vbit.ly/1McdG5n
p3206
sasg2119
(lp3207
(dp3208
g169
Vhttp://twitter.com/CMLviz/status/661529996641480704/photo/1
p3209
sg171
Vpic.twitter.com/mgMQv15lzk
p3210
sg88
Vhttps://t.co/mgMQv15lzk
p3211
sg2125
Vhttps://pbs.twimg.com/media/CS46BsoVEAEye5T.png
p3212
sg57
V661529996104634369
p3213
sg2128
(dp3214
g2136
(dp3215
g2132
I227
sg2133
Vfit
p3216
sg2135
I340
ssg2130
(dp3217
g2132
I528
sg2133
Vfit
p3218
sg2135
I790
ssg2139
(dp3219
g2132
I401
sg2133
Vfit
p3220
sg2135
I600
ssg2142
(dp3221
g2132
I150
sg2133
Vcrop
p3222
sg2135
I150
sssg158
(lp3223
I109
aI132
asg2146
Vphoto
p3224
sg45
L661529996104634369L
sg2148
Vhttp://pbs.twimg.com/media/CS46BsoVEAEye5T.png
p3225
sassg173
Nsg174
Nsg175
I0
sg57
V661529996641480704
p3226
sg177
I00
sg178
g3166
sg179
Nsg180
Nsg181
I00
sg81
g3188
sg89
VTue Nov 03 13:06:56 +0000 2015
p3227
sg183
Nsg184
Nsg185
(dp3228
g187
Ven
p3229
sg189
Vrecent
p3230
sssg191
g3228
sg192
Nsg193
Nsg31
g3194
sg194
Nsg195
Nsg101
g3226
sg196
I00
sg197
Nsg198
I0
sg199
Nsbatp3231
Rp3232
(dp3233
S'count'
p3234
I100
sS'completed_in'
p3235
F0.035
sS'_since_id'
p3236
NsS'refresh_url'
p3237
V?since_id=664218836950908929&q=%24EGAN&include_entities=1
p3238
sS'query'
p3239
V%24EGAN
p3240
sS'_max_id'
p3241
NsS'next_results'
p3242
Nsb.