ccopy_reg
_reconstructor
p0
(ctweepy.models
SearchResults
p1
c__builtin__
list
p2
(lp3
g0
(ctweepy.models
Status
p4
c__builtin__
object
p5
Ntp6
Rp7
(dp8
S'favorited'
p9
I00
sS'contributors'
p10
NsS'truncated'
p11
I00
sS'text'
p12
VRT @theflynews: On The Fly: After Hours Movers   $HCKT $ALRM $ARNA $OPWR $INGN $ANFI $EVDY $BOOT $JUNO $DOX $EXLS: Full Story https://t.co/\u2026
p13
sS'source_url'
p14
Vhttp://twitter.com
p15
sS'possibly_sensitive'
p16
I00
sS'is_quote_status'
p17
I00
sS'in_reply_to_status_id'
p18
NsS'user'
p19
g0
(ctweepy.models
User
p20
g5
Ntp21
Rp22
(dp23
S'follow_request_sent'
p24
I00
sS'has_extended_profile'
p25
I00
sS'profile_use_background_image'
p26
I01
sS'profile_sidebar_fill_color'
p27
VDDEEF6
p28
sS'id'
p29
I712602271
sS'verified'
p30
I00
sS'entities'
p31
(dp32
Vdescription
p33
(dp34
Vurls
p35
(lp36
sssS'profile_image_url_https'
p37
Vhttps://pbs.twimg.com/profile_images/2425703033/74jfzrgini8jtwt9z32r_normal.gif
p38
sS'_json'
p39
(dp40
Vfollow_request_sent
p41
I00
sVhas_extended_profile
p42
I00
sVprofile_use_background_image
p43
I01
sVdefault_profile_image
p44
I00
sVid
p45
I712602271
sVprofile_background_image_url_https
p46
Vhttps://abs.twimg.com/images/themes/theme1/bg.png
p47
sVverified
p48
I00
sVprofile_text_color
p49
V333333
p50
sVprofile_image_url_https
p51
g38
sVprofile_sidebar_fill_color
p52
g28
sVentities
p53
g32
sVfollowers_count
p54
I9241
sVprofile_sidebar_border_color
p55
VC0DEED
p56
sVid_str
p57
V712602271
p58
sVprofile_background_color
p59
VC0DEED
p60
sVlisted_count
p61
I56
sVis_translation_enabled
p62
I00
sVutc_offset
p63
I-28800
sVstatuses_count
p64
I13346
sg33
VMatching wits with everyone i meet.
p65
sVfriends_count
p66
I2456
sVlocation
p67
V
p68
sVprofile_link_color
p69
V0084B4
p70
sVprofile_image_url
p71
Vhttp://pbs.twimg.com/profile_images/2425703033/74jfzrgini8jtwt9z32r_normal.gif
p72
sVfollowing
p73
I00
sVgeo_enabled
p74
I00
sVprofile_background_image_url
p75
Vhttp://abs.twimg.com/images/themes/theme1/bg.png
p76
sVscreen_name
p77
VBasic7Cary
p78
sVlang
p79
Ven
p80
sVprofile_background_tile
p81
I00
sVfavourites_count
p82
I0
sVname
p83
VCary
p84
sVnotifications
p85
I00
sVurl
p86
NsVcreated_at
p87
VMon Jul 23 15:28:06 +0000 2012
p88
sVcontributors_enabled
p89
I00
sVtime_zone
p90
VPacific Time (US & Canada)
p91
sVprotected
p92
I00
sVdefault_profile
p93
I01
sVis_translator
p94
I00
ssS'contributors_enabled'
p95
I00
sS'profile_text_color'
p96
g50
sS'followers_count'
p97
I9241
sS'profile_sidebar_border_color'
p98
g56
sS'id_str'
p99
g58
sS'default_profile_image'
p100
I00
sS'listed_count'
p101
I56
sS'is_translation_enabled'
p102
I00
sS'utc_offset'
p103
I-28800
sS'statuses_count'
p104
I13346
sS'description'
p105
g65
sS'friends_count'
p106
I2456
sS'location'
p107
g68
sS'profile_link_color'
p108
g70
sS'profile_image_url'
p109
g72
sS'notifications'
p110
I00
sS'geo_enabled'
p111
I00
sS'profile_background_color'
p112
g60
sS'profile_background_image_url'
p113
g76
sS'screen_name'
p114
g78
sS'lang'
p115
g80
sS'following'
p116
I00
sS'profile_background_tile'
p117
I00
sS'favourites_count'
p118
I0
sS'name'
p119
g84
sS'url'
p120
NsS'created_at'
p121
cdatetime
datetime
p122
(S'\x07\xdc\x07\x17\x0f\x1c\x06\x00\x00\x00'
p123
tp124
Rp125
sS'profile_background_image_url_https'
p126
g47
sS'time_zone'
p127
g91
sS'protected'
p128
I00
sS'default_profile'
p129
I01
sS'is_translator'
p130
I00
sbsS'geo'
p131
Nsg29
L664239367959932928L
sS'favorite_count'
p132
I0
sS'source'
p133
VTwitter Web Client
p134
sg115
Ven
p135
sS'retweeted_status'
p136
g0
(g4
g5
Ntp137
Rp138
(dp139
g9
I00
sg10
Nsg11
I00
sg12
VOn The Fly: After Hours Movers   $HCKT $ALRM $ARNA $OPWR $INGN $ANFI $EVDY $BOOT $JUNO $DOX $EXLS: Full Story https://t.co/U2toxHUKlM
p140
sg14
Vhttp://twitterfeed.com
p141
sg16
I00
sg17
I00
sg18
Nsg19
g0
(g20
g5
Ntp142
Rp143
(dp144
g24
I00
sg25
I00
sg26
I00
sg27
VDDEEF6
p145
sg29
I166597717
sg30
I00
sg31
(dp146
g86
(dp147
g35
(lp148
(dp149
g86
Vhttp://t.co/453xIP53r9
p150
sVindices
p151
(lp152
I0
aI22
asVexpanded_url
p153
Vhttp://www.thefly.com
p154
sVdisplay_url
p155
Vthefly.com
p156
sassg33
(dp157
g35
(lp158
sssg37
Vhttps://pbs.twimg.com/profile_images/576038265762926594/FP6rEIuE_normal.png
p159
sg39
(dp160
g41
I00
sg42
I00
sg43
I00
sg44
I00
sg45
I166597717
sg46
Vhttps://abs.twimg.com/images/themes/theme1/bg.png
p161
sg48
I00
sg49
V333333
p162
sg51
g159
sg52
g145
sg53
g146
sg54
I11143
sg55
VFFFFFF
p163
sg57
V166597717
p164
sg59
V254B82
p165
sg61
I457
sg62
I00
sg63
I-18000
sg64
I55349
sg33
VFirst In Stock News
p166
sg66
I128
sg67
g68
sg69
V254B82
p167
sg71
Vhttp://pbs.twimg.com/profile_images/576038265762926594/FP6rEIuE_normal.png
p168
sg73
I00
sg74
I00
sg75
Vhttp://abs.twimg.com/images/themes/theme1/bg.png
p169
sg77
Vtheflynews
p170
sg79
Ven
p171
sg81
I00
sg82
I9
sg83
VThe Fly
p172
sg85
I00
sg86
Vhttp://t.co/453xIP53r9
p173
sg87
VWed Jul 14 15:10:34 +0000 2010
p174
sg89
I00
sg90
VEastern Time (US & Canada)
p175
sg92
I00
sg93
I00
sg94
I00
ssg95
I00
sg96
g162
sg97
I11143
sg98
g163
sg99
g164
sg100
I00
sg101
I457
sg102
I00
sg103
I-18000
sg104
I55349
sg105
g166
sg106
I128
sg107
g68
sg108
g167
sg109
g168
sg110
I00
sg111
I00
sg112
g165
sg113
g169
sg114
g170
sg115
g171
sg116
I00
sg117
I00
sg118
I9
sg119
g172
sg120
g173
sg121
g122
(S'\x07\xda\x07\x0e\x0f\n"\x00\x00\x00'
p176
tp177
Rp178
sg126
g161
sg127
g175
sg128
I00
sg129
I00
sg130
I00
sbsg131
Nsg29
L664234810861203456L
sg132
I1
sg133
Vtwitterfeed
p179
sg115
Ven
p180
sS'author'
p181
g143
sg121
g122
(S'\x07\xdf\x0b\x0b\x00\x0e6\x00\x00\x00'
p182
tp183
Rp184
sg39
(dp185
Vcontributors
p186
NsVtruncated
p187
I00
sVtext
p188
g140
sVis_quote_status
p189
I00
sVin_reply_to_status_id
p190
Nsg45
L664234810861203456L
sVfavorite_count
p191
I1
sVsource
p192
V<a href="http://twitterfeed.com" rel="nofollow">twitterfeed</a>
p193
sVretweeted
p194
I00
sVcoordinates
p195
Nsg53
(dp196
Vsymbols
p197
(lp198
(dp199
g151
(lp200
I33
aI38
asg188
VHCKT
p201
sa(dp202
g151
(lp203
I39
aI44
asg188
VALRM
p204
sa(dp205
g151
(lp206
I45
aI50
asg188
VARNA
p207
sa(dp208
g151
(lp209
I51
aI56
asg188
VOPWR
p210
sa(dp211
g151
(lp212
I57
aI62
asg188
VINGN
p213
sa(dp214
g151
(lp215
I63
aI68
asg188
VANFI
p216
sa(dp217
g151
(lp218
I69
aI74
asg188
VEVDY
p219
sa(dp220
g151
(lp221
I75
aI80
asg188
VBOOT
p222
sa(dp223
g151
(lp224
I81
aI86
asg188
VJUNO
p225
sa(dp226
g151
(lp227
I87
aI91
asg188
VDOX
p228
sa(dp229
g151
(lp230
I92
aI97
asg188
VEXLS
p231
sasVuser_mentions
p232
(lp233
sVhashtags
p234
(lp235
sg35
(lp236
(dp237
g86
Vhttps://t.co/U2toxHUKlM
p238
sg151
(lp239
I110
aI133
asg153
Vhttp://bit.ly/1Sh36ZJ
p240
sg155
Vbit.ly/1Sh36ZJ
p241
sassVin_reply_to_screen_name
p242
NsVin_reply_to_user_id
p243
NsVretweet_count
p244
I2
sg57
V664234810861203456
p245
sVfavorited
p246
I00
sVuser
p247
g160
sVgeo
p248
NsVin_reply_to_user_id_str
p249
NsVpossibly_sensitive
p250
I00
sg79
g180
sg87
VWed Nov 11 00:14:54 +0000 2015
p251
sVin_reply_to_status_id_str
p252
NsVplace
p253
NsVmetadata
p254
(dp255
Viso_language_code
p256
Ven
p257
sVresult_type
p258
Vrecent
p259
sssS'metadata'
p260
g255
sS'coordinates'
p261
NsS'in_reply_to_user_id_str'
p262
Nsg31
g196
sS'in_reply_to_status_id_str'
p263
NsS'in_reply_to_screen_name'
p264
Nsg99
g245
sS'retweeted'
p265
I00
sS'place'
p266
NsS'retweet_count'
p267
I2
sS'in_reply_to_user_id'
p268
Nsbsg181
g22
sg121
g122
(S'\x07\xdf\x0b\x0b\x00!\x00\x00\x00\x00'
p269
tp270
Rp271
sg39
(dp272
g186
Nsg187
I00
sg188
g13
sg189
I00
sg190
Nsg45
L664239367959932928L
sg191
I0
sg192
V<a href="http://twitter.com" rel="nofollow">Twitter Web Client</a>
p273
sg194
I00
sg195
Nsg53
(dp274
g197
(lp275
(dp276
g151
(lp277
I49
aI54
asg188
VHCKT
p278
sa(dp279
g151
(lp280
I55
aI60
asg188
VALRM
p281
sa(dp282
g151
(lp283
I61
aI66
asg188
VARNA
p284
sa(dp285
g151
(lp286
I67
aI72
asg188
VOPWR
p287
sa(dp288
g151
(lp289
I73
aI78
asg188
VINGN
p290
sa(dp291
g151
(lp292
I79
aI84
asg188
VANFI
p293
sa(dp294
g151
(lp295
I85
aI90
asg188
VEVDY
p296
sa(dp297
g151
(lp298
I91
aI96
asg188
VBOOT
p299
sa(dp300
g151
(lp301
I97
aI102
asg188
VJUNO
p302
sa(dp303
g151
(lp304
I103
aI107
asg188
VDOX
p305
sa(dp306
g151
(lp307
I108
aI113
asg188
VEXLS
p308
sasg232
(lp309
(dp310
g45
I166597717
sg151
(lp311
I3
aI14
asg57
V166597717
p312
sg77
Vtheflynews
p313
sg83
VThe Fly
p314
sasg234
(lp315
sg35
(lp316
(dp317
g86
Vhttps://t.co/U2toxHUKlM
p318
sg151
(lp319
I126
aI140
asg153
Vhttp://bit.ly/1Sh36ZJ
p320
sg155
Vbit.ly/1Sh36ZJ
p321
sassg242
Nsg243
Nsg244
I2
sg57
V664239367959932928
p322
sg246
I00
sVretweeted_status
p323
g185
sg247
g40
sg248
Nsg249
Nsg250
I00
sg79
g135
sg87
VWed Nov 11 00:33:00 +0000 2015
p324
sg252
Nsg253
Nsg254
(dp325
g256
Ven
p326
sg258
Vrecent
p327
sssg260
g325
sg261
Nsg262
Nsg31
g274
sg263
Nsg264
Nsg99
g322
sg265
I00
sg266
Nsg267
I2
sg268
Nsbag0
(g4
g5
Ntp328
Rp329
(dp330
g9
I00
sg10
Nsg11
I00
sg12
VRT @theflynews: On The Fly: After Hours Movers   $HCKT $ALRM $ARNA $OPWR $INGN $ANFI $EVDY $BOOT $JUNO $DOX $EXLS: Full Story https://t.co/\u2026
p331
sg14
Vhttp://twitter.com/download/android
p332
sg16
I00
sg17
I00
sg18
Nsg19
g0
(g20
g5
Ntp333
Rp334
(dp335
g24
I00
sg25
I00
sg26
I01
sg27
VDDEEF6
p336
sg29
I1329462961
sg30
I00
sg31
(dp337
g33
(dp338
g35
(lp339
sssg37
Vhttps://pbs.twimg.com/profile_images/596475963090849792/MbUlmtiG_normal.jpg
p340
sg39
(dp341
g41
I00
sg42
I00
sg43
I01
sg44
I00
sg45
I1329462961
sg46
Vhttps://abs.twimg.com/images/themes/theme1/bg.png
p342
sg48
I00
sg49
V333333
p343
sg51
g340
sg52
g336
sg53
g337
sg54
I107
sg55
VC0DEED
p344
sg57
V1329462961
p345
sg59
VC0DEED
p346
sg61
I2
sg62
I00
sg63
I-21600
sg64
I1125
sg33
VPatience. Discipline. Risk Management.
p347
sg66
I32
sg67
g68
sg69
V0084B4
p348
sg71
Vhttp://pbs.twimg.com/profile_images/596475963090849792/MbUlmtiG_normal.jpg
p349
sg73
I00
sg74
I00
sVprofile_banner_url
p350
Vhttps://pbs.twimg.com/profile_banners/1329462961/1443830903
p351
sg75
Vhttp://abs.twimg.com/images/themes/theme1/bg.png
p352
sg77
Vtraderego
p353
sg79
Ven
p354
sg81
I00
sg82
I2902
sg83
VErick
p355
sg85
I00
sg86
Nsg87
VFri Apr 05 15:27:59 +0000 2013
p356
sg89
I00
sg90
VCentral Time (US & Canada)
p357
sg92
I00
sg93
I01
sg94
I00
ssg95
I00
sg96
g343
sg97
I107
sg98
g344
sg99
g345
sg100
I00
sg101
I2
sg102
I00
sg103
I-21600
sg104
I1125
sg105
g347
sg106
I32
sg107
g68
sg108
g348
sg109
g349
sg110
I00
sg111
I00
sg112
g346
sS'profile_banner_url'
p358
g351
sg113
g352
sg114
g353
sg115
g354
sg116
I00
sg117
I00
sg118
I2902
sg119
g355
sg120
Nsg121
g122
(S'\x07\xdd\x04\x05\x0f\x1b;\x00\x00\x00'
p359
tp360
Rp361
sg126
g342
sg127
g357
sg128
I00
sg129
I01
sg130
I00
sbsg131
Nsg29
L664239192747065344L
sg132
I0
sg133
VTwitter for Android
p362
sg115
Ven
p363
sg136
g0
(g4
g5
Ntp364
Rp365
(dp366
g9
I00
sg10
Nsg11
I00
sg12
VOn The Fly: After Hours Movers   $HCKT $ALRM $ARNA $OPWR $INGN $ANFI $EVDY $BOOT $JUNO $DOX $EXLS: Full Story https://t.co/U2toxHUKlM
p367
sg14
Vhttp://twitterfeed.com
p368
sg16
I00
sg17
I00
sg18
Nsg19
g0
(g20
g5
Ntp369
Rp370
(dp371
g24
I00
sg25
I00
sg26
I00
sg27
VDDEEF6
p372
sg29
I166597717
sg30
I00
sg31
(dp373
g86
(dp374
g35
(lp375
(dp376
g86
Vhttp://t.co/453xIP53r9
p377
sg151
(lp378
I0
aI22
asg153
Vhttp://www.thefly.com
p379
sg155
Vthefly.com
p380
sassg33
(dp381
g35
(lp382
sssg37
Vhttps://pbs.twimg.com/profile_images/576038265762926594/FP6rEIuE_normal.png
p383
sg39
(dp384
g41
I00
sg42
I00
sg43
I00
sg44
I00
sg45
I166597717
sg46
Vhttps://abs.twimg.com/images/themes/theme1/bg.png
p385
sg48
I00
sg49
V333333
p386
sg51
g383
sg52
g372
sg53
g373
sg54
I11143
sg55
VFFFFFF
p387
sg57
V166597717
p388
sg59
V254B82
p389
sg61
I457
sg62
I00
sg63
I-18000
sg64
I55349
sg33
VFirst In Stock News
p390
sg66
I128
sg67
g68
sg69
V254B82
p391
sg71
Vhttp://pbs.twimg.com/profile_images/576038265762926594/FP6rEIuE_normal.png
p392
sg73
I00
sg74
I00
sg75
Vhttp://abs.twimg.com/images/themes/theme1/bg.png
p393
sg77
Vtheflynews
p394
sg79
Ven
p395
sg81
I00
sg82
I9
sg83
VThe Fly
p396
sg85
I00
sg86
Vhttp://t.co/453xIP53r9
p397
sg87
VWed Jul 14 15:10:34 +0000 2010
p398
sg89
I00
sg90
VEastern Time (US & Canada)
p399
sg92
I00
sg93
I00
sg94
I00
ssg95
I00
sg96
g386
sg97
I11143
sg98
g387
sg99
g388
sg100
I00
sg101
I457
sg102
I00
sg103
I-18000
sg104
I55349
sg105
g390
sg106
I128
sg107
g68
sg108
g391
sg109
g392
sg110
I00
sg111
I00
sg112
g389
sg113
g393
sg114
g394
sg115
g395
sg116
I00
sg117
I00
sg118
I9
sg119
g396
sg120
g397
sg121
g122
(S'\x07\xda\x07\x0e\x0f\n"\x00\x00\x00'
p400
tp401
Rp402
sg126
g385
sg127
g399
sg128
I00
sg129
I00
sg130
I00
sbsg131
Nsg29
L664234810861203456L
sg132
I1
sg133
Vtwitterfeed
p403
sg115
Ven
p404
sg181
g370
sg121
g122
(S'\x07\xdf\x0b\x0b\x00\x0e6\x00\x00\x00'
p405
tp406
Rp407
sg39
(dp408
g186
Nsg187
I00
sg188
g367
sg189
I00
sg190
Nsg45
L664234810861203456L
sg191
I1
sg192
V<a href="http://twitterfeed.com" rel="nofollow">twitterfeed</a>
p409
sg194
I00
sg195
Nsg53
(dp410
g197
(lp411
(dp412
g151
(lp413
I33
aI38
asg188
VHCKT
p414
sa(dp415
g151
(lp416
I39
aI44
asg188
VALRM
p417
sa(dp418
g151
(lp419
I45
aI50
asg188
VARNA
p420
sa(dp421
g151
(lp422
I51
aI56
asg188
VOPWR
p423
sa(dp424
g151
(lp425
I57
aI62
asg188
VINGN
p426
sa(dp427
g151
(lp428
I63
aI68
asg188
VANFI
p429
sa(dp430
g151
(lp431
I69
aI74
asg188
VEVDY
p432
sa(dp433
g151
(lp434
I75
aI80
asg188
VBOOT
p435
sa(dp436
g151
(lp437
I81
aI86
asg188
VJUNO
p438
sa(dp439
g151
(lp440
I87
aI91
asg188
VDOX
p441
sa(dp442
g151
(lp443
I92
aI97
asg188
VEXLS
p444
sasg232
(lp445
sg234
(lp446
sg35
(lp447
(dp448
g86
Vhttps://t.co/U2toxHUKlM
p449
sg151
(lp450
I110
aI133
asg153
Vhttp://bit.ly/1Sh36ZJ
p451
sg155
Vbit.ly/1Sh36ZJ
p452
sassg242
Nsg243
Nsg244
I2
sg57
V664234810861203456
p453
sg246
I00
sg247
g384
sg248
Nsg249
Nsg250
I00
sg79
g404
sg87
VWed Nov 11 00:14:54 +0000 2015
p454
sg252
Nsg253
Nsg254
(dp455
g256
Ven
p456
sg258
Vrecent
p457
sssg260
g455
sg261
Nsg262
Nsg31
g410
sg263
Nsg264
Nsg99
g453
sg265
I00
sg266
Nsg267
I2
sg268
Nsbsg181
g334
sg121
g122
(S'\x07\xdf\x0b\x0b\x00 \x13\x00\x00\x00'
p458
tp459
Rp460
sg39
(dp461
g186
Nsg187
I00
sg188
g331
sg189
I00
sg190
Nsg45
L664239192747065344L
sg191
I0
sg192
V<a href="http://twitter.com/download/android" rel="nofollow">Twitter for Android</a>
p462
sg194
I00
sg195
Nsg53
(dp463
g197
(lp464
(dp465
g151
(lp466
I49
aI54
asg188
VHCKT
p467
sa(dp468
g151
(lp469
I55
aI60
asg188
VALRM
p470
sa(dp471
g151
(lp472
I61
aI66
asg188
VARNA
p473
sa(dp474
g151
(lp475
I67
aI72
asg188
VOPWR
p476
sa(dp477
g151
(lp478
I73
aI78
asg188
VINGN
p479
sa(dp480
g151
(lp481
I79
aI84
asg188
VANFI
p482
sa(dp483
g151
(lp484
I85
aI90
asg188
VEVDY
p485
sa(dp486
g151
(lp487
I91
aI96
asg188
VBOOT
p488
sa(dp489
g151
(lp490
I97
aI102
asg188
VJUNO
p491
sa(dp492
g151
(lp493
I103
aI107
asg188
VDOX
p494
sa(dp495
g151
(lp496
I108
aI113
asg188
VEXLS
p497
sasg232
(lp498
(dp499
g45
I166597717
sg151
(lp500
I3
aI14
asg57
V166597717
p501
sg77
Vtheflynews
p502
sg83
VThe Fly
p503
sasg234
(lp504
sg35
(lp505
(dp506
g86
Vhttps://t.co/U2toxHUKlM
p507
sg151
(lp508
I126
aI140
asg153
Vhttp://bit.ly/1Sh36ZJ
p509
sg155
Vbit.ly/1Sh36ZJ
p510
sassg242
Nsg243
Nsg244
I2
sg57
V664239192747065344
p511
sg246
I00
sg323
g408
sg247
g341
sg248
Nsg249
Nsg250
I00
sg79
g363
sg87
VWed Nov 11 00:32:19 +0000 2015
p512
sg252
Nsg253
Nsg254
(dp513
g256
Ven
p514
sg258
Vrecent
p515
sssg260
g513
sg261
Nsg262
Nsg31
g463
sg263
Nsg264
Nsg99
g511
sg265
I00
sg266
Nsg267
I2
sg268
Nsbag0
(g4
g5
Ntp516
Rp517
(dp518
g9
I00
sg10
Nsg11
I00
sg12
VOn The Fly: After Hours Movers   $HCKT $ALRM $ARNA $OPWR $INGN $ANFI $EVDY $BOOT $JUNO $DOX $EXLS: Full Story https://t.co/U2toxHUKlM
p519
sg14
Vhttp://twitterfeed.com
p520
sg16
I00
sg17
I00
sg18
Nsg19
g0
(g20
g5
Ntp521
Rp522
(dp523
g24
I00
sg25
I00
sg26
I00
sg27
VDDEEF6
p524
sg29
I166597717
sg30
I00
sg31
(dp525
g86
(dp526
g35
(lp527
(dp528
g86
Vhttp://t.co/453xIP53r9
p529
sg151
(lp530
I0
aI22
asg153
Vhttp://www.thefly.com
p531
sg155
Vthefly.com
p532
sassg33
(dp533
g35
(lp534
sssg37
Vhttps://pbs.twimg.com/profile_images/576038265762926594/FP6rEIuE_normal.png
p535
sg39
(dp536
g41
I00
sg42
I00
sg43
I00
sg44
I00
sg45
I166597717
sg46
Vhttps://abs.twimg.com/images/themes/theme1/bg.png
p537
sg48
I00
sg49
V333333
p538
sg51
g535
sg52
g524
sg53
g525
sg54
I11143
sg55
VFFFFFF
p539
sg57
V166597717
p540
sg59
V254B82
p541
sg61
I457
sg62
I00
sg63
I-18000
sg64
I55349
sg33
VFirst In Stock News
p542
sg66
I128
sg67
g68
sg69
V254B82
p543
sg71
Vhttp://pbs.twimg.com/profile_images/576038265762926594/FP6rEIuE_normal.png
p544
sg73
I00
sg74
I00
sg75
Vhttp://abs.twimg.com/images/themes/theme1/bg.png
p545
sg77
Vtheflynews
p546
sg79
Ven
p547
sg81
I00
sg82
I9
sg83
VThe Fly
p548
sg85
I00
sg86
Vhttp://t.co/453xIP53r9
p549
sg87
VWed Jul 14 15:10:34 +0000 2010
p550
sg89
I00
sg90
VEastern Time (US & Canada)
p551
sg92
I00
sg93
I00
sg94
I00
ssg95
I00
sg96
g538
sg97
I11143
sg98
g539
sg99
g540
sg100
I00
sg101
I457
sg102
I00
sg103
I-18000
sg104
I55349
sg105
g542
sg106
I128
sg107
g68
sg108
g543
sg109
g544
sg110
I00
sg111
I00
sg112
g541
sg113
g545
sg114
g546
sg115
g547
sg116
I00
sg117
I00
sg118
I9
sg119
g548
sg120
g549
sg121
g122
(S'\x07\xda\x07\x0e\x0f\n"\x00\x00\x00'
p552
tp553
Rp554
sg126
g537
sg127
g551
sg128
I00
sg129
I00
sg130
I00
sbsg131
Nsg29
L664234810861203456L
sg132
I1
sg133
Vtwitterfeed
p555
sg115
Ven
p556
sg181
g522
sg121
g122
(S'\x07\xdf\x0b\x0b\x00\x0e6\x00\x00\x00'
p557
tp558
Rp559
sg39
(dp560
g186
Nsg187
I00
sg188
g519
sg189
I00
sg190
Nsg45
L664234810861203456L
sg191
I1
sg192
V<a href="http://twitterfeed.com" rel="nofollow">twitterfeed</a>
p561
sg194
I00
sg195
Nsg53
(dp562
g197
(lp563
(dp564
g151
(lp565
I33
aI38
asg188
VHCKT
p566
sa(dp567
g151
(lp568
I39
aI44
asg188
VALRM
p569
sa(dp570
g151
(lp571
I45
aI50
asg188
VARNA
p572
sa(dp573
g151
(lp574
I51
aI56
asg188
VOPWR
p575
sa(dp576
g151
(lp577
I57
aI62
asg188
VINGN
p578
sa(dp579
g151
(lp580
I63
aI68
asg188
VANFI
p581
sa(dp582
g151
(lp583
I69
aI74
asg188
VEVDY
p584
sa(dp585
g151
(lp586
I75
aI80
asg188
VBOOT
p587
sa(dp588
g151
(lp589
I81
aI86
asg188
VJUNO
p590
sa(dp591
g151
(lp592
I87
aI91
asg188
VDOX
p593
sa(dp594
g151
(lp595
I92
aI97
asg188
VEXLS
p596
sasg232
(lp597
sg234
(lp598
sg35
(lp599
(dp600
g86
Vhttps://t.co/U2toxHUKlM
p601
sg151
(lp602
I110
aI133
asg153
Vhttp://bit.ly/1Sh36ZJ
p603
sg155
Vbit.ly/1Sh36ZJ
p604
sassg242
Nsg243
Nsg244
I2
sg57
V664234810861203456
p605
sg246
I00
sg247
g536
sg248
Nsg249
Nsg250
I00
sg79
g556
sg87
VWed Nov 11 00:14:54 +0000 2015
p606
sg252
Nsg253
Nsg254
(dp607
g256
Ven
p608
sg258
Vrecent
p609
sssg260
g607
sg261
Nsg262
Nsg31
g562
sg263
Nsg264
Nsg99
g605
sg265
I00
sg266
Nsg267
I2
sg268
Nsbag0
(g4
g5
Ntp610
Rp611
(dp612
g9
I00
sg10
Nsg11
I00
sg12
V$EXLS Very High Fundamental Rating  https://t.co/2CqrNinzrq https://t.co/vvoReYoYAN
p613
sg14
Vhttp://www.capitalmarketlabs.com/index.php
p614
sg16
I00
sg17
I00
sg18
Nsg19
g0
(g20
g5
Ntp615
Rp616
(dp617
g24
I00
sg25
I00
sg26
I01
sg27
VDDEEF6
p618
sg29
L3100250551L
sg30
I00
sg31
(dp619
g86
(dp620
g35
(lp621
(dp622
g86
Vhttp://t.co/ImCACmTfui
p623
sg151
(lp624
I0
aI22
asg153
Vhttp://www.capitalmarketlabs.com/
p625
sg155
Vcapitalmarketlabs.com
p626
sassg33
(dp627
g35
(lp628
sssg37
Vhttps://pbs.twimg.com/profile_images/582627578449518593/dQHy0gDs_normal.png
p629
sg39
(dp630
g41
I00
sg42
I00
sg43
I01
sg44
I00
sg45
L3100250551L
sg46
Vhttps://abs.twimg.com/images/themes/theme1/bg.png
p631
sg48
I00
sg49
V333333
p632
sg51
g629
sg52
g618
sg53
g619
sg54
I2405
sg55
VC0DEED
p633
sg57
V3100250551
p634
sg59
VC0DEED
p635
sg61
I31
sg62
I00
sg63
I-28800
sg64
I24756
sg33
VOfficial Twitter Account for #CML.  Tweets every 10-15 minutes on trends and comparisons. Data feed: @CMLviz CEO: @ophirgottlieb
p636
sg66
I1143
sg67
VLos Angeles, CA
p637
sg69
V0084B4
p638
sg71
Vhttp://pbs.twimg.com/profile_images/582627578449518593/dQHy0gDs_normal.png
p639
sg73
I00
sg74
I00
sg350
Vhttps://pbs.twimg.com/profile_banners/3100250551/1426889834
p640
sg75
Vhttp://abs.twimg.com/images/themes/theme1/bg.png
p641
sg77
Vcapitalmktlabs
p642
sg79
Ven
p643
sg81
I00
sg82
I29
sg83
VCapital Market Labs
p644
sg85
I00
sg86
Vhttp://t.co/ImCACmTfui
p645
sg87
VFri Mar 20 21:26:19 +0000 2015
p646
sg89
I00
sg90
VPacific Time (US & Canada)
p647
sg92
I00
sg93
I01
sg94
I00
ssg95
I00
sg96
g632
sg97
I2405
sg98
g633
sg99
g634
sg100
I00
sg101
I31
sg102
I00
sg103
I-28800
sg104
I24756
sg105
g636
sg106
I1143
sg107
g637
sg108
g638
sg109
g639
sg110
I00
sg111
I00
sg112
g635
sg358
g640
sg113
g641
sg114
g642
sg115
g643
sg116
I00
sg117
I00
sg118
I29
sg119
g644
sg120
g645
sg121
g122
(S'\x07\xdf\x03\x14\x15\x1a\x13\x00\x00\x00'
p648
tp649
Rp650
sg126
g631
sg127
g647
sg128
I00
sg129
I01
sg130
I00
sbsg131
Nsg29
L664188315696918528L
sg132
I0
sg133
VCML Tale of the Tape
p651
sg115
Ven
p652
sg181
g616
sg121
g122
(S'\x07\xdf\x0b\n\x15\n\t\x00\x00\x00'
p653
tp654
Rp655
sg39
(dp656
g186
Nsg187
I00
sg188
g613
sg189
I00
sg190
Nsg45
L664188315696918528L
sg191
I0
sg192
V<a href="http://www.capitalmarketlabs.com/index.php" rel="nofollow">CML Tale of the Tape</a>
p657
sg194
I00
sg195
Nsg53
(dp658
g197
(lp659
(dp660
g151
(lp661
I0
aI5
asg188
VEXLS
p662
sasg232
(lp663
sg234
(lp664
sg35
(lp665
(dp666
g86
Vhttps://t.co/2CqrNinzrq
p667
sg151
(lp668
I36
aI59
asg153
Vhttp://bit.ly/1M728vt
p669
sg155
Vbit.ly/1M728vt
p670
sasVmedia
p671
(lp672
(dp673
g153
Vhttp://twitter.com/capitalmktlabs/status/664188315696918528/photo/1
p674
sg155
Vpic.twitter.com/vvoReYoYAN
p675
sg86
Vhttps://t.co/vvoReYoYAN
p676
sVmedia_url_https
p677
Vhttps://pbs.twimg.com/media/CTerwOIU8AAKuHq.png
p678
sg57
V664188314975531008
p679
sVsizes
p680
(dp681
Vlarge
p682
(dp683
Vh
p684
I475
sVresize
p685
Vfit
p686
sVw
p687
I786
ssVsmall
p688
(dp689
g684
I205
sg685
Vfit
p690
sg687
I340
ssVmedium
p691
(dp692
g684
I362
sg685
Vfit
p693
sg687
I600
ssVthumb
p694
(dp695
g684
I150
sg685
Vcrop
p696
sg687
I150
sssg151
(lp697
I60
aI83
asVtype
p698
Vphoto
p699
sg45
L664188314975531008L
sVmedia_url
p700
Vhttp://pbs.twimg.com/media/CTerwOIU8AAKuHq.png
p701
sassg242
Nsg243
Nsg244
I0
sg57
V664188315696918528
p702
sg246
I00
sg247
g630
sg248
Nsg249
Nsg250
I00
sg79
g652
sg87
VTue Nov 10 21:10:09 +0000 2015
p703
sg252
Nsg253
Nsg254
(dp704
g256
Ven
p705
sg258
Vrecent
p706
sssg260
g704
sg261
Nsg262
Nsg31
g658
sg263
Nsg264
Nsg99
g702
sg265
I00
sg266
Nsg267
I0
sg268
Nsbag0
(g4
g5
Ntp707
Rp708
(dp709
g9
I00
sg10
Nsg11
I00
sg12
VBest outperformers ranked 60-65 $RYI $EXLS $ZINC $JPEP $ZEUS
p710
sg14
Vhttp://www.mokrari.com
p711
sg17
I00
sg18
Nsg19
g0
(g20
g5
Ntp712
Rp713
(dp714
g24
I00
sg25
I00
sg26
I01
sg27
VDDEEF6
p715
sg29
I1201107619
sg30
I00
sg31
(dp716
g86
(dp717
g35
(lp718
(dp719
g86
Vhttp://t.co/Wz9djgYDai
p720
sg151
(lp721
I0
aI22
asg153
Vhttp://www.mokrari.com
p722
sg155
Vmokrari.com
p723
sassg33
(dp724
g35
(lp725
sssg37
Vhttps://pbs.twimg.com/profile_images/3498759038/c00f740ae43a7aa5eaee72e1f2237515_normal.jpeg
p726
sg39
(dp727
g41
I00
sg42
I00
sg43
I01
sg44
I00
sg45
I1201107619
sg46
Vhttps://abs.twimg.com/images/themes/theme1/bg.png
p728
sg48
I00
sg49
V333333
p729
sg51
g726
sg52
g715
sg53
g716
sg54
I110
sg55
VC0DEED
p730
sg57
V1201107619
p731
sg59
VC0DEED
p732
sg61
I12
sg62
I00
sg63
I-18000
sg64
I8451
sg33
VTweet daily top rated near-term market out-, and underperformers using machine learning models built on decades of financial stmts and complete price history.
p733
sg66
I182
sg67
g68
sg69
V0084B4
p734
sg71
Vhttp://pbs.twimg.com/profile_images/3498759038/c00f740ae43a7aa5eaee72e1f2237515_normal.jpeg
p735
sg73
I00
sg74
I00
sg350
Vhttps://pbs.twimg.com/profile_banners/1201107619/1385126030
p736
sg75
Vhttp://abs.twimg.com/images/themes/theme1/bg.png
p737
sg77
Vmokrari
p738
sg79
Ven
p739
sg81
I00
sg82
I158
sg83
Vmokrari by @edi_bice
p740
sg85
I00
sg86
Vhttp://t.co/Wz9djgYDai
p741
sg87
VWed Feb 20 13:46:31 +0000 2013
p742
sg89
I00
sg90
VEastern Time (US & Canada)
p743
sg92
I00
sg93
I01
sg94
I00
ssg95
I00
sg96
g729
sg97
I110
sg98
g730
sg99
g731
sg100
I00
sg101
I12
sg102
I00
sg103
I-18000
sg104
I8451
sg105
g733
sg106
I182
sg107
g68
sg108
g734
sg109
g735
sg110
I00
sg111
I00
sg112
g732
sg358
g736
sg113
g737
sg114
g738
sg115
g739
sg116
I00
sg117
I00
sg118
I158
sg119
g740
sg120
g741
sg121
g122
(S'\x07\xdd\x02\x14\r.\x1f\x00\x00\x00'
p744
tp745
Rp746
sg126
g728
sg127
g743
sg128
I00
sg129
I01
sg130
I00
sbsg131
Nsg29
L664165333532590081L
sg132
I0
sg133
Vmokrari short-term predictor
p747
sg115
Ven
p748
sg181
g713
sg121
g122
(S'\x07\xdf\x0b\n\x13&1\x00\x00\x00'
p749
tp750
Rp751
sg39
(dp752
g186
Nsg187
I00
sg188
g710
sg189
I00
sg190
Nsg45
L664165333532590081L
sg191
I0
sg192
V<a href="http://www.mokrari.com" rel="nofollow">mokrari short-term predictor</a>
p753
sg194
I00
sg195
Nsg53
(dp754
g197
(lp755
(dp756
g151
(lp757
I32
aI36
asg188
VRYI
p758
sa(dp759
g151
(lp760
I37
aI42
asg188
VEXLS
p761
sa(dp762
g151
(lp763
I43
aI48
asg188
VZINC
p764
sa(dp765
g151
(lp766
I49
aI54
asg188
VJPEP
p767
sa(dp768
g151
(lp769
I55
aI60
asg188
VZEUS
p770
sasg232
(lp771
sg234
(lp772
sg35
(lp773
ssg242
Nsg243
Nsg244
I0
sg57
V664165333532590081
p774
sg246
I00
sg247
g727
sg248
Nsg249
Nsg79
g748
sg87
VTue Nov 10 19:38:49 +0000 2015
p775
sg252
Nsg253
Nsg254
(dp776
g256
Ven
p777
sg258
Vrecent
p778
sssg260
g776
sg261
Nsg262
Nsg31
g754
sg263
Nsg264
Nsg99
g774
sg265
I00
sg266
Nsg267
I0
sg268
Nsbag0
(g4
g5
Ntp779
Rp780
(dp781
g9
I00
sg10
Nsg11
I00
sg12
V$EXLS:\u000a\u000aEarnings of $0.47 Expected for ExlService Holdings, Inc. (NASDAQ \u2026:\u000a\u000ahttps://t.co/5Vhxv33bAp
p782
sg14
Vhttp://www.stocknewswires.com
p783
sg16
I00
sg17
I00
sg18
Nsg19
g0
(g20
g5
Ntp784
Rp785
(dp786
g24
I00
sg25
I00
sg26
I01
sg27
VDAECF4
p787
sg29
L2341445778L
sg30
I00
sg31
(dp788
g33
(dp789
g35
(lp790
sssg37
Vhttps://pbs.twimg.com/profile_images/542238326397227008/UfZ0ulTf_normal.jpeg
p791
sg39
(dp792
g41
I00
sg42
I00
sg43
I01
sg44
I00
sg45
L2341445778L
sg46
Vhttps://abs.twimg.com/images/themes/theme2/bg.gif
p793
sg48
I00
sg49
V663B12
p794
sg51
g791
sg52
g787
sg53
g788
sg54
I660
sg55
VC6E2EE
p795
sg57
V2341445778
p796
sg59
VC6E2EE
p797
sg61
I107
sg62
I00
sg63
I-14400
sg64
I236872
sg33
VInvest like a fish
p798
sg66
I9
sg67
VUnited States
p799
sg69
V1F98C7
p800
sg71
Vhttp://pbs.twimg.com/profile_images/542238326397227008/UfZ0ulTf_normal.jpeg
p801
sg73
I00
sg74
I00
sg75
Vhttp://abs.twimg.com/images/themes/theme2/bg.gif
p802
sg77
VStockNewsWires
p803
sg79
Ven
p804
sg81
I00
sg82
I0
sg83
VStockNewsWires
p805
sg85
I00
sg86
Nsg87
VThu Feb 13 05:31:52 +0000 2014
p806
sg89
I00
sg90
VAtlantic Time (Canada)
p807
sg92
I00
sg93
I00
sg94
I00
ssg95
I00
sg96
g794
sg97
I660
sg98
g795
sg99
g796
sg100
I00
sg101
I107
sg102
I00
sg103
I-14400
sg104
I236872
sg105
g798
sg106
I9
sg107
g799
sg108
g800
sg109
g801
sg110
I00
sg111
I00
sg112
g797
sg113
g802
sg114
g803
sg115
g804
sg116
I00
sg117
I00
sg118
I0
sg119
g805
sg120
Nsg121
g122
(S'\x07\xde\x02\r\x05\x1f4\x00\x00\x00'
p808
tp809
Rp810
sg126
g793
sg127
g807
sg128
I00
sg129
I00
sg130
I00
sbsg131
Nsg29
L664156879145279488L
sg132
I0
sg133
VStockNewsWires
p811
sg115
Ven
p812
sg181
g785
sg121
g122
(S'\x07\xdf\x0b\n\x13\x05\x0e\x00\x00\x00'
p813
tp814
Rp815
sg39
(dp816
g186
Nsg187
I00
sg188
V$EXLS:\u000a\u000aEarnings of $0.47 Expected for ExlService Holdings, Inc. (NASDAQ \u2026:\u000a\u000ahttps://t.co/5Vhxv33bAp
p817
sg189
I00
sg190
Nsg45
L664156879145279488L
sg191
I0
sg192
V<a href="http://www.stocknewswires.com" rel="nofollow">StockNewsWires</a>
p818
sg194
I00
sg195
Nsg53
(dp819
g197
(lp820
(dp821
g151
(lp822
I0
aI5
asg188
VEXLS
p823
sasg232
(lp824
sg234
(lp825
sg35
(lp826
(dp827
g86
Vhttps://t.co/5Vhxv33bAp
p828
sg151
(lp829
I77
aI100
asg153
Vhttp://StockNewsHour.com/exls-earnings-of-0-47-expected-for-exlservice-holdings-inc-nasdaq/
p830
sg155
VStockNewsHour.com/exls-earnings-\u2026
p831
sassg242
Nsg243
Nsg244
I0
sg57
V664156879145279488
p832
sg246
I00
sg247
g792
sg248
Nsg249
Nsg250
I00
sg79
g812
sg87
VTue Nov 10 19:05:14 +0000 2015
p833
sg252
Nsg253
Nsg254
(dp834
g256
Ven
p835
sg258
Vrecent
p836
sssg260
g834
sg261
Nsg262
Nsg31
g819
sg263
Nsg264
Nsg99
g832
sg265
I00
sg266
Nsg267
I0
sg268
Nsbag0
(g4
g5
Ntp837
Rp838
(dp839
g9
I00
sg10
Nsg11
I00
sg12
VBest outperformers ranked 70-75 $TROX $EXLS $ASYS $CALM $ENPH
p840
sg14
Vhttp://www.mokrari.com
p841
sg17
I00
sg18
Nsg19
g0
(g20
g5
Ntp842
Rp843
(dp844
g24
I00
sg25
I00
sg26
I01
sg27
VDDEEF6
p845
sg29
I1201107619
sg30
I00
sg31
(dp846
g86
(dp847
g35
(lp848
(dp849
g86
Vhttp://t.co/Wz9djgYDai
p850
sg151
(lp851
I0
aI22
asg153
Vhttp://www.mokrari.com
p852
sg155
Vmokrari.com
p853
sassg33
(dp854
g35
(lp855
sssg37
Vhttps://pbs.twimg.com/profile_images/3498759038/c00f740ae43a7aa5eaee72e1f2237515_normal.jpeg
p856
sg39
(dp857
g41
I00
sg42
I00
sg43
I01
sg44
I00
sg45
I1201107619
sg46
Vhttps://abs.twimg.com/images/themes/theme1/bg.png
p858
sg48
I00
sg49
V333333
p859
sg51
g856
sg52
g845
sg53
g846
sg54
I110
sg55
VC0DEED
p860
sg57
V1201107619
p861
sg59
VC0DEED
p862
sg61
I12
sg62
I00
sg63
I-18000
sg64
I8451
sg33
VTweet daily top rated near-term market out-, and underperformers using machine learning models built on decades of financial stmts and complete price history.
p863
sg66
I182
sg67
g68
sg69
V0084B4
p864
sg71
Vhttp://pbs.twimg.com/profile_images/3498759038/c00f740ae43a7aa5eaee72e1f2237515_normal.jpeg
p865
sg73
I00
sg74
I00
sg350
Vhttps://pbs.twimg.com/profile_banners/1201107619/1385126030
p866
sg75
Vhttp://abs.twimg.com/images/themes/theme1/bg.png
p867
sg77
Vmokrari
p868
sg79
Ven
p869
sg81
I00
sg82
I158
sg83
Vmokrari by @edi_bice
p870
sg85
I00
sg86
Vhttp://t.co/Wz9djgYDai
p871
sg87
VWed Feb 20 13:46:31 +0000 2013
p872
sg89
I00
sg90
VEastern Time (US & Canada)
p873
sg92
I00
sg93
I01
sg94
I00
ssg95
I00
sg96
g859
sg97
I110
sg98
g860
sg99
g861
sg100
I00
sg101
I12
sg102
I00
sg103
I-18000
sg104
I8451
sg105
g863
sg106
I182
sg107
g68
sg108
g864
sg109
g865
sg110
I00
sg111
I00
sg112
g862
sg358
g866
sg113
g867
sg114
g868
sg115
g869
sg116
I00
sg117
I00
sg118
I158
sg119
g870
sg120
g871
sg121
g122
(S'\x07\xdd\x02\x14\r.\x1f\x00\x00\x00'
p874
tp875
Rp876
sg126
g858
sg127
g873
sg128
I00
sg129
I01
sg130
I00
sbsg131
Nsg29
L663818135531864064L
sg132
I0
sg133
Vmokrari short-term predictor
p877
sg115
Ven
p878
sg181
g843
sg121
g122
(S"\x07\xdf\x0b\t\x14'\x0b\x00\x00\x00"
p879
tp880
Rp881
sg39
(dp882
g186
Nsg187
I00
sg188
g840
sg189
I00
sg190
Nsg45
L663818135531864064L
sg191
I0
sg192
V<a href="http://www.mokrari.com" rel="nofollow">mokrari short-term predictor</a>
p883
sg194
I00
sg195
Nsg53
(dp884
g197
(lp885
(dp886
g151
(lp887
I32
aI37
asg188
VTROX
p888
sa(dp889
g151
(lp890
I38
aI43
asg188
VEXLS
p891
sa(dp892
g151
(lp893
I44
aI49
asg188
VASYS
p894
sa(dp895
g151
(lp896
I50
aI55
asg188
VCALM
p897
sa(dp898
g151
(lp899
I56
aI61
asg188
VENPH
p900
sasg232
(lp901
sg234
(lp902
sg35
(lp903
ssg242
Nsg243
Nsg244
I0
sg57
V663818135531864064
p904
sg246
I00
sg247
g857
sg248
Nsg249
Nsg79
g878
sg87
VMon Nov 09 20:39:11 +0000 2015
p905
sg252
Nsg253
Nsg254
(dp906
g256
Ven
p907
sg258
Vrecent
p908
sssg260
g906
sg261
Nsg262
Nsg31
g884
sg263
Nsg264
Nsg99
g904
sg265
I00
sg266
Nsg267
I0
sg268
Nsbag0
(g4
g5
Ntp909
Rp910
(dp911
g9
I00
sg10
Nsg11
I00
sg12
VThe Most Accurate Stock Alert Service Made $240,000 Yesterday https://t.co/8WvnrVmkBS .. $FNJN $PFIS $EXLS
p912
sg14
Vhttp://socialadcenter.com
p913
sg16
I00
sg17
I00
sg18
Nsg19
g0
(g20
g5
Ntp914
Rp915
(dp916
g24
I00
sg25
I00
sg26
I01
sg27
VDDEEF6
p917
sg29
L2730855593L
sg30
I00
sg31
(dp918
g86
(dp919
g35
(lp920
(dp921
g86
Vhttp://t.co/UWzH8kOOl9
p922
sg151
(lp923
I0
aI22
asg153
Vhttp://PennyStockSecret.com
p924
sg155
VPennyStockSecret.com
p925
sassg33
(dp926
g35
(lp927
(dp928
g86
Vhttp://t.co/UWzH8kOOl9
p929
sg151
(lp930
I11
aI33
asg153
Vhttp://PennyStockSecret.com
p931
sg155
VPennyStockSecret.com
p932
sasssg37
Vhttps://pbs.twimg.com/profile_images/573247485616889856/gHAtYS9O_normal.png
p933
sg39
(dp934
g41
I00
sg42
I00
sg43
I01
sg44
I00
sg45
L2730855593L
sg46
Vhttps://abs.twimg.com/images/themes/theme1/bg.png
p935
sg48
I00
sg49
V333333
p936
sg51
g933
sg52
g917
sg53
g918
sg54
I2515
sg55
VC0DEED
p937
sg57
V2730855593
p938
sg59
VC0DEED
p939
sg61
I25
sg62
I00
sg63
I0
sg64
I53231
sg33
VSign up to http://t.co/UWzH8kOOl9  and get the premiere penny stock newsletter for free! make sure you subscribe today!
p940
sg66
I9
sg67
VUSA
p941
sg69
V0084B4
p942
sg71
Vhttp://pbs.twimg.com/profile_images/573247485616889856/gHAtYS9O_normal.png
p943
sg73
I00
sg74
I00
sg350
Vhttps://pbs.twimg.com/profile_banners/2730855593/1425507876
p944
sg75
Vhttp://abs.twimg.com/images/themes/theme1/bg.png
p945
sg77
Vstockschamp
p946
sg79
Ven
p947
sg81
I00
sg82
I0
sg83
Vstockschamp
p948
sg85
I00
sg86
Vhttp://t.co/UWzH8kOOl9
p949
sg87
VFri Aug 01 16:39:24 +0000 2014
p950
sg89
I00
sg90
VDublin
p951
sg92
I00
sg93
I01
sg94
I00
ssg95
I00
sg96
g936
sg97
I2515
sg98
g937
sg99
g938
sg100
I00
sg101
I25
sg102
I00
sg103
I0
sg104
I53231
sg105
g940
sg106
I9
sg107
g941
sg108
g942
sg109
g943
sg110
I00
sg111
I00
sg112
g939
sg358
g944
sg113
g945
sg114
g946
sg115
g947
sg116
I00
sg117
I00
sg118
I0
sg119
g948
sg120
g949
sg121
g122
(S"\x07\xde\x08\x01\x10'\x18\x00\x00\x00"
p952
tp953
Rp954
sg126
g935
sg127
g951
sg128
I00
sg129
I01
sg130
I00
sbsg131
Nsg29
L663775784746639360L
sg132
I0
sg133
VSocial Ad Center
p955
sg115
Ven
p956
sg181
g915
sg121
g122
(S'\x07\xdf\x0b\t\x1126\x00\x00\x00'
p957
tp958
Rp959
sg39
(dp960
g186
Nsg187
I00
sg188
g912
sg189
I00
sg190
Nsg45
L663775784746639360L
sg191
I0
sg192
V<a href="http://socialadcenter.com" rel="nofollow">Social Ad Center</a>
p961
sg194
I00
sg195
Nsg53
(dp962
g197
(lp963
(dp964
g151
(lp965
I89
aI94
asg188
VFNJN
p966
sa(dp967
g151
(lp968
I95
aI100
asg188
VPFIS
p969
sa(dp970
g151
(lp971
I101
aI106
asg188
VEXLS
p972
sasg232
(lp973
sg234
(lp974
sg35
(lp975
(dp976
g86
Vhttps://t.co/8WvnrVmkBS
p977
sg151
(lp978
I62
aI85
asg153
Vhttp://PennyStockSecret.com
p979
sg155
VPennyStockSecret.com
p980
sassg242
Nsg243
Nsg244
I0
sg57
V663775784746639360
p981
sg246
I00
sg247
g934
sg248
Nsg249
Nsg250
I00
sg79
g956
sg87
VMon Nov 09 17:50:54 +0000 2015
p982
sg252
Nsg253
Nsg254
(dp983
g256
Ven
p984
sg258
Vrecent
p985
sssg260
g983
sg261
Nsg262
Nsg31
g962
sg263
Nsg264
Nsg99
g981
sg265
I00
sg266
Nsg267
I0
sg268
Nsbag0
(g4
g5
Ntp986
Rp987
(dp988
g9
I00
sg10
Nsg11
I00
sg12
VExlService Holdings Receives $43.86 Average Target Price from Analysts $EXLS https://t.co/SGBar0Exz1
p989
sg14
Vhttp://ifttt.com
p990
sg16
I00
sg17
I00
sg18
Nsg19
g0
(g20
g5
Ntp991
Rp992
(dp993
g24
I00
sg25
I00
sg26
I01
sg27
VDDEEF6
p994
sg29
L2525892205L
sg30
I00
sg31
(dp995
g86
(dp996
g35
(lp997
(dp998
g86
Vhttp://t.co/oT0s8pX8T2
p999
sg151
(lp1000
I0
aI22
asg153
Vhttp://www.intercooleronline.com
p1001
sg155
Vintercooleronline.com
p1002
sassg33
(dp1003
g35
(lp1004
sssg37
Vhttps://pbs.twimg.com/profile_images/471038514675474432/wc-6YgXp_normal.jpeg
p1005
sg39
(dp1006
g41
I00
sg42
I00
sg43
I01
sg44
I00
sg45
L2525892205L
sg46
Vhttps://abs.twimg.com/images/themes/theme1/bg.png
p1007
sg48
I00
sg49
V333333
p1008
sg51
g1005
sg52
g994
sg53
g995
sg54
I414
sg55
VC0DEED
p1009
sg57
V2525892205
p1010
sg59
VC0DEED
p1011
sg61
I22
sg62
I00
sg63
Nsg64
I117976
sg33
g68
sg66
I6
sg67
VFlorida
p1012
sg69
V0084B4
p1013
sg71
Vhttp://pbs.twimg.com/profile_images/471038514675474432/wc-6YgXp_normal.jpeg
p1014
sg73
I00
sg74
I00
sg350
Vhttps://pbs.twimg.com/profile_banners/2525892205/1401139391
p1015
sg75
Vhttp://abs.twimg.com/images/themes/theme1/bg.png
p1016
sg77
Vintercooleronli
p1017
sg79
Ven
p1018
sg81
I00
sg82
I0
sg83
VInterCooler
p1019
sg85
I00
sg86
Vhttp://t.co/oT0s8pX8T2
p1020
sg87
VMon May 26 21:20:18 +0000 2014
p1021
sg89
I00
sg90
Nsg92
I00
sg93
I01
sg94
I00
ssg95
I00
sg96
g1008
sg97
I414
sg98
g1009
sg99
g1010
sg100
I00
sg101
I22
sg102
I00
sg103
Nsg104
I117976
sg105
g68
sg106
I6
sg107
g1012
sg108
g1013
sg109
g1014
sg110
I00
sg111
I00
sg112
g1011
sg358
g1015
sg113
g1016
sg114
g1017
sg115
g1018
sg116
I00
sg117
I00
sg118
I0
sg119
g1019
sg120
g1020
sg121
g122
(S'\x07\xde\x05\x1a\x15\x14\x12\x00\x00\x00'
p1022
tp1023
Rp1024
sg126
g1007
sg127
Nsg128
I00
sg129
I01
sg130
I00
sbsg131
Nsg29
L663714109624553472L
sg132
I0
sg133
VIFTTT
p1025
sg115
Ven
p1026
sg181
g992
sg121
g122
(S'\x07\xdf\x0b\t\r-1\x00\x00\x00'
p1027
tp1028
Rp1029
sg39
(dp1030
g186
Nsg187
I00
sg188
g989
sg189
I00
sg190
Nsg45
L663714109624553472L
sg191
I0
sg192
V<a href="http://ifttt.com" rel="nofollow">IFTTT</a>
p1031
sg194
I00
sg195
Nsg53
(dp1032
g197
(lp1033
(dp1034
g151
(lp1035
I71
aI76
asg188
VEXLS
p1036
sasg232
(lp1037
sg234
(lp1038
sg35
(lp1039
(dp1040
g86
Vhttps://t.co/SGBar0Exz1
p1041
sg151
(lp1042
I77
aI100
asg153
Vhttp://ift.tt/1lfz7a9
p1043
sg155
Vift.tt/1lfz7a9
p1044
sassg242
Nsg243
Nsg244
I0
sg57
V663714109624553472
p1045
sg246
I00
sg247
g1006
sg248
Nsg249
Nsg250
I00
sg79
g1026
sg87
VMon Nov 09 13:45:49 +0000 2015
p1046
sg252
Nsg253
Nsg254
(dp1047
g256
Ven
p1048
sg258
Vrecent
p1049
sssg260
g1047
sg261
Nsg262
Nsg31
g1032
sg263
Nsg264
Nsg99
g1045
sg265
I00
sg266
Nsg267
I0
sg268
Nsbag0
(g4
g5
Ntp1050
Rp1051
(dp1052
g9
I00
sg10
Nsg11
I00
sg12
V$EXLS:\u000a\u000aExlService Holdings Receives $43.86 Average Target Price from \u2026:\u000a\u000ahttps://t.co/x7ToFqzcAQ
p1053
sg14
Vhttp://www.newsflowing.com
p1054
sg16
I00
sg17
I00
sg18
Nsg19
g0
(g20
g5
Ntp1055
Rp1056
(dp1057
g24
I00
sg25
I00
sg26
I01
sg27
VE6F6F9
p1058
sg29
L2342215530L
sg30
I00
sg31
(dp1059
g33
(dp1060
g35
(lp1061
sssg37
Vhttps://pbs.twimg.com/profile_images/544036492876591104/7QJIB-XK_normal.jpeg
p1062
sg39
(dp1063
g41
I00
sg42
I00
sg43
I01
sg44
I00
sg45
L2342215530L
sg46
Vhttps://abs.twimg.com/images/themes/theme17/bg.gif
p1064
sg48
I00
sg49
V333333
p1065
sg51
g1062
sg52
g1058
sg53
g1059
sg54
I465
sg55
VDBE9ED
p1066
sg57
V2342215530
p1067
sg59
VDBE9ED
p1068
sg61
I89
sg62
I00
sg63
I-14400
sg64
I193001
sg33
g68
sg66
I0
sg67
g68
sg69
VCC3366
p1069
sg71
Vhttp://pbs.twimg.com/profile_images/544036492876591104/7QJIB-XK_normal.jpeg
p1070
sg73
I00
sg74
I00
sg75
Vhttp://abs.twimg.com/images/themes/theme17/bg.gif
p1071
sg77
Vnewswithvalue
p1072
sg79
Ven
p1073
sg81
I00
sg82
I0
sg83
VBreaking News Now
p1074
sg85
I00
sg86
Nsg87
VThu Feb 13 16:14:12 +0000 2014
p1075
sg89
I00
sg90
VAtlantic Time (Canada)
p1076
sg92
I00
sg93
I00
sg94
I00
ssg95
I00
sg96
g1065
sg97
I465
sg98
g1066
sg99
g1067
sg100
I00
sg101
I89
sg102
I00
sg103
I-14400
sg104
I193001
sg105
g68
sg106
I0
sg107
g68
sg108
g1069
sg109
g1070
sg110
I00
sg111
I00
sg112
g1068
sg113
g1071
sg114
g1072
sg115
g1073
sg116
I00
sg117
I00
sg118
I0
sg119
g1074
sg120
Nsg121
g122
(S'\x07\xde\x02\r\x10\x0e\x0c\x00\x00\x00'
p1077
tp1078
Rp1079
sg126
g1064
sg127
g1076
sg128
I00
sg129
I00
sg130
I00
sbsg131
Nsg29
L663710937334087680L
sg132
I0
sg133
VNFIG
p1080
sg115
Ven
p1081
sg181
g1056
sg121
g122
(S'\x07\xdf\x0b\t\r!\r\x00\x00\x00'
p1082
tp1083
Rp1084
sg39
(dp1085
g186
Nsg187
I00
sg188
V$EXLS:\u000a\u000aExlService Holdings Receives $43.86 Average Target Price from \u2026:\u000a\u000ahttps://t.co/x7ToFqzcAQ
p1086
sg189
I00
sg190
Nsg45
L663710937334087680L
sg191
I0
sg192
V<a href="http://www.newsflowing.com" rel="nofollow">NFIG</a>
p1087
sg194
I00
sg195
Nsg53
(dp1088
g197
(lp1089
(dp1090
g151
(lp1091
I0
aI5
asg188
VEXLS
p1092
sasg232
(lp1093
sg234
(lp1094
sg35
(lp1095
(dp1096
g86
Vhttps://t.co/x7ToFqzcAQ
p1097
sg151
(lp1098
I74
aI97
asg153
Vhttp://StockNewsHour.com/exls-exlservice-holdings-receives-43-86-average-target-price-from/
p1099
sg155
VStockNewsHour.com/exls-exlservic\u2026
p1100
sassg242
Nsg243
Nsg244
I0
sg57
V663710937334087680
p1101
sg246
I00
sg247
g1063
sg248
Nsg249
Nsg250
I00
sg79
g1081
sg87
VMon Nov 09 13:33:13 +0000 2015
p1102
sg252
Nsg253
Nsg254
(dp1103
g256
Ven
p1104
sg258
Vrecent
p1105
sssg260
g1103
sg261
Nsg262
Nsg31
g1088
sg263
Nsg264
Nsg99
g1101
sg265
I00
sg266
Nsg267
I0
sg268
Nsbag0
(g4
g5
Ntp1106
Rp1107
(dp1108
g9
I00
sg10
Nsg11
I00
sg12
VBest outperformers ranked 70-75 $TROX $EXLS $ASYS $ENPH $SALE
p1109
sg14
Vhttp://www.mokrari.com
p1110
sg17
I00
sg18
Nsg19
g0
(g20
g5
Ntp1111
Rp1112
(dp1113
g24
I00
sg25
I00
sg26
I01
sg27
VDDEEF6
p1114
sg29
I1201107619
sg30
I00
sg31
(dp1115
g86
(dp1116
g35
(lp1117
(dp1118
g86
Vhttp://t.co/Wz9djgYDai
p1119
sg151
(lp1120
I0
aI22
asg153
Vhttp://www.mokrari.com
p1121
sg155
Vmokrari.com
p1122
sassg33
(dp1123
g35
(lp1124
sssg37
Vhttps://pbs.twimg.com/profile_images/3498759038/c00f740ae43a7aa5eaee72e1f2237515_normal.jpeg
p1125
sg39
(dp1126
g41
I00
sg42
I00
sg43
I01
sg44
I00
sg45
I1201107619
sg46
Vhttps://abs.twimg.com/images/themes/theme1/bg.png
p1127
sg48
I00
sg49
V333333
p1128
sg51
g1125
sg52
g1114
sg53
g1115
sg54
I110
sg55
VC0DEED
p1129
sg57
V1201107619
p1130
sg59
VC0DEED
p1131
sg61
I12
sg62
I00
sg63
I-18000
sg64
I8451
sg33
VTweet daily top rated near-term market out-, and underperformers using machine learning models built on decades of financial stmts and complete price history.
p1132
sg66
I182
sg67
g68
sg69
V0084B4
p1133
sg71
Vhttp://pbs.twimg.com/profile_images/3498759038/c00f740ae43a7aa5eaee72e1f2237515_normal.jpeg
p1134
sg73
I00
sg74
I00
sg350
Vhttps://pbs.twimg.com/profile_banners/1201107619/1385126030
p1135
sg75
Vhttp://abs.twimg.com/images/themes/theme1/bg.png
p1136
sg77
Vmokrari
p1137
sg79
Ven
p1138
sg81
I00
sg82
I158
sg83
Vmokrari by @edi_bice
p1139
sg85
I00
sg86
Vhttp://t.co/Wz9djgYDai
p1140
sg87
VWed Feb 20 13:46:31 +0000 2013
p1141
sg89
I00
sg90
VEastern Time (US & Canada)
p1142
sg92
I00
sg93
I01
sg94
I00
ssg95
I00
sg96
g1128
sg97
I110
sg98
g1129
sg99
g1130
sg100
I00
sg101
I12
sg102
I00
sg103
I-18000
sg104
I8451
sg105
g1132
sg106
I182
sg107
g68
sg108
g1133
sg109
g1134
sg110
I00
sg111
I00
sg112
g1131
sg358
g1135
sg113
g1136
sg114
g1137
sg115
g1138
sg116
I00
sg117
I00
sg118
I158
sg119
g1139
sg120
g1140
sg121
g122
(S'\x07\xdd\x02\x14\r.\x1f\x00\x00\x00'
p1143
tp1144
Rp1145
sg126
g1127
sg127
g1142
sg128
I00
sg129
I01
sg130
I00
sbsg131
Nsg29
L663455967540047872L
sg132
I0
sg133
Vmokrari short-term predictor
p1146
sg115
Ven
p1147
sg181
g1112
sg121
g122
(S'\x07\xdf\x0b\x08\x14(\x03\x00\x00\x00'
p1148
tp1149
Rp1150
sg39
(dp1151
g186
Nsg187
I00
sg188
g1109
sg189
I00
sg190
Nsg45
L663455967540047872L
sg191
I0
sg192
V<a href="http://www.mokrari.com" rel="nofollow">mokrari short-term predictor</a>
p1152
sg194
I00
sg195
Nsg53
(dp1153
g197
(lp1154
(dp1155
g151
(lp1156
I32
aI37
asg188
VTROX
p1157
sa(dp1158
g151
(lp1159
I38
aI43
asg188
VEXLS
p1160
sa(dp1161
g151
(lp1162
I44
aI49
asg188
VASYS
p1163
sa(dp1164
g151
(lp1165
I50
aI55
asg188
VENPH
p1166
sa(dp1167
g151
(lp1168
I56
aI61
asg188
VSALE
p1169
sasg232
(lp1170
sg234
(lp1171
sg35
(lp1172
ssg242
Nsg243
Nsg244
I0
sg57
V663455967540047872
p1173
sg246
I00
sg247
g1126
sg248
Nsg249
Nsg79
g1147
sg87
VSun Nov 08 20:40:03 +0000 2015
p1174
sg252
Nsg253
Nsg254
(dp1175
g256
Ven
p1176
sg258
Vrecent
p1177
sssg260
g1175
sg261
Nsg262
Nsg31
g1153
sg263
Nsg264
Nsg99
g1173
sg265
I00
sg266
Nsg267
I0
sg268
Nsbag0
(g4
g5
Ntp1178
Rp1179
(dp1180
g9
I00
sg10
Nsg11
I00
sg12
V$SPY $N $NBIX $EXLS cluster &gt;100k$ fresh insider sales much below current price https://t.co/OWq4ENevKv
p1181
sg14
Vhttp://twitter.com
p1182
sg16
I00
sg17
I00
sg18
Nsg19
g0
(g20
g5
Ntp1183
Rp1184
(dp1185
g24
I00
sg25
I00
sg26
I01
sg27
VEFEFEF
p1186
sg29
I1339912453
sg30
I00
sg31
(dp1187
g86
(dp1188
g35
(lp1189
(dp1190
g86
Vhttp://t.co/SvcqwN0rMB
p1191
sg151
(lp1192
I0
aI22
asg153
Vhttp://esoptions.blogspot.com/
p1193
sg155
Vesoptions.blogspot.com
p1194
sassg33
(dp1195
g35
(lp1196
sssg37
Vhttps://pbs.twimg.com/profile_images/654975749657612288/W3mSTalZ_normal.jpg
p1197
sg39
(dp1198
g41
I00
sg42
I00
sg43
I01
sg44
I00
sg45
I1339912453
sg46
Vhttps://abs.twimg.com/images/themes/theme14/bg.gif
p1199
sg48
I00
sg49
V333333
p1200
sg51
g1197
sg52
g1186
sg53
g1187
sg54
I492
sg55
VFFFFFF
p1201
sg57
V1339912453
p1202
sg59
V131516
p1203
sg61
I40
sg62
I00
sg63
I3600
sg64
I17599
sg33
VVincit qui se vincit.
p1204
sg66
I42
sg67
g68
sg69
V000000
p1205
sg71
Vhttp://pbs.twimg.com/profile_images/654975749657612288/W3mSTalZ_normal.jpg
p1206
sg73
I00
sg74
I00
sg350
Vhttps://pbs.twimg.com/profile_banners/1339912453/1445001397
p1207
sg75
Vhttp://abs.twimg.com/images/themes/theme14/bg.gif
p1208
sg77
VTeycirTrades
p1209
sg79
Ven
p1210
sg81
I01
sg82
I2269
sg83
VTeycir
p1211
sg85
I00
sg86
Vhttp://t.co/SvcqwN0rMB
p1212
sg87
VTue Apr 09 18:40:59 +0000 2013
p1213
sg89
I00
sg90
VAmsterdam
p1214
sg92
I00
sg93
I00
sg94
I00
ssg95
I00
sg96
g1200
sg97
I492
sg98
g1201
sg99
g1202
sg100
I00
sg101
I40
sg102
I00
sg103
I3600
sg104
I17599
sg105
g1204
sg106
I42
sg107
g68
sg108
g1205
sg109
g1206
sg110
I00
sg111
I00
sg112
g1203
sg358
g1207
sg113
g1208
sg114
g1209
sg115
g1210
sg116
I00
sg117
I01
sg118
I2269
sg119
g1211
sg120
g1212
sg121
g122
(S'\x07\xdd\x04\t\x12(;\x00\x00\x00'
p1215
tp1216
Rp1217
sg126
g1199
sg127
g1214
sg128
I00
sg129
I00
sg130
I00
sbsg131
Nsg29
L663338583596617732L
sg132
I0
sg133
VTwitter Web Client
p1218
sg115
Ven
p1219
sg181
g1184
sg121
g122
(S'\x07\xdf\x0b\x08\x0c5%\x00\x00\x00'
p1220
tp1221
Rp1222
sg39
(dp1223
g186
Nsg187
I00
sg188
g1181
sg189
I00
sg190
Nsg45
L663338583596617732L
sg191
I0
sg192
V<a href="http://twitter.com" rel="nofollow">Twitter Web Client</a>
p1224
sg194
I00
sg195
Nsg53
(dp1225
g197
(lp1226
(dp1227
g151
(lp1228
I0
aI4
asg188
VSPY
p1229
sa(dp1230
g151
(lp1231
I5
aI7
asg188
VN
p1232
sa(dp1233
g151
(lp1234
I8
aI13
asg188
VNBIX
p1235
sa(dp1236
g151
(lp1237
I14
aI19
asg188
VEXLS
p1238
sasg232
(lp1239
sg234
(lp1240
sg35
(lp1241
sg671
(lp1242
(dp1243
g153
Vhttp://twitter.com/TeycirTrades/status/663338583596617732/photo/1
p1244
sg155
Vpic.twitter.com/OWq4ENevKv
p1245
sg86
Vhttps://t.co/OWq4ENevKv
p1246
sg677
Vhttps://pbs.twimg.com/media/CTSm7RgW4AAfaPl.png
p1247
sg57
V663338582371917824
p1248
sg680
(dp1249
g682
(dp1250
g684
I603
sg685
Vfit
p1251
sg687
I1024
ssg688
(dp1252
g684
I200
sg685
Vfit
p1253
sg687
I340
ssg691
(dp1254
g684
I353
sg685
Vfit
p1255
sg687
I600
ssg694
(dp1256
g684
I150
sg685
Vcrop
p1257
sg687
I150
sssg151
(lp1258
I83
aI106
asg698
Vphoto
p1259
sg45
L663338582371917824L
sg700
Vhttp://pbs.twimg.com/media/CTSm7RgW4AAfaPl.png
p1260
sassg242
Nsg243
Nsg244
I0
sg57
V663338583596617732
p1261
sg246
I00
sg247
g1198
sg248
Nsg249
Nsg250
I00
sg79
g1219
sg87
VSun Nov 08 12:53:37 +0000 2015
p1262
sg252
Nsg253
Nsg254
(dp1263
g256
Ven
p1264
sg258
Vrecent
p1265
sssg260
g1263
sg261
Nsg262
Nsg31
g1225
sg263
Nsg264
Nsg99
g1261
sg265
I00
sg266
Nsg267
I0
sg268
Nsbag0
(g4
g5
Ntp1266
Rp1267
(dp1268
g9
I00
sg10
Nsg11
I00
sg12
VBest outperformers ranked 70-75 $TROX $EXLS $ASYS $SPR $CRAY
p1269
sg14
Vhttp://www.mokrari.com
p1270
sg17
I00
sg18
Nsg19
g0
(g20
g5
Ntp1271
Rp1272
(dp1273
g24
I00
sg25
I00
sg26
I01
sg27
VDDEEF6
p1274
sg29
I1201107619
sg30
I00
sg31
(dp1275
g86
(dp1276
g35
(lp1277
(dp1278
g86
Vhttp://t.co/Wz9djgYDai
p1279
sg151
(lp1280
I0
aI22
asg153
Vhttp://www.mokrari.com
p1281
sg155
Vmokrari.com
p1282
sassg33
(dp1283
g35
(lp1284
sssg37
Vhttps://pbs.twimg.com/profile_images/3498759038/c00f740ae43a7aa5eaee72e1f2237515_normal.jpeg
p1285
sg39
(dp1286
g41
I00
sg42
I00
sg43
I01
sg44
I00
sg45
I1201107619
sg46
Vhttps://abs.twimg.com/images/themes/theme1/bg.png
p1287
sg48
I00
sg49
V333333
p1288
sg51
g1285
sg52
g1274
sg53
g1275
sg54
I110
sg55
VC0DEED
p1289
sg57
V1201107619
p1290
sg59
VC0DEED
p1291
sg61
I12
sg62
I00
sg63
I-18000
sg64
I8451
sg33
VTweet daily top rated near-term market out-, and underperformers using machine learning models built on decades of financial stmts and complete price history.
p1292
sg66
I182
sg67
g68
sg69
V0084B4
p1293
sg71
Vhttp://pbs.twimg.com/profile_images/3498759038/c00f740ae43a7aa5eaee72e1f2237515_normal.jpeg
p1294
sg73
I00
sg74
I00
sg350
Vhttps://pbs.twimg.com/profile_banners/1201107619/1385126030
p1295
sg75
Vhttp://abs.twimg.com/images/themes/theme1/bg.png
p1296
sg77
Vmokrari
p1297
sg79
Ven
p1298
sg81
I00
sg82
I158
sg83
Vmokrari by @edi_bice
p1299
sg85
I00
sg86
Vhttp://t.co/Wz9djgYDai
p1300
sg87
VWed Feb 20 13:46:31 +0000 2013
p1301
sg89
I00
sg90
VEastern Time (US & Canada)
p1302
sg92
I00
sg93
I01
sg94
I00
ssg95
I00
sg96
g1288
sg97
I110
sg98
g1289
sg99
g1290
sg100
I00
sg101
I12
sg102
I00
sg103
I-18000
sg104
I8451
sg105
g1292
sg106
I182
sg107
g68
sg108
g1293
sg109
g1294
sg110
I00
sg111
I00
sg112
g1291
sg358
g1295
sg113
g1296
sg114
g1297
sg115
g1298
sg116
I00
sg117
I00
sg118
I158
sg119
g1299
sg120
g1300
sg121
g122
(S'\x07\xdd\x02\x14\r.\x1f\x00\x00\x00'
p1303
tp1304
Rp1305
sg126
g1287
sg127
g1302
sg128
I00
sg129
I01
sg130
I00
sbsg131
Nsg29
L663093413278019584L
sg132
I0
sg133
Vmokrari short-term predictor
p1306
sg115
Ven
p1307
sg181
g1272
sg121
g122
(S"\x07\xdf\x0b\x07\x14'\x18\x00\x00\x00"
p1308
tp1309
Rp1310
sg39
(dp1311
g186
Nsg187
I00
sg188
g1269
sg189
I00
sg190
Nsg45
L663093413278019584L
sg191
I0
sg192
V<a href="http://www.mokrari.com" rel="nofollow">mokrari short-term predictor</a>
p1312
sg194
I00
sg195
Nsg53
(dp1313
g197
(lp1314
(dp1315
g151
(lp1316
I32
aI37
asg188
VTROX
p1317
sa(dp1318
g151
(lp1319
I38
aI43
asg188
VEXLS
p1320
sa(dp1321
g151
(lp1322
I44
aI49
asg188
VASYS
p1323
sa(dp1324
g151
(lp1325
I50
aI54
asg188
VSPR
p1326
sa(dp1327
g151
(lp1328
I55
aI60
asg188
VCRAY
p1329
sasg232
(lp1330
sg234
(lp1331
sg35
(lp1332
ssg242
Nsg243
Nsg244
I0
sg57
V663093413278019584
p1333
sg246
I00
sg247
g1286
sg248
Nsg249
Nsg79
g1307
sg87
VSat Nov 07 20:39:24 +0000 2015
p1334
sg252
Nsg253
Nsg254
(dp1335
g256
Ven
p1336
sg258
Vrecent
p1337
sssg260
g1335
sg261
Nsg262
Nsg31
g1313
sg263
Nsg264
Nsg99
g1333
sg265
I00
sg266
Nsg267
I0
sg268
Nsbag0
(g4
g5
Ntp1338
Rp1339
(dp1340
g9
I00
sg10
Nsg11
I00
sg12
VBest outperformers ranked 80-85 $HBI $EXLS $SGMS $COSI $RELV
p1341
sg14
Vhttp://www.mokrari.com
p1342
sg17
I00
sg18
Nsg19
g0
(g20
g5
Ntp1343
Rp1344
(dp1345
g24
I00
sg25
I00
sg26
I01
sg27
VDDEEF6
p1346
sg29
I1201107619
sg30
I00
sg31
(dp1347
g86
(dp1348
g35
(lp1349
(dp1350
g86
Vhttp://t.co/Wz9djgYDai
p1351
sg151
(lp1352
I0
aI22
asg153
Vhttp://www.mokrari.com
p1353
sg155
Vmokrari.com
p1354
sassg33
(dp1355
g35
(lp1356
sssg37
Vhttps://pbs.twimg.com/profile_images/3498759038/c00f740ae43a7aa5eaee72e1f2237515_normal.jpeg
p1357
sg39
(dp1358
g41
I00
sg42
I00
sg43
I01
sg44
I00
sg45
I1201107619
sg46
Vhttps://abs.twimg.com/images/themes/theme1/bg.png
p1359
sg48
I00
sg49
V333333
p1360
sg51
g1357
sg52
g1346
sg53
g1347
sg54
I110
sg55
VC0DEED
p1361
sg57
V1201107619
p1362
sg59
VC0DEED
p1363
sg61
I12
sg62
I00
sg63
I-18000
sg64
I8451
sg33
VTweet daily top rated near-term market out-, and underperformers using machine learning models built on decades of financial stmts and complete price history.
p1364
sg66
I182
sg67
g68
sg69
V0084B4
p1365
sg71
Vhttp://pbs.twimg.com/profile_images/3498759038/c00f740ae43a7aa5eaee72e1f2237515_normal.jpeg
p1366
sg73
I00
sg74
I00
sg350
Vhttps://pbs.twimg.com/profile_banners/1201107619/1385126030
p1367
sg75
Vhttp://abs.twimg.com/images/themes/theme1/bg.png
p1368
sg77
Vmokrari
p1369
sg79
Ven
p1370
sg81
I00
sg82
I158
sg83
Vmokrari by @edi_bice
p1371
sg85
I00
sg86
Vhttp://t.co/Wz9djgYDai
p1372
sg87
VWed Feb 20 13:46:31 +0000 2013
p1373
sg89
I00
sg90
VEastern Time (US & Canada)
p1374
sg92
I00
sg93
I01
sg94
I00
ssg95
I00
sg96
g1360
sg97
I110
sg98
g1361
sg99
g1362
sg100
I00
sg101
I12
sg102
I00
sg103
I-18000
sg104
I8451
sg105
g1364
sg106
I182
sg107
g68
sg108
g1365
sg109
g1366
sg110
I00
sg111
I00
sg112
g1363
sg358
g1367
sg113
g1368
sg114
g1369
sg115
g1370
sg116
I00
sg117
I00
sg118
I158
sg119
g1371
sg120
g1372
sg121
g122
(S'\x07\xdd\x02\x14\r.\x1f\x00\x00\x00'
p1375
tp1376
Rp1377
sg126
g1359
sg127
g1374
sg128
I00
sg129
I01
sg130
I00
sbsg131
Nsg29
L662746120993550336L
sg132
I0
sg133
Vmokrari short-term predictor
p1378
sg115
Vde
p1379
sg181
g1344
sg121
g122
(S"\x07\xdf\x0b\x06\x15'\x17\x00\x00\x00"
p1380
tp1381
Rp1382
sg39
(dp1383
g186
Nsg187
I00
sg188
g1341
sg189
I00
sg190
Nsg45
L662746120993550336L
sg191
I0
sg192
V<a href="http://www.mokrari.com" rel="nofollow">mokrari short-term predictor</a>
p1384
sg194
I00
sg195
Nsg53
(dp1385
g197
(lp1386
(dp1387
g151
(lp1388
I32
aI36
asg188
VHBI
p1389
sa(dp1390
g151
(lp1391
I37
aI42
asg188
VEXLS
p1392
sa(dp1393
g151
(lp1394
I43
aI48
asg188
VSGMS
p1395
sa(dp1396
g151
(lp1397
I49
aI54
asg188
VCOSI
p1398
sa(dp1399
g151
(lp1400
I55
aI60
asg188
VRELV
p1401
sasg232
(lp1402
sg234
(lp1403
sg35
(lp1404
ssg242
Nsg243
Nsg244
I0
sg57
V662746120993550336
p1405
sg246
I00
sg247
g1358
sg248
Nsg249
Nsg79
g1379
sg87
VFri Nov 06 21:39:23 +0000 2015
p1406
sg252
Nsg253
Nsg254
(dp1407
g256
Vde
p1408
sg258
Vrecent
p1409
sssg260
g1407
sg261
Nsg262
Nsg31
g1385
sg263
Nsg264
Nsg99
g1405
sg265
I00
sg266
Nsg267
I0
sg268
Nsbag0
(g4
g5
Ntp1410
Rp1411
(dp1412
g9
I00
sg10
Nsg11
I00
sg12
VExlService Holdings Given Average Recommendation of \u201cBuy\u201d by Analysts $EXLS https://t.co/h3MbOfjbza
p1413
sg14
Vhttp://ifttt.com
p1414
sg16
I00
sg17
I00
sg18
Nsg19
g0
(g20
g5
Ntp1415
Rp1416
(dp1417
g24
I00
sg25
I00
sg26
I01
sg27
VDDEEF6
p1418
sg29
L2920258887L
sg30
I00
sg31
(dp1419
g33
(dp1420
g35
(lp1421
sssg37
Vhttps://abs.twimg.com/sticky/default_profile_images/default_profile_0_normal.png
p1422
sg39
(dp1423
g41
I00
sg42
I00
sg43
I01
sg44
I01
sg45
L2920258887L
sg46
Vhttps://abs.twimg.com/images/themes/theme1/bg.png
p1424
sg48
I00
sg49
V333333
p1425
sg51
g1422
sg52
g1418
sg53
g1419
sg54
I1021
sg55
VC0DEED
p1426
sg57
V2920258887
p1427
sg59
VC0DEED
p1428
sg61
I39
sg62
I00
sg63
Nsg64
I170284
sg33
g68
sg66
I40
sg67
g68
sg69
V0084B4
p1429
sg71
Vhttp://abs.twimg.com/sticky/default_profile_images/default_profile_0_normal.png
p1430
sg73
I00
sg74
I00
sg75
Vhttp://abs.twimg.com/images/themes/theme1/bg.png
p1431
sg77
Vdakotafinancial
p1432
sg79
Ven
p1433
sg81
I00
sg82
I0
sg83
VDakota Financial 
p1434
sg85
I00
sg86
Nsg87
VSat Dec 13 20:48:14 +0000 2014
p1435
sg89
I00
sg90
Nsg92
I00
sg93
I01
sg94
I00
ssg95
I00
sg96
g1425
sg97
I1021
sg98
g1426
sg99
g1427
sg100
I01
sg101
I39
sg102
I00
sg103
Nsg104
I170284
sg105
g68
sg106
I40
sg107
g68
sg108
g1429
sg109
g1430
sg110
I00
sg111
I00
sg112
g1428
sg113
g1431
sg114
g1432
sg115
g1433
sg116
I00
sg117
I00
sg118
I0
sg119
g1434
sg120
Nsg121
g122
(S'\x07\xde\x0c\r\x140\x0e\x00\x00\x00'
p1436
tp1437
Rp1438
sg126
g1424
sg127
Nsg128
I00
sg129
I01
sg130
I00
sbsg131
Nsg29
L662667584257568768L
sg132
I0
sg133
VIFTTT
p1439
sg115
Ven
p1440
sg181
g1416
sg121
g122
(S'\x07\xdf\x0b\x06\x10\x1b\x12\x00\x00\x00'
p1441
tp1442
Rp1443
sg39
(dp1444
g186
Nsg187
I00
sg188
g1413
sg189
I00
sg190
Nsg45
L662667584257568768L
sg191
I0
sg192
V<a href="http://ifttt.com" rel="nofollow">IFTTT</a>
p1445
sg194
I00
sg195
Nsg53
(dp1446
g197
(lp1447
(dp1448
g151
(lp1449
I70
aI75
asg188
VEXLS
p1450
sasg232
(lp1451
sg234
(lp1452
sg35
(lp1453
(dp1454
g86
Vhttps://t.co/h3MbOfjbza
p1455
sg151
(lp1456
I76
aI99
asg153
Vhttp://ift.tt/1LVBAPN
p1457
sg155
Vift.tt/1LVBAPN
p1458
sassg242
Nsg243
Nsg244
I0
sg57
V662667584257568768
p1459
sg246
I00
sg247
g1423
sg248
Nsg249
Nsg250
I00
sg79
g1440
sg87
VFri Nov 06 16:27:18 +0000 2015
p1460
sg252
Nsg253
Nsg254
(dp1461
g256
Ven
p1462
sg258
Vrecent
p1463
sssg260
g1461
sg261
Nsg262
Nsg31
g1446
sg263
Nsg264
Nsg99
g1459
sg265
I00
sg266
Nsg267
I0
sg268
Nsbag0
(g4
g5
Ntp1464
Rp1465
(dp1466
g9
I00
sg10
Nsg11
I00
sg12
V$EXLS:\u000a\u000aExlService Holdings Given Average Recommendation of \u201cBuy\u201d by \u2026:\u000a\u000ahttps://t.co/tIEYccyKEQ
p1467
sg14
Vhttp://fnsappbg.blogspot.com/
p1468
sg16
I00
sg17
I00
sg18
Nsg19
g0
(g20
g5
Ntp1469
Rp1470
(dp1471
g24
I00
sg25
I00
sg26
I01
sg27
VDDEEF6
p1472
sg29
L2881595931L
sg30
I00
sg31
(dp1473
g33
(dp1474
g35
(lp1475
sssg37
Vhttps://pbs.twimg.com/profile_images/542392174428434432/PfyzCfya_normal.jpeg
p1476
sg39
(dp1477
g41
I00
sg42
I00
sg43
I01
sg44
I00
sg45
L2881595931L
sg46
Vhttps://abs.twimg.com/images/themes/theme1/bg.png
p1478
sg48
I00
sg49
V333333
p1479
sg51
g1476
sg52
g1472
sg53
g1473
sg54
I593
sg55
VC0DEED
p1480
sg57
V2881595931
p1481
sg59
VC0DEED
p1482
sg61
I90
sg62
I00
sg63
I-18000
sg64
I235206
sg33
g68
sg66
I6
sg67
g68
sg69
V0084B4
p1483
sg71
Vhttp://pbs.twimg.com/profile_images/542392174428434432/PfyzCfya_normal.jpeg
p1484
sg73
I00
sg74
I00
sg75
Vhttp://abs.twimg.com/images/themes/theme1/bg.png
p1485
sg77
VProVesting
p1486
sg79
Ven
p1487
sg81
I00
sg82
I0
sg83
VProVesting
p1488
sg85
I00
sg86
Nsg87
VMon Nov 17 20:15:38 +0000 2014
p1489
sg89
I00
sg90
VEastern Time (US & Canada)
p1490
sg92
I00
sg93
I01
sg94
I00
ssg95
I00
sg96
g1479
sg97
I593
sg98
g1480
sg99
g1481
sg100
I00
sg101
I90
sg102
I00
sg103
I-18000
sg104
I235206
sg105
g68
sg106
I6
sg107
g68
sg108
g1483
sg109
g1484
sg110
I00
sg111
I00
sg112
g1482
sg113
g1485
sg114
g1486
sg115
g1487
sg116
I00
sg117
I00
sg118
I0
sg119
g1488
sg120
Nsg121
g122
(S'\x07\xde\x0b\x11\x14\x0f&\x00\x00\x00'
p1491
tp1492
Rp1493
sg126
g1478
sg127
g1490
sg128
I00
sg129
I01
sg130
I00
sbsg131
Nsg29
L662667024083087360L
sg132
I0
sg133
VFNS_APP
p1494
sg115
Ven
p1495
sg181
g1470
sg121
g122
(S'\x07\xdf\x0b\x06\x10\x19\x04\x00\x00\x00'
p1496
tp1497
Rp1498
sg39
(dp1499
g186
Nsg187
I00
sg188
V$EXLS:\u000a\u000aExlService Holdings Given Average Recommendation of \u201cBuy\u201d by \u2026:\u000a\u000ahttps://t.co/tIEYccyKEQ
p1500
sg189
I00
sg190
Nsg45
L662667024083087360L
sg191
I0
sg192
V<a href="http://fnsappbg.blogspot.com/" rel="nofollow">FNS_APP</a>
p1501
sg194
I00
sg195
Nsg53
(dp1502
g197
(lp1503
(dp1504
g151
(lp1505
I0
aI5
asg188
VEXLS
p1506
sasg232
(lp1507
sg234
(lp1508
sg35
(lp1509
(dp1510
g86
Vhttps://t.co/tIEYccyKEQ
p1511
sg151
(lp1512
I73
aI96
asg153
Vhttp://StockNewsHour.com/exls-exlservice-holdings-given-average-recommendation-of-buy-by/
p1513
sg155
VStockNewsHour.com/exls-exlservic\u2026
p1514
sassg242
Nsg243
Nsg244
I0
sg57
V662667024083087360
p1515
sg246
I00
sg247
g1477
sg248
Nsg249
Nsg250
I00
sg79
g1495
sg87
VFri Nov 06 16:25:04 +0000 2015
p1516
sg252
Nsg253
Nsg254
(dp1517
g256
Ven
p1518
sg258
Vrecent
p1519
sssg260
g1517
sg261
Nsg262
Nsg31
g1502
sg263
Nsg264
Nsg99
g1515
sg265
I00
sg266
Nsg267
I0
sg268
Nsbag0
(g4
g5
Ntp1520
Rp1521
(dp1522
g9
I00
sg10
Nsg11
I00
sg12
VExlService Holdings Given Average Recommendation of \u201cBuy\u201d by Analysts $EXLS https://t.co/JJ0LBtDwz2 #acn
p1523
sg14
Vhttp://ifttt.com
p1524
sg16
I00
sg17
I00
sg18
Nsg19
g0
(g20
g5
Ntp1525
Rp1526
(dp1527
g24
I00
sg25
I00
sg26
I01
sg27
VE8E8E8
p1528
sg29
I52210566
sg30
I00
sg31
(dp1529
g86
(dp1530
g35
(lp1531
(dp1532
g86
Vhttp://t.co/odTc3pvcAe
p1533
sg151
(lp1534
I0
aI22
asg153
Vhttp://www.americanconsumernews.com/
p1535
sg155
Vamericanconsumernews.com
p1536
sassg33
(dp1537
g35
(lp1538
sssg37
Vhttps://pbs.twimg.com/profile_images/289298274/text_normal.jpg
p1539
sg39
(dp1540
g41
I00
sg42
I00
sg43
I01
sg44
I00
sg45
I52210566
sg46
Vhttps://pbs.twimg.com/profile_background_images/20558354/back.jpg
p1541
sg48
I00
sg49
V333333
p1542
sg51
g1539
sg52
g1528
sg53
g1529
sg54
I1114
sg55
VADADAD
p1543
sg57
V52210566
p1544
sg59
V9AE4E8
p1545
sg61
I96
sg62
I00
sg63
I-21600
sg64
I580839
sg33
VPersonal Finance and Consumer Tips
p1546
sg66
I1412
sg67
VSioux Falls, SD
p1547
sg69
V0084B4
p1548
sg71
Vhttp://pbs.twimg.com/profile_images/289298274/text_normal.jpg
p1549
sg73
I00
sg74
I00
sg75
Vhttp://pbs.twimg.com/profile_background_images/20558354/back.jpg
p1550
sg77
VAmConsumerNews
p1551
sg79
Ven
p1552
sg81
I00
sg82
I0
sg83
VConsumer News
p1553
sg85
I00
sg86
Vhttp://t.co/odTc3pvcAe
p1554
sg87
VMon Jun 29 22:22:08 +0000 2009
p1555
sg89
I00
sg90
VCentral Time (US & Canada)
p1556
sg92
I00
sg93
I00
sg94
I00
ssg95
I00
sg96
g1542
sg97
I1114
sg98
g1543
sg99
g1544
sg100
I00
sg101
I96
sg102
I00
sg103
I-21600
sg104
I580839
sg105
g1546
sg106
I1412
sg107
g1547
sg108
g1548
sg109
g1549
sg110
I00
sg111
I00
sg112
g1545
sg113
g1550
sg114
g1551
sg115
g1552
sg116
I00
sg117
I00
sg118
I0
sg119
g1553
sg120
g1554
sg121
g122
(S'\x07\xd9\x06\x1d\x16\x16\x08\x00\x00\x00'
p1557
tp1558
Rp1559
sg126
g1541
sg127
g1556
sg128
I00
sg129
I00
sg130
I00
sbsg131
Nsg29
L662666851474870272L
sg132
I0
sg133
VIFTTT
p1560
sg115
Ven
p1561
sg181
g1526
sg121
g122
(S'\x07\xdf\x0b\x06\x10\x18\x17\x00\x00\x00'
p1562
tp1563
Rp1564
sg39
(dp1565
g186
Nsg187
I00
sg188
g1523
sg189
I00
sg190
Nsg45
L662666851474870272L
sg191
I0
sg192
V<a href="http://ifttt.com" rel="nofollow">IFTTT</a>
p1566
sg194
I00
sg195
Nsg53
(dp1567
g197
(lp1568
(dp1569
g151
(lp1570
I70
aI75
asg188
VEXLS
p1571
sasg232
(lp1572
sg234
(lp1573
(dp1574
g151
(lp1575
I100
aI104
asg188
Vacn
p1576
sasg35
(lp1577
(dp1578
g86
Vhttps://t.co/JJ0LBtDwz2
p1579
sg151
(lp1580
I76
aI99
asg153
Vhttp://ift.tt/1L1i8NQ
p1581
sg155
Vift.tt/1L1i8NQ
p1582
sassg242
Nsg243
Nsg244
I0
sg57
V662666851474870272
p1583
sg246
I00
sg247
g1540
sg248
Nsg249
Nsg250
I00
sg79
g1561
sg87
VFri Nov 06 16:24:23 +0000 2015
p1584
sg252
Nsg253
Nsg254
(dp1585
g256
Ven
p1586
sg258
Vrecent
p1587
sssg260
g1585
sg261
Nsg262
Nsg31
g1567
sg263
Nsg264
Nsg99
g1583
sg265
I00
sg266
Nsg267
I0
sg268
Nsbag0
(g4
g5
Ntp1588
Rp1589
(dp1590
g9
I00
sg10
Nsg11
I00
sg12
V$EXLS:\u000a\u000aAnalyst Price Target Update on ExlService Holdings, Inc.:\u000a\u000ahttps://t.co/WvIpLD0zbH
p1591
sg14
Vhttp://www.stocknewswires.com
p1592
sg16
I00
sg17
I00
sg18
Nsg19
g0
(g20
g5
Ntp1593
Rp1594
(dp1595
g24
I00
sg25
I00
sg26
I01
sg27
VDAECF4
p1596
sg29
L2341445778L
sg30
I00
sg31
(dp1597
g33
(dp1598
g35
(lp1599
sssg37
Vhttps://pbs.twimg.com/profile_images/542238326397227008/UfZ0ulTf_normal.jpeg
p1600
sg39
(dp1601
g41
I00
sg42
I00
sg43
I01
sg44
I00
sg45
L2341445778L
sg46
Vhttps://abs.twimg.com/images/themes/theme2/bg.gif
p1602
sg48
I00
sg49
V663B12
p1603
sg51
g1600
sg52
g1596
sg53
g1597
sg54
I660
sg55
VC6E2EE
p1604
sg57
V2341445778
p1605
sg59
VC6E2EE
p1606
sg61
I107
sg62
I00
sg63
I-14400
sg64
I236872
sg33
VInvest like a fish
p1607
sg66
I9
sg67
VUnited States
p1608
sg69
V1F98C7
p1609
sg71
Vhttp://pbs.twimg.com/profile_images/542238326397227008/UfZ0ulTf_normal.jpeg
p1610
sg73
I00
sg74
I00
sg75
Vhttp://abs.twimg.com/images/themes/theme2/bg.gif
p1611
sg77
VStockNewsWires
p1612
sg79
Ven
p1613
sg81
I00
sg82
I0
sg83
VStockNewsWires
p1614
sg85
I00
sg86
Nsg87
VThu Feb 13 05:31:52 +0000 2014
p1615
sg89
I00
sg90
VAtlantic Time (Canada)
p1616
sg92
I00
sg93
I00
sg94
I00
ssg95
I00
sg96
g1603
sg97
I660
sg98
g1604
sg99
g1605
sg100
I00
sg101
I107
sg102
I00
sg103
I-14400
sg104
I236872
sg105
g1607
sg106
I9
sg107
g1608
sg108
g1609
sg109
g1610
sg110
I00
sg111
I00
sg112
g1606
sg113
g1611
sg114
g1612
sg115
g1613
sg116
I00
sg117
I00
sg118
I0
sg119
g1614
sg120
Nsg121
g122
(S'\x07\xde\x02\r\x05\x1f4\x00\x00\x00'
p1617
tp1618
Rp1619
sg126
g1602
sg127
g1616
sg128
I00
sg129
I00
sg130
I00
sbsg131
Nsg29
L662653711177662464L
sg132
I0
sg133
VStockNewsWires
p1620
sg115
Ven
p1621
sg181
g1594
sg121
g122
(S'\x07\xdf\x0b\x06\x0f \n\x00\x00\x00'
p1622
tp1623
Rp1624
sg39
(dp1625
g186
Nsg187
I00
sg188
V$EXLS:\u000a\u000aAnalyst Price Target Update on ExlService Holdings, Inc.:\u000a\u000ahttps://t.co/WvIpLD0zbH
p1626
sg189
I00
sg190
Nsg45
L662653711177662464L
sg191
I0
sg192
V<a href="http://www.stocknewswires.com" rel="nofollow">StockNewsWires</a>
p1627
sg194
I00
sg195
Nsg53
(dp1628
g197
(lp1629
(dp1630
g151
(lp1631
I0
aI5
asg188
VEXLS
p1632
sasg232
(lp1633
sg234
(lp1634
sg35
(lp1635
(dp1636
g86
Vhttps://t.co/WvIpLD0zbH
p1637
sg151
(lp1638
I67
aI90
asg153
Vhttp://StockNewsHour.com/exls-analyst-price-target-update-on-exlservice-holdings-inc/
p1639
sg155
VStockNewsHour.com/exls-analyst-p\u2026
p1640
sassg242
Nsg243
Nsg244
I0
sg57
V662653711177662464
p1641
sg246
I00
sg247
g1601
sg248
Nsg249
Nsg250
I00
sg79
g1621
sg87
VFri Nov 06 15:32:10 +0000 2015
p1642
sg252
Nsg253
Nsg254
(dp1643
g256
Ven
p1644
sg258
Vrecent
p1645
sssg260
g1643
sg261
Nsg262
Nsg31
g1628
sg263
Nsg264
Nsg99
g1641
sg265
I00
sg266
Nsg267
I0
sg268
Nsbag0
(g4
g5
Ntp1646
Rp1647
(dp1648
g9
I00
sg10
Nsg11
I00
sg12
VSFTW Investor top undervalued stock list: $EXLS Exlservice Holdings, Inc. (SS: 92) https://t.co/vmM5OW6hgh
p1649
sg14
Vhttp://stocksfortheweek.com/
p1650
sg16
I00
sg17
I00
sg18
Nsg19
g0
(g20
g5
Ntp1651
Rp1652
(dp1653
g24
I00
sg25
I00
sg26
I00
sg27
V000000
p1654
sg29
L3166001923L
sg30
I00
sg31
(dp1655
g86
(dp1656
g35
(lp1657
(dp1658
g86
Vhttp://t.co/NmPg92qIHr
p1659
sg151
(lp1660
I0
aI22
asg153
Vhttp://stocksfortheweek.com/our-apps/
p1661
sg155
Vstocksfortheweek.com/our-apps/
p1662
sassg33
(dp1663
g35
(lp1664
sssg37
Vhttps://pbs.twimg.com/profile_images/605880382462959616/zKMtHKyS_normal.jpg
p1665
sg39
(dp1666
g41
I00
sg42
I00
sg43
I00
sg44
I00
sg45
L3166001923L
sg46
Vhttps://abs.twimg.com/images/themes/theme1/bg.png
p1667
sg48
I00
sg49
V000000
p1668
sg51
g1665
sg52
g1654
sg53
g1655
sg54
I16
sg55
V000000
p1669
sg57
V3166001923
p1670
sg59
V000000
p1671
sg61
I1
sg62
I00
sg63
Nsg64
I1544
sg33
VAllowing investors to monitor investments & discover undervalued stocks across a variety of industries & sectors. From @Stocks_Week. On: iOS, Android, & Web.
p1672
sg66
I27
sg67
VNew York, USA
p1673
sg69
VFA743E
p1674
sg71
Vhttp://pbs.twimg.com/profile_images/605880382462959616/zKMtHKyS_normal.jpg
p1675
sg73
I00
sg74
I00
sg350
Vhttps://pbs.twimg.com/profile_banners/3166001923/1438636322
p1676
sg75
Vhttp://abs.twimg.com/images/themes/theme1/bg.png
p1677
sg77
VSFTW_Investor
p1678
sg79
Ven
p1679
sg81
I00
sg82
I1
sg83
VSFTW Investor App
p1680
sg85
I00
sg86
Vhttp://t.co/NmPg92qIHr
p1681
sg87
VMon Apr 20 22:13:12 +0000 2015
p1682
sg89
I00
sg90
Nsg92
I00
sg93
I00
sg94
I00
ssg95
I00
sg96
g1668
sg97
I16
sg98
g1669
sg99
g1670
sg100
I00
sg101
I1
sg102
I00
sg103
Nsg104
I1544
sg105
g1672
sg106
I27
sg107
g1673
sg108
g1674
sg109
g1675
sg110
I00
sg111
I00
sg112
g1671
sg358
g1676
sg113
g1677
sg114
g1678
sg115
g1679
sg116
I00
sg117
I00
sg118
I1
sg119
g1680
sg120
g1681
sg121
g122
(S'\x07\xdf\x04\x14\x16\r\x0c\x00\x00\x00'
p1683
tp1684
Rp1685
sg126
g1667
sg127
Nsg128
I00
sg129
I00
sg130
I00
sbsg131
Nsg29
L662645191900200961L
sg132
I0
sg133
VSFTW Investor-Top30 Undervalued
p1686
sg115
Ven
p1687
sg181
g1652
sg121
g122
(S'\x07\xdf\x0b\x06\x0e:\x13\x00\x00\x00'
p1688
tp1689
Rp1690
sg39
(dp1691
g186
Nsg187
I00
sg188
g1649
sg189
I00
sg190
Nsg45
L662645191900200961L
sg191
I0
sg192
V<a href="http://stocksfortheweek.com/" rel="nofollow">SFTW Investor-Top30 Undervalued</a>
p1692
sg194
I00
sg195
Nsg53
(dp1693
g197
(lp1694
(dp1695
g151
(lp1696
I42
aI47
asg188
VEXLS
p1697
sasg232
(lp1698
sg234
(lp1699
sg35
(lp1700
(dp1701
g86
Vhttps://t.co/vmM5OW6hgh
p1702
sg151
(lp1703
I83
aI106
asg153
Vhttp://tinyurl.com/ot3gj6t
p1704
sg155
Vtinyurl.com/ot3gj6t
p1705
sassg242
Nsg243
Nsg244
I0
sg57
V662645191900200961
p1706
sg246
I00
sg247
g1666
sg248
Nsg249
Nsg250
I00
sg79
g1687
sg87
VFri Nov 06 14:58:19 +0000 2015
p1707
sg252
Nsg253
Nsg254
(dp1708
g256
Ven
p1709
sg258
Vrecent
p1710
sssg260
g1708
sg261
Nsg262
Nsg31
g1693
sg263
Nsg264
Nsg99
g1706
sg265
I00
sg266
Nsg267
I0
sg268
Nsbag0
(g4
g5
Ntp1711
Rp1712
(dp1713
g9
I00
sg10
Nsg11
I00
sg12
V$EXLS is rated BUY, 7.7% upside by Wall Street analysts based on average ratings/targets https://t.co/bK5wOJ4djZ https://t.co/JPs74nngaF
p1714
sg14
Vhttp://investwithconf.blogspot.com
p1715
sg16
I00
sg17
I00
sg18
Nsg19
g0
(g20
g5
Ntp1716
Rp1717
(dp1718
g24
I00
sg25
I00
sg26
I01
sg27
VF6FFD1
p1719
sg29
L2344623210L
sg30
I00
sg31
(dp1720
g33
(dp1721
g35
(lp1722
sssg37
Vhttps://pbs.twimg.com/profile_images/597618707721035778/xao5eh5P_normal.jpg
p1723
sg39
(dp1724
g41
I00
sg42
I00
sg43
I01
sg44
I00
sg45
L2344623210L
sg46
Vhttps://abs.twimg.com/images/themes/theme19/bg.gif
p1725
sg48
I00
sg49
V333333
p1726
sg51
g1723
sg52
g1719
sg53
g1720
sg54
I256
sg55
VFFF8AD
p1727
sg57
V2344623210
p1728
sg59
VFFF04D
p1729
sg61
I16
sg62
I00
sg63
I-18000
sg64
I67447
sg33
g68
sg66
I0
sg67
g68
sg69
V0099CC
p1730
sg71
Vhttp://pbs.twimg.com/profile_images/597618707721035778/xao5eh5P_normal.jpg
p1731
sg73
I00
sg74
I00
sg75
Vhttp://abs.twimg.com/images/themes/theme19/bg.gif
p1732
sg77
VInvestWithConf
p1733
sg79
Ven
p1734
sg81
I00
sg82
I0
sg83
VInvestWithConf
p1735
sg85
I00
sg86
Nsg87
VSat Feb 15 05:52:28 +0000 2014
p1736
sg89
I00
sg90
VEastern Time (US & Canada)
p1737
sg92
I00
sg93
I00
sg94
I00
ssg95
I00
sg96
g1726
sg97
I256
sg98
g1727
sg99
g1728
sg100
I00
sg101
I16
sg102
I00
sg103
I-18000
sg104
I67447
sg105
g68
sg106
I0
sg107
g68
sg108
g1730
sg109
g1731
sg110
I00
sg111
I00
sg112
g1729
sg113
g1732
sg114
g1733
sg115
g1734
sg116
I00
sg117
I00
sg118
I0
sg119
g1735
sg120
Nsg121
g122
(S'\x07\xde\x02\x0f\x054\x1c\x00\x00\x00'
p1738
tp1739
Rp1740
sg126
g1725
sg127
g1737
sg128
I00
sg129
I00
sg130
I00
sbsg131
Nsg29
L662427687437410304L
sg132
I0
sg133
VIWCE
p1741
sg115
Ven
p1742
sg181
g1717
sg121
g122
(S'\x07\xdf\x0b\x06\x00"\x02\x00\x00\x00'
p1743
tp1744
Rp1745
sg39
(dp1746
g186
Nsg187
I00
sg188
g1714
sg189
I00
sg190
Nsg45
L662427687437410304L
sg191
I0
sg192
V<a href="http://investwithconf.blogspot.com" rel="nofollow">IWCE</a>
p1747
sg194
I00
sg195
Nsg53
(dp1748
g197
(lp1749
(dp1750
g151
(lp1751
I0
aI5
asg188
VEXLS
p1752
sasg232
(lp1753
sg234
(lp1754
sg35
(lp1755
(dp1756
g86
Vhttps://t.co/bK5wOJ4djZ
p1757
sg151
(lp1758
I89
aI112
asg153
Vhttp://manyratings.com/EXLS
p1759
sg155
Vmanyratings.com/EXLS
p1760
sasg671
(lp1761
(dp1762
g153
Vhttp://twitter.com/InvestWithConf/status/662427687437410304/photo/1
p1763
sg155
Vpic.twitter.com/JPs74nngaF
p1764
sg86
Vhttps://t.co/JPs74nngaF
p1765
sg677
Vhttps://pbs.twimg.com/media/CTFqeNJW4AAsJCj.jpg
p1766
sg57
V662427687357702144
p1767
sg680
(dp1768
g682
(dp1769
g684
I4
sg685
Vfit
p1770
sg687
I4
ssg688
(dp1771
g684
I4
sg685
Vfit
p1772
sg687
I4
ssg691
(dp1773
g684
I4
sg685
Vfit
p1774
sg687
I4
ssg694
(dp1775
g684
I4
sg685
Vcrop
p1776
sg687
I4
sssg151
(lp1777
I113
aI136
asg698
Vphoto
p1778
sg45
L662427687357702144L
sg700
Vhttp://pbs.twimg.com/media/CTFqeNJW4AAsJCj.jpg
p1779
sassg242
Nsg243
Nsg244
I0
sg57
V662427687437410304
p1780
sg246
I00
sg247
g1724
sg248
Nsg249
Nsg250
I00
sg79
g1742
sg87
VFri Nov 06 00:34:02 +0000 2015
p1781
sg252
Nsg253
Nsg254
(dp1782
g256
Ven
p1783
sg258
Vrecent
p1784
sssg260
g1782
sg261
Nsg262
Nsg31
g1748
sg263
Nsg264
Nsg99
g1780
sg265
I00
sg266
Nsg267
I0
sg268
Nsbag0
(g4
g5
Ntp1785
Rp1786
(dp1787
g9
I00
sg10
Nsg11
I00
sg12
VExlService Holdings CEO Sells $3,877,218.09 in Stock $EXLS https://t.co/M5NgaMuZuB
p1788
sg14
Vhttp://ifttt.com
p1789
sg16
I00
sg17
I00
sg18
Nsg19
g0
(g20
g5
Ntp1790
Rp1791
(dp1792
g24
I00
sg25
I00
sg26
I01
sg27
VDDEEF6
p1793
sg29
L2525892205L
sg30
I00
sg31
(dp1794
g86
(dp1795
g35
(lp1796
(dp1797
g86
Vhttp://t.co/oT0s8pX8T2
p1798
sg151
(lp1799
I0
aI22
asg153
Vhttp://www.intercooleronline.com
p1800
sg155
Vintercooleronline.com
p1801
sassg33
(dp1802
g35
(lp1803
sssg37
Vhttps://pbs.twimg.com/profile_images/471038514675474432/wc-6YgXp_normal.jpeg
p1804
sg39
(dp1805
g41
I00
sg42
I00
sg43
I01
sg44
I00
sg45
L2525892205L
sg46
Vhttps://abs.twimg.com/images/themes/theme1/bg.png
p1806
sg48
I00
sg49
V333333
p1807
sg51
g1804
sg52
g1793
sg53
g1794
sg54
I414
sg55
VC0DEED
p1808
sg57
V2525892205
p1809
sg59
VC0DEED
p1810
sg61
I22
sg62
I00
sg63
Nsg64
I117976
sg33
g68
sg66
I6
sg67
VFlorida
p1811
sg69
V0084B4
p1812
sg71
Vhttp://pbs.twimg.com/profile_images/471038514675474432/wc-6YgXp_normal.jpeg
p1813
sg73
I00
sg74
I00
sg350
Vhttps://pbs.twimg.com/profile_banners/2525892205/1401139391
p1814
sg75
Vhttp://abs.twimg.com/images/themes/theme1/bg.png
p1815
sg77
Vintercooleronli
p1816
sg79
Ven
p1817
sg81
I00
sg82
I0
sg83
VInterCooler
p1818
sg85
I00
sg86
Vhttp://t.co/oT0s8pX8T2
p1819
sg87
VMon May 26 21:20:18 +0000 2014
p1820
sg89
I00
sg90
Nsg92
I00
sg93
I01
sg94
I00
ssg95
I00
sg96
g1807
sg97
I414
sg98
g1808
sg99
g1809
sg100
I00
sg101
I22
sg102
I00
sg103
Nsg104
I117976
sg105
g68
sg106
I6
sg107
g1811
sg108
g1812
sg109
g1813
sg110
I00
sg111
I00
sg112
g1810
sg358
g1814
sg113
g1815
sg114
g1816
sg115
g1817
sg116
I00
sg117
I00
sg118
I0
sg119
g1818
sg120
g1819
sg121
g122
(S'\x07\xde\x05\x1a\x15\x14\x12\x00\x00\x00'
p1821
tp1822
Rp1823
sg126
g1806
sg127
Nsg128
I00
sg129
I01
sg130
I00
sbsg131
Nsg29
L662282163828752384L
sg132
I0
sg133
VIFTTT
p1824
sg115
Ven
p1825
sg181
g1791
sg121
g122
(S'\x07\xdf\x0b\x05\x0e7/\x00\x00\x00'
p1826
tp1827
Rp1828
sg39
(dp1829
g186
Nsg187
I00
sg188
g1788
sg189
I00
sg190
Nsg45
L662282163828752384L
sg191
I0
sg192
V<a href="http://ifttt.com" rel="nofollow">IFTTT</a>
p1830
sg194
I00
sg195
Nsg53
(dp1831
g197
(lp1832
(dp1833
g151
(lp1834
I53
aI58
asg188
VEXLS
p1835
sasg232
(lp1836
sg234
(lp1837
sg35
(lp1838
(dp1839
g86
Vhttps://t.co/M5NgaMuZuB
p1840
sg151
(lp1841
I59
aI82
asg153
Vhttp://ift.tt/1Q6Vewd
p1842
sg155
Vift.tt/1Q6Vewd
p1843
sassg242
Nsg243
Nsg244
I0
sg57
V662282163828752384
p1844
sg246
I00
sg247
g1805
sg248
Nsg249
Nsg250
I00
sg79
g1825
sg87
VThu Nov 05 14:55:47 +0000 2015
p1845
sg252
Nsg253
Nsg254
(dp1846
g256
Ven
p1847
sg258
Vrecent
p1848
sssg260
g1846
sg261
Nsg262
Nsg31
g1831
sg263
Nsg264
Nsg99
g1844
sg265
I00
sg266
Nsg267
I0
sg268
Nsbag0
(g4
g5
Ntp1849
Rp1850
(dp1851
g9
I00
sg10
Nsg11
I00
sg12
V$EXLS: Analyst action by SunTrust Robinson Humphrey on ExlService Holdings: https://t.co/j8CipDekIi https://t.co/UrIcM2Z239
p1852
sg14
Vhttp://example.com
p1853
sg16
I00
sg17
I00
sg18
Nsg19
g0
(g20
g5
Ntp1854
Rp1855
(dp1856
g24
I00
sg25
I00
sg26
I01
sg27
V95E8EC
p1857
sg29
L2341530906L
sg30
I00
sg31
(dp1858
g33
(dp1859
g35
(lp1860
sssg37
Vhttps://pbs.twimg.com/profile_images/601131382060945410/KYX9mWKS_normal.jpg
p1861
sg39
(dp1862
g41
I00
sg42
I00
sg43
I01
sg44
I00
sg45
L2341530906L
sg46
Vhttps://abs.twimg.com/images/themes/theme4/bg.gif
p1863
sg48
I00
sg49
V3C3940
p1864
sg51
g1861
sg52
g1857
sg53
g1858
sg54
I177
sg55
V5ED4DC
p1865
sg57
V2341530906
p1866
sg59
V0099B9
p1867
sg61
I25
sg62
I00
sg63
I-14400
sg64
I59937
sg33
g68
sg66
I0
sg67
g68
sg69
V0099B9
p1868
sg71
Vhttp://pbs.twimg.com/profile_images/601131382060945410/KYX9mWKS_normal.jpg
p1869
sg73
I00
sg74
I00
sg75
Vhttp://abs.twimg.com/images/themes/theme4/bg.gif
p1870
sg77
VAnalystActions
p1871
sg79
Ven
p1872
sg81
I00
sg82
I0
sg83
VAnalyst Actions
p1873
sg85
I00
sg86
Nsg87
VThu Feb 13 06:57:40 +0000 2014
p1874
sg89
I00
sg90
VAtlantic Time (Canada)
p1875
sg92
I00
sg93
I00
sg94
I00
ssg95
I00
sg96
g1864
sg97
I177
sg98
g1865
sg99
g1866
sg100
I00
sg101
I25
sg102
I00
sg103
I-14400
sg104
I59937
sg105
g68
sg106
I0
sg107
g68
sg108
g1868
sg109
g1869
sg110
I00
sg111
I00
sg112
g1867
sg113
g1870
sg114
g1871
sg115
g1872
sg116
I00
sg117
I00
sg118
I0
sg119
g1873
sg120
Nsg121
g122
(S'\x07\xde\x02\r\x069(\x00\x00\x00'
p1876
tp1877
Rp1878
sg126
g1863
sg127
g1875
sg128
I00
sg129
I00
sg130
I00
sbsg131
Nsg29
L662250266985676800L
sg132
I0
sg133
VAnalystActionsAA
p1879
sg115
Ven
p1880
sg181
g1855
sg121
g122
(S'\x07\xdf\x0b\x05\x0c1\x02\x00\x00\x00'
p1881
tp1882
Rp1883
sg39
(dp1884
g186
Nsg187
I00
sg188
g1852
sg189
I00
sg190
Nsg45
L662250266985676800L
sg191
I0
sg192
V<a href="http://example.com" rel="nofollow">AnalystActionsAA</a>
p1885
sg194
I00
sg195
Nsg53
(dp1886
g197
(lp1887
(dp1888
g151
(lp1889
I0
aI5
asg188
VEXLS
p1890
sasg232
(lp1891
sg234
(lp1892
sg35
(lp1893
(dp1894
g86
Vhttps://t.co/j8CipDekIi
p1895
sg151
(lp1896
I76
aI99
asg153
Vhttp://stockratingreport.com/suntrust-robinson-humphrey-maintains-exls-10-30-2015
p1897
sg155
Vstockratingreport.com/suntrust-robin\u2026
p1898
sasg671
(lp1899
(dp1900
g153
Vhttp://twitter.com/AnalystActions/status/662250266985676800/photo/1
p1901
sg155
Vpic.twitter.com/UrIcM2Z239
p1902
sg86
Vhttps://t.co/UrIcM2Z239
p1903
sg677
Vhttps://pbs.twimg.com/media/CTDJG-kXAAADnPe.jpg
p1904
sg57
V662250266935361536
p1905
sg680
(dp1906
g682
(dp1907
g684
I4
sg685
Vfit
p1908
sg687
I4
ssg688
(dp1909
g684
I4
sg685
Vfit
p1910
sg687
I4
ssg691
(dp1911
g684
I4
sg685
Vfit
p1912
sg687
I4
ssg694
(dp1913
g684
I4
sg685
Vcrop
p1914
sg687
I4
sssg151
(lp1915
I100
aI123
asg698
Vphoto
p1916
sg45
L662250266935361536L
sg700
Vhttp://pbs.twimg.com/media/CTDJG-kXAAADnPe.jpg
p1917
sassg242
Nsg243
Nsg244
I0
sg57
V662250266985676800
p1918
sg246
I00
sg247
g1862
sg248
Nsg249
Nsg250
I00
sg79
g1880
sg87
VThu Nov 05 12:49:02 +0000 2015
p1919
sg252
Nsg253
Nsg254
(dp1920
g256
Ven
p1921
sg258
Vrecent
p1922
sssg260
g1920
sg261
Nsg262
Nsg31
g1886
sg263
Nsg264
Nsg99
g1918
sg265
I00
sg266
Nsg267
I0
sg268
Nsbag0
(g4
g5
Ntp1923
Rp1924
(dp1925
g9
I00
sg10
Nsg11
I00
sg12
V$EXLS:\u000a\u000aExlservice Holdings, Inc. (EXLS) Files Form 4 Insider Selling : Villa \u2026:\u000a\u000ahttps://t.co/XQM6jWHFdJ
p1926
sg14
Vhttp://www.newsflowing.com
p1927
sg16
I00
sg17
I00
sg18
Nsg19
g0
(g20
g5
Ntp1928
Rp1929
(dp1930
g24
I00
sg25
I00
sg26
I01
sg27
VE6F6F9
p1931
sg29
L2342215530L
sg30
I00
sg31
(dp1932
g33
(dp1933
g35
(lp1934
sssg37
Vhttps://pbs.twimg.com/profile_images/544036492876591104/7QJIB-XK_normal.jpeg
p1935
sg39
(dp1936
g41
I00
sg42
I00
sg43
I01
sg44
I00
sg45
L2342215530L
sg46
Vhttps://abs.twimg.com/images/themes/theme17/bg.gif
p1937
sg48
I00
sg49
V333333
p1938
sg51
g1935
sg52
g1931
sg53
g1932
sg54
I465
sg55
VDBE9ED
p1939
sg57
V2342215530
p1940
sg59
VDBE9ED
p1941
sg61
I89
sg62
I00
sg63
I-14400
sg64
I193001
sg33
g68
sg66
I0
sg67
g68
sg69
VCC3366
p1942
sg71
Vhttp://pbs.twimg.com/profile_images/544036492876591104/7QJIB-XK_normal.jpeg
p1943
sg73
I00
sg74
I00
sg75
Vhttp://abs.twimg.com/images/themes/theme17/bg.gif
p1944
sg77
Vnewswithvalue
p1945
sg79
Ven
p1946
sg81
I00
sg82
I0
sg83
VBreaking News Now
p1947
sg85
I00
sg86
Nsg87
VThu Feb 13 16:14:12 +0000 2014
p1948
sg89
I00
sg90
VAtlantic Time (Canada)
p1949
sg92
I00
sg93
I00
sg94
I00
ssg95
I00
sg96
g1938
sg97
I465
sg98
g1939
sg99
g1940
sg100
I00
sg101
I89
sg102
I00
sg103
I-14400
sg104
I193001
sg105
g68
sg106
I0
sg107
g68
sg108
g1942
sg109
g1943
sg110
I00
sg111
I00
sg112
g1941
sg113
g1944
sg114
g1945
sg115
g1946
sg116
I00
sg117
I00
sg118
I0
sg119
g1947
sg120
Nsg121
g122
(S'\x07\xde\x02\r\x10\x0e\x0c\x00\x00\x00'
p1950
tp1951
Rp1952
sg126
g1937
sg127
g1949
sg128
I00
sg129
I00
sg130
I00
sbsg131
Nsg29
L662129726161600512L
sg132
I0
sg133
VNFIG
p1953
sg115
Ven
p1954
sg181
g1929
sg121
g122
(S'\x07\xdf\x0b\x05\x042\x03\x00\x00\x00'
p1955
tp1956
Rp1957
sg39
(dp1958
g186
Nsg187
I00
sg188
V$EXLS:\u000a\u000aExlservice Holdings, Inc. (EXLS) Files Form 4 Insider Selling : Villa \u2026:\u000a\u000ahttps://t.co/XQM6jWHFdJ
p1959
sg189
I00
sg190
Nsg45
L662129726161600512L
sg191
I0
sg192
V<a href="http://www.newsflowing.com" rel="nofollow">NFIG</a>
p1960
sg194
I00
sg195
Nsg53
(dp1961
g197
(lp1962
(dp1963
g151
(lp1964
I0
aI5
asg188
VEXLS
p1965
sasg232
(lp1966
sg234
(lp1967
sg35
(lp1968
(dp1969
g86
Vhttps://t.co/XQM6jWHFdJ
p1970
sg151
(lp1971
I82
aI105
asg153
Vhttp://StockNewsHour.com/exls-exlservice-holdings-inc-exls-files-form-4-insider-selling-villa/
p1972
sg155
VStockNewsHour.com/exls-exlservic\u2026
p1973
sassg242
Nsg243
Nsg244
I0
sg57
V662129726161600512
p1974
sg246
I00
sg247
g1936
sg248
Nsg249
Nsg250
I00
sg79
g1954
sg87
VThu Nov 05 04:50:03 +0000 2015
p1975
sg252
Nsg253
Nsg254
(dp1976
g256
Ven
p1977
sg258
Vrecent
p1978
sssg260
g1976
sg261
Nsg262
Nsg31
g1961
sg263
Nsg264
Nsg99
g1974
sg265
I00
sg266
Nsg267
I0
sg268
Nsbag0
(g4
g5
Ntp1979
Rp1980
(dp1981
g9
I00
sg10
Nsg11
I00
sg12
VImp catalysts 4 MEIP &amp; CALA in d cmg week Here is DD 4 investors:https://t.co/lwSyWTxOEB $GFN $PWE $EXLS $RRM $MHR $ULTR
p1982
sg14
Vhttp://twittimer.com
p1983
sg16
I00
sg17
I00
sg18
Nsg19
g0
(g20
g5
Ntp1984
Rp1985
(dp1986
g24
I00
sg25
I01
sg26
I00
sg27
V000000
p1987
sg29
L3518191635L
sg30
I00
sg31
(dp1988
g86
(dp1989
g35
(lp1990
(dp1991
g86
Vhttps://t.co/ot2Kl5nyub
p1992
sg151
(lp1993
I0
aI23
asg153
Vhttps://groups.google.com/forum/#!forum/jbem777
p1994
sg155
Vgroups.google.com/forum/#!forum/\u2026
p1995
sassg33
(dp1996
g35
(lp1997
sssg37
Vhttps://pbs.twimg.com/profile_images/638885869433196544/C975RWXJ_normal.jpg
p1998
sg39
(dp1999
g41
I00
sg42
I01
sg43
I00
sg44
I00
sg45
L3518191635L
sg46
Vhttps://abs.twimg.com/images/themes/theme1/bg.png
p2000
sg48
I00
sg49
V000000
p2001
sg51
g1998
sg52
g1987
sg53
g1988
sg54
I28
sg55
V000000
p2002
sg57
V3518191635
p2003
sg59
V000000
p2004
sg61
I1
sg62
I00
sg63
I-28800
sg64
I1505
sg33
VHealthcare Stocks
p2005
sg66
I25
sg67
g68
sg69
V89C9FA
p2006
sg71
Vhttp://pbs.twimg.com/profile_images/638885869433196544/C975RWXJ_normal.jpg
p2007
sg73
I00
sg74
I00
sg75
Vhttp://abs.twimg.com/images/themes/theme1/bg.png
p2008
sg77
Vjbemstocks
p2009
sg79
Ven
p2010
sg81
I00
sg82
I0
sg83
VDUE DILIGENCE
p2011
sg85
I00
sg86
Vhttps://t.co/ot2Kl5nyub
p2012
sg87
VWed Sep 02 01:23:46 +0000 2015
p2013
sg89
I00
sg90
VPacific Time (US & Canada)
p2014
sg92
I00
sg93
I00
sg94
I00
ssg95
I00
sg96
g2001
sg97
I28
sg98
g2002
sg99
g2003
sg100
I00
sg101
I1
sg102
I00
sg103
I-28800
sg104
I1505
sg105
g2005
sg106
I25
sg107
g68
sg108
g2006
sg109
g2007
sg110
I00
sg111
I00
sg112
g2004
sg113
g2008
sg114
g2009
sg115
g2010
sg116
I00
sg117
I00
sg118
I0
sg119
g2011
sg120
g2012
sg121
g122
(S'\x07\xdf\t\x02\x01\x17.\x00\x00\x00'
p2015
tp2016
Rp2017
sg126
g2000
sg127
g2014
sg128
I00
sg129
I00
sg130
I00
sbsg131
Nsg29
L662127356916535296L
sg132
I0
sg133
VTwittimer
p2018
sg115
Ven
p2019
sg181
g1985
sg121
g122
(S'\x07\xdf\x0b\x05\x04(&\x00\x00\x00'
p2020
tp2021
Rp2022
sg39
(dp2023
g186
Nsg187
I00
sg188
g1982
sg189
I00
sg190
Nsg45
L662127356916535296L
sg191
I0
sg192
V<a href="http://twittimer.com" rel="nofollow">Twittimer</a>
p2024
sg194
I00
sg195
Nsg53
(dp2025
g197
(lp2026
(dp2027
g151
(lp2028
I93
aI97
asg188
VGFN
p2029
sa(dp2030
g151
(lp2031
I98
aI102
asg188
VPWE
p2032
sa(dp2033
g151
(lp2034
I103
aI108
asg188
VEXLS
p2035
sa(dp2036
g151
(lp2037
I109
aI113
asg188
VRRM
p2038
sa(dp2039
g151
(lp2040
I114
aI118
asg188
VMHR
p2041
sa(dp2042
g151
(lp2043
I119
aI124
asg188
VULTR
p2044
sasg232
(lp2045
sg234
(lp2046
sg35
(lp2047
(dp2048
g86
Vhttps://t.co/lwSyWTxOEB
p2049
sg151
(lp2050
I69
aI92
asg153
Vhttp://bit.ly/1KjZ8cR
p2051
sg155
Vbit.ly/1KjZ8cR
p2052
sassg242
Nsg243
Nsg244
I0
sg57
V662127356916535296
p2053
sg246
I00
sg247
g1999
sg248
Nsg249
Nsg250
I00
sg79
g2019
sg87
VThu Nov 05 04:40:38 +0000 2015
p2054
sg252
Nsg253
Nsg254
(dp2055
g256
Ven
p2056
sg258
Vrecent
p2057
sssg260
g2055
sg261
Nsg262
Nsg31
g2025
sg263
Nsg264
Nsg99
g2053
sg265
I00
sg266
Nsg267
I0
sg268
Nsbag0
(g4
g5
Ntp2058
Rp2059
(dp2060
g9
I00
sg10
Nsg11
I00
sg12
V$EXLS:\u000a\u000aExlservice Holdings, Inc. (EXLS) Files Form 4 Insider Selling : Rohit \u2026:\u000a\u000ahttps://t.co/VhtClPNyX0
p2061
sg14
Vhttp://www.stocknewswires.com
p2062
sg16
I00
sg17
I00
sg18
Nsg19
g0
(g20
g5
Ntp2063
Rp2064
(dp2065
g24
I00
sg25
I00
sg26
I01
sg27
VDAECF4
p2066
sg29
L2341445778L
sg30
I00
sg31
(dp2067
g33
(dp2068
g35
(lp2069
sssg37
Vhttps://pbs.twimg.com/profile_images/542238326397227008/UfZ0ulTf_normal.jpeg
p2070
sg39
(dp2071
g41
I00
sg42
I00
sg43
I01
sg44
I00
sg45
L2341445778L
sg46
Vhttps://abs.twimg.com/images/themes/theme2/bg.gif
p2072
sg48
I00
sg49
V663B12
p2073
sg51
g2070
sg52
g2066
sg53
g2067
sg54
I660
sg55
VC6E2EE
p2074
sg57
V2341445778
p2075
sg59
VC6E2EE
p2076
sg61
I107
sg62
I00
sg63
I-14400
sg64
I236872
sg33
VInvest like a fish
p2077
sg66
I9
sg67
VUnited States
p2078
sg69
V1F98C7
p2079
sg71
Vhttp://pbs.twimg.com/profile_images/542238326397227008/UfZ0ulTf_normal.jpeg
p2080
sg73
I00
sg74
I00
sg75
Vhttp://abs.twimg.com/images/themes/theme2/bg.gif
p2081
sg77
VStockNewsWires
p2082
sg79
Ven
p2083
sg81
I00
sg82
I0
sg83
VStockNewsWires
p2084
sg85
I00
sg86
Nsg87
VThu Feb 13 05:31:52 +0000 2014
p2085
sg89
I00
sg90
VAtlantic Time (Canada)
p2086
sg92
I00
sg93
I00
sg94
I00
ssg95
I00
sg96
g2073
sg97
I660
sg98
g2074
sg99
g2075
sg100
I00
sg101
I107
sg102
I00
sg103
I-14400
sg104
I236872
sg105
g2077
sg106
I9
sg107
g2078
sg108
g2079
sg109
g2080
sg110
I00
sg111
I00
sg112
g2076
sg113
g2081
sg114
g2082
sg115
g2083
sg116
I00
sg117
I00
sg118
I0
sg119
g2084
sg120
Nsg121
g122
(S'\x07\xde\x02\r\x05\x1f4\x00\x00\x00'
p2087
tp2088
Rp2089
sg126
g2072
sg127
g2086
sg128
I00
sg129
I00
sg130
I00
sbsg131
Nsg29
L662047685059477508L
sg132
I0
sg133
VStockNewsWires
p2090
sg115
Ven
p2091
sg181
g2064
sg121
g122
(S'\x07\xdf\x0b\x04\x17\x18\x03\x00\x00\x00'
p2092
tp2093
Rp2094
sg39
(dp2095
g186
Nsg187
I00
sg188
V$EXLS:\u000a\u000aExlservice Holdings, Inc. (EXLS) Files Form 4 Insider Selling : Rohit \u2026:\u000a\u000ahttps://t.co/VhtClPNyX0
p2096
sg189
I00
sg190
Nsg45
L662047685059477508L
sg191
I0
sg192
V<a href="http://www.stocknewswires.com" rel="nofollow">StockNewsWires</a>
p2097
sg194
I00
sg195
Nsg53
(dp2098
g197
(lp2099
(dp2100
g151
(lp2101
I0
aI5
asg188
VEXLS
p2102
sasg232
(lp2103
sg234
(lp2104
sg35
(lp2105
(dp2106
g86
Vhttps://t.co/VhtClPNyX0
p2107
sg151
(lp2108
I82
aI105
asg153
Vhttp://StockNewsHour.com/exls-exlservice-holdings-inc-exls-files-form-4-insider-selling-rohit-2/
p2109
sg155
VStockNewsHour.com/exls-exlservic\u2026
p2110
sassg242
Nsg243
Nsg244
I0
sg57
V662047685059477508
p2111
sg246
I00
sg247
g2071
sg248
Nsg249
Nsg250
I00
sg79
g2091
sg87
VWed Nov 04 23:24:03 +0000 2015
p2112
sg252
Nsg253
Nsg254
(dp2113
g256
Ven
p2114
sg258
Vrecent
p2115
sssg260
g2113
sg261
Nsg262
Nsg31
g2098
sg263
Nsg264
Nsg99
g2111
sg265
I00
sg266
Nsg267
I0
sg268
Nsbag0
(g4
g5
Ntp2116
Rp2117
(dp2118
g9
I00
sg10
Nsg11
I00
sg12
V$EXLS:\u000a\u000aNew Insider Transaction on EXLS by CEO &amp; Vice Chairman:\u000a\u000ahttps://t.co/t7yTT9D7BW
p2119
sg14
Vhttp://www.newsflowing.com
p2120
sg16
I00
sg17
I00
sg18
Nsg19
g0
(g20
g5
Ntp2121
Rp2122
(dp2123
g24
I00
sg25
I00
sg26
I01
sg27
VE6F6F9
p2124
sg29
L2342215530L
sg30
I00
sg31
(dp2125
g33
(dp2126
g35
(lp2127
sssg37
Vhttps://pbs.twimg.com/profile_images/544036492876591104/7QJIB-XK_normal.jpeg
p2128
sg39
(dp2129
g41
I00
sg42
I00
sg43
I01
sg44
I00
sg45
L2342215530L
sg46
Vhttps://abs.twimg.com/images/themes/theme17/bg.gif
p2130
sg48
I00
sg49
V333333
p2131
sg51
g2128
sg52
g2124
sg53
g2125
sg54
I465
sg55
VDBE9ED
p2132
sg57
V2342215530
p2133
sg59
VDBE9ED
p2134
sg61
I89
sg62
I00
sg63
I-14400
sg64
I193001
sg33
g68
sg66
I0
sg67
g68
sg69
VCC3366
p2135
sg71
Vhttp://pbs.twimg.com/profile_images/544036492876591104/7QJIB-XK_normal.jpeg
p2136
sg73
I00
sg74
I00
sg75
Vhttp://abs.twimg.com/images/themes/theme17/bg.gif
p2137
sg77
Vnewswithvalue
p2138
sg79
Ven
p2139
sg81
I00
sg82
I0
sg83
VBreaking News Now
p2140
sg85
I00
sg86
Nsg87
VThu Feb 13 16:14:12 +0000 2014
p2141
sg89
I00
sg90
VAtlantic Time (Canada)
p2142
sg92
I00
sg93
I00
sg94
I00
ssg95
I00
sg96
g2131
sg97
I465
sg98
g2132
sg99
g2133
sg100
I00
sg101
I89
sg102
I00
sg103
I-14400
sg104
I193001
sg105
g68
sg106
I0
sg107
g68
sg108
g2135
sg109
g2136
sg110
I00
sg111
I00
sg112
g2134
sg113
g2137
sg114
g2138
sg115
g2139
sg116
I00
sg117
I00
sg118
I0
sg119
g2140
sg120
Nsg121
g122
(S'\x07\xde\x02\r\x10\x0e\x0c\x00\x00\x00'
p2143
tp2144
Rp2145
sg126
g2130
sg127
g2142
sg128
I00
sg129
I00
sg130
I00
sbsg131
Nsg29
L662028335032221697L
sg132
I0
sg133
VNFIG
p2146
sg115
Ven
p2147
sg181
g2122
sg121
g122
(S'\x07\xdf\x0b\x04\x16\x07\t\x00\x00\x00'
p2148
tp2149
Rp2150
sg39
(dp2151
g186
Nsg187
I00
sg188
V$EXLS:\u000a\u000aNew Insider Transaction on EXLS by CEO &amp; Vice Chairman:\u000a\u000ahttps://t.co/t7yTT9D7BW
p2152
sg189
I00
sg190
Nsg45
L662028335032221697L
sg191
I0
sg192
V<a href="http://www.newsflowing.com" rel="nofollow">NFIG</a>
p2153
sg194
I00
sg195
Nsg53
(dp2154
g197
(lp2155
(dp2156
g151
(lp2157
I0
aI5
asg188
VEXLS
p2158
sasg232
(lp2159
sg234
(lp2160
sg35
(lp2161
(dp2162
g86
Vhttps://t.co/t7yTT9D7BW
p2163
sg151
(lp2164
I69
aI92
asg153
Vhttp://StockNewsHour.com/exls-new-insider-transaction-on-exls-by-ceo-vice-chairman-2/
p2165
sg155
VStockNewsHour.com/exls-new-insid\u2026
p2166
sassg242
Nsg243
Nsg244
I0
sg57
V662028335032221697
p2167
sg246
I00
sg247
g2129
sg248
Nsg249
Nsg250
I00
sg79
g2147
sg87
VWed Nov 04 22:07:09 +0000 2015
p2168
sg252
Nsg253
Nsg254
(dp2169
g256
Ven
p2170
sg258
Vrecent
p2171
sssg260
g2169
sg261
Nsg262
Nsg31
g2154
sg263
Nsg264
Nsg99
g2167
sg265
I00
sg266
Nsg267
I0
sg268
Nsbag0
(g4
g5
Ntp2172
Rp2173
(dp2174
g9
I00
sg10
Nsg11
I00
sg12
VNEW insider transaction on $EXLS reported a moment ago: https://t.co/w3nnmuB9hJ
p2175
sg14
Vhttp://insideri.com
p2176
sg16
I00
sg17
I00
sg18
Nsg19
g0
(g20
g5
Ntp2177
Rp2178
(dp2179
g24
I00
sg25
I00
sg26
I00
sg27
V000000
p2180
sg29
L2344420430L
sg30
I00
sg31
(dp2181
g33
(dp2182
g35
(lp2183
sssg37
Vhttps://pbs.twimg.com/profile_images/548481313670299648/XBAwS1Wn_normal.jpeg
p2184
sg39
(dp2185
g41
I00
sg42
I00
sg43
I00
sg44
I00
sg45
L2344420430L
sg46
Vhttps://abs.twimg.com/images/themes/theme8/bg.gif
p2186
sg48
I00
sg49
V000000
p2187
sg51
g2184
sg52
g2180
sg53
g2181
sg54
I335
sg55
V000000
p2188
sg57
V2344420430
p2189
sg59
V000000
p2190
sg61
I23
sg62
I00
sg63
I-18000
sg64
I57351
sg33
VFollow stock purchases and sales by insiders
p2191
sg66
I0
sg67
VUnited States
p2192
sg69
V9266CC
p2193
sg71
Vhttp://pbs.twimg.com/profile_images/548481313670299648/XBAwS1Wn_normal.jpeg
p2194
sg73
I00
sg74
I00
sg75
Vhttp://abs.twimg.com/images/themes/theme8/bg.gif
p2195
sg77
VInsiderAlertsIA
p2196
sg79
Ven
p2197
sg81
I00
sg82
I0
sg83
VInsider Alerts
p2198
sg85
I00
sg86
Nsg87
VSat Feb 15 02:29:07 +0000 2014
p2199
sg89
I00
sg90
VEastern Time (US & Canada)
p2200
sg92
I00
sg93
I00
sg94
I00
ssg95
I00
sg96
g2187
sg97
I335
sg98
g2188
sg99
g2189
sg100
I00
sg101
I23
sg102
I00
sg103
I-18000
sg104
I57351
sg105
g2191
sg106
I0
sg107
g2192
sg108
g2193
sg109
g2194
sg110
I00
sg111
I00
sg112
g2190
sg113
g2195
sg114
g2196
sg115
g2197
sg116
I00
sg117
I00
sg118
I0
sg119
g2198
sg120
Nsg121
g122
(S'\x07\xde\x02\x0f\x02\x1d\x07\x00\x00\x00'
p2201
tp2202
Rp2203
sg126
g2186
sg127
g2200
sg128
I00
sg129
I00
sg130
I00
sbsg131
Nsg29
L662028190572011520L
sg132
I0
sg133
VInsider Alerts
p2204
sg115
Ven
p2205
sg181
g2178
sg121
g122
(S'\x07\xdf\x0b\x04\x16\x06#\x00\x00\x00'
p2206
tp2207
Rp2208
sg39
(dp2209
g186
Nsg187
I00
sg188
g2175
sg189
I00
sg190
Nsg45
L662028190572011520L
sg191
I0
sg192
V<a href="http://insideri.com" rel="nofollow">Insider Alerts</a>
p2210
sg194
I00
sg195
Nsg53
(dp2211
g197
(lp2212
(dp2213
g151
(lp2214
I27
aI32
asg188
VEXLS
p2215
sasg232
(lp2216
sg234
(lp2217
sg35
(lp2218
(dp2219
g86
Vhttps://t.co/w3nnmuB9hJ
p2220
sg151
(lp2221
I56
aI79
asg153
Vhttp://insideri.com/1373630_000114420415062813_0001144204-15-062813
p2222
sg155
Vinsideri.com/1373630_000114\u2026
p2223
sassg242
Nsg243
Nsg244
I0
sg57
V662028190572011520
p2224
sg246
I00
sg247
g2185
sg248
Nsg249
Nsg250
I00
sg79
g2205
sg87
VWed Nov 04 22:06:35 +0000 2015
p2225
sg252
Nsg253
Nsg254
(dp2226
g256
Ven
p2227
sg258
Vrecent
p2228
sssg260
g2226
sg261
Nsg262
Nsg31
g2211
sg263
Nsg264
Nsg99
g2224
sg265
I00
sg266
Nsg267
I0
sg268
Nsbag0
(g4
g5
Ntp2229
Rp2230
(dp2231
g9
I00
sg10
Nsg11
I00
sg12
VImp catalysts 4 MEIP &amp; CALA in d cmg week Here is DD 4 investors:https://t.co/lwSyWTxOEB $EXH $EXI $EXK $EXLP $EXLS $EXP $EXPD $EXPE
p2232
sg14
Vhttp://twittimer.com
p2233
sg16
I00
sg17
I00
sg18
Nsg19
g0
(g20
g5
Ntp2234
Rp2235
(dp2236
g24
I00
sg25
I01
sg26
I00
sg27
V000000
p2237
sg29
L3518191635L
sg30
I00
sg31
(dp2238
g86
(dp2239
g35
(lp2240
(dp2241
g86
Vhttps://t.co/ot2Kl5nyub
p2242
sg151
(lp2243
I0
aI23
asg153
Vhttps://groups.google.com/forum/#!forum/jbem777
p2244
sg155
Vgroups.google.com/forum/#!forum/\u2026
p2245
sassg33
(dp2246
g35
(lp2247
sssg37
Vhttps://pbs.twimg.com/profile_images/638885869433196544/C975RWXJ_normal.jpg
p2248
sg39
(dp2249
g41
I00
sg42
I01
sg43
I00
sg44
I00
sg45
L3518191635L
sg46
Vhttps://abs.twimg.com/images/themes/theme1/bg.png
p2250
sg48
I00
sg49
V000000
p2251
sg51
g2248
sg52
g2237
sg53
g2238
sg54
I28
sg55
V000000
p2252
sg57
V3518191635
p2253
sg59
V000000
p2254
sg61
I1
sg62
I00
sg63
I-28800
sg64
I1505
sg33
VHealthcare Stocks
p2255
sg66
I25
sg67
g68
sg69
V89C9FA
p2256
sg71
Vhttp://pbs.twimg.com/profile_images/638885869433196544/C975RWXJ_normal.jpg
p2257
sg73
I00
sg74
I00
sg75
Vhttp://abs.twimg.com/images/themes/theme1/bg.png
p2258
sg77
Vjbemstocks
p2259
sg79
Ven
p2260
sg81
I00
sg82
I0
sg83
VDUE DILIGENCE
p2261
sg85
I00
sg86
Vhttps://t.co/ot2Kl5nyub
p2262
sg87
VWed Sep 02 01:23:46 +0000 2015
p2263
sg89
I00
sg90
VPacific Time (US & Canada)
p2264
sg92
I00
sg93
I00
sg94
I00
ssg95
I00
sg96
g2251
sg97
I28
sg98
g2252
sg99
g2253
sg100
I00
sg101
I1
sg102
I00
sg103
I-28800
sg104
I1505
sg105
g2255
sg106
I25
sg107
g68
sg108
g2256
sg109
g2257
sg110
I00
sg111
I00
sg112
g2254
sg113
g2258
sg114
g2259
sg115
g2260
sg116
I00
sg117
I00
sg118
I0
sg119
g2261
sg120
g2262
sg121
g122
(S'\x07\xdf\t\x02\x01\x17.\x00\x00\x00'
p2265
tp2266
Rp2267
sg126
g2250
sg127
g2264
sg128
I00
sg129
I00
sg130
I00
sbsg131
Nsg29
L662022012752171008L
sg132
I0
sg133
VTwittimer
p2268
sg115
Ven
p2269
sg181
g2235
sg121
g122
(S'\x07\xdf\x0b\x04\x15*\x02\x00\x00\x00'
p2270
tp2271
Rp2272
sg39
(dp2273
g186
Nsg187
I00
sg188
g2232
sg189
I00
sg190
Nsg45
L662022012752171008L
sg191
I0
sg192
V<a href="http://twittimer.com" rel="nofollow">Twittimer</a>
p2274
sg194
I00
sg195
Nsg53
(dp2275
g197
(lp2276
(dp2277
g151
(lp2278
I93
aI97
asg188
VEXH
p2279
sa(dp2280
g151
(lp2281
I98
aI102
asg188
VEXI
p2282
sa(dp2283
g151
(lp2284
I103
aI107
asg188
VEXK
p2285
sa(dp2286
g151
(lp2287
I108
aI113
asg188
VEXLP
p2288
sa(dp2289
g151
(lp2290
I114
aI119
asg188
VEXLS
p2291
sa(dp2292
g151
(lp2293
I120
aI124
asg188
VEXP
p2294
sa(dp2295
g151
(lp2296
I125
aI130
asg188
VEXPD
p2297
sa(dp2298
g151
(lp2299
I131
aI136
asg188
VEXPE
p2300
sasg232
(lp2301
sg234
(lp2302
sg35
(lp2303
(dp2304
g86
Vhttps://t.co/lwSyWTxOEB
p2305
sg151
(lp2306
I69
aI92
asg153
Vhttp://bit.ly/1KjZ8cR
p2307
sg155
Vbit.ly/1KjZ8cR
p2308
sassg242
Nsg243
Nsg244
I0
sg57
V662022012752171008
p2309
sg246
I00
sg247
g2249
sg248
Nsg249
Nsg250
I00
sg79
g2269
sg87
VWed Nov 04 21:42:02 +0000 2015
p2310
sg252
Nsg253
Nsg254
(dp2311
g256
Ven
p2312
sg258
Vrecent
p2313
sssg260
g2311
sg261
Nsg262
Nsg31
g2275
sg263
Nsg264
Nsg99
g2309
sg265
I00
sg266
Nsg267
I0
sg268
Nsbag0
(g4
g5
Ntp2314
Rp2315
(dp2316
g9
I00
sg10
Nsg11
I00
sg12
VA bullish Moving out of Oversold has occurred at 3:15 PM Nov 04 at  $44.54 on Exlservice Holdings Inc (EXLS) $EXLS
p2317
sg14
Vhttp://www.recognia.com
p2318
sg17
I00
sg18
Nsg19
g0
(g20
g5
Ntp2319
Rp2320
(dp2321
g24
I00
sg25
I00
sg26
I01
sg27
VDDEEF6
p2322
sg29
I206820388
sg30
I00
sg31
(dp2323
g33
(dp2324
g35
(lp2325
sssg37
Vhttps://pbs.twimg.com/profile_images/603607850636611584/xF1GqS_I_normal.jpg
p2326
sg39
(dp2327
g41
I00
sg42
I00
sg43
I01
sg44
I00
sg45
I206820388
sg46
Vhttps://abs.twimg.com/images/themes/theme1/bg.png
p2328
sg48
I00
sg49
V333333
p2329
sg51
g2326
sg52
g2322
sg53
g2323
sg54
I119
sg55
VC0DEED
p2330
sg57
V206820388
p2331
sg59
VC0DEED
p2332
sg61
I19
sg62
I00
sg63
I-28800
sg64
I37533
sg33
g68
sg66
I0
sg67
g68
sg69
V0084B4
p2333
sg71
Vhttp://pbs.twimg.com/profile_images/603607850636611584/xF1GqS_I_normal.jpg
p2334
sg73
I00
sg74
I00
sg75
Vhttp://abs.twimg.com/images/themes/theme1/bg.png
p2335
sg77
VSyedWaqasNabi
p2336
sg79
Ven
p2337
sg81
I00
sg82
I0
sg83
VSyed Waqas Nabi
p2338
sg85
I00
sg86
Nsg87
VSat Oct 23 20:16:00 +0000 2010
p2339
sg89
I00
sg90
VPacific Time (US & Canada)
p2340
sg92
I00
sg93
I01
sg94
I00
ssg95
I00
sg96
g2329
sg97
I119
sg98
g2330
sg99
g2331
sg100
I00
sg101
I19
sg102
I00
sg103
I-28800
sg104
I37533
sg105
g68
sg106
I0
sg107
g68
sg108
g2333
sg109
g2334
sg110
I00
sg111
I00
sg112
g2332
sg113
g2335
sg114
g2336
sg115
g2337
sg116
I00
sg117
I00
sg118
I0
sg119
g2338
sg120
Nsg121
g122
(S'\x07\xda\n\x17\x14\x10\x00\x00\x00\x00'
p2341
tp2342
Rp2343
sg126
g2328
sg127
g2340
sg128
I00
sg129
I01
sg130
I00
sbsg131
Nsg29
L662011447950487553L
sg132
I0
sg133
Vrecognia
p2344
sg115
Ven
p2345
sg181
g2320
sg121
g122
(S'\x07\xdf\x0b\x04\x15\x00\x03\x00\x00\x00'
p2346
tp2347
Rp2348
sg39
(dp2349
g186
Nsg187
I00
sg188
g2317
sg189
I00
sg190
Nsg45
L662011447950487553L
sg191
I0
sg192
V<a href="http://www.recognia.com" rel="nofollow">recognia</a>
p2350
sg194
I00
sg195
Nsg53
(dp2351
g197
(lp2352
(dp2353
g151
(lp2354
I109
aI114
asg188
VEXLS
p2355
sasg232
(lp2356
sg234
(lp2357
sg35
(lp2358
ssg242
Nsg243
Nsg244
I0
sg57
V662011447950487553
p2359
sg246
I00
sg247
g2327
sg248
Nsg249
Nsg79
g2345
sg87
VWed Nov 04 21:00:03 +0000 2015
p2360
sg252
Nsg253
Nsg254
(dp2361
g256
Ven
p2362
sg258
Vrecent
p2363
sssg260
g2361
sg261
Nsg262
Nsg31
g2351
sg263
Nsg264
Nsg99
g2359
sg265
I00
sg266
Nsg267
I0
sg268
Nsbag0
(g4
g5
Ntp2364
Rp2365
(dp2366
g9
I00
sg10
Nsg11
I00
sg12
V$EXLS:\u000a\u000aExlService Holdings Given New $44.00 Price Target at Jefferies \u2026:\u000a\u000ahttps://t.co/FIwqMfBn6Y
p2367
sg14
Vhttp://www.stocknewswires.com
p2368
sg16
I00
sg17
I00
sg18
Nsg19
g0
(g20
g5
Ntp2369
Rp2370
(dp2371
g24
I00
sg25
I00
sg26
I01
sg27
VDAECF4
p2372
sg29
L2341445778L
sg30
I00
sg31
(dp2373
g33
(dp2374
g35
(lp2375
sssg37
Vhttps://pbs.twimg.com/profile_images/542238326397227008/UfZ0ulTf_normal.jpeg
p2376
sg39
(dp2377
g41
I00
sg42
I00
sg43
I01
sg44
I00
sg45
L2341445778L
sg46
Vhttps://abs.twimg.com/images/themes/theme2/bg.gif
p2378
sg48
I00
sg49
V663B12
p2379
sg51
g2376
sg52
g2372
sg53
g2373
sg54
I660
sg55
VC6E2EE
p2380
sg57
V2341445778
p2381
sg59
VC6E2EE
p2382
sg61
I107
sg62
I00
sg63
I-14400
sg64
I236872
sg33
VInvest like a fish
p2383
sg66
I9
sg67
VUnited States
p2384
sg69
V1F98C7
p2385
sg71
Vhttp://pbs.twimg.com/profile_images/542238326397227008/UfZ0ulTf_normal.jpeg
p2386
sg73
I00
sg74
I00
sg75
Vhttp://abs.twimg.com/images/themes/theme2/bg.gif
p2387
sg77
VStockNewsWires
p2388
sg79
Ven
p2389
sg81
I00
sg82
I0
sg83
VStockNewsWires
p2390
sg85
I00
sg86
Nsg87
VThu Feb 13 05:31:52 +0000 2014
p2391
sg89
I00
sg90
VAtlantic Time (Canada)
p2392
sg92
I00
sg93
I00
sg94
I00
ssg95
I00
sg96
g2379
sg97
I660
sg98
g2380
sg99
g2381
sg100
I00
sg101
I107
sg102
I00
sg103
I-14400
sg104
I236872
sg105
g2383
sg106
I9
sg107
g2384
sg108
g2385
sg109
g2386
sg110
I00
sg111
I00
sg112
g2382
sg113
g2387
sg114
g2388
sg115
g2389
sg116
I00
sg117
I00
sg118
I0
sg119
g2390
sg120
Nsg121
g122
(S'\x07\xde\x02\r\x05\x1f4\x00\x00\x00'
p2393
tp2394
Rp2395
sg126
g2378
sg127
g2392
sg128
I00
sg129
I00
sg130
I00
sbsg131
Nsg29
L662001948590276608L
sg132
I0
sg133
VStockNewsWires
p2396
sg115
Ven
p2397
sg181
g2370
sg121
g122
(S'\x07\xdf\x0b\x04\x14\x16\x12\x00\x00\x00'
p2398
tp2399
Rp2400
sg39
(dp2401
g186
Nsg187
I00
sg188
V$EXLS:\u000a\u000aExlService Holdings Given New $44.00 Price Target at Jefferies \u2026:\u000a\u000ahttps://t.co/FIwqMfBn6Y
p2402
sg189
I00
sg190
Nsg45
L662001948590276608L
sg191
I0
sg192
V<a href="http://www.stocknewswires.com" rel="nofollow">StockNewsWires</a>
p2403
sg194
I00
sg195
Nsg53
(dp2404
g197
(lp2405
(dp2406
g151
(lp2407
I0
aI5
asg188
VEXLS
p2408
sasg232
(lp2409
sg234
(lp2410
sg35
(lp2411
(dp2412
g86
Vhttps://t.co/FIwqMfBn6Y
p2413
sg151
(lp2414
I75
aI98
asg153
Vhttp://StockNewsHour.com/exls-exlservice-holdings-given-new-44-00-price-target-at-jefferies/
p2415
sg155
VStockNewsHour.com/exls-exlservic\u2026
p2416
sassg242
Nsg243
Nsg244
I0
sg57
V662001948590276608
p2417
sg246
I00
sg247
g2377
sg248
Nsg249
Nsg250
I00
sg79
g2397
sg87
VWed Nov 04 20:22:18 +0000 2015
p2418
sg252
Nsg253
Nsg254
(dp2419
g256
Ven
p2420
sg258
Vrecent
p2421
sssg260
g2419
sg261
Nsg262
Nsg31
g2404
sg263
Nsg264
Nsg99
g2417
sg265
I00
sg266
Nsg267
I0
sg268
Nsbag0
(g4
g5
Ntp2422
Rp2423
(dp2424
g9
I00
sg10
Nsg11
I00
sg12
V$EXLS:\u000a\u000aExlService Holdings PT Raised to $44.00 (EXLS):\u000a\u000ahttps://t.co/qWn0D5xcvT
p2425
sg14
Vhttp://www.newsflowing.com
p2426
sg16
I00
sg17
I00
sg18
Nsg19
g0
(g20
g5
Ntp2427
Rp2428
(dp2429
g24
I00
sg25
I00
sg26
I01
sg27
VDDFFCC
p2430
sg29
L2342763212L
sg30
I00
sg31
(dp2431
g33
(dp2432
g35
(lp2433
sssg37
Vhttps://pbs.twimg.com/profile_images/544036701056684032/FY2Xgs7b_normal.jpeg
p2434
sg39
(dp2435
g41
I00
sg42
I00
sg43
I01
sg44
I00
sg45
L2342763212L
sg46
Vhttps://abs.twimg.com/images/themes/theme16/bg.gif
p2436
sg48
I00
sg49
V333333
p2437
sg51
g2434
sg52
g2430
sg53
g2431
sg54
I421
sg55
VBDDCAD
p2438
sg57
V2342763212
p2439
sg59
V9AE4E8
p2440
sg61
I74
sg62
I00
sg63
I-14400
sg64
I193980
sg33
VNews as it happens
p2441
sg66
I0
sg67
VUS
p2442
sg69
V0084B4
p2443
sg71
Vhttp://pbs.twimg.com/profile_images/544036701056684032/FY2Xgs7b_normal.jpeg
p2444
sg73
I00
sg74
I00
sg75
Vhttp://abs.twimg.com/images/themes/theme16/bg.gif
p2445
sg77
Vnewswelldone
p2446
sg79
Ven
p2447
sg81
I00
sg82
I0
sg83
VBreaking News
p2448
sg85
I00
sg86
Nsg87
VFri Feb 14 00:21:52 +0000 2014
p2449
sg89
I00
sg90
VAtlantic Time (Canada)
p2450
sg92
I00
sg93
I00
sg94
I00
ssg95
I00
sg96
g2437
sg97
I421
sg98
g2438
sg99
g2439
sg100
I00
sg101
I74
sg102
I00
sg103
I-14400
sg104
I193980
sg105
g2441
sg106
I0
sg107
g2442
sg108
g2443
sg109
g2444
sg110
I00
sg111
I00
sg112
g2440
sg113
g2445
sg114
g2446
sg115
g2447
sg116
I00
sg117
I00
sg118
I0
sg119
g2448
sg120
Nsg121
g122
(S'\x07\xde\x02\x0e\x00\x154\x00\x00\x00'
p2451
tp2452
Rp2453
sg126
g2436
sg127
g2450
sg128
I00
sg129
I00
sg130
I00
sbsg131
Nsg29
L662001659355267072L
sg132
I0
sg133
VNFIG
p2454
sg115
Ven
p2455
sg181
g2428
sg121
g122
(S'\x07\xdf\x0b\x04\x14\x15\t\x00\x00\x00'
p2456
tp2457
Rp2458
sg39
(dp2459
g186
Nsg187
I00
sg188
V$EXLS:\u000a\u000aExlService Holdings PT Raised to $44.00 (EXLS):\u000a\u000ahttps://t.co/qWn0D5xcvT
p2460
sg189
I00
sg190
Nsg45
L662001659355267072L
sg191
I0
sg192
V<a href="http://www.newsflowing.com" rel="nofollow">NFIG</a>
p2461
sg194
I00
sg195
Nsg53
(dp2462
g197
(lp2463
(dp2464
g151
(lp2465
I0
aI5
asg188
VEXLS
p2466
sasg232
(lp2467
sg234
(lp2468
sg35
(lp2469
(dp2470
g86
Vhttps://t.co/qWn0D5xcvT
p2471
sg151
(lp2472
I57
aI80
asg153
Vhttp://StockNewsHour.com/exls-exlservice-holdings-pt-raised-to-44-00-exls/
p2473
sg155
VStockNewsHour.com/exls-exlservic\u2026
p2474
sassg242
Nsg243
Nsg244
I0
sg57
V662001659355267072
p2475
sg246
I00
sg247
g2435
sg248
Nsg249
Nsg250
I00
sg79
g2455
sg87
VWed Nov 04 20:21:09 +0000 2015
p2476
sg252
Nsg253
Nsg254
(dp2477
g256
Ven
p2478
sg258
Vrecent
p2479
sssg260
g2477
sg261
Nsg262
Nsg31
g2462
sg263
Nsg264
Nsg99
g2475
sg265
I00
sg266
Nsg267
I0
sg268
Nsbag0
(g4
g5
Ntp2480
Rp2481
(dp2482
g9
I00
sg10
Nsg11
I00
sg12
V$EXLS:\u000a\u000aNotable Session Mover: ExlService Holdings, Inc. (NASDAQ:EXLS):\u000a\u000ahttps://t.co/sBzHqGq6AV
p2483
sg14
Vhttp://www.stocknewswires.com
p2484
sg16
I00
sg17
I00
sg18
Nsg19
g0
(g20
g5
Ntp2485
Rp2486
(dp2487
g24
I00
sg25
I00
sg26
I01
sg27
VDAECF4
p2488
sg29
L2341445778L
sg30
I00
sg31
(dp2489
g33
(dp2490
g35
(lp2491
sssg37
Vhttps://pbs.twimg.com/profile_images/542238326397227008/UfZ0ulTf_normal.jpeg
p2492
sg39
(dp2493
g41
I00
sg42
I00
sg43
I01
sg44
I00
sg45
L2341445778L
sg46
Vhttps://abs.twimg.com/images/themes/theme2/bg.gif
p2494
sg48
I00
sg49
V663B12
p2495
sg51
g2492
sg52
g2488
sg53
g2489
sg54
I660
sg55
VC6E2EE
p2496
sg57
V2341445778
p2497
sg59
VC6E2EE
p2498
sg61
I107
sg62
I00
sg63
I-14400
sg64
I236872
sg33
VInvest like a fish
p2499
sg66
I9
sg67
VUnited States
p2500
sg69
V1F98C7
p2501
sg71
Vhttp://pbs.twimg.com/profile_images/542238326397227008/UfZ0ulTf_normal.jpeg
p2502
sg73
I00
sg74
I00
sg75
Vhttp://abs.twimg.com/images/themes/theme2/bg.gif
p2503
sg77
VStockNewsWires
p2504
sg79
Ven
p2505
sg81
I00
sg82
I0
sg83
VStockNewsWires
p2506
sg85
I00
sg86
Nsg87
VThu Feb 13 05:31:52 +0000 2014
p2507
sg89
I00
sg90
VAtlantic Time (Canada)
p2508
sg92
I00
sg93
I00
sg94
I00
ssg95
I00
sg96
g2495
sg97
I660
sg98
g2496
sg99
g2497
sg100
I00
sg101
I107
sg102
I00
sg103
I-14400
sg104
I236872
sg105
g2499
sg106
I9
sg107
g2500
sg108
g2501
sg109
g2502
sg110
I00
sg111
I00
sg112
g2498
sg113
g2503
sg114
g2504
sg115
g2505
sg116
I00
sg117
I00
sg118
I0
sg119
g2506
sg120
Nsg121
g122
(S'\x07\xde\x02\r\x05\x1f4\x00\x00\x00'
p2509
tp2510
Rp2511
sg126
g2494
sg127
g2508
sg128
I00
sg129
I00
sg130
I00
sbsg131
Nsg29
L661942032290717700L
sg132
I0
sg133
VStockNewsWires
p2512
sg115
Ven
p2513
sg181
g2486
sg121
g122
(S'\x07\xdf\x0b\x04\x10\x18\r\x00\x00\x00'
p2514
tp2515
Rp2516
sg39
(dp2517
g186
Nsg187
I00
sg188
V$EXLS:\u000a\u000aNotable Session Mover: ExlService Holdings, Inc. (NASDAQ:EXLS):\u000a\u000ahttps://t.co/sBzHqGq6AV
p2518
sg189
I00
sg190
Nsg45
L661942032290717700L
sg191
I0
sg192
V<a href="http://www.stocknewswires.com" rel="nofollow">StockNewsWires</a>
p2519
sg194
I00
sg195
Nsg53
(dp2520
g197
(lp2521
(dp2522
g151
(lp2523
I0
aI5
asg188
VEXLS
p2524
sasg232
(lp2525
sg234
(lp2526
sg35
(lp2527
(dp2528
g86
Vhttps://t.co/sBzHqGq6AV
p2529
sg151
(lp2530
I73
aI96
asg153
Vhttp://StockNewsHour.com/exls-notable-session-mover-exlservice-holdings-inc-nasdaqexls/
p2531
sg155
VStockNewsHour.com/exls-notable-s\u2026
p2532
sassg242
Nsg243
Nsg244
I0
sg57
V661942032290717700
p2533
sg246
I00
sg247
g2493
sg248
Nsg249
Nsg250
I00
sg79
g2513
sg87
VWed Nov 04 16:24:13 +0000 2015
p2534
sg252
Nsg253
Nsg254
(dp2535
g256
Ven
p2536
sg258
Vrecent
p2537
sssg260
g2535
sg261
Nsg262
Nsg31
g2520
sg263
Nsg264
Nsg99
g2533
sg265
I00
sg266
Nsg267
I0
sg268
Nsbag0
(g4
g5
Ntp2538
Rp2539
(dp2540
g9
I00
sg10
Nsg11
I00
sg12
V$EXLS: Analyst action by SunTrust Robinson Humphrey on ExlService Holdings: https://t.co/j8CipDekIi https://t.co/AYMXOJqId3
p2541
sg14
Vhttp://example.com
p2542
sg16
I00
sg17
I00
sg18
Nsg19
g0
(g20
g5
Ntp2543
Rp2544
(dp2545
g24
I00
sg25
I00
sg26
I01
sg27
V95E8EC
p2546
sg29
L2341530906L
sg30
I00
sg31
(dp2547
g33
(dp2548
g35
(lp2549
sssg37
Vhttps://pbs.twimg.com/profile_images/601131382060945410/KYX9mWKS_normal.jpg
p2550
sg39
(dp2551
g41
I00
sg42
I00
sg43
I01
sg44
I00
sg45
L2341530906L
sg46
Vhttps://abs.twimg.com/images/themes/theme4/bg.gif
p2552
sg48
I00
sg49
V3C3940
p2553
sg51
g2550
sg52
g2546
sg53
g2547
sg54
I177
sg55
V5ED4DC
p2554
sg57
V2341530906
p2555
sg59
V0099B9
p2556
sg61
I25
sg62
I00
sg63
I-14400
sg64
I59937
sg33
g68
sg66
I0
sg67
g68
sg69
V0099B9
p2557
sg71
Vhttp://pbs.twimg.com/profile_images/601131382060945410/KYX9mWKS_normal.jpg
p2558
sg73
I00
sg74
I00
sg75
Vhttp://abs.twimg.com/images/themes/theme4/bg.gif
p2559
sg77
VAnalystActions
p2560
sg79
Ven
p2561
sg81
I00
sg82
I0
sg83
VAnalyst Actions
p2562
sg85
I00
sg86
Nsg87
VThu Feb 13 06:57:40 +0000 2014
p2563
sg89
I00
sg90
VAtlantic Time (Canada)
p2564
sg92
I00
sg93
I00
sg94
I00
ssg95
I00
sg96
g2553
sg97
I177
sg98
g2554
sg99
g2555
sg100
I00
sg101
I25
sg102
I00
sg103
I-14400
sg104
I59937
sg105
g68
sg106
I0
sg107
g68
sg108
g2557
sg109
g2558
sg110
I00
sg111
I00
sg112
g2556
sg113
g2559
sg114
g2560
sg115
g2561
sg116
I00
sg117
I00
sg118
I0
sg119
g2562
sg120
Nsg121
g122
(S'\x07\xde\x02\r\x069(\x00\x00\x00'
p2565
tp2566
Rp2567
sg126
g2552
sg127
g2564
sg128
I00
sg129
I00
sg130
I00
sbsg131
Nsg29
L661738896577941504L
sg132
I0
sg133
VAnalystActionsAA
p2568
sg115
Ven
p2569
sg181
g2544
sg121
g122
(S'\x07\xdf\x0b\x04\x029\x02\x00\x00\x00'
p2570
tp2571
Rp2572
sg39
(dp2573
g186
Nsg187
I00
sg188
g2541
sg189
I00
sg190
Nsg45
L661738896577941504L
sg191
I0
sg192
V<a href="http://example.com" rel="nofollow">AnalystActionsAA</a>
p2574
sg194
I00
sg195
Nsg53
(dp2575
g197
(lp2576
(dp2577
g151
(lp2578
I0
aI5
asg188
VEXLS
p2579
sasg232
(lp2580
sg234
(lp2581
sg35
(lp2582
(dp2583
g86
Vhttps://t.co/j8CipDekIi
p2584
sg151
(lp2585
I76
aI99
asg153
Vhttp://stockratingreport.com/suntrust-robinson-humphrey-maintains-exls-10-30-2015
p2586
sg155
Vstockratingreport.com/suntrust-robin\u2026
p2587
sasg671
(lp2588
(dp2589
g153
Vhttp://twitter.com/AnalystActions/status/661738896577941504/photo/1
p2590
sg155
Vpic.twitter.com/AYMXOJqId3
p2591
sg86
Vhttps://t.co/AYMXOJqId3
p2592
sg677
Vhttps://pbs.twimg.com/media/CS74BTVWIAAjnbR.jpg
p2593
sg57
V661738896523403264
p2594
sg680
(dp2595
g682
(dp2596
g684
I4
sg685
Vfit
p2597
sg687
I4
ssg688
(dp2598
g684
I4
sg685
Vfit
p2599
sg687
I4
ssg691
(dp2600
g684
I4
sg685
Vfit
p2601
sg687
I4
ssg694
(dp2602
g684
I4
sg685
Vcrop
p2603
sg687
I4
sssg151
(lp2604
I100
aI123
asg698
Vphoto
p2605
sg45
L661738896523403264L
sg700
Vhttp://pbs.twimg.com/media/CS74BTVWIAAjnbR.jpg
p2606
sassg242
Nsg243
Nsg244
I0
sg57
V661738896577941504
p2607
sg246
I00
sg247
g2551
sg248
Nsg249
Nsg250
I00
sg79
g2569
sg87
VWed Nov 04 02:57:02 +0000 2015
p2608
sg252
Nsg253
Nsg254
(dp2609
g256
Ven
p2610
sg258
Vrecent
p2611
sssg260
g2609
sg261
Nsg262
Nsg31
g2575
sg263
Nsg264
Nsg99
g2607
sg265
I00
sg266
Nsg267
I0
sg268
Nsbag0
(g4
g5
Ntp2612
Rp2613
(dp2614
g9
I00
sg10
Nsg11
I00
sg12
VExlService Holdings Rating Increased to Buy at Zacks $EXLS https://t.co/txqqU320je #acn
p2615
sg14
Vhttp://ifttt.com
p2616
sg16
I00
sg17
I00
sg18
Nsg19
g0
(g20
g5
Ntp2617
Rp2618
(dp2619
g24
I00
sg25
I00
sg26
I01
sg27
VE8E8E8
p2620
sg29
I52210566
sg30
I00
sg31
(dp2621
g86
(dp2622
g35
(lp2623
(dp2624
g86
Vhttp://t.co/odTc3pvcAe
p2625
sg151
(lp2626
I0
aI22
asg153
Vhttp://www.americanconsumernews.com/
p2627
sg155
Vamericanconsumernews.com
p2628
sassg33
(dp2629
g35
(lp2630
sssg37
Vhttps://pbs.twimg.com/profile_images/289298274/text_normal.jpg
p2631
sg39
(dp2632
g41
I00
sg42
I00
sg43
I01
sg44
I00
sg45
I52210566
sg46
Vhttps://pbs.twimg.com/profile_background_images/20558354/back.jpg
p2633
sg48
I00
sg49
V333333
p2634
sg51
g2631
sg52
g2620
sg53
g2621
sg54
I1114
sg55
VADADAD
p2635
sg57
V52210566
p2636
sg59
V9AE4E8
p2637
sg61
I96
sg62
I00
sg63
I-21600
sg64
I580839
sg33
VPersonal Finance and Consumer Tips
p2638
sg66
I1412
sg67
VSioux Falls, SD
p2639
sg69
V0084B4
p2640
sg71
Vhttp://pbs.twimg.com/profile_images/289298274/text_normal.jpg
p2641
sg73
I00
sg74
I00
sg75
Vhttp://pbs.twimg.com/profile_background_images/20558354/back.jpg
p2642
sg77
VAmConsumerNews
p2643
sg79
Ven
p2644
sg81
I00
sg82
I0
sg83
VConsumer News
p2645
sg85
I00
sg86
Vhttp://t.co/odTc3pvcAe
p2646
sg87
VMon Jun 29 22:22:08 +0000 2009
p2647
sg89
I00
sg90
VCentral Time (US & Canada)
p2648
sg92
I00
sg93
I00
sg94
I00
ssg95
I00
sg96
g2634
sg97
I1114
sg98
g2635
sg99
g2636
sg100
I00
sg101
I96
sg102
I00
sg103
I-21600
sg104
I580839
sg105
g2638
sg106
I1412
sg107
g2639
sg108
g2640
sg109
g2641
sg110
I00
sg111
I00
sg112
g2637
sg113
g2642
sg114
g2643
sg115
g2644
sg116
I00
sg117
I00
sg118
I0
sg119
g2645
sg120
g2646
sg121
g122
(S'\x07\xd9\x06\x1d\x16\x16\x08\x00\x00\x00'
p2649
tp2650
Rp2651
sg126
g2633
sg127
g2648
sg128
I00
sg129
I00
sg130
I00
sbsg131
Nsg29
L661690039366238208L
sg132
I0
sg133
VIFTTT
p2652
sg115
Ven
p2653
sg181
g2618
sg121
g122
(S'\x07\xdf\x0b\x03\x17*5\x00\x00\x00'
p2654
tp2655
Rp2656
sg39
(dp2657
g186
Nsg187
I00
sg188
g2615
sg189
I00
sg190
Nsg45
L661690039366238208L
sg191
I0
sg192
V<a href="http://ifttt.com" rel="nofollow">IFTTT</a>
p2658
sg194
I00
sg195
Nsg53
(dp2659
g197
(lp2660
(dp2661
g151
(lp2662
I53
aI58
asg188
VEXLS
p2663
sasg232
(lp2664
sg234
(lp2665
(dp2666
g151
(lp2667
I83
aI87
asg188
Vacn
p2668
sasg35
(lp2669
(dp2670
g86
Vhttps://t.co/txqqU320je
p2671
sg151
(lp2672
I59
aI82
asg153
Vhttp://ift.tt/1MFYKx5
p2673
sg155
Vift.tt/1MFYKx5
p2674
sassg242
Nsg243
Nsg244
I0
sg57
V661690039366238208
p2675
sg246
I00
sg247
g2632
sg248
Nsg249
Nsg250
I00
sg79
g2653
sg87
VTue Nov 03 23:42:53 +0000 2015
p2676
sg252
Nsg253
Nsg254
(dp2677
g256
Ven
p2678
sg258
Vrecent
p2679
sssg260
g2677
sg261
Nsg262
Nsg31
g2659
sg263
Nsg264
Nsg99
g2675
sg265
I00
sg266
Nsg267
I0
sg268
Nsbag0
(g4
g5
Ntp2680
Rp2681
(dp2682
g9
I00
sg10
Nsg11
I00
sg12
V$EXLS:\u000a\u000aExlService Holdings Upgraded at Zacks (EXLS):\u000a\u000ahttps://t.co/VGmiVYf5MG
p2683
sg14
Vhttp://www.newsflowing.com
p2684
sg16
I00
sg17
I00
sg18
Nsg19
g0
(g20
g5
Ntp2685
Rp2686
(dp2687
g24
I00
sg25
I00
sg26
I01
sg27
VE6F6F9
p2688
sg29
L2342215530L
sg30
I00
sg31
(dp2689
g33
(dp2690
g35
(lp2691
sssg37
Vhttps://pbs.twimg.com/profile_images/544036492876591104/7QJIB-XK_normal.jpeg
p2692
sg39
(dp2693
g41
I00
sg42
I00
sg43
I01
sg44
I00
sg45
L2342215530L
sg46
Vhttps://abs.twimg.com/images/themes/theme17/bg.gif
p2694
sg48
I00
sg49
V333333
p2695
sg51
g2692
sg52
g2688
sg53
g2689
sg54
I465
sg55
VDBE9ED
p2696
sg57
V2342215530
p2697
sg59
VDBE9ED
p2698
sg61
I89
sg62
I00
sg63
I-14400
sg64
I193001
sg33
g68
sg66
I0
sg67
g68
sg69
VCC3366
p2699
sg71
Vhttp://pbs.twimg.com/profile_images/544036492876591104/7QJIB-XK_normal.jpeg
p2700
sg73
I00
sg74
I00
sg75
Vhttp://abs.twimg.com/images/themes/theme17/bg.gif
p2701
sg77
Vnewswithvalue
p2702
sg79
Ven
p2703
sg81
I00
sg82
I0
sg83
VBreaking News Now
p2704
sg85
I00
sg86
Nsg87
VThu Feb 13 16:14:12 +0000 2014
p2705
sg89
I00
sg90
VAtlantic Time (Canada)
p2706
sg92
I00
sg93
I00
sg94
I00
ssg95
I00
sg96
g2695
sg97
I465
sg98
g2696
sg99
g2697
sg100
I00
sg101
I89
sg102
I00
sg103
I-14400
sg104
I193001
sg105
g68
sg106
I0
sg107
g68
sg108
g2699
sg109
g2700
sg110
I00
sg111
I00
sg112
g2698
sg113
g2701
sg114
g2702
sg115
g2703
sg116
I00
sg117
I00
sg118
I0
sg119
g2704
sg120
Nsg121
g122
(S'\x07\xde\x02\r\x10\x0e\x0c\x00\x00\x00'
p2707
tp2708
Rp2709
sg126
g2694
sg127
g2706
sg128
I00
sg129
I00
sg130
I00
sbsg131
Nsg29
L661687839940354048L
sg132
I0
sg133
VNFIG
p2710
sg115
Ven
p2711
sg181
g2686
sg121
g122
(S'\x07\xdf\x0b\x03\x17"\t\x00\x00\x00'
p2712
tp2713
Rp2714
sg39
(dp2715
g186
Nsg187
I00
sg188
V$EXLS:\u000a\u000aExlService Holdings Upgraded at Zacks (EXLS):\u000a\u000ahttps://t.co/VGmiVYf5MG
p2716
sg189
I00
sg190
Nsg45
L661687839940354048L
sg191
I0
sg192
V<a href="http://www.newsflowing.com" rel="nofollow">NFIG</a>
p2717
sg194
I00
sg195
Nsg53
(dp2718
g197
(lp2719
(dp2720
g151
(lp2721
I0
aI5
asg188
VEXLS
p2722
sasg232
(lp2723
sg234
(lp2724
sg35
(lp2725
(dp2726
g86
Vhttps://t.co/VGmiVYf5MG
p2727
sg151
(lp2728
I55
aI78
asg153
Vhttp://StockNewsHour.com/exls-exlservice-holdings-upgraded-at-zacks-exls/
p2729
sg155
VStockNewsHour.com/exls-exlservic\u2026
p2730
sassg242
Nsg243
Nsg244
I0
sg57
V661687839940354048
p2731
sg246
I00
sg247
g2693
sg248
Nsg249
Nsg250
I00
sg79
g2711
sg87
VTue Nov 03 23:34:09 +0000 2015
p2732
sg252
Nsg253
Nsg254
(dp2733
g256
Ven
p2734
sg258
Vrecent
p2735
sssg260
g2733
sg261
Nsg262
Nsg31
g2718
sg263
Nsg264
Nsg99
g2731
sg265
I00
sg266
Nsg267
I0
sg268
Nsbag0
(g4
g5
Ntp2736
Rp2737
(dp2738
g9
I00
sg10
Nsg11
I00
sg12
VExlService Holdings Upgraded at Zacks $EXLS https://t.co/GRyPDHh4uN
p2739
sg14
Vhttp://ifttt.com
p2740
sg16
I00
sg17
I00
sg18
Nsg19
g0
(g20
g5
Ntp2741
Rp2742
(dp2743
g24
I00
sg25
I00
sg26
I01
sg27
VDDEEF6
p2744
sg29
L2920258887L
sg30
I00
sg31
(dp2745
g33
(dp2746
g35
(lp2747
sssg37
Vhttps://abs.twimg.com/sticky/default_profile_images/default_profile_0_normal.png
p2748
sg39
(dp2749
g41
I00
sg42
I00
sg43
I01
sg44
I01
sg45
L2920258887L
sg46
Vhttps://abs.twimg.com/images/themes/theme1/bg.png
p2750
sg48
I00
sg49
V333333
p2751
sg51
g2748
sg52
g2744
sg53
g2745
sg54
I1021
sg55
VC0DEED
p2752
sg57
V2920258887
p2753
sg59
VC0DEED
p2754
sg61
I39
sg62
I00
sg63
Nsg64
I170284
sg33
g68
sg66
I40
sg67
g68
sg69
V0084B4
p2755
sg71
Vhttp://abs.twimg.com/sticky/default_profile_images/default_profile_0_normal.png
p2756
sg73
I00
sg74
I00
sg75
Vhttp://abs.twimg.com/images/themes/theme1/bg.png
p2757
sg77
Vdakotafinancial
p2758
sg79
Ven
p2759
sg81
I00
sg82
I0
sg83
VDakota Financial 
p2760
sg85
I00
sg86
Nsg87
VSat Dec 13 20:48:14 +0000 2014
p2761
sg89
I00
sg90
Nsg92
I00
sg93
I01
sg94
I00
ssg95
I00
sg96
g2751
sg97
I1021
sg98
g2752
sg99
g2753
sg100
I01
sg101
I39
sg102
I00
sg103
Nsg104
I170284
sg105
g68
sg106
I40
sg107
g68
sg108
g2755
sg109
g2756
sg110
I00
sg111
I00
sg112
g2754
sg113
g2757
sg114
g2758
sg115
g2759
sg116
I00
sg117
I00
sg118
I0
sg119
g2760
sg120
Nsg121
g122
(S'\x07\xde\x0c\r\x140\x0e\x00\x00\x00'
p2762
tp2763
Rp2764
sg126
g2750
sg127
Nsg128
I00
sg129
I01
sg130
I00
sbsg131
Nsg29
L661687122353606656L
sg132
I0
sg133
VIFTTT
p2765
sg115
Ven
p2766
sg181
g2742
sg121
g122
(S'\x07\xdf\x0b\x03\x17\x1f\x12\x00\x00\x00'
p2767
tp2768
Rp2769
sg39
(dp2770
g186
Nsg187
I00
sg188
g2739
sg189
I00
sg190
Nsg45
L661687122353606656L
sg191
I0
sg192
V<a href="http://ifttt.com" rel="nofollow">IFTTT</a>
p2771
sg194
I00
sg195
Nsg53
(dp2772
g197
(lp2773
(dp2774
g151
(lp2775
I38
aI43
asg188
VEXLS
p2776
sasg232
(lp2777
sg234
(lp2778
sg35
(lp2779
(dp2780
g86
Vhttps://t.co/GRyPDHh4uN
p2781
sg151
(lp2782
I44
aI67
asg153
Vhttp://ift.tt/1RQgpA2
p2783
sg155
Vift.tt/1RQgpA2
p2784
sassg242
Nsg243
Nsg244
I0
sg57
V661687122353606656
p2785
sg246
I00
sg247
g2749
sg248
Nsg249
Nsg250
I00
sg79
g2766
sg87
VTue Nov 03 23:31:18 +0000 2015
p2786
sg252
Nsg253
Nsg254
(dp2787
g256
Ven
p2788
sg258
Vrecent
p2789
sssg260
g2787
sg261
Nsg262
Nsg31
g2772
sg263
Nsg264
Nsg99
g2785
sg265
I00
sg266
Nsg267
I0
sg268
Nsbag0
(g4
g5
Ntp2790
Rp2791
(dp2792
g9
I00
sg10
Nsg11
I00
sg12
V$EXLS received a new alert. Find out why at https://t.co/nZwqReM0tj #stocks #daytrading #trading #mkt  #NYSE #NASDAQ #markets 862
p2793
sg14
Vhttp://www.aheadsup.com/
p2794
sg16
I00
sg17
I00
sg18
Nsg19
g0
(g20
g5
Ntp2795
Rp2796
(dp2797
g24
I00
sg25
I00
sg26
I01
sg27
VDDEEF6
p2798
sg29
I39546678
sg30
I00
sg31
(dp2799
g86
(dp2800
g35
(lp2801
(dp2802
g86
Vhttp://t.co/TlOjBDQQtY
p2803
sg151
(lp2804
I0
aI22
asg153
Vhttp://www.MediaSentiment.com
p2805
sg155
VMediaSentiment.com
p2806
sassg33
(dp2807
g35
(lp2808
(dp2809
g86
Vhttp://t.co/feRZl5QRu9
p2810
sg151
(lp2811
I129
aI151
asg153
Vhttp://www.aheadsup.com
p2812
sg155
Vaheadsup.com
p2813
sasssg37
Vhttps://pbs.twimg.com/profile_images/420277170586394624/5mABm6pI_normal.png
p2814
sg39
(dp2815
g41
I00
sg42
I00
sg43
I01
sg44
I00
sg45
I39546678
sg46
Vhttps://pbs.twimg.com/profile_background_images/378800000163732765/PdOKr6DH.png
p2816
sg48
I00
sg49
V333333
p2817
sg51
g2814
sg52
g2798
sg53
g2799
sg54
I7463
sg55
VFFFFFF
p2818
sg57
V39546678
p2819
sg59
VFFFFFF
p2820
sg61
I87
sg62
I00
sg63
I-28800
sg64
I291238
sg33
VMedia Sentiment helps you to find the news that matters to you from accounts you follow on twitter! New social networking tool: http://t.co/feRZl5QRu9
p2821
sg66
I7208
sg67
g68
sg69
V911955
p2822
sg71
Vhttp://pbs.twimg.com/profile_images/420277170586394624/5mABm6pI_normal.png
p2823
sg73
I00
sg74
I00
sg350
Vhttps://pbs.twimg.com/profile_banners/39546678/1389036891
p2824
sg75
Vhttp://pbs.twimg.com/profile_background_images/378800000163732765/PdOKr6DH.png
p2825
sg77
Vmediasentiment
p2826
sg79
Ven
p2827
sg81
I00
sg82
I4
sg83
VMedia Sentiment
p2828
sg85
I00
sg86
Vhttp://t.co/TlOjBDQQtY
p2829
sg87
VTue May 12 17:21:24 +0000 2009
p2830
sg89
I00
sg90
VPacific Time (US & Canada)
p2831
sg92
I00
sg93
I00
sg94
I00
ssg95
I00
sg96
g2817
sg97
I7463
sg98
g2818
sg99
g2819
sg100
I00
sg101
I87
sg102
I00
sg103
I-28800
sg104
I291238
sg105
g2821
sg106
I7208
sg107
g68
sg108
g2822
sg109
g2823
sg110
I00
sg111
I00
sg112
g2820
sg358
g2824
sg113
g2825
sg114
g2826
sg115
g2827
sg116
I00
sg117
I00
sg118
I4
sg119
g2828
sg120
g2829
sg121
g122
(S'\x07\xd9\x05\x0c\x11\x15\x18\x00\x00\x00'
p2832
tp2833
Rp2834
sg126
g2816
sg127
g2831
sg128
I00
sg129
I00
sg130
I00
sbsg131
Nsg29
L661686942820528128L
sg132
I0
sg133
VSocial Media Sentiment aheadsup
p2835
sg115
Ven
p2836
sg181
g2796
sg121
g122
(S'\x07\xdf\x0b\x03\x17\x1e#\x00\x00\x00'
p2837
tp2838
Rp2839
sg39
(dp2840
g186
Nsg187
I00
sg188
g2793
sg189
I00
sg190
Nsg45
L661686942820528128L
sg191
I0
sg192
V<a href="http://www.aheadsup.com/" rel="nofollow">Social Media Sentiment aheadsup</a>
p2841
sg194
I00
sg195
Nsg53
(dp2842
g197
(lp2843
(dp2844
g151
(lp2845
I0
aI5
asg188
VEXLS
p2846
sasg232
(lp2847
sg234
(lp2848
(dp2849
g151
(lp2850
I68
aI75
asg188
Vstocks
p2851
sa(dp2852
g151
(lp2853
I76
aI87
asg188
Vdaytrading
p2854
sa(dp2855
g151
(lp2856
I88
aI96
asg188
Vtrading
p2857
sa(dp2858
g151
(lp2859
I97
aI101
asg188
Vmkt
p2860
sa(dp2861
g151
(lp2862
I103
aI108
asg188
VNYSE
p2863
sa(dp2864
g151
(lp2865
I109
aI116
asg188
VNASDAQ
p2866
sa(dp2867
g151
(lp2868
I117
aI125
asg188
Vmarkets
p2869
sasg35
(lp2870
(dp2871
g86
Vhttps://t.co/nZwqReM0tj
p2872
sg151
(lp2873
I44
aI67
asg153
Vhttp://www.mediasentiment.com/
p2874
sg155
Vmediasentiment.com
p2875
sassg242
Nsg243
Nsg244
I0
sg57
V661686942820528128
p2876
sg246
I00
sg247
g2815
sg248
Nsg249
Nsg250
I00
sg79
g2836
sg87
VTue Nov 03 23:30:35 +0000 2015
p2877
sg252
Nsg253
Nsg254
(dp2878
g256
Ven
p2879
sg258
Vrecent
p2880
sssg260
g2878
sg261
Nsg262
Nsg31
g2842
sg263
Nsg264
Nsg99
g2876
sg265
I00
sg266
Nsg267
I0
sg268
Nsbag0
(g4
g5
Ntp2881
Rp2882
(dp2883
g9
I00
sg10
Nsg11
I00
sg12
VExlService Holdings Upgraded at Zacks $EXLS https://t.co/M5xGfwO33z
p2884
sg14
Vhttp://ifttt.com
p2885
sg16
I00
sg17
I00
sg18
Nsg19
g0
(g20
g5
Ntp2886
Rp2887
(dp2888
g24
I00
sg25
I00
sg26
I01
sg27
VEFEFEF
p2889
sg29
I1979190776
sg30
I00
sg31
(dp2890
g33
(dp2891
g35
(lp2892
sssg37
Vhttps://pbs.twimg.com/profile_images/378800000629011324/02a58ce4852fa2c0b053a8853393c35c_normal.png
p2893
sg39
(dp2894
g41
I00
sg42
I00
sg43
I01
sg44
I00
sg45
I1979190776
sg46
Vhttps://abs.twimg.com/images/themes/theme14/bg.gif
p2895
sg48
I00
sg49
V333333
p2896
sg51
g2893
sg52
g2889
sg53
g2890
sg54
I780
sg55
VEEEEEE
p2897
sg57
V1979190776
p2898
sg59
V131516
p2899
sg61
I83
sg62
I00
sg63
Nsg64
I347263
sg33
VMarket moving news
p2900
sg66
I11
sg67
VVirginia
p2901
sg69
V009999
p2902
sg71
Vhttp://pbs.twimg.com/profile_images/378800000629011324/02a58ce4852fa2c0b053a8853393c35c_normal.png
p2903
sg73
I00
sg74
I00
sg75
Vhttp://abs.twimg.com/images/themes/theme14/bg.gif
p2904
sg77
VTickerReport
p2905
sg79
Ven
p2906
sg81
I01
sg82
I0
sg83
VTicker Report
p2907
sg85
I00
sg86
Nsg87
VMon Oct 21 15:58:27 +0000 2013
p2908
sg89
I00
sg90
Nsg92
I00
sg93
I00
sg94
I00
ssg95
I00
sg96
g2896
sg97
I780
sg98
g2897
sg99
g2898
sg100
I00
sg101
I83
sg102
I00
sg103
Nsg104
I347263
sg105
g2900
sg106
I11
sg107
g2901
sg108
g2902
sg109
g2903
sg110
I00
sg111
I00
sg112
g2899
sg113
g2904
sg114
g2905
sg115
g2906
sg116
I00
sg117
I01
sg118
I0
sg119
g2907
sg120
Nsg121
g122
(S'\x07\xdd\n\x15\x0f:\x1b\x00\x00\x00'
p2909
tp2910
Rp2911
sg126
g2895
sg127
Nsg128
I00
sg129
I00
sg130
I00
sbsg131
Nsg29
L661685919108440064L
sg132
I0
sg133
VIFTTT
p2912
sg115
Ven
p2913
sg181
g2887
sg121
g122
(S'\x07\xdf\x0b\x03\x17\x1a\x1f\x00\x00\x00'
p2914
tp2915
Rp2916
sg39
(dp2917
g186
Nsg187
I00
sg188
g2884
sg189
I00
sg190
Nsg45
L661685919108440064L
sg191
I0
sg192
V<a href="http://ifttt.com" rel="nofollow">IFTTT</a>
p2918
sg194
I00
sg195
Nsg53
(dp2919
g197
(lp2920
(dp2921
g151
(lp2922
I38
aI43
asg188
VEXLS
p2923
sasg232
(lp2924
sg234
(lp2925
sg35
(lp2926
(dp2927
g86
Vhttps://t.co/M5xGfwO33z
p2928
sg151
(lp2929
I44
aI67
asg153
Vhttp://ift.tt/1Pkw2AT
p2930
sg155
Vift.tt/1Pkw2AT
p2931
sassg242
Nsg243
Nsg244
I0
sg57
V661685919108440064
p2932
sg246
I00
sg247
g2894
sg248
Nsg249
Nsg250
I00
sg79
g2913
sg87
VTue Nov 03 23:26:31 +0000 2015
p2933
sg252
Nsg253
Nsg254
(dp2934
g256
Ven
p2935
sg258
Vrecent
p2936
sssg260
g2934
sg261
Nsg262
Nsg31
g2919
sg263
Nsg264
Nsg99
g2932
sg265
I00
sg266
Nsg267
I0
sg268
Nsbag0
(g4
g5
Ntp2937
Rp2938
(dp2939
g9
I00
sg10
Nsg11
I00
sg12
VExlService Holdings Upgraded at Zacks $EXLS https://t.co/PqhrkoKFKw
p2940
sg14
Vhttp://ifttt.com
p2941
sg16
I00
sg17
I00
sg18
Nsg19
g0
(g20
g5
Ntp2942
Rp2943
(dp2944
g24
I00
sg25
I00
sg26
I01
sg27
VCCDAFF
p2945
sg29
I61661638
sg30
I00
sg31
(dp2946
g86
(dp2947
g35
(lp2948
(dp2949
g86
Vhttp://t.co/7EZswS49Q1
p2950
sg151
(lp2951
I0
aI22
asg153
Vhttp://www.americanbankingnews.com/
p2952
sg155
Vamericanbankingnews.com
p2953
sassg33
(dp2954
g35
(lp2955
sssg37
Vhttps://pbs.twimg.com/profile_images/541252987/Image5_normal.jpg
p2956
sg39
(dp2957
g41
I00
sg42
I00
sg43
I01
sg44
I00
sg45
I61661638
sg46
Vhttps://pbs.twimg.com/profile_background_images/55647305/background.png
p2958
sg48
I00
sg49
V141414
p2959
sg51
g2956
sg52
g2945
sg53
g2946
sg54
I5557
sg55
VABB1D9
p2960
sg57
V61661638
p2961
sg59
V000000
p2962
sg61
I469
sg62
I00
sg63
I-21600
sg64
I693975
sg33
VBanks, Credit Unions & Financial Institutions
p2963
sg66
I2307
sg67
VSioux Falls, SD
p2964
sg69
VA60000
p2965
sg71
Vhttp://pbs.twimg.com/profile_images/541252987/Image5_normal.jpg
p2966
sg73
I00
sg74
I00
sg75
Vhttp://pbs.twimg.com/profile_background_images/55647305/background.png
p2967
sg77
VAmericanBanking
p2968
sg79
Ven
p2969
sg81
I01
sg82
I0
sg83
VUS Banking News
p2970
sg85
I00
sg86
Vhttp://t.co/7EZswS49Q1
p2971
sg87
VFri Jul 31 01:58:33 +0000 2009
p2972
sg89
I00
sg90
VCentral Time (US & Canada)
p2973
sg92
I00
sg93
I00
sg94
I00
ssg95
I00
sg96
g2959
sg97
I5557
sg98
g2960
sg99
g2961
sg100
I00
sg101
I469
sg102
I00
sg103
I-21600
sg104
I693975
sg105
g2963
sg106
I2307
sg107
g2964
sg108
g2965
sg109
g2966
sg110
I00
sg111
I00
sg112
g2962
sg113
g2967
sg114
g2968
sg115
g2969
sg116
I00
sg117
I01
sg118
I0
sg119
g2970
sg120
g2971
sg121
g122
(S'\x07\xd9\x07\x1f\x01:!\x00\x00\x00'
p2974
tp2975
Rp2976
sg126
g2958
sg127
g2973
sg128
I00
sg129
I00
sg130
I00
sbsg131
Nsg29
L661685462466195456L
sg132
I0
sg133
VIFTTT
p2977
sg115
Ven
p2978
sg181
g2943
sg121
g122
(S'\x07\xdf\x0b\x03\x17\x18*\x00\x00\x00'
p2979
tp2980
Rp2981
sg39
(dp2982
g186
Nsg187
I00
sg188
g2940
sg189
I00
sg190
Nsg45
L661685462466195456L
sg191
I0
sg192
V<a href="http://ifttt.com" rel="nofollow">IFTTT</a>
p2983
sg194
I00
sg195
Nsg53
(dp2984
g197
(lp2985
(dp2986
g151
(lp2987
I38
aI43
asg188
VEXLS
p2988
sasg232
(lp2989
sg234
(lp2990
sg35
(lp2991
(dp2992
g86
Vhttps://t.co/PqhrkoKFKw
p2993
sg151
(lp2994
I44
aI67
asg153
Vhttp://ift.tt/1Pkw2AT
p2995
sg155
Vift.tt/1Pkw2AT
p2996
sassg242
Nsg243
Nsg244
I0
sg57
V661685462466195456
p2997
sg246
I00
sg247
g2957
sg248
Nsg249
Nsg250
I00
sg79
g2978
sg87
VTue Nov 03 23:24:42 +0000 2015
p2998
sg252
Nsg253
Nsg254
(dp2999
g256
Ven
p3000
sg258
Vrecent
p3001
sssg260
g2999
sg261
Nsg262
Nsg31
g2984
sg263
Nsg264
Nsg99
g2997
sg265
I00
sg266
Nsg267
I0
sg268
Nsbag0
(g4
g5
Ntp3002
Rp3003
(dp3004
g9
I00
sg10
Nsg11
I00
sg12
Vmediasentiment: $EXLS received a new alert. Find out why at https://t.co/6A03PDuOjo #stocks #daytrading #trading \u2026 https://t.co/X3n8d6GPom
p3005
sg14
Vhttp://ifttt.com
p3006
sg16
I00
sg17
I00
sg18
Nsg19
g0
(g20
g5
Ntp3007
Rp3008
(dp3009
g24
I00
sg25
I01
sg26
I00
sg27
V000000
p3010
sg29
L3341108853L
sg30
I00
sg31
(dp3011
g86
(dp3012
g35
(lp3013
(dp3014
g86
Vhttp://t.co/GKmXXFr1H3
p3015
sg151
(lp3016
I0
aI22
asg153
Vhttp://bit.ly/affprogr
p3017
sg155
Vbit.ly/affprogr
p3018
sassg33
(dp3019
g35
(lp3020
sssg37
Vhttps://pbs.twimg.com/profile_images/612969970595557376/5tCHyp65_normal.jpg
p3021
sg39
(dp3022
g41
I00
sg42
I01
sg43
I00
sg44
I00
sg45
L3341108853L
sg46
Vhttps://abs.twimg.com/images/themes/theme18/bg.gif
p3023
sg48
I00
sg49
V000000
p3024
sg51
g3021
sg52
g3010
sg53
g3011
sg54
I1665
sg55
V000000
p3025
sg57
V3341108853
p3026
sg59
V000000
p3027
sg61
I933
sg62
I00
sg63
Nsg64
I286029
sg33
V#aff #affiliate @cpa #forex #makemoney
p3028
sg66
I827
sg67
g68
sg69
V89C9FA
p3029
sg71
Vhttp://pbs.twimg.com/profile_images/612969970595557376/5tCHyp65_normal.jpg
p3030
sg73
I00
sg74
I01
sg350
Vhttps://pbs.twimg.com/profile_banners/3341108853/1434978570
p3031
sg75
Vhttp://abs.twimg.com/images/themes/theme18/bg.gif
p3032
sg77
Vm_zooey
p3033
sg79
Ven
p3034
sg81
I00
sg82
I26
sg83
Vzooey m
p3035
sg85
I00
sg86
Vhttp://t.co/GKmXXFr1H3
p3036
sg87
VMon Jun 22 11:56:21 +0000 2015
p3037
sg89
I00
sg90
Nsg92
I00
sg93
I00
sg94
I00
ssg95
I00
sg96
g3024
sg97
I1665
sg98
g3025
sg99
g3026
sg100
I00
sg101
I933
sg102
I00
sg103
Nsg104
I286029
sg105
g3028
sg106
I827
sg107
g68
sg108
g3029
sg109
g3030
sg110
I00
sg111
I01
sg112
g3027
sg358
g3031
sg113
g3032
sg114
g3033
sg115
g3034
sg116
I00
sg117
I00
sg118
I26
sg119
g3035
sg120
g3036
sg121
g122
(S'\x07\xdf\x06\x16\x0b8\x15\x00\x00\x00'
p3038
tp3039
Rp3040
sg126
g3023
sg127
Nsg128
I00
sg129
I00
sg130
I00
sbsg131
Nsg29
L661684732791533568L
sg132
I0
sg133
VIFTTT
p3041
sg115
Ven
p3042
sg181
g3008
sg121
g122
(S'\x07\xdf\x0b\x03\x17\x150\x00\x00\x00'
p3043
tp3044
Rp3045
sg39
(dp3046
g186
Nsg187
I00
sg188
g3005
sg189
I00
sg190
Nsg45
L661684732791533568L
sg191
I0
sg192
V<a href="http://ifttt.com" rel="nofollow">IFTTT</a>
p3047
sg194
I00
sg195
Nsg53
(dp3048
g197
(lp3049
(dp3050
g151
(lp3051
I16
aI21
asg188
VEXLS
p3052
sasg232
(lp3053
sg234
(lp3054
(dp3055
g151
(lp3056
I84
aI91
asg188
Vstocks
p3057
sa(dp3058
g151
(lp3059
I92
aI103
asg188
Vdaytrading
p3060
sa(dp3061
g151
(lp3062
I104
aI112
asg188
Vtrading
p3063
sasg35
(lp3064
(dp3065
g86
Vhttps://t.co/6A03PDuOjo
p3066
sg151
(lp3067
I60
aI83
asg153
Vhttp://www.mediasentiment.com/
p3068
sg155
Vmediasentiment.com
p3069
sa(dp3070
g86
Vhttps://t.co/X3n8d6GPom
p3071
sg151
(lp3072
I115
aI138
asg153
Vhttp://goo.gl/MQRRCT
p3073
sg155
Vgoo.gl/MQRRCT
p3074
sassg242
Nsg243
Nsg244
I0
sg57
V661684732791533568
p3075
sg246
I00
sg247
g3022
sg248
Nsg249
Nsg250
I00
sg79
g3042
sg87
VTue Nov 03 23:21:48 +0000 2015
p3076
sg252
Nsg253
Nsg254
(dp3077
g256
Ven
p3078
sg258
Vrecent
p3079
sssg260
g3077
sg261
Nsg262
Nsg31
g3048
sg263
Nsg264
Nsg99
g3075
sg265
I00
sg266
Nsg267
I0
sg268
Nsbag0
(g4
g5
Ntp3080
Rp3081
(dp3082
g9
I00
sg10
Nsg11
I00
sg12
VExlService Holdings upgraded by Zacks to buy. $51.00 PT. https://t.co/Vo1kQrjp6h $EXLS #EXLS
p3083
sg14
Vhttp://ifttt.com
p3084
sg16
I00
sg17
I00
sg18
Nsg19
g0
(g20
g5
Ntp3085
Rp3086
(dp3087
g24
I00
sg25
I00
sg26
I01
sg27
VF6FFD1
p3088
sg29
I68559732
sg30
I00
sg31
(dp3089
g86
(dp3090
g35
(lp3091
(dp3092
g86
Vhttp://t.co/OKklQuZ0Um
p3093
sg151
(lp3094
I0
aI22
asg153
Vhttp://www.americanconsumernews.com
p3095
sg155
Vamericanconsumernews.com
p3096
sassg33
(dp3097
g35
(lp3098
sssg37
Vhttps://pbs.twimg.com/profile_images/379977873/msn_normal.jpg
p3099
sg39
(dp3100
g41
I00
sg42
I00
sg43
I01
sg44
I00
sg45
I68559732
sg46
Vhttps://abs.twimg.com/images/themes/theme19/bg.gif
p3101
sg48
I00
sg49
V333333
p3102
sg51
g3099
sg52
g3088
sg53
g3089
sg54
I4381
sg55
VFFF8AD
p3103
sg57
V68559732
p3104
sg59
VFFF04D
p3105
sg61
I397
sg62
I00
sg63
I-21600
sg64
I255294
sg33
VNews for Consumers in a Changing World
p3106
sg66
I2843
sg67
VSioux Falls, SD
p3107
sg69
V0099CC
p3108
sg71
Vhttp://pbs.twimg.com/profile_images/379977873/msn_normal.jpg
p3109
sg73
I00
sg74
I00
sg75
Vhttp://abs.twimg.com/images/themes/theme19/bg.gif
p3110
sg77
VConsumerFeed
p3111
sg79
Ven
p3112
sg81
I00
sg82
I0
sg83
VUS Consumer News
p3113
sg85
I00
sg86
Vhttp://t.co/OKklQuZ0Um
p3114
sg87
VTue Aug 25 00:39:44 +0000 2009
p3115
sg89
I00
sg90
VCentral Time (US & Canada)
p3116
sg92
I00
sg93
I00
sg94
I00
ssg95
I00
sg96
g3102
sg97
I4381
sg98
g3103
sg99
g3104
sg100
I00
sg101
I397
sg102
I00
sg103
I-21600
sg104
I255294
sg105
g3106
sg106
I2843
sg107
g3107
sg108
g3108
sg109
g3109
sg110
I00
sg111
I00
sg112
g3105
sg113
g3110
sg114
g3111
sg115
g3112
sg116
I00
sg117
I00
sg118
I0
sg119
g3113
sg120
g3114
sg121
g122
(S"\x07\xd9\x08\x19\x00',\x00\x00\x00"
p3117
tp3118
Rp3119
sg126
g3101
sg127
g3116
sg128
I00
sg129
I00
sg130
I00
sbsg131
Nsg29
L661683747331420161L
sg132
I0
sg133
VIFTTT
p3120
sg115
Ven
p3121
sg181
g3086
sg121
g122
(S'\x07\xdf\x0b\x03\x17\x115\x00\x00\x00'
p3122
tp3123
Rp3124
sg39
(dp3125
g186
Nsg187
I00
sg188
g3083
sg189
I00
sg190
Nsg45
L661683747331420161L
sg191
I0
sg192
V<a href="http://ifttt.com" rel="nofollow">IFTTT</a>
p3126
sg194
I00
sg195
Nsg53
(dp3127
g197
(lp3128
(dp3129
g151
(lp3130
I81
aI86
asg188
VEXLS
p3131
sasg232
(lp3132
sg234
(lp3133
(dp3134
g151
(lp3135
I87
aI92
asg188
VEXLS
p3136
sasg35
(lp3137
(dp3138
g86
Vhttps://t.co/Vo1kQrjp6h
p3139
sg151
(lp3140
I57
aI80
asg153
Vhttp://ift.tt/1Ncbw0P
p3141
sg155
Vift.tt/1Ncbw0P
p3142
sassg242
Nsg243
Nsg244
I0
sg57
V661683747331420161
p3143
sg246
I00
sg247
g3100
sg248
Nsg249
Nsg250
I00
sg79
g3121
sg87
VTue Nov 03 23:17:53 +0000 2015
p3144
sg252
Nsg253
Nsg254
(dp3145
g256
Ven
p3146
sg258
Vrecent
p3147
sssg260
g3145
sg261
Nsg262
Nsg31
g3127
sg263
Nsg264
Nsg99
g3143
sg265
I00
sg266
Nsg267
I0
sg268
Nsbag0
(g4
g5
Ntp3148
Rp3149
(dp3150
g9
I00
sg10
Nsg11
I00
sg12
V$EXLS received a new alert. Find out why at https://t.co/nZwqReM0tj #stocks #daytrading #trading #mkt  #NYSE #NASDAQ #markets 851
p3151
sg14
Vhttp://www.aheadsup.com/
p3152
sg16
I00
sg17
I00
sg18
Nsg19
g0
(g20
g5
Ntp3153
Rp3154
(dp3155
g24
I00
sg25
I00
sg26
I01
sg27
VDDEEF6
p3156
sg29
I39546678
sg30
I00
sg31
(dp3157
g86
(dp3158
g35
(lp3159
(dp3160
g86
Vhttp://t.co/TlOjBDQQtY
p3161
sg151
(lp3162
I0
aI22
asg153
Vhttp://www.MediaSentiment.com
p3163
sg155
VMediaSentiment.com
p3164
sassg33
(dp3165
g35
(lp3166
(dp3167
g86
Vhttp://t.co/feRZl5QRu9
p3168
sg151
(lp3169
I129
aI151
asg153
Vhttp://www.aheadsup.com
p3170
sg155
Vaheadsup.com
p3171
sasssg37
Vhttps://pbs.twimg.com/profile_images/420277170586394624/5mABm6pI_normal.png
p3172
sg39
(dp3173
g41
I00
sg42
I00
sg43
I01
sg44
I00
sg45
I39546678
sg46
Vhttps://pbs.twimg.com/profile_background_images/378800000163732765/PdOKr6DH.png
p3174
sg48
I00
sg49
V333333
p3175
sg51
g3172
sg52
g3156
sg53
g3157
sg54
I7463
sg55
VFFFFFF
p3176
sg57
V39546678
p3177
sg59
VFFFFFF
p3178
sg61
I87
sg62
I00
sg63
I-28800
sg64
I291238
sg33
VMedia Sentiment helps you to find the news that matters to you from accounts you follow on twitter! New social networking tool: http://t.co/feRZl5QRu9
p3179
sg66
I7208
sg67
g68
sg69
V911955
p3180
sg71
Vhttp://pbs.twimg.com/profile_images/420277170586394624/5mABm6pI_normal.png
p3181
sg73
I00
sg74
I00
sg350
Vhttps://pbs.twimg.com/profile_banners/39546678/1389036891
p3182
sg75
Vhttp://pbs.twimg.com/profile_background_images/378800000163732765/PdOKr6DH.png
p3183
sg77
Vmediasentiment
p3184
sg79
Ven
p3185
sg81
I00
sg82
I4
sg83
VMedia Sentiment
p3186
sg85
I00
sg86
Vhttp://t.co/TlOjBDQQtY
p3187
sg87
VTue May 12 17:21:24 +0000 2009
p3188
sg89
I00
sg90
VPacific Time (US & Canada)
p3189
sg92
I00
sg93
I00
sg94
I00
ssg95
I00
sg96
g3175
sg97
I7463
sg98
g3176
sg99
g3177
sg100
I00
sg101
I87
sg102
I00
sg103
I-28800
sg104
I291238
sg105
g3179
sg106
I7208
sg107
g68
sg108
g3180
sg109
g3181
sg110
I00
sg111
I00
sg112
g3178
sg358
g3182
sg113
g3183
sg114
g3184
sg115
g3185
sg116
I00
sg117
I00
sg118
I4
sg119
g3186
sg120
g3187
sg121
g122
(S'\x07\xd9\x05\x0c\x11\x15\x18\x00\x00\x00'
p3190
tp3191
Rp3192
sg126
g3174
sg127
g3189
sg128
I00
sg129
I00
sg130
I00
sbsg131
Nsg29
L661683658642755584L
sg132
I0
sg133
VSocial Media Sentiment aheadsup
p3193
sg115
Ven
p3194
sg181
g3154
sg121
g122
(S'\x07\xdf\x0b\x03\x17\x11 \x00\x00\x00'
p3195
tp3196
Rp3197
sg39
(dp3198
g186
Nsg187
I00
sg188
g3151
sg189
I00
sg190
Nsg45
L661683658642755584L
sg191
I0
sg192
V<a href="http://www.aheadsup.com/" rel="nofollow">Social Media Sentiment aheadsup</a>
p3199
sg194
I00
sg195
Nsg53
(dp3200
g197
(lp3201
(dp3202
g151
(lp3203
I0
aI5
asg188
VEXLS
p3204
sasg232
(lp3205
sg234
(lp3206
(dp3207
g151
(lp3208
I68
aI75
asg188
Vstocks
p3209
sa(dp3210
g151
(lp3211
I76
aI87
asg188
Vdaytrading
p3212
sa(dp3213
g151
(lp3214
I88
aI96
asg188
Vtrading
p3215
sa(dp3216
g151
(lp3217
I97
aI101
asg188
Vmkt
p3218
sa(dp3219
g151
(lp3220
I103
aI108
asg188
VNYSE
p3221
sa(dp3222
g151
(lp3223
I109
aI116
asg188
VNASDAQ
p3224
sa(dp3225
g151
(lp3226
I117
aI125
asg188
Vmarkets
p3227
sasg35
(lp3228
(dp3229
g86
Vhttps://t.co/nZwqReM0tj
p3230
sg151
(lp3231
I44
aI67
asg153
Vhttp://www.mediasentiment.com/
p3232
sg155
Vmediasentiment.com
p3233
sassg242
Nsg243
Nsg244
I0
sg57
V661683658642755584
p3234
sg246
I00
sg247
g3173
sg248
Nsg249
Nsg250
I00
sg79
g3194
sg87
VTue Nov 03 23:17:32 +0000 2015
p3235
sg252
Nsg253
Nsg254
(dp3236
g256
Ven
p3237
sg258
Vrecent
p3238
sssg260
g3236
sg261
Nsg262
Nsg31
g3200
sg263
Nsg264
Nsg99
g3234
sg265
I00
sg266
Nsg267
I0
sg268
Nsbag0
(g4
g5
Ntp3239
Rp3240
(dp3241
g9
I00
sg10
Nsg11
I00
sg12
VExlService Holdings upgraded by Zacks to buy. $51.00 PT. https://t.co/0qC9hBQkIh $EXLS #EXLS
p3242
sg14
Vhttp://ifttt.com
p3243
sg16
I00
sg17
I00
sg18
Nsg19
g0
(g20
g5
Ntp3244
Rp3245
(dp3246
g24
I00
sg25
I00
sg26
I01
sg27
VEFEFEF
p3247
sg29
I992182100
sg30
I00
sg31
(dp3248
g86
(dp3249
g35
(lp3250
(dp3251
g86
Vhttp://t.co/8V4MkNiWl0
p3252
sg151
(lp3253
I0
aI22
asg153
Vhttp://www.marketbeat.com
p3254
sg155
Vmarketbeat.com
p3255
sassg33
(dp3256
g35
(lp3257
(dp3258
g86
Vhttp://t.co/3t3pBdeo4G
p3259
sg151
(lp3260
I34
aI56
asg153
Vhttp://MarketBeat.com
p3261
sg155
VMarketBeat.com
p3262
sasssg37
Vhttps://pbs.twimg.com/profile_images/605433922986606592/LeOUrdkT_normal.png
p3263
sg39
(dp3264
g41
I00
sg42
I00
sg43
I01
sg44
I00
sg45
I992182100
sg46
Vhttps://abs.twimg.com/images/themes/theme14/bg.gif
p3265
sg48
I00
sg49
V333333
p3266
sg51
g3263
sg52
g3247
sg53
g3248
sg54
I3561
sg55
VFFFFFF
p3267
sg57
V992182100
p3268
sg59
V131516
p3269
sg61
I359
sg62
I00
sg63
Nsg64
I226213
sg33
VFormerly Analyst Ratings Network. http://t.co/3t3pBdeo4G tracks analyst upgrades, downgrades and new coverage in real-time.
p3270
sg66
I2
sg67
VSioux Falls, SD
p3271
sg69
V002277
p3272
sg71
Vhttp://pbs.twimg.com/profile_images/605433922986606592/LeOUrdkT_normal.png
p3273
sg73
I00
sg74
I00
sg350
Vhttps://pbs.twimg.com/profile_banners/992182100/1410482657
p3274
sg75
Vhttp://abs.twimg.com/images/themes/theme14/bg.gif
p3275
sg77
VRatingsNetwork
p3276
sg79
Ven
p3277
sg81
I01
sg82
I0
sg83
VMarketBeatCom
p3278
sg85
I00
sg86
Vhttp://t.co/8V4MkNiWl0
p3279
sg87
VThu Dec 06 01:50:15 +0000 2012
p3280
sg89
I00
sg90
Nsg92
I00
sg93
I00
sg94
I00
ssg95
I00
sg96
g3266
sg97
I3561
sg98
g3267
sg99
g3268
sg100
I00
sg101
I359
sg102
I00
sg103
Nsg104
I226213
sg105
g3270
sg106
I2
sg107
g3271
sg108
g3272
sg109
g3273
sg110
I00
sg111
I00
sg112
g3269
sg358
g3274
sg113
g3275
sg114
g3276
sg115
g3277
sg116
I00
sg117
I01
sg118
I0
sg119
g3278
sg120
g3279
sg121
g122
(S'\x07\xdc\x0c\x06\x012\x0f\x00\x00\x00'
p3281
tp3282
Rp3283
sg126
g3265
sg127
Nsg128
I00
sg129
I00
sg130
I00
sbsg131
Nsg29
L661682428227035137L
sg132
I0
sg133
VIFTTT
p3284
sg115
Ven
p3285
sg181
g3245
sg121
g122
(S"\x07\xdf\x0b\x03\x17\x0c'\x00\x00\x00"
p3286
tp3287
Rp3288
sg39
(dp3289
g186
Nsg187
I00
sg188
g3242
sg189
I00
sg190
Nsg45
L661682428227035137L
sg191
I0
sg192
V<a href="http://ifttt.com" rel="nofollow">IFTTT</a>
p3290
sg194
I00
sg195
Nsg53
(dp3291
g197
(lp3292
(dp3293
g151
(lp3294
I81
aI86
asg188
VEXLS
p3295
sasg232
(lp3296
sg234
(lp3297
(dp3298
g151
(lp3299
I87
aI92
asg188
VEXLS
p3300
sasg35
(lp3301
(dp3302
g86
Vhttps://t.co/0qC9hBQkIh
p3303
sg151
(lp3304
I57
aI80
asg153
Vhttp://ift.tt/1Ncbw0P
p3305
sg155
Vift.tt/1Ncbw0P
p3306
sassg242
Nsg243
Nsg244
I0
sg57
V661682428227035137
p3307
sg246
I00
sg247
g3264
sg248
Nsg249
Nsg250
I00
sg79
g3285
sg87
VTue Nov 03 23:12:39 +0000 2015
p3308
sg252
Nsg253
Nsg254
(dp3309
g256
Ven
p3310
sg258
Vrecent
p3311
sssg260
g3309
sg261
Nsg262
Nsg31
g3291
sg263
Nsg264
Nsg99
g3307
sg265
I00
sg266
Nsg267
I0
sg268
Nsbag0
(g4
g5
Ntp3312
Rp3313
(dp3314
g9
I00
sg10
Nsg11
I00
sg12
VA bullish Big MAC (Bullish) has occurred at 3:30 PM Nov 03 at  $45.88 on Exlservice Holdings Inc (EXLS) $EXLS
p3315
sg14
Vhttp://www.recognia.com
p3316
sg17
I00
sg18
Nsg19
g0
(g20
g5
Ntp3317
Rp3318
(dp3319
g24
I00
sg25
I00
sg26
I01
sg27
VDDEEF6
p3320
sg29
I206820388
sg30
I00
sg31
(dp3321
g33
(dp3322
g35
(lp3323
sssg37
Vhttps://pbs.twimg.com/profile_images/603607850636611584/xF1GqS_I_normal.jpg
p3324
sg39
(dp3325
g41
I00
sg42
I00
sg43
I01
sg44
I00
sg45
I206820388
sg46
Vhttps://abs.twimg.com/images/themes/theme1/bg.png
p3326
sg48
I00
sg49
V333333
p3327
sg51
g3324
sg52
g3320
sg53
g3321
sg54
I119
sg55
VC0DEED
p3328
sg57
V206820388
p3329
sg59
VC0DEED
p3330
sg61
I19
sg62
I00
sg63
I-28800
sg64
I37533
sg33
g68
sg66
I0
sg67
g68
sg69
V0084B4
p3331
sg71
Vhttp://pbs.twimg.com/profile_images/603607850636611584/xF1GqS_I_normal.jpg
p3332
sg73
I00
sg74
I00
sg75
Vhttp://abs.twimg.com/images/themes/theme1/bg.png
p3333
sg77
VSyedWaqasNabi
p3334
sg79
Ven
p3335
sg81
I00
sg82
I0
sg83
VSyed Waqas Nabi
p3336
sg85
I00
sg86
Nsg87
VSat Oct 23 20:16:00 +0000 2010
p3337
sg89
I00
sg90
VPacific Time (US & Canada)
p3338
sg92
I00
sg93
I01
sg94
I00
ssg95
I00
sg96
g3327
sg97
I119
sg98
g3328
sg99
g3329
sg100
I00
sg101
I19
sg102
I00
sg103
I-28800
sg104
I37533
sg105
g68
sg106
I0
sg107
g68
sg108
g3331
sg109
g3332
sg110
I00
sg111
I00
sg112
g3330
sg113
g3333
sg114
g3334
sg115
g3335
sg116
I00
sg117
I00
sg118
I0
sg119
g3336
sg120
Nsg121
g122
(S'\x07\xda\n\x17\x14\x10\x00\x00\x00\x00'
p3339
tp3340
Rp3341
sg126
g3326
sg127
g3338
sg128
I00
sg129
I01
sg130
I00
sbsg131
Nsg29
L661649077134725120L
sg132
I0
sg133
Vrecognia
p3342
sg115
Ven
p3343
sg181
g3318
sg121
g122
(S'\x07\xdf\x0b\x03\x15\x00\x07\x00\x00\x00'
p3344
tp3345
Rp3346
sg39
(dp3347
g186
Nsg187
I00
sg188
g3315
sg189
I00
sg190
Nsg45
L661649077134725120L
sg191
I0
sg192
V<a href="http://www.recognia.com" rel="nofollow">recognia</a>
p3348
sg194
I00
sg195
Nsg53
(dp3349
g197
(lp3350
(dp3351
g151
(lp3352
I104
aI109
asg188
VEXLS
p3353
sasg232
(lp3354
sg234
(lp3355
sg35
(lp3356
ssg242
Nsg243
Nsg244
I0
sg57
V661649077134725120
p3357
sg246
I00
sg247
g3325
sg248
Nsg249
Nsg79
g3343
sg87
VTue Nov 03 21:00:07 +0000 2015
p3358
sg252
Nsg253
Nsg254
(dp3359
g256
Ven
p3360
sg258
Vrecent
p3361
sssg260
g3359
sg261
Nsg262
Nsg31
g3349
sg263
Nsg264
Nsg99
g3357
sg265
I00
sg266
Nsg267
I0
sg268
Nsbag0
(g4
g5
Ntp3362
Rp3363
(dp3364
g9
I00
sg10
Nsg11
I00
sg12
Vhttps://t.co/PaeoOqXYCN Daily Round Up 11/2/15: ATU, CAPL, KMI, VEEV https://t.co/lbe4RASIEJ $AMED $ASGN $BGFV $CAPL $DHIL $EXLS $GOOG $IPI
p3365
sg14
Vhttp://seekingalpha.com
p3366
sg16
I00
sg17
I00
sg18
Nsg19
g0
(g20
g5
Ntp3367
Rp3368
(dp3369
g24
I00
sg25
I00
sg26
I00
sg27
V000000
p3370
sg29
L2999689781L
sg30
I00
sg31
(dp3371
g86
(dp3372
g35
(lp3373
(dp3374
g86
Vhttp://t.co/IIN12MOh9q
p3375
sg151
(lp3376
I0
aI22
asg153
Vhttp://seekingalpha.com/analysis/investing-ideas/insider-ownership
p3377
sg155
Vseekingalpha.com/analysis/inves\u2026
p3378
sassg33
(dp3379
g35
(lp3380
(dp3381
g86
Vhttps://t.co/nzLmsIKexy
p3382
sg151
(lp3383
I97
aI120
asg153
Vhttps://twitter.com/SeekingAlpha/following
p3384
sg155
Vtwitter.com/SeekingAlpha/f\u2026
p3385
sasssg37
Vhttps://pbs.twimg.com/profile_images/559717010003611648/WEcG1sfm_normal.png
p3386
sg39
(dp3387
g41
I00
sg42
I00
sg43
I00
sg44
I00
sg45
L2999689781L
sg46
Vhttps://abs.twimg.com/images/themes/theme1/bg.png
p3388
sg48
I00
sg49
V000000
p3389
sg51
g3386
sg52
g3370
sg53
g3371
sg54
I1216
sg55
V000000
p3390
sg57
V2999689781
p3391
sg59
VC0DEED
p3392
sg61
I20
sg62
I01
sg63
I7200
sg64
I373
sg33
VSeeking Alpha's coverage of insider purchases and sales of stocks. For all SA Twitter feeds, see https://t.co/nzLmsIKexy
p3393
sg66
I32
sg67
g68
sg69
V360000
p3394
sg71
Vhttp://pbs.twimg.com/profile_images/559717010003611648/WEcG1sfm_normal.png
p3395
sg73
I00
sg74
I00
sg75
Vhttp://abs.twimg.com/images/themes/theme1/bg.png
p3396
sg77
VSA_Insiders
p3397
sg79
Ven
p3398
sg81
I00
sg82
I0
sg83
VInsider Stock Buys
p3399
sg85
I00
sg86
Vhttp://t.co/IIN12MOh9q
p3400
sg87
VMon Jan 26 14:17:20 +0000 2015
p3401
sg89
I00
sg90
VBucharest
p3402
sg92
I00
sg93
I00
sg94
I00
ssg95
I00
sg96
g3389
sg97
I1216
sg98
g3390
sg99
g3391
sg100
I00
sg101
I20
sg102
I01
sg103
I7200
sg104
I373
sg105
g3393
sg106
I32
sg107
g68
sg108
g3394
sg109
g3395
sg110
I00
sg111
I00
sg112
g3392
sg113
g3396
sg114
g3397
sg115
g3398
sg116
I00
sg117
I00
sg118
I0
sg119
g3399
sg120
g3400
sg121
g122
(S'\x07\xdf\x01\x1a\x0e\x11\x14\x00\x00\x00'
p3403
tp3404
Rp3405
sg126
g3388
sg127
g3402
sg128
I00
sg129
I00
sg130
I00
sbsg131
Nsg29
L661640213156859904L
sg132
I0
sg133
VSeeking Alpha
p3406
sg115
Ven
p3407
sg181
g3368
sg121
g122
(S'\x07\xdf\x0b\x03\x14\x186\x00\x00\x00'
p3408
tp3409
Rp3410
sg39
(dp3411
g186
Nsg187
I00
sg188
g3365
sg189
I00
sg190
Nsg45
L661640213156859904L
sg191
I0
sg192
V<a href="http://seekingalpha.com" rel="nofollow">Seeking Alpha</a>
p3412
sg194
I00
sg195
Nsg53
(dp3413
g197
(lp3414
(dp3415
g151
(lp3416
I93
aI98
asg188
VAMED
p3417
sa(dp3418
g151
(lp3419
I99
aI104
asg188
VASGN
p3420
sa(dp3421
g151
(lp3422
I105
aI110
asg188
VBGFV
p3423
sa(dp3424
g151
(lp3425
I111
aI116
asg188
VCAPL
p3426
sa(dp3427
g151
(lp3428
I117
aI122
asg188
VDHIL
p3429
sa(dp3430
g151
(lp3431
I123
aI128
asg188
VEXLS
p3432
sa(dp3433
g151
(lp3434
I129
aI134
asg188
VGOOG
p3435
sa(dp3436
g151
(lp3437
I135
aI139
asg188
VIPI
p3438
sasg232
(lp3439
sg234
(lp3440
sg35
(lp3441
(dp3442
g86
Vhttps://t.co/PaeoOqXYCN
p3443
sg151
(lp3444
I0
aI23
asg153
Vhttp://InsiderInsights.com
p3445
sg155
VInsiderInsights.com
p3446
sa(dp3447
g86
Vhttps://t.co/lbe4RASIEJ
p3448
sg151
(lp3449
I69
aI92
asg153
Vhttp://seekingalpha.com/article/3639626-insiderinsights-com-daily-round-up-11-2-15-atu-capl-kmi-veev?source=twitter_sa_insiders
p3450
sg155
Vseekingalpha.com/article/363962\u2026
p3451
sassg242
Nsg243
Nsg244
I0
sg57
V661640213156859904
p3452
sg246
I00
sg247
g3387
sg248
Nsg249
Nsg250
I00
sg79
g3407
sg87
VTue Nov 03 20:24:54 +0000 2015
p3453
sg252
Nsg253
Nsg254
(dp3454
g256
Ven
p3455
sg258
Vrecent
p3456
sssg260
g3454
sg261
Nsg262
Nsg31
g3413
sg263
Nsg264
Nsg99
g3452
sg265
I00
sg266
Nsg267
I0
sg268
Nsbag0
(g4
g5
Ntp3457
Rp3458
(dp3459
g9
I00
sg10
Nsg11
I00
sg12
Vhttps://t.co/y3ZkTSXVfQ Daily Round Up 11/2/15: ATU, CAPL, KMI, VEEV https://t.co/ujFKjrfA3p $AMED $ASGN $BGFV $CAPL $DHIL $EXLS $GOOG $IPI
p3460
sg14
Vhttp://seekingalpha.com
p3461
sg16
I00
sg17
I00
sg18
Nsg19
g0
(g20
g5
Ntp3462
Rp3463
(dp3464
g24
I00
sg25
I00
sg26
I01
sg27
VDDEEF6
p3465
sg29
I23059499
sg30
I00
sg31
(dp3466
g86
(dp3467
g35
(lp3468
(dp3469
g86
Vhttp://t.co/VicXVZ0dsp
p3470
sg151
(lp3471
I0
aI22
asg153
Vhttp://SeekingAlpha.com
p3472
sg155
VSeekingAlpha.com
p3473
sassg33
(dp3474
g35
(lp3475
(dp3476
g86
Vhttps://t.co/nzLmsIKexy
p3477
sg151
(lp3478
I105
aI128
asg153
Vhttps://twitter.com/SeekingAlpha/following
p3479
sg155
Vtwitter.com/SeekingAlpha/f\u2026
p3480
sasssg37
Vhttps://pbs.twimg.com/profile_images/534299535552421888/eHacq8EQ_normal.png
p3481
sg39
(dp3482
g41
I00
sg42
I00
sg43
I01
sg44
I00
sg45
I23059499
sg46
Vhttps://pbs.twimg.com/profile_background_images/436400133916225536/dxS1wkvd.png
p3483
sg48
I00
sg49
V333333
p3484
sg51
g3481
sg52
g3465
sg53
g3466
sg54
I80455
sg55
VFFFFFF
p3485
sg57
V23059499
p3486
sg59
VD9D9D9
p3487
sg61
I2816
sg62
I00
sg63
I-18000
sg64
I357166
sg33
VContributor articles from Seeking Alpha, #1 in crowdsourced equity research. See all SA Twitter feeds at https://t.co/nzLmsIKexy
p3488
sg66
I223
sg67
g68
sg69
V4A0C0D
p3489
sg71
Vhttp://pbs.twimg.com/profile_images/534299535552421888/eHacq8EQ_normal.png
p3490
sg73
I00
sg74
I00
sg350
Vhttps://pbs.twimg.com/profile_banners/23059499/1398763809
p3491
sg75
Vhttp://pbs.twimg.com/profile_background_images/436400133916225536/dxS1wkvd.png
p3492
sg77
VSeekingAlpha
p3493
sg79
Ven
p3494
sg81
I00
sg82
I15
sg83
VSeeking Alpha
p3495
sg85
I00
sg86
Vhttp://t.co/VicXVZ0dsp
p3496
sg87
VFri Mar 06 12:52:56 +0000 2009
p3497
sg89
I00
sg90
VEastern Time (US & Canada)
p3498
sg92
I00
sg93
I00
sg94
I00
ssg95
I00
sg96
g3484
sg97
I80455
sg98
g3485
sg99
g3486
sg100
I00
sg101
I2816
sg102
I00
sg103
I-18000
sg104
I357166
sg105
g3488
sg106
I223
sg107
g68
sg108
g3489
sg109
g3490
sg110
I00
sg111
I00
sg112
g3487
sg358
g3491
sg113
g3492
sg114
g3493
sg115
g3494
sg116
I00
sg117
I00
sg118
I15
sg119
g3495
sg120
g3496
sg121
g122
(S'\x07\xd9\x03\x06\x0c48\x00\x00\x00'
p3499
tp3500
Rp3501
sg126
g3483
sg127
g3498
sg128
I00
sg129
I00
sg130
I00
sbsg131
Nsg29
L661640211303022596L
sg132
I0
sg133
VSeeking Alpha
p3502
sg115
Ven
p3503
sg181
g3463
sg121
g122
(S'\x07\xdf\x0b\x03\x14\x185\x00\x00\x00'
p3504
tp3505
Rp3506
sg39
(dp3507
g186
Nsg187
I00
sg188
g3460
sg189
I00
sg190
Nsg45
L661640211303022596L
sg191
I0
sg192
V<a href="http://seekingalpha.com" rel="nofollow">Seeking Alpha</a>
p3508
sg194
I00
sg195
Nsg53
(dp3509
g197
(lp3510
(dp3511
g151
(lp3512
I93
aI98
asg188
VAMED
p3513
sa(dp3514
g151
(lp3515
I99
aI104
asg188
VASGN
p3516
sa(dp3517
g151
(lp3518
I105
aI110
asg188
VBGFV
p3519
sa(dp3520
g151
(lp3521
I111
aI116
asg188
VCAPL
p3522
sa(dp3523
g151
(lp3524
I117
aI122
asg188
VDHIL
p3525
sa(dp3526
g151
(lp3527
I123
aI128
asg188
VEXLS
p3528
sa(dp3529
g151
(lp3530
I129
aI134
asg188
VGOOG
p3531
sa(dp3532
g151
(lp3533
I135
aI139
asg188
VIPI
p3534
sasg232
(lp3535
sg234
(lp3536
sg35
(lp3537
(dp3538
g86
Vhttps://t.co/y3ZkTSXVfQ
p3539
sg151
(lp3540
I0
aI23
asg153
Vhttp://InsiderInsights.com
p3541
sg155
VInsiderInsights.com
p3542
sa(dp3543
g86
Vhttps://t.co/ujFKjrfA3p
p3544
sg151
(lp3545
I69
aI92
asg153
Vhttp://seekingalpha.com/article/3639626-insiderinsights-com-daily-round-up-11-2-15-atu-capl-kmi-veev?source=feed_f
p3546
sg155
Vseekingalpha.com/article/363962\u2026
p3547
sassg242
Nsg243
Nsg244
I0
sg57
V661640211303022596
p3548
sg246
I00
sg247
g3482
sg248
Nsg249
Nsg250
I00
sg79
g3503
sg87
VTue Nov 03 20:24:53 +0000 2015
p3549
sg252
Nsg253
Nsg254
(dp3550
g256
Ven
p3551
sg258
Vrecent
p3552
sssg260
g3550
sg261
Nsg262
Nsg31
g3509
sg263
Nsg264
Nsg99
g3548
sg265
I00
sg266
Nsg267
I0
sg268
Nsbag0
(g4
g5
Ntp3553
Rp3554
(dp3555
g9
I00
sg10
Nsg11
I00
sg12
V$EXLS:\u000a\u000aExlService Holdings, Inc. (NASDAQ:EXLS) Given $47.125 \u2026:\u000a\u000ahttps://t.co/HTL98LJybi
p3556
sg14
Vhttp://www.stocknewswires.com
p3557
sg16
I00
sg17
I00
sg18
Nsg19
g0
(g20
g5
Ntp3558
Rp3559
(dp3560
g24
I00
sg25
I00
sg26
I01
sg27
VDAECF4
p3561
sg29
L2341445778L
sg30
I00
sg31
(dp3562
g33
(dp3563
g35
(lp3564
sssg37
Vhttps://pbs.twimg.com/profile_images/542238326397227008/UfZ0ulTf_normal.jpeg
p3565
sg39
(dp3566
g41
I00
sg42
I00
sg43
I01
sg44
I00
sg45
L2341445778L
sg46
Vhttps://abs.twimg.com/images/themes/theme2/bg.gif
p3567
sg48
I00
sg49
V663B12
p3568
sg51
g3565
sg52
g3561
sg53
g3562
sg54
I660
sg55
VC6E2EE
p3569
sg57
V2341445778
p3570
sg59
VC6E2EE
p3571
sg61
I107
sg62
I00
sg63
I-14400
sg64
I236872
sg33
VInvest like a fish
p3572
sg66
I9
sg67
VUnited States
p3573
sg69
V1F98C7
p3574
sg71
Vhttp://pbs.twimg.com/profile_images/542238326397227008/UfZ0ulTf_normal.jpeg
p3575
sg73
I00
sg74
I00
sg75
Vhttp://abs.twimg.com/images/themes/theme2/bg.gif
p3576
sg77
VStockNewsWires
p3577
sg79
Ven
p3578
sg81
I00
sg82
I0
sg83
VStockNewsWires
p3579
sg85
I00
sg86
Nsg87
VThu Feb 13 05:31:52 +0000 2014
p3580
sg89
I00
sg90
VAtlantic Time (Canada)
p3581
sg92
I00
sg93
I00
sg94
I00
ssg95
I00
sg96
g3568
sg97
I660
sg98
g3569
sg99
g3570
sg100
I00
sg101
I107
sg102
I00
sg103
I-14400
sg104
I236872
sg105
g3572
sg106
I9
sg107
g3573
sg108
g3574
sg109
g3575
sg110
I00
sg111
I00
sg112
g3571
sg113
g3576
sg114
g3577
sg115
g3578
sg116
I00
sg117
I00
sg118
I0
sg119
g3579
sg120
Nsg121
g122
(S'\x07\xde\x02\r\x05\x1f4\x00\x00\x00'
p3582
tp3583
Rp3584
sg126
g3567
sg127
g3581
sg128
I00
sg129
I00
sg130
I00
sbsg131
Nsg29
L661624904714952705L
sg132
I0
sg133
VStockNewsWires
p3585
sg115
Ven
p3586
sg181
g3559
sg121
g122
(S'\x07\xdf\x0b\x03\x13\x18\x04\x00\x00\x00'
p3587
tp3588
Rp3589
sg39
(dp3590
g186
Nsg187
I00
sg188
V$EXLS:\u000a\u000aExlService Holdings, Inc. (NASDAQ:EXLS) Given $47.125 \u2026:\u000a\u000ahttps://t.co/HTL98LJybi
p3591
sg189
I00
sg190
Nsg45
L661624904714952705L
sg191
I0
sg192
V<a href="http://www.stocknewswires.com" rel="nofollow">StockNewsWires</a>
p3592
sg194
I00
sg195
Nsg53
(dp3593
g197
(lp3594
(dp3595
g151
(lp3596
I0
aI5
asg188
VEXLS
p3597
sasg232
(lp3598
sg234
(lp3599
sg35
(lp3600
(dp3601
g86
Vhttps://t.co/HTL98LJybi
p3602
sg151
(lp3603
I66
aI89
asg153
Vhttp://StockNewsHour.com/exls-exlservice-holdings-inc-nasdaqexls-given-47-125/
p3604
sg155
VStockNewsHour.com/exls-exlservic\u2026
p3605
sassg242
Nsg243
Nsg244
I0
sg57
V661624904714952705
p3606
sg246
I00
sg247
g3566
sg248
Nsg249
Nsg250
I00
sg79
g3586
sg87
VTue Nov 03 19:24:04 +0000 2015
p3607
sg252
Nsg253
Nsg254
(dp3608
g256
Ven
p3609
sg258
Vrecent
p3610
sssg260
g3608
sg261
Nsg262
Nsg31
g3593
sg263
Nsg264
Nsg99
g3606
sg265
I00
sg266
Nsg267
I0
sg268
Nsbag0
(g4
g5
Ntp3611
Rp3612
(dp3613
g9
I00
sg10
Nsg11
I00
sg12
VExlservice Holdings, Inc.  Boost Price Target by Jefferies &amp; Co (Ranked 21st) to Hold with 44 PT $EXLS #EXLS https://t.co/g4TeXnde08
p3614
sg14
Vhttp://www.firsttomarkets.com/
p3615
sg16
I00
sg17
I00
sg18
Nsg19
g0
(g20
g5
Ntp3616
Rp3617
(dp3618
g24
I00
sg25
I00
sg26
I01
sg27
VDDEEF6
p3619
sg29
I926793032
sg30
I00
sg31
(dp3620
g86
(dp3621
g35
(lp3622
(dp3623
g86
Vhttp://t.co/pvYJ4srUXZ
p3624
sg151
(lp3625
I0
aI22
asg153
Vhttp://www.firsttomarkets.com
p3626
sg155
Vfirsttomarkets.com
p3627
sassg33
(dp3628
g35
(lp3629
sssg37
Vhttps://pbs.twimg.com/profile_images/589970473590611969/0Se9nt5A_normal.png
p3630
sg39
(dp3631
g41
I00
sg42
I00
sg43
I01
sg44
I00
sg45
I926793032
sg46
Vhttps://abs.twimg.com/images/themes/theme1/bg.png
p3632
sg48
I00
sg49
V333333
p3633
sg51
g3630
sg52
g3619
sg53
g3620
sg54
I256
sg55
VC0DEED
p3634
sg57
V926793032
p3635
sg59
VC0DEED
p3636
sg61
I112
sg62
I00
sg63
I-18000
sg64
I51313
sg33
g68
sg66
I39
sg67
g68
sg69
V0084B4
p3637
sg71
Vhttp://pbs.twimg.com/profile_images/589970473590611969/0Se9nt5A_normal.png
p3638
sg73
I00
sg74
I00
sg350
Vhttps://pbs.twimg.com/profile_banners/926793032/1429495285
p3639
sg75
Vhttp://abs.twimg.com/images/themes/theme1/bg.png
p3640
sg77
Vfirsttomarkets
p3641
sg79
Ven
p3642
sg81
I00
sg82
I0
sg83
VFirstToMarkets
p3643
sg85
I00
sg86
Vhttp://t.co/pvYJ4srUXZ
p3644
sg87
VMon Nov 05 03:52:56 +0000 2012
p3645
sg89
I00
sg90
VEastern Time (US & Canada)
p3646
sg92
I00
sg93
I01
sg94
I00
ssg95
I00
sg96
g3633
sg97
I256
sg98
g3634
sg99
g3635
sg100
I00
sg101
I112
sg102
I00
sg103
I-18000
sg104
I51313
sg105
g68
sg106
I39
sg107
g68
sg108
g3637
sg109
g3638
sg110
I00
sg111
I00
sg112
g3636
sg358
g3639
sg113
g3640
sg114
g3641
sg115
g3642
sg116
I00
sg117
I00
sg118
I0
sg119
g3643
sg120
g3644
sg121
g122
(S'\x07\xdc\x0b\x05\x0348\x00\x00\x00'
p3647
tp3648
Rp3649
sg126
g3632
sg127
g3646
sg128
I00
sg129
I01
sg130
I00
sbsg131
Nsg29
L661596543359713280L
sg132
I0
sg133
VFirst To Markets
p3650
sg115
Ven
p3651
sg181
g3617
sg121
g122
(S'\x07\xdf\x0b\x03\x11\x1f\x16\x00\x00\x00'
p3652
tp3653
Rp3654
sg39
(dp3655
g186
Nsg187
I00
sg188
g3614
sg189
I00
sg190
Nsg45
L661596543359713280L
sg191
I0
sg192
V<a href="http://www.firsttomarkets.com/" rel="nofollow">First To Markets</a>
p3656
sg194
I00
sg195
Nsg53
(dp3657
g197
(lp3658
(dp3659
g151
(lp3660
I101
aI106
asg188
VEXLS
p3661
sasg232
(lp3662
sg234
(lp3663
(dp3664
g151
(lp3665
I107
aI112
asg188
VEXLS
p3666
sasg35
(lp3667
(dp3668
g86
Vhttps://t.co/g4TeXnde08
p3669
sg151
(lp3670
I113
aI136
asg153
Vhttp://www.firsttomarkets.com/analytics/stocks/stock?sId=806#tabs-reiterated
p3671
sg155
Vfirsttomarkets.com/analytics/stoc\u2026
p3672
sassg242
Nsg243
Nsg244
I0
sg57
V661596543359713280
p3673
sg246
I00
sg247
g3631
sg248
Nsg249
Nsg250
I00
sg79
g3651
sg87
VTue Nov 03 17:31:22 +0000 2015
p3674
sg252
Nsg253
Nsg254
(dp3675
g256
Ven
p3676
sg258
Vrecent
p3677
sssg260
g3675
sg261
Nsg262
Nsg31
g3657
sg263
Nsg264
Nsg99
g3673
sg265
I00
sg266
Nsg267
I0
sg268
Nsbag0
(g4
g5
Ntp3678
Rp3679
(dp3680
g9
I00
sg10
Nsg11
I00
sg12
V$EXLS: Analyst action by SunTrust Robinson Humphrey on ExlService Holdings: https://t.co/j8CipDekIi https://t.co/fKiHuvVLQy
p3681
sg14
Vhttp://example.com
p3682
sg16
I00
sg17
I00
sg18
Nsg19
g0
(g20
g5
Ntp3683
Rp3684
(dp3685
g24
I00
sg25
I00
sg26
I01
sg27
V95E8EC
p3686
sg29
L2341530906L
sg30
I00
sg31
(dp3687
g33
(dp3688
g35
(lp3689
sssg37
Vhttps://pbs.twimg.com/profile_images/601131382060945410/KYX9mWKS_normal.jpg
p3690
sg39
(dp3691
g41
I00
sg42
I00
sg43
I01
sg44
I00
sg45
L2341530906L
sg46
Vhttps://abs.twimg.com/images/themes/theme4/bg.gif
p3692
sg48
I00
sg49
V3C3940
p3693
sg51
g3690
sg52
g3686
sg53
g3687
sg54
I177
sg55
V5ED4DC
p3694
sg57
V2341530906
p3695
sg59
V0099B9
p3696
sg61
I25
sg62
I00
sg63
I-14400
sg64
I59937
sg33
g68
sg66
I0
sg67
g68
sg69
V0099B9
p3697
sg71
Vhttp://pbs.twimg.com/profile_images/601131382060945410/KYX9mWKS_normal.jpg
p3698
sg73
I00
sg74
I00
sg75
Vhttp://abs.twimg.com/images/themes/theme4/bg.gif
p3699
sg77
VAnalystActions
p3700
sg79
Ven
p3701
sg81
I00
sg82
I0
sg83
VAnalyst Actions
p3702
sg85
I00
sg86
Nsg87
VThu Feb 13 06:57:40 +0000 2014
p3703
sg89
I00
sg90
VAtlantic Time (Canada)
p3704
sg92
I00
sg93
I00
sg94
I00
ssg95
I00
sg96
g3693
sg97
I177
sg98
g3694
sg99
g3695
sg100
I00
sg101
I25
sg102
I00
sg103
I-14400
sg104
I59937
sg105
g68
sg106
I0
sg107
g68
sg108
g3697
sg109
g3698
sg110
I00
sg111
I00
sg112
g3696
sg113
g3699
sg114
g3700
sg115
g3701
sg116
I00
sg117
I00
sg118
I0
sg119
g3702
sg120
Nsg121
g122
(S'\x07\xde\x02\r\x069(\x00\x00\x00'
p3705
tp3706
Rp3707
sg126
g3692
sg127
g3704
sg128
I00
sg129
I00
sg130
I00
sbsg131
Nsg29
L661481448726228992L
sg132
I0
sg133
VAnalystActionsAA
p3708
sg115
Ven
p3709
sg181
g3684
sg121
g122
(S'\x07\xdf\x0b\x03\t6\x01\x00\x00\x00'
p3710
tp3711
Rp3712
sg39
(dp3713
g186
Nsg187
I00
sg188
g3681
sg189
I00
sg190
Nsg45
L661481448726228992L
sg191
I0
sg192
V<a href="http://example.com" rel="nofollow">AnalystActionsAA</a>
p3714
sg194
I00
sg195
Nsg53
(dp3715
g197
(lp3716
(dp3717
g151
(lp3718
I0
aI5
asg188
VEXLS
p3719
sasg232
(lp3720
sg234
(lp3721
sg35
(lp3722
(dp3723
g86
Vhttps://t.co/j8CipDekIi
p3724
sg151
(lp3725
I76
aI99
asg153
Vhttp://stockratingreport.com/suntrust-robinson-humphrey-maintains-exls-10-30-2015
p3726
sg155
Vstockratingreport.com/suntrust-robin\u2026
p3727
sasg671
(lp3728
(dp3729
g153
Vhttp://twitter.com/AnalystActions/status/661481448726228992/photo/1
p3730
sg155
Vpic.twitter.com/fKiHuvVLQy
p3731
sg86
Vhttps://t.co/fKiHuvVLQy
p3732
sg677
Vhttps://pbs.twimg.com/media/CS4N33QWUAAprBy.jpg
p3733
sg57
V661481448646529024
p3734
sg680
(dp3735
g682
(dp3736
g684
I4
sg685
Vfit
p3737
sg687
I4
ssg688
(dp3738
g684
I4
sg685
Vfit
p3739
sg687
I4
ssg691
(dp3740
g684
I4
sg685
Vfit
p3741
sg687
I4
ssg694
(dp3742
g684
I4
sg685
Vcrop
p3743
sg687
I4
sssg151
(lp3744
I100
aI123
asg698
Vphoto
p3745
sg45
L661481448646529024L
sg700
Vhttp://pbs.twimg.com/media/CS4N33QWUAAprBy.jpg
p3746
sassg242
Nsg243
Nsg244
I0
sg57
V661481448726228992
p3747
sg246
I00
sg247
g3691
sg248
Nsg249
Nsg250
I00
sg79
g3709
sg87
VTue Nov 03 09:54:01 +0000 2015
p3748
sg252
Nsg253
Nsg254
(dp3749
g256
Ven
p3750
sg258
Vrecent
p3751
sssg260
g3749
sg261
Nsg262
Nsg31
g3715
sg263
Nsg264
Nsg99
g3747
sg265
I00
sg266
Nsg267
I0
sg268
Nsbag0
(g4
g5
Ntp3752
Rp3753
(dp3754
g9
I00
sg10
Nsg11
I00
sg12
V$EXLS:\u000a\u000aExlService Holdings CEO Sells $3877218.09 in Stock (EXLS):\u000a\u000ahttps://t.co/UMlEdSZA5L
p3755
sg14
Vhttp://fnsappbg.blogspot.com/
p3756
sg16
I00
sg17
I00
sg18
Nsg19
g0
(g20
g5
Ntp3757
Rp3758
(dp3759
g24
I00
sg25
I00
sg26
I01
sg27
VDDEEF6
p3760
sg29
L2881595931L
sg30
I00
sg31
(dp3761
g33
(dp3762
g35
(lp3763
sssg37
Vhttps://pbs.twimg.com/profile_images/542392174428434432/PfyzCfya_normal.jpeg
p3764
sg39
(dp3765
g41
I00
sg42
I00
sg43
I01
sg44
I00
sg45
L2881595931L
sg46
Vhttps://abs.twimg.com/images/themes/theme1/bg.png
p3766
sg48
I00
sg49
V333333
p3767
sg51
g3764
sg52
g3760
sg53
g3761
sg54
I593
sg55
VC0DEED
p3768
sg57
V2881595931
p3769
sg59
VC0DEED
p3770
sg61
I90
sg62
I00
sg63
I-18000
sg64
I235206
sg33
g68
sg66
I6
sg67
g68
sg69
V0084B4
p3771
sg71
Vhttp://pbs.twimg.com/profile_images/542392174428434432/PfyzCfya_normal.jpeg
p3772
sg73
I00
sg74
I00
sg75
Vhttp://abs.twimg.com/images/themes/theme1/bg.png
p3773
sg77
VProVesting
p3774
sg79
Ven
p3775
sg81
I00
sg82
I0
sg83
VProVesting
p3776
sg85
I00
sg86
Nsg87
VMon Nov 17 20:15:38 +0000 2014
p3777
sg89
I00
sg90
VEastern Time (US & Canada)
p3778
sg92
I00
sg93
I01
sg94
I00
ssg95
I00
sg96
g3767
sg97
I593
sg98
g3768
sg99
g3769
sg100
I00
sg101
I90
sg102
I00
sg103
I-18000
sg104
I235206
sg105
g68
sg106
I6
sg107
g68
sg108
g3771
sg109
g3772
sg110
I00
sg111
I00
sg112
g3770
sg113
g3773
sg114
g3774
sg115
g3775
sg116
I00
sg117
I00
sg118
I0
sg119
g3776
sg120
Nsg121
g122
(S'\x07\xde\x0b\x11\x14\x0f&\x00\x00\x00'
p3779
tp3780
Rp3781
sg126
g3766
sg127
g3778
sg128
I00
sg129
I01
sg130
I00
sbsg131
Nsg29
L661379535678521344L
sg132
I0
sg133
VFNS_APP
p3782
sg115
Ven
p3783
sg181
g3758
sg121
g122
(S'\x07\xdf\x0b\x03\x03\t\x03\x00\x00\x00'
p3784
tp3785
Rp3786
sg39
(dp3787
g186
Nsg187
I00
sg188
V$EXLS:\u000a\u000aExlService Holdings CEO Sells $3877218.09 in Stock (EXLS):\u000a\u000ahttps://t.co/UMlEdSZA5L
p3788
sg189
I00
sg190
Nsg45
L661379535678521344L
sg191
I0
sg192
V<a href="http://fnsappbg.blogspot.com/" rel="nofollow">FNS_APP</a>
p3789
sg194
I00
sg195
Nsg53
(dp3790
g197
(lp3791
(dp3792
g151
(lp3793
I0
aI5
asg188
VEXLS
p3794
sasg232
(lp3795
sg234
(lp3796
sg35
(lp3797
(dp3798
g86
Vhttps://t.co/UMlEdSZA5L
p3799
sg151
(lp3800
I68
aI91
asg153
Vhttp://StockNewsHour.com/exls-exlservice-holdings-ceo-sells-3877218-09-in-stock-exls/
p3801
sg155
VStockNewsHour.com/exls-exlservic\u2026
p3802
sassg242
Nsg243
Nsg244
I0
sg57
V661379535678521344
p3803
sg246
I00
sg247
g3765
sg248
Nsg249
Nsg250
I00
sg79
g3783
sg87
VTue Nov 03 03:09:03 +0000 2015
p3804
sg252
Nsg253
Nsg254
(dp3805
g256
Ven
p3806
sg258
Vrecent
p3807
sssg260
g3805
sg261
Nsg262
Nsg31
g3790
sg263
Nsg264
Nsg99
g3803
sg265
I00
sg266
Nsg267
I0
sg268
Nsbag0
(g4
g5
Ntp3808
Rp3809
(dp3810
g9
I00
sg10
Nsg11
I00
sg12
VExlService Holdings CEO Rohit Kapoor Sells 86,103 Shares $EXLS https://t.co/e9VZaK1w0c
p3811
sg14
Vhttp://ifttt.com
p3812
sg16
I00
sg17
I00
sg18
Nsg19
g0
(g20
g5
Ntp3813
Rp3814
(dp3815
g24
I00
sg25
I00
sg26
I01
sg27
VDDEEF6
p3816
sg29
L2743641378L
sg30
I00
sg31
(dp3817
g33
(dp3818
g35
(lp3819
sssg37
Vhttps://pbs.twimg.com/profile_images/501548634412838914/LR6q5snv_normal.jpeg
p3820
sg39
(dp3821
g41
I00
sg42
I00
sg43
I01
sg44
I00
sg45
L2743641378L
sg46
Vhttps://abs.twimg.com/images/themes/theme1/bg.png
p3822
sg48
I00
sg49
V333333
p3823
sg51
g3820
sg52
g3816
sg53
g3817
sg54
I668
sg55
VC0DEED
p3824
sg57
V2743641378
p3825
sg59
VC0DEED
p3826
sg61
I59
sg62
I00
sg63
Nsg64
I275759
sg33
g68
sg66
I0
sg67
g68
sg69
V0084B4
p3827
sg71
Vhttp://pbs.twimg.com/profile_images/501548634412838914/LR6q5snv_normal.jpeg
p3828
sg73
I00
sg74
I00
sg350
Vhttps://pbs.twimg.com/profile_banners/2743641378/1408413498
p3829
sg75
Vhttp://abs.twimg.com/images/themes/theme1/bg.png
p3830
sg77
VSleekMoneycom
p3831
sg79
Ven
p3832
sg81
I00
sg82
I0
sg83
VSleek Money
p3833
sg85
I00
sg86
Nsg87
VTue Aug 19 01:57:20 +0000 2014
p3834
sg89
I00
sg90
Nsg92
I00
sg93
I01
sg94
I00
ssg95
I00
sg96
g3823
sg97
I668
sg98
g3824
sg99
g3825
sg100
I00
sg101
I59
sg102
I00
sg103
Nsg104
I275759
sg105
g68
sg106
I0
sg107
g68
sg108
g3827
sg109
g3828
sg110
I00
sg111
I00
sg112
g3826
sg358
g3829
sg113
g3830
sg114
g3831
sg115
g3832
sg116
I00
sg117
I00
sg118
I0
sg119
g3833
sg120
Nsg121
g122
(S'\x07\xde\x08\x13\x019\x14\x00\x00\x00'
p3835
tp3836
Rp3837
sg126
g3822
sg127
Nsg128
I00
sg129
I01
sg130
I00
sbsg131
Nsg29
L661377565970534400L
sg132
I0
sg133
VIFTTT
p3838
sg115
Ven
p3839
sg181
g3814
sg121
g122
(S'\x07\xdf\x0b\x03\x03\x01\x0e\x00\x00\x00'
p3840
tp3841
Rp3842
sg39
(dp3843
g186
Nsg187
I00
sg188
g3811
sg189
I00
sg190
Nsg45
L661377565970534400L
sg191
I0
sg192
V<a href="http://ifttt.com" rel="nofollow">IFTTT</a>
p3844
sg194
I00
sg195
Nsg53
(dp3845
g197
(lp3846
(dp3847
g151
(lp3848
I57
aI62
asg188
VEXLS
p3849
sasg232
(lp3850
sg234
(lp3851
sg35
(lp3852
(dp3853
g86
Vhttps://t.co/e9VZaK1w0c
p3854
sg151
(lp3855
I63
aI86
asg153
Vhttp://ift.tt/1PibUiP
p3856
sg155
Vift.tt/1PibUiP
p3857
sassg242
Nsg243
Nsg244
I0
sg57
V661377565970534400
p3858
sg246
I00
sg247
g3821
sg248
Nsg249
Nsg250
I00
sg79
g3839
sg87
VTue Nov 03 03:01:14 +0000 2015
p3859
sg252
Nsg253
Nsg254
(dp3860
g256
Ven
p3861
sg258
Vrecent
p3862
sssg260
g3860
sg261
Nsg262
Nsg31
g3845
sg263
Nsg264
Nsg99
g3858
sg265
I00
sg266
Nsg267
I0
sg268
Nsbag0
(g4
g5
Ntp3863
Rp3864
(dp3865
g9
I00
sg10
Nsg11
I00
sg12
VExlService Holdings CEO Sells $3,877,218.09 in Stock $EXLS https://t.co/d7n8XfPMlO #acn
p3866
sg14
Vhttp://ifttt.com
p3867
sg16
I00
sg17
I00
sg18
Nsg19
g0
(g20
g5
Ntp3868
Rp3869
(dp3870
g24
I00
sg25
I00
sg26
I01
sg27
VE8E8E8
p3871
sg29
I52210566
sg30
I00
sg31
(dp3872
g86
(dp3873
g35
(lp3874
(dp3875
g86
Vhttp://t.co/odTc3pvcAe
p3876
sg151
(lp3877
I0
aI22
asg153
Vhttp://www.americanconsumernews.com/
p3878
sg155
Vamericanconsumernews.com
p3879
sassg33
(dp3880
g35
(lp3881
sssg37
Vhttps://pbs.twimg.com/profile_images/289298274/text_normal.jpg
p3882
sg39
(dp3883
g41
I00
sg42
I00
sg43
I01
sg44
I00
sg45
I52210566
sg46
Vhttps://pbs.twimg.com/profile_background_images/20558354/back.jpg
p3884
sg48
I00
sg49
V333333
p3885
sg51
g3882
sg52
g3871
sg53
g3872
sg54
I1114
sg55
VADADAD
p3886
sg57
V52210566
p3887
sg59
V9AE4E8
p3888
sg61
I96
sg62
I00
sg63
I-21600
sg64
I580839
sg33
VPersonal Finance and Consumer Tips
p3889
sg66
I1412
sg67
VSioux Falls, SD
p3890
sg69
V0084B4
p3891
sg71
Vhttp://pbs.twimg.com/profile_images/289298274/text_normal.jpg
p3892
sg73
I00
sg74
I00
sg75
Vhttp://pbs.twimg.com/profile_background_images/20558354/back.jpg
p3893
sg77
VAmConsumerNews
p3894
sg79
Ven
p3895
sg81
I00
sg82
I0
sg83
VConsumer News
p3896
sg85
I00
sg86
Vhttp://t.co/odTc3pvcAe
p3897
sg87
VMon Jun 29 22:22:08 +0000 2009
p3898
sg89
I00
sg90
VCentral Time (US & Canada)
p3899
sg92
I00
sg93
I00
sg94
I00
ssg95
I00
sg96
g3885
sg97
I1114
sg98
g3886
sg99
g3887
sg100
I00
sg101
I96
sg102
I00
sg103
I-21600
sg104
I580839
sg105
g3889
sg106
I1412
sg107
g3890
sg108
g3891
sg109
g3892
sg110
I00
sg111
I00
sg112
g3888
sg113
g3893
sg114
g3894
sg115
g3895
sg116
I00
sg117
I00
sg118
I0
sg119
g3896
sg120
g3897
sg121
g122
(S'\x07\xd9\x06\x1d\x16\x16\x08\x00\x00\x00'
p3900
tp3901
Rp3902
sg126
g3884
sg127
g3899
sg128
I00
sg129
I00
sg130
I00
sbsg131
Nsg29
L661376626576515072L
sg132
I1
sg133
VIFTTT
p3903
sg115
Ven
p3904
sg181
g3869
sg121
g122
(S'\x07\xdf\x0b\x03\x029\x1e\x00\x00\x00'
p3905
tp3906
Rp3907
sg39
(dp3908
g186
Nsg187
I00
sg188
g3866
sg189
I00
sg190
Nsg45
L661376626576515072L
sg191
I1
sg192
V<a href="http://ifttt.com" rel="nofollow">IFTTT</a>
p3909
sg194
I00
sg195
Nsg53
(dp3910
g197
(lp3911
(dp3912
g151
(lp3913
I53
aI58
asg188
VEXLS
p3914
sasg232
(lp3915
sg234
(lp3916
(dp3917
g151
(lp3918
I83
aI87
asg188
Vacn
p3919
sasg35
(lp3920
(dp3921
g86
Vhttps://t.co/d7n8XfPMlO
p3922
sg151
(lp3923
I59
aI82
asg153
Vhttp://ift.tt/1RqTkEe
p3924
sg155
Vift.tt/1RqTkEe
p3925
sassg242
Nsg243
Nsg244
I0
sg57
V661376626576515072
p3926
sg246
I00
sg247
g3883
sg248
Nsg249
Nsg250
I00
sg79
g3904
sg87
VTue Nov 03 02:57:30 +0000 2015
p3927
sg252
Nsg253
Nsg254
(dp3928
g256
Ven
p3929
sg258
Vrecent
p3930
sssg260
g3928
sg261
Nsg262
Nsg31
g3910
sg263
Nsg264
Nsg99
g3926
sg265
I00
sg266
Nsg267
I0
sg268
Nsbag0
(g4
g5
Ntp3931
Rp3932
(dp3933
g9
I00
sg10
Nsg11
I00
sg12
V$EXLS:\u000a\u000aExlService Holdings CEO Rohit Kapoor Sells 86103 Shares (EXLS):\u000a\u000ahttps://t.co/aizjwfH4bh
p3934
sg14
Vhttp://www.stocknewswires.com
p3935
sg16
I00
sg17
I00
sg18
Nsg19
g0
(g20
g5
Ntp3936
Rp3937
(dp3938
g24
I00
sg25
I00
sg26
I01
sg27
VE3E2DE
p3939
sg29
L2344619544L
sg30
I00
sg31
(dp3940
g33
(dp3941
g35
(lp3942
sssg37
Vhttps://pbs.twimg.com/profile_images/562292381764952064/mVtp0UmJ_normal.jpeg
p3943
sg39
(dp3944
g41
I00
sg42
I00
sg43
I01
sg44
I00
sg45
L2344619544L
sg46
Vhttps://abs.twimg.com/images/themes/theme3/bg.gif
p3945
sg48
I00
sg49
V634047
p3946
sg51
g3943
sg52
g3939
sg53
g3940
sg54
I516
sg55
VD3D2CF
p3947
sg57
V2344619544
p3948
sg59
VEDECE9
p3949
sg61
I85
sg62
I01
sg63
I-18000
sg64
I182020
sg33
VNews about Stocks
p3950
sg66
I0
sg67
VU.S.
p3951
sg69
V088253
p3952
sg71
Vhttp://pbs.twimg.com/profile_images/562292381764952064/mVtp0UmJ_normal.jpeg
p3953
sg73
I00
sg74
I00
sg75
Vhttp://abs.twimg.com/images/themes/theme3/bg.gif
p3954
sg77
VNewsToDesk
p3955
sg79
Ven
p3956
sg81
I00
sg82
I0
sg83
VBreakingStocksNews
p3957
sg85
I00
sg86
Nsg87
VSat Feb 15 05:49:10 +0000 2014
p3958
sg89
I00
sg90
VEastern Time (US & Canada)
p3959
sg92
I00
sg93
I00
sg94
I00
ssg95
I00
sg96
g3946
sg97
I516
sg98
g3947
sg99
g3948
sg100
I00
sg101
I85
sg102
I01
sg103
I-18000
sg104
I182020
sg105
g3950
sg106
I0
sg107
g3951
sg108
g3952
sg109
g3953
sg110
I00
sg111
I00
sg112
g3949
sg113
g3954
sg114
g3955
sg115
g3956
sg116
I00
sg117
I00
sg118
I0
sg119
g3957
sg120
Nsg121
g122
(S'\x07\xde\x02\x0f\x051\n\x00\x00\x00'
p3960
tp3961
Rp3962
sg126
g3945
sg127
g3959
sg128
I00
sg129
I00
sg130
I00
sbsg131
Nsg29
L661376516954185728L
sg132
I0
sg133
VStockNewsWires
p3963
sg115
Ven
p3964
sg181
g3937
sg121
g122
(S'\x07\xdf\x0b\x03\x029\x04\x00\x00\x00'
p3965
tp3966
Rp3967
sg39
(dp3968
g186
Nsg187
I00
sg188
V$EXLS:\u000a\u000aExlService Holdings CEO Rohit Kapoor Sells 86103 Shares (EXLS):\u000a\u000ahttps://t.co/aizjwfH4bh
p3969
sg189
I00
sg190
Nsg45
L661376516954185728L
sg191
I0
sg192
V<a href="http://www.stocknewswires.com" rel="nofollow">StockNewsWires</a>
p3970
sg194
I00
sg195
Nsg53
(dp3971
g197
(lp3972
(dp3973
g151
(lp3974
I0
aI5
asg188
VEXLS
p3975
sasg232
(lp3976
sg234
(lp3977
sg35
(lp3978
(dp3979
g86
Vhttps://t.co/aizjwfH4bh
p3980
sg151
(lp3981
I73
aI96
asg153
Vhttp://StockNewsHour.com/exls-exlservice-holdings-ceo-rohit-kapoor-sells-86103-shares-exls/
p3982
sg155
VStockNewsHour.com/exls-exlservic\u2026
p3983
sassg242
Nsg243
Nsg244
I0
sg57
V661376516954185728
p3984
sg246
I00
sg247
g3944
sg248
Nsg249
Nsg250
I00
sg79
g3964
sg87
VTue Nov 03 02:57:04 +0000 2015
p3985
sg252
Nsg253
Nsg254
(dp3986
g256
Ven
p3987
sg258
Vrecent
p3988
sssg260
g3986
sg261
Nsg262
Nsg31
g3971
sg263
Nsg264
Nsg99
g3984
sg265
I00
sg266
Nsg267
I0
sg268
Nsbag0
(g4
g5
Ntp3989
Rp3990
(dp3991
g9
I00
sg10
Nsg11
I00
sg12
VWant automatic email alerts for $EXLS $FCAL $GTE $GPK $GPI? Subscribe to MarketBeat Daily https://t.co/nSJuDtfT4R
p3992
sg14
Vhttps://zapier.com/
p3993
sg16
I00
sg17
I00
sg18
Nsg19
g0
(g20
g5
Ntp3994
Rp3995
(dp3996
g24
I00
sg25
I00
sg26
I01
sg27
VEFEFEF
p3997
sg29
I992182100
sg30
I00
sg31
(dp3998
g86
(dp3999
g35
(lp4000
(dp4001
g86
Vhttp://t.co/8V4MkNiWl0
p4002
sg151
(lp4003
I0
aI22
asg153
Vhttp://www.marketbeat.com
p4004
sg155
Vmarketbeat.com
p4005
sassg33
(dp4006
g35
(lp4007
(dp4008
g86
Vhttp://t.co/3t3pBdeo4G
p4009
sg151
(lp4010
I34
aI56
asg153
Vhttp://MarketBeat.com
p4011
sg155
VMarketBeat.com
p4012
sasssg37
Vhttps://pbs.twimg.com/profile_images/605433922986606592/LeOUrdkT_normal.png
p4013
sg39
(dp4014
g41
I00
sg42
I00
sg43
I01
sg44
I00
sg45
I992182100
sg46
Vhttps://abs.twimg.com/images/themes/theme14/bg.gif
p4015
sg48
I00
sg49
V333333
p4016
sg51
g4013
sg52
g3997
sg53
g3998
sg54
I3561
sg55
VFFFFFF
p4017
sg57
V992182100
p4018
sg59
V131516
p4019
sg61
I359
sg62
I00
sg63
Nsg64
I226213
sg33
VFormerly Analyst Ratings Network. http://t.co/3t3pBdeo4G tracks analyst upgrades, downgrades and new coverage in real-time.
p4020
sg66
I2
sg67
VSioux Falls, SD
p4021
sg69
V002277
p4022
sg71
Vhttp://pbs.twimg.com/profile_images/605433922986606592/LeOUrdkT_normal.png
p4023
sg73
I00
sg74
I00
sg350
Vhttps://pbs.twimg.com/profile_banners/992182100/1410482657
p4024
sg75
Vhttp://abs.twimg.com/images/themes/theme14/bg.gif
p4025
sg77
VRatingsNetwork
p4026
sg79
Ven
p4027
sg81
I01
sg82
I0
sg83
VMarketBeatCom
p4028
sg85
I00
sg86
Vhttp://t.co/8V4MkNiWl0
p4029
sg87
VThu Dec 06 01:50:15 +0000 2012
p4030
sg89
I00
sg90
Nsg92
I00
sg93
I00
sg94
I00
ssg95
I00
sg96
g4016
sg97
I3561
sg98
g4017
sg99
g4018
sg100
I00
sg101
I359
sg102
I00
sg103
Nsg104
I226213
sg105
g4020
sg106
I2
sg107
g4021
sg108
g4022
sg109
g4023
sg110
I00
sg111
I00
sg112
g4019
sg358
g4024
sg113
g4025
sg114
g4026
sg115
g4027
sg116
I00
sg117
I01
sg118
I0
sg119
g4028
sg120
g4029
sg121
g122
(S'\x07\xdc\x0c\x06\x012\x0f\x00\x00\x00'
p4031
tp4032
Rp4033
sg126
g4015
sg127
Nsg128
I00
sg129
I00
sg130
I00
sbsg131
Nsg29
L661328759866310656L
sg132
I0
sg133
VZapier.com
p4034
sg115
Ven
p4035
sg181
g3995
sg121
g122
(S'\x07\xdf\x0b\x02\x17/\x11\x00\x00\x00'
p4036
tp4037
Rp4038
sg39
(dp4039
g186
Nsg187
I00
sg188
g3992
sg189
I00
sg190
Nsg45
L661328759866310656L
sg191
I0
sg192
V<a href="https://zapier.com/" rel="nofollow">Zapier.com</a>
p4040
sg194
I00
sg195
Nsg53
(dp4041
g197
(lp4042
(dp4043
g151
(lp4044
I32
aI37
asg188
VEXLS
p4045
sa(dp4046
g151
(lp4047
I38
aI43
asg188
VFCAL
p4048
sa(dp4049
g151
(lp4050
I44
aI48
asg188
VGTE
p4051
sa(dp4052
g151
(lp4053
I49
aI53
asg188
VGPK
p4054
sa(dp4055
g151
(lp4056
I54
aI58
asg188
VGPI
p4057
sasg232
(lp4058
sg234
(lp4059
sg35
(lp4060
(dp4061
g86
Vhttps://t.co/nSJuDtfT4R
p4062
sg151
(lp4063
I90
aI113
asg153
Vhttp://bit.ly/arndailyw
p4064
sg155
Vbit.ly/arndailyw
p4065
sassg242
Nsg243
Nsg244
I0
sg57
V661328759866310656
p4066
sg246
I00
sg247
g4014
sg248
Nsg249
Nsg250
I00
sg79
g4035
sg87
VMon Nov 02 23:47:17 +0000 2015
p4067
sg252
Nsg253
Nsg254
(dp4068
g256
Ven
p4069
sg258
Vrecent
p4070
sssg260
g4068
sg261
Nsg262
Nsg31
g4041
sg263
Nsg264
Nsg99
g4066
sg265
I00
sg266
Nsg267
I0
sg268
Nsbag0
(g4
g5
Ntp4071
Rp4072
(dp4073
g9
I00
sg10
Nsg11
I00
sg12
V$EXLS:\u000a\u000aExlservice Holdings, Inc. (EXLS) Files Form 4 Insider Selling : Rohit \u2026:\u000a\u000ahttps://t.co/Z8WGhMQd6z
p4074
sg14
Vhttp://www.stocknewswires.com
p4075
sg16
I00
sg17
I00
sg18
Nsg19
g0
(g20
g5
Ntp4076
Rp4077
(dp4078
g24
I00
sg25
I00
sg26
I01
sg27
VE3E2DE
p4079
sg29
L2344619544L
sg30
I00
sg31
(dp4080
g33
(dp4081
g35
(lp4082
sssg37
Vhttps://pbs.twimg.com/profile_images/562292381764952064/mVtp0UmJ_normal.jpeg
p4083
sg39
(dp4084
g41
I00
sg42
I00
sg43
I01
sg44
I00
sg45
L2344619544L
sg46
Vhttps://abs.twimg.com/images/themes/theme3/bg.gif
p4085
sg48
I00
sg49
V634047
p4086
sg51
g4083
sg52
g4079
sg53
g4080
sg54
I516
sg55
VD3D2CF
p4087
sg57
V2344619544
p4088
sg59
VEDECE9
p4089
sg61
I85
sg62
I01
sg63
I-18000
sg64
I182020
sg33
VNews about Stocks
p4090
sg66
I0
sg67
VU.S.
p4091
sg69
V088253
p4092
sg71
Vhttp://pbs.twimg.com/profile_images/562292381764952064/mVtp0UmJ_normal.jpeg
p4093
sg73
I00
sg74
I00
sg75
Vhttp://abs.twimg.com/images/themes/theme3/bg.gif
p4094
sg77
VNewsToDesk
p4095
sg79
Ven
p4096
sg81
I00
sg82
I0
sg83
VBreakingStocksNews
p4097
sg85
I00
sg86
Nsg87
VSat Feb 15 05:49:10 +0000 2014
p4098
sg89
I00
sg90
VEastern Time (US & Canada)
p4099
sg92
I00
sg93
I00
sg94
I00
ssg95
I00
sg96
g4086
sg97
I516
sg98
g4087
sg99
g4088
sg100
I00
sg101
I85
sg102
I01
sg103
I-18000
sg104
I182020
sg105
g4090
sg106
I0
sg107
g4091
sg108
g4092
sg109
g4093
sg110
I00
sg111
I00
sg112
g4089
sg113
g4094
sg114
g4095
sg115
g4096
sg116
I00
sg117
I00
sg118
I0
sg119
g4097
sg120
Nsg121
g122
(S'\x07\xde\x02\x0f\x051\n\x00\x00\x00'
p4100
tp4101
Rp4102
sg126
g4085
sg127
g4099
sg128
I00
sg129
I00
sg130
I00
sbsg131
Nsg29
L661311082687021057L
sg132
I0
sg133
VStockNewsWires
p4103
sg115
Ven
p4104
sg181
g4077
sg121
g122
(S'\x07\xdf\x0b\x02\x16%\x03\x00\x00\x00'
p4105
tp4106
Rp4107
sg39
(dp4108
g186
Nsg187
I00
sg188
V$EXLS:\u000a\u000aExlservice Holdings, Inc. (EXLS) Files Form 4 Insider Selling : Rohit \u2026:\u000a\u000ahttps://t.co/Z8WGhMQd6z
p4109
sg189
I00
sg190
Nsg45
L661311082687021057L
sg191
I0
sg192
V<a href="http://www.stocknewswires.com" rel="nofollow">StockNewsWires</a>
p4110
sg194
I00
sg195
Nsg53
(dp4111
g197
(lp4112
(dp4113
g151
(lp4114
I0
aI5
asg188
VEXLS
p4115
sasg232
(lp4116
sg234
(lp4117
sg35
(lp4118
(dp4119
g86
Vhttps://t.co/Z8WGhMQd6z
p4120
sg151
(lp4121
I82
aI105
asg153
Vhttp://StockNewsHour.com/exls-exlservice-holdings-inc-exls-files-form-4-insider-selling-rohit/
p4122
sg155
VStockNewsHour.com/exls-exlservic\u2026
p4123
sassg242
Nsg243
Nsg244
I0
sg57
V661311082687021057
p4124
sg246
I00
sg247
g4084
sg248
Nsg249
Nsg250
I00
sg79
g4104
sg87
VMon Nov 02 22:37:03 +0000 2015
p4125
sg252
Nsg253
Nsg254
(dp4126
g256
Ven
p4127
sg258
Vrecent
p4128
sssg260
g4126
sg261
Nsg262
Nsg31
g4111
sg263
Nsg264
Nsg99
g4124
sg265
I00
sg266
Nsg267
I0
sg268
Nsbag0
(g4
g5
Ntp4129
Rp4130
(dp4131
g9
I00
sg10
Nsg11
I00
sg12
VExlService Holdings $EXLS Releases  Earnings Results, Beats Estimates By $0.07 EPS https://t.co/8TddK68zct
p4132
sg14
Vhttp://ifttt.com
p4133
sg16
I00
sg17
I00
sg18
Nsg19
g0
(g20
g5
Ntp4134
Rp4135
(dp4136
g24
I00
sg25
I00
sg26
I01
sg27
VC0DFEC
p4137
sg29
L2181281054L
sg30
I00
sg31
(dp4138
g86
(dp4139
g35
(lp4140
(dp4141
g86
Vhttp://t.co/NYpmdUJnIe
p4142
sg151
(lp4143
I0
aI22
asg153
Vhttp://www.wkrb13.com
p4144
sg155
Vwkrb13.com
p4145
sassg33
(dp4146
g35
(lp4147
(dp4148
g86
Vhttp://t.co/n4QyKK8afr
p4149
sg151
(lp4150
I31
aI53
asg153
Vhttp://WKRB13.com
p4151
sg155
VWKRB13.com
p4152
sasssg37
Vhttps://pbs.twimg.com/profile_images/378800000709495912/4d5b1653db87aeb8c4685ea3febc9ab0_normal.png
p4153
sg39
(dp4154
g41
I00
sg42
I00
sg43
I01
sg44
I00
sg45
L2181281054L
sg46
Vhttps://abs.twimg.com/images/themes/theme15/bg.png
p4155
sg48
I00
sg49
V333333
p4156
sg51
g4153
sg52
g4137
sg53
g4138
sg54
I506
sg55
VA8C7F7
p4157
sg57
V2181281054
p4158
sg59
V022330
p4159
sg61
I73
sg62
I00
sg63
Nsg64
I299436
sg33
VWKRB News - News and Analysis. http://t.co/n4QyKK8afr
p4160
sg66
I8
sg67
g68
sg69
V0084B4
p4161
sg71
Vhttp://pbs.twimg.com/profile_images/378800000709495912/4d5b1653db87aeb8c4685ea3febc9ab0_normal.png
p4162
sg73
I00
sg74
I00
sg75
Vhttp://abs.twimg.com/images/themes/theme15/bg.png
p4163
sg77
VWKRBNews
p4164
sg79
Ven
p4165
sg81
I00
sg82
I0
sg83
VWKRB News
p4166
sg85
I00
sg86
Vhttp://t.co/NYpmdUJnIe
p4167
sg87
VFri Nov 08 02:17:02 +0000 2013
p4168
sg89
I00
sg90
Nsg92
I00
sg93
I00
sg94
I00
ssg95
I00
sg96
g4156
sg97
I506
sg98
g4157
sg99
g4158
sg100
I00
sg101
I73
sg102
I00
sg103
Nsg104
I299436
sg105
g4160
sg106
I8
sg107
g68
sg108
g4161
sg109
g4162
sg110
I00
sg111
I00
sg112
g4159
sg113
g4163
sg114
g4164
sg115
g4165
sg116
I00
sg117
I00
sg118
I0
sg119
g4166
sg120
g4167
sg121
g122
(S'\x07\xdd\x0b\x08\x02\x11\x02\x00\x00\x00'
p4169
tp4170
Rp4171
sg126
g4155
sg127
Nsg128
I00
sg129
I00
sg130
I00
sbsg131
Nsg29
L661285768837623808L
sg132
I0
sg133
VIFTTT
p4172
sg115
Ven
p4173
sg181
g4135
sg121
g122
(S'\x07\xdf\x0b\x02\x148\x1c\x00\x00\x00'
p4174
tp4175
Rp4176
sg39
(dp4177
g186
Nsg187
I00
sg188
g4132
sg189
I00
sg190
Nsg45
L661285768837623808L
sg191
I0
sg192
V<a href="http://ifttt.com" rel="nofollow">IFTTT</a>
p4178
sg194
I00
sg195
Nsg53
(dp4179
g197
(lp4180
(dp4181
g151
(lp4182
I20
aI25
asg188
VEXLS
p4183
sasg232
(lp4184
sg234
(lp4185
sg35
(lp4186
(dp4187
g86
Vhttps://t.co/8TddK68zct
p4188
sg151
(lp4189
I83
aI106
asg153
Vhttp://ift.tt/1iyCmYn
p4190
sg155
Vift.tt/1iyCmYn
p4191
sassg242
Nsg243
Nsg244
I0
sg57
V661285768837623808
p4192
sg246
I00
sg247
g4154
sg248
Nsg249
Nsg250
I00
sg79
g4173
sg87
VMon Nov 02 20:56:28 +0000 2015
p4193
sg252
Nsg253
Nsg254
(dp4194
g256
Ven
p4195
sg258
Vrecent
p4196
sssg260
g4194
sg261
Nsg262
Nsg31
g4179
sg263
Nsg264
Nsg99
g4192
sg265
I00
sg266
Nsg267
I0
sg268
Nsbag0
(g4
g5
Ntp4197
Rp4198
(dp4199
g9
I00
sg10
Nsg11
I00
sg12
V$EXLS:\u000a\u000aExlService Holdings (EXLS) Releases Earnings Results, Beats \u2026:\u000a\u000ahttps://t.co/PnmthnkPT1
p4200
sg14
Vhttp://www.stocknewswires.com
p4201
sg16
I00
sg17
I00
sg18
Nsg19
g0
(g20
g5
Ntp4202
Rp4203
(dp4204
g24
I00
sg25
I00
sg26
I01
sg27
VE3E2DE
p4205
sg29
L2344619544L
sg30
I00
sg31
(dp4206
g33
(dp4207
g35
(lp4208
sssg37
Vhttps://pbs.twimg.com/profile_images/562292381764952064/mVtp0UmJ_normal.jpeg
p4209
sg39
(dp4210
g41
I00
sg42
I00
sg43
I01
sg44
I00
sg45
L2344619544L
sg46
Vhttps://abs.twimg.com/images/themes/theme3/bg.gif
p4211
sg48
I00
sg49
V634047
p4212
sg51
g4209
sg52
g4205
sg53
g4206
sg54
I516
sg55
VD3D2CF
p4213
sg57
V2344619544
p4214
sg59
VEDECE9
p4215
sg61
I85
sg62
I01
sg63
I-18000
sg64
I182020
sg33
VNews about Stocks
p4216
sg66
I0
sg67
VU.S.
p4217
sg69
V088253
p4218
sg71
Vhttp://pbs.twimg.com/profile_images/562292381764952064/mVtp0UmJ_normal.jpeg
p4219
sg73
I00
sg74
I00
sg75
Vhttp://abs.twimg.com/images/themes/theme3/bg.gif
p4220
sg77
VNewsToDesk
p4221
sg79
Ven
p4222
sg81
I00
sg82
I0
sg83
VBreakingStocksNews
p4223
sg85
I00
sg86
Nsg87
VSat Feb 15 05:49:10 +0000 2014
p4224
sg89
I00
sg90
VEastern Time (US & Canada)
p4225
sg92
I00
sg93
I00
sg94
I00
ssg95
I00
sg96
g4212
sg97
I516
sg98
g4213
sg99
g4214
sg100
I00
sg101
I85
sg102
I01
sg103
I-18000
sg104
I182020
sg105
g4216
sg106
I0
sg107
g4217
sg108
g4218
sg109
g4219
sg110
I00
sg111
I00
sg112
g4215
sg113
g4220
sg114
g4221
sg115
g4222
sg116
I00
sg117
I00
sg118
I0
sg119
g4223
sg120
Nsg121
g122
(S'\x07\xde\x02\x0f\x051\n\x00\x00\x00'
p4226
tp4227
Rp4228
sg126
g4211
sg127
g4225
sg128
I00
sg129
I00
sg130
I00
sbsg131
Nsg29
L661282668575916033L
sg132
I0
sg133
VStockNewsWires
p4229
sg115
Ven
p4230
sg181
g4203
sg121
g122
(S'\x07\xdf\x0b\x02\x14,\x08\x00\x00\x00'
p4231
tp4232
Rp4233
sg39
(dp4234
g186
Nsg187
I00
sg188
V$EXLS:\u000a\u000aExlService Holdings (EXLS) Releases Earnings Results, Beats \u2026:\u000a\u000ahttps://t.co/PnmthnkPT1
p4235
sg189
I00
sg190
Nsg45
L661282668575916033L
sg191
I0
sg192
V<a href="http://www.stocknewswires.com" rel="nofollow">StockNewsWires</a>
p4236
sg194
I00
sg195
Nsg53
(dp4237
g197
(lp4238
(dp4239
g151
(lp4240
I0
aI5
asg188
VEXLS
p4241
sasg232
(lp4242
sg234
(lp4243
sg35
(lp4244
(dp4245
g86
Vhttps://t.co/PnmthnkPT1
p4246
sg151
(lp4247
I72
aI95
asg153
Vhttp://StockNewsHour.com/exls-exlservice-holdings-exls-releases-earnings-results-beats/
p4248
sg155
VStockNewsHour.com/exls-exlservic\u2026
p4249
sassg242
Nsg243
Nsg244
I0
sg57
V661282668575916033
p4250
sg246
I00
sg247
g4210
sg248
Nsg249
Nsg250
I00
sg79
g4230
sg87
VMon Nov 02 20:44:08 +0000 2015
p4251
sg252
Nsg253
Nsg254
(dp4252
g256
Ven
p4253
sg258
Vrecent
p4254
sssg260
g4252
sg261
Nsg262
Nsg31
g4237
sg263
Nsg264
Nsg99
g4250
sg265
I00
sg266
Nsg267
I0
sg268
Nsbag0
(g4
g5
Ntp4255
Rp4256
(dp4257
g9
I00
sg10
Nsg11
I00
sg12
VTrade-Ideas: ExlService Holdings $EXLS Is Today's Strong And Under The Radar Stock $EXLS https://t.co/JEXXrw5x9Y
p4258
sg14
Vhttp://dlvr.it
p4259
sg16
I00
sg17
I00
sg18
Nsg19
g0
(g20
g5
Ntp4260
Rp4261
(dp4262
g24
I00
sg25
I00
sg26
I01
sg27
VCECADB
p4263
sg29
I6968182
sg30
I00
sg31
(dp4264
g86
(dp4265
g35
(lp4266
(dp4267
g86
Vhttp://t.co/xkMHpZC2GX
p4268
sg151
(lp4269
I0
aI22
asg153
Vhttp://www.TraderDaily.com
p4270
sg155
VTraderDaily.com
p4271
sassg33
(dp4272
g35
(lp4273
sssg37
Vhttps://pbs.twimg.com/profile_images/1091000963/big_pic_normal.png
p4274
sg39
(dp4275
g41
I00
sg42
I00
sg43
I01
sg44
I00
sg45
I6968182
sg46
Vhttps://pbs.twimg.com/profile_background_images/118489050/twitterbackground4.jpg
p4276
sg48
I00
sg49
V1834BD
p4277
sg51
g4274
sg52
g4263
sg53
g4264
sg54
I2045
sg55
VF7F2F2
p4278
sg57
V6968182
p4279
sg59
VDBDADE
p4280
sg61
I84
sg62
I00
sg63
I-18000
sg64
I31038
sg33
VTrading News and Analysis for the Wall Street Elite
p4281
sg66
I1226
sg67
VNew York, NY
p4282
sg69
VF0000C
p4283
sg71
Vhttp://pbs.twimg.com/profile_images/1091000963/big_pic_normal.png
p4284
sg73
I00
sg74
I00
sg75
Vhttp://pbs.twimg.com/profile_background_images/118489050/twitterbackground4.jpg
p4285
sg77
VTraderDaily
p4286
sg79
Ven
p4287
sg81
I00
sg82
I0
sg83
VTrader Daily
p4288
sg85
I00
sg86
Vhttp://t.co/xkMHpZC2GX
p4289
sg87
VWed Jun 20 14:43:50 +0000 2007
p4290
sg89
I00
sg90
VEastern Time (US & Canada)
p4291
sg92
I00
sg93
I00
sg94
I00
ssg95
I00
sg96
g4277
sg97
I2045
sg98
g4278
sg99
g4279
sg100
I00
sg101
I84
sg102
I00
sg103
I-18000
sg104
I31038
sg105
g4281
sg106
I1226
sg107
g4282
sg108
g4283
sg109
g4284
sg110
I00
sg111
I00
sg112
g4280
sg113
g4285
sg114
g4286
sg115
g4287
sg116
I00
sg117
I00
sg118
I0
sg119
g4288
sg120
g4289
sg121
g122
(S'\x07\xd7\x06\x14\x0e+2\x00\x00\x00'
p4292
tp4293
Rp4294
sg126
g4276
sg127
g4291
sg128
I00
sg129
I00
sg130
I00
sbsg131
Nsg29
L661254016223965184L
sg132
I0
sg133
Vdlvr.it
p4295
sg115
Ven
p4296
sg181
g4261
sg121
g122
(S'\x07\xdf\x0b\x02\x122\x11\x00\x00\x00'
p4297
tp4298
Rp4299
sg39
(dp4300
g186
Nsg187
I00
sg188
g4258
sg189
I00
sg190
Nsg45
L661254016223965184L
sg191
I0
sg192
V<a href="http://dlvr.it" rel="nofollow">dlvr.it</a>
p4301
sg194
I00
sg195
Nsg53
(dp4302
g197
(lp4303
(dp4304
g151
(lp4305
I33
aI38
asg188
VEXLS
p4306
sa(dp4307
g151
(lp4308
I83
aI88
asg188
VEXLS
p4309
sasg232
(lp4310
sg234
(lp4311
sg35
(lp4312
(dp4313
g86
Vhttps://t.co/JEXXrw5x9Y
p4314
sg151
(lp4315
I89
aI112
asg153
Vhttp://dlvr.it/CdHJJb
p4316
sg155
Vdlvr.it/CdHJJb
p4317
sassg242
Nsg243
Nsg244
I0
sg57
V661254016223965184
p4318
sg246
I00
sg247
g4275
sg248
Nsg249
Nsg250
I00
sg79
g4296
sg87
VMon Nov 02 18:50:17 +0000 2015
p4319
sg252
Nsg253
Nsg254
(dp4320
g256
Ven
p4321
sg258
Vrecent
p4322
sssg260
g4320
sg261
Nsg262
Nsg31
g4302
sg263
Nsg264
Nsg99
g4318
sg265
I00
sg266
Nsg267
I0
sg268
Nsbag0
(g4
g5
Ntp4323
Rp4324
(dp4325
g9
I00
sg10
Nsg11
I00
sg12
VRanks #1 with over 80% in alert gains today. Click here https://t.co/9Vnnw3aqLA .. $FNJN $PFIS $EXLS
p4326
sg14
Vhttp://socialadcenter.com
p4327
sg16
I00
sg17
I00
sg18
Nsg19
g0
(g20
g5
Ntp4328
Rp4329
(dp4330
g24
I00
sg25
I00
sg26
I01
sg27
VDDEEF6
p4331
sg29
L3261001351L
sg30
I00
sg31
(dp4332
g86
(dp4333
g35
(lp4334
(dp4335
g86
Vhttp://t.co/8dJZYrRhox
p4336
sg151
(lp4337
I0
aI22
asg153
Vhttp://pennystocksecret.com
p4338
sg155
Vpennystocksecret.com
p4339
sassg33
(dp4340
g35
(lp4341
(dp4342
g86
Vhttp://t.co/UWzH8kOOl9
p4343
sg151
(lp4344
I11
aI33
asg153
Vhttp://PennyStockSecret.com
p4345
sg155
VPennyStockSecret.com
p4346
sasssg37
Vhttps://pbs.twimg.com/profile_images/617517575241531392/vk4GKKpS_normal.jpg
p4347
sg39
(dp4348
g41
I00
sg42
I00
sg43
I01
sg44
I00
sg45
L3261001351L
sg46
Vhttps://abs.twimg.com/images/themes/theme1/bg.png
p4349
sg48
I00
sg49
V333333
p4350
sg51
g4347
sg52
g4331
sg53
g4332
sg54
I5237
sg55
VC0DEED
p4351
sg57
V3261001351
p4352
sg59
VC0DEED
p4353
sg61
I9
sg62
I00
sg63
I-28800
sg64
I17457
sg33
VSign up to http://t.co/UWzH8kOOl9  and get the premiere penny stock newsletter for free! make sure you subscribe today!
p4354
sg66
I12
sg67
VUnited States
p4355
sg69
V0084B4
p4356
sg71
Vhttp://pbs.twimg.com/profile_images/617517575241531392/vk4GKKpS_normal.jpg
p4357
sg73
I00
sg74
I00
sg350
Vhttps://pbs.twimg.com/profile_banners/3261001351/1436062750
p4358
sg75
Vhttp://abs.twimg.com/images/themes/theme1/bg.png
p4359
sg77
Vstockmaster101
p4360
sg79
Ven
p4361
sg81
I00
sg82
I0
sg83
VStockmaster101
p4362
sg85
I00
sg86
Vhttp://t.co/8dJZYrRhox
p4363
sg87
VTue Jun 30 07:41:17 +0000 2015
p4364
sg89
I00
sg90
VPacific Time (US & Canada)
p4365
sg92
I00
sg93
I01
sg94
I00
ssg95
I00
sg96
g4350
sg97
I5237
sg98
g4351
sg99
g4352
sg100
I00
sg101
I9
sg102
I00
sg103
I-28800
sg104
I17457
sg105
g4354
sg106
I12
sg107
g4355
sg108
g4356
sg109
g4357
sg110
I00
sg111
I00
sg112
g4353
sg358
g4358
sg113
g4359
sg114
g4360
sg115
g4361
sg116
I00
sg117
I00
sg118
I0
sg119
g4362
sg120
g4363
sg121
g122
(S'\x07\xdf\x06\x1e\x07)\x11\x00\x00\x00'
p4366
tp4367
Rp4368
sg126
g4349
sg127
g4365
sg128
I00
sg129
I01
sg130
I00
sbsg131
Nsg29
L661237923229114369L
sg132
I0
sg133
VSocial Ad Center
p4369
sg115
Ven
p4370
sg181
g4329
sg121
g122
(S'\x07\xdf\x0b\x02\x11.\x14\x00\x00\x00'
p4371
tp4372
Rp4373
sg39
(dp4374
g186
Nsg187
I00
sg188
g4326
sg189
I00
sg190
Nsg45
L661237923229114369L
sg191
I0
sg192
V<a href="http://socialadcenter.com" rel="nofollow">Social Ad Center</a>
p4375
sg194
I00
sg195
Nsg53
(dp4376
g197
(lp4377
(dp4378
g151
(lp4379
I83
aI88
asg188
VFNJN
p4380
sa(dp4381
g151
(lp4382
I89
aI94
asg188
VPFIS
p4383
sa(dp4384
g151
(lp4385
I95
aI100
asg188
VEXLS
p4386
sasg232
(lp4387
sg234
(lp4388
sg35
(lp4389
(dp4390
g86
Vhttps://t.co/9Vnnw3aqLA
p4391
sg151
(lp4392
I56
aI79
asg153
Vhttp://PennyStockSecret.com
p4393
sg155
VPennyStockSecret.com
p4394
sassg242
Nsg243
Nsg244
I0
sg57
V661237923229114369
p4395
sg246
I00
sg247
g4348
sg248
Nsg249
Nsg250
I00
sg79
g4370
sg87
VMon Nov 02 17:46:20 +0000 2015
p4396
sg252
Nsg253
Nsg254
(dp4397
g256
Ven
p4398
sg258
Vrecent
p4399
sssg260
g4397
sg261
Nsg262
Nsg31
g4376
sg263
Nsg264
Nsg99
g4395
sg265
I00
sg266
Nsg267
I0
sg268
Nsbag0
(g4
g5
Ntp4400
Rp4401
(dp4402
g9
I00
sg10
Nsg11
I00
sg12
V$EXLS:\u000a\u000aExlService Holdings (EXLS) Issues Quarterly Earnings Results:\u000a\u000ahttps://t.co/mS9lgxN5Ri
p4403
sg14
Vhttp://www.stocknewswires.com
p4404
sg16
I00
sg17
I00
sg18
Nsg19
g0
(g20
g5
Ntp4405
Rp4406
(dp4407
g24
I00
sg25
I00
sg26
I01
sg27
VDAECF4
p4408
sg29
L2341445778L
sg30
I00
sg31
(dp4409
g33
(dp4410
g35
(lp4411
sssg37
Vhttps://pbs.twimg.com/profile_images/542238326397227008/UfZ0ulTf_normal.jpeg
p4412
sg39
(dp4413
g41
I00
sg42
I00
sg43
I01
sg44
I00
sg45
L2341445778L
sg46
Vhttps://abs.twimg.com/images/themes/theme2/bg.gif
p4414
sg48
I00
sg49
V663B12
p4415
sg51
g4412
sg52
g4408
sg53
g4409
sg54
I660
sg55
VC6E2EE
p4416
sg57
V2341445778
p4417
sg59
VC6E2EE
p4418
sg61
I107
sg62
I00
sg63
I-14400
sg64
I236872
sg33
VInvest like a fish
p4419
sg66
I9
sg67
VUnited States
p4420
sg69
V1F98C7
p4421
sg71
Vhttp://pbs.twimg.com/profile_images/542238326397227008/UfZ0ulTf_normal.jpeg
p4422
sg73
I00
sg74
I00
sg75
Vhttp://abs.twimg.com/images/themes/theme2/bg.gif
p4423
sg77
VStockNewsWires
p4424
sg79
Ven
p4425
sg81
I00
sg82
I0
sg83
VStockNewsWires
p4426
sg85
I00
sg86
Nsg87
VThu Feb 13 05:31:52 +0000 2014
p4427
sg89
I00
sg90
VAtlantic Time (Canada)
p4428
sg92
I00
sg93
I00
sg94
I00
ssg95
I00
sg96
g4415
sg97
I660
sg98
g4416
sg99
g4417
sg100
I00
sg101
I107
sg102
I00
sg103
I-14400
sg104
I236872
sg105
g4419
sg106
I9
sg107
g4420
sg108
g4421
sg109
g4422
sg110
I00
sg111
I00
sg112
g4418
sg113
g4423
sg114
g4424
sg115
g4425
sg116
I00
sg117
I00
sg118
I0
sg119
g4426
sg120
Nsg121
g122
(S'\x07\xde\x02\r\x05\x1f4\x00\x00\x00'
p4429
tp4430
Rp4431
sg126
g4414
sg127
g4428
sg128
I00
sg129
I00
sg130
I00
sbsg131
Nsg29
L661234824812830720L
sg132
I0
sg133
VStockNewsWires
p4432
sg115
Ven
p4433
sg181
g4406
sg121
g122
(S'\x07\xdf\x0b\x02\x11"\x02\x00\x00\x00'
p4434
tp4435
Rp4436
sg39
(dp4437
g186
Nsg187
I00
sg188
V$EXLS:\u000a\u000aExlService Holdings (EXLS) Issues Quarterly Earnings Results:\u000a\u000ahttps://t.co/mS9lgxN5Ri
p4438
sg189
I00
sg190
Nsg45
L661234824812830720L
sg191
I0
sg192
V<a href="http://www.stocknewswires.com" rel="nofollow">StockNewsWires</a>
p4439
sg194
I00
sg195
Nsg53
(dp4440
g197
(lp4441
(dp4442
g151
(lp4443
I0
aI5
asg188
VEXLS
p4444
sasg232
(lp4445
sg234
(lp4446
sg35
(lp4447
(dp4448
g86
Vhttps://t.co/mS9lgxN5Ri
p4449
sg151
(lp4450
I71
aI94
asg153
Vhttp://StockNewsHour.com/exls-exlservice-holdings-exls-issues-quarterly-earnings-results/
p4451
sg155
VStockNewsHour.com/exls-exlservic\u2026
p4452
sassg242
Nsg243
Nsg244
I0
sg57
V661234824812830720
p4453
sg246
I00
sg247
g4413
sg248
Nsg249
Nsg250
I00
sg79
g4433
sg87
VMon Nov 02 17:34:02 +0000 2015
p4454
sg252
Nsg253
Nsg254
(dp4455
g256
Ven
p4456
sg258
Vrecent
p4457
sssg260
g4455
sg261
Nsg262
Nsg31
g4440
sg263
Nsg264
Nsg99
g4453
sg265
I00
sg266
Nsg267
I0
sg268
Nsbag0
(g4
g5
Ntp4458
Rp4459
(dp4460
g9
I00
sg10
Nsg11
I00
sg12
V$EXLS High Fundamental Rating  https://t.co/2CqrNinzrq https://t.co/7mueHlPoqJ
p4461
sg14
Vhttp://www.capitalmarketlabs.com/index.php
p4462
sg16
I00
sg17
I00
sg18
Nsg19
g0
(g20
g5
Ntp4463
Rp4464
(dp4465
g24
I00
sg25
I00
sg26
I01
sg27
VDDEEF6
p4466
sg29
L3100250551L
sg30
I00
sg31
(dp4467
g86
(dp4468
g35
(lp4469
(dp4470
g86
Vhttp://t.co/ImCACmTfui
p4471
sg151
(lp4472
I0
aI22
asg153
Vhttp://www.capitalmarketlabs.com/
p4473
sg155
Vcapitalmarketlabs.com
p4474
sassg33
(dp4475
g35
(lp4476
sssg37
Vhttps://pbs.twimg.com/profile_images/582627578449518593/dQHy0gDs_normal.png
p4477
sg39
(dp4478
g41
I00
sg42
I00
sg43
I01
sg44
I00
sg45
L3100250551L
sg46
Vhttps://abs.twimg.com/images/themes/theme1/bg.png
p4479
sg48
I00
sg49
V333333
p4480
sg51
g4477
sg52
g4466
sg53
g4467
sg54
I2405
sg55
VC0DEED
p4481
sg57
V3100250551
p4482
sg59
VC0DEED
p4483
sg61
I31
sg62
I00
sg63
I-28800
sg64
I24756
sg33
VOfficial Twitter Account for #CML.  Tweets every 10-15 minutes on trends and comparisons. Data feed: @CMLviz CEO: @ophirgottlieb
p4484
sg66
I1143
sg67
VLos Angeles, CA
p4485
sg69
V0084B4
p4486
sg71
Vhttp://pbs.twimg.com/profile_images/582627578449518593/dQHy0gDs_normal.png
p4487
sg73
I00
sg74
I00
sg350
Vhttps://pbs.twimg.com/profile_banners/3100250551/1426889834
p4488
sg75
Vhttp://abs.twimg.com/images/themes/theme1/bg.png
p4489
sg77
Vcapitalmktlabs
p4490
sg79
Ven
p4491
sg81
I00
sg82
I29
sg83
VCapital Market Labs
p4492
sg85
I00
sg86
Vhttp://t.co/ImCACmTfui
p4493
sg87
VFri Mar 20 21:26:19 +0000 2015
p4494
sg89
I00
sg90
VPacific Time (US & Canada)
p4495
sg92
I00
sg93
I01
sg94
I00
ssg95
I00
sg96
g4480
sg97
I2405
sg98
g4481
sg99
g4482
sg100
I00
sg101
I31
sg102
I00
sg103
I-28800
sg104
I24756
sg105
g4484
sg106
I1143
sg107
g4485
sg108
g4486
sg109
g4487
sg110
I00
sg111
I00
sg112
g4483
sg358
g4488
sg113
g4489
sg114
g4490
sg115
g4491
sg116
I00
sg117
I00
sg118
I29
sg119
g4492
sg120
g4493
sg121
g122
(S'\x07\xdf\x03\x14\x15\x1a\x13\x00\x00\x00'
p4496
tp4497
Rp4498
sg126
g4479
sg127
g4495
sg128
I00
sg129
I01
sg130
I00
sbsg131
Nsg29
L661220287615123456L
sg132
I0
sg133
VCML Tale of the Tape
p4499
sg115
Ven
p4500
sg181
g4464
sg121
g122
(S'\x07\xdf\x0b\x02\x10$\x10\x00\x00\x00'
p4501
tp4502
Rp4503
sg39
(dp4504
g186
Nsg187
I00
sg188
g4461
sg189
I00
sg190
Nsg45
L661220287615123456L
sg191
I0
sg192
V<a href="http://www.capitalmarketlabs.com/index.php" rel="nofollow">CML Tale of the Tape</a>
p4505
sg194
I00
sg195
Nsg53
(dp4506
g197
(lp4507
(dp4508
g151
(lp4509
I0
aI5
asg188
VEXLS
p4510
sasg232
(lp4511
sg234
(lp4512
sg35
(lp4513
(dp4514
g86
Vhttps://t.co/2CqrNinzrq
p4515
sg151
(lp4516
I31
aI54
asg153
Vhttp://bit.ly/1M728vt
p4517
sg155
Vbit.ly/1M728vt
p4518
sasg671
(lp4519
(dp4520
g153
Vhttp://twitter.com/capitalmktlabs/status/661220287615123456/photo/1
p4521
sg155
Vpic.twitter.com/7mueHlPoqJ
p4522
sg86
Vhttps://t.co/7mueHlPoqJ
p4523
sg677
Vhttps://pbs.twimg.com/media/CS0gWPSUsAAN8ql.png
p4524
sg57
V661220286725926912
p4525
sg680
(dp4526
g682
(dp4527
g684
I475
sg685
Vfit
p4528
sg687
I786
ssg688
(dp4529
g684
I205
sg685
Vfit
p4530
sg687
I340
ssg691
(dp4531
g684
I362
sg685
Vfit
p4532
sg687
I600
ssg694
(dp4533
g684
I150
sg685
Vcrop
p4534
sg687
I150
sssg151
(lp4535
I55
aI78
asg698
Vphoto
p4536
sg45
L661220286725926912L
sg700
Vhttp://pbs.twimg.com/media/CS0gWPSUsAAN8ql.png
p4537
sassg242
Nsg243
Nsg244
I0
sg57
V661220287615123456
p4538
sg246
I00
sg247
g4478
sg248
Nsg249
Nsg250
I00
sg79
g4500
sg87
VMon Nov 02 16:36:16 +0000 2015
p4539
sg252
Nsg253
Nsg254
(dp4540
g256
Ven
p4541
sg258
Vrecent
p4542
sssg260
g4540
sg261
Nsg262
Nsg31
g4506
sg263
Nsg264
Nsg99
g4538
sg265
I00
sg266
Nsg267
I0
sg268
Nsbag0
(g4
g5
Ntp4543
Rp4544
(dp4545
g9
I00
sg10
Nsg11
I00
sg12
VExlService Holdings $EXLS Releases  Earnings Results, Beats Expectations By $0.07 EPS https://t.co/xm8JR2WpdJ
p4546
sg14
Vhttp://ifttt.com
p4547
sg16
I00
sg17
I00
sg18
Nsg19
g0
(g20
g5
Ntp4548
Rp4549
(dp4550
g24
I00
sg25
I00
sg26
I01
sg27
VDDEEF6
p4551
sg29
L2743641378L
sg30
I00
sg31
(dp4552
g33
(dp4553
g35
(lp4554
sssg37
Vhttps://pbs.twimg.com/profile_images/501548634412838914/LR6q5snv_normal.jpeg
p4555
sg39
(dp4556
g41
I00
sg42
I00
sg43
I01
sg44
I00
sg45
L2743641378L
sg46
Vhttps://abs.twimg.com/images/themes/theme1/bg.png
p4557
sg48
I00
sg49
V333333
p4558
sg51
g4555
sg52
g4551
sg53
g4552
sg54
I668
sg55
VC0DEED
p4559
sg57
V2743641378
p4560
sg59
VC0DEED
p4561
sg61
I59
sg62
I00
sg63
Nsg64
I275759
sg33
g68
sg66
I0
sg67
g68
sg69
V0084B4
p4562
sg71
Vhttp://pbs.twimg.com/profile_images/501548634412838914/LR6q5snv_normal.jpeg
p4563
sg73
I00
sg74
I00
sg350
Vhttps://pbs.twimg.com/profile_banners/2743641378/1408413498
p4564
sg75
Vhttp://abs.twimg.com/images/themes/theme1/bg.png
p4565
sg77
VSleekMoneycom
p4566
sg79
Ven
p4567
sg81
I00
sg82
I0
sg83
VSleek Money
p4568
sg85
I00
sg86
Nsg87
VTue Aug 19 01:57:20 +0000 2014
p4569
sg89
I00
sg90
Nsg92
I00
sg93
I01
sg94
I00
ssg95
I00
sg96
g4558
sg97
I668
sg98
g4559
sg99
g4560
sg100
I00
sg101
I59
sg102
I00
sg103
Nsg104
I275759
sg105
g68
sg106
I0
sg107
g68
sg108
g4562
sg109
g4563
sg110
I00
sg111
I00
sg112
g4561
sg358
g4564
sg113
g4565
sg114
g4566
sg115
g4567
sg116
I00
sg117
I00
sg118
I0
sg119
g4568
sg120
Nsg121
g122
(S'\x07\xde\x08\x13\x019\x14\x00\x00\x00'
p4570
tp4571
Rp4572
sg126
g4557
sg127
Nsg128
I00
sg129
I01
sg130
I00
sbsg131
Nsg29
L661205811889336320L
sg132
I0
sg133
VIFTTT
p4573
sg115
Ven
p4574
sg181
g4549
sg121
g122
(S'\x07\xdf\x0b\x02\x0f&,\x00\x00\x00'
p4575
tp4576
Rp4577
sg39
(dp4578
g186
Nsg187
I00
sg188
g4546
sg189
I00
sg190
Nsg45
L661205811889336320L
sg191
I0
sg192
V<a href="http://ifttt.com" rel="nofollow">IFTTT</a>
p4579
sg194
I00
sg195
Nsg53
(dp4580
g197
(lp4581
(dp4582
g151
(lp4583
I20
aI25
asg188
VEXLS
p4584
sasg232
(lp4585
sg234
(lp4586
sg35
(lp4587
(dp4588
g86
Vhttps://t.co/xm8JR2WpdJ
p4589
sg151
(lp4590
I86
aI109
asg153
Vhttp://ift.tt/1RJOotP
p4591
sg155
Vift.tt/1RJOotP
p4592
sassg242
Nsg243
Nsg244
I0
sg57
V661205811889336320
p4593
sg246
I00
sg247
g4556
sg248
Nsg249
Nsg250
I00
sg79
g4574
sg87
VMon Nov 02 15:38:44 +0000 2015
p4594
sg252
Nsg253
Nsg254
(dp4595
g256
Ven
p4596
sg258
Vrecent
p4597
sssg260
g4595
sg261
Nsg262
Nsg31
g4580
sg263
Nsg264
Nsg99
g4593
sg265
I00
sg266
Nsg267
I0
sg268
Nsbatp4598
Rp4599
(dp4600
S'count'
p4601
I100
sS'completed_in'
p4602
F0.135
sS'_since_id'
p4603
NsS'refresh_url'
p4604
V?since_id=664239367959932928&q=%24EXLS&include_entities=1
p4605
sS'query'
p4606
V%24EXLS
p4607
sS'_max_id'
p4608
NsS'next_results'
p4609
Nsb.