ccopy_reg
_reconstructor
p0
(ctweepy.models
SearchResults
p1
c__builtin__
list
p2
(lp3
g0
(ctweepy.models
Status
p4
c__builtin__
object
p5
Ntp6
Rp7
(dp8
S'favorited'
p9
I00
sS'contributors'
p10
NsS'truncated'
p11
I00
sS'text'
p12
VLiberty Global plc, $LBTYK, Target: 43.91 (-0.66%).\u000ahttps://t.co/MhX0DSumHl  #Liberty #Global
p13
sS'source_url'
p14
Vhttp://www.eventstrend.com/
p15
sS'possibly_sensitive'
p16
I00
sS'is_quote_status'
p17
I00
sS'in_reply_to_status_id'
p18
NsS'user'
p19
g0
(ctweepy.models
User
p20
g5
Ntp21
Rp22
(dp23
S'follow_request_sent'
p24
I00
sS'has_extended_profile'
p25
I00
sS'profile_use_background_image'
p26
I01
sS'profile_sidebar_fill_color'
p27
VDDEEF6
p28
sS'id'
p29
L3803301083L
sS'verified'
p30
I00
sS'entities'
p31
(dp32
Vurl
p33
(dp34
Vurls
p35
(lp36
(dp37
g33
Vhttp://t.co/DzUno6hxyF
p38
sVindices
p39
(lp40
I0
aI22
asVexpanded_url
p41
Vhttp://EventsTrend.com
p42
sVdisplay_url
p43
VEventsTrend.com
p44
sassVdescription
p45
(dp46
g35
(lp47
sssS'profile_image_url_https'
p48
Vhttps://pbs.twimg.com/profile_images/648768997580783616/taq5y0RZ_normal.jpg
p49
sS'_json'
p50
(dp51
Vfollow_request_sent
p52
I00
sVhas_extended_profile
p53
I00
sVprofile_use_background_image
p54
I01
sVdefault_profile_image
p55
I00
sVid
p56
L3803301083L
sVprofile_background_image_url_https
p57
Vhttps://abs.twimg.com/images/themes/theme1/bg.png
p58
sVverified
p59
I00
sVprofile_text_color
p60
V333333
p61
sVprofile_image_url_https
p62
g49
sVprofile_sidebar_fill_color
p63
g28
sVentities
p64
g32
sVfollowers_count
p65
I440
sVprofile_sidebar_border_color
p66
VC0DEED
p67
sVid_str
p68
V3803301083
p69
sVprofile_background_color
p70
VC0DEED
p71
sVlisted_count
p72
I33
sVis_translation_enabled
p73
I00
sVutc_offset
p74
I-39600
sVstatuses_count
p75
I5136
sg45
VFollow our extreme analytical algorithms and make a profit!
p76
sVfriends_count
p77
I901
sVlocation
p78
VUSA
p79
sVprofile_link_color
p80
V0084B4
p81
sVprofile_image_url
p82
Vhttp://pbs.twimg.com/profile_images/648768997580783616/taq5y0RZ_normal.jpg
p83
sVfollowing
p84
I00
sVgeo_enabled
p85
I00
sVprofile_background_image_url
p86
Vhttp://abs.twimg.com/images/themes/theme1/bg.png
p87
sVscreen_name
p88
Veventstrendcom
p89
sVlang
p90
Ven
p91
sVprofile_background_tile
p92
I00
sVfavourites_count
p93
I0
sVname
p94
VEventsTrend_com
p95
sVnotifications
p96
I00
sg33
Vhttp://t.co/DzUno6hxyF
p97
sVcreated_at
p98
VMon Sep 28 11:42:34 +0000 2015
p99
sVcontributors_enabled
p100
I00
sVtime_zone
p101
VInternational Date Line West
p102
sVprotected
p103
I00
sVdefault_profile
p104
I01
sVis_translator
p105
I00
ssS'contributors_enabled'
p106
I00
sS'profile_text_color'
p107
g61
sS'followers_count'
p108
I440
sS'profile_sidebar_border_color'
p109
g67
sS'id_str'
p110
g69
sS'default_profile_image'
p111
I00
sS'listed_count'
p112
I33
sS'is_translation_enabled'
p113
I00
sS'utc_offset'
p114
I-39600
sS'statuses_count'
p115
I5136
sS'description'
p116
g76
sS'friends_count'
p117
I901
sS'location'
p118
g79
sS'profile_link_color'
p119
g81
sS'profile_image_url'
p120
g83
sS'notifications'
p121
I00
sS'geo_enabled'
p122
I00
sS'profile_background_color'
p123
g71
sS'profile_background_image_url'
p124
g87
sS'screen_name'
p125
g89
sS'lang'
p126
g91
sS'following'
p127
I00
sS'profile_background_tile'
p128
I00
sS'favourites_count'
p129
I0
sS'name'
p130
g95
sS'url'
p131
g97
sS'created_at'
p132
cdatetime
datetime
p133
(S'\x07\xdf\t\x1c\x0b*"\x00\x00\x00'
p134
tp135
Rp136
sS'profile_background_image_url_https'
p137
g58
sS'time_zone'
p138
g102
sS'protected'
p139
I00
sS'default_profile'
p140
I01
sS'is_translator'
p141
I00
sbsS'geo'
p142
Nsg29
L664442940631027713L
sS'favorite_count'
p143
I0
sS'source'
p144
Veventstrend
p145
sg126
Vsk
p146
sS'author'
p147
g22
sg132
g133
(S'\x07\xdf\x0b\x0b\x0e\x018\x00\x00\x00'
p148
tp149
Rp150
sg50
(dp151
Vcontributors
p152
NsVtruncated
p153
I00
sVtext
p154
VLiberty Global plc, $LBTYK, Target: 43.91 (-0.66%).\u000ahttps://t.co/MhX0DSumHl  #Liberty #Global
p155
sVis_quote_status
p156
I00
sVin_reply_to_status_id
p157
Nsg56
L664442940631027713L
sVfavorite_count
p158
I0
sVsource
p159
V<a href="http://www.eventstrend.com/" rel="nofollow">eventstrend</a>
p160
sVretweeted
p161
I00
sVcoordinates
p162
Nsg64
(dp163
Vsymbols
p164
(lp165
(dp166
g39
(lp167
I20
aI26
asg154
VLBTYK
p168
sasVuser_mentions
p169
(lp170
sVhashtags
p171
(lp172
(dp173
g39
(lp174
I77
aI85
asg154
VLiberty
p175
sa(dp176
g39
(lp177
I86
aI93
asg154
VGlobal
p178
sasg35
(lp179
(dp180
g33
Vhttps://t.co/MhX0DSumHl
p181
sg39
(lp182
I52
aI75
asg41
Vhttp://EventsTrend.com/index.php?r=search/view&id=4944
p183
sg43
VEventsTrend.com/index.php?r=se\u2026
p184
sassVin_reply_to_screen_name
p185
NsVin_reply_to_user_id
p186
NsVretweet_count
p187
I0
sg68
V664442940631027713
p188
sVfavorited
p189
I00
sVuser
p190
g51
sVgeo
p191
NsVin_reply_to_user_id_str
p192
NsVpossibly_sensitive
p193
I00
sg90
g146
sg98
VWed Nov 11 14:01:56 +0000 2015
p194
sVin_reply_to_status_id_str
p195
NsVplace
p196
NsVmetadata
p197
(dp198
Viso_language_code
p199
Vsk
p200
sVresult_type
p201
Vrecent
p202
sssS'metadata'
p203
g198
sS'coordinates'
p204
NsS'in_reply_to_user_id_str'
p205
Nsg31
g163
sS'in_reply_to_status_id_str'
p206
NsS'in_reply_to_screen_name'
p207
Nsg110
g188
sS'retweeted'
p208
I00
sS'place'
p209
NsS'retweet_count'
p210
I0
sS'in_reply_to_user_id'
p211
Nsbag0
(g4
g5
Ntp212
Rp213
(dp214
g9
I00
sg10
Nsg11
I00
sg12
V$LBTYK:\u000a\u000aLiberty Global plc (NASDAQ:LBTYK) Short Interest Update:\u000a\u000ahttps://t.co/8y9r0wSO9l
p215
sg14
Vhttp://www.stocknewswires.com
p216
sg16
I00
sg17
I00
sg18
Nsg19
g0
(g20
g5
Ntp217
Rp218
(dp219
g24
I00
sg25
I00
sg26
I01
sg27
VE3E2DE
p220
sg29
L2344619544L
sg30
I00
sg31
(dp221
g45
(dp222
g35
(lp223
sssg48
Vhttps://pbs.twimg.com/profile_images/562292381764952064/mVtp0UmJ_normal.jpeg
p224
sg50
(dp225
g52
I00
sg53
I00
sg54
I01
sg55
I00
sg56
L2344619544L
sg57
Vhttps://abs.twimg.com/images/themes/theme3/bg.gif
p226
sg59
I00
sg60
V634047
p227
sg62
g224
sg63
g220
sg64
g221
sg65
I516
sg66
VD3D2CF
p228
sg68
V2344619544
p229
sg70
VEDECE9
p230
sg72
I85
sg73
I01
sg74
I-18000
sg75
I182020
sg45
VNews about Stocks
p231
sg77
I0
sg78
VU.S.
p232
sg80
V088253
p233
sg82
Vhttp://pbs.twimg.com/profile_images/562292381764952064/mVtp0UmJ_normal.jpeg
p234
sg84
I00
sg85
I00
sg86
Vhttp://abs.twimg.com/images/themes/theme3/bg.gif
p235
sg88
VNewsToDesk
p236
sg90
Ven
p237
sg92
I00
sg93
I0
sg94
VBreakingStocksNews
p238
sg96
I00
sg33
Nsg98
VSat Feb 15 05:49:10 +0000 2014
p239
sg100
I00
sg101
VEastern Time (US & Canada)
p240
sg103
I00
sg104
I00
sg105
I00
ssg106
I00
sg107
g227
sg108
I516
sg109
g228
sg110
g229
sg111
I00
sg112
I85
sg113
I01
sg114
I-18000
sg115
I182020
sg116
g231
sg117
I0
sg118
g232
sg119
g233
sg120
g234
sg121
I00
sg122
I00
sg123
g230
sg124
g235
sg125
g236
sg126
g237
sg127
I00
sg128
I00
sg129
I0
sg130
g238
sg131
Nsg132
g133
(S'\x07\xde\x02\x0f\x051\n\x00\x00\x00'
p241
tp242
Rp243
sg137
g226
sg138
g240
sg139
I00
sg140
I00
sg141
I00
sbsg142
Nsg29
L664399684782440448L
sg143
I0
sg144
VStockNewsWires
p244
sg126
Vlt
p245
sg147
g218
sg132
g133
(S'\x07\xdf\x0b\x0b\x0b\n\x03\x00\x00\x00'
p246
tp247
Rp248
sg50
(dp249
g152
Nsg153
I00
sg154
V$LBTYK:\u000a\u000aLiberty Global plc (NASDAQ:LBTYK) Short Interest Update:\u000a\u000ahttps://t.co/8y9r0wSO9l
p250
sg156
I00
sg157
Nsg56
L664399684782440448L
sg158
I0
sg159
V<a href="http://www.stocknewswires.com" rel="nofollow">StockNewsWires</a>
p251
sg161
I00
sg162
Nsg64
(dp252
g164
(lp253
(dp254
g39
(lp255
I0
aI6
asg154
VLBTYK
p256
sasg169
(lp257
sg171
(lp258
sg35
(lp259
(dp260
g33
Vhttps://t.co/8y9r0wSO9l
p261
sg39
(lp262
I67
aI90
asg41
Vhttp://StockNewsHour.com/lbtyk-liberty-global-plc-nasdaqlbtyk-short-interest-update/
p263
sg43
VStockNewsHour.com/lbtyk-liberty-\u2026
p264
sassg185
Nsg186
Nsg187
I0
sg68
V664399684782440448
p265
sg189
I00
sg190
g225
sg191
Nsg192
Nsg193
I00
sg90
g245
sg98
VWed Nov 11 11:10:03 +0000 2015
p266
sg195
Nsg196
Nsg197
(dp267
g199
Vlt
p268
sg201
Vrecent
p269
sssg203
g267
sg204
Nsg205
Nsg31
g252
sg206
Nsg207
Nsg110
g265
sg208
I00
sg209
Nsg210
I0
sg211
Nsbag0
(g4
g5
Ntp270
Rp271
(dp272
g9
I00
sg10
Nsg11
I00
sg12
VOn The Fly: Top stock stories at midday $AAPL $GPS $DHI $LGF $DISCA $DISCK $LBTYA $LBTYK $W $FTK $VRX $MNK: Fu... https://t.co/9YDa5nlUQD
p273
sg14
Vhttp://twitterfeed.com
p274
sg16
I00
sg17
I00
sg18
Nsg19
g0
(g20
g5
Ntp275
Rp276
(dp277
g24
I00
sg25
I00
sg26
I00
sg27
VDDEEF6
p278
sg29
I166597717
sg30
I00
sg31
(dp279
g33
(dp280
g35
(lp281
(dp282
g33
Vhttp://t.co/453xIP53r9
p283
sg39
(lp284
I0
aI22
asg41
Vhttp://www.thefly.com
p285
sg43
Vthefly.com
p286
sassg45
(dp287
g35
(lp288
sssg48
Vhttps://pbs.twimg.com/profile_images/576038265762926594/FP6rEIuE_normal.png
p289
sg50
(dp290
g52
I00
sg53
I00
sg54
I00
sg55
I00
sg56
I166597717
sg57
Vhttps://abs.twimg.com/images/themes/theme1/bg.png
p291
sg59
I00
sg60
V333333
p292
sg62
g289
sg63
g278
sg64
g279
sg65
I11143
sg66
VFFFFFF
p293
sg68
V166597717
p294
sg70
V254B82
p295
sg72
I457
sg73
I00
sg74
I-18000
sg75
I55349
sg45
VFirst In Stock News
p296
sg77
I128
sg78
V
p297
sg80
V254B82
p298
sg82
Vhttp://pbs.twimg.com/profile_images/576038265762926594/FP6rEIuE_normal.png
p299
sg84
I00
sg85
I00
sg86
Vhttp://abs.twimg.com/images/themes/theme1/bg.png
p300
sg88
Vtheflynews
p301
sg90
Ven
p302
sg92
I00
sg93
I9
sg94
VThe Fly
p303
sg96
I00
sg33
Vhttp://t.co/453xIP53r9
p304
sg98
VWed Jul 14 15:10:34 +0000 2010
p305
sg100
I00
sg101
VEastern Time (US & Canada)
p306
sg103
I00
sg104
I00
sg105
I00
ssg106
I00
sg107
g292
sg108
I11143
sg109
g293
sg110
g294
sg111
I00
sg112
I457
sg113
I00
sg114
I-18000
sg115
I55349
sg116
g296
sg117
I128
sg118
g297
sg119
g298
sg120
g299
sg121
I00
sg122
I00
sg123
g295
sg124
g300
sg125
g301
sg126
g302
sg127
I00
sg128
I00
sg129
I9
sg130
g303
sg131
g304
sg132
g133
(S'\x07\xda\x07\x0e\x0f\n"\x00\x00\x00'
p307
tp308
Rp309
sg137
g291
sg138
g306
sg139
I00
sg140
I00
sg141
I00
sbsg142
Nsg29
L664131738113720321L
sg143
I0
sg144
Vtwitterfeed
p310
sg126
Ven
p311
sg147
g276
sg132
g133
(S'\x07\xdf\x0b\n\x11\x19\x13\x00\x00\x00'
p312
tp313
Rp314
sg50
(dp315
g152
Nsg153
I00
sg154
g273
sg156
I00
sg157
Nsg56
L664131738113720321L
sg158
I0
sg159
V<a href="http://twitterfeed.com" rel="nofollow">twitterfeed</a>
p316
sg161
I00
sg162
Nsg64
(dp317
g164
(lp318
(dp319
g39
(lp320
I40
aI45
asg154
VAAPL
p321
sa(dp322
g39
(lp323
I46
aI50
asg154
VGPS
p324
sa(dp325
g39
(lp326
I51
aI55
asg154
VDHI
p327
sa(dp328
g39
(lp329
I56
aI60
asg154
VLGF
p330
sa(dp331
g39
(lp332
I61
aI67
asg154
VDISCA
p333
sa(dp334
g39
(lp335
I68
aI74
asg154
VDISCK
p336
sa(dp337
g39
(lp338
I75
aI81
asg154
VLBTYA
p339
sa(dp340
g39
(lp341
I82
aI88
asg154
VLBTYK
p342
sa(dp343
g39
(lp344
I89
aI91
asg154
VW
p345
sa(dp346
g39
(lp347
I92
aI96
asg154
VFTK
p348
sa(dp349
g39
(lp350
I97
aI101
asg154
VVRX
p351
sa(dp352
g39
(lp353
I102
aI106
asg154
VMNK
p354
sasg169
(lp355
sg171
(lp356
sg35
(lp357
(dp358
g33
Vhttps://t.co/9YDa5nlUQD
p359
sg39
(lp360
I114
aI137
asg41
Vhttp://bit.ly/1HuXfQ4
p361
sg43
Vbit.ly/1HuXfQ4
p362
sassg185
Nsg186
Nsg187
I0
sg68
V664131738113720321
p363
sg189
I00
sg190
g290
sg191
Nsg192
Nsg193
I00
sg90
g311
sg98
VTue Nov 10 17:25:19 +0000 2015
p364
sg195
Nsg196
Nsg197
(dp365
g199
Ven
p366
sg201
Vrecent
p367
sssg203
g365
sg204
Nsg205
Nsg31
g317
sg206
Nsg207
Nsg110
g363
sg208
I00
sg209
Nsg210
I0
sg211
Nsbag0
(g4
g5
Ntp368
Rp369
(dp370
g9
I00
sg10
Nsg11
I00
sg12
V$LUV $ISIS $LBTYK:\u000a\u000aCurrent Trade Stocks Recap: Southwest Airlines Co (NYSE:LUV \u2026:\u000a\u000ahttps://t.co/MZOjzIeNDs
p371
sg14
Vhttp://www.stocknewswires.com
p372
sg16
I00
sg17
I00
sg18
Nsg19
g0
(g20
g5
Ntp373
Rp374
(dp375
g24
I00
sg25
I00
sg26
I01
sg27
VE3E2DE
p376
sg29
L2344619544L
sg30
I00
sg31
(dp377
g45
(dp378
g35
(lp379
sssg48
Vhttps://pbs.twimg.com/profile_images/562292381764952064/mVtp0UmJ_normal.jpeg
p380
sg50
(dp381
g52
I00
sg53
I00
sg54
I01
sg55
I00
sg56
L2344619544L
sg57
Vhttps://abs.twimg.com/images/themes/theme3/bg.gif
p382
sg59
I00
sg60
V634047
p383
sg62
g380
sg63
g376
sg64
g377
sg65
I516
sg66
VD3D2CF
p384
sg68
V2344619544
p385
sg70
VEDECE9
p386
sg72
I85
sg73
I01
sg74
I-18000
sg75
I182020
sg45
VNews about Stocks
p387
sg77
I0
sg78
VU.S.
p388
sg80
V088253
p389
sg82
Vhttp://pbs.twimg.com/profile_images/562292381764952064/mVtp0UmJ_normal.jpeg
p390
sg84
I00
sg85
I00
sg86
Vhttp://abs.twimg.com/images/themes/theme3/bg.gif
p391
sg88
VNewsToDesk
p392
sg90
Ven
p393
sg92
I00
sg93
I0
sg94
VBreakingStocksNews
p394
sg96
I00
sg33
Nsg98
VSat Feb 15 05:49:10 +0000 2014
p395
sg100
I00
sg101
VEastern Time (US & Canada)
p396
sg103
I00
sg104
I00
sg105
I00
ssg106
I00
sg107
g383
sg108
I516
sg109
g384
sg110
g385
sg111
I00
sg112
I85
sg113
I01
sg114
I-18000
sg115
I182020
sg116
g387
sg117
I0
sg118
g388
sg119
g389
sg120
g390
sg121
I00
sg122
I00
sg123
g386
sg124
g391
sg125
g392
sg126
g393
sg127
I00
sg128
I00
sg129
I0
sg130
g394
sg131
Nsg132
g133
(S'\x07\xde\x02\x0f\x051\n\x00\x00\x00'
p397
tp398
Rp399
sg137
g382
sg138
g396
sg139
I00
sg140
I00
sg141
I00
sbsg142
Nsg29
L664112336148504576L
sg143
I0
sg144
VStockNewsWires
p400
sg126
Ven
p401
sg147
g374
sg132
g133
(S'\x07\xdf\x0b\n\x10\x08\x0e\x00\x00\x00'
p402
tp403
Rp404
sg50
(dp405
g152
Nsg153
I00
sg154
V$LUV $ISIS $LBTYK:\u000a\u000aCurrent Trade Stocks Recap: Southwest Airlines Co (NYSE:LUV \u2026:\u000a\u000ahttps://t.co/MZOjzIeNDs
p406
sg156
I00
sg157
Nsg56
L664112336148504576L
sg158
I0
sg159
V<a href="http://www.stocknewswires.com" rel="nofollow">StockNewsWires</a>
p407
sg161
I00
sg162
Nsg64
(dp408
g164
(lp409
(dp410
g39
(lp411
I0
aI4
asg154
VLUV
p412
sa(dp413
g39
(lp414
I5
aI10
asg154
VISIS
p415
sa(dp416
g39
(lp417
I11
aI17
asg154
VLBTYK
p418
sasg169
(lp419
sg171
(lp420
sg35
(lp421
(dp422
g33
Vhttps://t.co/MZOjzIeNDs
p423
sg39
(lp424
I84
aI107
asg41
Vhttp://StockNewsHour.com/luv-isis-lbtyk-current-trade-stocks-recap-southwest-airlines-co-nyseluv/
p425
sg43
VStockNewsHour.com/luv-isis-lbtyk\u2026
p426
sassg185
Nsg186
Nsg187
I0
sg68
V664112336148504576
p427
sg189
I00
sg190
g381
sg191
Nsg192
Nsg193
I00
sg90
g401
sg98
VTue Nov 10 16:08:14 +0000 2015
p428
sg195
Nsg196
Nsg197
(dp429
g199
Ven
p430
sg201
Vrecent
p431
sssg203
g429
sg204
Nsg205
Nsg31
g408
sg206
Nsg207
Nsg110
g427
sg208
I00
sg209
Nsg210
I0
sg211
Nsbag0
(g4
g5
Ntp432
Rp433
(dp434
g9
I00
sg10
Nsg11
I00
sg12
VLiberty Global plc, $LBTYK, Target: 43.87 (+0.11%).\u000ahttps://t.co/MhX0DSumHl  #Liberty #Global
p435
sg14
Vhttp://www.eventstrend.com/
p436
sg16
I00
sg17
I00
sg18
Nsg19
g0
(g20
g5
Ntp437
Rp438
(dp439
g24
I00
sg25
I00
sg26
I01
sg27
VDDEEF6
p440
sg29
L3803301083L
sg30
I00
sg31
(dp441
g33
(dp442
g35
(lp443
(dp444
g33
Vhttp://t.co/DzUno6hxyF
p445
sg39
(lp446
I0
aI22
asg41
Vhttp://EventsTrend.com
p447
sg43
VEventsTrend.com
p448
sassg45
(dp449
g35
(lp450
sssg48
Vhttps://pbs.twimg.com/profile_images/648768997580783616/taq5y0RZ_normal.jpg
p451
sg50
(dp452
g52
I00
sg53
I00
sg54
I01
sg55
I00
sg56
L3803301083L
sg57
Vhttps://abs.twimg.com/images/themes/theme1/bg.png
p453
sg59
I00
sg60
V333333
p454
sg62
g451
sg63
g440
sg64
g441
sg65
I440
sg66
VC0DEED
p455
sg68
V3803301083
p456
sg70
VC0DEED
p457
sg72
I33
sg73
I00
sg74
I-39600
sg75
I5136
sg45
VFollow our extreme analytical algorithms and make a profit!
p458
sg77
I901
sg78
VUSA
p459
sg80
V0084B4
p460
sg82
Vhttp://pbs.twimg.com/profile_images/648768997580783616/taq5y0RZ_normal.jpg
p461
sg84
I00
sg85
I00
sg86
Vhttp://abs.twimg.com/images/themes/theme1/bg.png
p462
sg88
Veventstrendcom
p463
sg90
Ven
p464
sg92
I00
sg93
I0
sg94
VEventsTrend_com
p465
sg96
I00
sg33
Vhttp://t.co/DzUno6hxyF
p466
sg98
VMon Sep 28 11:42:34 +0000 2015
p467
sg100
I00
sg101
VInternational Date Line West
p468
sg103
I00
sg104
I01
sg105
I00
ssg106
I00
sg107
g454
sg108
I440
sg109
g455
sg110
g456
sg111
I00
sg112
I33
sg113
I00
sg114
I-39600
sg115
I5136
sg116
g458
sg117
I901
sg118
g459
sg119
g460
sg120
g461
sg121
I00
sg122
I00
sg123
g457
sg124
g462
sg125
g463
sg126
g464
sg127
I00
sg128
I00
sg129
I0
sg130
g465
sg131
g466
sg132
g133
(S'\x07\xdf\t\x1c\x0b*"\x00\x00\x00'
p469
tp470
Rp471
sg137
g453
sg138
g468
sg139
I00
sg140
I01
sg141
I00
sbsg142
Nsg29
L664046186693701633L
sg143
I0
sg144
Veventstrend
p472
sg126
Vsk
p473
sg147
g438
sg132
g133
(S'\x07\xdf\x0b\n\x0b-\x16\x00\x00\x00'
p474
tp475
Rp476
sg50
(dp477
g152
Nsg153
I00
sg154
VLiberty Global plc, $LBTYK, Target: 43.87 (+0.11%).\u000ahttps://t.co/MhX0DSumHl  #Liberty #Global
p478
sg156
I00
sg157
Nsg56
L664046186693701633L
sg158
I0
sg159
V<a href="http://www.eventstrend.com/" rel="nofollow">eventstrend</a>
p479
sg161
I00
sg162
Nsg64
(dp480
g164
(lp481
(dp482
g39
(lp483
I20
aI26
asg154
VLBTYK
p484
sasg169
(lp485
sg171
(lp486
(dp487
g39
(lp488
I77
aI85
asg154
VLiberty
p489
sa(dp490
g39
(lp491
I86
aI93
asg154
VGlobal
p492
sasg35
(lp493
(dp494
g33
Vhttps://t.co/MhX0DSumHl
p495
sg39
(lp496
I52
aI75
asg41
Vhttp://EventsTrend.com/index.php?r=search/view&id=4944
p497
sg43
VEventsTrend.com/index.php?r=se\u2026
p498
sassg185
Nsg186
Nsg187
I0
sg68
V664046186693701633
p499
sg189
I00
sg190
g452
sg191
Nsg192
Nsg193
I00
sg90
g473
sg98
VTue Nov 10 11:45:22 +0000 2015
p500
sg195
Nsg196
Nsg197
(dp501
g199
Vsk
p502
sg201
Vrecent
p503
sssg203
g501
sg204
Nsg205
Nsg31
g480
sg206
Nsg207
Nsg110
g499
sg208
I00
sg209
Nsg210
I0
sg211
Nsbag0
(g4
g5
Ntp504
Rp505
(dp506
g9
I00
sg10
Nsg11
I00
sg12
V$LBTYK is rated BUY, 32.0% upside by Wall Street analysts based on average ratings/targets https://t.co/VuIyTfEWhF https://t.co/ncaRetwqHD
p507
sg14
Vhttp://investwithconf.blogspot.com
p508
sg16
I00
sg17
I00
sg18
Nsg19
g0
(g20
g5
Ntp509
Rp510
(dp511
g24
I00
sg25
I00
sg26
I01
sg27
VF6FFD1
p512
sg29
L2344623210L
sg30
I00
sg31
(dp513
g45
(dp514
g35
(lp515
sssg48
Vhttps://pbs.twimg.com/profile_images/597618707721035778/xao5eh5P_normal.jpg
p516
sg50
(dp517
g52
I00
sg53
I00
sg54
I01
sg55
I00
sg56
L2344623210L
sg57
Vhttps://abs.twimg.com/images/themes/theme19/bg.gif
p518
sg59
I00
sg60
V333333
p519
sg62
g516
sg63
g512
sg64
g513
sg65
I256
sg66
VFFF8AD
p520
sg68
V2344623210
p521
sg70
VFFF04D
p522
sg72
I16
sg73
I00
sg74
I-18000
sg75
I67447
sg45
g297
sg77
I0
sg78
g297
sg80
V0099CC
p523
sg82
Vhttp://pbs.twimg.com/profile_images/597618707721035778/xao5eh5P_normal.jpg
p524
sg84
I00
sg85
I00
sg86
Vhttp://abs.twimg.com/images/themes/theme19/bg.gif
p525
sg88
VInvestWithConf
p526
sg90
Ven
p527
sg92
I00
sg93
I0
sg94
VInvestWithConf
p528
sg96
I00
sg33
Nsg98
VSat Feb 15 05:52:28 +0000 2014
p529
sg100
I00
sg101
VEastern Time (US & Canada)
p530
sg103
I00
sg104
I00
sg105
I00
ssg106
I00
sg107
g519
sg108
I256
sg109
g520
sg110
g521
sg111
I00
sg112
I16
sg113
I00
sg114
I-18000
sg115
I67447
sg116
g297
sg117
I0
sg118
g297
sg119
g523
sg120
g524
sg121
I00
sg122
I00
sg123
g522
sg124
g525
sg125
g526
sg126
g527
sg127
I00
sg128
I00
sg129
I0
sg130
g528
sg131
Nsg132
g133
(S'\x07\xde\x02\x0f\x054\x1c\x00\x00\x00'
p531
tp532
Rp533
sg137
g518
sg138
g530
sg139
I00
sg140
I00
sg141
I00
sbsg142
Nsg29
L663903914232815616L
sg143
I0
sg144
VIWCE
p534
sg126
Ven
p535
sg147
g510
sg132
g133
(S'\x07\xdf\x0b\n\x02\x14\x02\x00\x00\x00'
p536
tp537
Rp538
sg50
(dp539
g152
Nsg153
I00
sg154
g507
sg156
I00
sg157
Nsg56
L663903914232815616L
sg158
I0
sg159
V<a href="http://investwithconf.blogspot.com" rel="nofollow">IWCE</a>
p540
sg161
I00
sg162
Nsg64
(dp541
g164
(lp542
(dp543
g39
(lp544
I0
aI6
asg154
VLBTYK
p545
sasg169
(lp546
sg171
(lp547
sg35
(lp548
(dp549
g33
Vhttps://t.co/VuIyTfEWhF
p550
sg39
(lp551
I91
aI114
asg41
Vhttp://manyratings.com/LBTYK
p552
sg43
Vmanyratings.com/LBTYK
p553
sasVmedia
p554
(lp555
(dp556
g41
Vhttp://twitter.com/InvestWithConf/status/663903914232815616/photo/1
p557
sg43
Vpic.twitter.com/ncaRetwqHD
p558
sg33
Vhttps://t.co/ncaRetwqHD
p559
sVmedia_url_https
p560
Vhttps://pbs.twimg.com/media/CTapF6aW4AEphxP.jpg
p561
sg68
V663903914127974401
p562
sVsizes
p563
(dp564
Vlarge
p565
(dp566
Vh
p567
I4
sVresize
p568
Vfit
p569
sVw
p570
I4
ssVsmall
p571
(dp572
g567
I4
sg568
Vfit
p573
sg570
I4
ssVmedium
p574
(dp575
g567
I4
sg568
Vfit
p576
sg570
I4
ssVthumb
p577
(dp578
g567
I4
sg568
Vcrop
p579
sg570
I4
sssg39
(lp580
I115
aI138
asVtype
p581
Vphoto
p582
sg56
L663903914127974401L
sVmedia_url
p583
Vhttp://pbs.twimg.com/media/CTapF6aW4AEphxP.jpg
p584
sassg185
Nsg186
Nsg187
I0
sg68
V663903914232815616
p585
sg189
I00
sg190
g517
sg191
Nsg192
Nsg193
I00
sg90
g535
sg98
VTue Nov 10 02:20:02 +0000 2015
p586
sg195
Nsg196
Nsg197
(dp587
g199
Ven
p588
sg201
Vrecent
p589
sssg203
g587
sg204
Nsg205
Nsg31
g541
sg206
Nsg207
Nsg110
g585
sg208
I00
sg209
Nsg210
I0
sg211
Nsbag0
(g4
g5
Ntp590
Rp591
(dp592
g9
I00
sg10
Nsg11
I00
sg12
V$OPK $LBTYK:\u000a\u000aActive Movers of Yesterday: Orexigen Therapeutics, Inc. (NASDAQ \u2026:\u000a\u000ahttps://t.co/jaGgfgjqJj
p593
sg14
Vhttp://www.stocknewswires.com
p594
sg16
I00
sg17
I00
sg18
Nsg19
g0
(g20
g5
Ntp595
Rp596
(dp597
g24
I00
sg25
I00
sg26
I01
sg27
VDAECF4
p598
sg29
L2341445778L
sg30
I00
sg31
(dp599
g45
(dp600
g35
(lp601
sssg48
Vhttps://pbs.twimg.com/profile_images/542238326397227008/UfZ0ulTf_normal.jpeg
p602
sg50
(dp603
g52
I00
sg53
I00
sg54
I01
sg55
I00
sg56
L2341445778L
sg57
Vhttps://abs.twimg.com/images/themes/theme2/bg.gif
p604
sg59
I00
sg60
V663B12
p605
sg62
g602
sg63
g598
sg64
g599
sg65
I660
sg66
VC6E2EE
p606
sg68
V2341445778
p607
sg70
VC6E2EE
p608
sg72
I107
sg73
I00
sg74
I-14400
sg75
I236872
sg45
VInvest like a fish
p609
sg77
I9
sg78
VUnited States
p610
sg80
V1F98C7
p611
sg82
Vhttp://pbs.twimg.com/profile_images/542238326397227008/UfZ0ulTf_normal.jpeg
p612
sg84
I00
sg85
I00
sg86
Vhttp://abs.twimg.com/images/themes/theme2/bg.gif
p613
sg88
VStockNewsWires
p614
sg90
Ven
p615
sg92
I00
sg93
I0
sg94
VStockNewsWires
p616
sg96
I00
sg33
Nsg98
VThu Feb 13 05:31:52 +0000 2014
p617
sg100
I00
sg101
VAtlantic Time (Canada)
p618
sg103
I00
sg104
I00
sg105
I00
ssg106
I00
sg107
g605
sg108
I660
sg109
g606
sg110
g607
sg111
I00
sg112
I107
sg113
I00
sg114
I-14400
sg115
I236872
sg116
g609
sg117
I9
sg118
g610
sg119
g611
sg120
g612
sg121
I00
sg122
I00
sg123
g608
sg124
g613
sg125
g614
sg126
g615
sg127
I00
sg128
I00
sg129
I0
sg130
g616
sg131
Nsg132
g133
(S'\x07\xde\x02\r\x05\x1f4\x00\x00\x00'
p619
tp620
Rp621
sg137
g604
sg138
g618
sg139
I00
sg140
I00
sg141
I00
sbsg142
Nsg29
L663727277113520128L
sg143
I0
sg144
VStockNewsWires
p622
sg126
Ven
p623
sg147
g596
sg132
g133
(S'\x07\xdf\x0b\t\x0e&\x08\x00\x00\x00'
p624
tp625
Rp626
sg50
(dp627
g152
Nsg153
I00
sg154
V$OPK $LBTYK:\u000a\u000aActive Movers of Yesterday: Orexigen Therapeutics, Inc. (NASDAQ \u2026:\u000a\u000ahttps://t.co/jaGgfgjqJj
p628
sg156
I00
sg157
Nsg56
L663727277113520128L
sg158
I0
sg159
V<a href="http://www.stocknewswires.com" rel="nofollow">StockNewsWires</a>
p629
sg161
I00
sg162
Nsg64
(dp630
g164
(lp631
(dp632
g39
(lp633
I0
aI4
asg154
VOPK
p634
sa(dp635
g39
(lp636
I5
aI11
asg154
VLBTYK
p637
sasg169
(lp638
sg171
(lp639
sg35
(lp640
(dp641
g33
Vhttps://t.co/jaGgfgjqJj
p642
sg39
(lp643
I82
aI105
asg41
Vhttp://StockNewsHour.com/opk-lbtyk-active-movers-of-yesterday-orexigen-therapeutics-inc-nasdaq/
p644
sg43
VStockNewsHour.com/opk-lbtyk-acti\u2026
p645
sassg185
Nsg186
Nsg187
I0
sg68
V663727277113520128
p646
sg189
I00
sg190
g603
sg191
Nsg192
Nsg193
I00
sg90
g623
sg98
VMon Nov 09 14:38:08 +0000 2015
p647
sg195
Nsg196
Nsg197
(dp648
g199
Ven
p649
sg201
Vrecent
p650
sssg203
g648
sg204
Nsg205
Nsg31
g630
sg206
Nsg207
Nsg110
g646
sg208
I00
sg209
Nsg210
I0
sg211
Nsbag0
(g4
g5
Ntp651
Rp652
(dp653
g9
I00
sg10
Nsg11
I00
sg12
VThe Most Accurate Stock Alert Service Made $240,000 Yesterday https://t.co/8WvnrVmkBS .. $CHFC $LBTYK $SWSH
p654
sg14
Vhttp://socialadcenter.com
p655
sg16
I00
sg17
I00
sg18
Nsg19
g0
(g20
g5
Ntp656
Rp657
(dp658
g24
I00
sg25
I00
sg26
I01
sg27
VDDEEF6
p659
sg29
L2730855593L
sg30
I00
sg31
(dp660
g33
(dp661
g35
(lp662
(dp663
g33
Vhttp://t.co/UWzH8kOOl9
p664
sg39
(lp665
I0
aI22
asg41
Vhttp://PennyStockSecret.com
p666
sg43
VPennyStockSecret.com
p667
sassg45
(dp668
g35
(lp669
(dp670
g33
Vhttp://t.co/UWzH8kOOl9
p671
sg39
(lp672
I11
aI33
asg41
Vhttp://PennyStockSecret.com
p673
sg43
VPennyStockSecret.com
p674
sasssg48
Vhttps://pbs.twimg.com/profile_images/573247485616889856/gHAtYS9O_normal.png
p675
sg50
(dp676
g52
I00
sg53
I00
sg54
I01
sg55
I00
sg56
L2730855593L
sg57
Vhttps://abs.twimg.com/images/themes/theme1/bg.png
p677
sg59
I00
sg60
V333333
p678
sg62
g675
sg63
g659
sg64
g660
sg65
I2515
sg66
VC0DEED
p679
sg68
V2730855593
p680
sg70
VC0DEED
p681
sg72
I25
sg73
I00
sg74
I0
sg75
I53230
sg45
VSign up to http://t.co/UWzH8kOOl9  and get the premiere penny stock newsletter for free! make sure you subscribe today!
p682
sg77
I9
sg78
VUSA
p683
sg80
V0084B4
p684
sg82
Vhttp://pbs.twimg.com/profile_images/573247485616889856/gHAtYS9O_normal.png
p685
sg84
I00
sg85
I00
sVprofile_banner_url
p686
Vhttps://pbs.twimg.com/profile_banners/2730855593/1425507876
p687
sg86
Vhttp://abs.twimg.com/images/themes/theme1/bg.png
p688
sg88
Vstockschamp
p689
sg90
Ven
p690
sg92
I00
sg93
I0
sg94
Vstockschamp
p691
sg96
I00
sg33
Vhttp://t.co/UWzH8kOOl9
p692
sg98
VFri Aug 01 16:39:24 +0000 2014
p693
sg100
I00
sg101
VDublin
p694
sg103
I00
sg104
I01
sg105
I00
ssg106
I00
sg107
g678
sg108
I2515
sg109
g679
sg110
g680
sg111
I00
sg112
I25
sg113
I00
sg114
I0
sg115
I53230
sg116
g682
sg117
I9
sg118
g683
sg119
g684
sg120
g685
sg121
I00
sg122
I00
sg123
g681
sS'profile_banner_url'
p695
g687
sg124
g688
sg125
g689
sg126
g690
sg127
I00
sg128
I00
sg129
I0
sg130
g691
sg131
g692
sg132
g133
(S"\x07\xde\x08\x01\x10'\x18\x00\x00\x00"
p696
tp697
Rp698
sg137
g677
sg138
g694
sg139
I00
sg140
I01
sg141
I00
sbsg142
Nsg29
L663609147460444160L
sg143
I0
sg144
VSocial Ad Center
p699
sg126
Ven
p700
sg147
g657
sg132
g133
(S'\x07\xdf\x0b\t\x060,\x00\x00\x00'
p701
tp702
Rp703
sg50
(dp704
g152
Nsg153
I00
sg154
g654
sg156
I00
sg157
Nsg56
L663609147460444160L
sg158
I0
sg159
V<a href="http://socialadcenter.com" rel="nofollow">Social Ad Center</a>
p705
sg161
I00
sg162
Nsg64
(dp706
g164
(lp707
(dp708
g39
(lp709
I89
aI94
asg154
VCHFC
p710
sa(dp711
g39
(lp712
I95
aI101
asg154
VLBTYK
p713
sa(dp714
g39
(lp715
I102
aI107
asg154
VSWSH
p716
sasg169
(lp717
sg171
(lp718
sg35
(lp719
(dp720
g33
Vhttps://t.co/8WvnrVmkBS
p721
sg39
(lp722
I62
aI85
asg41
Vhttp://PennyStockSecret.com
p723
sg43
VPennyStockSecret.com
p724
sassg185
Nsg186
Nsg187
I0
sg68
V663609147460444160
p725
sg189
I00
sg190
g676
sg191
Nsg192
Nsg193
I00
sg90
g700
sg98
VMon Nov 09 06:48:44 +0000 2015
p726
sg195
Nsg196
Nsg197
(dp727
g199
Ven
p728
sg201
Vrecent
p729
sssg203
g727
sg204
Nsg205
Nsg31
g706
sg206
Nsg207
Nsg110
g725
sg208
I00
sg209
Nsg210
I0
sg211
Nsbag0
(g4
g5
Ntp730
Rp731
(dp732
g9
I00
sg10
Nsg11
I00
sg12
VLiberty Global plc, $LBTYK, Target: 43.94 (-0.59%).\u000ahttps://t.co/MhX0DSumHl  #Liberty #Global
p733
sg14
Vhttp://www.eventstrend.com/
p734
sg16
I00
sg17
I00
sg18
Nsg19
g0
(g20
g5
Ntp735
Rp736
(dp737
g24
I00
sg25
I00
sg26
I01
sg27
VDDEEF6
p738
sg29
L3803301083L
sg30
I00
sg31
(dp739
g33
(dp740
g35
(lp741
(dp742
g33
Vhttp://t.co/DzUno6hxyF
p743
sg39
(lp744
I0
aI22
asg41
Vhttp://EventsTrend.com
p745
sg43
VEventsTrend.com
p746
sassg45
(dp747
g35
(lp748
sssg48
Vhttps://pbs.twimg.com/profile_images/648768997580783616/taq5y0RZ_normal.jpg
p749
sg50
(dp750
g52
I00
sg53
I00
sg54
I01
sg55
I00
sg56
L3803301083L
sg57
Vhttps://abs.twimg.com/images/themes/theme1/bg.png
p751
sg59
I00
sg60
V333333
p752
sg62
g749
sg63
g738
sg64
g739
sg65
I440
sg66
VC0DEED
p753
sg68
V3803301083
p754
sg70
VC0DEED
p755
sg72
I33
sg73
I00
sg74
I-39600
sg75
I5136
sg45
VFollow our extreme analytical algorithms and make a profit!
p756
sg77
I901
sg78
VUSA
p757
sg80
V0084B4
p758
sg82
Vhttp://pbs.twimg.com/profile_images/648768997580783616/taq5y0RZ_normal.jpg
p759
sg84
I00
sg85
I00
sg86
Vhttp://abs.twimg.com/images/themes/theme1/bg.png
p760
sg88
Veventstrendcom
p761
sg90
Ven
p762
sg92
I00
sg93
I0
sg94
VEventsTrend_com
p763
sg96
I00
sg33
Vhttp://t.co/DzUno6hxyF
p764
sg98
VMon Sep 28 11:42:34 +0000 2015
p765
sg100
I00
sg101
VInternational Date Line West
p766
sg103
I00
sg104
I01
sg105
I00
ssg106
I00
sg107
g752
sg108
I440
sg109
g753
sg110
g754
sg111
I00
sg112
I33
sg113
I00
sg114
I-39600
sg115
I5136
sg116
g756
sg117
I901
sg118
g757
sg119
g758
sg120
g759
sg121
I00
sg122
I00
sg123
g755
sg124
g760
sg125
g761
sg126
g762
sg127
I00
sg128
I00
sg129
I0
sg130
g763
sg131
g764
sg132
g133
(S'\x07\xdf\t\x1c\x0b*"\x00\x00\x00'
p767
tp768
Rp769
sg137
g751
sg138
g766
sg139
I00
sg140
I01
sg141
I00
sbsg142
Nsg29
L663355751922987009L
sg143
I0
sg144
Veventstrend
p770
sg126
Vsk
p771
sg147
g736
sg132
g133
(S'\x07\xdf\x0b\x08\x0e\x012\x00\x00\x00'
p772
tp773
Rp774
sg50
(dp775
g152
Nsg153
I00
sg154
VLiberty Global plc, $LBTYK, Target: 43.94 (-0.59%).\u000ahttps://t.co/MhX0DSumHl  #Liberty #Global
p776
sg156
I00
sg157
Nsg56
L663355751922987009L
sg158
I0
sg159
V<a href="http://www.eventstrend.com/" rel="nofollow">eventstrend</a>
p777
sg161
I00
sg162
Nsg64
(dp778
g164
(lp779
(dp780
g39
(lp781
I20
aI26
asg154
VLBTYK
p782
sasg169
(lp783
sg171
(lp784
(dp785
g39
(lp786
I77
aI85
asg154
VLiberty
p787
sa(dp788
g39
(lp789
I86
aI93
asg154
VGlobal
p790
sasg35
(lp791
(dp792
g33
Vhttps://t.co/MhX0DSumHl
p793
sg39
(lp794
I52
aI75
asg41
Vhttp://EventsTrend.com/index.php?r=search/view&id=4944
p795
sg43
VEventsTrend.com/index.php?r=se\u2026
p796
sassg185
Nsg186
Nsg187
I0
sg68
V663355751922987009
p797
sg189
I00
sg190
g750
sg191
Nsg192
Nsg193
I00
sg90
g771
sg98
VSun Nov 08 14:01:50 +0000 2015
p798
sg195
Nsg196
Nsg197
(dp799
g199
Vsk
p800
sg201
Vrecent
p801
sssg203
g799
sg204
Nsg205
Nsg31
g778
sg206
Nsg207
Nsg110
g797
sg208
I00
sg209
Nsg210
I0
sg211
Nsbag0
(g4
g5
Ntp802
Rp803
(dp804
g9
I00
sg10
Nsg11
I00
sg12
V#HedgeFund Clustering Update #alternativeinvestments $AAPL $CHTR $FOLD $SBAC $PCRX $LBTYK $BAX $VRX https://t.co/bCr7jZ7GA3 @BColwell_ALT
p805
sg14
Vhttp://www.hootsuite.com
p806
sg16
I00
sg17
I00
sg18
Nsg19
g0
(g20
g5
Ntp807
Rp808
(dp809
g24
I00
sg25
I00
sg26
I01
sg27
V000000
p810
sg29
L3244415634L
sg30
I00
sg31
(dp811
g33
(dp812
g35
(lp813
(dp814
g33
Vhttp://t.co/rPRZ8RRKpq
p815
sg39
(lp816
I0
aI22
asg41
Vhttp://briandcolwell.blogspot.com/
p817
sg43
Vbriandcolwell.blogspot.com
p818
sassg45
(dp819
g35
(lp820
(dp821
g33
Vhttps://t.co/FUKc1sIJm7
p822
sg39
(lp823
I130
aI153
asg41
Vhttps://www.linkedin.com/in/colwellbrian
p824
sg43
Vlinkedin.com/in/colwellbrian
p825
sasssg48
Vhttps://pbs.twimg.com/profile_images/609796353980416000/84dj22n1_normal.jpg
p826
sg50
(dp827
g52
I00
sg53
I00
sg54
I01
sg55
I00
sg56
L3244415634L
sg57
Vhttps://abs.twimg.com/images/themes/theme15/bg.png
p828
sg59
I00
sg60
V000000
p829
sg62
g826
sg63
g810
sg64
g811
sg65
I366
sg66
V000000
p830
sg68
V3244415634
p831
sg70
VFFF9EE
p832
sg72
I57
sg73
I00
sg74
Nsg75
I2133
sg45
VAlternative Investment Explorer: Also follow @BColwell_EMGMKT, @BColwell_CTA, @BColwell_ECON, @BColwell_ALT to discover more... \u000a\u000ahttps://t.co/FUKc1sIJm7
p833
sg77
I266
sg78
VSan Diego, CA
p834
sg80
VCCB666
p835
sg82
Vhttp://pbs.twimg.com/profile_images/609796353980416000/84dj22n1_normal.jpg
p836
sg84
I00
sg85
I00
sg686
Vhttps://pbs.twimg.com/profile_banners/3244415634/1441562881
p837
sg86
Vhttp://abs.twimg.com/images/themes/theme15/bg.png
p838
sg88
VBrianDColwell
p839
sg90
Ven
p840
sg92
I00
sg93
I50
sg94
VBrian D. Colwell
p841
sg96
I00
sg33
Vhttp://t.co/rPRZ8RRKpq
p842
sg98
VSat Jun 13 18:47:51 +0000 2015
p843
sg100
I00
sg101
Nsg103
I00
sg104
I00
sg105
I00
ssg106
I00
sg107
g829
sg108
I366
sg109
g830
sg110
g831
sg111
I00
sg112
I57
sg113
I00
sg114
Nsg115
I2133
sg116
VAlternative Investment Explorer: Also follow @BColwell_EMGMKT, @BColwell_CTA, @BColwell_ECON, @BColwell_ALT to discover more... \u000a\u000ahttps://t.co/FUKc1sIJm7
p844
sg117
I266
sg118
g834
sg119
g835
sg120
g836
sg121
I00
sg122
I00
sg123
g832
sg695
g837
sg124
g838
sg125
g839
sg126
g840
sg127
I00
sg128
I00
sg129
I50
sg130
g841
sg131
g842
sg132
g133
(S'\x07\xdf\x06\r\x12/3\x00\x00\x00'
p845
tp846
Rp847
sg137
g828
sg138
Nsg139
I00
sg140
I00
sg141
I00
sbsg142
Nsg29
L663155369389260804L
sg143
I1
sg144
VHootsuite
p848
sg126
Vnl
p849
sg147
g808
sg132
g133
(S'\x07\xdf\x0b\x08\x00-#\x00\x00\x00'
p850
tp851
Rp852
sg50
(dp853
g152
Nsg153
I00
sg154
g805
sg156
I00
sg157
Nsg56
L663155369389260804L
sg158
I1
sg159
V<a href="http://www.hootsuite.com" rel="nofollow">Hootsuite</a>
p854
sg161
I00
sg162
Nsg64
(dp855
g164
(lp856
(dp857
g39
(lp858
I53
aI58
asg154
VAAPL
p859
sa(dp860
g39
(lp861
I59
aI64
asg154
VCHTR
p862
sa(dp863
g39
(lp864
I65
aI70
asg154
VFOLD
p865
sa(dp866
g39
(lp867
I71
aI76
asg154
VSBAC
p868
sa(dp869
g39
(lp870
I77
aI82
asg154
VPCRX
p871
sa(dp872
g39
(lp873
I83
aI89
asg154
VLBTYK
p874
sa(dp875
g39
(lp876
I90
aI94
asg154
VBAX
p877
sa(dp878
g39
(lp879
I95
aI99
asg154
VVRX
p880
sasg169
(lp881
(dp882
g56
L3617645112L
sg39
(lp883
I124
aI137
asg68
V3617645112
p884
sg88
VBColwell_ALT
p885
sg94
VBrian D Colwell
p886
sasg171
(lp887
(dp888
g39
(lp889
I0
aI10
asg154
VHedgeFund
p890
sa(dp891
g39
(lp892
I29
aI52
asg154
Valternativeinvestments
p893
sasg35
(lp894
(dp895
g33
Vhttps://t.co/bCr7jZ7GA3
p896
sg39
(lp897
I100
aI123
asg41
Vhttp://ow.ly/UdcPJ
p898
sg43
Vow.ly/UdcPJ
p899
sassg185
Nsg186
Nsg187
I0
sg68
V663155369389260804
p900
sg189
I00
sg190
g827
sg191
Nsg192
Nsg193
I00
sg90
g849
sg98
VSun Nov 08 00:45:35 +0000 2015
p901
sg195
Nsg196
Nsg197
(dp902
g199
Vnl
p903
sg201
Vrecent
p904
sssg203
g902
sg204
Nsg205
Nsg31
g855
sg206
Nsg207
Nsg110
g900
sg208
I00
sg209
Nsg210
I0
sg211
Nsbag0
(g4
g5
Ntp905
Rp906
(dp907
g9
I00
sg10
Nsg11
I00
sg12
VStock Picks Review for 11/3/15 - My Trading Path - $EBAY $LBTYK #markets #stocks #daytrading https://t.co/1m4qSLHnwG
p908
sg14
Vhttp://twitter.com
p909
sg16
I00
sg17
I00
sg18
Nsg19
g0
(g20
g5
Ntp910
Rp911
(dp912
g24
I00
sg25
I01
sg26
I00
sg27
V000000
p913
sg29
L3012637231L
sg30
I00
sg31
(dp914
g33
(dp915
g35
(lp916
(dp917
g33
Vhttp://t.co/kFsvDyKXA9
p918
sg39
(lp919
I0
aI22
asg41
Vhttp://www.mytradingpath.com
p920
sg43
Vmytradingpath.com
p921
sassg45
(dp922
g35
(lp923
sssg48
Vhttps://pbs.twimg.com/profile_images/620732622231044096/ZZUk2vQw_normal.png
p924
sg50
(dp925
g52
I00
sg53
I01
sg54
I00
sg55
I00
sg56
L3012637231L
sg57
Vhttps://abs.twimg.com/images/themes/theme1/bg.png
p926
sg59
I00
sg60
V000000
p927
sg62
g924
sg63
g913
sg64
g914
sg65
I45
sg66
V000000
p928
sg68
V3012637231
p929
sg70
V000000
p930
sg72
I2
sg73
I00
sg74
Nsg75
I179
sg45
VMy name is Igor, I'm an active stock trader on the NYSE and NASDAQ for the last four years. *The alerts are only for educational purposes only*
p931
sg77
I58
sg78
g297
sg80
V4A913C
p932
sg82
Vhttp://pbs.twimg.com/profile_images/620732622231044096/ZZUk2vQw_normal.png
p933
sg84
I00
sg85
I00
sg686
Vhttps://pbs.twimg.com/profile_banners/3012637231/1436829209
p934
sg86
Vhttp://abs.twimg.com/images/themes/theme1/bg.png
p935
sg88
VMyTradingPath
p936
sg90
Ven
p937
sg92
I00
sg93
I11
sg94
VIgarek
p938
sg96
I00
sg33
Vhttp://t.co/kFsvDyKXA9
p939
sg98
VSat Feb 07 17:45:38 +0000 2015
p940
sg100
I00
sg101
Nsg103
I00
sg104
I00
sg105
I00
ssg106
I00
sg107
g927
sg108
I45
sg109
g928
sg110
g929
sg111
I00
sg112
I2
sg113
I00
sg114
Nsg115
I179
sg116
g931
sg117
I58
sg118
g297
sg119
g932
sg120
g933
sg121
I00
sg122
I00
sg123
g930
sg695
g934
sg124
g935
sg125
g936
sg126
g937
sg127
I00
sg128
I00
sg129
I11
sg130
g938
sg131
g939
sg132
g133
(S'\x07\xdf\x02\x07\x11-&\x00\x00\x00'
p941
tp942
Rp943
sg137
g926
sg138
Nsg139
I00
sg140
I00
sg141
I00
sbsg142
Nsg29
L663135276156473344L
sg143
I0
sg144
VTwitter Web Client
p944
sg126
Ven
p945
sg147
g911
sg132
g133
(S'\x07\xdf\x0b\x07\x17\x19,\x00\x00\x00'
p946
tp947
Rp948
sg50
(dp949
g152
Nsg153
I00
sg154
g908
sg156
I00
sg157
Nsg56
L663135276156473344L
sg158
I0
sg159
V<a href="http://twitter.com" rel="nofollow">Twitter Web Client</a>
p950
sg161
I00
sg162
Nsg64
(dp951
g164
(lp952
(dp953
g39
(lp954
I51
aI56
asg154
VEBAY
p955
sa(dp956
g39
(lp957
I57
aI63
asg154
VLBTYK
p958
sasg169
(lp959
sg171
(lp960
(dp961
g39
(lp962
I64
aI72
asg154
Vmarkets
p963
sa(dp964
g39
(lp965
I73
aI80
asg154
Vstocks
p966
sa(dp967
g39
(lp968
I81
aI92
asg154
Vdaytrading
p969
sasg35
(lp970
(dp971
g33
Vhttps://t.co/1m4qSLHnwG
p972
sg39
(lp973
I93
aI116
asg41
Vhttp://mytradingpath.com/2015/11/stock-picks-review-for-11315/
p974
sg43
Vmytradingpath.com/2015/11/stock-\u2026
p975
sassg185
Nsg186
Nsg187
I0
sg68
V663135276156473344
p976
sg189
I00
sg190
g925
sg191
Nsg192
Nsg193
I00
sg90
g945
sg98
VSat Nov 07 23:25:44 +0000 2015
p977
sg195
Nsg196
Nsg197
(dp978
g199
Ven
p979
sg201
Vrecent
p980
sssg203
g978
sg204
Nsg205
Nsg31
g951
sg206
Nsg207
Nsg110
g976
sg208
I00
sg209
Nsg210
I0
sg211
Nsbag0
(g4
g5
Ntp981
Rp982
(dp983
g9
I00
sg10
Nsg11
I00
sg12
VLiberty Global plc, $LBTYK, Target: 43.93 (-0.61%).\u000ahttps://t.co/MhX0DSumHl  #Liberty #Global
p984
sg14
Vhttp://www.eventstrend.com/
p985
sg16
I00
sg17
I00
sg18
Nsg19
g0
(g20
g5
Ntp986
Rp987
(dp988
g24
I00
sg25
I00
sg26
I01
sg27
VDDEEF6
p989
sg29
L3803301083L
sg30
I00
sg31
(dp990
g33
(dp991
g35
(lp992
(dp993
g33
Vhttp://t.co/DzUno6hxyF
p994
sg39
(lp995
I0
aI22
asg41
Vhttp://EventsTrend.com
p996
sg43
VEventsTrend.com
p997
sassg45
(dp998
g35
(lp999
sssg48
Vhttps://pbs.twimg.com/profile_images/648768997580783616/taq5y0RZ_normal.jpg
p1000
sg50
(dp1001
g52
I00
sg53
I00
sg54
I01
sg55
I00
sg56
L3803301083L
sg57
Vhttps://abs.twimg.com/images/themes/theme1/bg.png
p1002
sg59
I00
sg60
V333333
p1003
sg62
g1000
sg63
g989
sg64
g990
sg65
I440
sg66
VC0DEED
p1004
sg68
V3803301083
p1005
sg70
VC0DEED
p1006
sg72
I33
sg73
I00
sg74
I-39600
sg75
I5136
sg45
VFollow our extreme analytical algorithms and make a profit!
p1007
sg77
I901
sg78
VUSA
p1008
sg80
V0084B4
p1009
sg82
Vhttp://pbs.twimg.com/profile_images/648768997580783616/taq5y0RZ_normal.jpg
p1010
sg84
I00
sg85
I00
sg86
Vhttp://abs.twimg.com/images/themes/theme1/bg.png
p1011
sg88
Veventstrendcom
p1012
sg90
Ven
p1013
sg92
I00
sg93
I0
sg94
VEventsTrend_com
p1014
sg96
I00
sg33
Vhttp://t.co/DzUno6hxyF
p1015
sg98
VMon Sep 28 11:42:34 +0000 2015
p1016
sg100
I00
sg101
VInternational Date Line West
p1017
sg103
I00
sg104
I01
sg105
I00
ssg106
I00
sg107
g1003
sg108
I440
sg109
g1004
sg110
g1005
sg111
I00
sg112
I33
sg113
I00
sg114
I-39600
sg115
I5136
sg116
g1007
sg117
I901
sg118
g1008
sg119
g1009
sg120
g1010
sg121
I00
sg122
I00
sg123
g1006
sg124
g1011
sg125
g1012
sg126
g1013
sg127
I00
sg128
I00
sg129
I0
sg130
g1014
sg131
g1015
sg132
g133
(S'\x07\xdf\t\x1c\x0b*"\x00\x00\x00'
p1018
tp1019
Rp1020
sg137
g1002
sg138
g1017
sg139
I00
sg140
I01
sg141
I00
sbsg142
Nsg29
L662990127501672448L
sg143
I0
sg144
Veventstrend
p1021
sg126
Vsk
p1022
sg147
g987
sg132
g133
(S'\x07\xdf\x0b\x07\r0:\x00\x00\x00'
p1023
tp1024
Rp1025
sg50
(dp1026
g152
Nsg153
I00
sg154
VLiberty Global plc, $LBTYK, Target: 43.93 (-0.61%).\u000ahttps://t.co/MhX0DSumHl  #Liberty #Global
p1027
sg156
I00
sg157
Nsg56
L662990127501672448L
sg158
I0
sg159
V<a href="http://www.eventstrend.com/" rel="nofollow">eventstrend</a>
p1028
sg161
I00
sg162
Nsg64
(dp1029
g164
(lp1030
(dp1031
g39
(lp1032
I20
aI26
asg154
VLBTYK
p1033
sasg169
(lp1034
sg171
(lp1035
(dp1036
g39
(lp1037
I77
aI85
asg154
VLiberty
p1038
sa(dp1039
g39
(lp1040
I86
aI93
asg154
VGlobal
p1041
sasg35
(lp1042
(dp1043
g33
Vhttps://t.co/MhX0DSumHl
p1044
sg39
(lp1045
I52
aI75
asg41
Vhttp://EventsTrend.com/index.php?r=search/view&id=4944
p1046
sg43
VEventsTrend.com/index.php?r=se\u2026
p1047
sassg185
Nsg186
Nsg187
I0
sg68
V662990127501672448
p1048
sg189
I00
sg190
g1001
sg191
Nsg192
Nsg193
I00
sg90
g1022
sg98
VSat Nov 07 13:48:58 +0000 2015
p1049
sg195
Nsg196
Nsg197
(dp1050
g199
Vsk
p1051
sg201
Vrecent
p1052
sssg203
g1050
sg204
Nsg205
Nsg31
g1029
sg206
Nsg207
Nsg110
g1048
sg208
I00
sg209
Nsg210
I0
sg211
Nsbag0
(g4
g5
Ntp1053
Rp1054
(dp1055
g9
I00
sg10
Nsg11
I00
sg12
V"it's becoming increasingly clear that we've got OTT on the run in Europe" - Mike Fries, Q3, 2015 call $LBTYA $LBTYK
p1056
sg14
Vhttp://twitter.com
p1057
sg17
I00
sg18
Nsg19
g0
(g20
g5
Ntp1058
Rp1059
(dp1060
g24
I00
sg25
I00
sg26
I01
sg27
VDDEEF6
p1061
sg29
I329173077
sg30
I00
sg31
(dp1062
g33
(dp1063
g35
(lp1064
(dp1065
g33
Vhttp://t.co/SZU1EsXIl8
p1066
sg39
(lp1067
I0
aI22
asg41
Vhttp://gregspeicher.com
p1068
sg43
Vgregspeicher.com
p1069
sassg45
(dp1070
g35
(lp1071
sssg48
Vhttps://pbs.twimg.com/profile_images/1426291100/Speicher__2__normal.jpg
p1072
sg50
(dp1073
g52
I00
sg53
I00
sg54
I01
sg55
I00
sg56
I329173077
sg57
Vhttps://abs.twimg.com/images/themes/theme1/bg.png
p1074
sg59
I00
sg60
V333333
p1075
sg62
g1072
sg63
g1061
sg64
g1062
sg65
I2979
sg66
VC0DEED
p1076
sg68
V329173077
p1077
sg70
VC0DEED
p1078
sg72
I127
sg73
I00
sg74
I-18000
sg75
I5124
sg45
VValue investor. Looking for great businesses at a fair price. Seeking to profit from cloning, cannibals, corporate change, exceptional managers & dislocations.
p1079
sg77
I305
sg78
VColumbus, Ohio
p1080
sg80
V0084B4
p1081
sg82
Vhttp://pbs.twimg.com/profile_images/1426291100/Speicher__2__normal.jpg
p1082
sg84
I00
sg85
I00
sg686
Vhttps://pbs.twimg.com/profile_banners/329173077/1425389333
p1083
sg86
Vhttp://abs.twimg.com/images/themes/theme1/bg.png
p1084
sg88
VGreg_Speicher
p1085
sg90
Ven
p1086
sg92
I00
sg93
I7
sg94
VGreg Speicher
p1087
sg96
I00
sg33
Vhttp://t.co/SZU1EsXIl8
p1088
sg98
VMon Jul 04 17:09:21 +0000 2011
p1089
sg100
I00
sg101
VEastern Time (US & Canada)
p1090
sg103
I00
sg104
I01
sg105
I00
ssg106
I00
sg107
g1075
sg108
I2979
sg109
g1076
sg110
g1077
sg111
I00
sg112
I127
sg113
I00
sg114
I-18000
sg115
I5124
sg116
g1079
sg117
I305
sg118
g1080
sg119
g1081
sg120
g1082
sg121
I00
sg122
I00
sg123
g1078
sg695
g1083
sg124
g1084
sg125
g1085
sg126
g1086
sg127
I00
sg128
I00
sg129
I7
sg130
g1087
sg131
g1088
sg132
g133
(S'\x07\xdb\x07\x04\x11\t\x15\x00\x00\x00'
p1091
tp1092
Rp1093
sg137
g1074
sg138
g1090
sg139
I00
sg140
I01
sg141
I00
sbsg142
Nsg29
L662705550862491648L
sg143
I0
sg144
VTwitter Web Client
p1094
sg126
Ven
p1095
sg147
g1059
sg132
g133
(S'\x07\xdf\x0b\x06\x12:\n\x00\x00\x00'
p1096
tp1097
Rp1098
sg50
(dp1099
g152
Nsg153
I00
sg154
g1056
sg156
I00
sg157
Nsg56
L662705550862491648L
sg158
I0
sg159
V<a href="http://twitter.com" rel="nofollow">Twitter Web Client</a>
p1100
sg161
I00
sg162
Nsg64
(dp1101
g164
(lp1102
(dp1103
g39
(lp1104
I103
aI109
asg154
VLBTYA
p1105
sa(dp1106
g39
(lp1107
I110
aI116
asg154
VLBTYK
p1108
sasg169
(lp1109
sg171
(lp1110
sg35
(lp1111
ssg185
Nsg186
Nsg187
I0
sg68
V662705550862491648
p1112
sg189
I00
sg190
g1073
sg191
Nsg192
Nsg90
g1095
sg98
VFri Nov 06 18:58:10 +0000 2015
p1113
sg195
Nsg196
Nsg197
(dp1114
g199
Ven
p1115
sg201
Vrecent
p1116
sssg203
g1114
sg204
Nsg205
Nsg31
g1101
sg206
Nsg207
Nsg110
g1112
sg208
I00
sg209
Nsg210
I0
sg211
Nsbag0
(g4
g5
Ntp1117
Rp1118
(dp1119
g9
I00
sg10
Nsg11
I00
sg12
VRT @SA_Mergers: EU regulators extend probe into Liberty Global-KPN Belgian deal https://t.co/NRcSNJKyqA $LBTYA $KKPNY $LBTYB $LBTYK
p1120
sg14
Vhttp://twitter.com
p1121
sg16
I00
sg17
I00
sg18
Nsg19
g0
(g20
g5
Ntp1122
Rp1123
(dp1124
g24
I00
sg25
I00
sg26
I01
sg27
VDDEEF6
p1125
sg29
L3398300962L
sg30
I00
sg31
(dp1126
g45
(dp1127
g35
(lp1128
sssg48
Vhttps://abs.twimg.com/sticky/default_profile_images/default_profile_0_normal.png
p1129
sg50
(dp1130
g52
I00
sg53
I00
sg54
I01
sg55
I01
sg56
L3398300962L
sg57
Vhttps://abs.twimg.com/images/themes/theme1/bg.png
p1131
sg59
I00
sg60
V333333
p1132
sg62
g1129
sg63
g1125
sg64
g1126
sg65
I223
sg66
VC0DEED
p1133
sg68
V3398300962
p1134
sg70
VC0DEED
p1135
sg72
I245
sg73
I00
sg74
I0
sg75
I27036
sg45
VDCM, ECM, M&A, Private Equity & Venture Capital, Politics, Economy. RTs & Favs \u2260 Endorsements
p1136
sg77
I99
sg78
g297
sg80
V0084B4
p1137
sg82
Vhttp://abs.twimg.com/sticky/default_profile_images/default_profile_0_normal.png
p1138
sg84
I00
sg85
I00
sg86
Vhttp://abs.twimg.com/images/themes/theme1/bg.png
p1139
sg88
VNeO_Intel
p1140
sg90
Ven-gb
p1141
sg92
I00
sg93
I2068
sg94
VNeO Intelligence
p1142
sg96
I00
sg33
Nsg98
VSat Aug 01 04:57:44 +0000 2015
p1143
sg100
I00
sg101
VLondon
p1144
sg103
I00
sg104
I01
sg105
I00
ssg106
I00
sg107
g1132
sg108
I223
sg109
g1133
sg110
g1134
sg111
I01
sg112
I245
sg113
I00
sg114
I0
sg115
I27036
sg116
g1136
sg117
I99
sg118
g297
sg119
g1137
sg120
g1138
sg121
I00
sg122
I00
sg123
g1135
sg124
g1139
sg125
g1140
sg126
g1141
sg127
I00
sg128
I00
sg129
I2068
sg130
g1142
sg131
Nsg132
g133
(S'\x07\xdf\x08\x01\x049,\x00\x00\x00'
p1145
tp1146
Rp1147
sg137
g1131
sg138
g1144
sg139
I00
sg140
I01
sg141
I00
sbsg142
Nsg29
L662690504295981056L
sg143
I0
sg144
VTwitter Web Client
p1148
sg126
Vin
p1149
sS'retweeted_status'
p1150
g0
(g4
g5
Ntp1151
Rp1152
(dp1153
g9
I00
sg10
Nsg11
I00
sg12
VEU regulators extend probe into Liberty Global-KPN Belgian deal https://t.co/NRcSNJKyqA $LBTYA $KKPNY $LBTYB $LBTYK
p1154
sg14
Vhttp://seekingalpha.com
p1155
sg16
I00
sg17
I00
sg18
Nsg19
g0
(g20
g5
Ntp1156
Rp1157
(dp1158
g24
I00
sg25
I00
sg26
I01
sg27
VDDEEF6
p1159
sg29
L2999671493L
sg30
I00
sg31
(dp1160
g33
(dp1161
g35
(lp1162
(dp1163
g33
Vhttp://t.co/ckysaxAx2T
p1164
sg39
(lp1165
I0
aI22
asg41
Vhttp://seekingalpha.com/news/m-a
p1166
sg43
Vseekingalpha.com/news/m-a
p1167
sassg45
(dp1168
g35
(lp1169
(dp1170
g33
Vhttps://t.co/nzLmsIKexy
p1171
sg39
(lp1172
I96
aI119
asg41
Vhttps://twitter.com/SeekingAlpha/following
p1173
sg43
Vtwitter.com/SeekingAlpha/f\u2026
p1174
sasssg48
Vhttps://pbs.twimg.com/profile_images/559713580241547266/MelhbqMJ_normal.png
p1175
sg50
(dp1176
g52
I00
sg53
I00
sg54
I01
sg55
I00
sg56
L2999671493L
sg57
Vhttps://abs.twimg.com/images/themes/theme1/bg.png
p1177
sg59
I00
sg60
V333333
p1178
sg62
g1175
sg63
g1159
sg64
g1160
sg65
I1210
sg66
VC0DEED
p1179
sg68
V2999671493
p1180
sg70
VC0DEED
p1181
sg72
I44
sg73
I00
sg74
Nsg75
I2595
sg45
VSeeking Alpha's Breaking News and contributor articles about M&A. For all SA Twitter feeds, see https://t.co/nzLmsIKexy
p1182
sg77
I32
sg78
g297
sg80
V360000
p1183
sg82
Vhttp://pbs.twimg.com/profile_images/559713580241547266/MelhbqMJ_normal.png
p1184
sg84
I00
sg85
I00
sg86
Vhttp://abs.twimg.com/images/themes/theme1/bg.png
p1185
sg88
VSA_Mergers
p1186
sg90
Ven
p1187
sg92
I00
sg93
I0
sg94
VM&A News
p1188
sg96
I00
sg33
Vhttp://t.co/ckysaxAx2T
p1189
sg98
VMon Jan 26 14:03:50 +0000 2015
p1190
sg100
I00
sg101
Nsg103
I00
sg104
I00
sg105
I00
ssg106
I00
sg107
g1178
sg108
I1210
sg109
g1179
sg110
g1180
sg111
I00
sg112
I44
sg113
I00
sg114
Nsg115
I2595
sg116
g1182
sg117
I32
sg118
g297
sg119
g1183
sg120
g1184
sg121
I00
sg122
I00
sg123
g1181
sg124
g1185
sg125
g1186
sg126
g1187
sg127
I00
sg128
I00
sg129
I0
sg130
g1188
sg131
g1189
sg132
g133
(S'\x07\xdf\x01\x1a\x0e\x032\x00\x00\x00'
p1191
tp1192
Rp1193
sg137
g1177
sg138
Nsg139
I00
sg140
I00
sg141
I00
sbsg142
Nsg29
L661574138797035521L
sg143
I0
sg144
VSeeking Alpha
p1194
sg126
Vin
p1195
sg147
g1157
sg132
g133
(S'\x07\xdf\x0b\x03\x10\x02\x14\x00\x00\x00'
p1196
tp1197
Rp1198
sg50
(dp1199
g152
Nsg153
I00
sg154
g1154
sg156
I00
sg157
Nsg56
L661574138797035521L
sg158
I0
sg159
V<a href="http://seekingalpha.com" rel="nofollow">Seeking Alpha</a>
p1200
sg161
I00
sg162
Nsg64
(dp1201
g164
(lp1202
(dp1203
g39
(lp1204
I88
aI94
asg154
VLBTYA
p1205
sa(dp1206
g39
(lp1207
I95
aI101
asg154
VKKPNY
p1208
sa(dp1209
g39
(lp1210
I102
aI108
asg154
VLBTYB
p1211
sa(dp1212
g39
(lp1213
I109
aI115
asg154
VLBTYK
p1214
sasg169
(lp1215
sg171
(lp1216
sg35
(lp1217
(dp1218
g33
Vhttps://t.co/NRcSNJKyqA
p1219
sg39
(lp1220
I64
aI87
asg41
Vhttp://seekingalpha.com/news/2888306-eu-regulators-extend-probe-into-liberty-global-kpn-belgian-deal?source=twitter_sa_mergers
p1221
sg43
Vseekingalpha.com/news/2888306-e\u2026
p1222
sassg185
Nsg186
Nsg187
I2
sg68
V661574138797035521
p1223
sg189
I00
sg190
g1176
sg191
Nsg192
Nsg193
I00
sg90
g1195
sg98
VTue Nov 03 16:02:20 +0000 2015
p1224
sg195
Nsg196
Nsg197
(dp1225
g199
Vin
p1226
sg201
Vrecent
p1227
sssg203
g1225
sg204
Nsg205
Nsg31
g1201
sg206
Nsg207
Nsg110
g1223
sg208
I00
sg209
Nsg210
I2
sg211
Nsbsg147
g1123
sg132
g133
(S'\x07\xdf\x0b\x06\x11:\x17\x00\x00\x00'
p1228
tp1229
Rp1230
sg50
(dp1231
g152
Nsg153
I00
sg154
g1120
sg156
I00
sg157
Nsg56
L662690504295981056L
sg158
I0
sg159
V<a href="http://twitter.com" rel="nofollow">Twitter Web Client</a>
p1232
sg161
I00
sg162
Nsg64
(dp1233
g164
(lp1234
(dp1235
g39
(lp1236
I104
aI110
asg154
VLBTYA
p1237
sa(dp1238
g39
(lp1239
I111
aI117
asg154
VKKPNY
p1240
sa(dp1241
g39
(lp1242
I118
aI124
asg154
VLBTYB
p1243
sa(dp1244
g39
(lp1245
I125
aI131
asg154
VLBTYK
p1246
sasg169
(lp1247
(dp1248
g56
L2999671493L
sg39
(lp1249
I3
aI14
asg68
V2999671493
p1250
sg88
VSA_Mergers
p1251
sg94
VM&A News
p1252
sasg171
(lp1253
sg35
(lp1254
(dp1255
g33
Vhttps://t.co/NRcSNJKyqA
p1256
sg39
(lp1257
I80
aI103
asg41
Vhttp://seekingalpha.com/news/2888306-eu-regulators-extend-probe-into-liberty-global-kpn-belgian-deal?source=twitter_sa_mergers
p1258
sg43
Vseekingalpha.com/news/2888306-e\u2026
p1259
sassg185
Nsg186
Nsg187
I2
sg68
V662690504295981056
p1260
sg189
I00
sVretweeted_status
p1261
g1199
sg190
g1130
sg191
Nsg192
Nsg193
I00
sg90
g1149
sg98
VFri Nov 06 17:58:23 +0000 2015
p1262
sg195
Nsg196
Nsg197
(dp1263
g199
Vin
p1264
sg201
Vrecent
p1265
sssg203
g1263
sg204
Nsg205
Nsg31
g1233
sg206
Nsg207
Nsg110
g1260
sg208
I00
sg209
Nsg210
I2
sg211
Nsbag0
(g4
g5
Ntp1266
Rp1267
(dp1268
g9
I00
sg10
Nsg11
I00
sg12
VMike Fries claims that Reed Hastings has good reason to be scared about TV everywhere. $LBTYA $LBTYK
p1269
sg14
Vhttp://twitter.com
p1270
sg17
I00
sg18
Nsg19
g0
(g20
g5
Ntp1271
Rp1272
(dp1273
g24
I00
sg25
I00
sg26
I01
sg27
VDDEEF6
p1274
sg29
I997356415
sg30
I00
sg31
(dp1275
g45
(dp1276
g35
(lp1277
sssg48
Vhttps://pbs.twimg.com/profile_images/660211257568395264/xhUAQ44s_normal.jpg
p1278
sg50
(dp1279
g52
I00
sg53
I00
sg54
I01
sg55
I00
sg56
I997356415
sg57
Vhttps://abs.twimg.com/images/themes/theme1/bg.png
p1280
sg59
I00
sg60
V333333
p1281
sg62
g1278
sg63
g1274
sg64
g1275
sg65
I162
sg66
VC0DEED
p1282
sg68
V997356415
p1283
sg70
VC0DEED
p1284
sg72
I11
sg73
I00
sg74
I3600
sg75
I1056
sg45
VFinance Student / Investor / Gaming and Esport Enthusiast / Recreational Poker Player
p1285
sg77
I240
sg78
VZurich / Zug
p1286
sg80
V0084B4
p1287
sg82
Vhttp://pbs.twimg.com/profile_images/660211257568395264/xhUAQ44s_normal.jpg
p1288
sg84
I00
sg85
I00
sg686
Vhttps://pbs.twimg.com/profile_banners/997356415/1391976335
p1289
sg86
Vhttp://abs.twimg.com/images/themes/theme1/bg.png
p1290
sg88
Vwbr10
p1291
sg90
Vde
p1292
sg92
I00
sg93
I1371
sg94
VWbr
p1293
sg96
I00
sg33
Nsg98
VSat Dec 08 15:10:59 +0000 2012
p1294
sg100
I00
sg101
VBern
p1295
sg103
I00
sg104
I01
sg105
I00
ssg106
I00
sg107
g1281
sg108
I162
sg109
g1282
sg110
g1283
sg111
I00
sg112
I11
sg113
I00
sg114
I3600
sg115
I1056
sg116
g1285
sg117
I240
sg118
g1286
sg119
g1287
sg120
g1288
sg121
I00
sg122
I00
sg123
g1284
sg695
g1289
sg124
g1290
sg125
g1291
sg126
g1292
sg127
I00
sg128
I00
sg129
I1371
sg130
g1293
sg131
Nsg132
g133
(S'\x07\xdc\x0c\x08\x0f\n;\x00\x00\x00'
p1296
tp1297
Rp1298
sg137
g1280
sg138
g1295
sg139
I00
sg140
I01
sg141
I00
sbsg142
Nsg29
L662639215679840256L
sg143
I1
sg144
VTwitter Web Client
p1299
sg126
Ven
p1300
sg147
g1272
sg132
g133
(S'\x07\xdf\x0b\x06\x0e""\x00\x00\x00'
p1301
tp1302
Rp1303
sg50
(dp1304
g152
Nsg153
I00
sg154
g1269
sg156
I00
sg157
Nsg56
L662639215679840256L
sg158
I1
sg159
V<a href="http://twitter.com" rel="nofollow">Twitter Web Client</a>
p1305
sg161
I00
sg162
Nsg64
(dp1306
g164
(lp1307
(dp1308
g39
(lp1309
I87
aI93
asg154
VLBTYA
p1310
sa(dp1311
g39
(lp1312
I94
aI100
asg154
VLBTYK
p1313
sasg169
(lp1314
sg171
(lp1315
sg35
(lp1316
ssg185
Nsg186
Nsg187
I0
sg68
V662639215679840256
p1317
sg189
I00
sg190
g1279
sg191
Nsg192
Nsg90
g1300
sg98
VFri Nov 06 14:34:34 +0000 2015
p1318
sg195
Nsg196
Nsg197
(dp1319
g199
Ven
p1320
sg201
Vrecent
p1321
sssg203
g1319
sg204
Nsg205
Nsg31
g1306
sg206
Nsg207
Nsg110
g1317
sg208
I00
sg209
Nsg210
I0
sg211
Nsbag0
(g4
g5
Ntp1322
Rp1323
(dp1324
g9
I00
sg10
Nsg11
I00
sg12
VLiberty Global plc, $LBTYK, Target: 43.90 (-0.27%).\u000ahttps://t.co/MhX0DSumHl  #Liberty #Global
p1325
sg14
Vhttp://www.eventstrend.com/
p1326
sg16
I00
sg17
I00
sg18
Nsg19
g0
(g20
g5
Ntp1327
Rp1328
(dp1329
g24
I00
sg25
I00
sg26
I01
sg27
VDDEEF6
p1330
sg29
L3803301083L
sg30
I00
sg31
(dp1331
g33
(dp1332
g35
(lp1333
(dp1334
g33
Vhttp://t.co/DzUno6hxyF
p1335
sg39
(lp1336
I0
aI22
asg41
Vhttp://EventsTrend.com
p1337
sg43
VEventsTrend.com
p1338
sassg45
(dp1339
g35
(lp1340
sssg48
Vhttps://pbs.twimg.com/profile_images/648768997580783616/taq5y0RZ_normal.jpg
p1341
sg50
(dp1342
g52
I00
sg53
I00
sg54
I01
sg55
I00
sg56
L3803301083L
sg57
Vhttps://abs.twimg.com/images/themes/theme1/bg.png
p1343
sg59
I00
sg60
V333333
p1344
sg62
g1341
sg63
g1330
sg64
g1331
sg65
I440
sg66
VC0DEED
p1345
sg68
V3803301083
p1346
sg70
VC0DEED
p1347
sg72
I33
sg73
I00
sg74
I-39600
sg75
I5136
sg45
VFollow our extreme analytical algorithms and make a profit!
p1348
sg77
I901
sg78
VUSA
p1349
sg80
V0084B4
p1350
sg82
Vhttp://pbs.twimg.com/profile_images/648768997580783616/taq5y0RZ_normal.jpg
p1351
sg84
I00
sg85
I00
sg86
Vhttp://abs.twimg.com/images/themes/theme1/bg.png
p1352
sg88
Veventstrendcom
p1353
sg90
Ven
p1354
sg92
I00
sg93
I0
sg94
VEventsTrend_com
p1355
sg96
I00
sg33
Vhttp://t.co/DzUno6hxyF
p1356
sg98
VMon Sep 28 11:42:34 +0000 2015
p1357
sg100
I00
sg101
VInternational Date Line West
p1358
sg103
I00
sg104
I01
sg105
I00
ssg106
I00
sg107
g1344
sg108
I440
sg109
g1345
sg110
g1346
sg111
I00
sg112
I33
sg113
I00
sg114
I-39600
sg115
I5136
sg116
g1348
sg117
I901
sg118
g1349
sg119
g1350
sg120
g1351
sg121
I00
sg122
I00
sg123
g1347
sg124
g1352
sg125
g1353
sg126
g1354
sg127
I00
sg128
I00
sg129
I0
sg130
g1355
sg131
g1356
sg132
g133
(S'\x07\xdf\t\x1c\x0b*"\x00\x00\x00'
p1359
tp1360
Rp1361
sg137
g1343
sg138
g1358
sg139
I00
sg140
I01
sg141
I00
sbsg142
Nsg29
L662638275207671808L
sg143
I0
sg144
Veventstrend
p1362
sg126
Vsk
p1363
sg147
g1328
sg132
g133
(S'\x07\xdf\x0b\x06\x0e\x1e2\x00\x00\x00'
p1364
tp1365
Rp1366
sg50
(dp1367
g152
Nsg153
I00
sg154
VLiberty Global plc, $LBTYK, Target: 43.90 (-0.27%).\u000ahttps://t.co/MhX0DSumHl  #Liberty #Global
p1368
sg156
I00
sg157
Nsg56
L662638275207671808L
sg158
I0
sg159
V<a href="http://www.eventstrend.com/" rel="nofollow">eventstrend</a>
p1369
sg161
I00
sg162
Nsg64
(dp1370
g164
(lp1371
(dp1372
g39
(lp1373
I20
aI26
asg154
VLBTYK
p1374
sasg169
(lp1375
sg171
(lp1376
(dp1377
g39
(lp1378
I77
aI85
asg154
VLiberty
p1379
sa(dp1380
g39
(lp1381
I86
aI93
asg154
VGlobal
p1382
sasg35
(lp1383
(dp1384
g33
Vhttps://t.co/MhX0DSumHl
p1385
sg39
(lp1386
I52
aI75
asg41
Vhttp://EventsTrend.com/index.php?r=search/view&id=4944
p1387
sg43
VEventsTrend.com/index.php?r=se\u2026
p1388
sassg185
Nsg186
Nsg187
I0
sg68
V662638275207671808
p1389
sg189
I00
sg190
g1342
sg191
Nsg192
Nsg193
I00
sg90
g1363
sg98
VFri Nov 06 14:30:50 +0000 2015
p1390
sg195
Nsg196
Nsg197
(dp1391
g199
Vsk
p1392
sg201
Vrecent
p1393
sssg203
g1391
sg204
Nsg205
Nsg31
g1370
sg206
Nsg207
Nsg110
g1389
sg208
I00
sg209
Nsg210
I0
sg211
Nsbag0
(g4
g5
Ntp1394
Rp1395
(dp1396
g9
I00
sg10
Nsg11
I00
sg12
V$LBTYK Earnings result is out. Check out next day hist price reaction, EPS &amp; Revenue Surprise. https://t.co/GPuwoQsCC6
p1397
sg14
Vhttp://www.hootsuite.com
p1398
sg16
I00
sg17
I00
sg18
Nsg19
g0
(g20
g5
Ntp1399
Rp1400
(dp1401
g24
I00
sg25
I00
sg26
I01
sg27
VDDEEF6
p1402
sg29
L2683803193L
sg30
I00
sg31
(dp1403
g33
(dp1404
g35
(lp1405
(dp1406
g33
Vhttp://t.co/TkVoSXCWAo
p1407
sg39
(lp1408
I0
aI22
asg41
Vhttp://StocksEarning.com
p1409
sg43
VStocksEarning.com
p1410
sassg45
(dp1411
g35
(lp1412
sssg48
Vhttps://pbs.twimg.com/profile_images/493963538138804226/wKa0JIgx_normal.jpeg
p1413
sg50
(dp1414
g52
I00
sg53
I00
sg54
I01
sg55
I00
sg56
L2683803193L
sg57
Vhttps://abs.twimg.com/images/themes/theme1/bg.png
p1415
sg59
I00
sg60
V333333
p1416
sg62
g1413
sg63
g1402
sg64
g1403
sg65
I406
sg66
VC0DEED
p1417
sg68
V2683803193
p1418
sg70
VC0DEED
p1419
sg72
I29
sg73
I00
sg74
Nsg75
I38513
sg45
VFinancial services website dedicated to provide the research on Stocks Earnings by using our proprietary indicators. Do your own research. Tweets not advice.
p1420
sg77
I100
sg78
VNew York, NY
p1421
sg80
V0084B4
p1422
sg82
Vhttp://pbs.twimg.com/profile_images/493963538138804226/wKa0JIgx_normal.jpeg
p1423
sg84
I00
sg85
I00
sg86
Vhttp://abs.twimg.com/images/themes/theme1/bg.png
p1424
sg88
VStocksEarnings
p1425
sg90
Ven
p1426
sg92
I00
sg93
I6
sg94
VStockEarnings.com
p1427
sg96
I00
sg33
Vhttp://t.co/TkVoSXCWAo
p1428
sg98
VSun Jul 27 01:23:04 +0000 2014
p1429
sg100
I00
sg101
Nsg103
I00
sg104
I01
sg105
I00
ssg106
I00
sg107
g1416
sg108
I406
sg109
g1417
sg110
g1418
sg111
I00
sg112
I29
sg113
I00
sg114
Nsg115
I38513
sg116
g1420
sg117
I100
sg118
g1421
sg119
g1422
sg120
g1423
sg121
I00
sg122
I00
sg123
g1419
sg124
g1424
sg125
g1425
sg126
g1426
sg127
I00
sg128
I00
sg129
I6
sg130
g1427
sg131
g1428
sg132
g133
(S'\x07\xde\x07\x1b\x01\x17\x04\x00\x00\x00'
p1430
tp1431
Rp1432
sg137
g1415
sg138
Nsg139
I00
sg140
I01
sg141
I00
sbsg142
Nsg29
L662545035104296960L
sg143
I0
sg144
VHootsuite
p1433
sg126
Ven
p1434
sg147
g1400
sg132
g133
(S'\x07\xdf\x0b\x06\x08\x14\x14\x00\x00\x00'
p1435
tp1436
Rp1437
sg50
(dp1438
g152
Nsg153
I00
sg154
g1397
sg156
I00
sg157
Nsg56
L662545035104296960L
sg158
I0
sg159
V<a href="http://www.hootsuite.com" rel="nofollow">Hootsuite</a>
p1439
sg161
I00
sg162
Nsg64
(dp1440
g164
(lp1441
(dp1442
g39
(lp1443
I0
aI6
asg154
VLBTYK
p1444
sasg169
(lp1445
sg171
(lp1446
sg35
(lp1447
(dp1448
g33
Vhttps://t.co/GPuwoQsCC6
p1449
sg39
(lp1450
I99
aI122
asg41
Vhttp://ow.ly/UiXfZ
p1451
sg43
Vow.ly/UiXfZ
p1452
sassg185
Nsg186
Nsg187
I0
sg68
V662545035104296960
p1453
sg189
I00
sg190
g1414
sg191
Nsg192
Nsg193
I00
sg90
g1434
sg98
VFri Nov 06 08:20:20 +0000 2015
p1454
sg195
Nsg196
Nsg197
(dp1455
g199
Ven
p1456
sg201
Vrecent
p1457
sssg203
g1455
sg204
Nsg205
Nsg31
g1440
sg206
Nsg207
Nsg110
g1453
sg208
I00
sg209
Nsg210
I0
sg211
Nsbag0
(g4
g5
Ntp1458
Rp1459
(dp1460
g9
I00
sg10
Nsg11
I00
sg12
VLiberty Global beats with surprising revenue growth from new customers https://t.co/0NzOtW6P4b $LBTYA $LBTYB $LBTYK $LILAB
p1461
sg14
Vhttp://seekingalpha.com
p1462
sg16
I00
sg17
I00
sg18
Nsg19
g0
(g20
g5
Ntp1463
Rp1464
(dp1465
g24
I00
sg25
I00
sg26
I01
sg27
VDDEEF6
p1466
sg29
I207441033
sg30
I00
sg31
(dp1467
g45
(dp1468
g35
(lp1469
sssg48
Vhttps://pbs.twimg.com/profile_images/628450795533414401/xwE4BfP__normal.jpg
p1470
sg50
(dp1471
g52
I00
sg53
I00
sg54
I01
sg55
I00
sg56
I207441033
sg57
Vhttps://abs.twimg.com/images/themes/theme1/bg.png
p1472
sg59
I00
sg60
V333333
p1473
sg62
g1470
sg63
g1466
sg64
g1467
sg65
I135
sg66
VC0DEED
p1474
sg68
V207441033
p1475
sg70
VC0DEED
p1476
sg72
I30
sg73
I01
sg74
I7200
sg75
I30086
sg45
g297
sg77
I1
sg78
g297
sg80
V0084B4
p1477
sg82
Vhttp://pbs.twimg.com/profile_images/628450795533414401/xwE4BfP__normal.jpg
p1478
sg84
I00
sg85
I00
sg686
Vhttps://pbs.twimg.com/profile_banners/207441033/1438669732
p1479
sg86
Vhttp://abs.twimg.com/images/themes/theme1/bg.png
p1480
sg88
VSA_FACTSET
p1481
sg90
Ven
p1482
sg92
I00
sg93
I0
sg94
VSeeking Alpha
p1483
sg96
I00
sg33
Nsg98
VMon Oct 25 10:13:55 +0000 2010
p1484
sg100
I00
sg101
VBucharest
p1485
sg103
I00
sg104
I01
sg105
I00
ssg106
I00
sg107
g1473
sg108
I135
sg109
g1474
sg110
g1475
sg111
I00
sg112
I30
sg113
I01
sg114
I7200
sg115
I30086
sg116
g297
sg117
I1
sg118
g297
sg119
g1477
sg120
g1478
sg121
I00
sg122
I00
sg123
g1476
sg695
g1479
sg124
g1480
sg125
g1481
sg126
g1482
sg127
I00
sg128
I00
sg129
I0
sg130
g1483
sg131
Nsg132
g133
(S'\x07\xda\n\x19\n\r7\x00\x00\x00'
p1486
tp1487
Rp1488
sg137
g1472
sg138
g1485
sg139
I00
sg140
I01
sg141
I00
sbsg142
Nsg29
L662447595231440897L
sg143
I0
sg144
VSeeking Alpha
p1489
sg126
Ven
p1490
sg147
g1464
sg132
g133
(S'\x07\xdf\x0b\x06\x015\t\x00\x00\x00'
p1491
tp1492
Rp1493
sg50
(dp1494
g152
Nsg153
I00
sg154
g1461
sg156
I00
sg157
Nsg56
L662447595231440897L
sg158
I0
sg159
V<a href="http://seekingalpha.com" rel="nofollow">Seeking Alpha</a>
p1495
sg161
I00
sg162
Nsg64
(dp1496
g164
(lp1497
(dp1498
g39
(lp1499
I95
aI101
asg154
VLBTYA
p1500
sa(dp1501
g39
(lp1502
I102
aI108
asg154
VLBTYB
p1503
sa(dp1504
g39
(lp1505
I109
aI115
asg154
VLBTYK
p1506
sa(dp1507
g39
(lp1508
I116
aI122
asg154
VLILAB
p1509
sasg169
(lp1510
sg171
(lp1511
sg35
(lp1512
(dp1513
g33
Vhttps://t.co/0NzOtW6P4b
p1514
sg39
(lp1515
I71
aI94
asg41
Vhttp://seekingalpha.com/news/2906496-liberty-global-beats-with-surprising-revenue-growth-from-new-customers?source=twitter_sa_factset
p1516
sg43
Vseekingalpha.com/news/2906496-l\u2026
p1517
sassg185
Nsg186
Nsg187
I0
sg68
V662447595231440897
p1518
sg189
I00
sg190
g1471
sg191
Nsg192
Nsg193
I00
sg90
g1490
sg98
VFri Nov 06 01:53:09 +0000 2015
p1519
sg195
Nsg196
Nsg197
(dp1520
g199
Ven
p1521
sg201
Vrecent
p1522
sssg203
g1520
sg204
Nsg205
Nsg31
g1496
sg206
Nsg207
Nsg110
g1518
sg208
I00
sg209
Nsg210
I0
sg211
Nsbag0
(g4
g5
Ntp1523
Rp1524
(dp1525
g9
I00
sg10
Nsg11
I00
sg12
VLiberty Global beats with surprising revenue growth from new customers https://t.co/NayqeVwgf8 $LBTYA $LBTYB $LBTYK $LILAB
p1526
sg14
Vhttp://seekingalpha.com
p1527
sg16
I00
sg17
I00
sg18
Nsg19
g0
(g20
g5
Ntp1528
Rp1529
(dp1530
g24
I00
sg25
I00
sg26
I00
sg27
VDDEEF6
p1531
sg29
I201296379
sg30
I00
sg31
(dp1532
g33
(dp1533
g35
(lp1534
(dp1535
g33
Vhttp://t.co/92fdg1URYX
p1536
sg39
(lp1537
I0
aI22
asg41
Vhttp://seekingalpha.com/currents/tech
p1538
sg43
Vseekingalpha.com/currents/tech
p1539
sassg45
(dp1540
g35
(lp1541
(dp1542
g33
Vhttps://t.co/nzLmsIKexy
p1543
sg39
(lp1544
I95
aI118
asg41
Vhttps://twitter.com/SeekingAlpha/following
p1545
sg43
Vtwitter.com/SeekingAlpha/f\u2026
p1546
sasssg48
Vhttps://pbs.twimg.com/profile_images/562221086536785921/0GCwkfuV_normal.png
p1547
sg50
(dp1548
g52
I00
sg53
I00
sg54
I00
sg55
I00
sg56
I201296379
sg57
Vhttps://pbs.twimg.com/profile_background_images/378800000123987065/12db58c4165f5b1230832461011ea368.png
p1549
sg59
I00
sg60
V333333
p1550
sg62
g1547
sg63
g1531
sg64
g1532
sg65
I2949
sg66
VFFFFFF
p1551
sg68
V201296379
p1552
sg70
VC0DEED
p1553
sg72
I149
sg73
I00
sg74
I-18000
sg75
I32712
sg45
VBreaking news and analysis about tech stocks from Seeking Alpha. See all SA Twitter options at https://t.co/nzLmsIKexy
p1554
sg77
I33
sg78
g297
sg80
V360000
p1555
sg82
Vhttp://pbs.twimg.com/profile_images/562221086536785921/0GCwkfuV_normal.png
p1556
sg84
I00
sg85
I00
sg86
Vhttp://pbs.twimg.com/profile_background_images/378800000123987065/12db58c4165f5b1230832461011ea368.png
p1557
sg88
VSAlphaTech
p1558
sg90
Ven
p1559
sg92
I00
sg93
I0
sg94
VTech Stocks
p1560
sg96
I00
sg33
Vhttp://t.co/92fdg1URYX
p1561
sg98
VMon Oct 11 14:58:14 +0000 2010
p1562
sg100
I00
sg101
VEastern Time (US & Canada)
p1563
sg103
I00
sg104
I00
sg105
I00
ssg106
I00
sg107
g1550
sg108
I2949
sg109
g1551
sg110
g1552
sg111
I00
sg112
I149
sg113
I00
sg114
I-18000
sg115
I32712
sg116
g1554
sg117
I33
sg118
g297
sg119
g1555
sg120
g1556
sg121
I00
sg122
I00
sg123
g1553
sg124
g1557
sg125
g1558
sg126
g1559
sg127
I00
sg128
I00
sg129
I0
sg130
g1560
sg131
g1561
sg132
g133
(S'\x07\xda\n\x0b\x0e:\x0e\x00\x00\x00'
p1564
tp1565
Rp1566
sg137
g1549
sg138
g1563
sg139
I00
sg140
I00
sg141
I00
sbsg142
Nsg29
L662447593994129408L
sg143
I0
sg144
VSeeking Alpha
p1567
sg126
Ven
p1568
sg147
g1529
sg132
g133
(S'\x07\xdf\x0b\x06\x015\x08\x00\x00\x00'
p1569
tp1570
Rp1571
sg50
(dp1572
g152
Nsg153
I00
sg154
g1526
sg156
I00
sg157
Nsg56
L662447593994129408L
sg158
I0
sg159
V<a href="http://seekingalpha.com" rel="nofollow">Seeking Alpha</a>
p1573
sg161
I00
sg162
Nsg64
(dp1574
g164
(lp1575
(dp1576
g39
(lp1577
I95
aI101
asg154
VLBTYA
p1578
sa(dp1579
g39
(lp1580
I102
aI108
asg154
VLBTYB
p1581
sa(dp1582
g39
(lp1583
I109
aI115
asg154
VLBTYK
p1584
sa(dp1585
g39
(lp1586
I116
aI122
asg154
VLILAB
p1587
sasg169
(lp1588
sg171
(lp1589
sg35
(lp1590
(dp1591
g33
Vhttps://t.co/NayqeVwgf8
p1592
sg39
(lp1593
I71
aI94
asg41
Vhttp://seekingalpha.com/news/2906496-liberty-global-beats-with-surprising-revenue-growth-from-new-customers?source=twitter_salphatech
p1594
sg43
Vseekingalpha.com/news/2906496-l\u2026
p1595
sassg185
Nsg186
Nsg187
I0
sg68
V662447593994129408
p1596
sg189
I00
sg190
g1548
sg191
Nsg192
Nsg193
I00
sg90
g1568
sg98
VFri Nov 06 01:53:08 +0000 2015
p1597
sg195
Nsg196
Nsg197
(dp1598
g199
Ven
p1599
sg201
Vrecent
p1600
sssg203
g1598
sg204
Nsg205
Nsg31
g1574
sg206
Nsg207
Nsg110
g1596
sg208
I00
sg209
Nsg210
I0
sg211
Nsbag0
(g4
g5
Ntp1601
Rp1602
(dp1603
g9
I00
sg10
Nsg11
I00
sg12
VLiberty Global beats with surprising revenue growth from new customers https://t.co/O6lzoVM51r $LBTYA $LBTYB $LBTYK $LILAB
p1604
sg14
Vhttp://seekingalpha.com
p1605
sg16
I00
sg17
I00
sg18
Nsg19
g0
(g20
g5
Ntp1606
Rp1607
(dp1608
g24
I00
sg25
I00
sg26
I00
sg27
VDDEEF6
p1609
sg29
I203862593
sg30
I00
sg31
(dp1610
g33
(dp1611
g35
(lp1612
(dp1613
g33
Vhttp://t.co/YOmRudHkjx
p1614
sg39
(lp1615
I0
aI22
asg41
Vhttp://seekingalpha.com/tag/forex
p1616
sg43
Vseekingalpha.com/tag/forex
p1617
sassg45
(dp1618
g35
(lp1619
(dp1620
g33
Vhttps://t.co/nzLmsIKexy
p1621
sg39
(lp1622
I104
aI127
asg41
Vhttps://twitter.com/SeekingAlpha/following
p1623
sg43
Vtwitter.com/SeekingAlpha/f\u2026
p1624
sasssg48
Vhttps://pbs.twimg.com/profile_images/562215310871117824/SY0PzzPf_normal.png
p1625
sg50
(dp1626
g52
I00
sg53
I00
sg54
I00
sg55
I00
sg56
I203862593
sg57
Vhttps://pbs.twimg.com/profile_background_images/163819719/Twitter-BG4.jpg
p1627
sg59
I00
sg60
V333333
p1628
sg62
g1625
sg63
g1609
sg64
g1610
sg65
I1802
sg66
VC0DEED
p1629
sg68
V203862593
p1630
sg70
VC0DEED
p1631
sg72
I45
sg73
I01
sg74
I-10800
sg75
I5766
sg45
VReal-time news feed of Seeking Alpha articles about forex and currencies. See all SA Twitter options at https://t.co/nzLmsIKexy
p1632
sg77
I32
sg78
g297
sg80
V360000
p1633
sg82
Vhttp://pbs.twimg.com/profile_images/562215310871117824/SY0PzzPf_normal.png
p1634
sg84
I00
sg85
I00
sg86
Vhttp://pbs.twimg.com/profile_background_images/163819719/Twitter-BG4.jpg
p1635
sg88
VSA_Forex
p1636
sg90
Ven
p1637
sg92
I00
sg93
I0
sg94
VForex and Currencies
p1638
sg96
I00
sg33
Vhttp://t.co/YOmRudHkjx
p1639
sg98
VSun Oct 17 10:22:56 +0000 2010
p1640
sg100
I00
sg101
VGreenland
p1641
sg103
I00
sg104
I00
sg105
I00
ssg106
I00
sg107
g1628
sg108
I1802
sg109
g1629
sg110
g1630
sg111
I00
sg112
I45
sg113
I01
sg114
I-10800
sg115
I5766
sg116
g1632
sg117
I32
sg118
g297
sg119
g1633
sg120
g1634
sg121
I00
sg122
I00
sg123
g1631
sg124
g1635
sg125
g1636
sg126
g1637
sg127
I00
sg128
I00
sg129
I0
sg130
g1638
sg131
g1639
sg132
g133
(S'\x07\xda\n\x11\n\x168\x00\x00\x00'
p1642
tp1643
Rp1644
sg137
g1627
sg138
g1641
sg139
I00
sg140
I00
sg141
I00
sbsg142
Nsg29
L662447592710672384L
sg143
I0
sg144
VSeeking Alpha
p1645
sg126
Ven
p1646
sg147
g1607
sg132
g133
(S'\x07\xdf\x0b\x06\x015\x08\x00\x00\x00'
p1647
tp1648
Rp1649
sg50
(dp1650
g152
Nsg153
I00
sg154
g1604
sg156
I00
sg157
Nsg56
L662447592710672384L
sg158
I0
sg159
V<a href="http://seekingalpha.com" rel="nofollow">Seeking Alpha</a>
p1651
sg161
I00
sg162
Nsg64
(dp1652
g164
(lp1653
(dp1654
g39
(lp1655
I95
aI101
asg154
VLBTYA
p1656
sa(dp1657
g39
(lp1658
I102
aI108
asg154
VLBTYB
p1659
sa(dp1660
g39
(lp1661
I109
aI115
asg154
VLBTYK
p1662
sa(dp1663
g39
(lp1664
I116
aI122
asg154
VLILAB
p1665
sasg169
(lp1666
sg171
(lp1667
sg35
(lp1668
(dp1669
g33
Vhttps://t.co/O6lzoVM51r
p1670
sg39
(lp1671
I71
aI94
asg41
Vhttp://seekingalpha.com/news/2906496-liberty-global-beats-with-surprising-revenue-growth-from-new-customers?source=twitter_sa_forex
p1672
sg43
Vseekingalpha.com/news/2906496-l\u2026
p1673
sassg185
Nsg186
Nsg187
I0
sg68
V662447592710672384
p1674
sg189
I00
sg190
g1626
sg191
Nsg192
Nsg193
I00
sg90
g1646
sg98
VFri Nov 06 01:53:08 +0000 2015
p1675
sg195
Nsg196
Nsg197
(dp1676
g199
Ven
p1677
sg201
Vrecent
p1678
sssg203
g1676
sg204
Nsg205
Nsg31
g1652
sg206
Nsg207
Nsg110
g1674
sg208
I00
sg209
Nsg210
I0
sg211
Nsbag0
(g4
g5
Ntp1679
Rp1680
(dp1681
g9
I00
sg10
Nsg11
I00
sg12
VLiberty Global beats with surprising revenue growth from new customers https://t.co/MreonrHUV7 $LBTYA $LBTYB $LBTYK $LILAB
p1682
sg14
Vhttp://seekingalpha.com
p1683
sg16
I00
sg17
I00
sg18
Nsg19
g0
(g20
g5
Ntp1684
Rp1685
(dp1686
g24
I00
sg25
I00
sg26
I00
sg27
VF3F3F3
p1687
sg29
I15296897
sg30
I00
sg31
(dp1688
g33
(dp1689
g35
(lp1690
(dp1691
g33
Vhttp://t.co/K8mUqhVprF
p1692
sg39
(lp1693
I0
aI22
asg41
Vhttp://seekingalpha.com/news/all
p1694
sg43
Vseekingalpha.com/news/all
p1695
sassg45
(dp1696
g35
(lp1697
(dp1698
g33
Vhttps://t.co/nzLmsIKexy
p1699
sg39
(lp1700
I96
aI119
asg41
Vhttps://twitter.com/SeekingAlpha/following
p1701
sg43
Vtwitter.com/SeekingAlpha/f\u2026
p1702
sasssg48
Vhttps://pbs.twimg.com/profile_images/562235643225309184/BbO5bjbH_normal.png
p1703
sg50
(dp1704
g52
I00
sg53
I00
sg54
I00
sg55
I00
sg56
I15296897
sg57
Vhttps://pbs.twimg.com/profile_background_images/378800000040521500/f26581d4dd97008e0985dcfede25018e.png
p1705
sg59
I00
sg60
V000000
p1706
sg62
g1703
sg63
g1687
sg64
g1688
sg65
I19259
sg66
VFFFFFF
p1707
sg68
V15296897
p1708
sg70
VC0DEED
p1709
sg72
I1035
sg73
I00
sg74
I-10800
sg75
I373320
sg45
VReal-time stock market news from Seeking Alpha. See all options for Seeking Alpha on Twitter at https://t.co/nzLmsIKexy
p1710
sg77
I33
sg78
VNew York
p1711
sg80
V360000
p1712
sg82
Vhttp://pbs.twimg.com/profile_images/562235643225309184/BbO5bjbH_normal.png
p1713
sg84
I00
sg85
I00
sg86
Vhttp://pbs.twimg.com/profile_background_images/378800000040521500/f26581d4dd97008e0985dcfede25018e.png
p1714
sg88
VMarketCurrents
p1715
sg90
Ven
p1716
sg92
I00
sg93
I0
sg94
VBreaking News
p1717
sg96
I00
sg33
Vhttp://t.co/K8mUqhVprF
p1718
sg98
VWed Jul 02 10:38:58 +0000 2008
p1719
sg100
I00
sg101
VSantiago
p1720
sg103
I00
sg104
I00
sg105
I00
ssg106
I00
sg107
g1706
sg108
I19259
sg109
g1707
sg110
g1708
sg111
I00
sg112
I1035
sg113
I00
sg114
I-10800
sg115
I373320
sg116
g1710
sg117
I33
sg118
g1711
sg119
g1712
sg120
g1713
sg121
I00
sg122
I00
sg123
g1709
sg124
g1714
sg125
g1715
sg126
g1716
sg127
I00
sg128
I00
sg129
I0
sg130
g1717
sg131
g1718
sg132
g133
(S'\x07\xd8\x07\x02\n&:\x00\x00\x00'
p1721
tp1722
Rp1723
sg137
g1705
sg138
g1720
sg139
I00
sg140
I00
sg141
I00
sbsg142
Nsg29
L662447591313965056L
sg143
I0
sg144
VSeeking Alpha
p1724
sg126
Ven
p1725
sg147
g1685
sg132
g133
(S'\x07\xdf\x0b\x06\x015\x08\x00\x00\x00'
p1726
tp1727
Rp1728
sg50
(dp1729
g152
Nsg153
I00
sg154
g1682
sg156
I00
sg157
Nsg56
L662447591313965056L
sg158
I0
sg159
V<a href="http://seekingalpha.com" rel="nofollow">Seeking Alpha</a>
p1730
sg161
I00
sg162
Nsg64
(dp1731
g164
(lp1732
(dp1733
g39
(lp1734
I95
aI101
asg154
VLBTYA
p1735
sa(dp1736
g39
(lp1737
I102
aI108
asg154
VLBTYB
p1738
sa(dp1739
g39
(lp1740
I109
aI115
asg154
VLBTYK
p1741
sa(dp1742
g39
(lp1743
I116
aI122
asg154
VLILAB
p1744
sasg169
(lp1745
sg171
(lp1746
sg35
(lp1747
(dp1748
g33
Vhttps://t.co/MreonrHUV7
p1749
sg39
(lp1750
I71
aI94
asg41
Vhttp://seekingalpha.com/news/2906496-liberty-global-beats-with-surprising-revenue-growth-from-new-customers?source=feed_f
p1751
sg43
Vseekingalpha.com/news/2906496-l\u2026
p1752
sassg185
Nsg186
Nsg187
I0
sg68
V662447591313965056
p1753
sg189
I00
sg190
g1704
sg191
Nsg192
Nsg193
I00
sg90
g1725
sg98
VFri Nov 06 01:53:08 +0000 2015
p1754
sg195
Nsg196
Nsg197
(dp1755
g199
Ven
p1756
sg201
Vrecent
p1757
sssg203
g1755
sg204
Nsg205
Nsg31
g1731
sg206
Nsg207
Nsg110
g1753
sg208
I00
sg209
Nsg210
I0
sg211
Nsbag0
(g4
g5
Ntp1758
Rp1759
(dp1760
g9
I00
sg10
Nsg11
I00
sg12
VLiberty Global reports Q3 results https://t.co/JCIwB4gzYp $LILAK $LBTYA $LBTYB $LBTYK
p1761
sg14
Vhttp://seekingalpha.com
p1762
sg16
I00
sg17
I00
sg18
Nsg19
g0
(g20
g5
Ntp1763
Rp1764
(dp1765
g24
I00
sg25
I00
sg26
I01
sg27
VDDEEF6
p1766
sg29
I207441033
sg30
I00
sg31
(dp1767
g45
(dp1768
g35
(lp1769
sssg48
Vhttps://pbs.twimg.com/profile_images/628450795533414401/xwE4BfP__normal.jpg
p1770
sg50
(dp1771
g52
I00
sg53
I00
sg54
I01
sg55
I00
sg56
I207441033
sg57
Vhttps://abs.twimg.com/images/themes/theme1/bg.png
p1772
sg59
I00
sg60
V333333
p1773
sg62
g1770
sg63
g1766
sg64
g1767
sg65
I135
sg66
VC0DEED
p1774
sg68
V207441033
p1775
sg70
VC0DEED
p1776
sg72
I30
sg73
I01
sg74
I7200
sg75
I30086
sg45
g297
sg77
I1
sg78
g297
sg80
V0084B4
p1777
sg82
Vhttp://pbs.twimg.com/profile_images/628450795533414401/xwE4BfP__normal.jpg
p1778
sg84
I00
sg85
I00
sg686
Vhttps://pbs.twimg.com/profile_banners/207441033/1438669732
p1779
sg86
Vhttp://abs.twimg.com/images/themes/theme1/bg.png
p1780
sg88
VSA_FACTSET
p1781
sg90
Ven
p1782
sg92
I00
sg93
I0
sg94
VSeeking Alpha
p1783
sg96
I00
sg33
Nsg98
VMon Oct 25 10:13:55 +0000 2010
p1784
sg100
I00
sg101
VBucharest
p1785
sg103
I00
sg104
I01
sg105
I00
ssg106
I00
sg107
g1773
sg108
I135
sg109
g1774
sg110
g1775
sg111
I00
sg112
I30
sg113
I01
sg114
I7200
sg115
I30086
sg116
g297
sg117
I1
sg118
g297
sg119
g1777
sg120
g1778
sg121
I00
sg122
I00
sg123
g1776
sg695
g1779
sg124
g1780
sg125
g1781
sg126
g1782
sg127
I00
sg128
I00
sg129
I0
sg130
g1783
sg131
Nsg132
g133
(S'\x07\xda\n\x19\n\r7\x00\x00\x00'
p1786
tp1787
Rp1788
sg137
g1772
sg138
g1785
sg139
I00
sg140
I01
sg141
I00
sbsg142
Nsg29
L662419263773274113L
sg143
I0
sg144
VSeeking Alpha
p1789
sg126
Vsk
p1790
sg147
g1764
sg132
g133
(S'\x07\xdf\x0b\x06\x00\x00"\x00\x00\x00'
p1791
tp1792
Rp1793
sg50
(dp1794
g152
Nsg153
I00
sg154
g1761
sg156
I00
sg157
Nsg56
L662419263773274113L
sg158
I0
sg159
V<a href="http://seekingalpha.com" rel="nofollow">Seeking Alpha</a>
p1795
sg161
I00
sg162
Nsg64
(dp1796
g164
(lp1797
(dp1798
g39
(lp1799
I58
aI64
asg154
VLILAK
p1800
sa(dp1801
g39
(lp1802
I65
aI71
asg154
VLBTYA
p1803
sa(dp1804
g39
(lp1805
I72
aI78
asg154
VLBTYB
p1806
sa(dp1807
g39
(lp1808
I79
aI85
asg154
VLBTYK
p1809
sasg169
(lp1810
sg171
(lp1811
sg35
(lp1812
(dp1813
g33
Vhttps://t.co/JCIwB4gzYp
p1814
sg39
(lp1815
I34
aI57
asg41
Vhttp://seekingalpha.com/news/2906306-liberty-global-reports-q3-results?source=twitter_sa_factset
p1816
sg43
Vseekingalpha.com/news/2906306-l\u2026
p1817
sassg185
Nsg186
Nsg187
I0
sg68
V662419263773274113
p1818
sg189
I00
sg190
g1771
sg191
Nsg192
Nsg193
I00
sg90
g1790
sg98
VFri Nov 06 00:00:34 +0000 2015
p1819
sg195
Nsg196
Nsg197
(dp1820
g199
Vsk
p1821
sg201
Vrecent
p1822
sssg203
g1820
sg204
Nsg205
Nsg31
g1796
sg206
Nsg207
Nsg110
g1818
sg208
I00
sg209
Nsg210
I0
sg211
Nsbag0
(g4
g5
Ntp1823
Rp1824
(dp1825
g9
I00
sg10
Nsg11
I00
sg12
VLiberty Global reports Q3 results https://t.co/lSJmtLpL0i $LILAK $LBTYA $LBTYB $LBTYK
p1826
sg14
Vhttp://seekingalpha.com
p1827
sg16
I00
sg17
I00
sg18
Nsg19
g0
(g20
g5
Ntp1828
Rp1829
(dp1830
g24
I00
sg25
I00
sg26
I00
sg27
VDDEEF6
p1831
sg29
I207435193
sg30
I00
sg31
(dp1832
g33
(dp1833
g35
(lp1834
(dp1835
g33
Vhttp://t.co/GtNRJWDpyx
p1836
sg39
(lp1837
I0
aI22
asg41
Vhttp://seekingalpha.com/news/consumer
p1838
sg43
Vseekingalpha.com/news/consumer
p1839
sassg45
(dp1840
g35
(lp1841
(dp1842
g33
Vhttps://t.co/IA82A8AOS3
p1843
sg39
(lp1844
I96
aI119
asg41
Vhttps://twitter.com/SeekingAlpha/following
p1845
sg43
Vtwitter.com/SeekingAlpha/f\u2026
p1846
sasssg48
Vhttps://pbs.twimg.com/profile_images/559751945351462912/PH5V5Izb_normal.png
p1847
sg50
(dp1848
g52
I00
sg53
I00
sg54
I00
sg55
I00
sg56
I207435193
sg57
Vhttps://abs.twimg.com/images/themes/theme1/bg.png
p1849
sg59
I00
sg60
V333333
p1850
sg62
g1847
sg63
g1831
sg64
g1832
sg65
I859
sg66
VC0DEED
p1851
sg68
V207435193
p1852
sg70
VC0DEED
p1853
sg72
I36
sg73
I00
sg74
I-10800
sg75
I17513
sg45
VBreaking news and analysis of consumer stocks from Seeking Alpha. For all SA Twitter feeds, see https://t.co/IA82A8AOS3
p1854
sg77
I32
sg78
g297
sg80
V360000
p1855
sg82
Vhttp://pbs.twimg.com/profile_images/559751945351462912/PH5V5Izb_normal.png
p1856
sg84
I00
sg85
I00
sg86
Vhttp://abs.twimg.com/images/themes/theme1/bg.png
p1857
sg88
VConsumer_SA
p1858
sg90
Ven
p1859
sg92
I00
sg93
I0
sg94
VConsumer Stocks
p1860
sg96
I00
sg33
Vhttp://t.co/GtNRJWDpyx
p1861
sg98
VMon Oct 25 09:53:47 +0000 2010
p1862
sg100
I00
sg101
VGreenland
p1863
sg103
I00
sg104
I00
sg105
I00
ssg106
I00
sg107
g1850
sg108
I859
sg109
g1851
sg110
g1852
sg111
I00
sg112
I36
sg113
I00
sg114
I-10800
sg115
I17513
sg116
g1854
sg117
I32
sg118
g297
sg119
g1855
sg120
g1856
sg121
I00
sg122
I00
sg123
g1853
sg124
g1857
sg125
g1858
sg126
g1859
sg127
I00
sg128
I00
sg129
I0
sg130
g1860
sg131
g1861
sg132
g133
(S'\x07\xda\n\x19\t5/\x00\x00\x00'
p1864
tp1865
Rp1866
sg137
g1849
sg138
g1863
sg139
I00
sg140
I00
sg141
I00
sbsg142
Nsg29
L662419262598811649L
sg143
I0
sg144
VSeeking Alpha
p1867
sg126
Vsk
p1868
sg147
g1829
sg132
g133
(S'\x07\xdf\x0b\x06\x00\x00"\x00\x00\x00'
p1869
tp1870
Rp1871
sg50
(dp1872
g152
Nsg153
I00
sg154
g1826
sg156
I00
sg157
Nsg56
L662419262598811649L
sg158
I0
sg159
V<a href="http://seekingalpha.com" rel="nofollow">Seeking Alpha</a>
p1873
sg161
I00
sg162
Nsg64
(dp1874
g164
(lp1875
(dp1876
g39
(lp1877
I58
aI64
asg154
VLILAK
p1878
sa(dp1879
g39
(lp1880
I65
aI71
asg154
VLBTYA
p1881
sa(dp1882
g39
(lp1883
I72
aI78
asg154
VLBTYB
p1884
sa(dp1885
g39
(lp1886
I79
aI85
asg154
VLBTYK
p1887
sasg169
(lp1888
sg171
(lp1889
sg35
(lp1890
(dp1891
g33
Vhttps://t.co/lSJmtLpL0i
p1892
sg39
(lp1893
I34
aI57
asg41
Vhttp://seekingalpha.com/news/2906306-liberty-global-reports-q3-results?source=twitter_consumer_sa
p1894
sg43
Vseekingalpha.com/news/2906306-l\u2026
p1895
sassg185
Nsg186
Nsg187
I0
sg68
V662419262598811649
p1896
sg189
I00
sg190
g1848
sg191
Nsg192
Nsg193
I00
sg90
g1868
sg98
VFri Nov 06 00:00:34 +0000 2015
p1897
sg195
Nsg196
Nsg197
(dp1898
g199
Vsk
p1899
sg201
Vrecent
p1900
sssg203
g1898
sg204
Nsg205
Nsg31
g1874
sg206
Nsg207
Nsg110
g1896
sg208
I00
sg209
Nsg210
I0
sg211
Nsbag0
(g4
g5
Ntp1901
Rp1902
(dp1903
g9
I00
sg10
Nsg11
I00
sg12
VLiberty Global reports Q3 results https://t.co/ewORWtrGBo $LILAK $LBTYA $LBTYB $LBTYK
p1904
sg14
Vhttp://seekingalpha.com
p1905
sg16
I00
sg17
I00
sg18
Nsg19
g0
(g20
g5
Ntp1906
Rp1907
(dp1908
g24
I00
sg25
I00
sg26
I00
sg27
VF3F3F3
p1909
sg29
I15296897
sg30
I00
sg31
(dp1910
g33
(dp1911
g35
(lp1912
(dp1913
g33
Vhttp://t.co/K8mUqhVprF
p1914
sg39
(lp1915
I0
aI22
asg41
Vhttp://seekingalpha.com/news/all
p1916
sg43
Vseekingalpha.com/news/all
p1917
sassg45
(dp1918
g35
(lp1919
(dp1920
g33
Vhttps://t.co/nzLmsIKexy
p1921
sg39
(lp1922
I96
aI119
asg41
Vhttps://twitter.com/SeekingAlpha/following
p1923
sg43
Vtwitter.com/SeekingAlpha/f\u2026
p1924
sasssg48
Vhttps://pbs.twimg.com/profile_images/562235643225309184/BbO5bjbH_normal.png
p1925
sg50
(dp1926
g52
I00
sg53
I00
sg54
I00
sg55
I00
sg56
I15296897
sg57
Vhttps://pbs.twimg.com/profile_background_images/378800000040521500/f26581d4dd97008e0985dcfede25018e.png
p1927
sg59
I00
sg60
V000000
p1928
sg62
g1925
sg63
g1909
sg64
g1910
sg65
I19259
sg66
VFFFFFF
p1929
sg68
V15296897
p1930
sg70
VC0DEED
p1931
sg72
I1035
sg73
I00
sg74
I-10800
sg75
I373320
sg45
VReal-time stock market news from Seeking Alpha. See all options for Seeking Alpha on Twitter at https://t.co/nzLmsIKexy
p1932
sg77
I33
sg78
VNew York
p1933
sg80
V360000
p1934
sg82
Vhttp://pbs.twimg.com/profile_images/562235643225309184/BbO5bjbH_normal.png
p1935
sg84
I00
sg85
I00
sg86
Vhttp://pbs.twimg.com/profile_background_images/378800000040521500/f26581d4dd97008e0985dcfede25018e.png
p1936
sg88
VMarketCurrents
p1937
sg90
Ven
p1938
sg92
I00
sg93
I0
sg94
VBreaking News
p1939
sg96
I00
sg33
Vhttp://t.co/K8mUqhVprF
p1940
sg98
VWed Jul 02 10:38:58 +0000 2008
p1941
sg100
I00
sg101
VSantiago
p1942
sg103
I00
sg104
I00
sg105
I00
ssg106
I00
sg107
g1928
sg108
I19259
sg109
g1929
sg110
g1930
sg111
I00
sg112
I1035
sg113
I00
sg114
I-10800
sg115
I373320
sg116
g1932
sg117
I33
sg118
g1933
sg119
g1934
sg120
g1935
sg121
I00
sg122
I00
sg123
g1931
sg124
g1936
sg125
g1937
sg126
g1938
sg127
I00
sg128
I00
sg129
I0
sg130
g1939
sg131
g1940
sg132
g133
(S'\x07\xd8\x07\x02\n&:\x00\x00\x00'
p1943
tp1944
Rp1945
sg137
g1927
sg138
g1942
sg139
I00
sg140
I00
sg141
I00
sbsg142
Nsg29
L662419261197959169L
sg143
I0
sg144
VSeeking Alpha
p1946
sg126
Vsk
p1947
sg147
g1907
sg132
g133
(S'\x07\xdf\x0b\x06\x00\x00!\x00\x00\x00'
p1948
tp1949
Rp1950
sg50
(dp1951
g152
Nsg153
I00
sg154
g1904
sg156
I00
sg157
Nsg56
L662419261197959169L
sg158
I0
sg159
V<a href="http://seekingalpha.com" rel="nofollow">Seeking Alpha</a>
p1952
sg161
I00
sg162
Nsg64
(dp1953
g164
(lp1954
(dp1955
g39
(lp1956
I58
aI64
asg154
VLILAK
p1957
sa(dp1958
g39
(lp1959
I65
aI71
asg154
VLBTYA
p1960
sa(dp1961
g39
(lp1962
I72
aI78
asg154
VLBTYB
p1963
sa(dp1964
g39
(lp1965
I79
aI85
asg154
VLBTYK
p1966
sasg169
(lp1967
sg171
(lp1968
sg35
(lp1969
(dp1970
g33
Vhttps://t.co/ewORWtrGBo
p1971
sg39
(lp1972
I34
aI57
asg41
Vhttp://seekingalpha.com/news/2906306-liberty-global-reports-q3-results?source=feed_f
p1973
sg43
Vseekingalpha.com/news/2906306-l\u2026
p1974
sassg185
Nsg186
Nsg187
I0
sg68
V662419261197959169
p1975
sg189
I00
sg190
g1926
sg191
Nsg192
Nsg193
I00
sg90
g1947
sg98
VFri Nov 06 00:00:33 +0000 2015
p1976
sg195
Nsg196
Nsg197
(dp1977
g199
Vsk
p1978
sg201
Vrecent
p1979
sssg203
g1977
sg204
Nsg205
Nsg31
g1953
sg206
Nsg207
Nsg110
g1975
sg208
I00
sg209
Nsg210
I0
sg211
Nsbag0
(g4
g5
Ntp1980
Rp1981
(dp1982
g9
I00
sg10
Nsg11
I00
sg12
VShould You Love These 5 Stocks As Much As CQS Cayman Does?\u000a$SIAL, $LBTYK, $CMCSA, $CCL, $RYAAY\u000ahttps://t.co/ano9L03pD8
p1983
sg14
Vhttp://stocktwits.com
p1984
sg16
I00
sg17
I00
sg18
Nsg19
g0
(g20
g5
Ntp1985
Rp1986
(dp1987
g24
I00
sg25
I00
sg26
I01
sg27
VDDEEF6
p1988
sg29
I194137231
sg30
I00
sg31
(dp1989
g33
(dp1990
g35
(lp1991
(dp1992
g33
Vhttp://t.co/1qzBz9NSN6
p1993
sg39
(lp1994
I0
aI22
asg41
Vhttp://www.insidermonkey.com/premium/newsletters/
p1995
sg43
Vinsidermonkey.com/premium/newsle\u2026
p1996
sassg45
(dp1997
g35
(lp1998
sssg48
Vhttps://pbs.twimg.com/profile_images/2966950262/174d40f71ea3f8d2b6d85e3d82bed218_normal.png
p1999
sg50
(dp2000
g52
I00
sg53
I00
sg54
I01
sg55
I00
sg56
I194137231
sg57
Vhttps://pbs.twimg.com/profile_background_images/851520526/ce44759f26923990a5852e0362fa87ba.jpeg
p2001
sg59
I00
sg60
V333333
p2002
sg62
g1999
sg63
g1988
sg64
g1989
sg65
I12270
sg66
VFFFFFF
p2003
sg68
V194137231
p2004
sg70
VC0DEED
p2005
sg72
I575
sg73
I00
sg74
I-18000
sg75
I26289
sg45
VFinance blog following insiders and hedge funds. Our small-cap hedge fund strategy beat the S&P 500 index by 18 percentage points per year. Check it out.
p2006
sg77
I909
sg78
VNew York
p2007
sg80
V0084B4
p2008
sg82
Vhttp://pbs.twimg.com/profile_images/2966950262/174d40f71ea3f8d2b6d85e3d82bed218_normal.png
p2009
sg84
I00
sg85
I00
sg686
Vhttps://pbs.twimg.com/profile_banners/194137231/1366832887
p2010
sg86
Vhttp://pbs.twimg.com/profile_background_images/851520526/ce44759f26923990a5852e0362fa87ba.jpeg
p2011
sg88
Vinsidermonkey
p2012
sg90
Ven
p2013
sg92
I00
sg93
I1343
sg94
VInsider Monkey
p2014
sg96
I00
sg33
Vhttp://t.co/1qzBz9NSN6
p2015
sg98
VThu Sep 23 14:32:16 +0000 2010
p2016
sg100
I00
sg101
VEastern Time (US & Canada)
p2017
sg103
I00
sg104
I00
sg105
I00
ssg106
I00
sg107
g2002
sg108
I12270
sg109
g2003
sg110
g2004
sg111
I00
sg112
I575
sg113
I00
sg114
I-18000
sg115
I26289
sg116
g2006
sg117
I909
sg118
g2007
sg119
g2008
sg120
g2009
sg121
I00
sg122
I00
sg123
g2005
sg695
g2010
sg124
g2011
sg125
g2012
sg126
g2013
sg127
I00
sg128
I00
sg129
I1343
sg130
g2014
sg131
g2015
sg132
g133
(S'\x07\xda\t\x17\x0e \x10\x00\x00\x00'
p2018
tp2019
Rp2020
sg137
g2001
sg138
g2017
sg139
I00
sg140
I00
sg141
I00
sbsg142
Nsg29
L662305528270356480L
sg143
I0
sg144
VStockTwits Web
p2021
sg126
Ven
p2022
sg147
g1986
sg132
g133
(S'\x07\xdf\x0b\x05\x10\x1c%\x00\x00\x00'
p2023
tp2024
Rp2025
sg50
(dp2026
g152
Nsg153
I00
sg154
VShould You Love These 5 Stocks As Much As CQS Cayman Does?\u000a$SIAL, $LBTYK, $CMCSA, $CCL, $RYAAY\u000ahttps://t.co/ano9L03pD8
p2027
sg156
I00
sg157
Nsg56
L662305528270356480L
sg158
I0
sg159
V<a href="http://stocktwits.com" rel="nofollow">StockTwits Web</a>
p2028
sg161
I00
sg162
Nsg64
(dp2029
g164
(lp2030
(dp2031
g39
(lp2032
I59
aI64
asg154
VSIAL
p2033
sa(dp2034
g39
(lp2035
I66
aI72
asg154
VLBTYK
p2036
sa(dp2037
g39
(lp2038
I74
aI80
asg154
VCMCSA
p2039
sa(dp2040
g39
(lp2041
I82
aI86
asg154
VCCL
p2042
sa(dp2043
g39
(lp2044
I88
aI94
asg154
VRYAAY
p2045
sasg169
(lp2046
sg171
(lp2047
sg35
(lp2048
(dp2049
g33
Vhttps://t.co/ano9L03pD8
p2050
sg39
(lp2051
I95
aI118
asg41
Vhttp://stks.co/s37T5
p2052
sg43
Vstks.co/s37T5
p2053
sassg185
Nsg186
Nsg187
I0
sg68
V662305528270356480
p2054
sg189
I00
sg190
g2000
sg191
Nsg192
Nsg193
I00
sg90
g2022
sg98
VThu Nov 05 16:28:37 +0000 2015
p2055
sg195
Nsg196
Nsg197
(dp2056
g199
Ven
p2057
sg201
Vrecent
p2058
sssg203
g2056
sg204
Nsg205
Nsg31
g2029
sg206
Nsg207
Nsg110
g2054
sg208
I00
sg209
Nsg210
I0
sg211
Nsbag0
(g4
g5
Ntp2059
Rp2060
(dp2061
g9
I00
sg10
Nsg11
I00
sg12
VShould You Love These 5 Stocks As Much As CQS Cayman Does?\u000a$SIAL, $LBTYK, $CMCSA, $CCL, $RYAAY\u000ahttps://t.co/CF1TFeFUcQ
p2062
sg14
Vhttp://twitter.com
p2063
sg16
I00
sg17
I00
sg18
Nsg19
g0
(g20
g5
Ntp2064
Rp2065
(dp2066
g24
I00
sg25
I00
sg26
I01
sg27
VDDEEF6
p2067
sg29
L3307116874L
sg30
I00
sg31
(dp2068
g45
(dp2069
g35
(lp2070
sssg48
Vhttps://pbs.twimg.com/profile_images/606095885596917760/GGFsKyj6_normal.png
p2071
sg50
(dp2072
g52
I00
sg53
I00
sg54
I01
sg55
I00
sg56
L3307116874L
sg57
Vhttps://abs.twimg.com/images/themes/theme1/bg.png
p2073
sg59
I00
sg60
V333333
p2074
sg62
g2071
sg63
g2067
sg64
g2068
sg65
I174
sg66
VC0DEED
p2075
sg68
V3307116874
p2076
sg70
VC0DEED
p2077
sg72
I13
sg73
I00
sg74
Nsg75
I1997
sg45
g297
sg77
I13
sg78
g297
sg80
V0084B4
p2078
sg82
Vhttp://pbs.twimg.com/profile_images/606095885596917760/GGFsKyj6_normal.png
p2079
sg84
I00
sg85
I00
sg86
Vhttp://abs.twimg.com/images/themes/theme1/bg.png
p2080
sg88
Vinsidermonkey_n
p2081
sg90
Ven
p2082
sg92
I00
sg93
I0
sg94
VInsider Monkey News
p2083
sg96
I00
sg33
Nsg98
VWed Jun 03 13:49:15 +0000 2015
p2084
sg100
I00
sg101
Nsg103
I00
sg104
I01
sg105
I00
ssg106
I00
sg107
g2074
sg108
I174
sg109
g2075
sg110
g2076
sg111
I00
sg112
I13
sg113
I00
sg114
Nsg115
I1997
sg116
g297
sg117
I13
sg118
g297
sg119
g2078
sg120
g2079
sg121
I00
sg122
I00
sg123
g2077
sg124
g2080
sg125
g2081
sg126
g2082
sg127
I00
sg128
I00
sg129
I0
sg130
g2083
sg131
Nsg132
g133
(S'\x07\xdf\x06\x03\r1\x0f\x00\x00\x00'
p2085
tp2086
Rp2087
sg137
g2073
sg138
Nsg139
I00
sg140
I01
sg141
I00
sbsg142
Nsg29
L662305519437275136L
sg143
I0
sg144
VTwitter Web Client
p2088
sg126
Ven
p2089
sg147
g2065
sg132
g133
(S'\x07\xdf\x0b\x05\x10\x1c#\x00\x00\x00'
p2090
tp2091
Rp2092
sg50
(dp2093
g152
Nsg153
I00
sg154
VShould You Love These 5 Stocks As Much As CQS Cayman Does?\u000a$SIAL, $LBTYK, $CMCSA, $CCL, $RYAAY\u000ahttps://t.co/CF1TFeFUcQ
p2094
sg156
I00
sg157
Nsg56
L662305519437275136L
sg158
I0
sg159
V<a href="http://twitter.com" rel="nofollow">Twitter Web Client</a>
p2095
sg161
I00
sg162
Nsg64
(dp2096
g164
(lp2097
(dp2098
g39
(lp2099
I59
aI64
asg154
VSIAL
p2100
sa(dp2101
g39
(lp2102
I66
aI72
asg154
VLBTYK
p2103
sa(dp2104
g39
(lp2105
I74
aI80
asg154
VCMCSA
p2106
sa(dp2107
g39
(lp2108
I82
aI86
asg154
VCCL
p2109
sa(dp2110
g39
(lp2111
I88
aI94
asg154
VRYAAY
p2112
sasg169
(lp2113
sg171
(lp2114
sg35
(lp2115
(dp2116
g33
Vhttps://t.co/CF1TFeFUcQ
p2117
sg39
(lp2118
I95
aI118
asg41
Vhttp://www.insidermonkey.com/blog/should-you-love-these-5-stocks-as-much-as-cqs-cayman-does-382259/?utm_source=Stocktwits&utm_medium=Social&utm_campaign=dnan
p2119
sg43
Vinsidermonkey.com/blog/should-yo\u2026
p2120
sassg185
Nsg186
Nsg187
I0
sg68
V662305519437275136
p2121
sg189
I00
sg190
g2072
sg191
Nsg192
Nsg193
I00
sg90
g2089
sg98
VThu Nov 05 16:28:35 +0000 2015
p2122
sg195
Nsg196
Nsg197
(dp2123
g199
Ven
p2124
sg201
Vrecent
p2125
sssg203
g2123
sg204
Nsg205
Nsg31
g2096
sg206
Nsg207
Nsg110
g2121
sg208
I00
sg209
Nsg210
I0
sg211
Nsbag0
(g4
g5
Ntp2126
Rp2127
(dp2128
g9
I00
sg10
Nsg11
I00
sg12
V$LBTYK $GGP $APD:\u000a\u000aThree Stocks Bring Out Optimists: Liberty Global (NASDAQ:LBTYK \u2026:\u000a\u000ahttps://t.co/WrQyw0hLzT
p2129
sg14
Vhttp://www.stocknewswires.com
p2130
sg16
I00
sg17
I00
sg18
Nsg19
g0
(g20
g5
Ntp2131
Rp2132
(dp2133
g24
I00
sg25
I00
sg26
I01
sg27
VE3E2DE
p2134
sg29
L2344619544L
sg30
I00
sg31
(dp2135
g45
(dp2136
g35
(lp2137
sssg48
Vhttps://pbs.twimg.com/profile_images/562292381764952064/mVtp0UmJ_normal.jpeg
p2138
sg50
(dp2139
g52
I00
sg53
I00
sg54
I01
sg55
I00
sg56
L2344619544L
sg57
Vhttps://abs.twimg.com/images/themes/theme3/bg.gif
p2140
sg59
I00
sg60
V634047
p2141
sg62
g2138
sg63
g2134
sg64
g2135
sg65
I516
sg66
VD3D2CF
p2142
sg68
V2344619544
p2143
sg70
VEDECE9
p2144
sg72
I85
sg73
I01
sg74
I-18000
sg75
I182020
sg45
VNews about Stocks
p2145
sg77
I0
sg78
VU.S.
p2146
sg80
V088253
p2147
sg82
Vhttp://pbs.twimg.com/profile_images/562292381764952064/mVtp0UmJ_normal.jpeg
p2148
sg84
I00
sg85
I00
sg86
Vhttp://abs.twimg.com/images/themes/theme3/bg.gif
p2149
sg88
VNewsToDesk
p2150
sg90
Ven
p2151
sg92
I00
sg93
I0
sg94
VBreakingStocksNews
p2152
sg96
I00
sg33
Nsg98
VSat Feb 15 05:49:10 +0000 2014
p2153
sg100
I00
sg101
VEastern Time (US & Canada)
p2154
sg103
I00
sg104
I00
sg105
I00
ssg106
I00
sg107
g2141
sg108
I516
sg109
g2142
sg110
g2143
sg111
I00
sg112
I85
sg113
I01
sg114
I-18000
sg115
I182020
sg116
g2145
sg117
I0
sg118
g2146
sg119
g2147
sg120
g2148
sg121
I00
sg122
I00
sg123
g2144
sg124
g2149
sg125
g2150
sg126
g2151
sg127
I00
sg128
I00
sg129
I0
sg130
g2152
sg131
Nsg132
g133
(S'\x07\xde\x02\x0f\x051\n\x00\x00\x00'
p2155
tp2156
Rp2157
sg137
g2140
sg138
g2154
sg139
I00
sg140
I00
sg141
I00
sbsg142
Nsg29
L662286532041179137L
sg143
I0
sg144
VStockNewsWires
p2158
sg126
Vde
p2159
sg147
g2132
sg132
g133
(S'\x07\xdf\x0b\x05\x0f\r\x08\x00\x00\x00'
p2160
tp2161
Rp2162
sg50
(dp2163
g152
Nsg153
I00
sg154
V$LBTYK $GGP $APD:\u000a\u000aThree Stocks Bring Out Optimists: Liberty Global (NASDAQ:LBTYK \u2026:\u000a\u000ahttps://t.co/WrQyw0hLzT
p2164
sg156
I00
sg157
Nsg56
L662286532041179137L
sg158
I0
sg159
V<a href="http://www.stocknewswires.com" rel="nofollow">StockNewsWires</a>
p2165
sg161
I00
sg162
Nsg64
(dp2166
g164
(lp2167
(dp2168
g39
(lp2169
I0
aI6
asg154
VLBTYK
p2170
sa(dp2171
g39
(lp2172
I7
aI11
asg154
VGGP
p2173
sa(dp2174
g39
(lp2175
I12
aI16
asg154
VAPD
p2176
sasg169
(lp2177
sg171
(lp2178
sg35
(lp2179
(dp2180
g33
Vhttps://t.co/WrQyw0hLzT
p2181
sg39
(lp2182
I86
aI109
asg41
Vhttp://StockNewsHour.com/lbtyk-ggp-apd-three-stocks-bring-out-optimists-liberty-global-nasdaqlbtyk/
p2183
sg43
VStockNewsHour.com/lbtyk-ggp-apd-\u2026
p2184
sassg185
Nsg186
Nsg187
I0
sg68
V662286532041179137
p2185
sg189
I00
sg190
g2139
sg191
Nsg192
Nsg193
I00
sg90
g2159
sg98
VThu Nov 05 15:13:08 +0000 2015
p2186
sg195
Nsg196
Nsg197
(dp2187
g199
Vde
p2188
sg201
Vrecent
p2189
sssg203
g2187
sg204
Nsg205
Nsg31
g2166
sg206
Nsg207
Nsg110
g2185
sg208
I00
sg209
Nsg210
I0
sg211
Nsbag0
(g4
g5
Ntp2190
Rp2191
(dp2192
g9
I00
sg10
Nsg11
I00
sg12
V$LBTYK $TSN:\u000a\u000aActive Stocks Watch List: Mas Tec, Inc. (NYSE:MTZ), Liberty Global \u2026:\u000a\u000ahttps://t.co/mU7bxqea5w
p2193
sg14
Vhttp://www.stocknewswires.com
p2194
sg16
I00
sg17
I00
sg18
Nsg19
g0
(g20
g5
Ntp2195
Rp2196
(dp2197
g24
I00
sg25
I00
sg26
I01
sg27
VDAECF4
p2198
sg29
L2341445778L
sg30
I00
sg31
(dp2199
g45
(dp2200
g35
(lp2201
sssg48
Vhttps://pbs.twimg.com/profile_images/542238326397227008/UfZ0ulTf_normal.jpeg
p2202
sg50
(dp2203
g52
I00
sg53
I00
sg54
I01
sg55
I00
sg56
L2341445778L
sg57
Vhttps://abs.twimg.com/images/themes/theme2/bg.gif
p2204
sg59
I00
sg60
V663B12
p2205
sg62
g2202
sg63
g2198
sg64
g2199
sg65
I660
sg66
VC6E2EE
p2206
sg68
V2341445778
p2207
sg70
VC6E2EE
p2208
sg72
I107
sg73
I00
sg74
I-14400
sg75
I236872
sg45
VInvest like a fish
p2209
sg77
I9
sg78
VUnited States
p2210
sg80
V1F98C7
p2211
sg82
Vhttp://pbs.twimg.com/profile_images/542238326397227008/UfZ0ulTf_normal.jpeg
p2212
sg84
I00
sg85
I00
sg86
Vhttp://abs.twimg.com/images/themes/theme2/bg.gif
p2213
sg88
VStockNewsWires
p2214
sg90
Ven
p2215
sg92
I00
sg93
I0
sg94
VStockNewsWires
p2216
sg96
I00
sg33
Nsg98
VThu Feb 13 05:31:52 +0000 2014
p2217
sg100
I00
sg101
VAtlantic Time (Canada)
p2218
sg103
I00
sg104
I00
sg105
I00
ssg106
I00
sg107
g2205
sg108
I660
sg109
g2206
sg110
g2207
sg111
I00
sg112
I107
sg113
I00
sg114
I-14400
sg115
I236872
sg116
g2209
sg117
I9
sg118
g2210
sg119
g2211
sg120
g2212
sg121
I00
sg122
I00
sg123
g2208
sg124
g2213
sg125
g2214
sg126
g2215
sg127
I00
sg128
I00
sg129
I0
sg130
g2216
sg131
Nsg132
g133
(S'\x07\xde\x02\r\x05\x1f4\x00\x00\x00'
p2219
tp2220
Rp2221
sg137
g2204
sg138
g2218
sg139
I00
sg140
I00
sg141
I00
sbsg142
Nsg29
L662279230986801153L
sg143
I1
sg144
VStockNewsWires
p2222
sg126
Ven
p2223
sg147
g2196
sg132
g133
(S'\x07\xdf\x0b\x05\x0e,\x07\x00\x00\x00'
p2224
tp2225
Rp2226
sg50
(dp2227
g152
Nsg153
I00
sg154
V$LBTYK $TSN:\u000a\u000aActive Stocks Watch List: Mas Tec, Inc. (NYSE:MTZ), Liberty Global \u2026:\u000a\u000ahttps://t.co/mU7bxqea5w
p2228
sg156
I00
sg157
Nsg56
L662279230986801153L
sg158
I1
sg159
V<a href="http://www.stocknewswires.com" rel="nofollow">StockNewsWires</a>
p2229
sg161
I00
sg162
Nsg64
(dp2230
g164
(lp2231
(dp2232
g39
(lp2233
I0
aI6
asg154
VLBTYK
p2234
sa(dp2235
g39
(lp2236
I7
aI11
asg154
VTSN
p2237
sasg169
(lp2238
sg171
(lp2239
sg35
(lp2240
(dp2241
g33
Vhttps://t.co/mU7bxqea5w
p2242
sg39
(lp2243
I85
aI108
asg41
Vhttp://StockNewsHour.com/lbtyk-tsn-active-stocks-watch-list-mas-tec-inc-nysemtz-liberty-global/
p2244
sg43
VStockNewsHour.com/lbtyk-tsn-acti\u2026
p2245
sassg185
Nsg186
Nsg187
I0
sg68
V662279230986801153
p2246
sg189
I00
sg190
g2203
sg191
Nsg192
Nsg193
I00
sg90
g2223
sg98
VThu Nov 05 14:44:07 +0000 2015
p2247
sg195
Nsg196
Nsg197
(dp2248
g199
Ven
p2249
sg201
Vrecent
p2250
sssg203
g2248
sg204
Nsg205
Nsg31
g2230
sg206
Nsg207
Nsg110
g2246
sg208
I00
sg209
Nsg210
I0
sg211
Nsbag0
(g4
g5
Ntp2251
Rp2252
(dp2253
g9
I00
sg10
Nsg11
I00
sg12
VLiberty Global plc, $LBTYK, Target: 43.92 (-0.63%).\u000ahttps://t.co/MhX0DSumHl  #Liberty #Global
p2254
sg14
Vhttp://www.eventstrend.com/
p2255
sg16
I00
sg17
I00
sg18
Nsg19
g0
(g20
g5
Ntp2256
Rp2257
(dp2258
g24
I00
sg25
I00
sg26
I01
sg27
VDDEEF6
p2259
sg29
L3803301083L
sg30
I00
sg31
(dp2260
g33
(dp2261
g35
(lp2262
(dp2263
g33
Vhttp://t.co/DzUno6hxyF
p2264
sg39
(lp2265
I0
aI22
asg41
Vhttp://EventsTrend.com
p2266
sg43
VEventsTrend.com
p2267
sassg45
(dp2268
g35
(lp2269
sssg48
Vhttps://pbs.twimg.com/profile_images/648768997580783616/taq5y0RZ_normal.jpg
p2270
sg50
(dp2271
g52
I00
sg53
I00
sg54
I01
sg55
I00
sg56
L3803301083L
sg57
Vhttps://abs.twimg.com/images/themes/theme1/bg.png
p2272
sg59
I00
sg60
V333333
p2273
sg62
g2270
sg63
g2259
sg64
g2260
sg65
I440
sg66
VC0DEED
p2274
sg68
V3803301083
p2275
sg70
VC0DEED
p2276
sg72
I33
sg73
I00
sg74
I-39600
sg75
I5136
sg45
VFollow our extreme analytical algorithms and make a profit!
p2277
sg77
I901
sg78
VUSA
p2278
sg80
V0084B4
p2279
sg82
Vhttp://pbs.twimg.com/profile_images/648768997580783616/taq5y0RZ_normal.jpg
p2280
sg84
I00
sg85
I00
sg86
Vhttp://abs.twimg.com/images/themes/theme1/bg.png
p2281
sg88
Veventstrendcom
p2282
sg90
Ven
p2283
sg92
I00
sg93
I0
sg94
VEventsTrend_com
p2284
sg96
I00
sg33
Vhttp://t.co/DzUno6hxyF
p2285
sg98
VMon Sep 28 11:42:34 +0000 2015
p2286
sg100
I00
sg101
VInternational Date Line West
p2287
sg103
I00
sg104
I01
sg105
I00
ssg106
I00
sg107
g2273
sg108
I440
sg109
g2274
sg110
g2275
sg111
I00
sg112
I33
sg113
I00
sg114
I-39600
sg115
I5136
sg116
g2277
sg117
I901
sg118
g2278
sg119
g2279
sg120
g2280
sg121
I00
sg122
I00
sg123
g2276
sg124
g2281
sg125
g2282
sg126
g2283
sg127
I00
sg128
I00
sg129
I0
sg130
g2284
sg131
g2285
sg132
g133
(S'\x07\xdf\t\x1c\x0b*"\x00\x00\x00'
p2288
tp2289
Rp2290
sg137
g2272
sg138
g2287
sg139
I00
sg140
I01
sg141
I00
sbsg142
Nsg29
L662274911264608256L
sg143
I0
sg144
Veventstrend
p2291
sg126
Vsk
p2292
sg147
g2257
sg132
g133
(S'\x07\xdf\x0b\x05\x0e\x1a9\x00\x00\x00'
p2293
tp2294
Rp2295
sg50
(dp2296
g152
Nsg153
I00
sg154
VLiberty Global plc, $LBTYK, Target: 43.92 (-0.63%).\u000ahttps://t.co/MhX0DSumHl  #Liberty #Global
p2297
sg156
I00
sg157
Nsg56
L662274911264608256L
sg158
I0
sg159
V<a href="http://www.eventstrend.com/" rel="nofollow">eventstrend</a>
p2298
sg161
I00
sg162
Nsg64
(dp2299
g164
(lp2300
(dp2301
g39
(lp2302
I20
aI26
asg154
VLBTYK
p2303
sasg169
(lp2304
sg171
(lp2305
(dp2306
g39
(lp2307
I77
aI85
asg154
VLiberty
p2308
sa(dp2309
g39
(lp2310
I86
aI93
asg154
VGlobal
p2311
sasg35
(lp2312
(dp2313
g33
Vhttps://t.co/MhX0DSumHl
p2314
sg39
(lp2315
I52
aI75
asg41
Vhttp://EventsTrend.com/index.php?r=search/view&id=4944
p2316
sg43
VEventsTrend.com/index.php?r=se\u2026
p2317
sassg185
Nsg186
Nsg187
I0
sg68
V662274911264608256
p2318
sg189
I00
sg190
g2271
sg191
Nsg192
Nsg193
I00
sg90
g2292
sg98
VThu Nov 05 14:26:57 +0000 2015
p2319
sg195
Nsg196
Nsg197
(dp2320
g199
Vsk
p2321
sg201
Vrecent
p2322
sssg203
g2320
sg204
Nsg205
Nsg31
g2299
sg206
Nsg207
Nsg110
g2318
sg208
I00
sg209
Nsg210
I0
sg211
Nsbag0
(g4
g5
Ntp2323
Rp2324
(dp2325
g9
I00
sg10
Nsg11
I00
sg12
V#Update US Earning Release for today $CELG $AZN $DUK $BCE $ENB $CNQ $MGA $TU $DIS $KHC $EOG $LBTYA $MNST $ED $SWKS $LBTYK
p2326
sg14
Vhttp://twitter.com
p2327
sg17
I00
sg18
Nsg19
g0
(g20
g5
Ntp2328
Rp2329
(dp2330
g24
I00
sg25
I00
sg26
I01
sg27
VDDEEF6
p2331
sg29
L2874447922L
sg30
I00
sg31
(dp2332
g33
(dp2333
g35
(lp2334
(dp2335
g33
Vhttp://t.co/leEv2J8sZN
p2336
sg39
(lp2337
I0
aI22
asg41
Vhttp://www.investhuddle.com
p2338
sg43
Vinvesthuddle.com
p2339
sassg45
(dp2340
g35
(lp2341
sssg48
Vhttps://pbs.twimg.com/profile_images/657230593013489664/nCO8M6Jt_normal.jpg
p2342
sg50
(dp2343
g52
I00
sg53
I00
sg54
I01
sg55
I00
sg56
L2874447922L
sg57
Vhttps://abs.twimg.com/images/themes/theme1/bg.png
p2344
sg59
I00
sg60
V333333
p2345
sg62
g2342
sg63
g2331
sg64
g2332
sg65
I65
sg66
VC0DEED
p2346
sg68
V2874447922
p2347
sg70
VC0DEED
p2348
sg72
I8
sg73
I00
sg74
Nsg75
I766
sg45
Va gathering to motivate, strategize and update your investments
p2349
sg77
I158
sg78
g297
sg80
V0084B4
p2350
sg82
Vhttp://pbs.twimg.com/profile_images/657230593013489664/nCO8M6Jt_normal.jpg
p2351
sg84
I00
sg85
I00
sg686
Vhttps://pbs.twimg.com/profile_banners/2874447922/1431997203
p2352
sg86
Vhttp://abs.twimg.com/images/themes/theme1/bg.png
p2353
sg88
VInvestHuddle
p2354
sg90
Ven
p2355
sg92
I00
sg93
I37
sg94
VInvest Huddle
p2356
sg96
I00
sg33
Vhttp://t.co/leEv2J8sZN
p2357
sg98
VWed Nov 12 23:23:44 +0000 2014
p2358
sg100
I00
sg101
Nsg103
I00
sg104
I01
sg105
I00
ssg106
I00
sg107
g2345
sg108
I65
sg109
g2346
sg110
g2347
sg111
I00
sg112
I8
sg113
I00
sg114
Nsg115
I766
sg116
g2349
sg117
I158
sg118
g297
sg119
g2350
sg120
g2351
sg121
I00
sg122
I00
sg123
g2348
sg695
g2352
sg124
g2353
sg125
g2354
sg126
g2355
sg127
I00
sg128
I00
sg129
I37
sg130
g2356
sg131
g2357
sg132
g133
(S'\x07\xde\x0b\x0c\x17\x17,\x00\x00\x00'
p2359
tp2360
Rp2361
sg137
g2344
sg138
Nsg139
I00
sg140
I01
sg141
I00
sbsg142
Nsg29
L662228187959730177L
sg143
I0
sg144
VTwitter Web Client
p2362
sg126
Ven
p2363
sg147
g2329
sg132
g133
(S'\x07\xdf\x0b\x05\x0b\x15\x12\x00\x00\x00'
p2364
tp2365
Rp2366
sg50
(dp2367
g152
Nsg153
I00
sg154
g2326
sg156
I00
sg157
Nsg56
L662228187959730177L
sg158
I0
sg159
V<a href="http://twitter.com" rel="nofollow">Twitter Web Client</a>
p2368
sg161
I00
sg162
Nsg64
(dp2369
g164
(lp2370
(dp2371
g39
(lp2372
I37
aI42
asg154
VCELG
p2373
sa(dp2374
g39
(lp2375
I43
aI47
asg154
VAZN
p2376
sa(dp2377
g39
(lp2378
I48
aI52
asg154
VDUK
p2379
sa(dp2380
g39
(lp2381
I53
aI57
asg154
VBCE
p2382
sa(dp2383
g39
(lp2384
I58
aI62
asg154
VENB
p2385
sa(dp2386
g39
(lp2387
I63
aI67
asg154
VCNQ
p2388
sa(dp2389
g39
(lp2390
I68
aI72
asg154
VMGA
p2391
sa(dp2392
g39
(lp2393
I73
aI76
asg154
VTU
p2394
sa(dp2395
g39
(lp2396
I77
aI81
asg154
VDIS
p2397
sa(dp2398
g39
(lp2399
I82
aI86
asg154
VKHC
p2400
sa(dp2401
g39
(lp2402
I87
aI91
asg154
VEOG
p2403
sa(dp2404
g39
(lp2405
I92
aI98
asg154
VLBTYA
p2406
sa(dp2407
g39
(lp2408
I99
aI104
asg154
VMNST
p2409
sa(dp2410
g39
(lp2411
I105
aI108
asg154
VED
p2412
sa(dp2413
g39
(lp2414
I109
aI114
asg154
VSWKS
p2415
sa(dp2416
g39
(lp2417
I115
aI121
asg154
VLBTYK
p2418
sasg169
(lp2419
sg171
(lp2420
(dp2421
g39
(lp2422
I0
aI7
asg154
VUpdate
p2423
sasg35
(lp2424
ssg185
Nsg186
Nsg187
I0
sg68
V662228187959730177
p2425
sg189
I00
sg190
g2343
sg191
Nsg192
Nsg90
g2363
sg98
VThu Nov 05 11:21:18 +0000 2015
p2426
sg195
Nsg196
Nsg197
(dp2427
g199
Ven
p2428
sg201
Vrecent
p2429
sssg203
g2427
sg204
Nsg205
Nsg31
g2369
sg206
Nsg207
Nsg110
g2425
sg208
I00
sg209
Nsg210
I0
sg211
Nsbag0
(g4
g5
Ntp2430
Rp2431
(dp2432
g9
I00
sg10
Nsg11
I00
sg12
VImp catalysts 4 MEIP &amp; CALA in d cmg week Here is DD 4 investors:https://t.co/lwSyWTxOEB $TWIN $PDS $GLP $GASS $LBTYK $FPP
p2433
sg14
Vhttp://twittimer.com
p2434
sg16
I00
sg17
I00
sg18
Nsg19
g0
(g20
g5
Ntp2435
Rp2436
(dp2437
g24
I00
sg25
I01
sg26
I00
sg27
V000000
p2438
sg29
L3518191635L
sg30
I00
sg31
(dp2439
g33
(dp2440
g35
(lp2441
(dp2442
g33
Vhttps://t.co/ot2Kl5nyub
p2443
sg39
(lp2444
I0
aI23
asg41
Vhttps://groups.google.com/forum/#!forum/jbem777
p2445
sg43
Vgroups.google.com/forum/#!forum/\u2026
p2446
sassg45
(dp2447
g35
(lp2448
sssg48
Vhttps://pbs.twimg.com/profile_images/638885869433196544/C975RWXJ_normal.jpg
p2449
sg50
(dp2450
g52
I00
sg53
I01
sg54
I00
sg55
I00
sg56
L3518191635L
sg57
Vhttps://abs.twimg.com/images/themes/theme1/bg.png
p2451
sg59
I00
sg60
V000000
p2452
sg62
g2449
sg63
g2438
sg64
g2439
sg65
I28
sg66
V000000
p2453
sg68
V3518191635
p2454
sg70
V000000
p2455
sg72
I1
sg73
I00
sg74
I-28800
sg75
I1505
sg45
VHealthcare Stocks
p2456
sg77
I25
sg78
g297
sg80
V89C9FA
p2457
sg82
Vhttp://pbs.twimg.com/profile_images/638885869433196544/C975RWXJ_normal.jpg
p2458
sg84
I00
sg85
I00
sg86
Vhttp://abs.twimg.com/images/themes/theme1/bg.png
p2459
sg88
Vjbemstocks
p2460
sg90
Ven
p2461
sg92
I00
sg93
I0
sg94
VDUE DILIGENCE
p2462
sg96
I00
sg33
Vhttps://t.co/ot2Kl5nyub
p2463
sg98
VWed Sep 02 01:23:46 +0000 2015
p2464
sg100
I00
sg101
VPacific Time (US & Canada)
p2465
sg103
I00
sg104
I00
sg105
I00
ssg106
I00
sg107
g2452
sg108
I28
sg109
g2453
sg110
g2454
sg111
I00
sg112
I1
sg113
I00
sg114
I-28800
sg115
I1505
sg116
g2456
sg117
I25
sg118
g297
sg119
g2457
sg120
g2458
sg121
I00
sg122
I00
sg123
g2455
sg124
g2459
sg125
g2460
sg126
g2461
sg127
I00
sg128
I00
sg129
I0
sg130
g2462
sg131
g2463
sg132
g133
(S'\x07\xdf\t\x02\x01\x17.\x00\x00\x00'
p2466
tp2467
Rp2468
sg137
g2451
sg138
g2465
sg139
I00
sg140
I00
sg141
I00
sbsg142
Nsg29
L662079672931385344L
sg143
I0
sg144
VTwittimer
p2469
sg126
Ven
p2470
sg147
g2436
sg132
g133
(S'\x07\xdf\x0b\x05\x01\x1f\t\x00\x00\x00'
p2471
tp2472
Rp2473
sg50
(dp2474
g152
Nsg153
I00
sg154
g2433
sg156
I00
sg157
Nsg56
L662079672931385344L
sg158
I0
sg159
V<a href="http://twittimer.com" rel="nofollow">Twittimer</a>
p2475
sg161
I00
sg162
Nsg64
(dp2476
g164
(lp2477
(dp2478
g39
(lp2479
I93
aI98
asg154
VTWIN
p2480
sa(dp2481
g39
(lp2482
I99
aI103
asg154
VPDS
p2483
sa(dp2484
g39
(lp2485
I104
aI108
asg154
VGLP
p2486
sa(dp2487
g39
(lp2488
I109
aI114
asg154
VGASS
p2489
sa(dp2490
g39
(lp2491
I115
aI121
asg154
VLBTYK
p2492
sa(dp2493
g39
(lp2494
I122
aI126
asg154
VFPP
p2495
sasg169
(lp2496
sg171
(lp2497
sg35
(lp2498
(dp2499
g33
Vhttps://t.co/lwSyWTxOEB
p2500
sg39
(lp2501
I69
aI92
asg41
Vhttp://bit.ly/1KjZ8cR
p2502
sg43
Vbit.ly/1KjZ8cR
p2503
sassg185
Nsg186
Nsg187
I0
sg68
V662079672931385344
p2504
sg189
I00
sg190
g2450
sg191
Nsg192
Nsg193
I00
sg90
g2470
sg98
VThu Nov 05 01:31:09 +0000 2015
p2505
sg195
Nsg196
Nsg197
(dp2506
g199
Ven
p2507
sg201
Vrecent
p2508
sssg203
g2506
sg204
Nsg205
Nsg31
g2476
sg206
Nsg207
Nsg110
g2504
sg208
I00
sg209
Nsg210
I0
sg211
Nsbag0
(g4
g5
Ntp2509
Rp2510
(dp2511
g9
I00
sg10
Nsg11
I00
sg12
VImp catalysts 4 MEIP &amp; CALA in d cmg week Here is DD 4 investors:https://t.co/lwSyWTxOEB $LBTYK $LBY $LC $LCI $LCM $LCNB $LCUT $LD
p2512
sg14
Vhttp://twittimer.com
p2513
sg16
I00
sg17
I00
sg18
Nsg19
g0
(g20
g5
Ntp2514
Rp2515
(dp2516
g24
I00
sg25
I01
sg26
I00
sg27
V000000
p2517
sg29
L3518191635L
sg30
I00
sg31
(dp2518
g33
(dp2519
g35
(lp2520
(dp2521
g33
Vhttps://t.co/ot2Kl5nyub
p2522
sg39
(lp2523
I0
aI23
asg41
Vhttps://groups.google.com/forum/#!forum/jbem777
p2524
sg43
Vgroups.google.com/forum/#!forum/\u2026
p2525
sassg45
(dp2526
g35
(lp2527
sssg48
Vhttps://pbs.twimg.com/profile_images/638885869433196544/C975RWXJ_normal.jpg
p2528
sg50
(dp2529
g52
I00
sg53
I01
sg54
I00
sg55
I00
sg56
L3518191635L
sg57
Vhttps://abs.twimg.com/images/themes/theme1/bg.png
p2530
sg59
I00
sg60
V000000
p2531
sg62
g2528
sg63
g2517
sg64
g2518
sg65
I28
sg66
V000000
p2532
sg68
V3518191635
p2533
sg70
V000000
p2534
sg72
I1
sg73
I00
sg74
I-28800
sg75
I1505
sg45
VHealthcare Stocks
p2535
sg77
I25
sg78
g297
sg80
V89C9FA
p2536
sg82
Vhttp://pbs.twimg.com/profile_images/638885869433196544/C975RWXJ_normal.jpg
p2537
sg84
I00
sg85
I00
sg86
Vhttp://abs.twimg.com/images/themes/theme1/bg.png
p2538
sg88
Vjbemstocks
p2539
sg90
Ven
p2540
sg92
I00
sg93
I0
sg94
VDUE DILIGENCE
p2541
sg96
I00
sg33
Vhttps://t.co/ot2Kl5nyub
p2542
sg98
VWed Sep 02 01:23:46 +0000 2015
p2543
sg100
I00
sg101
VPacific Time (US & Canada)
p2544
sg103
I00
sg104
I00
sg105
I00
ssg106
I00
sg107
g2531
sg108
I28
sg109
g2532
sg110
g2533
sg111
I00
sg112
I1
sg113
I00
sg114
I-28800
sg115
I1505
sg116
g2535
sg117
I25
sg118
g297
sg119
g2536
sg120
g2537
sg121
I00
sg122
I00
sg123
g2534
sg124
g2538
sg125
g2539
sg126
g2540
sg127
I00
sg128
I00
sg129
I0
sg130
g2541
sg131
g2542
sg132
g133
(S'\x07\xdf\t\x02\x01\x17.\x00\x00\x00'
p2545
tp2546
Rp2547
sg137
g2530
sg138
g2544
sg139
I00
sg140
I00
sg141
I00
sbsg142
Nsg29
L661977218214563841L
sg143
I0
sg144
VTwittimer
p2548
sg126
Vfr
p2549
sg147
g2515
sg132
g133
(S'\x07\xdf\x0b\x04\x12,\x02\x00\x00\x00'
p2550
tp2551
Rp2552
sg50
(dp2553
g152
Nsg153
I00
sg154
g2512
sg156
I00
sg157
Nsg56
L661977218214563841L
sg158
I0
sg159
V<a href="http://twittimer.com" rel="nofollow">Twittimer</a>
p2554
sg161
I00
sg162
Nsg64
(dp2555
g164
(lp2556
(dp2557
g39
(lp2558
I93
aI99
asg154
VLBTYK
p2559
sa(dp2560
g39
(lp2561
I100
aI104
asg154
VLBY
p2562
sa(dp2563
g39
(lp2564
I105
aI108
asg154
VLC
p2565
sa(dp2566
g39
(lp2567
I109
aI113
asg154
VLCI
p2568
sa(dp2569
g39
(lp2570
I114
aI118
asg154
VLCM
p2571
sa(dp2572
g39
(lp2573
I119
aI124
asg154
VLCNB
p2574
sa(dp2575
g39
(lp2576
I125
aI130
asg154
VLCUT
p2577
sa(dp2578
g39
(lp2579
I131
aI134
asg154
VLD
p2580
sasg169
(lp2581
sg171
(lp2582
sg35
(lp2583
(dp2584
g33
Vhttps://t.co/lwSyWTxOEB
p2585
sg39
(lp2586
I69
aI92
asg41
Vhttp://bit.ly/1KjZ8cR
p2587
sg43
Vbit.ly/1KjZ8cR
p2588
sassg185
Nsg186
Nsg187
I0
sg68
V661977218214563841
p2589
sg189
I00
sg190
g2529
sg191
Nsg192
Nsg193
I00
sg90
g2549
sg98
VWed Nov 04 18:44:02 +0000 2015
p2590
sg195
Nsg196
Nsg197
(dp2591
g199
Vfr
p2592
sg201
Vrecent
p2593
sssg203
g2591
sg204
Nsg205
Nsg31
g2555
sg206
Nsg207
Nsg110
g2589
sg208
I00
sg209
Nsg210
I0
sg211
Nsbag0
(g4
g5
Ntp2594
Rp2595
(dp2596
g9
I00
sg10
Nsg11
I00
sg12
VEU regulators extend probe into Liberty Global-KPN Belgian deal https://t.co/iALRhBZ2Cl $LBTYA $KKPNY $LBTYB $LBTYK
p2597
sg14
Vhttp://twitter.com
p2598
sg16
I00
sg17
I00
sg18
Nsg19
g0
(g20
g5
Ntp2599
Rp2600
(dp2601
g24
I00
sg25
I00
sg26
I01
sg27
VDDEEF6
p2602
sg29
L3398300962L
sg30
I00
sg31
(dp2603
g45
(dp2604
g35
(lp2605
sssg48
Vhttps://abs.twimg.com/sticky/default_profile_images/default_profile_0_normal.png
p2606
sg50
(dp2607
g52
I00
sg53
I00
sg54
I01
sg55
I01
sg56
L3398300962L
sg57
Vhttps://abs.twimg.com/images/themes/theme1/bg.png
p2608
sg59
I00
sg60
V333333
p2609
sg62
g2606
sg63
g2602
sg64
g2603
sg65
I223
sg66
VC0DEED
p2610
sg68
V3398300962
p2611
sg70
VC0DEED
p2612
sg72
I245
sg73
I00
sg74
I0
sg75
I27036
sg45
VDCM, ECM, M&A, Private Equity & Venture Capital, Politics, Economy. RTs & Favs \u2260 Endorsements
p2613
sg77
I99
sg78
g297
sg80
V0084B4
p2614
sg82
Vhttp://abs.twimg.com/sticky/default_profile_images/default_profile_0_normal.png
p2615
sg84
I00
sg85
I00
sg86
Vhttp://abs.twimg.com/images/themes/theme1/bg.png
p2616
sg88
VNeO_Intel
p2617
sg90
Ven-gb
p2618
sg92
I00
sg93
I2068
sg94
VNeO Intelligence
p2619
sg96
I00
sg33
Nsg98
VSat Aug 01 04:57:44 +0000 2015
p2620
sg100
I00
sg101
VLondon
p2621
sg103
I00
sg104
I01
sg105
I00
ssg106
I00
sg107
g2609
sg108
I223
sg109
g2610
sg110
g2611
sg111
I01
sg112
I245
sg113
I00
sg114
I0
sg115
I27036
sg116
g2613
sg117
I99
sg118
g297
sg119
g2614
sg120
g2615
sg121
I00
sg122
I00
sg123
g2612
sg124
g2616
sg125
g2617
sg126
g2618
sg127
I00
sg128
I00
sg129
I2068
sg130
g2619
sg131
Nsg132
g133
(S'\x07\xdf\x08\x01\x049,\x00\x00\x00'
p2622
tp2623
Rp2624
sg137
g2608
sg138
g2621
sg139
I00
sg140
I01
sg141
I00
sbsg142
Nsg29
L661929047585329153L
sg143
I0
sg144
VTwitter Web Client
p2625
sg126
Vin
p2626
sg147
g2600
sg132
g133
(S'\x07\xdf\x0b\x04\x0f %\x00\x00\x00'
p2627
tp2628
Rp2629
sg50
(dp2630
g152
Nsg153
I00
sg154
g2597
sg156
I00
sg157
Nsg56
L661929047585329153L
sg158
I0
sg159
V<a href="http://twitter.com" rel="nofollow">Twitter Web Client</a>
p2631
sg161
I00
sg162
Nsg64
(dp2632
g164
(lp2633
(dp2634
g39
(lp2635
I88
aI94
asg154
VLBTYA
p2636
sa(dp2637
g39
(lp2638
I95
aI101
asg154
VKKPNY
p2639
sa(dp2640
g39
(lp2641
I102
aI108
asg154
VLBTYB
p2642
sa(dp2643
g39
(lp2644
I109
aI115
asg154
VLBTYK
p2645
sasg169
(lp2646
sg171
(lp2647
sg35
(lp2648
(dp2649
g33
Vhttps://t.co/iALRhBZ2Cl
p2650
sg39
(lp2651
I64
aI87
asg41
Vhttp://seekingalpha.com/news/2888306-eu-regulators-extend-probe-into-liberty-global-kpn-belgian-deal?source=tweet
p2652
sg43
Vseekingalpha.com/news/2888306-e\u2026
p2653
sassg185
Nsg186
Nsg187
I0
sg68
V661929047585329153
p2654
sg189
I00
sg190
g2607
sg191
Nsg192
Nsg193
I00
sg90
g2626
sg98
VWed Nov 04 15:32:37 +0000 2015
p2655
sg195
Nsg196
Nsg197
(dp2656
g199
Vin
p2657
sg201
Vrecent
p2658
sssg203
g2656
sg204
Nsg205
Nsg31
g2632
sg206
Nsg207
Nsg110
g2654
sg208
I00
sg209
Nsg210
I0
sg211
Nsbag0
(g4
g5
Ntp2659
Rp2660
(dp2661
g9
I00
sg10
Nsg11
I00
sg12
VLiberty Global plc, $LBTYK, Target: 43.95 (-1.32%).\u000ahttps://t.co/MhX0DSumHl  #Liberty #Global
p2662
sg14
Vhttp://www.eventstrend.com/
p2663
sg16
I00
sg17
I00
sg18
Nsg19
g0
(g20
g5
Ntp2664
Rp2665
(dp2666
g24
I00
sg25
I00
sg26
I01
sg27
VDDEEF6
p2667
sg29
L3803301083L
sg30
I00
sg31
(dp2668
g33
(dp2669
g35
(lp2670
(dp2671
g33
Vhttp://t.co/DzUno6hxyF
p2672
sg39
(lp2673
I0
aI22
asg41
Vhttp://EventsTrend.com
p2674
sg43
VEventsTrend.com
p2675
sassg45
(dp2676
g35
(lp2677
sssg48
Vhttps://pbs.twimg.com/profile_images/648768997580783616/taq5y0RZ_normal.jpg
p2678
sg50
(dp2679
g52
I00
sg53
I00
sg54
I01
sg55
I00
sg56
L3803301083L
sg57
Vhttps://abs.twimg.com/images/themes/theme1/bg.png
p2680
sg59
I00
sg60
V333333
p2681
sg62
g2678
sg63
g2667
sg64
g2668
sg65
I440
sg66
VC0DEED
p2682
sg68
V3803301083
p2683
sg70
VC0DEED
p2684
sg72
I33
sg73
I00
sg74
I-39600
sg75
I5136
sg45
VFollow our extreme analytical algorithms and make a profit!
p2685
sg77
I901
sg78
VUSA
p2686
sg80
V0084B4
p2687
sg82
Vhttp://pbs.twimg.com/profile_images/648768997580783616/taq5y0RZ_normal.jpg
p2688
sg84
I00
sg85
I00
sg86
Vhttp://abs.twimg.com/images/themes/theme1/bg.png
p2689
sg88
Veventstrendcom
p2690
sg90
Ven
p2691
sg92
I00
sg93
I0
sg94
VEventsTrend_com
p2692
sg96
I00
sg33
Vhttp://t.co/DzUno6hxyF
p2693
sg98
VMon Sep 28 11:42:34 +0000 2015
p2694
sg100
I00
sg101
VInternational Date Line West
p2695
sg103
I00
sg104
I01
sg105
I00
ssg106
I00
sg107
g2681
sg108
I440
sg109
g2682
sg110
g2683
sg111
I00
sg112
I33
sg113
I00
sg114
I-39600
sg115
I5136
sg116
g2685
sg117
I901
sg118
g2686
sg119
g2687
sg120
g2688
sg121
I00
sg122
I00
sg123
g2684
sg124
g2689
sg125
g2690
sg126
g2691
sg127
I00
sg128
I00
sg129
I0
sg130
g2692
sg131
g2693
sg132
g133
(S'\x07\xdf\t\x1c\x0b*"\x00\x00\x00'
p2696
tp2697
Rp2698
sg137
g2680
sg138
g2695
sg139
I00
sg140
I01
sg141
I00
sbsg142
Nsg29
L661919093084131328L
sg143
I0
sg144
Veventstrend
p2699
sg126
Vsk
p2700
sg147
g2665
sg132
g133
(S'\x07\xdf\x0b\x04\x0e5\x04\x00\x00\x00'
p2701
tp2702
Rp2703
sg50
(dp2704
g152
Nsg153
I00
sg154
VLiberty Global plc, $LBTYK, Target: 43.95 (-1.32%).\u000ahttps://t.co/MhX0DSumHl  #Liberty #Global
p2705
sg156
I00
sg157
Nsg56
L661919093084131328L
sg158
I0
sg159
V<a href="http://www.eventstrend.com/" rel="nofollow">eventstrend</a>
p2706
sg161
I00
sg162
Nsg64
(dp2707
g164
(lp2708
(dp2709
g39
(lp2710
I20
aI26
asg154
VLBTYK
p2711
sasg169
(lp2712
sg171
(lp2713
(dp2714
g39
(lp2715
I77
aI85
asg154
VLiberty
p2716
sa(dp2717
g39
(lp2718
I86
aI93
asg154
VGlobal
p2719
sasg35
(lp2720
(dp2721
g33
Vhttps://t.co/MhX0DSumHl
p2722
sg39
(lp2723
I52
aI75
asg41
Vhttp://EventsTrend.com/index.php?r=search/view&id=4944
p2724
sg43
VEventsTrend.com/index.php?r=se\u2026
p2725
sassg185
Nsg186
Nsg187
I0
sg68
V661919093084131328
p2726
sg189
I00
sg190
g2679
sg191
Nsg192
Nsg193
I00
sg90
g2700
sg98
VWed Nov 04 14:53:04 +0000 2015
p2727
sg195
Nsg196
Nsg197
(dp2728
g199
Vsk
p2729
sg201
Vrecent
p2730
sssg203
g2728
sg204
Nsg205
Nsg31
g2707
sg206
Nsg207
Nsg110
g2726
sg208
I00
sg209
Nsg210
I0
sg211
Nsbag0
(g4
g5
Ntp2731
Rp2732
(dp2733
g9
I00
sg10
Nsg11
I00
sg12
VActive Stocks News Review: https://t.co/4pOPJJnWa4 $TMUS $LBTYK $LVS
p2734
sg14
Vhttp://stocktwits.com
p2735
sg16
I00
sg17
I00
sg18
Nsg19
g0
(g20
g5
Ntp2736
Rp2737
(dp2738
g24
I00
sg25
I00
sg26
I00
sg27
V000000
p2739
sg29
L3020048952L
sg30
I00
sg31
(dp2740
g33
(dp2741
g35
(lp2742
(dp2743
g33
Vhttp://t.co/BUC8K0UlBE
p2744
sg39
(lp2745
I0
aI22
asg41
Vhttp://www.stocksnewswire.com
p2746
sg43
Vstocksnewswire.com
p2747
sassg45
(dp2748
g35
(lp2749
(dp2750
g33
Vhttp://t.co/pYrXTi95DQ
p2751
sg39
(lp2752
I0
aI22
asg41
Vhttp://Stocksnewswire.com
p2753
sg43
VStocksnewswire.com
p2754
sasssg48
Vhttps://pbs.twimg.com/profile_images/592260894677082112/bZSNf46B_normal.jpg
p2755
sg50
(dp2756
g52
I00
sg53
I00
sg54
I00
sg55
I00
sg56
L3020048952L
sg57
Vhttps://abs.twimg.com/images/themes/theme1/bg.png
p2757
sg59
I00
sg60
V000000
p2758
sg62
g2755
sg63
g2739
sg64
g2740
sg65
I446
sg66
V000000
p2759
sg68
V3020048952
p2760
sg70
V89C9FA
p2761
sg72
I16
sg73
I00
sg74
I14400
sg75
I3556
sg45
Vhttp://t.co/pYrXTi95DQ provides company's latest news, in order to assist investors as trading decisions based on news developments are nothing new.
p2762
sg77
I1974
sg78
g297
sg80
V019877
p2763
sg82
Vhttp://pbs.twimg.com/profile_images/592260894677082112/bZSNf46B_normal.jpg
p2764
sg84
I00
sg85
I00
sg686
Vhttps://pbs.twimg.com/profile_banners/3020048952/1430040946
p2765
sg86
Vhttp://abs.twimg.com/images/themes/theme1/bg.png
p2766
sg88
Vstocksnewswire
p2767
sg90
Ven
p2768
sg92
I00
sg93
I588
sg94
VStocks Newswire
p2769
sg96
I00
sg33
Vhttp://t.co/BUC8K0UlBE
p2770
sg98
VSat Feb 14 19:53:10 +0000 2015
p2771
sg100
I00
sg101
VBaku
p2772
sg103
I00
sg104
I00
sg105
I00
ssg106
I00
sg107
g2758
sg108
I446
sg109
g2759
sg110
g2760
sg111
I00
sg112
I16
sg113
I00
sg114
I14400
sg115
I3556
sg116
g2762
sg117
I1974
sg118
g297
sg119
g2763
sg120
g2764
sg121
I00
sg122
I00
sg123
g2761
sg695
g2765
sg124
g2766
sg125
g2767
sg126
g2768
sg127
I00
sg128
I00
sg129
I588
sg130
g2769
sg131
g2770
sg132
g133
(S'\x07\xdf\x02\x0e\x135\n\x00\x00\x00'
p2773
tp2774
Rp2775
sg137
g2757
sg138
g2772
sg139
I00
sg140
I00
sg141
I00
sbsg142
Nsg29
L661906412830781440L
sg143
I0
sg144
VStockTwits Web
p2776
sg126
Vlt
p2777
sg147
g2737
sg132
g133
(S'\x07\xdf\x0b\x04\x0e\x02)\x00\x00\x00'
p2778
tp2779
Rp2780
sg50
(dp2781
g152
Nsg153
I00
sg154
g2734
sg156
I00
sg157
Nsg56
L661906412830781440L
sg158
I0
sg159
V<a href="http://stocktwits.com" rel="nofollow">StockTwits Web</a>
p2782
sg161
I00
sg162
Nsg64
(dp2783
g164
(lp2784
(dp2785
g39
(lp2786
I51
aI56
asg154
VTMUS
p2787
sa(dp2788
g39
(lp2789
I57
aI63
asg154
VLBTYK
p2790
sa(dp2791
g39
(lp2792
I64
aI68
asg154
VLVS
p2793
sasg169
(lp2794
sg171
(lp2795
sg35
(lp2796
(dp2797
g33
Vhttps://t.co/4pOPJJnWa4
p2798
sg39
(lp2799
I27
aI50
asg41
Vhttp://stks.co/e2n1t
p2800
sg43
Vstks.co/e2n1t
p2801
sassg185
Nsg186
Nsg187
I0
sg68
V661906412830781440
p2802
sg189
I00
sg190
g2756
sg191
Nsg192
Nsg193
I00
sg90
g2777
sg98
VWed Nov 04 14:02:41 +0000 2015
p2803
sg195
Nsg196
Nsg197
(dp2804
g199
Vlt
p2805
sg201
Vrecent
p2806
sssg203
g2804
sg204
Nsg205
Nsg31
g2783
sg206
Nsg207
Nsg110
g2802
sg208
I00
sg209
Nsg210
I0
sg211
Nsbag0
(g4
g5
Ntp2807
Rp2808
(dp2809
g9
I00
sg10
Nsg11
I00
sg12
Vclayton: LBTYK 43.86 Liberty Global $LBTYK added to my https://t.co/DYETz1rtUC
p2810
sg14
Vhttp://dlvr.it
p2811
sg16
I00
sg17
I00
sg18
Nsg19
g0
(g20
g5
Ntp2812
Rp2813
(dp2814
g24
I00
sg25
I00
sg26
I01
sg27
VEFEFEF
p2815
sg29
I386787305
sg30
I00
sg31
(dp2816
g33
(dp2817
g35
(lp2818
(dp2819
g33
Vhttp://t.co/iooOMkelYs
p2820
sg39
(lp2821
I0
aI22
asg41
Vhttp://InvestorsHangout.com
p2822
sg43
VInvestorsHangout.com
p2823
sassg45
(dp2824
g35
(lp2825
sssg48
Vhttps://pbs.twimg.com/profile_images/1873655866/IHsmall_normal.jpg
p2826
sg50
(dp2827
g52
I00
sg53
I00
sg54
I01
sg55
I00
sg56
I386787305
sg57
Vhttps://abs.twimg.com/images/themes/theme14/bg.gif
p2828
sg59
I00
sg60
V333333
p2829
sg62
g2826
sg63
g2815
sg64
g2816
sg65
I3240
sg66
VFFFFFF
p2830
sg68
V386787305
p2831
sg70
V131516
p2832
sg72
I235
sg73
I00
sg74
I-18000
sg75
I399303
sg45
VNYSE, NASDAQ, AMEX, OTCBB, Pink Sheet, Penny Stocks, Stock Message Boards, Stock Forum, Investment Board, Investment Forum, Stock Charts, Stock Quotes
p2833
sg77
I2006
sg78
VLas Vegas
p2834
sg80
V009999
p2835
sg82
Vhttp://pbs.twimg.com/profile_images/1873655866/IHsmall_normal.jpg
p2836
sg84
I00
sg85
I00
sg86
Vhttp://abs.twimg.com/images/themes/theme14/bg.gif
p2837
sg88
VIHPosts
p2838
sg90
Ven
p2839
sg92
I01
sg93
I1
sg94
VInvestors Hangout
p2840
sg96
I00
sg33
Vhttp://t.co/iooOMkelYs
p2841
sg98
VFri Oct 07 22:17:55 +0000 2011
p2842
sg100
I00
sg101
VEastern Time (US & Canada)
p2843
sg103
I00
sg104
I00
sg105
I00
ssg106
I00
sg107
g2829
sg108
I3240
sg109
g2830
sg110
g2831
sg111
I00
sg112
I235
sg113
I00
sg114
I-18000
sg115
I399303
sg116
g2833
sg117
I2006
sg118
g2834
sg119
g2835
sg120
g2836
sg121
I00
sg122
I00
sg123
g2832
sg124
g2837
sg125
g2838
sg126
g2839
sg127
I00
sg128
I01
sg129
I1
sg130
g2840
sg131
g2841
sg132
g133
(S'\x07\xdb\n\x07\x16\x117\x00\x00\x00'
p2844
tp2845
Rp2846
sg137
g2828
sg138
g2843
sg139
I00
sg140
I00
sg141
I00
sbsg142
Nsg29
L661591992472698881L
sg143
I0
sg144
Vdlvr.it
p2847
sg126
Vsk
p2848
sg147
g2813
sg132
g133
(S'\x07\xdf\x0b\x03\x11\r\x11\x00\x00\x00'
p2849
tp2850
Rp2851
sg50
(dp2852
g152
Nsg153
I00
sg154
g2810
sg156
I00
sg157
Nsg56
L661591992472698881L
sg158
I0
sg159
V<a href="http://dlvr.it" rel="nofollow">dlvr.it</a>
p2853
sg161
I00
sg162
Nsg64
(dp2854
g164
(lp2855
(dp2856
g39
(lp2857
I36
aI42
asg154
VLBTYK
p2858
sasg169
(lp2859
sg171
(lp2860
sg35
(lp2861
(dp2862
g33
Vhttps://t.co/DYETz1rtUC
p2863
sg39
(lp2864
I55
aI78
asg41
Vhttp://dlvr.it/CdmDB5
p2865
sg43
Vdlvr.it/CdmDB5
p2866
sassg185
Nsg186
Nsg187
I0
sg68
V661591992472698881
p2867
sg189
I00
sg190
g2827
sg191
Nsg192
Nsg193
I00
sg90
g2848
sg98
VTue Nov 03 17:13:17 +0000 2015
p2868
sg195
Nsg196
Nsg197
(dp2869
g199
Vsk
p2870
sg201
Vrecent
p2871
sssg203
g2869
sg204
Nsg205
Nsg31
g2854
sg206
Nsg207
Nsg110
g2867
sg208
I00
sg209
Nsg210
I0
sg211
Nsbag0
(g4
g5
Ntp2872
Rp2873
(dp2874
g9
I00
sg10
Nsg11
I00
sg12
Vclayton: LBTYK 43.86 Liberty Global $LBTYK added to my https://t.co/QzhmqTQr7s
p2875
sg14
Vhttp://dlvr.it
p2876
sg16
I00
sg17
I00
sg18
Nsg19
g0
(g20
g5
Ntp2877
Rp2878
(dp2879
g24
I00
sg25
I00
sg26
I01
sg27
VDDEEF6
p2880
sg29
L2579477766L
sg30
I00
sg31
(dp2881
g45
(dp2882
g35
(lp2883
sssg48
Vhttps://pbs.twimg.com/profile_images/480141663583477760/H21c7Bur_normal.png
p2884
sg50
(dp2885
g52
I00
sg53
I00
sg54
I01
sg55
I00
sg56
L2579477766L
sg57
Vhttps://abs.twimg.com/images/themes/theme1/bg.png
p2886
sg59
I00
sg60
V333333
p2887
sg62
g2884
sg63
g2880
sg64
g2881
sg65
I13262
sg66
VC0DEED
p2888
sg68
V2579477766
p2889
sg70
VC0DEED
p2890
sg72
I185
sg73
I00
sg74
Nsg75
I376289
sg45
g297
sg77
I426
sg78
g297
sg80
V0084B4
p2891
sg82
Vhttp://pbs.twimg.com/profile_images/480141663583477760/H21c7Bur_normal.png
p2892
sg84
I00
sg85
I00
sg86
Vhttp://abs.twimg.com/images/themes/theme1/bg.png
p2893
sg88
VIHPosts2
p2894
sg90
Ven
p2895
sg92
I00
sg93
I0
sg94
VInvestors Hangout
p2896
sg96
I00
sg33
Nsg98
VSat Jun 21 00:11:54 +0000 2014
p2897
sg100
I00
sg101
Nsg103
I00
sg104
I01
sg105
I00
ssg106
I00
sg107
g2887
sg108
I13262
sg109
g2888
sg110
g2889
sg111
I00
sg112
I185
sg113
I00
sg114
Nsg115
I376289
sg116
g297
sg117
I426
sg118
g297
sg119
g2891
sg120
g2892
sg121
I00
sg122
I00
sg123
g2890
sg124
g2893
sg125
g2894
sg126
g2895
sg127
I00
sg128
I00
sg129
I0
sg130
g2896
sg131
Nsg132
g133
(S'\x07\xde\x06\x15\x00\x0b6\x00\x00\x00'
p2898
tp2899
Rp2900
sg137
g2886
sg138
Nsg139
I00
sg140
I01
sg141
I00
sbsg142
Nsg29
L661591975624216576L
sg143
I0
sg144
Vdlvr.it
p2901
sg126
Vsk
p2902
sg147
g2878
sg132
g133
(S'\x07\xdf\x0b\x03\x11\r\r\x00\x00\x00'
p2903
tp2904
Rp2905
sg50
(dp2906
g152
Nsg153
I00
sg154
g2875
sg156
I00
sg157
Nsg56
L661591975624216576L
sg158
I0
sg159
V<a href="http://dlvr.it" rel="nofollow">dlvr.it</a>
p2907
sg161
I00
sg162
Nsg64
(dp2908
g164
(lp2909
(dp2910
g39
(lp2911
I36
aI42
asg154
VLBTYK
p2912
sasg169
(lp2913
sg171
(lp2914
sg35
(lp2915
(dp2916
g33
Vhttps://t.co/QzhmqTQr7s
p2917
sg39
(lp2918
I55
aI78
asg41
Vhttp://dlvr.it/CdmBQL
p2919
sg43
Vdlvr.it/CdmBQL
p2920
sassg185
Nsg186
Nsg187
I0
sg68
V661591975624216576
p2921
sg189
I00
sg190
g2885
sg191
Nsg192
Nsg193
I00
sg90
g2902
sg98
VTue Nov 03 17:13:13 +0000 2015
p2922
sg195
Nsg196
Nsg197
(dp2923
g199
Vsk
p2924
sg201
Vrecent
p2925
sssg203
g2923
sg204
Nsg205
Nsg31
g2908
sg206
Nsg207
Nsg110
g2921
sg208
I00
sg209
Nsg210
I0
sg211
Nsbag0
(g4
g5
Ntp2926
Rp2927
(dp2928
g9
I00
sg10
Nsg11
I00
sg12
VLBTYK 43.86 Liberty Global $LBTYK added to my watch list. Right now with LBTYK I am watching the last price 43 https://t.co/gl8ne7IXue
p2929
sg14
Vhttp://investorshangout.com/
p2930
sg16
I00
sg17
I00
sg18
Nsg19
g0
(g20
g5
Ntp2931
Rp2932
(dp2933
g24
I00
sg25
I00
sg26
I01
sg27
V252429
p2934
sg29
L2181326676L
sg30
I00
sg31
(dp2935
g45
(dp2936
g35
(lp2937
sssg48
Vhttps://pbs.twimg.com/profile_images/378800000709615783/34899be83af19233fc355a5a66c003e2_normal.jpeg
p2938
sg50
(dp2939
g52
I00
sg53
I00
sg54
I01
sg55
I00
sg56
L2181326676L
sg57
Vhttps://abs.twimg.com/images/themes/theme9/bg.gif
p2940
sg59
I00
sg60
V666666
p2941
sg62
g2938
sg63
g2934
sg64
g2935
sg65
I687
sg66
V181A1E
p2942
sg68
V2181326676
p2943
sg70
V1A1B1F
p2944
sg72
I170
sg73
I00
sg74
Nsg75
I184235
sg45
VI tweet stock research
p2945
sg77
I445
sg78
g297
sg80
V2FC2EF
p2946
sg82
Vhttp://pbs.twimg.com/profile_images/378800000709615783/34899be83af19233fc355a5a66c003e2_normal.jpeg
p2947
sg84
I00
sg85
I00
sg86
Vhttp://abs.twimg.com/images/themes/theme9/bg.gif
p2948
sg88
Vclayton_dd
p2949
sg90
Ven
p2950
sg92
I00
sg93
I0
sg94
Vclayton
p2951
sg96
I00
sg33
Nsg98
VFri Nov 08 02:53:01 +0000 2013
p2952
sg100
I00
sg101
Nsg103
I00
sg104
I00
sg105
I00
ssg106
I00
sg107
g2941
sg108
I687
sg109
g2942
sg110
g2943
sg111
I00
sg112
I170
sg113
I00
sg114
Nsg115
I184235
sg116
g2945
sg117
I445
sg118
g297
sg119
g2946
sg120
g2947
sg121
I00
sg122
I00
sg123
g2944
sg124
g2948
sg125
g2949
sg126
g2950
sg127
I00
sg128
I00
sg129
I0
sg130
g2951
sg131
Nsg132
g133
(S'\x07\xdd\x0b\x08\x025\x01\x00\x00\x00'
p2953
tp2954
Rp2955
sg137
g2940
sg138
Nsg139
I00
sg140
I00
sg141
I00
sbsg142
Nsg29
L661590538177683456L
sg143
I0
sg144
VInvestors Hangout
p2956
sg126
Ven
p2957
sg147
g2932
sg132
g133
(S'\x07\xdf\x0b\x03\x11\x07\x1e\x00\x00\x00'
p2958
tp2959
Rp2960
sg50
(dp2961
g152
Nsg153
I00
sg154
g2929
sg156
I00
sg157
Nsg56
L661590538177683456L
sg158
I0
sg159
V<a href="http://investorshangout.com/" rel="nofollow">Investors Hangout</a>
p2962
sg161
I00
sg162
Nsg64
(dp2963
g164
(lp2964
(dp2965
g39
(lp2966
I27
aI33
asg154
VLBTYK
p2967
sasg169
(lp2968
sg171
(lp2969
sg35
(lp2970
(dp2971
g33
Vhttps://t.co/gl8ne7IXue
p2972
sg39
(lp2973
I111
aI134
asg41
Vhttp://investorshangout.com/post/view?id=3316393
p2974
sg43
Vinvestorshangout.com/post/view?id=3\u2026
p2975
sassg185
Nsg186
Nsg187
I0
sg68
V661590538177683456
p2976
sg189
I00
sg190
g2939
sg191
Nsg192
Nsg193
I00
sg90
g2957
sg98
VTue Nov 03 17:07:30 +0000 2015
p2977
sg195
Nsg196
Nsg197
(dp2978
g199
Ven
p2979
sg201
Vrecent
p2980
sssg203
g2978
sg204
Nsg205
Nsg31
g2963
sg206
Nsg207
Nsg110
g2976
sg208
I00
sg209
Nsg210
I0
sg211
Nsbag0
(g4
g5
Ntp2981
Rp2982
(dp2983
g9
I00
sg10
Nsg11
I00
sg12
V5-min Candle Alert $LBTYK - LIBERTY GLOBAL PLC CL C ORD #daytrader #stocks ~ via #AlertTrade
p2984
sg14
Vhttp://dlvr.it
p2985
sg17
I00
sg18
Nsg19
g0
(g20
g5
Ntp2986
Rp2987
(dp2988
g24
I00
sg25
I00
sg26
I00
sg27
VC0DFEC
p2989
sg29
I121158213
sg30
I00
sg31
(dp2990
g33
(dp2991
g35
(lp2992
(dp2993
g33
Vhttp://t.co/0qjAA0UcWX
p2994
sg39
(lp2995
I0
aI22
asg41
Vhttp://stockhorizon.com/at/performance/
p2996
sg43
Vstockhorizon.com/at/performance/
p2997
sassg45
(dp2998
g35
(lp2999
(dp3000
g33
Vhttps://t.co/mounr6yodP
p3001
sg39
(lp3002
I107
aI130
asg41
Vhttp://goo.gl/qRm05l
p3003
sg43
Vgoo.gl/qRm05l
p3004
sasssg48
Vhttps://pbs.twimg.com/profile_images/479204884114198528/RcwJAUZk_normal.png
p3005
sg50
(dp3006
g52
I00
sg53
I00
sg54
I00
sg55
I00
sg56
I121158213
sg57
Vhttps://pbs.twimg.com/profile_background_images/448264669841465344/Hb9PWICH.png
p3007
sg59
I00
sg60
V333333
p3008
sg62
g3005
sg63
g2989
sg64
g2990
sg65
I64061
sg66
VFFFFFF
p3009
sg68
V121158213
p3010
sg70
V010D12
p3011
sg72
I1434
sg73
I00
sg74
I-18000
sg75
I763735
sg45
VNOV-04 LONG ALERT $EMES +32% \u2605 100% Automated Stock Trade Alerts #Trading #Stocks Short/Long  \u27a1  \u27a1 \u27a1 via \u2192 https://t.co/mounr6yodP
p3012
sg77
I64324
sg78
V\u2193 \u2193 Trade Alerts Performance
p3013
sg80
V0015B3
p3014
sg82
Vhttp://pbs.twimg.com/profile_images/479204884114198528/RcwJAUZk_normal.png
p3015
sg84
I00
sg85
I00
sg686
Vhttps://pbs.twimg.com/profile_banners/121158213/1403086379
p3016
sg86
Vhttp://pbs.twimg.com/profile_background_images/448264669841465344/Hb9PWICH.png
p3017
sg88
VAlertTrade
p3018
sg90
Ven
p3019
sg92
I00
sg93
I1197
sg94
VStock Trade Alerts
p3020
sg96
I00
sg33
Vhttp://t.co/0qjAA0UcWX
p3021
sg98
VMon Mar 08 16:14:34 +0000 2010
p3022
sg100
I00
sg101
VEastern Time (US & Canada)
p3023
sg103
I00
sg104
I00
sg105
I00
ssg106
I00
sg107
g3008
sg108
I64061
sg109
g3009
sg110
g3010
sg111
I00
sg112
I1434
sg113
I00
sg114
I-18000
sg115
I763735
sg116
g3012
sg117
I64324
sg118
g3013
sg119
g3014
sg120
g3015
sg121
I00
sg122
I00
sg123
g3011
sg695
g3016
sg124
g3017
sg125
g3018
sg126
g3019
sg127
I00
sg128
I00
sg129
I1197
sg130
g3020
sg131
g3021
sg132
g133
(S'\x07\xda\x03\x08\x10\x0e"\x00\x00\x00'
p3024
tp3025
Rp3026
sg137
g3007
sg138
g3023
sg139
I00
sg140
I00
sg141
I00
sbsg142
Nsg29
L661584732463886336L
sg143
I0
sg144
Vdlvr.it
p3027
sg126
Vde
p3028
sg147
g2987
sg132
g133
(S'\x07\xdf\x0b\x03\x10,\x1a\x00\x00\x00'
p3029
tp3030
Rp3031
sg50
(dp3032
g152
Nsg153
I00
sg154
g2984
sg156
I00
sg157
Nsg56
L661584732463886336L
sg158
I0
sg159
V<a href="http://dlvr.it" rel="nofollow">dlvr.it</a>
p3033
sg161
I00
sg162
Nsg64
(dp3034
g164
(lp3035
(dp3036
g39
(lp3037
I19
aI25
asg154
VLBTYK
p3038
sasg169
(lp3039
sg171
(lp3040
(dp3041
g39
(lp3042
I56
aI66
asg154
Vdaytrader
p3043
sa(dp3044
g39
(lp3045
I67
aI74
asg154
Vstocks
p3046
sa(dp3047
g39
(lp3048
I81
aI92
asg154
VAlertTrade
p3049
sasg35
(lp3050
ssg185
Nsg186
Nsg187
I0
sg68
V661584732463886336
p3051
sg189
I00
sg190
g3006
sg191
Nsg192
Nsg90
g3028
sg98
VTue Nov 03 16:44:26 +0000 2015
p3052
sg195
Nsg196
Nsg197
(dp3053
g199
Vde
p3054
sg201
Vrecent
p3055
sssg203
g3053
sg204
Nsg205
Nsg31
g3034
sg206
Nsg207
Nsg110
g3051
sg208
I00
sg209
Nsg210
I0
sg211
Nsbag0
(g4
g5
Ntp3056
Rp3057
(dp3058
g9
I00
sg10
Nsg11
I00
sg12
VRT @SA_Mergers: EU regulators extend probe into Liberty Global-KPN Belgian deal https://t.co/NRcSNJKyqA $LBTYA $KKPNY $LBTYB $LBTYK
p3059
sg14
Vhttp://twitter.com
p3060
sg16
I00
sg17
I00
sg18
Nsg19
g0
(g20
g5
Ntp3061
Rp3062
(dp3063
g24
I00
sg25
I00
sg26
I01
sg27
VDDEEF6
p3064
sg29
L3398300962L
sg30
I00
sg31
(dp3065
g45
(dp3066
g35
(lp3067
sssg48
Vhttps://abs.twimg.com/sticky/default_profile_images/default_profile_0_normal.png
p3068
sg50
(dp3069
g52
I00
sg53
I00
sg54
I01
sg55
I01
sg56
L3398300962L
sg57
Vhttps://abs.twimg.com/images/themes/theme1/bg.png
p3070
sg59
I00
sg60
V333333
p3071
sg62
g3068
sg63
g3064
sg64
g3065
sg65
I223
sg66
VC0DEED
p3072
sg68
V3398300962
p3073
sg70
VC0DEED
p3074
sg72
I245
sg73
I00
sg74
I0
sg75
I27036
sg45
VDCM, ECM, M&A, Private Equity & Venture Capital, Politics, Economy. RTs & Favs \u2260 Endorsements
p3075
sg77
I99
sg78
g297
sg80
V0084B4
p3076
sg82
Vhttp://abs.twimg.com/sticky/default_profile_images/default_profile_0_normal.png
p3077
sg84
I00
sg85
I00
sg86
Vhttp://abs.twimg.com/images/themes/theme1/bg.png
p3078
sg88
VNeO_Intel
p3079
sg90
Ven-gb
p3080
sg92
I00
sg93
I2068
sg94
VNeO Intelligence
p3081
sg96
I00
sg33
Nsg98
VSat Aug 01 04:57:44 +0000 2015
p3082
sg100
I00
sg101
VLondon
p3083
sg103
I00
sg104
I01
sg105
I00
ssg106
I00
sg107
g3071
sg108
I223
sg109
g3072
sg110
g3073
sg111
I01
sg112
I245
sg113
I00
sg114
I0
sg115
I27036
sg116
g3075
sg117
I99
sg118
g297
sg119
g3076
sg120
g3077
sg121
I00
sg122
I00
sg123
g3074
sg124
g3078
sg125
g3079
sg126
g3080
sg127
I00
sg128
I00
sg129
I2068
sg130
g3081
sg131
Nsg132
g133
(S'\x07\xdf\x08\x01\x049,\x00\x00\x00'
p3084
tp3085
Rp3086
sg137
g3070
sg138
g3083
sg139
I00
sg140
I01
sg141
I00
sbsg142
Nsg29
L661578549372043264L
sg143
I0
sg144
VTwitter Web Client
p3087
sg126
Vin
p3088
sg1150
g0
(g4
g5
Ntp3089
Rp3090
(dp3091
g9
I00
sg10
Nsg11
I00
sg12
VEU regulators extend probe into Liberty Global-KPN Belgian deal https://t.co/NRcSNJKyqA $LBTYA $KKPNY $LBTYB $LBTYK
p3092
sg14
Vhttp://seekingalpha.com
p3093
sg16
I00
sg17
I00
sg18
Nsg19
g0
(g20
g5
Ntp3094
Rp3095
(dp3096
g24
I00
sg25
I00
sg26
I01
sg27
VDDEEF6
p3097
sg29
L2999671493L
sg30
I00
sg31
(dp3098
g33
(dp3099
g35
(lp3100
(dp3101
g33
Vhttp://t.co/ckysaxAx2T
p3102
sg39
(lp3103
I0
aI22
asg41
Vhttp://seekingalpha.com/news/m-a
p3104
sg43
Vseekingalpha.com/news/m-a
p3105
sassg45
(dp3106
g35
(lp3107
(dp3108
g33
Vhttps://t.co/nzLmsIKexy
p3109
sg39
(lp3110
I96
aI119
asg41
Vhttps://twitter.com/SeekingAlpha/following
p3111
sg43
Vtwitter.com/SeekingAlpha/f\u2026
p3112
sasssg48
Vhttps://pbs.twimg.com/profile_images/559713580241547266/MelhbqMJ_normal.png
p3113
sg50
(dp3114
g52
I00
sg53
I00
sg54
I01
sg55
I00
sg56
L2999671493L
sg57
Vhttps://abs.twimg.com/images/themes/theme1/bg.png
p3115
sg59
I00
sg60
V333333
p3116
sg62
g3113
sg63
g3097
sg64
g3098
sg65
I1210
sg66
VC0DEED
p3117
sg68
V2999671493
p3118
sg70
VC0DEED
p3119
sg72
I44
sg73
I00
sg74
Nsg75
I2595
sg45
VSeeking Alpha's Breaking News and contributor articles about M&A. For all SA Twitter feeds, see https://t.co/nzLmsIKexy
p3120
sg77
I32
sg78
g297
sg80
V360000
p3121
sg82
Vhttp://pbs.twimg.com/profile_images/559713580241547266/MelhbqMJ_normal.png
p3122
sg84
I00
sg85
I00
sg86
Vhttp://abs.twimg.com/images/themes/theme1/bg.png
p3123
sg88
VSA_Mergers
p3124
sg90
Ven
p3125
sg92
I00
sg93
I0
sg94
VM&A News
p3126
sg96
I00
sg33
Vhttp://t.co/ckysaxAx2T
p3127
sg98
VMon Jan 26 14:03:50 +0000 2015
p3128
sg100
I00
sg101
Nsg103
I00
sg104
I00
sg105
I00
ssg106
I00
sg107
g3116
sg108
I1210
sg109
g3117
sg110
g3118
sg111
I00
sg112
I44
sg113
I00
sg114
Nsg115
I2595
sg116
g3120
sg117
I32
sg118
g297
sg119
g3121
sg120
g3122
sg121
I00
sg122
I00
sg123
g3119
sg124
g3123
sg125
g3124
sg126
g3125
sg127
I00
sg128
I00
sg129
I0
sg130
g3126
sg131
g3127
sg132
g133
(S'\x07\xdf\x01\x1a\x0e\x032\x00\x00\x00'
p3129
tp3130
Rp3131
sg137
g3115
sg138
Nsg139
I00
sg140
I00
sg141
I00
sbsg142
Nsg29
L661574138797035521L
sg143
I0
sg144
VSeeking Alpha
p3132
sg126
Vin
p3133
sg147
g3095
sg132
g133
(S'\x07\xdf\x0b\x03\x10\x02\x14\x00\x00\x00'
p3134
tp3135
Rp3136
sg50
(dp3137
g152
Nsg153
I00
sg154
g3092
sg156
I00
sg157
Nsg56
L661574138797035521L
sg158
I0
sg159
V<a href="http://seekingalpha.com" rel="nofollow">Seeking Alpha</a>
p3138
sg161
I00
sg162
Nsg64
(dp3139
g164
(lp3140
(dp3141
g39
(lp3142
I88
aI94
asg154
VLBTYA
p3143
sa(dp3144
g39
(lp3145
I95
aI101
asg154
VKKPNY
p3146
sa(dp3147
g39
(lp3148
I102
aI108
asg154
VLBTYB
p3149
sa(dp3150
g39
(lp3151
I109
aI115
asg154
VLBTYK
p3152
sasg169
(lp3153
sg171
(lp3154
sg35
(lp3155
(dp3156
g33
Vhttps://t.co/NRcSNJKyqA
p3157
sg39
(lp3158
I64
aI87
asg41
Vhttp://seekingalpha.com/news/2888306-eu-regulators-extend-probe-into-liberty-global-kpn-belgian-deal?source=twitter_sa_mergers
p3159
sg43
Vseekingalpha.com/news/2888306-e\u2026
p3160
sassg185
Nsg186
Nsg187
I2
sg68
V661574138797035521
p3161
sg189
I00
sg190
g3114
sg191
Nsg192
Nsg193
I00
sg90
g3133
sg98
VTue Nov 03 16:02:20 +0000 2015
p3162
sg195
Nsg196
Nsg197
(dp3163
g199
Vin
p3164
sg201
Vrecent
p3165
sssg203
g3163
sg204
Nsg205
Nsg31
g3139
sg206
Nsg207
Nsg110
g3161
sg208
I00
sg209
Nsg210
I2
sg211
Nsbsg147
g3062
sg132
g133
(S'\x07\xdf\x0b\x03\x10\x134\x00\x00\x00'
p3166
tp3167
Rp3168
sg50
(dp3169
g152
Nsg153
I00
sg154
g3059
sg156
I00
sg157
Nsg56
L661578549372043264L
sg158
I0
sg159
V<a href="http://twitter.com" rel="nofollow">Twitter Web Client</a>
p3170
sg161
I00
sg162
Nsg64
(dp3171
g164
(lp3172
(dp3173
g39
(lp3174
I104
aI110
asg154
VLBTYA
p3175
sa(dp3176
g39
(lp3177
I111
aI117
asg154
VKKPNY
p3178
sa(dp3179
g39
(lp3180
I118
aI124
asg154
VLBTYB
p3181
sa(dp3182
g39
(lp3183
I125
aI131
asg154
VLBTYK
p3184
sasg169
(lp3185
(dp3186
g56
L2999671493L
sg39
(lp3187
I3
aI14
asg68
V2999671493
p3188
sg88
VSA_Mergers
p3189
sg94
VM&A News
p3190
sasg171
(lp3191
sg35
(lp3192
(dp3193
g33
Vhttps://t.co/NRcSNJKyqA
p3194
sg39
(lp3195
I80
aI103
asg41
Vhttp://seekingalpha.com/news/2888306-eu-regulators-extend-probe-into-liberty-global-kpn-belgian-deal?source=twitter_sa_mergers
p3196
sg43
Vseekingalpha.com/news/2888306-e\u2026
p3197
sassg185
Nsg186
Nsg187
I2
sg68
V661578549372043264
p3198
sg189
I00
sg1261
g3137
sg190
g3069
sg191
Nsg192
Nsg193
I00
sg90
g3088
sg98
VTue Nov 03 16:19:52 +0000 2015
p3199
sg195
Nsg196
Nsg197
(dp3200
g199
Vin
p3201
sg201
Vrecent
p3202
sssg203
g3200
sg204
Nsg205
Nsg31
g3171
sg206
Nsg207
Nsg110
g3198
sg208
I00
sg209
Nsg210
I2
sg211
Nsbag0
(g4
g5
Ntp3203
Rp3204
(dp3205
g9
I00
sg10
Nsg11
I00
sg12
VEU regulators extend probe into Liberty Global-KPN Belgian deal $LBTYA $KKPNY $LBTYB $LBTYK $KKPNF https://t.co/HJN9XH9L27
p3206
sg14
Vhttp://twitter.com/#!/download/ipad
p3207
sg16
I00
sg17
I00
sg18
Nsg19
g0
(g20
g5
Ntp3208
Rp3209
(dp3210
g24
I00
sg25
I00
sg26
I01
sg27
VDDEEF6
p3211
sg29
L3702639374L
sg30
I00
sg31
(dp3212
g45
(dp3213
g35
(lp3214
sssg48
Vhttps://pbs.twimg.com/profile_images/649176436524216320/V9DAy3Ph_normal.jpg
p3215
sg50
(dp3216
g52
I00
sg53
I00
sg54
I01
sg55
I00
sg56
L3702639374L
sg57
Vhttps://abs.twimg.com/images/themes/theme1/bg.png
p3217
sg59
I00
sg60
V333333
p3218
sg62
g3215
sg63
g3211
sg64
g3212
sg65
I191
sg66
VC0DEED
p3219
sg68
V3702639374
p3220
sg70
VC0DEED
p3221
sg72
I54
sg73
I00
sg74
Nsg75
I3374
sg45
VSTARTUP/MARKETING/BEER/BIOTECH/LONDON/SOCIAL MEDIA/CURRENT AFFAIRS/FOOD/HEALTH/TECHNOLOGY
p3222
sg77
I162
sg78
g297
sg80
V0084B4
p3223
sg82
Vhttp://pbs.twimg.com/profile_images/649176436524216320/V9DAy3Ph_normal.jpg
p3224
sg84
I00
sg85
I00
sg86
Vhttp://abs.twimg.com/images/themes/theme1/bg.png
p3225
sg88
Vmsreport10
p3226
sg90
Ven
p3227
sg92
I00
sg93
I32
sg94
VNEWS & VIEWS
p3228
sg96
I00
sg33
Nsg98
VSun Sep 27 10:26:03 +0000 2015
p3229
sg100
I00
sg101
Nsg103
I00
sg104
I01
sg105
I00
ssg106
I00
sg107
g3218
sg108
I191
sg109
g3219
sg110
g3220
sg111
I00
sg112
I54
sg113
I00
sg114
Nsg115
I3374
sg116
g3222
sg117
I162
sg118
g297
sg119
g3223
sg120
g3224
sg121
I00
sg122
I00
sg123
g3221
sg124
g3225
sg125
g3226
sg126
g3227
sg127
I00
sg128
I00
sg129
I32
sg130
g3228
sg131
Nsg132
g133
(S'\x07\xdf\t\x1b\n\x1a\x03\x00\x00\x00'
p3230
tp3231
Rp3232
sg137
g3217
sg138
Nsg139
I00
sg140
I01
sg141
I00
sbsg142
Nsg29
L661576373828456448L
sg143
I0
sg144
VTwitter for iPad
p3233
sg126
Vin
p3234
sg147
g3209
sg132
g133
(S'\x07\xdf\x0b\x03\x10\x0b\r\x00\x00\x00'
p3235
tp3236
Rp3237
sg50
(dp3238
g152
Nsg153
I00
sg154
g3206
sg156
I00
sg157
Nsg56
L661576373828456448L
sg158
I0
sg159
V<a href="http://twitter.com/#!/download/ipad" rel="nofollow">Twitter for iPad</a>
p3239
sg161
I00
sg162
Nsg64
(dp3240
g164
(lp3241
(dp3242
g39
(lp3243
I64
aI70
asg154
VLBTYA
p3244
sa(dp3245
g39
(lp3246
I71
aI77
asg154
VKKPNY
p3247
sa(dp3248
g39
(lp3249
I78
aI84
asg154
VLBTYB
p3250
sa(dp3251
g39
(lp3252
I85
aI91
asg154
VLBTYK
p3253
sa(dp3254
g39
(lp3255
I92
aI98
asg154
VKKPNF
p3256
sasg169
(lp3257
sg171
(lp3258
sg35
(lp3259
(dp3260
g33
Vhttps://t.co/HJN9XH9L27
p3261
sg39
(lp3262
I99
aI122
asg41
Vhttp://www.seekingalpha.com/news/2888306
p3263
sg43
Vseekingalpha.com/news/2888306
p3264
sassg185
Nsg186
Nsg187
I0
sg68
V661576373828456448
p3265
sg189
I00
sg190
g3216
sg191
Nsg192
Nsg193
I00
sg90
g3234
sg98
VTue Nov 03 16:11:13 +0000 2015
p3266
sg195
Nsg196
Nsg197
(dp3267
g199
Vin
p3268
sg201
Vrecent
p3269
sssg203
g3267
sg204
Nsg205
Nsg31
g3240
sg206
Nsg207
Nsg110
g3265
sg208
I00
sg209
Nsg210
I0
sg211
Nsbag0
(g4
g5
Ntp3270
Rp3271
(dp3272
g9
I00
sg10
Nsg11
I00
sg12
VEU regulators extend probe into Liberty Global-KPN Belgian deal https://t.co/NYuyrnOVWn $LBTYA $KKPNY $LBTYB $LBTYK
p3273
sg14
Vhttp://seekingalpha.com
p3274
sg16
I00
sg17
I00
sg18
Nsg19
g0
(g20
g5
Ntp3275
Rp3276
(dp3277
g24
I00
sg25
I00
sg26
I01
sg27
VDDEEF6
p3278
sg29
I207441033
sg30
I00
sg31
(dp3279
g45
(dp3280
g35
(lp3281
sssg48
Vhttps://pbs.twimg.com/profile_images/628450795533414401/xwE4BfP__normal.jpg
p3282
sg50
(dp3283
g52
I00
sg53
I00
sg54
I01
sg55
I00
sg56
I207441033
sg57
Vhttps://abs.twimg.com/images/themes/theme1/bg.png
p3284
sg59
I00
sg60
V333333
p3285
sg62
g3282
sg63
g3278
sg64
g3279
sg65
I135
sg66
VC0DEED
p3286
sg68
V207441033
p3287
sg70
VC0DEED
p3288
sg72
I30
sg73
I01
sg74
I7200
sg75
I30086
sg45
g297
sg77
I1
sg78
g297
sg80
V0084B4
p3289
sg82
Vhttp://pbs.twimg.com/profile_images/628450795533414401/xwE4BfP__normal.jpg
p3290
sg84
I00
sg85
I00
sg686
Vhttps://pbs.twimg.com/profile_banners/207441033/1438669732
p3291
sg86
Vhttp://abs.twimg.com/images/themes/theme1/bg.png
p3292
sg88
VSA_FACTSET
p3293
sg90
Ven
p3294
sg92
I00
sg93
I0
sg94
VSeeking Alpha
p3295
sg96
I00
sg33
Nsg98
VMon Oct 25 10:13:55 +0000 2010
p3296
sg100
I00
sg101
VBucharest
p3297
sg103
I00
sg104
I01
sg105
I00
ssg106
I00
sg107
g3285
sg108
I135
sg109
g3286
sg110
g3287
sg111
I00
sg112
I30
sg113
I01
sg114
I7200
sg115
I30086
sg116
g297
sg117
I1
sg118
g297
sg119
g3289
sg120
g3290
sg121
I00
sg122
I00
sg123
g3288
sg695
g3291
sg124
g3292
sg125
g3293
sg126
g3294
sg127
I00
sg128
I00
sg129
I0
sg130
g3295
sg131
Nsg132
g133
(S'\x07\xda\n\x19\n\r7\x00\x00\x00'
p3298
tp3299
Rp3300
sg137
g3284
sg138
g3297
sg139
I00
sg140
I01
sg141
I00
sbsg142
Nsg29
L661574140176920576L
sg143
I0
sg144
VSeeking Alpha
p3301
sg126
Vin
p3302
sg147
g3276
sg132
g133
(S'\x07\xdf\x0b\x03\x10\x02\x15\x00\x00\x00'
p3303
tp3304
Rp3305
sg50
(dp3306
g152
Nsg153
I00
sg154
g3273
sg156
I00
sg157
Nsg56
L661574140176920576L
sg158
I0
sg159
V<a href="http://seekingalpha.com" rel="nofollow">Seeking Alpha</a>
p3307
sg161
I00
sg162
Nsg64
(dp3308
g164
(lp3309
(dp3310
g39
(lp3311
I88
aI94
asg154
VLBTYA
p3312
sa(dp3313
g39
(lp3314
I95
aI101
asg154
VKKPNY
p3315
sa(dp3316
g39
(lp3317
I102
aI108
asg154
VLBTYB
p3318
sa(dp3319
g39
(lp3320
I109
aI115
asg154
VLBTYK
p3321
sasg169
(lp3322
sg171
(lp3323
sg35
(lp3324
(dp3325
g33
Vhttps://t.co/NYuyrnOVWn
p3326
sg39
(lp3327
I64
aI87
asg41
Vhttp://seekingalpha.com/news/2888306-eu-regulators-extend-probe-into-liberty-global-kpn-belgian-deal?source=twitter_sa_factset
p3328
sg43
Vseekingalpha.com/news/2888306-e\u2026
p3329
sassg185
Nsg186
Nsg187
I0
sg68
V661574140176920576
p3330
sg189
I00
sg190
g3283
sg191
Nsg192
Nsg193
I00
sg90
g3302
sg98
VTue Nov 03 16:02:21 +0000 2015
p3331
sg195
Nsg196
Nsg197
(dp3332
g199
Vin
p3333
sg201
Vrecent
p3334
sssg203
g3332
sg204
Nsg205
Nsg31
g3308
sg206
Nsg207
Nsg110
g3330
sg208
I00
sg209
Nsg210
I0
sg211
Nsbag0
(g4
g5
Ntp3335
Rp3336
(dp3337
g9
I00
sg10
Nsg11
I00
sg12
VEU regulators extend probe into Liberty Global-KPN Belgian deal https://t.co/NRcSNJKyqA $LBTYA $KKPNY $LBTYB $LBTYK
p3338
sg14
Vhttp://seekingalpha.com
p3339
sg16
I00
sg17
I00
sg18
Nsg19
g0
(g20
g5
Ntp3340
Rp3341
(dp3342
g24
I00
sg25
I00
sg26
I01
sg27
VDDEEF6
p3343
sg29
L2999671493L
sg30
I00
sg31
(dp3344
g33
(dp3345
g35
(lp3346
(dp3347
g33
Vhttp://t.co/ckysaxAx2T
p3348
sg39
(lp3349
I0
aI22
asg41
Vhttp://seekingalpha.com/news/m-a
p3350
sg43
Vseekingalpha.com/news/m-a
p3351
sassg45
(dp3352
g35
(lp3353
(dp3354
g33
Vhttps://t.co/nzLmsIKexy
p3355
sg39
(lp3356
I96
aI119
asg41
Vhttps://twitter.com/SeekingAlpha/following
p3357
sg43
Vtwitter.com/SeekingAlpha/f\u2026
p3358
sasssg48
Vhttps://pbs.twimg.com/profile_images/559713580241547266/MelhbqMJ_normal.png
p3359
sg50
(dp3360
g52
I00
sg53
I00
sg54
I01
sg55
I00
sg56
L2999671493L
sg57
Vhttps://abs.twimg.com/images/themes/theme1/bg.png
p3361
sg59
I00
sg60
V333333
p3362
sg62
g3359
sg63
g3343
sg64
g3344
sg65
I1210
sg66
VC0DEED
p3363
sg68
V2999671493
p3364
sg70
VC0DEED
p3365
sg72
I44
sg73
I00
sg74
Nsg75
I2595
sg45
VSeeking Alpha's Breaking News and contributor articles about M&A. For all SA Twitter feeds, see https://t.co/nzLmsIKexy
p3366
sg77
I32
sg78
g297
sg80
V360000
p3367
sg82
Vhttp://pbs.twimg.com/profile_images/559713580241547266/MelhbqMJ_normal.png
p3368
sg84
I00
sg85
I00
sg86
Vhttp://abs.twimg.com/images/themes/theme1/bg.png
p3369
sg88
VSA_Mergers
p3370
sg90
Ven
p3371
sg92
I00
sg93
I0
sg94
VM&A News
p3372
sg96
I00
sg33
Vhttp://t.co/ckysaxAx2T
p3373
sg98
VMon Jan 26 14:03:50 +0000 2015
p3374
sg100
I00
sg101
Nsg103
I00
sg104
I00
sg105
I00
ssg106
I00
sg107
g3362
sg108
I1210
sg109
g3363
sg110
g3364
sg111
I00
sg112
I44
sg113
I00
sg114
Nsg115
I2595
sg116
g3366
sg117
I32
sg118
g297
sg119
g3367
sg120
g3368
sg121
I00
sg122
I00
sg123
g3365
sg124
g3369
sg125
g3370
sg126
g3371
sg127
I00
sg128
I00
sg129
I0
sg130
g3372
sg131
g3373
sg132
g133
(S'\x07\xdf\x01\x1a\x0e\x032\x00\x00\x00'
p3375
tp3376
Rp3377
sg137
g3361
sg138
Nsg139
I00
sg140
I00
sg141
I00
sbsg142
Nsg29
L661574138797035521L
sg143
I0
sg144
VSeeking Alpha
p3378
sg126
Vin
p3379
sg147
g3341
sg132
g133
(S'\x07\xdf\x0b\x03\x10\x02\x14\x00\x00\x00'
p3380
tp3381
Rp3382
sg50
(dp3383
g152
Nsg153
I00
sg154
g3338
sg156
I00
sg157
Nsg56
L661574138797035521L
sg158
I0
sg159
V<a href="http://seekingalpha.com" rel="nofollow">Seeking Alpha</a>
p3384
sg161
I00
sg162
Nsg64
(dp3385
g164
(lp3386
(dp3387
g39
(lp3388
I88
aI94
asg154
VLBTYA
p3389
sa(dp3390
g39
(lp3391
I95
aI101
asg154
VKKPNY
p3392
sa(dp3393
g39
(lp3394
I102
aI108
asg154
VLBTYB
p3395
sa(dp3396
g39
(lp3397
I109
aI115
asg154
VLBTYK
p3398
sasg169
(lp3399
sg171
(lp3400
sg35
(lp3401
(dp3402
g33
Vhttps://t.co/NRcSNJKyqA
p3403
sg39
(lp3404
I64
aI87
asg41
Vhttp://seekingalpha.com/news/2888306-eu-regulators-extend-probe-into-liberty-global-kpn-belgian-deal?source=twitter_sa_mergers
p3405
sg43
Vseekingalpha.com/news/2888306-e\u2026
p3406
sassg185
Nsg186
Nsg187
I2
sg68
V661574138797035521
p3407
sg189
I00
sg190
g3360
sg191
Nsg192
Nsg193
I00
sg90
g3379
sg98
VTue Nov 03 16:02:20 +0000 2015
p3408
sg195
Nsg196
Nsg197
(dp3409
g199
Vin
p3410
sg201
Vrecent
p3411
sssg203
g3409
sg204
Nsg205
Nsg31
g3385
sg206
Nsg207
Nsg110
g3407
sg208
I00
sg209
Nsg210
I2
sg211
Nsbag0
(g4
g5
Ntp3412
Rp3413
(dp3414
g9
I00
sg10
Nsg11
I00
sg12
VEU regulators extend probe into Liberty Global-KPN Belgian deal https://t.co/C3pLCOB25T $LBTYA $KKPNY $LBTYB $LBTYK
p3415
sg14
Vhttp://seekingalpha.com
p3416
sg16
I00
sg17
I00
sg18
Nsg19
g0
(g20
g5
Ntp3417
Rp3418
(dp3419
g24
I00
sg25
I00
sg26
I00
sg27
VDDEEF6
p3420
sg29
L2999672518L
sg30
I00
sg31
(dp3421
g33
(dp3422
g35
(lp3423
(dp3424
g33
Vhttp://t.co/X84gUsjRHd
p3425
sg39
(lp3426
I0
aI22
asg41
Vhttp://seekingalpha.com/news/on-the-move
p3427
sg43
Vseekingalpha.com/news/on-the-mo\u2026
p3428
sassg45
(dp3429
g35
(lp3430
(dp3431
g33
Vhttps://t.co/nzLmsIKexy
p3432
sg39
(lp3433
I101
aI124
asg41
Vhttps://twitter.com/SeekingAlpha/following
p3434
sg43
Vtwitter.com/SeekingAlpha/f\u2026
p3435
sasssg48
Vhttps://pbs.twimg.com/profile_images/559707675475197954/gfYW3YMj_normal.png
p3436
sg50
(dp3437
g52
I00
sg53
I00
sg54
I00
sg55
I00
sg56
L2999672518L
sg57
Vhttps://abs.twimg.com/images/themes/theme1/bg.png
p3438
sg59
I00
sg60
V333333
p3439
sg62
g3436
sg63
g3420
sg64
g3421
sg65
I1373
sg66
VC0DEED
p3440
sg68
V2999672518
p3441
sg70
VC0DEED
p3442
sg72
I44
sg73
I00
sg74
Nsg75
I12104
sg45
VSeeking Alpha's Breaking News coverage of stocks with major moves today. See all SA Twitter feeds at https://t.co/nzLmsIKexy
p3443
sg77
I32
sg78
g297
sg80
V360000
p3444
sg82
Vhttp://pbs.twimg.com/profile_images/559707675475197954/gfYW3YMj_normal.png
p3445
sg84
I00
sg85
I00
sg86
Vhttp://abs.twimg.com/images/themes/theme1/bg.png
p3446
sg88
VStocksMove_SA
p3447
sg90
Ven
p3448
sg92
I00
sg93
I0
sg94
VStocks On The Move
p3449
sg96
I00
sg33
Vhttp://t.co/X84gUsjRHd
p3450
sg98
VMon Jan 26 13:37:29 +0000 2015
p3451
sg100
I00
sg101
Nsg103
I00
sg104
I00
sg105
I00
ssg106
I00
sg107
g3439
sg108
I1373
sg109
g3440
sg110
g3441
sg111
I00
sg112
I44
sg113
I00
sg114
Nsg115
I12104
sg116
g3443
sg117
I32
sg118
g297
sg119
g3444
sg120
g3445
sg121
I00
sg122
I00
sg123
g3442
sg124
g3446
sg125
g3447
sg126
g3448
sg127
I00
sg128
I00
sg129
I0
sg130
g3449
sg131
g3450
sg132
g133
(S'\x07\xdf\x01\x1a\r%\x1d\x00\x00\x00'
p3452
tp3453
Rp3454
sg137
g3438
sg138
Nsg139
I00
sg140
I00
sg141
I00
sbsg142
Nsg29
L661574137677135872L
sg143
I0
sg144
VSeeking Alpha
p3455
sg126
Vin
p3456
sg147
g3418
sg132
g133
(S'\x07\xdf\x0b\x03\x10\x02\x14\x00\x00\x00'
p3457
tp3458
Rp3459
sg50
(dp3460
g152
Nsg153
I00
sg154
g3415
sg156
I00
sg157
Nsg56
L661574137677135872L
sg158
I0
sg159
V<a href="http://seekingalpha.com" rel="nofollow">Seeking Alpha</a>
p3461
sg161
I00
sg162
Nsg64
(dp3462
g164
(lp3463
(dp3464
g39
(lp3465
I88
aI94
asg154
VLBTYA
p3466
sa(dp3467
g39
(lp3468
I95
aI101
asg154
VKKPNY
p3469
sa(dp3470
g39
(lp3471
I102
aI108
asg154
VLBTYB
p3472
sa(dp3473
g39
(lp3474
I109
aI115
asg154
VLBTYK
p3475
sasg169
(lp3476
sg171
(lp3477
sg35
(lp3478
(dp3479
g33
Vhttps://t.co/C3pLCOB25T
p3480
sg39
(lp3481
I64
aI87
asg41
Vhttp://seekingalpha.com/news/2888306-eu-regulators-extend-probe-into-liberty-global-kpn-belgian-deal?source=twitter_stocksmove_sa
p3482
sg43
Vseekingalpha.com/news/2888306-e\u2026
p3483
sassg185
Nsg186
Nsg187
I0
sg68
V661574137677135872
p3484
sg189
I00
sg190
g3437
sg191
Nsg192
Nsg193
I00
sg90
g3456
sg98
VTue Nov 03 16:02:20 +0000 2015
p3485
sg195
Nsg196
Nsg197
(dp3486
g199
Vin
p3487
sg201
Vrecent
p3488
sssg203
g3486
sg204
Nsg205
Nsg31
g3462
sg206
Nsg207
Nsg110
g3484
sg208
I00
sg209
Nsg210
I0
sg211
Nsbag0
(g4
g5
Ntp3489
Rp3490
(dp3491
g9
I00
sg10
Nsg11
I00
sg12
VEU regulators extend probe into Liberty Global-KPN Belgian deal https://t.co/FNydSI5gpA $LBTYA $KKPNY $LBTYB $LBTYK
p3492
sg14
Vhttp://seekingalpha.com
p3493
sg16
I00
sg17
I00
sg18
Nsg19
g0
(g20
g5
Ntp3494
Rp3495
(dp3496
g24
I00
sg25
I00
sg26
I00
sg27
VDDEEF6
p3497
sg29
I201296379
sg30
I00
sg31
(dp3498
g33
(dp3499
g35
(lp3500
(dp3501
g33
Vhttp://t.co/92fdg1URYX
p3502
sg39
(lp3503
I0
aI22
asg41
Vhttp://seekingalpha.com/currents/tech
p3504
sg43
Vseekingalpha.com/currents/tech
p3505
sassg45
(dp3506
g35
(lp3507
(dp3508
g33
Vhttps://t.co/nzLmsIKexy
p3509
sg39
(lp3510
I95
aI118
asg41
Vhttps://twitter.com/SeekingAlpha/following
p3511
sg43
Vtwitter.com/SeekingAlpha/f\u2026
p3512
sasssg48
Vhttps://pbs.twimg.com/profile_images/562221086536785921/0GCwkfuV_normal.png
p3513
sg50
(dp3514
g52
I00
sg53
I00
sg54
I00
sg55
I00
sg56
I201296379
sg57
Vhttps://pbs.twimg.com/profile_background_images/378800000123987065/12db58c4165f5b1230832461011ea368.png
p3515
sg59
I00
sg60
V333333
p3516
sg62
g3513
sg63
g3497
sg64
g3498
sg65
I2949
sg66
VFFFFFF
p3517
sg68
V201296379
p3518
sg70
VC0DEED
p3519
sg72
I149
sg73
I00
sg74
I-18000
sg75
I32712
sg45
VBreaking news and analysis about tech stocks from Seeking Alpha. See all SA Twitter options at https://t.co/nzLmsIKexy
p3520
sg77
I33
sg78
g297
sg80
V360000
p3521
sg82
Vhttp://pbs.twimg.com/profile_images/562221086536785921/0GCwkfuV_normal.png
p3522
sg84
I00
sg85
I00
sg86
Vhttp://pbs.twimg.com/profile_background_images/378800000123987065/12db58c4165f5b1230832461011ea368.png
p3523
sg88
VSAlphaTech
p3524
sg90
Ven
p3525
sg92
I00
sg93
I0
sg94
VTech Stocks
p3526
sg96
I00
sg33
Vhttp://t.co/92fdg1URYX
p3527
sg98
VMon Oct 11 14:58:14 +0000 2010
p3528
sg100
I00
sg101
VEastern Time (US & Canada)
p3529
sg103
I00
sg104
I00
sg105
I00
ssg106
I00
sg107
g3516
sg108
I2949
sg109
g3517
sg110
g3518
sg111
I00
sg112
I149
sg113
I00
sg114
I-18000
sg115
I32712
sg116
g3520
sg117
I33
sg118
g297
sg119
g3521
sg120
g3522
sg121
I00
sg122
I00
sg123
g3519
sg124
g3523
sg125
g3524
sg126
g3525
sg127
I00
sg128
I00
sg129
I0
sg130
g3526
sg131
g3527
sg132
g133
(S'\x07\xda\n\x0b\x0e:\x0e\x00\x00\x00'
p3530
tp3531
Rp3532
sg137
g3515
sg138
g3529
sg139
I00
sg140
I00
sg141
I00
sbsg142
Nsg29
L661574136481755136L
sg143
I0
sg144
VSeeking Alpha
p3533
sg126
Vin
p3534
sg147
g3495
sg132
g133
(S'\x07\xdf\x0b\x03\x10\x02\x14\x00\x00\x00'
p3535
tp3536
Rp3537
sg50
(dp3538
g152
Nsg153
I00
sg154
g3492
sg156
I00
sg157
Nsg56
L661574136481755136L
sg158
I0
sg159
V<a href="http://seekingalpha.com" rel="nofollow">Seeking Alpha</a>
p3539
sg161
I00
sg162
Nsg64
(dp3540
g164
(lp3541
(dp3542
g39
(lp3543
I88
aI94
asg154
VLBTYA
p3544
sa(dp3545
g39
(lp3546
I95
aI101
asg154
VKKPNY
p3547
sa(dp3548
g39
(lp3549
I102
aI108
asg154
VLBTYB
p3550
sa(dp3551
g39
(lp3552
I109
aI115
asg154
VLBTYK
p3553
sasg169
(lp3554
sg171
(lp3555
sg35
(lp3556
(dp3557
g33
Vhttps://t.co/FNydSI5gpA
p3558
sg39
(lp3559
I64
aI87
asg41
Vhttp://seekingalpha.com/news/2888306-eu-regulators-extend-probe-into-liberty-global-kpn-belgian-deal?source=twitter_salphatech
p3560
sg43
Vseekingalpha.com/news/2888306-e\u2026
p3561
sassg185
Nsg186
Nsg187
I0
sg68
V661574136481755136
p3562
sg189
I00
sg190
g3514
sg191
Nsg192
Nsg193
I00
sg90
g3534
sg98
VTue Nov 03 16:02:20 +0000 2015
p3563
sg195
Nsg196
Nsg197
(dp3564
g199
Vin
p3565
sg201
Vrecent
p3566
sssg203
g3564
sg204
Nsg205
Nsg31
g3540
sg206
Nsg207
Nsg110
g3562
sg208
I00
sg209
Nsg210
I0
sg211
Nsbag0
(g4
g5
Ntp3567
Rp3568
(dp3569
g9
I00
sg10
Nsg11
I00
sg12
VEU regulators extend probe into Liberty Global-KPN Belgian deal https://t.co/1Vq5iQWSr6 $LBTYA $KKPNY $LBTYB $LBTYK
p3570
sg14
Vhttp://seekingalpha.com
p3571
sg16
I00
sg17
I00
sg18
Nsg19
g0
(g20
g5
Ntp3572
Rp3573
(dp3574
g24
I00
sg25
I00
sg26
I00
sg27
VDDEEF6
p3575
sg29
I203862593
sg30
I00
sg31
(dp3576
g33
(dp3577
g35
(lp3578
(dp3579
g33
Vhttp://t.co/YOmRudHkjx
p3580
sg39
(lp3581
I0
aI22
asg41
Vhttp://seekingalpha.com/tag/forex
p3582
sg43
Vseekingalpha.com/tag/forex
p3583
sassg45
(dp3584
g35
(lp3585
(dp3586
g33
Vhttps://t.co/nzLmsIKexy
p3587
sg39
(lp3588
I104
aI127
asg41
Vhttps://twitter.com/SeekingAlpha/following
p3589
sg43
Vtwitter.com/SeekingAlpha/f\u2026
p3590
sasssg48
Vhttps://pbs.twimg.com/profile_images/562215310871117824/SY0PzzPf_normal.png
p3591
sg50
(dp3592
g52
I00
sg53
I00
sg54
I00
sg55
I00
sg56
I203862593
sg57
Vhttps://pbs.twimg.com/profile_background_images/163819719/Twitter-BG4.jpg
p3593
sg59
I00
sg60
V333333
p3594
sg62
g3591
sg63
g3575
sg64
g3576
sg65
I1802
sg66
VC0DEED
p3595
sg68
V203862593
p3596
sg70
VC0DEED
p3597
sg72
I45
sg73
I01
sg74
I-10800
sg75
I5766
sg45
VReal-time news feed of Seeking Alpha articles about forex and currencies. See all SA Twitter options at https://t.co/nzLmsIKexy
p3598
sg77
I32
sg78
g297
sg80
V360000
p3599
sg82
Vhttp://pbs.twimg.com/profile_images/562215310871117824/SY0PzzPf_normal.png
p3600
sg84
I00
sg85
I00
sg86
Vhttp://pbs.twimg.com/profile_background_images/163819719/Twitter-BG4.jpg
p3601
sg88
VSA_Forex
p3602
sg90
Ven
p3603
sg92
I00
sg93
I0
sg94
VForex and Currencies
p3604
sg96
I00
sg33
Vhttp://t.co/YOmRudHkjx
p3605
sg98
VSun Oct 17 10:22:56 +0000 2010
p3606
sg100
I00
sg101
VGreenland
p3607
sg103
I00
sg104
I00
sg105
I00
ssg106
I00
sg107
g3594
sg108
I1802
sg109
g3595
sg110
g3596
sg111
I00
sg112
I45
sg113
I01
sg114
I-10800
sg115
I5766
sg116
g3598
sg117
I32
sg118
g297
sg119
g3599
sg120
g3600
sg121
I00
sg122
I00
sg123
g3597
sg124
g3601
sg125
g3602
sg126
g3603
sg127
I00
sg128
I00
sg129
I0
sg130
g3604
sg131
g3605
sg132
g133
(S'\x07\xda\n\x11\n\x168\x00\x00\x00'
p3608
tp3609
Rp3610
sg137
g3593
sg138
g3607
sg139
I00
sg140
I00
sg141
I00
sbsg142
Nsg29
L661574135017902081L
sg143
I0
sg144
VSeeking Alpha
p3611
sg126
Vin
p3612
sg147
g3573
sg132
g133
(S'\x07\xdf\x0b\x03\x10\x02\x13\x00\x00\x00'
p3613
tp3614
Rp3615
sg50
(dp3616
g152
Nsg153
I00
sg154
g3570
sg156
I00
sg157
Nsg56
L661574135017902081L
sg158
I0
sg159
V<a href="http://seekingalpha.com" rel="nofollow">Seeking Alpha</a>
p3617
sg161
I00
sg162
Nsg64
(dp3618
g164
(lp3619
(dp3620
g39
(lp3621
I88
aI94
asg154
VLBTYA
p3622
sa(dp3623
g39
(lp3624
I95
aI101
asg154
VKKPNY
p3625
sa(dp3626
g39
(lp3627
I102
aI108
asg154
VLBTYB
p3628
sa(dp3629
g39
(lp3630
I109
aI115
asg154
VLBTYK
p3631
sasg169
(lp3632
sg171
(lp3633
sg35
(lp3634
(dp3635
g33
Vhttps://t.co/1Vq5iQWSr6
p3636
sg39
(lp3637
I64
aI87
asg41
Vhttp://seekingalpha.com/news/2888306-eu-regulators-extend-probe-into-liberty-global-kpn-belgian-deal?source=twitter_sa_forex
p3638
sg43
Vseekingalpha.com/news/2888306-e\u2026
p3639
sassg185
Nsg186
Nsg187
I0
sg68
V661574135017902081
p3640
sg189
I00
sg190
g3592
sg191
Nsg192
Nsg193
I00
sg90
g3612
sg98
VTue Nov 03 16:02:19 +0000 2015
p3641
sg195
Nsg196
Nsg197
(dp3642
g199
Vin
p3643
sg201
Vrecent
p3644
sssg203
g3642
sg204
Nsg205
Nsg31
g3618
sg206
Nsg207
Nsg110
g3640
sg208
I00
sg209
Nsg210
I0
sg211
Nsbag0
(g4
g5
Ntp3645
Rp3646
(dp3647
g9
I00
sg10
Nsg11
I00
sg12
VEU regulators extend probe into Liberty Global-KPN Belgian deal https://t.co/53AjCQP8Zd $LBTYA $KKPNY $LBTYB $LBTYK
p3648
sg14
Vhttp://seekingalpha.com
p3649
sg16
I00
sg17
I00
sg18
Nsg19
g0
(g20
g5
Ntp3650
Rp3651
(dp3652
g24
I00
sg25
I00
sg26
I00
sg27
VF3F3F3
p3653
sg29
I15296897
sg30
I00
sg31
(dp3654
g33
(dp3655
g35
(lp3656
(dp3657
g33
Vhttp://t.co/K8mUqhVprF
p3658
sg39
(lp3659
I0
aI22
asg41
Vhttp://seekingalpha.com/news/all
p3660
sg43
Vseekingalpha.com/news/all
p3661
sassg45
(dp3662
g35
(lp3663
(dp3664
g33
Vhttps://t.co/nzLmsIKexy
p3665
sg39
(lp3666
I96
aI119
asg41
Vhttps://twitter.com/SeekingAlpha/following
p3667
sg43
Vtwitter.com/SeekingAlpha/f\u2026
p3668
sasssg48
Vhttps://pbs.twimg.com/profile_images/562235643225309184/BbO5bjbH_normal.png
p3669
sg50
(dp3670
g52
I00
sg53
I00
sg54
I00
sg55
I00
sg56
I15296897
sg57
Vhttps://pbs.twimg.com/profile_background_images/378800000040521500/f26581d4dd97008e0985dcfede25018e.png
p3671
sg59
I00
sg60
V000000
p3672
sg62
g3669
sg63
g3653
sg64
g3654
sg65
I19259
sg66
VFFFFFF
p3673
sg68
V15296897
p3674
sg70
VC0DEED
p3675
sg72
I1035
sg73
I00
sg74
I-10800
sg75
I373320
sg45
VReal-time stock market news from Seeking Alpha. See all options for Seeking Alpha on Twitter at https://t.co/nzLmsIKexy
p3676
sg77
I33
sg78
VNew York
p3677
sg80
V360000
p3678
sg82
Vhttp://pbs.twimg.com/profile_images/562235643225309184/BbO5bjbH_normal.png
p3679
sg84
I00
sg85
I00
sg86
Vhttp://pbs.twimg.com/profile_background_images/378800000040521500/f26581d4dd97008e0985dcfede25018e.png
p3680
sg88
VMarketCurrents
p3681
sg90
Ven
p3682
sg92
I00
sg93
I0
sg94
VBreaking News
p3683
sg96
I00
sg33
Vhttp://t.co/K8mUqhVprF
p3684
sg98
VWed Jul 02 10:38:58 +0000 2008
p3685
sg100
I00
sg101
VSantiago
p3686
sg103
I00
sg104
I00
sg105
I00
ssg106
I00
sg107
g3672
sg108
I19259
sg109
g3673
sg110
g3674
sg111
I00
sg112
I1035
sg113
I00
sg114
I-10800
sg115
I373320
sg116
g3676
sg117
I33
sg118
g3677
sg119
g3678
sg120
g3679
sg121
I00
sg122
I00
sg123
g3675
sg124
g3680
sg125
g3681
sg126
g3682
sg127
I00
sg128
I00
sg129
I0
sg130
g3683
sg131
g3684
sg132
g133
(S'\x07\xd8\x07\x02\n&:\x00\x00\x00'
p3687
tp3688
Rp3689
sg137
g3671
sg138
g3686
sg139
I00
sg140
I00
sg141
I00
sbsg142
Nsg29
L661574133281492992L
sg143
I0
sg144
VSeeking Alpha
p3690
sg126
Vin
p3691
sg147
g3651
sg132
g133
(S'\x07\xdf\x0b\x03\x10\x02\x13\x00\x00\x00'
p3692
tp3693
Rp3694
sg50
(dp3695
g152
Nsg153
I00
sg154
g3648
sg156
I00
sg157
Nsg56
L661574133281492992L
sg158
I0
sg159
V<a href="http://seekingalpha.com" rel="nofollow">Seeking Alpha</a>
p3696
sg161
I00
sg162
Nsg64
(dp3697
g164
(lp3698
(dp3699
g39
(lp3700
I88
aI94
asg154
VLBTYA
p3701
sa(dp3702
g39
(lp3703
I95
aI101
asg154
VKKPNY
p3704
sa(dp3705
g39
(lp3706
I102
aI108
asg154
VLBTYB
p3707
sa(dp3708
g39
(lp3709
I109
aI115
asg154
VLBTYK
p3710
sasg169
(lp3711
sg171
(lp3712
sg35
(lp3713
(dp3714
g33
Vhttps://t.co/53AjCQP8Zd
p3715
sg39
(lp3716
I64
aI87
asg41
Vhttp://seekingalpha.com/news/2888306-eu-regulators-extend-probe-into-liberty-global-kpn-belgian-deal?source=feed_f
p3717
sg43
Vseekingalpha.com/news/2888306-e\u2026
p3718
sassg185
Nsg186
Nsg187
I0
sg68
V661574133281492992
p3719
sg189
I00
sg190
g3670
sg191
Nsg192
Nsg193
I00
sg90
g3691
sg98
VTue Nov 03 16:02:19 +0000 2015
p3720
sg195
Nsg196
Nsg197
(dp3721
g199
Vin
p3722
sg201
Vrecent
p3723
sssg203
g3721
sg204
Nsg205
Nsg31
g3697
sg206
Nsg207
Nsg110
g3719
sg208
I00
sg209
Nsg210
I0
sg211
Nsbag0
(g4
g5
Ntp3724
Rp3725
(dp3726
g9
I00
sg10
Nsg11
I00
sg12
VUp to Date Stocks in Focus: https://t.co/fcIpEQSktA $LBTYK $PPL $DISCA
p3727
sg14
Vhttp://stocktwits.com
p3728
sg16
I00
sg17
I00
sg18
Nsg19
g0
(g20
g5
Ntp3729
Rp3730
(dp3731
g24
I00
sg25
I00
sg26
I00
sg27
V000000
p3732
sg29
L3020048952L
sg30
I00
sg31
(dp3733
g33
(dp3734
g35
(lp3735
(dp3736
g33
Vhttp://t.co/BUC8K0UlBE
p3737
sg39
(lp3738
I0
aI22
asg41
Vhttp://www.stocksnewswire.com
p3739
sg43
Vstocksnewswire.com
p3740
sassg45
(dp3741
g35
(lp3742
(dp3743
g33
Vhttp://t.co/pYrXTi95DQ
p3744
sg39
(lp3745
I0
aI22
asg41
Vhttp://Stocksnewswire.com
p3746
sg43
VStocksnewswire.com
p3747
sasssg48
Vhttps://pbs.twimg.com/profile_images/592260894677082112/bZSNf46B_normal.jpg
p3748
sg50
(dp3749
g52
I00
sg53
I00
sg54
I00
sg55
I00
sg56
L3020048952L
sg57
Vhttps://abs.twimg.com/images/themes/theme1/bg.png
p3750
sg59
I00
sg60
V000000
p3751
sg62
g3748
sg63
g3732
sg64
g3733
sg65
I446
sg66
V000000
p3752
sg68
V3020048952
p3753
sg70
V89C9FA
p3754
sg72
I16
sg73
I00
sg74
I14400
sg75
I3556
sg45
Vhttp://t.co/pYrXTi95DQ provides company's latest news, in order to assist investors as trading decisions based on news developments are nothing new.
p3755
sg77
I1974
sg78
g297
sg80
V019877
p3756
sg82
Vhttp://pbs.twimg.com/profile_images/592260894677082112/bZSNf46B_normal.jpg
p3757
sg84
I00
sg85
I00
sg686
Vhttps://pbs.twimg.com/profile_banners/3020048952/1430040946
p3758
sg86
Vhttp://abs.twimg.com/images/themes/theme1/bg.png
p3759
sg88
Vstocksnewswire
p3760
sg90
Ven
p3761
sg92
I00
sg93
I588
sg94
VStocks Newswire
p3762
sg96
I00
sg33
Vhttp://t.co/BUC8K0UlBE
p3763
sg98
VSat Feb 14 19:53:10 +0000 2015
p3764
sg100
I00
sg101
VBaku
p3765
sg103
I00
sg104
I00
sg105
I00
ssg106
I00
sg107
g3751
sg108
I446
sg109
g3752
sg110
g3753
sg111
I00
sg112
I16
sg113
I00
sg114
I14400
sg115
I3556
sg116
g3755
sg117
I1974
sg118
g297
sg119
g3756
sg120
g3757
sg121
I00
sg122
I00
sg123
g3754
sg695
g3758
sg124
g3759
sg125
g3760
sg126
g3761
sg127
I00
sg128
I00
sg129
I588
sg130
g3762
sg131
g3763
sg132
g133
(S'\x07\xdf\x02\x0e\x135\n\x00\x00\x00'
p3766
tp3767
Rp3768
sg137
g3750
sg138
g3765
sg139
I00
sg140
I00
sg141
I00
sbsg142
Nsg29
L661545314461941760L
sg143
I0
sg144
VStockTwits Web
p3769
sg126
Ven
p3770
sg147
g3730
sg132
g133
(S'\x07\xdf\x0b\x03\x0e\x070\x00\x00\x00'
p3771
tp3772
Rp3773
sg50
(dp3774
g152
Nsg153
I00
sg154
g3727
sg156
I00
sg157
Nsg56
L661545314461941760L
sg158
I0
sg159
V<a href="http://stocktwits.com" rel="nofollow">StockTwits Web</a>
p3775
sg161
I00
sg162
Nsg64
(dp3776
g164
(lp3777
(dp3778
g39
(lp3779
I52
aI58
asg154
VLBTYK
p3780
sa(dp3781
g39
(lp3782
I59
aI63
asg154
VPPL
p3783
sa(dp3784
g39
(lp3785
I64
aI70
asg154
VDISCA
p3786
sasg169
(lp3787
sg171
(lp3788
sg35
(lp3789
(dp3790
g33
Vhttps://t.co/fcIpEQSktA
p3791
sg39
(lp3792
I28
aI51
asg41
Vhttp://stks.co/f3NmJ
p3793
sg43
Vstks.co/f3NmJ
p3794
sassg185
Nsg186
Nsg187
I0
sg68
V661545314461941760
p3795
sg189
I00
sg190
g3749
sg191
Nsg192
Nsg193
I00
sg90
g3770
sg98
VTue Nov 03 14:07:48 +0000 2015
p3796
sg195
Nsg196
Nsg197
(dp3797
g199
Ven
p3798
sg201
Vrecent
p3799
sssg203
g3797
sg204
Nsg205
Nsg31
g3776
sg206
Nsg207
Nsg110
g3795
sg208
I00
sg209
Nsg210
I0
sg211
Nsbag0
(g4
g5
Ntp3800
Rp3801
(dp3802
g9
I00
sg10
Nsg11
I00
sg12
VCool: #HedgeFund Clustering Update https://t.co/qFzcTnByl6 #alternativeinvestment $AAPL $CHTR $FOLD $SBAC $PCRX $LBTYK $BAX $VRX $LVLT $SQBG
p3803
sg14
Vhttp://www.hootsuite.com
p3804
sg16
I00
sg17
I00
sg18
Nsg19
g0
(g20
g5
Ntp3805
Rp3806
(dp3807
g24
I00
sg25
I00
sg26
I00
sg27
V000000
p3808
sg29
L3617645112L
sg30
I00
sg31
(dp3809
g33
(dp3810
g35
(lp3811
(dp3812
g33
Vhttp://t.co/rPRZ8RRKpq
p3813
sg39
(lp3814
I0
aI22
asg41
Vhttp://briandcolwell.blogspot.com/
p3815
sg43
Vbriandcolwell.blogspot.com
p3816
sassg45
(dp3817
g35
(lp3818
sssg48
Vhttps://pbs.twimg.com/profile_images/645298519922728960/GLY-E6bE_normal.jpg
p3819
sg50
(dp3820
g52
I00
sg53
I00
sg54
I00
sg55
I00
sg56
L3617645112L
sg57
Vhttps://abs.twimg.com/images/themes/theme1/bg.png
p3821
sg59
I00
sg60
V000000
p3822
sg62
g3819
sg63
g3808
sg64
g3809
sg65
I114
sg66
V000000
p3823
sg68
V3617645112
p3824
sg70
V000000
p3825
sg72
I23
sg73
I00
sg74
I-28800
sg75
I570
sg45
VTweets about #AlternativeInvestments, #LiquidAlts, #HedgeFunds, #RealAssets.\u000a\u000aCheck out the other financial topics I cover on @BrianDColwell
p3826
sg77
I163
sg78
VSan Diego, CA
p3827
sg80
V01302A
p3828
sg82
Vhttp://pbs.twimg.com/profile_images/645298519922728960/GLY-E6bE_normal.jpg
p3829
sg84
I00
sg85
I00
sg686
Vhttps://pbs.twimg.com/profile_banners/3617645112/1442685791
p3830
sg86
Vhttp://abs.twimg.com/images/themes/theme1/bg.png
p3831
sg88
VBColwell_ALT
p3832
sg90
Ven
p3833
sg92
I00
sg93
I34
sg94
VBrian D Colwell
p3834
sg96
I00
sg33
Vhttp://t.co/rPRZ8RRKpq
p3835
sg98
VSat Sep 19 16:31:20 +0000 2015
p3836
sg100
I00
sg101
VPacific Time (US & Canada)
p3837
sg103
I00
sg104
I00
sg105
I00
ssg106
I00
sg107
g3822
sg108
I114
sg109
g3823
sg110
g3824
sg111
I00
sg112
I23
sg113
I00
sg114
I-28800
sg115
I570
sg116
VTweets about #AlternativeInvestments, #LiquidAlts, #HedgeFunds, #RealAssets.\u000a\u000aCheck out the other financial topics I cover on @BrianDColwell
p3838
sg117
I163
sg118
g3827
sg119
g3828
sg120
g3829
sg121
I00
sg122
I00
sg123
g3825
sg695
g3830
sg124
g3831
sg125
g3832
sg126
g3833
sg127
I00
sg128
I00
sg129
I34
sg130
g3834
sg131
g3835
sg132
g133
(S'\x07\xdf\t\x13\x10\x1f\x14\x00\x00\x00'
p3839
tp3840
Rp3841
sg137
g3821
sg138
g3837
sg139
I00
sg140
I00
sg141
I00
sbsg142
Nsg29
L661525933384429568L
sg143
I0
sg144
VHootsuite
p3842
sg126
Vnl
p3843
sg147
g3806
sg132
g133
(S'\x07\xdf\x0b\x03\x0c2/\x00\x00\x00'
p3844
tp3845
Rp3846
sg50
(dp3847
g152
Nsg153
I00
sg154
g3803
sg156
I00
sg157
Nsg56
L661525933384429568L
sg158
I0
sg159
V<a href="http://www.hootsuite.com" rel="nofollow">Hootsuite</a>
p3848
sg161
I00
sg162
Nsg64
(dp3849
g164
(lp3850
(dp3851
g39
(lp3852
I82
aI87
asg154
VAAPL
p3853
sa(dp3854
g39
(lp3855
I88
aI93
asg154
VCHTR
p3856
sa(dp3857
g39
(lp3858
I94
aI99
asg154
VFOLD
p3859
sa(dp3860
g39
(lp3861
I100
aI105
asg154
VSBAC
p3862
sa(dp3863
g39
(lp3864
I106
aI111
asg154
VPCRX
p3865
sa(dp3866
g39
(lp3867
I112
aI118
asg154
VLBTYK
p3868
sa(dp3869
g39
(lp3870
I119
aI123
asg154
VBAX
p3871
sa(dp3872
g39
(lp3873
I124
aI128
asg154
VVRX
p3874
sa(dp3875
g39
(lp3876
I129
aI134
asg154
VLVLT
p3877
sa(dp3878
g39
(lp3879
I135
aI140
asg154
VSQBG
p3880
sasg169
(lp3881
sg171
(lp3882
(dp3883
g39
(lp3884
I6
aI16
asg154
VHedgeFund
p3885
sa(dp3886
g39
(lp3887
I59
aI81
asg154
Valternativeinvestment
p3888
sasg35
(lp3889
(dp3890
g33
Vhttps://t.co/qFzcTnByl6
p3891
sg39
(lp3892
I35
aI58
asg41
Vhttp://ow.ly/U3k89
p3893
sg43
Vow.ly/U3k89
p3894
sassg185
Nsg186
Nsg187
I0
sg68
V661525933384429568
p3895
sg189
I00
sg190
g3820
sg191
Nsg192
Nsg193
I00
sg90
g3843
sg98
VTue Nov 03 12:50:47 +0000 2015
p3896
sg195
Nsg196
Nsg197
(dp3897
g199
Vnl
p3898
sg201
Vrecent
p3899
sssg203
g3897
sg204
Nsg205
Nsg31
g3849
sg206
Nsg207
Nsg110
g3895
sg208
I00
sg209
Nsg210
I0
sg211
Nsbag0
(g4
g5
Ntp3900
Rp3901
(dp3902
g9
I00
sg10
Nsg11
I00
sg12
V$GPS $LBTYK:\u000a\u000aInvestors yanked big money from these stocks: Occidental \u2026:\u000a\u000ahttps://t.co/FaCBruUSp9
p3903
sg14
Vhttp://www.newsflowing.com
p3904
sg16
I00
sg17
I00
sg18
Nsg19
g0
(g20
g5
Ntp3905
Rp3906
(dp3907
g24
I00
sg25
I00
sg26
I01
sg27
VDDFFCC
p3908
sg29
L2342763212L
sg30
I00
sg31
(dp3909
g45
(dp3910
g35
(lp3911
sssg48
Vhttps://pbs.twimg.com/profile_images/544036701056684032/FY2Xgs7b_normal.jpeg
p3912
sg50
(dp3913
g52
I00
sg53
I00
sg54
I01
sg55
I00
sg56
L2342763212L
sg57
Vhttps://abs.twimg.com/images/themes/theme16/bg.gif
p3914
sg59
I00
sg60
V333333
p3915
sg62
g3912
sg63
g3908
sg64
g3909
sg65
I421
sg66
VBDDCAD
p3916
sg68
V2342763212
p3917
sg70
V9AE4E8
p3918
sg72
I74
sg73
I00
sg74
I-14400
sg75
I193980
sg45
VNews as it happens
p3919
sg77
I0
sg78
VUS
p3920
sg80
V0084B4
p3921
sg82
Vhttp://pbs.twimg.com/profile_images/544036701056684032/FY2Xgs7b_normal.jpeg
p3922
sg84
I00
sg85
I00
sg86
Vhttp://abs.twimg.com/images/themes/theme16/bg.gif
p3923
sg88
Vnewswelldone
p3924
sg90
Ven
p3925
sg92
I00
sg93
I0
sg94
VBreaking News
p3926
sg96
I00
sg33
Nsg98
VFri Feb 14 00:21:52 +0000 2014
p3927
sg100
I00
sg101
VAtlantic Time (Canada)
p3928
sg103
I00
sg104
I00
sg105
I00
ssg106
I00
sg107
g3915
sg108
I421
sg109
g3916
sg110
g3917
sg111
I00
sg112
I74
sg113
I00
sg114
I-14400
sg115
I193980
sg116
g3919
sg117
I0
sg118
g3920
sg119
g3921
sg120
g3922
sg121
I00
sg122
I00
sg123
g3918
sg124
g3923
sg125
g3924
sg126
g3925
sg127
I00
sg128
I00
sg129
I0
sg130
g3926
sg131
Nsg132
g133
(S'\x07\xde\x02\x0e\x00\x154\x00\x00\x00'
p3929
tp3930
Rp3931
sg137
g3914
sg138
g3928
sg139
I00
sg140
I00
sg141
I00
sbsg142
Nsg29
L661520487399473153L
sg143
I0
sg144
VNFIG
p3932
sg126
Ven
p3933
sg147
g3906
sg132
g133
(S'\x07\xdf\x0b\x03\x0c\x1d\t\x00\x00\x00'
p3934
tp3935
Rp3936
sg50
(dp3937
g152
Nsg153
I00
sg154
V$GPS $LBTYK:\u000a\u000aInvestors yanked big money from these stocks: Occidental \u2026:\u000a\u000ahttps://t.co/FaCBruUSp9
p3938
sg156
I00
sg157
Nsg56
L661520487399473153L
sg158
I0
sg159
V<a href="http://www.newsflowing.com" rel="nofollow">NFIG</a>
p3939
sg161
I00
sg162
Nsg64
(dp3940
g164
(lp3941
(dp3942
g39
(lp3943
I0
aI4
asg154
VGPS
p3944
sa(dp3945
g39
(lp3946
I5
aI11
asg154
VLBTYK
p3947
sasg169
(lp3948
sg171
(lp3949
sg35
(lp3950
(dp3951
g33
Vhttps://t.co/FaCBruUSp9
p3952
sg39
(lp3953
I75
aI98
asg41
Vhttp://StockNewsHour.com/gps-lbtyk-investors-yanked-big-money-from-these-stocks-occidental/
p3954
sg43
VStockNewsHour.com/gps-lbtyk-inve\u2026
p3955
sassg185
Nsg186
Nsg187
I0
sg68
V661520487399473153
p3956
sg189
I00
sg190
g3913
sg191
Nsg192
Nsg193
I00
sg90
g3933
sg98
VTue Nov 03 12:29:09 +0000 2015
p3957
sg195
Nsg196
Nsg197
(dp3958
g199
Ven
p3959
sg201
Vrecent
p3960
sssg203
g3958
sg204
Nsg205
Nsg31
g3940
sg206
Nsg207
Nsg110
g3956
sg208
I00
sg209
Nsg210
I0
sg211
Nsbag0
(g4
g5
Ntp3961
Rp3962
(dp3963
g9
I00
sg10
Nsg11
I00
sg12
V$PBR 1\u000a$GLOG 1\u000a$OPK 1\u000a$HAE 1\u000a$HUN 1\u000a$HYH 1\u000a$ININ 1\u000a$ITUB 1\u000a$JMEI 1\u000a$YELP 1\u000a$KERX 1\u000a$KKR 1\u000a$OMER 1\u000a$LBTYK 1\u000a$LOCO 1\u000a$MELI 1\u000a$MYL 1
p3964
sg14
Vhttp://twitter.com/download/iphone
p3965
sg17
I00
sg18
Nsg19
g0
(g20
g5
Ntp3966
Rp3967
(dp3968
g24
I00
sg25
I00
sg26
I01
sg27
VDDEEF6
p3969
sg29
I555308989
sg30
I00
sg31
(dp3970
g45
(dp3971
g35
(lp3972
sssg48
Vhttps://pbs.twimg.com/profile_images/2245586267/db427bc6a0b711e180c9123138016265_7_normal.jpg
p3973
sg50
(dp3974
g52
I00
sg53
I00
sg54
I01
sg55
I00
sg56
I555308989
sg57
Vhttps://abs.twimg.com/images/themes/theme1/bg.png
p3975
sg59
I00
sg60
V333333
p3976
sg62
g3973
sg63
g3969
sg64
g3970
sg65
I96
sg66
VC0DEED
p3977
sg68
V555308989
p3978
sg70
VC0DEED
p3979
sg72
I5
sg73
I00
sg74
Nsg75
I2266
sg45
g297
sg77
I509
sg78
VHawaii
p3980
sg80
V0084B4
p3981
sg82
Vhttp://pbs.twimg.com/profile_images/2245586267/db427bc6a0b711e180c9123138016265_7_normal.jpg
p3982
sg84
I00
sg85
I00
sg686
Vhttps://pbs.twimg.com/profile_banners/555308989/1418886470
p3983
sg86
Vhttp://abs.twimg.com/images/themes/theme1/bg.png
p3984
sg88
VHisurfexp
p3985
sg90
Ven
p3986
sg92
I00
sg93
I2
sg94
VHisurfexp
p3987
sg96
I00
sg33
Nsg98
VMon Apr 16 18:02:22 +0000 2012
p3988
sg100
I00
sg101
Nsg103
I00
sg104
I01
sg105
I00
ssg106
I00
sg107
g3976
sg108
I96
sg109
g3977
sg110
g3978
sg111
I00
sg112
I5
sg113
I00
sg114
Nsg115
I2266
sg116
g297
sg117
I509
sg118
g3980
sg119
g3981
sg120
g3982
sg121
I00
sg122
I00
sg123
g3979
sg695
g3983
sg124
g3984
sg125
g3985
sg126
g3986
sg127
I00
sg128
I00
sg129
I2
sg130
g3987
sg131
Nsg132
g133
(S'\x07\xdc\x04\x10\x12\x02\x16\x00\x00\x00'
p3989
tp3990
Rp3991
sg137
g3975
sg138
Nsg139
I00
sg140
I01
sg141
I00
sbsg142
Nsg29
L661378957468504064L
sg143
I0
sg144
VTwitter for iPhone
p3992
sg126
Vin
p3993
sg147
g3967
sg132
g133
(S'\x07\xdf\x0b\x03\x03\x06-\x00\x00\x00'
p3994
tp3995
Rp3996
sg50
(dp3997
g152
Nsg153
I00
sg154
V$PBR 1\u000a$GLOG 1\u000a$OPK 1\u000a$HAE 1\u000a$HUN 1\u000a$HYH 1\u000a$ININ 1\u000a$ITUB 1\u000a$JMEI 1\u000a$YELP 1\u000a$KERX 1\u000a$KKR 1\u000a$OMER 1\u000a$LBTYK 1\u000a$LOCO 1\u000a$MELI 1\u000a$MYL 1
p3998
sg156
I00
sg157
Nsg56
L661378957468504064L
sg158
I0
sg159
V<a href="http://twitter.com/download/iphone" rel="nofollow">Twitter for iPhone</a>
p3999
sg161
I00
sg162
Nsg64
(dp4000
g164
(lp4001
(dp4002
g39
(lp4003
I0
aI4
asg154
VPBR
p4004
sa(dp4005
g39
(lp4006
I7
aI12
asg154
VGLOG
p4007
sa(dp4008
g39
(lp4009
I15
aI19
asg154
VOPK
p4010
sa(dp4011
g39
(lp4012
I22
aI26
asg154
VHAE
p4013
sa(dp4014
g39
(lp4015
I29
aI33
asg154
VHUN
p4016
sa(dp4017
g39
(lp4018
I36
aI40
asg154
VHYH
p4019
sa(dp4020
g39
(lp4021
I43
aI48
asg154
VININ
p4022
sa(dp4023
g39
(lp4024
I51
aI56
asg154
VITUB
p4025
sa(dp4026
g39
(lp4027
I59
aI64
asg154
VJMEI
p4028
sa(dp4029
g39
(lp4030
I67
aI72
asg154
VYELP
p4031
sa(dp4032
g39
(lp4033
I75
aI80
asg154
VKERX
p4034
sa(dp4035
g39
(lp4036
I83
aI87
asg154
VKKR
p4037
sa(dp4038
g39
(lp4039
I90
aI95
asg154
VOMER
p4040
sa(dp4041
g39
(lp4042
I98
aI104
asg154
VLBTYK
p4043
sa(dp4044
g39
(lp4045
I107
aI112
asg154
VLOCO
p4046
sa(dp4047
g39
(lp4048
I115
aI120
asg154
VMELI
p4049
sa(dp4050
g39
(lp4051
I123
aI127
asg154
VMYL
p4052
sasg169
(lp4053
sg171
(lp4054
sg35
(lp4055
ssg185
Nsg186
Nsg187
I0
sg68
V661378957468504064
p4056
sg189
I00
sg190
g3974
sg191
Nsg192
Nsg90
g3993
sg98
VTue Nov 03 03:06:45 +0000 2015
p4057
sg195
Nsg196
Nsg197
(dp4058
g199
Vin
p4059
sg201
Vrecent
p4060
sssg203
g4058
sg204
Nsg205
Nsg31
g4000
sg206
Nsg207
Nsg110
g4056
sg208
I00
sg209
Nsg210
I0
sg211
Nsbag0
(g4
g5
Ntp4061
Rp4062
(dp4063
g9
I00
sg10
Nsg11
I00
sg12
VVolume Alert - LBTYK 43.27 Liberty Global $LBTYK Hit a high today of 43.32 Closing the day 10:30 at 43.27 +0.6 https://t.co/d9DSjPED8k
p4064
sg14
Vhttp://investorshangout.com/
p4065
sg16
I00
sg17
I00
sg18
Nsg19
g0
(g20
g5
Ntp4066
Rp4067
(dp4068
g24
I00
sg25
I00
sg26
I01
sg27
VF3F3F3
p4069
sg29
L2181373892L
sg30
I00
sg31
(dp4070
g45
(dp4071
g35
(lp4072
sssg48
Vhttps://pbs.twimg.com/profile_images/378800000709720717/9040d3f653778f0b019e8ee62cd2d813_normal.jpeg
p4073
sg50
(dp4074
g52
I00
sg53
I00
sg54
I01
sg55
I00
sg56
L2181373892L
sg57
Vhttps://abs.twimg.com/images/themes/theme7/bg.gif
p4075
sg59
I00
sg60
V333333
p4076
sg62
g4073
sg63
g4069
sg64
g4070
sg65
I639
sg66
VDFDFDF
p4077
sg68
V2181373892
p4078
sg70
VEBEBEB
p4079
sg72
I167
sg73
I00
sg74
I-21600
sg75
I182196
sg45
Vleahanne
p4080
sg77
I452
sg78
g297
sg80
V990000
p4081
sg82
Vhttp://pbs.twimg.com/profile_images/378800000709720717/9040d3f653778f0b019e8ee62cd2d813_normal.jpeg
p4082
sg84
I00
sg85
I00
sg86
Vhttp://abs.twimg.com/images/themes/theme7/bg.gif
p4083
sg88
Vleahanneta
p4084
sg90
Ven
p4085
sg92
I00
sg93
I0
sg94
Vleahanne
p4086
sg96
I00
sg33
Nsg98
VFri Nov 08 03:29:09 +0000 2013
p4087
sg100
I00
sg101
VCentral Time (US & Canada)
p4088
sg103
I00
sg104
I00
sg105
I00
ssg106
I00
sg107
g4076
sg108
I639
sg109
g4077
sg110
g4078
sg111
I00
sg112
I167
sg113
I00
sg114
I-21600
sg115
I182196
sg116
g4080
sg117
I452
sg118
g297
sg119
g4081
sg120
g4082
sg121
I00
sg122
I00
sg123
g4079
sg124
g4083
sg125
g4084
sg126
g4085
sg127
I00
sg128
I00
sg129
I0
sg130
g4086
sg131
Nsg132
g133
(S'\x07\xdd\x0b\x08\x03\x1d\t\x00\x00\x00'
p4089
tp4090
Rp4091
sg137
g4075
sg138
g4088
sg139
I00
sg140
I00
sg141
I00
sbsg142
Nsg29
L661224101235658753L
sg143
I0
sg144
VInvestors Hangout
p4092
sg126
Ven
p4093
sg147
g4067
sg132
g133
(S'\x07\xdf\x0b\x02\x103\x19\x00\x00\x00'
p4094
tp4095
Rp4096
sg50
(dp4097
g152
Nsg153
I00
sg154
g4064
sg156
I00
sg157
Nsg56
L661224101235658753L
sg158
I0
sg159
V<a href="http://investorshangout.com/" rel="nofollow">Investors Hangout</a>
p4098
sg161
I00
sg162
Nsg64
(dp4099
g164
(lp4100
(dp4101
g39
(lp4102
I42
aI48
asg154
VLBTYK
p4103
sasg169
(lp4104
sg171
(lp4105
sg35
(lp4106
(dp4107
g33
Vhttps://t.co/d9DSjPED8k
p4108
sg39
(lp4109
I111
aI134
asg41
Vhttp://investorshangout.com/post/view?id=3314046
p4110
sg43
Vinvestorshangout.com/post/view?id=3\u2026
p4111
sassg185
Nsg186
Nsg187
I0
sg68
V661224101235658753
p4112
sg189
I00
sg190
g4074
sg191
Nsg192
Nsg193
I00
sg90
g4093
sg98
VMon Nov 02 16:51:25 +0000 2015
p4113
sg195
Nsg196
Nsg197
(dp4114
g199
Ven
p4115
sg201
Vrecent
p4116
sssg203
g4114
sg204
Nsg205
Nsg31
g4099
sg206
Nsg207
Nsg110
g4112
sg208
I00
sg209
Nsg210
I0
sg211
Nsbag0
(g4
g5
Ntp4117
Rp4118
(dp4119
g9
I00
sg10
Nsg11
I00
sg12
VPremarket most active stocks: $DYAX, $SIRI, $QVCA, $AAPL, $FB, $TVIX, $COMM, $LBTYK, $QQQ, $ENDP
p4120
sg14
Vhttp://ifttt.com
p4121
sg17
I00
sg18
Nsg19
g0
(g20
g5
Ntp4122
Rp4123
(dp4124
g24
I00
sg25
I00
sg26
I01
sg27
VEFEFEF
p4125
sg29
I24567136
sg30
I00
sg31
(dp4126
g45
(dp4127
g35
(lp4128
sssg48
Vhttps://pbs.twimg.com/profile_images/501552496884854786/bMnEjT-u_normal.jpeg
p4129
sg50
(dp4130
g52
I00
sg53
I00
sg54
I01
sg55
I00
sg56
I24567136
sg57
Vhttps://abs.twimg.com/images/themes/theme14/bg.gif
p4131
sg59
I00
sg60
V333333
p4132
sg62
g4129
sg63
g4125
sg64
g4126
sg65
I151
sg66
VEEEEEE
p4133
sg68
V24567136
p4134
sg70
V131516
p4135
sg72
I79
sg73
I00
sg74
I-18000
sg75
I11024
sg45
VProfessional Smart Pants | Engineer | Kinda okay meh.. Stock Investor | Adventuristic
p4136
sg77
I205
sg78
VWashington DC
p4137
sg80
V009999
p4138
sg82
Vhttp://pbs.twimg.com/profile_images/501552496884854786/bMnEjT-u_normal.jpeg
p4139
sg84
I00
sg85
I00
sg686
Vhttps://pbs.twimg.com/profile_banners/24567136/1411760333
p4140
sg86
Vhttp://abs.twimg.com/images/themes/theme14/bg.gif
p4141
sg88
Vkthirum1
p4142
sg90
Ven
p4143
sg92
I01
sg93
I377
sg94
VKrishna
p4144
sg96
I00
sg33
Nsg98
VSun Mar 15 19:00:21 +0000 2009
p4145
sg100
I00
sg101
VEastern Time (US & Canada)
p4146
sg103
I00
sg104
I00
sg105
I00
ssg106
I00
sg107
g4132
sg108
I151
sg109
g4133
sg110
g4134
sg111
I00
sg112
I79
sg113
I00
sg114
I-18000
sg115
I11024
sg116
g4136
sg117
I205
sg118
g4137
sg119
g4138
sg120
g4139
sg121
I00
sg122
I00
sg123
g4135
sg695
g4140
sg124
g4141
sg125
g4142
sg126
g4143
sg127
I00
sg128
I01
sg129
I377
sg130
g4144
sg131
Nsg132
g133
(S'\x07\xd9\x03\x0f\x13\x00\x15\x00\x00\x00'
p4147
tp4148
Rp4149
sg137
g4131
sg138
g4146
sg139
I00
sg140
I00
sg141
I00
sbsg142
Nsg29
L661182303792689153L
sg143
I0
sg144
VIFTTT
p4150
sg126
Vund
p4151
sg147
g4123
sg132
g133
(S'\x07\xdf\x0b\x02\x0e\x05\x14\x00\x00\x00'
p4152
tp4153
Rp4154
sg50
(dp4155
g152
Nsg153
I00
sg154
g4120
sg156
I00
sg157
Nsg56
L661182303792689153L
sg158
I0
sg159
V<a href="http://ifttt.com" rel="nofollow">IFTTT</a>
p4156
sg161
I00
sg162
Nsg64
(dp4157
g164
(lp4158
(dp4159
g39
(lp4160
I30
aI35
asg154
VDYAX
p4161
sa(dp4162
g39
(lp4163
I37
aI42
asg154
VSIRI
p4164
sa(dp4165
g39
(lp4166
I44
aI49
asg154
VQVCA
p4167
sa(dp4168
g39
(lp4169
I51
aI56
asg154
VAAPL
p4170
sa(dp4171
g39
(lp4172
I58
aI61
asg154
VFB
p4173
sa(dp4174
g39
(lp4175
I63
aI68
asg154
VTVIX
p4176
sa(dp4177
g39
(lp4178
I70
aI75
asg154
VCOMM
p4179
sa(dp4180
g39
(lp4181
I77
aI83
asg154
VLBTYK
p4182
sa(dp4183
g39
(lp4184
I85
aI89
asg154
VQQQ
p4185
sa(dp4186
g39
(lp4187
I91
aI96
asg154
VENDP
p4188
sasg169
(lp4189
sg171
(lp4190
sg35
(lp4191
ssg185
Nsg186
Nsg187
I0
sg68
V661182303792689153
p4192
sg189
I00
sg190
g4130
sg191
Nsg192
Nsg90
g4151
sg98
VMon Nov 02 14:05:20 +0000 2015
p4193
sg195
Nsg196
Nsg197
(dp4194
g199
Vund
p4195
sg201
Vrecent
p4196
sssg203
g4194
sg204
Nsg205
Nsg31
g4157
sg206
Nsg207
Nsg110
g4192
sg208
I00
sg209
Nsg210
I0
sg211
Nsbag0
(g4
g5
Ntp4197
Rp4198
(dp4199
g9
I00
sg10
Nsg11
I00
sg12
VPremarket most active stocks: $DYAX, $SIRI, $QVCA, $AAPL, $FB, $TVIX, $COMM, $LBTYK, $QQQ, $ENDP
p4200
sg14
Vhttp://www.cyborgquant.com/
p4201
sg17
I00
sg18
Nsg19
g0
(g20
g5
Ntp4202
Rp4203
(dp4204
g24
I00
sg25
I00
sg26
I01
sg27
VDDEEF6
p4205
sg29
L2646506552L
sg30
I00
sg31
(dp4206
g33
(dp4207
g35
(lp4208
(dp4209
g33
Vhttp://t.co/sgq7HeFgpz
p4210
sg39
(lp4211
I0
aI22
asg41
Vhttp://www.cyborgquant.com
p4212
sg43
Vcyborgquant.com
p4213
sassg45
(dp4214
g35
(lp4215
(dp4216
g33
Vhttp://t.co/9tbx5laeA0
p4217
sg39
(lp4218
I137
aI159
asg41
Vhttp://Cyborgquant.com
p4219
sg43
VCyborgquant.com
p4220
sasssg48
Vhttps://pbs.twimg.com/profile_images/488835795784970240/qyxPuthI_normal.png
p4221
sg50
(dp4222
g52
I00
sg53
I00
sg54
I01
sg55
I00
sg56
L2646506552L
sg57
Vhttps://abs.twimg.com/images/themes/theme1/bg.png
p4223
sg59
I00
sg60
V333333
p4224
sg62
g4221
sg63
g4205
sg64
g4206
sg65
I244
sg66
VC0DEED
p4225
sg68
V2646506552
p4226
sg70
VC0DEED
p4227
sg72
I19
sg73
I00
sg74
Nsg75
I7002
sg45
VAlgorithmic hedge trader, currently futures and commodites. Use my free position sizer and risk vs reward tool to improve your trading @ http://t.co/9tbx5laeA0
p4228
sg77
I142
sg78
VOxford, England, UK
p4229
sg80
V032B36
p4230
sg82
Vhttp://pbs.twimg.com/profile_images/488835795784970240/qyxPuthI_normal.png
p4231
sg84
I00
sg85
I01
sg86
Vhttp://abs.twimg.com/images/themes/theme1/bg.png
p4232
sg88
VCyborgQuant
p4233
sg90
Ven
p4234
sg92
I00
sg93
I39
sg94
VChristopher Angus
p4235
sg96
I00
sg33
Vhttp://t.co/sgq7HeFgpz
p4236
sg98
VMon Jul 14 23:18:51 +0000 2014
p4237
sg100
I00
sg101
Nsg103
I00
sg104
I00
sg105
I00
ssg106
I00
sg107
g4224
sg108
I244
sg109
g4225
sg110
g4226
sg111
I00
sg112
I19
sg113
I00
sg114
Nsg115
I7002
sg116
g4228
sg117
I142
sg118
g4229
sg119
g4230
sg120
g4231
sg121
I00
sg122
I01
sg123
g4227
sg124
g4232
sg125
g4233
sg126
g4234
sg127
I00
sg128
I00
sg129
I39
sg130
g4235
sg131
g4236
sg132
g133
(S'\x07\xde\x07\x0e\x17\x123\x00\x00\x00'
p4238
tp4239
Rp4240
sg137
g4223
sg138
Nsg139
I00
sg140
I00
sg141
I00
sbsg142
Nsg29
L661180974731010049L
sg143
I0
sg144
VCyborgQuantData
p4241
sg126
Vund
p4242
sg147
g4203
sg132
g133
(S'\x07\xdf\x0b\x02\x0e\x00\x03\x00\x00\x00'
p4243
tp4244
Rp4245
sg50
(dp4246
g152
Nsg153
I00
sg154
g4200
sg156
I00
sg157
Nsg56
L661180974731010049L
sg158
I0
sg159
V<a href="http://www.cyborgquant.com/" rel="nofollow">CyborgQuantData</a>
p4247
sg161
I00
sg162
Nsg64
(dp4248
g164
(lp4249
(dp4250
g39
(lp4251
I30
aI35
asg154
VDYAX
p4252
sa(dp4253
g39
(lp4254
I37
aI42
asg154
VSIRI
p4255
sa(dp4256
g39
(lp4257
I44
aI49
asg154
VQVCA
p4258
sa(dp4259
g39
(lp4260
I51
aI56
asg154
VAAPL
p4261
sa(dp4262
g39
(lp4263
I58
aI61
asg154
VFB
p4264
sa(dp4265
g39
(lp4266
I63
aI68
asg154
VTVIX
p4267
sa(dp4268
g39
(lp4269
I70
aI75
asg154
VCOMM
p4270
sa(dp4271
g39
(lp4272
I77
aI83
asg154
VLBTYK
p4273
sa(dp4274
g39
(lp4275
I85
aI89
asg154
VQQQ
p4276
sa(dp4277
g39
(lp4278
I91
aI96
asg154
VENDP
p4279
sasg169
(lp4280
sg171
(lp4281
sg35
(lp4282
ssg185
Nsg186
Nsg187
I0
sg68
V661180974731010049
p4283
sg189
I00
sg190
g4222
sg191
Nsg192
Nsg90
g4242
sg98
VMon Nov 02 14:00:03 +0000 2015
p4284
sg195
Nsg196
Nsg197
(dp4285
g199
Vund
p4286
sg201
Vrecent
p4287
sssg203
g4285
sg204
Nsg205
Nsg31
g4248
sg206
Nsg207
Nsg110
g4283
sg208
I00
sg209
Nsg210
I0
sg211
Nsbag0
(g4
g5
Ntp4288
Rp4289
(dp4290
g9
I00
sg10
Nsg11
I00
sg12
V$LBTYK $EW $PNY:\u000a\u000a\u2022 3 stocks are drawing weak interest: Liberty Global (NASDAQ \u2026:\u000a\u000ahttps://t.co/qP9Vzb8qn4
p4291
sg14
Vhttp://www.newsflowing.com
p4292
sg16
I00
sg17
I00
sg18
Nsg19
g0
(g20
g5
Ntp4293
Rp4294
(dp4295
g24
I00
sg25
I00
sg26
I01
sg27
VE6F6F9
p4296
sg29
L2342215530L
sg30
I00
sg31
(dp4297
g45
(dp4298
g35
(lp4299
sssg48
Vhttps://pbs.twimg.com/profile_images/544036492876591104/7QJIB-XK_normal.jpeg
p4300
sg50
(dp4301
g52
I00
sg53
I00
sg54
I01
sg55
I00
sg56
L2342215530L
sg57
Vhttps://abs.twimg.com/images/themes/theme17/bg.gif
p4302
sg59
I00
sg60
V333333
p4303
sg62
g4300
sg63
g4296
sg64
g4297
sg65
I465
sg66
VDBE9ED
p4304
sg68
V2342215530
p4305
sg70
VDBE9ED
p4306
sg72
I89
sg73
I00
sg74
I-14400
sg75
I193001
sg45
g297
sg77
I0
sg78
g297
sg80
VCC3366
p4307
sg82
Vhttp://pbs.twimg.com/profile_images/544036492876591104/7QJIB-XK_normal.jpeg
p4308
sg84
I00
sg85
I00
sg86
Vhttp://abs.twimg.com/images/themes/theme17/bg.gif
p4309
sg88
Vnewswithvalue
p4310
sg90
Ven
p4311
sg92
I00
sg93
I0
sg94
VBreaking News Now
p4312
sg96
I00
sg33
Nsg98
VThu Feb 13 16:14:12 +0000 2014
p4313
sg100
I00
sg101
VAtlantic Time (Canada)
p4314
sg103
I00
sg104
I00
sg105
I00
ssg106
I00
sg107
g4303
sg108
I465
sg109
g4304
sg110
g4305
sg111
I00
sg112
I89
sg113
I00
sg114
I-14400
sg115
I193001
sg116
g297
sg117
I0
sg118
g297
sg119
g4307
sg120
g4308
sg121
I00
sg122
I00
sg123
g4306
sg124
g4309
sg125
g4310
sg126
g4311
sg127
I00
sg128
I00
sg129
I0
sg130
g4312
sg131
Nsg132
g133
(S'\x07\xde\x02\r\x10\x0e\x0c\x00\x00\x00'
p4315
tp4316
Rp4317
sg137
g4302
sg138
g4314
sg139
I00
sg140
I00
sg141
I00
sbsg142
Nsg29
L661170434696716288L
sg143
I0
sg144
VNFIG
p4318
sg126
Vpl
p4319
sg147
g4294
sg132
g133
(S'\x07\xdf\x0b\x02\r\x12\n\x00\x00\x00'
p4320
tp4321
Rp4322
sg50
(dp4323
g152
Nsg153
I00
sg154
V$LBTYK $EW $PNY:\u000a\u000a\u2022 3 stocks are drawing weak interest: Liberty Global (NASDAQ \u2026:\u000a\u000ahttps://t.co/qP9Vzb8qn4
p4324
sg156
I00
sg157
Nsg56
L661170434696716288L
sg158
I0
sg159
V<a href="http://www.newsflowing.com" rel="nofollow">NFIG</a>
p4325
sg161
I00
sg162
Nsg64
(dp4326
g164
(lp4327
(dp4328
g39
(lp4329
I0
aI6
asg154
VLBTYK
p4330
sa(dp4331
g39
(lp4332
I7
aI10
asg154
VEW
p4333
sa(dp4334
g39
(lp4335
I11
aI15
asg154
VPNY
p4336
sasg169
(lp4337
sg171
(lp4338
sg35
(lp4339
(dp4340
g33
Vhttps://t.co/qP9Vzb8qn4
p4341
sg39
(lp4342
I83
aI106
asg41
Vhttp://StockNewsHour.com/lbtyk-ew-pny-3-stocks-are-drawing-weak-interest-liberty-global-nasdaq/
p4343
sg43
VStockNewsHour.com/lbtyk-ew-pny-3\u2026
p4344
sassg185
Nsg186
Nsg187
I0
sg68
V661170434696716288
p4345
sg189
I00
sg190
g4301
sg191
Nsg192
Nsg193
I00
sg90
g4319
sg98
VMon Nov 02 13:18:10 +0000 2015
p4346
sg195
Nsg196
Nsg197
(dp4347
g199
Vpl
p4348
sg201
Vrecent
p4349
sssg203
g4347
sg204
Nsg205
Nsg31
g4326
sg206
Nsg207
Nsg110
g4345
sg208
I00
sg209
Nsg210
I0
sg211
Nsbatp4350
Rp4351
(dp4352
S'count'
p4353
I100
sS'completed_in'
p4354
F0.082
sS'_since_id'
p4355
NsS'refresh_url'
p4356
V?since_id=664442940631027713&q=%24LBTYK&include_entities=1
p4357
sS'query'
p4358
V%24LBTYK
p4359
sS'_max_id'
p4360
NsS'next_results'
p4361
Nsb.