ccopy_reg
_reconstructor
p0
(ctweepy.models
SearchResults
p1
c__builtin__
list
p2
(lp3
g0
(ctweepy.models
Status
p4
c__builtin__
object
p5
Ntp6
Rp7
(dp8
S'favorited'
p9
I00
sS'contributors'
p10
NsS'truncated'
p11
I00
sS'text'
p12
VOn Track Innovations $OTIV to Release Quarterly Earnings on Thursday https://t.co/GElbijuXam #acn
p13
sS'source_url'
p14
Vhttp://ifttt.com
p15
sS'possibly_sensitive'
p16
I00
sS'is_quote_status'
p17
I00
sS'in_reply_to_status_id'
p18
NsS'user'
p19
g0
(ctweepy.models
User
p20
g5
Ntp21
Rp22
(dp23
S'follow_request_sent'
p24
I00
sS'has_extended_profile'
p25
I00
sS'profile_use_background_image'
p26
I01
sS'profile_sidebar_fill_color'
p27
VE8E8E8
p28
sS'id'
p29
I52210566
sS'verified'
p30
I00
sS'entities'
p31
(dp32
Vurl
p33
(dp34
Vurls
p35
(lp36
(dp37
g33
Vhttp://t.co/odTc3pvcAe
p38
sVindices
p39
(lp40
I0
aI22
asVexpanded_url
p41
Vhttp://www.americanconsumernews.com/
p42
sVdisplay_url
p43
Vamericanconsumernews.com
p44
sassVdescription
p45
(dp46
g35
(lp47
sssS'profile_image_url_https'
p48
Vhttps://pbs.twimg.com/profile_images/289298274/text_normal.jpg
p49
sS'_json'
p50
(dp51
Vfollow_request_sent
p52
I00
sVhas_extended_profile
p53
I00
sVprofile_use_background_image
p54
I01
sVdefault_profile_image
p55
I00
sVid
p56
I52210566
sVprofile_background_image_url_https
p57
Vhttps://pbs.twimg.com/profile_background_images/20558354/back.jpg
p58
sVverified
p59
I00
sVprofile_text_color
p60
V333333
p61
sVprofile_image_url_https
p62
g49
sVprofile_sidebar_fill_color
p63
g28
sVentities
p64
g32
sVfollowers_count
p65
I1114
sVprofile_sidebar_border_color
p66
VADADAD
p67
sVid_str
p68
V52210566
p69
sVprofile_background_color
p70
V9AE4E8
p71
sVlisted_count
p72
I96
sVis_translation_enabled
p73
I00
sVutc_offset
p74
I-21600
sVstatuses_count
p75
I580839
sg45
VPersonal Finance and Consumer Tips
p76
sVfriends_count
p77
I1412
sVlocation
p78
VSioux Falls, SD
p79
sVprofile_link_color
p80
V0084B4
p81
sVprofile_image_url
p82
Vhttp://pbs.twimg.com/profile_images/289298274/text_normal.jpg
p83
sVfollowing
p84
I00
sVgeo_enabled
p85
I00
sVprofile_background_image_url
p86
Vhttp://pbs.twimg.com/profile_background_images/20558354/back.jpg
p87
sVscreen_name
p88
VAmConsumerNews
p89
sVlang
p90
Ven
p91
sVprofile_background_tile
p92
I00
sVfavourites_count
p93
I0
sVname
p94
VConsumer News
p95
sVnotifications
p96
I00
sg33
Vhttp://t.co/odTc3pvcAe
p97
sVcreated_at
p98
VMon Jun 29 22:22:08 +0000 2009
p99
sVcontributors_enabled
p100
I00
sVtime_zone
p101
VCentral Time (US & Canada)
p102
sVprotected
p103
I00
sVdefault_profile
p104
I00
sVis_translator
p105
I00
ssS'contributors_enabled'
p106
I00
sS'profile_text_color'
p107
g61
sS'followers_count'
p108
I1114
sS'profile_sidebar_border_color'
p109
g67
sS'id_str'
p110
g69
sS'default_profile_image'
p111
I00
sS'listed_count'
p112
I96
sS'is_translation_enabled'
p113
I00
sS'utc_offset'
p114
I-21600
sS'statuses_count'
p115
I580839
sS'description'
p116
g76
sS'friends_count'
p117
I1412
sS'location'
p118
g79
sS'profile_link_color'
p119
g81
sS'profile_image_url'
p120
g83
sS'notifications'
p121
I00
sS'geo_enabled'
p122
I00
sS'profile_background_color'
p123
g71
sS'profile_background_image_url'
p124
g87
sS'screen_name'
p125
g89
sS'lang'
p126
g91
sS'following'
p127
I00
sS'profile_background_tile'
p128
I00
sS'favourites_count'
p129
I0
sS'name'
p130
g95
sS'url'
p131
g97
sS'created_at'
p132
cdatetime
datetime
p133
(S'\x07\xd9\x06\x1d\x16\x16\x08\x00\x00\x00'
p134
tp135
Rp136
sS'profile_background_image_url_https'
p137
g58
sS'time_zone'
p138
g102
sS'protected'
p139
I00
sS'default_profile'
p140
I00
sS'is_translator'
p141
I00
sbsS'geo'
p142
Nsg29
L664375333727113216L
sS'favorite_count'
p143
I0
sS'source'
p144
VIFTTT
p145
sg126
Ven
p146
sS'author'
p147
g22
sg132
g133
(S'\x07\xdf\x0b\x0b\t!\x11\x00\x00\x00'
p148
tp149
Rp150
sg50
(dp151
Vcontributors
p152
NsVtruncated
p153
I00
sVtext
p154
g13
sVis_quote_status
p155
I00
sVin_reply_to_status_id
p156
Nsg56
L664375333727113216L
sVfavorite_count
p157
I0
sVsource
p158
V<a href="http://ifttt.com" rel="nofollow">IFTTT</a>
p159
sVretweeted
p160
I00
sVcoordinates
p161
Nsg64
(dp162
Vsymbols
p163
(lp164
(dp165
g39
(lp166
I21
aI26
asg154
VOTIV
p167
sasVuser_mentions
p168
(lp169
sVhashtags
p170
(lp171
(dp172
g39
(lp173
I93
aI97
asg154
Vacn
p174
sasg35
(lp175
(dp176
g33
Vhttps://t.co/GElbijuXam
p177
sg39
(lp178
I69
aI92
asg41
Vhttp://ift.tt/1RNAGq8
p179
sg43
Vift.tt/1RNAGq8
p180
sassVin_reply_to_screen_name
p181
NsVin_reply_to_user_id
p182
NsVretweet_count
p183
I0
sg68
V664375333727113216
p184
sVfavorited
p185
I00
sVuser
p186
g51
sVgeo
p187
NsVin_reply_to_user_id_str
p188
NsVpossibly_sensitive
p189
I00
sg90
g146
sg98
VWed Nov 11 09:33:17 +0000 2015
p190
sVin_reply_to_status_id_str
p191
NsVplace
p192
NsVmetadata
p193
(dp194
Viso_language_code
p195
Ven
p196
sVresult_type
p197
Vrecent
p198
sssS'metadata'
p199
g194
sS'coordinates'
p200
NsS'in_reply_to_user_id_str'
p201
Nsg31
g162
sS'in_reply_to_status_id_str'
p202
NsS'in_reply_to_screen_name'
p203
Nsg110
g184
sS'retweeted'
p204
I00
sS'place'
p205
NsS'retweet_count'
p206
I0
sS'in_reply_to_user_id'
p207
Nsbag0
(g4
g5
Ntp208
Rp209
(dp210
g9
I00
sg10
Nsg11
I00
sg12
VRT @AmericanBanking: On Track Innovations $OTIV to Release Quarterly Earnings on Thursday https://t.co/052hY0ekqe
p211
sg14
Vhttps://roundteam.co
p212
sg16
I00
sg17
I00
sg18
Nsg19
g0
(g20
g5
Ntp213
Rp214
(dp215
g24
I00
sg25
I00
sg26
I01
sg27
V000000
p216
sg29
L3547008675L
sg30
I00
sg31
(dp217
g45
(dp218
g35
(lp219
sssg48
Vhttps://pbs.twimg.com/profile_images/646564826810966017/T0EMB-Vr_normal.jpg
p220
sg50
(dp221
g52
I00
sg53
I00
sg54
I01
sg55
I00
sg56
L3547008675L
sg57
Vhttps://pbs.twimg.com/profile_background_images/641289805125435393/G22z0EVh.jpg
p222
sg59
I00
sg60
V000000
p223
sg62
g220
sg63
g216
sg64
g217
sg65
I213
sg66
V000000
p224
sg68
V3547008675
p225
sg70
V0000FF
p226
sg72
I298
sg73
I00
sg74
I-28800
sg75
I16868
sg45
VNever losing money is the number one rule in investing and the second rule is that you must not forget the first rule.
p227
sg77
I27
sg78
V
p228
sg80
V0000FF
p229
sg82
Vhttp://pbs.twimg.com/profile_images/646564826810966017/T0EMB-Vr_normal.jpg
p230
sg84
I00
sg85
I00
sVprofile_banner_url
p231
Vhttps://pbs.twimg.com/profile_banners/3547008675/1442988054
p232
sg86
Vhttp://pbs.twimg.com/profile_background_images/641289805125435393/G22z0EVh.jpg
p233
sg88
VKasandraHopgood
p234
sg90
Ven
p235
sg92
I01
sg93
I0
sg94
V---Binary Option---
p236
sg96
I00
sg33
Nsg98
VFri Sep 04 17:51:38 +0000 2015
p237
sg100
I00
sg101
VPacific Time (US & Canada)
p238
sg103
I00
sg104
I00
sg105
I00
ssg106
I00
sg107
g223
sg108
I213
sg109
g224
sg110
g225
sg111
I00
sg112
I298
sg113
I00
sg114
I-28800
sg115
I16868
sg116
g227
sg117
I27
sg118
g228
sg119
g229
sg120
g230
sg121
I00
sg122
I00
sg123
g226
sS'profile_banner_url'
p239
g232
sg124
g233
sg125
g234
sg126
g235
sg127
I00
sg128
I01
sg129
I0
sg130
g236
sg131
Nsg132
g133
(S'\x07\xdf\t\x04\x113&\x00\x00\x00'
p240
tp241
Rp242
sg137
g222
sg138
g238
sg139
I00
sg140
I00
sg141
I00
sbsg142
Nsg29
L664374619000950784L
sg143
I0
sg144
VRoundTeam
p243
sg126
Ven
p244
sS'retweeted_status'
p245
g0
(g4
g5
Ntp246
Rp247
(dp248
g9
I00
sg10
Nsg11
I00
sg12
VOn Track Innovations $OTIV to Release Quarterly Earnings on Thursday https://t.co/052hY0ekqe
p249
sg14
Vhttp://ifttt.com
p250
sg16
I00
sg17
I00
sg18
Nsg19
g0
(g20
g5
Ntp251
Rp252
(dp253
g24
I00
sg25
I00
sg26
I01
sg27
VCCDAFF
p254
sg29
I61661638
sg30
I00
sg31
(dp255
g33
(dp256
g35
(lp257
(dp258
g33
Vhttp://t.co/7EZswS49Q1
p259
sg39
(lp260
I0
aI22
asg41
Vhttp://www.americanbankingnews.com/
p261
sg43
Vamericanbankingnews.com
p262
sassg45
(dp263
g35
(lp264
sssg48
Vhttps://pbs.twimg.com/profile_images/541252987/Image5_normal.jpg
p265
sg50
(dp266
g52
I00
sg53
I00
sg54
I01
sg55
I00
sg56
I61661638
sg57
Vhttps://pbs.twimg.com/profile_background_images/55647305/background.png
p267
sg59
I00
sg60
V141414
p268
sg62
g265
sg63
g254
sg64
g255
sg65
I5557
sg66
VABB1D9
p269
sg68
V61661638
p270
sg70
V000000
p271
sg72
I469
sg73
I00
sg74
I-21600
sg75
I693975
sg45
VBanks, Credit Unions & Financial Institutions
p272
sg77
I2307
sg78
VSioux Falls, SD
p273
sg80
VA60000
p274
sg82
Vhttp://pbs.twimg.com/profile_images/541252987/Image5_normal.jpg
p275
sg84
I00
sg85
I00
sg86
Vhttp://pbs.twimg.com/profile_background_images/55647305/background.png
p276
sg88
VAmericanBanking
p277
sg90
Ven
p278
sg92
I01
sg93
I0
sg94
VUS Banking News
p279
sg96
I00
sg33
Vhttp://t.co/7EZswS49Q1
p280
sg98
VFri Jul 31 01:58:33 +0000 2009
p281
sg100
I00
sg101
VCentral Time (US & Canada)
p282
sg103
I00
sg104
I00
sg105
I00
ssg106
I00
sg107
g268
sg108
I5557
sg109
g269
sg110
g270
sg111
I00
sg112
I469
sg113
I00
sg114
I-21600
sg115
I693975
sg116
g272
sg117
I2307
sg118
g273
sg119
g274
sg120
g275
sg121
I00
sg122
I00
sg123
g271
sg124
g276
sg125
g277
sg126
g278
sg127
I00
sg128
I01
sg129
I0
sg130
g279
sg131
g280
sg132
g133
(S'\x07\xd9\x07\x1f\x01:!\x00\x00\x00'
p283
tp284
Rp285
sg137
g267
sg138
g282
sg139
I00
sg140
I00
sg141
I00
sbsg142
Nsg29
L664374488205795328L
sg143
I0
sg144
VIFTTT
p286
sg126
Ven
p287
sg147
g252
sg132
g133
(S'\x07\xdf\x0b\x0b\t\x1d8\x00\x00\x00'
p288
tp289
Rp290
sg50
(dp291
g152
Nsg153
I00
sg154
g249
sg155
I00
sg156
Nsg56
L664374488205795328L
sg157
I0
sg158
V<a href="http://ifttt.com" rel="nofollow">IFTTT</a>
p292
sg160
I00
sg161
Nsg64
(dp293
g163
(lp294
(dp295
g39
(lp296
I21
aI26
asg154
VOTIV
p297
sasg168
(lp298
sg170
(lp299
sg35
(lp300
(dp301
g33
Vhttps://t.co/052hY0ekqe
p302
sg39
(lp303
I69
aI92
asg41
Vhttp://ift.tt/1HxA9s5
p304
sg43
Vift.tt/1HxA9s5
p305
sassg181
Nsg182
Nsg183
I1
sg68
V664374488205795328
p306
sg185
I00
sg186
g266
sg187
Nsg188
Nsg189
I00
sg90
g287
sg98
VWed Nov 11 09:29:56 +0000 2015
p307
sg191
Nsg192
Nsg193
(dp308
g195
Ven
p309
sg197
Vrecent
p310
sssg199
g308
sg200
Nsg201
Nsg31
g293
sg202
Nsg203
Nsg110
g306
sg204
I00
sg205
Nsg206
I1
sg207
Nsbsg147
g214
sg132
g133
(S'\x07\xdf\x0b\x0b\t\x1e\x1b\x00\x00\x00'
p311
tp312
Rp313
sg50
(dp314
g152
Nsg153
I00
sg154
g211
sg155
I00
sg156
Nsg56
L664374619000950784L
sg157
I0
sg158
V<a href="https://roundteam.co" rel="nofollow">RoundTeam</a>
p315
sg160
I00
sg161
Nsg64
(dp316
g163
(lp317
(dp318
g39
(lp319
I42
aI47
asg154
VOTIV
p320
sasg168
(lp321
(dp322
g56
I61661638
sg39
(lp323
I3
aI19
asg68
V61661638
p324
sg88
VAmericanBanking
p325
sg94
VUS Banking News
p326
sasg170
(lp327
sg35
(lp328
(dp329
g33
Vhttps://t.co/052hY0ekqe
p330
sg39
(lp331
I90
aI113
asg41
Vhttp://ift.tt/1HxA9s5
p332
sg43
Vift.tt/1HxA9s5
p333
sassg181
Nsg182
Nsg183
I1
sg68
V664374619000950784
p334
sg185
I00
sVretweeted_status
p335
g291
sg186
g221
sg187
Nsg188
Nsg189
I00
sg90
g244
sg98
VWed Nov 11 09:30:27 +0000 2015
p336
sg191
Nsg192
Nsg193
(dp337
g195
Ven
p338
sg197
Vrecent
p339
sssg199
g337
sg200
Nsg201
Nsg31
g316
sg202
Nsg203
Nsg110
g334
sg204
I00
sg205
Nsg206
I1
sg207
Nsbag0
(g4
g5
Ntp340
Rp341
(dp342
g9
I00
sg10
Nsg11
I00
sg12
VOn Track Innovations $OTIV to Release Quarterly Earnings on Thursday https://t.co/052hY0ekqe
p343
sg14
Vhttp://ifttt.com
p344
sg16
I00
sg17
I00
sg18
Nsg19
g0
(g20
g5
Ntp345
Rp346
(dp347
g24
I00
sg25
I00
sg26
I01
sg27
VCCDAFF
p348
sg29
I61661638
sg30
I00
sg31
(dp349
g33
(dp350
g35
(lp351
(dp352
g33
Vhttp://t.co/7EZswS49Q1
p353
sg39
(lp354
I0
aI22
asg41
Vhttp://www.americanbankingnews.com/
p355
sg43
Vamericanbankingnews.com
p356
sassg45
(dp357
g35
(lp358
sssg48
Vhttps://pbs.twimg.com/profile_images/541252987/Image5_normal.jpg
p359
sg50
(dp360
g52
I00
sg53
I00
sg54
I01
sg55
I00
sg56
I61661638
sg57
Vhttps://pbs.twimg.com/profile_background_images/55647305/background.png
p361
sg59
I00
sg60
V141414
p362
sg62
g359
sg63
g348
sg64
g349
sg65
I5557
sg66
VABB1D9
p363
sg68
V61661638
p364
sg70
V000000
p365
sg72
I469
sg73
I00
sg74
I-21600
sg75
I693975
sg45
VBanks, Credit Unions & Financial Institutions
p366
sg77
I2307
sg78
VSioux Falls, SD
p367
sg80
VA60000
p368
sg82
Vhttp://pbs.twimg.com/profile_images/541252987/Image5_normal.jpg
p369
sg84
I00
sg85
I00
sg86
Vhttp://pbs.twimg.com/profile_background_images/55647305/background.png
p370
sg88
VAmericanBanking
p371
sg90
Ven
p372
sg92
I01
sg93
I0
sg94
VUS Banking News
p373
sg96
I00
sg33
Vhttp://t.co/7EZswS49Q1
p374
sg98
VFri Jul 31 01:58:33 +0000 2009
p375
sg100
I00
sg101
VCentral Time (US & Canada)
p376
sg103
I00
sg104
I00
sg105
I00
ssg106
I00
sg107
g362
sg108
I5557
sg109
g363
sg110
g364
sg111
I00
sg112
I469
sg113
I00
sg114
I-21600
sg115
I693975
sg116
g366
sg117
I2307
sg118
g367
sg119
g368
sg120
g369
sg121
I00
sg122
I00
sg123
g365
sg124
g370
sg125
g371
sg126
g372
sg127
I00
sg128
I01
sg129
I0
sg130
g373
sg131
g374
sg132
g133
(S'\x07\xd9\x07\x1f\x01:!\x00\x00\x00'
p377
tp378
Rp379
sg137
g361
sg138
g376
sg139
I00
sg140
I00
sg141
I00
sbsg142
Nsg29
L664374488205795328L
sg143
I0
sg144
VIFTTT
p380
sg126
Ven
p381
sg147
g346
sg132
g133
(S'\x07\xdf\x0b\x0b\t\x1d8\x00\x00\x00'
p382
tp383
Rp384
sg50
(dp385
g152
Nsg153
I00
sg154
g343
sg155
I00
sg156
Nsg56
L664374488205795328L
sg157
I0
sg158
V<a href="http://ifttt.com" rel="nofollow">IFTTT</a>
p386
sg160
I00
sg161
Nsg64
(dp387
g163
(lp388
(dp389
g39
(lp390
I21
aI26
asg154
VOTIV
p391
sasg168
(lp392
sg170
(lp393
sg35
(lp394
(dp395
g33
Vhttps://t.co/052hY0ekqe
p396
sg39
(lp397
I69
aI92
asg41
Vhttp://ift.tt/1HxA9s5
p398
sg43
Vift.tt/1HxA9s5
p399
sassg181
Nsg182
Nsg183
I1
sg68
V664374488205795328
p400
sg185
I00
sg186
g360
sg187
Nsg188
Nsg189
I00
sg90
g381
sg98
VWed Nov 11 09:29:56 +0000 2015
p401
sg191
Nsg192
Nsg193
(dp402
g195
Ven
p403
sg197
Vrecent
p404
sssg199
g402
sg200
Nsg201
Nsg31
g387
sg202
Nsg203
Nsg110
g400
sg204
I00
sg205
Nsg206
I1
sg207
Nsbag0
(g4
g5
Ntp405
Rp406
(dp407
g9
I00
sg10
Nsg11
I00
sg12
VSmart traders join https://t.co/uAcamNRUPt for alerts like this $OTIV +17% https://t.co/qPCeXiynzS $GSV $ADAT $BLCM $LINC $BNK $TROV $RDHL
p408
sg14
Vhttp://biloselhi.com
p409
sg16
I00
sg17
I00
sg18
Nsg19
g0
(g20
g5
Ntp410
Rp411
(dp412
g24
I00
sg25
I00
sg26
I01
sg27
VFFFFFF
p413
sg29
L2802272246L
sg30
I00
sg31
(dp414
g33
(dp415
g35
(lp416
(dp417
g33
Vhttp://t.co/jjWTkVWgFN
p418
sg39
(lp419
I0
aI22
asg41
Vhttp://BiloSelhi.com
p420
sg43
VBiloSelhi.com
p421
sassg45
(dp422
g35
(lp423
(dp424
g33
Vhttps://t.co/0aFaudDmBY
p425
sg39
(lp426
I137
aI160
asg41
Vhttp://biloselhi.com/d.htm
p427
sg43
Vbiloselhi.com/d.htm
p428
sasssg48
Vhttps://pbs.twimg.com/profile_images/509778632521154560/DYIdZCfQ_normal.png
p429
sg50
(dp430
g52
I00
sg53
I00
sg54
I01
sg55
I00
sg56
L2802272246L
sg57
Vhttps://abs.twimg.com/images/themes/theme13/bg.gif
p431
sg59
I00
sg60
V333333
p432
sg62
g429
sg63
g413
sg64
g414
sg65
I11220
sg66
VEEEEEE
p433
sg68
V2802272246
p434
sg70
VB2DFDA
p435
sg72
I72
sg73
I00
sg74
Nsg75
I28395
sg45
VFounder, Bilo Selhi's Stock Alerts. 1,302% return in 13 months. Subscribe today for promo. Follow on Google+ for free trial. DISCLAIMER: https://t.co/0aFaudDmBY
p436
sg77
I11694
sg78
V \u2193 \u2193 MUST SEE Track record
p437
sg80
V93A644
p438
sg82
Vhttp://pbs.twimg.com/profile_images/509778632521154560/DYIdZCfQ_normal.png
p439
sg84
I00
sg85
I00
sg231
Vhttps://pbs.twimg.com/profile_banners/2802272246/1412893156
p440
sg86
Vhttp://abs.twimg.com/images/themes/theme13/bg.gif
p441
sg88
VStocksThatDoubl
p442
sg90
Ven
p443
sg92
I00
sg93
I77
sg94
VBilo Selhi
p444
sg96
I00
sg33
Vhttp://t.co/jjWTkVWgFN
p445
sg98
VWed Sep 10 18:52:30 +0000 2014
p446
sg100
I00
sg101
Nsg103
I00
sg104
I00
sg105
I00
ssg106
I00
sg107
g432
sg108
I11220
sg109
g433
sg110
g434
sg111
I00
sg112
I72
sg113
I00
sg114
Nsg115
I28395
sg116
g436
sg117
I11694
sg118
g437
sg119
g438
sg120
g439
sg121
I00
sg122
I00
sg123
g435
sg239
g440
sg124
g441
sg125
g442
sg126
g443
sg127
I00
sg128
I00
sg129
I77
sg130
g444
sg131
g445
sg132
g133
(S'\x07\xde\t\n\x124\x1e\x00\x00\x00'
p447
tp448
Rp449
sg137
g431
sg138
Nsg139
I00
sg140
I00
sg141
I00
sbsg142
Nsg29
L664194541340254208L
sg143
I1
sg144
VNov292014
p450
sg126
Ven
p451
sg147
g411
sg132
g133
(S'\x07\xdf\x0b\n\x15"5\x00\x00\x00'
p452
tp453
Rp454
sg50
(dp455
g152
Nsg153
I00
sg154
g408
sg155
I00
sg156
Nsg56
L664194541340254208L
sg157
I1
sg158
V<a href="http://biloselhi.com" rel="nofollow">Nov292014</a>
p456
sg160
I00
sg161
Nsg64
(dp457
g163
(lp458
(dp459
g39
(lp460
I64
aI69
asg154
VOTIV
p461
sa(dp462
g39
(lp463
I99
aI103
asg154
VGSV
p464
sa(dp465
g39
(lp466
I104
aI109
asg154
VADAT
p467
sa(dp468
g39
(lp469
I110
aI115
asg154
VBLCM
p470
sa(dp471
g39
(lp472
I116
aI121
asg154
VLINC
p473
sa(dp474
g39
(lp475
I122
aI126
asg154
VBNK
p476
sa(dp477
g39
(lp478
I127
aI132
asg154
VTROV
p479
sa(dp480
g39
(lp481
I133
aI138
asg154
VRDHL
p482
sasg168
(lp483
sg170
(lp484
sg35
(lp485
(dp486
g33
Vhttps://t.co/uAcamNRUPt
p487
sg39
(lp488
I19
aI42
asg41
Vhttp://BiloSelhi.com
p489
sg43
VBiloSelhi.com
p490
sasVmedia
p491
(lp492
(dp493
Vsource_user_id
p494
L2802272246L
sVsource_status_id_str
p495
V581224111302709248
p496
sg41
Vhttp://twitter.com/StocksThatDoubl/status/581224111302709248/photo/1
p497
sg43
Vpic.twitter.com/qPCeXiynzS
p498
sg33
Vhttps://t.co/qPCeXiynzS
p499
sVmedia_url_https
p500
Vhttps://pbs.twimg.com/media/CBDsP8QWQAAzj8C.png
p501
sVsource_user_id_str
p502
V2802272246
p503
sVsource_status_id
p504
L581224111302709248L
sg68
V581224110547681280
p505
sVsizes
p506
(dp507
Vlarge
p508
(dp509
Vh
p510
I703
sVresize
p511
Vfit
p512
sVw
p513
I1024
ssVsmall
p514
(dp515
g510
I233
sg511
Vfit
p516
sg513
I340
ssVmedium
p517
(dp518
g510
I412
sg511
Vfit
p519
sg513
I600
ssVthumb
p520
(dp521
g510
I150
sg511
Vcrop
p522
sg513
I150
sssg39
(lp523
I75
aI98
asVtype
p524
Vphoto
p525
sg56
L581224110547681280L
sVmedia_url
p526
Vhttp://pbs.twimg.com/media/CBDsP8QWQAAzj8C.png
p527
sassg181
Nsg182
Nsg183
I0
sg68
V664194541340254208
p528
sg185
I00
sg186
g430
sg187
Nsg188
Nsg189
I00
sg90
g451
sg98
VTue Nov 10 21:34:53 +0000 2015
p529
sg191
Nsg192
Nsg193
(dp530
g195
Ven
p531
sg197
Vrecent
p532
sssg199
g530
sg200
Nsg201
Nsg31
g457
sg202
Nsg203
Nsg110
g528
sg204
I00
sg205
Nsg206
I0
sg207
Nsbag0
(g4
g5
Ntp533
Rp534
(dp535
g9
I00
sg10
Nsg11
I00
sg12
VOn Track Innovations $OTIV Scheduled to Post Earnings on Thursday https://t.co/m0EnDc6iwi
p536
sg14
Vhttp://ifttt.com
p537
sg16
I00
sg17
I00
sg18
Nsg19
g0
(g20
g5
Ntp538
Rp539
(dp540
g24
I00
sg25
I00
sg26
I01
sg27
VDDEEF6
p541
sg29
L2743641378L
sg30
I00
sg31
(dp542
g45
(dp543
g35
(lp544
sssg48
Vhttps://pbs.twimg.com/profile_images/501548634412838914/LR6q5snv_normal.jpeg
p545
sg50
(dp546
g52
I00
sg53
I00
sg54
I01
sg55
I00
sg56
L2743641378L
sg57
Vhttps://abs.twimg.com/images/themes/theme1/bg.png
p547
sg59
I00
sg60
V333333
p548
sg62
g545
sg63
g541
sg64
g542
sg65
I668
sg66
VC0DEED
p549
sg68
V2743641378
p550
sg70
VC0DEED
p551
sg72
I59
sg73
I00
sg74
Nsg75
I275759
sg45
g228
sg77
I0
sg78
g228
sg80
V0084B4
p552
sg82
Vhttp://pbs.twimg.com/profile_images/501548634412838914/LR6q5snv_normal.jpeg
p553
sg84
I00
sg85
I00
sg231
Vhttps://pbs.twimg.com/profile_banners/2743641378/1408413498
p554
sg86
Vhttp://abs.twimg.com/images/themes/theme1/bg.png
p555
sg88
VSleekMoneycom
p556
sg90
Ven
p557
sg92
I00
sg93
I0
sg94
VSleek Money
p558
sg96
I00
sg33
Nsg98
VTue Aug 19 01:57:20 +0000 2014
p559
sg100
I00
sg101
Nsg103
I00
sg104
I01
sg105
I00
ssg106
I00
sg107
g548
sg108
I668
sg109
g549
sg110
g550
sg111
I00
sg112
I59
sg113
I00
sg114
Nsg115
I275759
sg116
g228
sg117
I0
sg118
g228
sg119
g552
sg120
g553
sg121
I00
sg122
I00
sg123
g551
sg239
g554
sg124
g555
sg125
g556
sg126
g557
sg127
I00
sg128
I00
sg129
I0
sg130
g558
sg131
Nsg132
g133
(S'\x07\xde\x08\x13\x019\x14\x00\x00\x00'
p560
tp561
Rp562
sg137
g547
sg138
Nsg139
I00
sg140
I01
sg141
I00
sbsg142
Nsg29
L664007997820166144L
sg143
I0
sg144
VIFTTT
p563
sg126
Ven
p564
sg147
g539
sg132
g133
(S'\x07\xdf\x0b\n\t\r&\x00\x00\x00'
p565
tp566
Rp567
sg50
(dp568
g152
Nsg153
I00
sg154
g536
sg155
I00
sg156
Nsg56
L664007997820166144L
sg157
I0
sg158
V<a href="http://ifttt.com" rel="nofollow">IFTTT</a>
p569
sg160
I00
sg161
Nsg64
(dp570
g163
(lp571
(dp572
g39
(lp573
I21
aI26
asg154
VOTIV
p574
sasg168
(lp575
sg170
(lp576
sg35
(lp577
(dp578
g33
Vhttps://t.co/m0EnDc6iwi
p579
sg39
(lp580
I66
aI89
asg41
Vhttp://ift.tt/1QfnooR
p581
sg43
Vift.tt/1QfnooR
p582
sassg181
Nsg182
Nsg183
I0
sg68
V664007997820166144
p583
sg185
I00
sg186
g546
sg187
Nsg188
Nsg189
I00
sg90
g564
sg98
VTue Nov 10 09:13:38 +0000 2015
p584
sg191
Nsg192
Nsg193
(dp585
g195
Ven
p586
sg197
Vrecent
p587
sssg199
g585
sg200
Nsg201
Nsg31
g570
sg202
Nsg203
Nsg110
g583
sg204
I00
sg205
Nsg206
I0
sg207
Nsbag0
(g4
g5
Ntp588
Rp589
(dp590
g9
I00
sg10
Nsg11
I00
sg12
V$OTIV:\u000a\u000aOn Track Innovations (OTIV) Scheduled to Post Earnings on Thursday:\u000a\u000ahttps://t.co/lKQqUrQKoR
p591
sg14
Vhttp://www.stocknewswires.com
p592
sg16
I00
sg17
I00
sg18
Nsg19
g0
(g20
g5
Ntp593
Rp594
(dp595
g24
I00
sg25
I00
sg26
I01
sg27
VE3E2DE
p596
sg29
L2344619544L
sg30
I00
sg31
(dp597
g45
(dp598
g35
(lp599
sssg48
Vhttps://pbs.twimg.com/profile_images/562292381764952064/mVtp0UmJ_normal.jpeg
p600
sg50
(dp601
g52
I00
sg53
I00
sg54
I01
sg55
I00
sg56
L2344619544L
sg57
Vhttps://abs.twimg.com/images/themes/theme3/bg.gif
p602
sg59
I00
sg60
V634047
p603
sg62
g600
sg63
g596
sg64
g597
sg65
I516
sg66
VD3D2CF
p604
sg68
V2344619544
p605
sg70
VEDECE9
p606
sg72
I85
sg73
I01
sg74
I-18000
sg75
I182020
sg45
VNews about Stocks
p607
sg77
I0
sg78
VU.S.
p608
sg80
V088253
p609
sg82
Vhttp://pbs.twimg.com/profile_images/562292381764952064/mVtp0UmJ_normal.jpeg
p610
sg84
I00
sg85
I00
sg86
Vhttp://abs.twimg.com/images/themes/theme3/bg.gif
p611
sg88
VNewsToDesk
p612
sg90
Ven
p613
sg92
I00
sg93
I0
sg94
VBreakingStocksNews
p614
sg96
I00
sg33
Nsg98
VSat Feb 15 05:49:10 +0000 2014
p615
sg100
I00
sg101
VEastern Time (US & Canada)
p616
sg103
I00
sg104
I00
sg105
I00
ssg106
I00
sg107
g603
sg108
I516
sg109
g604
sg110
g605
sg111
I00
sg112
I85
sg113
I01
sg114
I-18000
sg115
I182020
sg116
g607
sg117
I0
sg118
g608
sg119
g609
sg120
g610
sg121
I00
sg122
I00
sg123
g606
sg124
g611
sg125
g612
sg126
g613
sg127
I00
sg128
I00
sg129
I0
sg130
g614
sg131
Nsg132
g133
(S'\x07\xde\x02\x0f\x051\n\x00\x00\x00'
p617
tp618
Rp619
sg137
g602
sg138
g616
sg139
I00
sg140
I00
sg141
I00
sbsg142
Nsg29
L664006118667116544L
sg143
I0
sg144
VStockNewsWires
p620
sg126
Ven
p621
sg147
g594
sg132
g133
(S'\x07\xdf\x0b\n\t\x06\t\x00\x00\x00'
p622
tp623
Rp624
sg50
(dp625
g152
Nsg153
I00
sg154
V$OTIV:\u000a\u000aOn Track Innovations (OTIV) Scheduled to Post Earnings on Thursday:\u000a\u000ahttps://t.co/lKQqUrQKoR
p626
sg155
I00
sg156
Nsg56
L664006118667116544L
sg157
I0
sg158
V<a href="http://www.stocknewswires.com" rel="nofollow">StockNewsWires</a>
p627
sg160
I00
sg161
Nsg64
(dp628
g163
(lp629
(dp630
g39
(lp631
I0
aI5
asg154
VOTIV
p632
sasg168
(lp633
sg170
(lp634
sg35
(lp635
(dp636
g33
Vhttps://t.co/lKQqUrQKoR
p637
sg39
(lp638
I77
aI100
asg41
Vhttp://StockNewsHour.com/otiv-on-track-innovations-otiv-scheduled-to-post-earnings-on-thursday/
p639
sg43
VStockNewsHour.com/otiv-on-track-\u2026
p640
sassg181
Nsg182
Nsg183
I0
sg68
V664006118667116544
p641
sg185
I00
sg186
g601
sg187
Nsg188
Nsg189
I00
sg90
g621
sg98
VTue Nov 10 09:06:09 +0000 2015
p642
sg191
Nsg192
Nsg193
(dp643
g195
Ven
p644
sg197
Vrecent
p645
sssg199
g643
sg200
Nsg201
Nsg31
g628
sg202
Nsg203
Nsg110
g641
sg204
I00
sg205
Nsg206
I0
sg207
Nsbag0
(g4
g5
Ntp646
Rp647
(dp648
g9
I00
sg10
Nsg11
I00
sg12
V$OTIV oti Sets Third Quarter 2015 Conference Call for Thursday, November 12 at 10:30 a.m. ET https://t.co/5G0WPOBQzW
p649
sg14
Vhttp://twitter.com
p650
sg16
I00
sg17
I00
sg18
Nsg19
g0
(g20
g5
Ntp651
Rp652
(dp653
g24
I00
sg25
I00
sg26
I00
sg27
V000000
p654
sg29
I1639603778
sg30
I00
sg31
(dp655
g45
(dp656
g35
(lp657
sssg48
Vhttps://pbs.twimg.com/profile_images/378800000835226976/ce9b75401b9967be20abb9d9f38b6814_normal.jpeg
p658
sg50
(dp659
g52
I00
sg53
I00
sg54
I00
sg55
I00
sg56
I1639603778
sg57
Vhttps://abs.twimg.com/images/themes/theme1/bg.png
p660
sg59
I00
sg60
V000000
p661
sg62
g658
sg63
g654
sg64
g655
sg65
I1043
sg66
V000000
p662
sg68
V1639603778
p663
sg70
V000000
p664
sg72
I47
sg73
I00
sg74
Nsg75
I5046
sg45
Vmy tweets are personal opinions and ideas and not investment advice.
p665
sg77
I97
sg78
g228
sg80
V3B94D9
p666
sg82
Vhttp://pbs.twimg.com/profile_images/378800000835226976/ce9b75401b9967be20abb9d9f38b6814_normal.jpeg
p667
sg84
I00
sg85
I00
sg86
Vhttp://abs.twimg.com/images/themes/theme1/bg.png
p668
sg88
Veasymoneyoc
p669
sg90
Ven
p670
sg92
I00
sg93
I172
sg94
VHigh Octane
p671
sg96
I00
sg33
Nsg98
VFri Aug 02 04:47:08 +0000 2013
p672
sg100
I00
sg101
Nsg103
I00
sg104
I00
sg105
I00
ssg106
I00
sg107
g661
sg108
I1043
sg109
g662
sg110
g663
sg111
I00
sg112
I47
sg113
I00
sg114
Nsg115
I5046
sg116
g665
sg117
I97
sg118
g228
sg119
g666
sg120
g667
sg121
I00
sg122
I00
sg123
g664
sg124
g668
sg125
g669
sg126
g670
sg127
I00
sg128
I00
sg129
I172
sg130
g671
sg131
Nsg132
g133
(S'\x07\xdd\x08\x02\x04/\x08\x00\x00\x00'
p673
tp674
Rp675
sg137
g660
sg138
Nsg139
I00
sg140
I00
sg141
I00
sbsg142
Nsg29
L663892800342130688L
sg143
I0
sg144
VTwitter Web Client
p676
sg126
Ven
p677
sg147
g652
sg132
g133
(S'\x07\xdf\x0b\n\x01#4\x00\x00\x00'
p678
tp679
Rp680
sg50
(dp681
g152
Nsg153
I00
sg154
g649
sg155
I00
sg156
Nsg56
L663892800342130688L
sg157
I0
sg158
V<a href="http://twitter.com" rel="nofollow">Twitter Web Client</a>
p682
sg160
I00
sg161
Nsg64
(dp683
g163
(lp684
(dp685
g39
(lp686
I0
aI5
asg154
VOTIV
p687
sasg168
(lp688
sg170
(lp689
sg35
(lp690
(dp691
g33
Vhttps://t.co/5G0WPOBQzW
p692
sg39
(lp693
I93
aI116
asg41
Vhttp://finance.yahoo.com/news/oti-sets-third-quarter-2015-133100027.html
p694
sg43
Vfinance.yahoo.com/news/oti-sets-\u2026
p695
sassg181
Nsg182
Nsg183
I0
sg68
V663892800342130688
p696
sg185
I00
sg186
g659
sg187
Nsg188
Nsg189
I00
sg90
g677
sg98
VTue Nov 10 01:35:52 +0000 2015
p697
sg191
Nsg192
Nsg193
(dp698
g195
Ven
p699
sg197
Vrecent
p700
sssg199
g698
sg200
Nsg201
Nsg31
g683
sg202
Nsg203
Nsg110
g696
sg204
I00
sg205
Nsg206
I0
sg207
Nsbag0
(g4
g5
Ntp701
Rp702
(dp703
g9
I00
sg10
Nsg11
I00
sg12
VSmart traders join https://t.co/uAcamNRUPt for alerts like this $OTIV +17% https://t.co/qPCeXiynzS $MSON $ESCC $IWSY $LOXO $OHGI $ADAT $RLOG
p704
sg14
Vhttp://biloselhi.com
p705
sg16
I00
sg17
I00
sg18
Nsg19
g0
(g20
g5
Ntp706
Rp707
(dp708
g24
I00
sg25
I00
sg26
I01
sg27
VFFFFFF
p709
sg29
L2802272246L
sg30
I00
sg31
(dp710
g33
(dp711
g35
(lp712
(dp713
g33
Vhttp://t.co/jjWTkVWgFN
p714
sg39
(lp715
I0
aI22
asg41
Vhttp://BiloSelhi.com
p716
sg43
VBiloSelhi.com
p717
sassg45
(dp718
g35
(lp719
(dp720
g33
Vhttps://t.co/0aFaudDmBY
p721
sg39
(lp722
I137
aI160
asg41
Vhttp://biloselhi.com/d.htm
p723
sg43
Vbiloselhi.com/d.htm
p724
sasssg48
Vhttps://pbs.twimg.com/profile_images/509778632521154560/DYIdZCfQ_normal.png
p725
sg50
(dp726
g52
I00
sg53
I00
sg54
I01
sg55
I00
sg56
L2802272246L
sg57
Vhttps://abs.twimg.com/images/themes/theme13/bg.gif
p727
sg59
I00
sg60
V333333
p728
sg62
g725
sg63
g709
sg64
g710
sg65
I11220
sg66
VEEEEEE
p729
sg68
V2802272246
p730
sg70
VB2DFDA
p731
sg72
I72
sg73
I00
sg74
Nsg75
I28395
sg45
VFounder, Bilo Selhi's Stock Alerts. 1,302% return in 13 months. Subscribe today for promo. Follow on Google+ for free trial. DISCLAIMER: https://t.co/0aFaudDmBY
p732
sg77
I11694
sg78
V \u2193 \u2193 MUST SEE Track record
p733
sg80
V93A644
p734
sg82
Vhttp://pbs.twimg.com/profile_images/509778632521154560/DYIdZCfQ_normal.png
p735
sg84
I00
sg85
I00
sg231
Vhttps://pbs.twimg.com/profile_banners/2802272246/1412893156
p736
sg86
Vhttp://abs.twimg.com/images/themes/theme13/bg.gif
p737
sg88
VStocksThatDoubl
p738
sg90
Ven
p739
sg92
I00
sg93
I77
sg94
VBilo Selhi
p740
sg96
I00
sg33
Vhttp://t.co/jjWTkVWgFN
p741
sg98
VWed Sep 10 18:52:30 +0000 2014
p742
sg100
I00
sg101
Nsg103
I00
sg104
I00
sg105
I00
ssg106
I00
sg107
g728
sg108
I11220
sg109
g729
sg110
g730
sg111
I00
sg112
I72
sg113
I00
sg114
Nsg115
I28395
sg116
g732
sg117
I11694
sg118
g733
sg119
g734
sg120
g735
sg121
I00
sg122
I00
sg123
g731
sg239
g736
sg124
g737
sg125
g738
sg126
g739
sg127
I00
sg128
I00
sg129
I77
sg130
g740
sg131
g741
sg132
g133
(S'\x07\xde\t\n\x124\x1e\x00\x00\x00'
p743
tp744
Rp745
sg137
g727
sg138
Nsg139
I00
sg140
I00
sg141
I00
sbsg142
Nsg29
L663885383172800513L
sg143
I0
sg144
VNov292014
p746
sg126
Ven
p747
sg147
g707
sg132
g133
(S'\x07\xdf\x0b\n\x01\x06\x18\x00\x00\x00'
p748
tp749
Rp750
sg50
(dp751
g152
Nsg153
I00
sg154
g704
sg155
I00
sg156
Nsg56
L663885383172800513L
sg157
I0
sg158
V<a href="http://biloselhi.com" rel="nofollow">Nov292014</a>
p752
sg160
I00
sg161
Nsg64
(dp753
g163
(lp754
(dp755
g39
(lp756
I64
aI69
asg154
VOTIV
p757
sa(dp758
g39
(lp759
I99
aI104
asg154
VMSON
p760
sa(dp761
g39
(lp762
I105
aI110
asg154
VESCC
p763
sa(dp764
g39
(lp765
I111
aI116
asg154
VIWSY
p766
sa(dp767
g39
(lp768
I117
aI122
asg154
VLOXO
p769
sa(dp770
g39
(lp771
I123
aI128
asg154
VOHGI
p772
sa(dp773
g39
(lp774
I129
aI134
asg154
VADAT
p775
sa(dp776
g39
(lp777
I135
aI140
asg154
VRLOG
p778
sasg168
(lp779
sg170
(lp780
sg35
(lp781
(dp782
g33
Vhttps://t.co/uAcamNRUPt
p783
sg39
(lp784
I19
aI42
asg41
Vhttp://BiloSelhi.com
p785
sg43
VBiloSelhi.com
p786
sasg491
(lp787
(dp788
g494
L2802272246L
sg495
V581224111302709248
p789
sg41
Vhttp://twitter.com/StocksThatDoubl/status/581224111302709248/photo/1
p790
sg43
Vpic.twitter.com/qPCeXiynzS
p791
sg33
Vhttps://t.co/qPCeXiynzS
p792
sg500
Vhttps://pbs.twimg.com/media/CBDsP8QWQAAzj8C.png
p793
sg502
V2802272246
p794
sg504
L581224111302709248L
sg68
V581224110547681280
p795
sg506
(dp796
g508
(dp797
g510
I703
sg511
Vfit
p798
sg513
I1024
ssg514
(dp799
g510
I233
sg511
Vfit
p800
sg513
I340
ssg517
(dp801
g510
I412
sg511
Vfit
p802
sg513
I600
ssg520
(dp803
g510
I150
sg511
Vcrop
p804
sg513
I150
sssg39
(lp805
I75
aI98
asg524
Vphoto
p806
sg56
L581224110547681280L
sg526
Vhttp://pbs.twimg.com/media/CBDsP8QWQAAzj8C.png
p807
sassg181
Nsg182
Nsg183
I0
sg68
V663885383172800513
p808
sg185
I00
sg186
g726
sg187
Nsg188
Nsg189
I00
sg90
g747
sg98
VTue Nov 10 01:06:24 +0000 2015
p809
sg191
Nsg192
Nsg193
(dp810
g195
Ven
p811
sg197
Vrecent
p812
sssg199
g810
sg200
Nsg201
Nsg31
g753
sg202
Nsg203
Nsg110
g808
sg204
I00
sg205
Nsg206
I0
sg207
Nsbag0
(g4
g5
Ntp813
Rp814
(dp815
g9
I00
sg10
Nsg11
I00
sg12
VSmart traders join https://t.co/uAcamNRUPt for alerts like this $OTIV +17% https://t.co/qPCeXiynzS $ECOM $ABTL $VRNS $CALA $OSUR $AXGN $FORD
p816
sg14
Vhttp://biloselhi.com
p817
sg16
I00
sg17
I00
sg18
Nsg19
g0
(g20
g5
Ntp818
Rp819
(dp820
g24
I00
sg25
I00
sg26
I01
sg27
VFFFFFF
p821
sg29
L2802272246L
sg30
I00
sg31
(dp822
g33
(dp823
g35
(lp824
(dp825
g33
Vhttp://t.co/jjWTkVWgFN
p826
sg39
(lp827
I0
aI22
asg41
Vhttp://BiloSelhi.com
p828
sg43
VBiloSelhi.com
p829
sassg45
(dp830
g35
(lp831
(dp832
g33
Vhttps://t.co/0aFaudDmBY
p833
sg39
(lp834
I137
aI160
asg41
Vhttp://biloselhi.com/d.htm
p835
sg43
Vbiloselhi.com/d.htm
p836
sasssg48
Vhttps://pbs.twimg.com/profile_images/509778632521154560/DYIdZCfQ_normal.png
p837
sg50
(dp838
g52
I00
sg53
I00
sg54
I01
sg55
I00
sg56
L2802272246L
sg57
Vhttps://abs.twimg.com/images/themes/theme13/bg.gif
p839
sg59
I00
sg60
V333333
p840
sg62
g837
sg63
g821
sg64
g822
sg65
I11220
sg66
VEEEEEE
p841
sg68
V2802272246
p842
sg70
VB2DFDA
p843
sg72
I72
sg73
I00
sg74
Nsg75
I28395
sg45
VFounder, Bilo Selhi's Stock Alerts. 1,302% return in 13 months. Subscribe today for promo. Follow on Google+ for free trial. DISCLAIMER: https://t.co/0aFaudDmBY
p844
sg77
I11694
sg78
V \u2193 \u2193 MUST SEE Track record
p845
sg80
V93A644
p846
sg82
Vhttp://pbs.twimg.com/profile_images/509778632521154560/DYIdZCfQ_normal.png
p847
sg84
I00
sg85
I00
sg231
Vhttps://pbs.twimg.com/profile_banners/2802272246/1412893156
p848
sg86
Vhttp://abs.twimg.com/images/themes/theme13/bg.gif
p849
sg88
VStocksThatDoubl
p850
sg90
Ven
p851
sg92
I00
sg93
I77
sg94
VBilo Selhi
p852
sg96
I00
sg33
Vhttp://t.co/jjWTkVWgFN
p853
sg98
VWed Sep 10 18:52:30 +0000 2014
p854
sg100
I00
sg101
Nsg103
I00
sg104
I00
sg105
I00
ssg106
I00
sg107
g840
sg108
I11220
sg109
g841
sg110
g842
sg111
I00
sg112
I72
sg113
I00
sg114
Nsg115
I28395
sg116
g844
sg117
I11694
sg118
g845
sg119
g846
sg120
g847
sg121
I00
sg122
I00
sg123
g843
sg239
g848
sg124
g849
sg125
g850
sg126
g851
sg127
I00
sg128
I00
sg129
I77
sg130
g852
sg131
g853
sg132
g133
(S'\x07\xde\t\n\x124\x1e\x00\x00\x00'
p855
tp856
Rp857
sg137
g839
sg138
Nsg139
I00
sg140
I00
sg141
I00
sbsg142
Nsg29
L663817234205253633L
sg143
I0
sg144
VNov292014
p858
sg126
Ven
p859
sg147
g819
sg132
g133
(S'\x07\xdf\x0b\t\x14#$\x00\x00\x00'
p860
tp861
Rp862
sg50
(dp863
g152
Nsg153
I00
sg154
g816
sg155
I00
sg156
Nsg56
L663817234205253633L
sg157
I0
sg158
V<a href="http://biloselhi.com" rel="nofollow">Nov292014</a>
p864
sg160
I00
sg161
Nsg64
(dp865
g163
(lp866
(dp867
g39
(lp868
I64
aI69
asg154
VOTIV
p869
sa(dp870
g39
(lp871
I99
aI104
asg154
VECOM
p872
sa(dp873
g39
(lp874
I105
aI110
asg154
VABTL
p875
sa(dp876
g39
(lp877
I111
aI116
asg154
VVRNS
p878
sa(dp879
g39
(lp880
I117
aI122
asg154
VCALA
p881
sa(dp882
g39
(lp883
I123
aI128
asg154
VOSUR
p884
sa(dp885
g39
(lp886
I129
aI134
asg154
VAXGN
p887
sa(dp888
g39
(lp889
I135
aI140
asg154
VFORD
p890
sasg168
(lp891
sg170
(lp892
sg35
(lp893
(dp894
g33
Vhttps://t.co/uAcamNRUPt
p895
sg39
(lp896
I19
aI42
asg41
Vhttp://BiloSelhi.com
p897
sg43
VBiloSelhi.com
p898
sasg491
(lp899
(dp900
g494
L2802272246L
sg495
V581224111302709248
p901
sg41
Vhttp://twitter.com/StocksThatDoubl/status/581224111302709248/photo/1
p902
sg43
Vpic.twitter.com/qPCeXiynzS
p903
sg33
Vhttps://t.co/qPCeXiynzS
p904
sg500
Vhttps://pbs.twimg.com/media/CBDsP8QWQAAzj8C.png
p905
sg502
V2802272246
p906
sg504
L581224111302709248L
sg68
V581224110547681280
p907
sg506
(dp908
g508
(dp909
g510
I703
sg511
Vfit
p910
sg513
I1024
ssg514
(dp911
g510
I233
sg511
Vfit
p912
sg513
I340
ssg517
(dp913
g510
I412
sg511
Vfit
p914
sg513
I600
ssg520
(dp915
g510
I150
sg511
Vcrop
p916
sg513
I150
sssg39
(lp917
I75
aI98
asg524
Vphoto
p918
sg56
L581224110547681280L
sg526
Vhttp://pbs.twimg.com/media/CBDsP8QWQAAzj8C.png
p919
sassg181
Nsg182
Nsg183
I0
sg68
V663817234205253633
p920
sg185
I00
sg186
g838
sg187
Nsg188
Nsg189
I00
sg90
g859
sg98
VMon Nov 09 20:35:36 +0000 2015
p921
sg191
Nsg192
Nsg193
(dp922
g195
Ven
p923
sg197
Vrecent
p924
sssg199
g922
sg200
Nsg201
Nsg31
g865
sg202
Nsg203
Nsg110
g920
sg204
I00
sg205
Nsg206
I0
sg207
Nsbag0
(g4
g5
Ntp925
Rp926
(dp927
g9
I00
sg10
Nsg11
I00
sg12
VThe Most Accurate Stock Alert Service Made $240,000 Yesterday https://t.co/8WvnrVmkBS .. $RGEN $FARM $OTIV
p928
sg14
Vhttp://socialadcenter.com
p929
sg16
I00
sg17
I00
sg18
Nsg19
g0
(g20
g5
Ntp930
Rp931
(dp932
g24
I00
sg25
I00
sg26
I01
sg27
VDDEEF6
p933
sg29
L2730855593L
sg30
I00
sg31
(dp934
g33
(dp935
g35
(lp936
(dp937
g33
Vhttp://t.co/UWzH8kOOl9
p938
sg39
(lp939
I0
aI22
asg41
Vhttp://PennyStockSecret.com
p940
sg43
VPennyStockSecret.com
p941
sassg45
(dp942
g35
(lp943
(dp944
g33
Vhttp://t.co/UWzH8kOOl9
p945
sg39
(lp946
I11
aI33
asg41
Vhttp://PennyStockSecret.com
p947
sg43
VPennyStockSecret.com
p948
sasssg48
Vhttps://pbs.twimg.com/profile_images/573247485616889856/gHAtYS9O_normal.png
p949
sg50
(dp950
g52
I00
sg53
I00
sg54
I01
sg55
I00
sg56
L2730855593L
sg57
Vhttps://abs.twimg.com/images/themes/theme1/bg.png
p951
sg59
I00
sg60
V333333
p952
sg62
g949
sg63
g933
sg64
g934
sg65
I2515
sg66
VC0DEED
p953
sg68
V2730855593
p954
sg70
VC0DEED
p955
sg72
I25
sg73
I00
sg74
I0
sg75
I53231
sg45
VSign up to http://t.co/UWzH8kOOl9  and get the premiere penny stock newsletter for free! make sure you subscribe today!
p956
sg77
I9
sg78
VUSA
p957
sg80
V0084B4
p958
sg82
Vhttp://pbs.twimg.com/profile_images/573247485616889856/gHAtYS9O_normal.png
p959
sg84
I00
sg85
I00
sg231
Vhttps://pbs.twimg.com/profile_banners/2730855593/1425507876
p960
sg86
Vhttp://abs.twimg.com/images/themes/theme1/bg.png
p961
sg88
Vstockschamp
p962
sg90
Ven
p963
sg92
I00
sg93
I0
sg94
Vstockschamp
p964
sg96
I00
sg33
Vhttp://t.co/UWzH8kOOl9
p965
sg98
VFri Aug 01 16:39:24 +0000 2014
p966
sg100
I00
sg101
VDublin
p967
sg103
I00
sg104
I01
sg105
I00
ssg106
I00
sg107
g952
sg108
I2515
sg109
g953
sg110
g954
sg111
I00
sg112
I25
sg113
I00
sg114
I0
sg115
I53231
sg116
g956
sg117
I9
sg118
g957
sg119
g958
sg120
g959
sg121
I00
sg122
I00
sg123
g955
sg239
g960
sg124
g961
sg125
g962
sg126
g963
sg127
I00
sg128
I00
sg129
I0
sg130
g964
sg131
g965
sg132
g133
(S"\x07\xde\x08\x01\x10'\x18\x00\x00\x00"
p968
tp969
Rp970
sg137
g951
sg138
g967
sg139
I00
sg140
I01
sg141
I00
sbsg142
Nsg29
L663757157683191808L
sg143
I0
sg144
VSocial Ad Center
p971
sg126
Ven
p972
sg147
g931
sg132
g133
(S'\x07\xdf\x0b\t\x10$5\x00\x00\x00'
p973
tp974
Rp975
sg50
(dp976
g152
Nsg153
I00
sg154
g928
sg155
I00
sg156
Nsg56
L663757157683191808L
sg157
I0
sg158
V<a href="http://socialadcenter.com" rel="nofollow">Social Ad Center</a>
p977
sg160
I00
sg161
Nsg64
(dp978
g163
(lp979
(dp980
g39
(lp981
I89
aI94
asg154
VRGEN
p982
sa(dp983
g39
(lp984
I95
aI100
asg154
VFARM
p985
sa(dp986
g39
(lp987
I101
aI106
asg154
VOTIV
p988
sasg168
(lp989
sg170
(lp990
sg35
(lp991
(dp992
g33
Vhttps://t.co/8WvnrVmkBS
p993
sg39
(lp994
I62
aI85
asg41
Vhttp://PennyStockSecret.com
p995
sg43
VPennyStockSecret.com
p996
sassg181
Nsg182
Nsg183
I0
sg68
V663757157683191808
p997
sg185
I00
sg186
g950
sg187
Nsg188
Nsg189
I00
sg90
g972
sg98
VMon Nov 09 16:36:53 +0000 2015
p998
sg191
Nsg192
Nsg193
(dp999
g195
Ven
p1000
sg197
Vrecent
p1001
sssg199
g999
sg200
Nsg201
Nsg31
g978
sg202
Nsg203
Nsg110
g997
sg204
I00
sg205
Nsg206
I0
sg207
Nsbag0
(g4
g5
Ntp1002
Rp1003
(dp1004
g9
I00
sg10
Nsg11
I00
sg12
VSmart traders join https://t.co/uAcamO9vH1 for alerts like this $OTIV +17% https://t.co/qPCeXiynzS $ECOM $ABTL $VRNS $CALA $OSUR $AXGN $FORD
p1005
sg14
Vhttp://biloselhi.com
p1006
sg16
I00
sg17
I00
sg18
Nsg19
g0
(g20
g5
Ntp1007
Rp1008
(dp1009
g24
I00
sg25
I00
sg26
I01
sg27
VFFFFFF
p1010
sg29
L2802272246L
sg30
I00
sg31
(dp1011
g33
(dp1012
g35
(lp1013
(dp1014
g33
Vhttp://t.co/jjWTkVWgFN
p1015
sg39
(lp1016
I0
aI22
asg41
Vhttp://BiloSelhi.com
p1017
sg43
VBiloSelhi.com
p1018
sassg45
(dp1019
g35
(lp1020
(dp1021
g33
Vhttps://t.co/0aFaudDmBY
p1022
sg39
(lp1023
I137
aI160
asg41
Vhttp://biloselhi.com/d.htm
p1024
sg43
Vbiloselhi.com/d.htm
p1025
sasssg48
Vhttps://pbs.twimg.com/profile_images/509778632521154560/DYIdZCfQ_normal.png
p1026
sg50
(dp1027
g52
I00
sg53
I00
sg54
I01
sg55
I00
sg56
L2802272246L
sg57
Vhttps://abs.twimg.com/images/themes/theme13/bg.gif
p1028
sg59
I00
sg60
V333333
p1029
sg62
g1026
sg63
g1010
sg64
g1011
sg65
I11220
sg66
VEEEEEE
p1030
sg68
V2802272246
p1031
sg70
VB2DFDA
p1032
sg72
I72
sg73
I00
sg74
Nsg75
I28395
sg45
VFounder, Bilo Selhi's Stock Alerts. 1,302% return in 13 months. Subscribe today for promo. Follow on Google+ for free trial. DISCLAIMER: https://t.co/0aFaudDmBY
p1033
sg77
I11694
sg78
V \u2193 \u2193 MUST SEE Track record
p1034
sg80
V93A644
p1035
sg82
Vhttp://pbs.twimg.com/profile_images/509778632521154560/DYIdZCfQ_normal.png
p1036
sg84
I00
sg85
I00
sg231
Vhttps://pbs.twimg.com/profile_banners/2802272246/1412893156
p1037
sg86
Vhttp://abs.twimg.com/images/themes/theme13/bg.gif
p1038
sg88
VStocksThatDoubl
p1039
sg90
Ven
p1040
sg92
I00
sg93
I77
sg94
VBilo Selhi
p1041
sg96
I00
sg33
Vhttp://t.co/jjWTkVWgFN
p1042
sg98
VWed Sep 10 18:52:30 +0000 2014
p1043
sg100
I00
sg101
Nsg103
I00
sg104
I00
sg105
I00
ssg106
I00
sg107
g1029
sg108
I11220
sg109
g1030
sg110
g1031
sg111
I00
sg112
I72
sg113
I00
sg114
Nsg115
I28395
sg116
g1033
sg117
I11694
sg118
g1034
sg119
g1035
sg120
g1036
sg121
I00
sg122
I00
sg123
g1032
sg239
g1037
sg124
g1038
sg125
g1039
sg126
g1040
sg127
I00
sg128
I00
sg129
I77
sg130
g1041
sg131
g1042
sg132
g133
(S'\x07\xde\t\n\x124\x1e\x00\x00\x00'
p1044
tp1045
Rp1046
sg137
g1028
sg138
Nsg139
I00
sg140
I00
sg141
I00
sbsg142
Nsg29
L663749118662041601L
sg143
I0
sg144
VNov292014
p1047
sg126
Ven
p1048
sg147
g1008
sg132
g133
(S'\x07\xdf\x0b\t\x10\x048\x00\x00\x00'
p1049
tp1050
Rp1051
sg50
(dp1052
g152
Nsg153
I00
sg154
g1005
sg155
I00
sg156
Nsg56
L663749118662041601L
sg157
I0
sg158
V<a href="http://biloselhi.com" rel="nofollow">Nov292014</a>
p1053
sg160
I00
sg161
Nsg64
(dp1054
g163
(lp1055
(dp1056
g39
(lp1057
I64
aI69
asg154
VOTIV
p1058
sa(dp1059
g39
(lp1060
I99
aI104
asg154
VECOM
p1061
sa(dp1062
g39
(lp1063
I105
aI110
asg154
VABTL
p1064
sa(dp1065
g39
(lp1066
I111
aI116
asg154
VVRNS
p1067
sa(dp1068
g39
(lp1069
I117
aI122
asg154
VCALA
p1070
sa(dp1071
g39
(lp1072
I123
aI128
asg154
VOSUR
p1073
sa(dp1074
g39
(lp1075
I129
aI134
asg154
VAXGN
p1076
sa(dp1077
g39
(lp1078
I135
aI140
asg154
VFORD
p1079
sasg168
(lp1080
sg170
(lp1081
sg35
(lp1082
(dp1083
g33
Vhttps://t.co/uAcamO9vH1
p1084
sg39
(lp1085
I19
aI42
asg41
Vhttp://BiloSelhi.com
p1086
sg43
VBiloSelhi.com
p1087
sasg491
(lp1088
(dp1089
g494
L2802272246L
sg495
V581224111302709248
p1090
sg41
Vhttp://twitter.com/StocksThatDoubl/status/581224111302709248/photo/1
p1091
sg43
Vpic.twitter.com/qPCeXiynzS
p1092
sg33
Vhttps://t.co/qPCeXiynzS
p1093
sg500
Vhttps://pbs.twimg.com/media/CBDsP8QWQAAzj8C.png
p1094
sg502
V2802272246
p1095
sg504
L581224111302709248L
sg68
V581224110547681280
p1096
sg506
(dp1097
g508
(dp1098
g510
I703
sg511
Vfit
p1099
sg513
I1024
ssg514
(dp1100
g510
I233
sg511
Vfit
p1101
sg513
I340
ssg517
(dp1102
g510
I412
sg511
Vfit
p1103
sg513
I600
ssg520
(dp1104
g510
I150
sg511
Vcrop
p1105
sg513
I150
sssg39
(lp1106
I75
aI98
asg524
Vphoto
p1107
sg56
L581224110547681280L
sg526
Vhttp://pbs.twimg.com/media/CBDsP8QWQAAzj8C.png
p1108
sassg181
Nsg182
Nsg183
I0
sg68
V663749118662041601
p1109
sg185
I00
sg186
g1027
sg187
Nsg188
Nsg189
I00
sg90
g1048
sg98
VMon Nov 09 16:04:56 +0000 2015
p1110
sg191
Nsg192
Nsg193
(dp1111
g195
Ven
p1112
sg197
Vrecent
p1113
sssg199
g1111
sg200
Nsg201
Nsg31
g1054
sg202
Nsg203
Nsg110
g1109
sg204
I00
sg205
Nsg206
I0
sg207
Nsbag0
(g4
g5
Ntp1114
Rp1115
(dp1116
g9
I00
sg10
Nsg11
I00
sg12
VSmart traders join https://t.co/uAcamNRUPt for alerts like this $OTIV +17% https://t.co/qPCeXiynzS $ECOM $ABTL $VRNS $CALA $OSUR $AXGN $FORD
p1117
sg14
Vhttp://biloselhi.com
p1118
sg16
I00
sg17
I00
sg18
Nsg19
g0
(g20
g5
Ntp1119
Rp1120
(dp1121
g24
I00
sg25
I00
sg26
I01
sg27
VFFFFFF
p1122
sg29
L2802272246L
sg30
I00
sg31
(dp1123
g33
(dp1124
g35
(lp1125
(dp1126
g33
Vhttp://t.co/jjWTkVWgFN
p1127
sg39
(lp1128
I0
aI22
asg41
Vhttp://BiloSelhi.com
p1129
sg43
VBiloSelhi.com
p1130
sassg45
(dp1131
g35
(lp1132
(dp1133
g33
Vhttps://t.co/0aFaudDmBY
p1134
sg39
(lp1135
I137
aI160
asg41
Vhttp://biloselhi.com/d.htm
p1136
sg43
Vbiloselhi.com/d.htm
p1137
sasssg48
Vhttps://pbs.twimg.com/profile_images/509778632521154560/DYIdZCfQ_normal.png
p1138
sg50
(dp1139
g52
I00
sg53
I00
sg54
I01
sg55
I00
sg56
L2802272246L
sg57
Vhttps://abs.twimg.com/images/themes/theme13/bg.gif
p1140
sg59
I00
sg60
V333333
p1141
sg62
g1138
sg63
g1122
sg64
g1123
sg65
I11220
sg66
VEEEEEE
p1142
sg68
V2802272246
p1143
sg70
VB2DFDA
p1144
sg72
I72
sg73
I00
sg74
Nsg75
I28395
sg45
VFounder, Bilo Selhi's Stock Alerts. 1,302% return in 13 months. Subscribe today for promo. Follow on Google+ for free trial. DISCLAIMER: https://t.co/0aFaudDmBY
p1145
sg77
I11694
sg78
V \u2193 \u2193 MUST SEE Track record
p1146
sg80
V93A644
p1147
sg82
Vhttp://pbs.twimg.com/profile_images/509778632521154560/DYIdZCfQ_normal.png
p1148
sg84
I00
sg85
I00
sg231
Vhttps://pbs.twimg.com/profile_banners/2802272246/1412893156
p1149
sg86
Vhttp://abs.twimg.com/images/themes/theme13/bg.gif
p1150
sg88
VStocksThatDoubl
p1151
sg90
Ven
p1152
sg92
I00
sg93
I77
sg94
VBilo Selhi
p1153
sg96
I00
sg33
Vhttp://t.co/jjWTkVWgFN
p1154
sg98
VWed Sep 10 18:52:30 +0000 2014
p1155
sg100
I00
sg101
Nsg103
I00
sg104
I00
sg105
I00
ssg106
I00
sg107
g1141
sg108
I11220
sg109
g1142
sg110
g1143
sg111
I00
sg112
I72
sg113
I00
sg114
Nsg115
I28395
sg116
g1145
sg117
I11694
sg118
g1146
sg119
g1147
sg120
g1148
sg121
I00
sg122
I00
sg123
g1144
sg239
g1149
sg124
g1150
sg125
g1151
sg126
g1152
sg127
I00
sg128
I00
sg129
I77
sg130
g1153
sg131
g1154
sg132
g133
(S'\x07\xde\t\n\x124\x1e\x00\x00\x00'
p1156
tp1157
Rp1158
sg137
g1140
sg138
Nsg139
I00
sg140
I00
sg141
I00
sbsg142
Nsg29
L663682824512348164L
sg143
I1
sg144
VNov292014
p1159
sg126
Ven
p1160
sg147
g1120
sg132
g133
(S'\x07\xdf\x0b\t\x0b)\x1e\x00\x00\x00'
p1161
tp1162
Rp1163
sg50
(dp1164
g152
Nsg153
I00
sg154
g1117
sg155
I00
sg156
Nsg56
L663682824512348164L
sg157
I1
sg158
V<a href="http://biloselhi.com" rel="nofollow">Nov292014</a>
p1165
sg160
I00
sg161
Nsg64
(dp1166
g163
(lp1167
(dp1168
g39
(lp1169
I64
aI69
asg154
VOTIV
p1170
sa(dp1171
g39
(lp1172
I99
aI104
asg154
VECOM
p1173
sa(dp1174
g39
(lp1175
I105
aI110
asg154
VABTL
p1176
sa(dp1177
g39
(lp1178
I111
aI116
asg154
VVRNS
p1179
sa(dp1180
g39
(lp1181
I117
aI122
asg154
VCALA
p1182
sa(dp1183
g39
(lp1184
I123
aI128
asg154
VOSUR
p1185
sa(dp1186
g39
(lp1187
I129
aI134
asg154
VAXGN
p1188
sa(dp1189
g39
(lp1190
I135
aI140
asg154
VFORD
p1191
sasg168
(lp1192
sg170
(lp1193
sg35
(lp1194
(dp1195
g33
Vhttps://t.co/uAcamNRUPt
p1196
sg39
(lp1197
I19
aI42
asg41
Vhttp://BiloSelhi.com
p1198
sg43
VBiloSelhi.com
p1199
sasg491
(lp1200
(dp1201
g494
L2802272246L
sg495
V581224111302709248
p1202
sg41
Vhttp://twitter.com/StocksThatDoubl/status/581224111302709248/photo/1
p1203
sg43
Vpic.twitter.com/qPCeXiynzS
p1204
sg33
Vhttps://t.co/qPCeXiynzS
p1205
sg500
Vhttps://pbs.twimg.com/media/CBDsP8QWQAAzj8C.png
p1206
sg502
V2802272246
p1207
sg504
L581224111302709248L
sg68
V581224110547681280
p1208
sg506
(dp1209
g508
(dp1210
g510
I703
sg511
Vfit
p1211
sg513
I1024
ssg514
(dp1212
g510
I233
sg511
Vfit
p1213
sg513
I340
ssg517
(dp1214
g510
I412
sg511
Vfit
p1215
sg513
I600
ssg520
(dp1216
g510
I150
sg511
Vcrop
p1217
sg513
I150
sssg39
(lp1218
I75
aI98
asg524
Vphoto
p1219
sg56
L581224110547681280L
sg526
Vhttp://pbs.twimg.com/media/CBDsP8QWQAAzj8C.png
p1220
sassg181
Nsg182
Nsg183
I0
sg68
V663682824512348164
p1221
sg185
I00
sg186
g1139
sg187
Nsg188
Nsg189
I00
sg90
g1160
sg98
VMon Nov 09 11:41:30 +0000 2015
p1222
sg191
Nsg192
Nsg193
(dp1223
g195
Ven
p1224
sg197
Vrecent
p1225
sssg199
g1223
sg200
Nsg201
Nsg31
g1166
sg202
Nsg203
Nsg110
g1221
sg204
I00
sg205
Nsg206
I0
sg207
Nsbag0
(g4
g5
Ntp1226
Rp1227
(dp1228
g9
I00
sg10
Nsg11
I00
sg12
VSmart traders join https://t.co/uAcamNRUPt for alerts like this $OTIV +17% https://t.co/qPCeXiynzS $ECOM $ABTL $VRNS $CALA $OSUR $AXGN $FORD
p1229
sg14
Vhttp://biloselhi.com
p1230
sg16
I00
sg17
I00
sg18
Nsg19
g0
(g20
g5
Ntp1231
Rp1232
(dp1233
g24
I00
sg25
I00
sg26
I01
sg27
VFFFFFF
p1234
sg29
L2802272246L
sg30
I00
sg31
(dp1235
g33
(dp1236
g35
(lp1237
(dp1238
g33
Vhttp://t.co/jjWTkVWgFN
p1239
sg39
(lp1240
I0
aI22
asg41
Vhttp://BiloSelhi.com
p1241
sg43
VBiloSelhi.com
p1242
sassg45
(dp1243
g35
(lp1244
(dp1245
g33
Vhttps://t.co/0aFaudDmBY
p1246
sg39
(lp1247
I137
aI160
asg41
Vhttp://biloselhi.com/d.htm
p1248
sg43
Vbiloselhi.com/d.htm
p1249
sasssg48
Vhttps://pbs.twimg.com/profile_images/509778632521154560/DYIdZCfQ_normal.png
p1250
sg50
(dp1251
g52
I00
sg53
I00
sg54
I01
sg55
I00
sg56
L2802272246L
sg57
Vhttps://abs.twimg.com/images/themes/theme13/bg.gif
p1252
sg59
I00
sg60
V333333
p1253
sg62
g1250
sg63
g1234
sg64
g1235
sg65
I11220
sg66
VEEEEEE
p1254
sg68
V2802272246
p1255
sg70
VB2DFDA
p1256
sg72
I72
sg73
I00
sg74
Nsg75
I28395
sg45
VFounder, Bilo Selhi's Stock Alerts. 1,302% return in 13 months. Subscribe today for promo. Follow on Google+ for free trial. DISCLAIMER: https://t.co/0aFaudDmBY
p1257
sg77
I11694
sg78
V \u2193 \u2193 MUST SEE Track record
p1258
sg80
V93A644
p1259
sg82
Vhttp://pbs.twimg.com/profile_images/509778632521154560/DYIdZCfQ_normal.png
p1260
sg84
I00
sg85
I00
sg231
Vhttps://pbs.twimg.com/profile_banners/2802272246/1412893156
p1261
sg86
Vhttp://abs.twimg.com/images/themes/theme13/bg.gif
p1262
sg88
VStocksThatDoubl
p1263
sg90
Ven
p1264
sg92
I00
sg93
I77
sg94
VBilo Selhi
p1265
sg96
I00
sg33
Vhttp://t.co/jjWTkVWgFN
p1266
sg98
VWed Sep 10 18:52:30 +0000 2014
p1267
sg100
I00
sg101
Nsg103
I00
sg104
I00
sg105
I00
ssg106
I00
sg107
g1253
sg108
I11220
sg109
g1254
sg110
g1255
sg111
I00
sg112
I72
sg113
I00
sg114
Nsg115
I28395
sg116
g1257
sg117
I11694
sg118
g1258
sg119
g1259
sg120
g1260
sg121
I00
sg122
I00
sg123
g1256
sg239
g1261
sg124
g1262
sg125
g1263
sg126
g1264
sg127
I00
sg128
I00
sg129
I77
sg130
g1265
sg131
g1266
sg132
g133
(S'\x07\xde\t\n\x124\x1e\x00\x00\x00'
p1268
tp1269
Rp1270
sg137
g1252
sg138
Nsg139
I00
sg140
I00
sg141
I00
sbsg142
Nsg29
L663614789797703680L
sg143
I0
sg144
VNov292014
p1271
sg126
Ven
p1272
sg147
g1232
sg132
g133
(S'\x07\xdf\x0b\t\x07\x0b\t\x00\x00\x00'
p1273
tp1274
Rp1275
sg50
(dp1276
g152
Nsg153
I00
sg154
g1229
sg155
I00
sg156
Nsg56
L663614789797703680L
sg157
I0
sg158
V<a href="http://biloselhi.com" rel="nofollow">Nov292014</a>
p1277
sg160
I00
sg161
Nsg64
(dp1278
g163
(lp1279
(dp1280
g39
(lp1281
I64
aI69
asg154
VOTIV
p1282
sa(dp1283
g39
(lp1284
I99
aI104
asg154
VECOM
p1285
sa(dp1286
g39
(lp1287
I105
aI110
asg154
VABTL
p1288
sa(dp1289
g39
(lp1290
I111
aI116
asg154
VVRNS
p1291
sa(dp1292
g39
(lp1293
I117
aI122
asg154
VCALA
p1294
sa(dp1295
g39
(lp1296
I123
aI128
asg154
VOSUR
p1297
sa(dp1298
g39
(lp1299
I129
aI134
asg154
VAXGN
p1300
sa(dp1301
g39
(lp1302
I135
aI140
asg154
VFORD
p1303
sasg168
(lp1304
sg170
(lp1305
sg35
(lp1306
(dp1307
g33
Vhttps://t.co/uAcamNRUPt
p1308
sg39
(lp1309
I19
aI42
asg41
Vhttp://BiloSelhi.com
p1310
sg43
VBiloSelhi.com
p1311
sasg491
(lp1312
(dp1313
g494
L2802272246L
sg495
V581224111302709248
p1314
sg41
Vhttp://twitter.com/StocksThatDoubl/status/581224111302709248/photo/1
p1315
sg43
Vpic.twitter.com/qPCeXiynzS
p1316
sg33
Vhttps://t.co/qPCeXiynzS
p1317
sg500
Vhttps://pbs.twimg.com/media/CBDsP8QWQAAzj8C.png
p1318
sg502
V2802272246
p1319
sg504
L581224111302709248L
sg68
V581224110547681280
p1320
sg506
(dp1321
g508
(dp1322
g510
I703
sg511
Vfit
p1323
sg513
I1024
ssg514
(dp1324
g510
I233
sg511
Vfit
p1325
sg513
I340
ssg517
(dp1326
g510
I412
sg511
Vfit
p1327
sg513
I600
ssg520
(dp1328
g510
I150
sg511
Vcrop
p1329
sg513
I150
sssg39
(lp1330
I75
aI98
asg524
Vphoto
p1331
sg56
L581224110547681280L
sg526
Vhttp://pbs.twimg.com/media/CBDsP8QWQAAzj8C.png
p1332
sassg181
Nsg182
Nsg183
I0
sg68
V663614789797703680
p1333
sg185
I00
sg186
g1251
sg187
Nsg188
Nsg189
I00
sg90
g1272
sg98
VMon Nov 09 07:11:09 +0000 2015
p1334
sg191
Nsg192
Nsg193
(dp1335
g195
Ven
p1336
sg197
Vrecent
p1337
sssg199
g1335
sg200
Nsg201
Nsg31
g1278
sg202
Nsg203
Nsg110
g1333
sg204
I00
sg205
Nsg206
I0
sg207
Nsbag0
(g4
g5
Ntp1338
Rp1339
(dp1340
g9
I00
sg10
Nsg11
I00
sg12
VSmart traders join https://t.co/uAcamNRUPt for alerts like this $OTIV +17% https://t.co/qPCeXiynzS $ECOM $ABTL $VRNS $CALA $OSUR $AXGN $FORD
p1341
sg14
Vhttp://biloselhi.com
p1342
sg16
I00
sg17
I00
sg18
Nsg19
g0
(g20
g5
Ntp1343
Rp1344
(dp1345
g24
I00
sg25
I00
sg26
I01
sg27
VFFFFFF
p1346
sg29
L2802272246L
sg30
I00
sg31
(dp1347
g33
(dp1348
g35
(lp1349
(dp1350
g33
Vhttp://t.co/jjWTkVWgFN
p1351
sg39
(lp1352
I0
aI22
asg41
Vhttp://BiloSelhi.com
p1353
sg43
VBiloSelhi.com
p1354
sassg45
(dp1355
g35
(lp1356
(dp1357
g33
Vhttps://t.co/0aFaudDmBY
p1358
sg39
(lp1359
I137
aI160
asg41
Vhttp://biloselhi.com/d.htm
p1360
sg43
Vbiloselhi.com/d.htm
p1361
sasssg48
Vhttps://pbs.twimg.com/profile_images/509778632521154560/DYIdZCfQ_normal.png
p1362
sg50
(dp1363
g52
I00
sg53
I00
sg54
I01
sg55
I00
sg56
L2802272246L
sg57
Vhttps://abs.twimg.com/images/themes/theme13/bg.gif
p1364
sg59
I00
sg60
V333333
p1365
sg62
g1362
sg63
g1346
sg64
g1347
sg65
I11220
sg66
VEEEEEE
p1366
sg68
V2802272246
p1367
sg70
VB2DFDA
p1368
sg72
I72
sg73
I00
sg74
Nsg75
I28395
sg45
VFounder, Bilo Selhi's Stock Alerts. 1,302% return in 13 months. Subscribe today for promo. Follow on Google+ for free trial. DISCLAIMER: https://t.co/0aFaudDmBY
p1369
sg77
I11694
sg78
V \u2193 \u2193 MUST SEE Track record
p1370
sg80
V93A644
p1371
sg82
Vhttp://pbs.twimg.com/profile_images/509778632521154560/DYIdZCfQ_normal.png
p1372
sg84
I00
sg85
I00
sg231
Vhttps://pbs.twimg.com/profile_banners/2802272246/1412893156
p1373
sg86
Vhttp://abs.twimg.com/images/themes/theme13/bg.gif
p1374
sg88
VStocksThatDoubl
p1375
sg90
Ven
p1376
sg92
I00
sg93
I77
sg94
VBilo Selhi
p1377
sg96
I00
sg33
Vhttp://t.co/jjWTkVWgFN
p1378
sg98
VWed Sep 10 18:52:30 +0000 2014
p1379
sg100
I00
sg101
Nsg103
I00
sg104
I00
sg105
I00
ssg106
I00
sg107
g1365
sg108
I11220
sg109
g1366
sg110
g1367
sg111
I00
sg112
I72
sg113
I00
sg114
Nsg115
I28395
sg116
g1369
sg117
I11694
sg118
g1370
sg119
g1371
sg120
g1372
sg121
I00
sg122
I00
sg123
g1368
sg239
g1373
sg124
g1374
sg125
g1375
sg126
g1376
sg127
I00
sg128
I00
sg129
I77
sg130
g1377
sg131
g1378
sg132
g133
(S'\x07\xde\t\n\x124\x1e\x00\x00\x00'
p1380
tp1381
Rp1382
sg137
g1364
sg138
Nsg139
I00
sg140
I00
sg141
I00
sbsg142
Nsg29
L663546726964436993L
sg143
I0
sg144
VNov292014
p1383
sg126
Ven
p1384
sg147
g1344
sg132
g133
(S'\x07\xdf\x0b\t\x02(*\x00\x00\x00'
p1385
tp1386
Rp1387
sg50
(dp1388
g152
Nsg153
I00
sg154
g1341
sg155
I00
sg156
Nsg56
L663546726964436993L
sg157
I0
sg158
V<a href="http://biloselhi.com" rel="nofollow">Nov292014</a>
p1389
sg160
I00
sg161
Nsg64
(dp1390
g163
(lp1391
(dp1392
g39
(lp1393
I64
aI69
asg154
VOTIV
p1394
sa(dp1395
g39
(lp1396
I99
aI104
asg154
VECOM
p1397
sa(dp1398
g39
(lp1399
I105
aI110
asg154
VABTL
p1400
sa(dp1401
g39
(lp1402
I111
aI116
asg154
VVRNS
p1403
sa(dp1404
g39
(lp1405
I117
aI122
asg154
VCALA
p1406
sa(dp1407
g39
(lp1408
I123
aI128
asg154
VOSUR
p1409
sa(dp1410
g39
(lp1411
I129
aI134
asg154
VAXGN
p1412
sa(dp1413
g39
(lp1414
I135
aI140
asg154
VFORD
p1415
sasg168
(lp1416
sg170
(lp1417
sg35
(lp1418
(dp1419
g33
Vhttps://t.co/uAcamNRUPt
p1420
sg39
(lp1421
I19
aI42
asg41
Vhttp://BiloSelhi.com
p1422
sg43
VBiloSelhi.com
p1423
sasg491
(lp1424
(dp1425
g494
L2802272246L
sg495
V581224111302709248
p1426
sg41
Vhttp://twitter.com/StocksThatDoubl/status/581224111302709248/photo/1
p1427
sg43
Vpic.twitter.com/qPCeXiynzS
p1428
sg33
Vhttps://t.co/qPCeXiynzS
p1429
sg500
Vhttps://pbs.twimg.com/media/CBDsP8QWQAAzj8C.png
p1430
sg502
V2802272246
p1431
sg504
L581224111302709248L
sg68
V581224110547681280
p1432
sg506
(dp1433
g508
(dp1434
g510
I703
sg511
Vfit
p1435
sg513
I1024
ssg514
(dp1436
g510
I233
sg511
Vfit
p1437
sg513
I340
ssg517
(dp1438
g510
I412
sg511
Vfit
p1439
sg513
I600
ssg520
(dp1440
g510
I150
sg511
Vcrop
p1441
sg513
I150
sssg39
(lp1442
I75
aI98
asg524
Vphoto
p1443
sg56
L581224110547681280L
sg526
Vhttp://pbs.twimg.com/media/CBDsP8QWQAAzj8C.png
p1444
sassg181
Nsg182
Nsg183
I0
sg68
V663546726964436993
p1445
sg185
I00
sg186
g1363
sg187
Nsg188
Nsg189
I00
sg90
g1384
sg98
VMon Nov 09 02:40:42 +0000 2015
p1446
sg191
Nsg192
Nsg193
(dp1447
g195
Ven
p1448
sg197
Vrecent
p1449
sssg199
g1447
sg200
Nsg201
Nsg31
g1390
sg202
Nsg203
Nsg110
g1445
sg204
I00
sg205
Nsg206
I0
sg207
Nsbag0
(g4
g5
Ntp1450
Rp1451
(dp1452
g9
I00
sg10
Nsg11
I00
sg12
VSmart traders join https://t.co/T6quH94NvG for alerts like this $OTIV +17% https://t.co/h6blh83RJ1 $WFC $JNJ $GO\u2026 https://t.co/6GtxeYO85j
p1453
sg14
Vhttp://ifttt.com
p1454
sg16
I00
sg17
I00
sg18
Nsg19
g0
(g20
g5
Ntp1455
Rp1456
(dp1457
g24
I00
sg25
I00
sg26
I01
sg27
VDDEEF6
p1458
sg29
I237251225
sg30
I00
sg31
(dp1459
g45
(dp1460
g35
(lp1461
sssg48
Vhttps://pbs.twimg.com/profile_images/1214326721/photo-11501536_normal.jpg
p1462
sg50
(dp1463
g52
I00
sg53
I00
sg54
I01
sg55
I00
sg56
I237251225
sg57
Vhttps://abs.twimg.com/images/themes/theme1/bg.png
p1464
sg59
I00
sg60
V333333
p1465
sg62
g1462
sg63
g1458
sg64
g1459
sg65
I47
sg66
VC0DEED
p1466
sg68
V237251225
p1467
sg70
VC0DEED
p1468
sg72
I71
sg73
I00
sg74
Nsg75
I63608
sg45
g228
sg77
I5
sg78
VINDIA
p1469
sg80
V0084B4
p1470
sg82
Vhttp://pbs.twimg.com/profile_images/1214326721/photo-11501536_normal.jpg
p1471
sg84
I00
sg85
I00
sg86
Vhttp://abs.twimg.com/images/themes/theme1/bg.png
p1472
sg88
Vsatish_kumar21
p1473
sg90
Ven
p1474
sg92
I00
sg93
I1
sg94
VSATISH KUMAR
p1475
sg96
I00
sg33
Nsg98
VWed Jan 12 12:30:03 +0000 2011
p1476
sg100
I00
sg101
Nsg103
I00
sg104
I01
sg105
I00
ssg106
I00
sg107
g1465
sg108
I47
sg109
g1466
sg110
g1467
sg111
I00
sg112
I71
sg113
I00
sg114
Nsg115
I63608
sg116
g228
sg117
I5
sg118
g1469
sg119
g1470
sg120
g1471
sg121
I00
sg122
I00
sg123
g1468
sg124
g1472
sg125
g1473
sg126
g1474
sg127
I00
sg128
I00
sg129
I1
sg130
g1475
sg131
Nsg132
g133
(S'\x07\xdb\x01\x0c\x0c\x1e\x03\x00\x00\x00'
p1477
tp1478
Rp1479
sg137
g1464
sg138
Nsg139
I00
sg140
I01
sg141
I00
sbsg142
Nsg29
L663480631435919365L
sg143
I0
sg144
VIFTTT
p1480
sg126
Ven
p1481
sg147
g1456
sg132
g133
(S'\x07\xdf\x0b\x08\x16\x12\x04\x00\x00\x00'
p1482
tp1483
Rp1484
sg50
(dp1485
g152
Nsg153
I00
sg154
g1453
sg155
I00
sg156
Nsg56
L663480631435919365L
sg157
I0
sg158
V<a href="http://ifttt.com" rel="nofollow">IFTTT</a>
p1486
sg160
I00
sg161
Nsg64
(dp1487
g163
(lp1488
(dp1489
g39
(lp1490
I64
aI69
asg154
VOTIV
p1491
sa(dp1492
g39
(lp1493
I99
aI103
asg154
VWFC
p1494
sa(dp1495
g39
(lp1496
I104
aI108
asg154
VJNJ
p1497
sasg168
(lp1498
sg170
(lp1499
sg35
(lp1500
(dp1501
g33
Vhttps://t.co/T6quH94NvG
p1502
sg39
(lp1503
I19
aI42
asg41
Vhttp://BiloSelhi.com
p1504
sg43
VBiloSelhi.com
p1505
sa(dp1506
g33
Vhttps://t.co/6GtxeYO85j
p1507
sg39
(lp1508
I114
aI137
asg41
Vhttp://ift.tt/1clQiSw
p1509
sg43
Vift.tt/1clQiSw
p1510
sasg491
(lp1511
(dp1512
g494
L2802272246L
sg495
V581224111302709248
p1513
sg41
Vhttp://twitter.com/StocksThatDoubl/status/581224111302709248/photo/1
p1514
sg43
Vpic.twitter.com/h6blh83RJ1
p1515
sg33
Vhttps://t.co/h6blh83RJ1
p1516
sg500
Vhttps://pbs.twimg.com/media/CBDsP8QWQAAzj8C.png
p1517
sg502
V2802272246
p1518
sg504
L581224111302709248L
sg68
V581224110547681280
p1519
sg506
(dp1520
g508
(dp1521
g510
I703
sg511
Vfit
p1522
sg513
I1024
ssg514
(dp1523
g510
I233
sg511
Vfit
p1524
sg513
I340
ssg517
(dp1525
g510
I412
sg511
Vfit
p1526
sg513
I600
ssg520
(dp1527
g510
I150
sg511
Vcrop
p1528
sg513
I150
sssg39
(lp1529
I75
aI98
asg524
Vphoto
p1530
sg56
L581224110547681280L
sg526
Vhttp://pbs.twimg.com/media/CBDsP8QWQAAzj8C.png
p1531
sassg181
Nsg182
Nsg183
I0
sg68
V663480631435919365
p1532
sg185
I00
sg186
g1463
sg187
Nsg188
Nsg189
I00
sg90
g1481
sg98
VSun Nov 08 22:18:04 +0000 2015
p1533
sg191
Nsg192
Nsg193
(dp1534
g195
Ven
p1535
sg197
Vrecent
p1536
sssg199
g1534
sg200
Nsg201
Nsg31
g1487
sg202
Nsg203
Nsg110
g1532
sg204
I00
sg205
Nsg206
I0
sg207
Nsbag0
(g4
g5
Ntp1537
Rp1538
(dp1539
g9
I00
sg10
Nsg11
I00
sg12
VSmart traders join https://t.co/uAcamNRUPt for alerts like this $OTIV +17% https://t.co/qPCeXiynzS $WFC $JNJ $GOOGL $JPM $CHL $NVS $BABA
p1540
sg14
Vhttp://biloselhi.com
p1541
sg16
I00
sg17
I00
sg18
Nsg19
g0
(g20
g5
Ntp1542
Rp1543
(dp1544
g24
I00
sg25
I00
sg26
I01
sg27
VFFFFFF
p1545
sg29
L2802272246L
sg30
I00
sg31
(dp1546
g33
(dp1547
g35
(lp1548
(dp1549
g33
Vhttp://t.co/jjWTkVWgFN
p1550
sg39
(lp1551
I0
aI22
asg41
Vhttp://BiloSelhi.com
p1552
sg43
VBiloSelhi.com
p1553
sassg45
(dp1554
g35
(lp1555
(dp1556
g33
Vhttps://t.co/0aFaudDmBY
p1557
sg39
(lp1558
I137
aI160
asg41
Vhttp://biloselhi.com/d.htm
p1559
sg43
Vbiloselhi.com/d.htm
p1560
sasssg48
Vhttps://pbs.twimg.com/profile_images/509778632521154560/DYIdZCfQ_normal.png
p1561
sg50
(dp1562
g52
I00
sg53
I00
sg54
I01
sg55
I00
sg56
L2802272246L
sg57
Vhttps://abs.twimg.com/images/themes/theme13/bg.gif
p1563
sg59
I00
sg60
V333333
p1564
sg62
g1561
sg63
g1545
sg64
g1546
sg65
I11220
sg66
VEEEEEE
p1565
sg68
V2802272246
p1566
sg70
VB2DFDA
p1567
sg72
I72
sg73
I00
sg74
Nsg75
I28395
sg45
VFounder, Bilo Selhi's Stock Alerts. 1,302% return in 13 months. Subscribe today for promo. Follow on Google+ for free trial. DISCLAIMER: https://t.co/0aFaudDmBY
p1568
sg77
I11694
sg78
V \u2193 \u2193 MUST SEE Track record
p1569
sg80
V93A644
p1570
sg82
Vhttp://pbs.twimg.com/profile_images/509778632521154560/DYIdZCfQ_normal.png
p1571
sg84
I00
sg85
I00
sg231
Vhttps://pbs.twimg.com/profile_banners/2802272246/1412893156
p1572
sg86
Vhttp://abs.twimg.com/images/themes/theme13/bg.gif
p1573
sg88
VStocksThatDoubl
p1574
sg90
Ven
p1575
sg92
I00
sg93
I77
sg94
VBilo Selhi
p1576
sg96
I00
sg33
Vhttp://t.co/jjWTkVWgFN
p1577
sg98
VWed Sep 10 18:52:30 +0000 2014
p1578
sg100
I00
sg101
Nsg103
I00
sg104
I00
sg105
I00
ssg106
I00
sg107
g1564
sg108
I11220
sg109
g1565
sg110
g1566
sg111
I00
sg112
I72
sg113
I00
sg114
Nsg115
I28395
sg116
g1568
sg117
I11694
sg118
g1569
sg119
g1570
sg120
g1571
sg121
I00
sg122
I00
sg123
g1567
sg239
g1572
sg124
g1573
sg125
g1574
sg126
g1575
sg127
I00
sg128
I00
sg129
I77
sg130
g1576
sg131
g1577
sg132
g133
(S'\x07\xde\t\n\x124\x1e\x00\x00\x00'
p1579
tp1580
Rp1581
sg137
g1563
sg138
Nsg139
I00
sg140
I00
sg141
I00
sbsg142
Nsg29
L663480443619164160L
sg143
I0
sg144
VNov292014
p1582
sg126
Ven
p1583
sg147
g1543
sg132
g133
(S'\x07\xdf\x0b\x08\x16\x11\x13\x00\x00\x00'
p1584
tp1585
Rp1586
sg50
(dp1587
g152
Nsg153
I00
sg154
g1540
sg155
I00
sg156
Nsg56
L663480443619164160L
sg157
I0
sg158
V<a href="http://biloselhi.com" rel="nofollow">Nov292014</a>
p1588
sg160
I00
sg161
Nsg64
(dp1589
g163
(lp1590
(dp1591
g39
(lp1592
I64
aI69
asg154
VOTIV
p1593
sa(dp1594
g39
(lp1595
I99
aI103
asg154
VWFC
p1596
sa(dp1597
g39
(lp1598
I104
aI108
asg154
VJNJ
p1599
sa(dp1600
g39
(lp1601
I109
aI115
asg154
VGOOGL
p1602
sa(dp1603
g39
(lp1604
I116
aI120
asg154
VJPM
p1605
sa(dp1606
g39
(lp1607
I121
aI125
asg154
VCHL
p1608
sa(dp1609
g39
(lp1610
I126
aI130
asg154
VNVS
p1611
sa(dp1612
g39
(lp1613
I131
aI136
asg154
VBABA
p1614
sasg168
(lp1615
sg170
(lp1616
sg35
(lp1617
(dp1618
g33
Vhttps://t.co/uAcamNRUPt
p1619
sg39
(lp1620
I19
aI42
asg41
Vhttp://BiloSelhi.com
p1621
sg43
VBiloSelhi.com
p1622
sasg491
(lp1623
(dp1624
g494
L2802272246L
sg495
V581224111302709248
p1625
sg41
Vhttp://twitter.com/StocksThatDoubl/status/581224111302709248/photo/1
p1626
sg43
Vpic.twitter.com/qPCeXiynzS
p1627
sg33
Vhttps://t.co/qPCeXiynzS
p1628
sg500
Vhttps://pbs.twimg.com/media/CBDsP8QWQAAzj8C.png
p1629
sg502
V2802272246
p1630
sg504
L581224111302709248L
sg68
V581224110547681280
p1631
sg506
(dp1632
g508
(dp1633
g510
I703
sg511
Vfit
p1634
sg513
I1024
ssg514
(dp1635
g510
I233
sg511
Vfit
p1636
sg513
I340
ssg517
(dp1637
g510
I412
sg511
Vfit
p1638
sg513
I600
ssg520
(dp1639
g510
I150
sg511
Vcrop
p1640
sg513
I150
sssg39
(lp1641
I75
aI98
asg524
Vphoto
p1642
sg56
L581224110547681280L
sg526
Vhttp://pbs.twimg.com/media/CBDsP8QWQAAzj8C.png
p1643
sassg181
Nsg182
Nsg183
I0
sg68
V663480443619164160
p1644
sg185
I00
sg186
g1562
sg187
Nsg188
Nsg189
I00
sg90
g1583
sg98
VSun Nov 08 22:17:19 +0000 2015
p1645
sg191
Nsg192
Nsg193
(dp1646
g195
Ven
p1647
sg197
Vrecent
p1648
sssg199
g1646
sg200
Nsg201
Nsg31
g1589
sg202
Nsg203
Nsg110
g1644
sg204
I00
sg205
Nsg206
I0
sg207
Nsbag0
(g4
g5
Ntp1649
Rp1650
(dp1651
g9
I00
sg10
Nsg11
I00
sg12
V$OTIV releasing Earnings on 11/12 Before Open (Confirmed). Anybody buying/selling in Earnings? https://t.co/PrF3cv0ESt
p1652
sg14
Vhttp://www.hootsuite.com
p1653
sg16
I00
sg17
I00
sg18
Nsg19
g0
(g20
g5
Ntp1654
Rp1655
(dp1656
g24
I00
sg25
I00
sg26
I01
sg27
VDDEEF6
p1657
sg29
L2683803193L
sg30
I00
sg31
(dp1658
g33
(dp1659
g35
(lp1660
(dp1661
g33
Vhttp://t.co/TkVoSXCWAo
p1662
sg39
(lp1663
I0
aI22
asg41
Vhttp://StocksEarning.com
p1664
sg43
VStocksEarning.com
p1665
sassg45
(dp1666
g35
(lp1667
sssg48
Vhttps://pbs.twimg.com/profile_images/493963538138804226/wKa0JIgx_normal.jpeg
p1668
sg50
(dp1669
g52
I00
sg53
I00
sg54
I01
sg55
I00
sg56
L2683803193L
sg57
Vhttps://abs.twimg.com/images/themes/theme1/bg.png
p1670
sg59
I00
sg60
V333333
p1671
sg62
g1668
sg63
g1657
sg64
g1658
sg65
I406
sg66
VC0DEED
p1672
sg68
V2683803193
p1673
sg70
VC0DEED
p1674
sg72
I29
sg73
I00
sg74
Nsg75
I38513
sg45
VFinancial services website dedicated to provide the research on Stocks Earnings by using our proprietary indicators. Do your own research. Tweets not advice.
p1675
sg77
I100
sg78
VNew York, NY
p1676
sg80
V0084B4
p1677
sg82
Vhttp://pbs.twimg.com/profile_images/493963538138804226/wKa0JIgx_normal.jpeg
p1678
sg84
I00
sg85
I00
sg86
Vhttp://abs.twimg.com/images/themes/theme1/bg.png
p1679
sg88
VStocksEarnings
p1680
sg90
Ven
p1681
sg92
I00
sg93
I6
sg94
VStockEarnings.com
p1682
sg96
I00
sg33
Vhttp://t.co/TkVoSXCWAo
p1683
sg98
VSun Jul 27 01:23:04 +0000 2014
p1684
sg100
I00
sg101
Nsg103
I00
sg104
I01
sg105
I00
ssg106
I00
sg107
g1671
sg108
I406
sg109
g1672
sg110
g1673
sg111
I00
sg112
I29
sg113
I00
sg114
Nsg115
I38513
sg116
g1675
sg117
I100
sg118
g1676
sg119
g1677
sg120
g1678
sg121
I00
sg122
I00
sg123
g1674
sg124
g1679
sg125
g1680
sg126
g1681
sg127
I00
sg128
I00
sg129
I6
sg130
g1682
sg131
g1683
sg132
g133
(S'\x07\xde\x07\x1b\x01\x17\x04\x00\x00\x00'
p1685
tp1686
Rp1687
sg137
g1670
sg138
Nsg139
I00
sg140
I01
sg141
I00
sbsg142
Nsg29
L663435905328406528L
sg143
I0
sg144
VHootsuite
p1688
sg126
Ven
p1689
sg147
g1655
sg132
g133
(S'\x07\xdf\x0b\x08\x13\x14\x14\x00\x00\x00'
p1690
tp1691
Rp1692
sg50
(dp1693
g152
Nsg153
I00
sg154
g1652
sg155
I00
sg156
Nsg56
L663435905328406528L
sg157
I0
sg158
V<a href="http://www.hootsuite.com" rel="nofollow">Hootsuite</a>
p1694
sg160
I00
sg161
Nsg64
(dp1695
g163
(lp1696
(dp1697
g39
(lp1698
I0
aI5
asg154
VOTIV
p1699
sasg168
(lp1700
sg170
(lp1701
sg35
(lp1702
(dp1703
g33
Vhttps://t.co/PrF3cv0ESt
p1704
sg39
(lp1705
I95
aI118
asg41
Vhttp://ow.ly/UnXSD
p1706
sg43
Vow.ly/UnXSD
p1707
sassg181
Nsg182
Nsg183
I0
sg68
V663435905328406528
p1708
sg185
I00
sg186
g1669
sg187
Nsg188
Nsg189
I00
sg90
g1689
sg98
VSun Nov 08 19:20:20 +0000 2015
p1709
sg191
Nsg192
Nsg193
(dp1710
g195
Ven
p1711
sg197
Vrecent
p1712
sssg199
g1710
sg200
Nsg201
Nsg31
g1695
sg202
Nsg203
Nsg110
g1708
sg204
I00
sg205
Nsg206
I0
sg207
Nsbag0
(g4
g5
Ntp1713
Rp1714
(dp1715
g9
I00
sg10
Nsg11
I00
sg12
VPHENOMENAL stock trade alerts https://t.co/uAcamNRUPt $OTIV +20% https://t.co/n1M8D6Hf1g $CHL $NVS $BABA $PFE $PG
p1716
sg14
Vhttp://biloselhi.com
p1717
sg16
I00
sg17
I00
sg18
Nsg19
g0
(g20
g5
Ntp1718
Rp1719
(dp1720
g24
I00
sg25
I00
sg26
I01
sg27
VFFFFFF
p1721
sg29
L2802272246L
sg30
I00
sg31
(dp1722
g33
(dp1723
g35
(lp1724
(dp1725
g33
Vhttp://t.co/jjWTkVWgFN
p1726
sg39
(lp1727
I0
aI22
asg41
Vhttp://BiloSelhi.com
p1728
sg43
VBiloSelhi.com
p1729
sassg45
(dp1730
g35
(lp1731
(dp1732
g33
Vhttps://t.co/0aFaudDmBY
p1733
sg39
(lp1734
I137
aI160
asg41
Vhttp://biloselhi.com/d.htm
p1735
sg43
Vbiloselhi.com/d.htm
p1736
sasssg48
Vhttps://pbs.twimg.com/profile_images/509778632521154560/DYIdZCfQ_normal.png
p1737
sg50
(dp1738
g52
I00
sg53
I00
sg54
I01
sg55
I00
sg56
L2802272246L
sg57
Vhttps://abs.twimg.com/images/themes/theme13/bg.gif
p1739
sg59
I00
sg60
V333333
p1740
sg62
g1737
sg63
g1721
sg64
g1722
sg65
I11220
sg66
VEEEEEE
p1741
sg68
V2802272246
p1742
sg70
VB2DFDA
p1743
sg72
I72
sg73
I00
sg74
Nsg75
I28395
sg45
VFounder, Bilo Selhi's Stock Alerts. 1,302% return in 13 months. Subscribe today for promo. Follow on Google+ for free trial. DISCLAIMER: https://t.co/0aFaudDmBY
p1744
sg77
I11694
sg78
V \u2193 \u2193 MUST SEE Track record
p1745
sg80
V93A644
p1746
sg82
Vhttp://pbs.twimg.com/profile_images/509778632521154560/DYIdZCfQ_normal.png
p1747
sg84
I00
sg85
I00
sg231
Vhttps://pbs.twimg.com/profile_banners/2802272246/1412893156
p1748
sg86
Vhttp://abs.twimg.com/images/themes/theme13/bg.gif
p1749
sg88
VStocksThatDoubl
p1750
sg90
Ven
p1751
sg92
I00
sg93
I77
sg94
VBilo Selhi
p1752
sg96
I00
sg33
Vhttp://t.co/jjWTkVWgFN
p1753
sg98
VWed Sep 10 18:52:30 +0000 2014
p1754
sg100
I00
sg101
Nsg103
I00
sg104
I00
sg105
I00
ssg106
I00
sg107
g1740
sg108
I11220
sg109
g1741
sg110
g1742
sg111
I00
sg112
I72
sg113
I00
sg114
Nsg115
I28395
sg116
g1744
sg117
I11694
sg118
g1745
sg119
g1746
sg120
g1747
sg121
I00
sg122
I00
sg123
g1743
sg239
g1748
sg124
g1749
sg125
g1750
sg126
g1751
sg127
I00
sg128
I00
sg129
I77
sg130
g1752
sg131
g1753
sg132
g133
(S'\x07\xde\t\n\x124\x1e\x00\x00\x00'
p1755
tp1756
Rp1757
sg137
g1739
sg138
Nsg139
I00
sg140
I00
sg141
I00
sbsg142
Nsg29
L663424893535547392L
sg143
I0
sg144
VNov292014
p1758
sg126
Vde
p1759
sg147
g1719
sg132
g133
(S'\x07\xdf\x0b\x08\x12$#\x00\x00\x00'
p1760
tp1761
Rp1762
sg50
(dp1763
g152
Nsg153
I00
sg154
g1716
sg155
I00
sg156
Nsg56
L663424893535547392L
sg157
I0
sg158
V<a href="http://biloselhi.com" rel="nofollow">Nov292014</a>
p1764
sg160
I00
sg161
Nsg64
(dp1765
g163
(lp1766
(dp1767
g39
(lp1768
I54
aI59
asg154
VOTIV
p1769
sa(dp1770
g39
(lp1771
I89
aI93
asg154
VCHL
p1772
sa(dp1773
g39
(lp1774
I94
aI98
asg154
VNVS
p1775
sa(dp1776
g39
(lp1777
I99
aI104
asg154
VBABA
p1778
sa(dp1779
g39
(lp1780
I105
aI109
asg154
VPFE
p1781
sa(dp1782
g39
(lp1783
I110
aI113
asg154
VPG
p1784
sasg168
(lp1785
sg170
(lp1786
sg35
(lp1787
(dp1788
g33
Vhttps://t.co/uAcamNRUPt
p1789
sg39
(lp1790
I30
aI53
asg41
Vhttp://BiloSelhi.com
p1791
sg43
VBiloSelhi.com
p1792
sasg491
(lp1793
(dp1794
g494
L2802272246L
sg495
V544257238618357760
p1795
sg41
Vhttp://twitter.com/StocksThatDoubl/status/544257238618357760/photo/1
p1796
sg43
Vpic.twitter.com/n1M8D6Hf1g
p1797
sg33
Vhttps://t.co/n1M8D6Hf1g
p1798
sg500
Vhttps://pbs.twimg.com/media/B42XEweCUAAmLNl.png
p1799
sg502
V2802272246
p1800
sg504
L544257238618357760L
sg68
V544257237967851520
p1801
sg506
(dp1802
g514
(dp1803
g510
I278
sg511
Vfit
p1804
sg513
I340
ssg508
(dp1805
g510
I825
sg511
Vfit
p1806
sg513
I1006
ssg517
(dp1807
g510
I492
sg511
Vfit
p1808
sg513
I600
ssg520
(dp1809
g510
I150
sg511
Vcrop
p1810
sg513
I150
sssg39
(lp1811
I65
aI88
asg524
Vphoto
p1812
sg56
L544257237967851520L
sg526
Vhttp://pbs.twimg.com/media/B42XEweCUAAmLNl.png
p1813
sassg181
Nsg182
Nsg183
I0
sg68
V663424893535547392
p1814
sg185
I00
sg186
g1738
sg187
Nsg188
Nsg189
I00
sg90
g1759
sg98
VSun Nov 08 18:36:35 +0000 2015
p1815
sg191
Nsg192
Nsg193
(dp1816
g195
Vde
p1817
sg197
Vrecent
p1818
sssg199
g1816
sg200
Nsg201
Nsg31
g1765
sg202
Nsg203
Nsg110
g1814
sg204
I00
sg205
Nsg206
I0
sg207
Nsbag0
(g4
g5
Ntp1819
Rp1820
(dp1821
g9
I00
sg10
Nsg11
I00
sg12
V$OTIV: Wall Street analysts bullish on OTIV's earnings growth: https://t.co/z4oa3dEysN https://t.co/7VCzLsykQh
p1822
sg14
Vhttp://example.com
p1823
sg16
I00
sg17
I00
sg18
Nsg19
g0
(g20
g5
Ntp1824
Rp1825
(dp1826
g24
I00
sg25
I00
sg26
I01
sg27
VDDEEF6
p1827
sg29
L3290849920L
sg30
I00
sg31
(dp1828
g45
(dp1829
g35
(lp1830
sssg48
Vhttps://pbs.twimg.com/profile_images/606146912773926912/tpzIX1Xs_normal.jpg
p1831
sg50
(dp1832
g52
I00
sg53
I00
sg54
I01
sg55
I00
sg56
L3290849920L
sg57
Vhttps://abs.twimg.com/images/themes/theme1/bg.png
p1833
sg59
I00
sg60
V333333
p1834
sg62
g1831
sg63
g1827
sg64
g1828
sg65
I166
sg66
VC0DEED
p1835
sg68
V3290849920
p1836
sg70
VC0DEED
p1837
sg72
I12
sg73
I00
sg74
I-28800
sg75
I44252
sg45
g228
sg77
I0
sg78
g228
sg80
V0084B4
p1838
sg82
Vhttp://pbs.twimg.com/profile_images/606146912773926912/tpzIX1Xs_normal.jpg
p1839
sg84
I00
sg85
I00
sg86
Vhttp://abs.twimg.com/images/themes/theme1/bg.png
p1840
sg88
VTimeForGrowth
p1841
sg90
Ven
p1842
sg92
I00
sg93
I0
sg94
VTimeForGrowth
p1843
sg96
I00
sg33
Nsg98
VWed May 20 03:22:57 +0000 2015
p1844
sg100
I00
sg101
VPacific Time (US & Canada)
p1845
sg103
I00
sg104
I01
sg105
I00
ssg106
I00
sg107
g1834
sg108
I166
sg109
g1835
sg110
g1836
sg111
I00
sg112
I12
sg113
I00
sg114
I-28800
sg115
I44252
sg116
g228
sg117
I0
sg118
g228
sg119
g1838
sg120
g1839
sg121
I00
sg122
I00
sg123
g1837
sg124
g1840
sg125
g1841
sg126
g1842
sg127
I00
sg128
I00
sg129
I0
sg130
g1843
sg131
Nsg132
g133
(S'\x07\xdf\x05\x14\x03\x169\x00\x00\x00'
p1846
tp1847
Rp1848
sg137
g1833
sg138
g1845
sg139
I00
sg140
I01
sg141
I00
sbsg142
Nsg29
L663000713426026496L
sg143
I0
sg144
VCrunchingTime
p1849
sg126
Ven
p1850
sg147
g1825
sg132
g133
(S'\x07\xdf\x0b\x07\x0e\x1f\x02\x00\x00\x00'
p1851
tp1852
Rp1853
sg50
(dp1854
g152
Nsg153
I00
sg154
g1822
sg155
I00
sg156
Nsg56
L663000713426026496L
sg157
I0
sg158
V<a href="http://example.com" rel="nofollow">CrunchingTime</a>
p1855
sg160
I00
sg161
Nsg64
(dp1856
g163
(lp1857
(dp1858
g39
(lp1859
I0
aI5
asg154
VOTIV
p1860
sasg168
(lp1861
sg170
(lp1862
sg35
(lp1863
(dp1864
g33
Vhttps://t.co/z4oa3dEysN
p1865
sg39
(lp1866
I63
aI86
asg41
Vhttp://growthnumbers.com/OTIV
p1867
sg43
Vgrowthnumbers.com/OTIV
p1868
sasg491
(lp1869
(dp1870
g41
Vhttp://twitter.com/TimeForGrowth/status/663000713426026496/photo/1
p1871
sg43
Vpic.twitter.com/7VCzLsykQh
p1872
sg33
Vhttps://t.co/7VCzLsykQh
p1873
sg500
Vhttps://pbs.twimg.com/media/CTNzotPXAAAUUrc.jpg
p1874
sg68
V663000713329573888
p1875
sg506
(dp1876
g508
(dp1877
g510
I4
sg511
Vfit
p1878
sg513
I4
ssg514
(dp1879
g510
I4
sg511
Vfit
p1880
sg513
I4
ssg517
(dp1881
g510
I4
sg511
Vfit
p1882
sg513
I4
ssg520
(dp1883
g510
I4
sg511
Vcrop
p1884
sg513
I4
sssg39
(lp1885
I87
aI110
asg524
Vphoto
p1886
sg56
L663000713329573888L
sg526
Vhttp://pbs.twimg.com/media/CTNzotPXAAAUUrc.jpg
p1887
sassg181
Nsg182
Nsg183
I0
sg68
V663000713426026496
p1888
sg185
I00
sg186
g1832
sg187
Nsg188
Nsg189
I00
sg90
g1850
sg98
VSat Nov 07 14:31:02 +0000 2015
p1889
sg191
Nsg192
Nsg193
(dp1890
g195
Ven
p1891
sg197
Vrecent
p1892
sssg199
g1890
sg200
Nsg201
Nsg31
g1856
sg202
Nsg203
Nsg110
g1888
sg204
I00
sg205
Nsg206
I0
sg207
Nsbag0
(g4
g5
Ntp1893
Rp1894
(dp1895
g9
I00
sg10
Nsg11
I00
sg12
VSmart traders join https://t.co/uAcamO9vH1 for alerts like this $OTIV +17% https://t.co/qPCeXiynzS $ECOM $ABTL $VRNS $CALA $OSUR $AXGN $FORD
p1896
sg14
Vhttp://biloselhi.com
p1897
sg16
I00
sg17
I00
sg18
Nsg19
g0
(g20
g5
Ntp1898
Rp1899
(dp1900
g24
I00
sg25
I00
sg26
I01
sg27
VFFFFFF
p1901
sg29
L2802272246L
sg30
I00
sg31
(dp1902
g33
(dp1903
g35
(lp1904
(dp1905
g33
Vhttp://t.co/jjWTkVWgFN
p1906
sg39
(lp1907
I0
aI22
asg41
Vhttp://BiloSelhi.com
p1908
sg43
VBiloSelhi.com
p1909
sassg45
(dp1910
g35
(lp1911
(dp1912
g33
Vhttps://t.co/0aFaudDmBY
p1913
sg39
(lp1914
I137
aI160
asg41
Vhttp://biloselhi.com/d.htm
p1915
sg43
Vbiloselhi.com/d.htm
p1916
sasssg48
Vhttps://pbs.twimg.com/profile_images/509778632521154560/DYIdZCfQ_normal.png
p1917
sg50
(dp1918
g52
I00
sg53
I00
sg54
I01
sg55
I00
sg56
L2802272246L
sg57
Vhttps://abs.twimg.com/images/themes/theme13/bg.gif
p1919
sg59
I00
sg60
V333333
p1920
sg62
g1917
sg63
g1901
sg64
g1902
sg65
I11220
sg66
VEEEEEE
p1921
sg68
V2802272246
p1922
sg70
VB2DFDA
p1923
sg72
I72
sg73
I00
sg74
Nsg75
I28395
sg45
VFounder, Bilo Selhi's Stock Alerts. 1,302% return in 13 months. Subscribe today for promo. Follow on Google+ for free trial. DISCLAIMER: https://t.co/0aFaudDmBY
p1924
sg77
I11694
sg78
V \u2193 \u2193 MUST SEE Track record
p1925
sg80
V93A644
p1926
sg82
Vhttp://pbs.twimg.com/profile_images/509778632521154560/DYIdZCfQ_normal.png
p1927
sg84
I00
sg85
I00
sg231
Vhttps://pbs.twimg.com/profile_banners/2802272246/1412893156
p1928
sg86
Vhttp://abs.twimg.com/images/themes/theme13/bg.gif
p1929
sg88
VStocksThatDoubl
p1930
sg90
Ven
p1931
sg92
I00
sg93
I77
sg94
VBilo Selhi
p1932
sg96
I00
sg33
Vhttp://t.co/jjWTkVWgFN
p1933
sg98
VWed Sep 10 18:52:30 +0000 2014
p1934
sg100
I00
sg101
Nsg103
I00
sg104
I00
sg105
I00
ssg106
I00
sg107
g1920
sg108
I11220
sg109
g1921
sg110
g1922
sg111
I00
sg112
I72
sg113
I00
sg114
Nsg115
I28395
sg116
g1924
sg117
I11694
sg118
g1925
sg119
g1926
sg120
g1927
sg121
I00
sg122
I00
sg123
g1923
sg239
g1928
sg124
g1929
sg125
g1930
sg126
g1931
sg127
I00
sg128
I00
sg129
I77
sg130
g1932
sg131
g1933
sg132
g133
(S'\x07\xde\t\n\x124\x1e\x00\x00\x00'
p1935
tp1936
Rp1937
sg137
g1919
sg138
Nsg139
I00
sg140
I00
sg141
I00
sbsg142
Nsg29
L662742446686662656L
sg143
I0
sg144
VNov292014
p1938
sg126
Ven
p1939
sg147
g1899
sg132
g133
(S'\x07\xdf\x0b\x06\x15\x18/\x00\x00\x00'
p1940
tp1941
Rp1942
sg50
(dp1943
g152
Nsg153
I00
sg154
g1896
sg155
I00
sg156
Nsg56
L662742446686662656L
sg157
I0
sg158
V<a href="http://biloselhi.com" rel="nofollow">Nov292014</a>
p1944
sg160
I00
sg161
Nsg64
(dp1945
g163
(lp1946
(dp1947
g39
(lp1948
I64
aI69
asg154
VOTIV
p1949
sa(dp1950
g39
(lp1951
I99
aI104
asg154
VECOM
p1952
sa(dp1953
g39
(lp1954
I105
aI110
asg154
VABTL
p1955
sa(dp1956
g39
(lp1957
I111
aI116
asg154
VVRNS
p1958
sa(dp1959
g39
(lp1960
I117
aI122
asg154
VCALA
p1961
sa(dp1962
g39
(lp1963
I123
aI128
asg154
VOSUR
p1964
sa(dp1965
g39
(lp1966
I129
aI134
asg154
VAXGN
p1967
sa(dp1968
g39
(lp1969
I135
aI140
asg154
VFORD
p1970
sasg168
(lp1971
sg170
(lp1972
sg35
(lp1973
(dp1974
g33
Vhttps://t.co/uAcamO9vH1
p1975
sg39
(lp1976
I19
aI42
asg41
Vhttp://BiloSelhi.com
p1977
sg43
VBiloSelhi.com
p1978
sasg491
(lp1979
(dp1980
g494
L2802272246L
sg495
V581224111302709248
p1981
sg41
Vhttp://twitter.com/StocksThatDoubl/status/581224111302709248/photo/1
p1982
sg43
Vpic.twitter.com/qPCeXiynzS
p1983
sg33
Vhttps://t.co/qPCeXiynzS
p1984
sg500
Vhttps://pbs.twimg.com/media/CBDsP8QWQAAzj8C.png
p1985
sg502
V2802272246
p1986
sg504
L581224111302709248L
sg68
V581224110547681280
p1987
sg506
(dp1988
g508
(dp1989
g510
I703
sg511
Vfit
p1990
sg513
I1024
ssg514
(dp1991
g510
I233
sg511
Vfit
p1992
sg513
I340
ssg517
(dp1993
g510
I412
sg511
Vfit
p1994
sg513
I600
ssg520
(dp1995
g510
I150
sg511
Vcrop
p1996
sg513
I150
sssg39
(lp1997
I75
aI98
asg524
Vphoto
p1998
sg56
L581224110547681280L
sg526
Vhttp://pbs.twimg.com/media/CBDsP8QWQAAzj8C.png
p1999
sassg181
Nsg182
Nsg183
I0
sg68
V662742446686662656
p2000
sg185
I00
sg186
g1918
sg187
Nsg188
Nsg189
I00
sg90
g1939
sg98
VFri Nov 06 21:24:47 +0000 2015
p2001
sg191
Nsg192
Nsg193
(dp2002
g195
Ven
p2003
sg197
Vrecent
p2004
sssg199
g2002
sg200
Nsg201
Nsg31
g1945
sg202
Nsg203
Nsg110
g2000
sg204
I00
sg205
Nsg206
I0
sg207
Nsbag0
(g4
g5
Ntp2005
Rp2006
(dp2007
g9
I00
sg10
Nsg11
I00
sg12
VSmart traders join https://t.co/uAcamNRUPt for alerts like this $OTIV +17% https://t.co/qPCeXiynzS $ECOM $ABTL $VRNS $CALA $OSUR $AXGN $FORD
p2008
sg14
Vhttp://biloselhi.com
p2009
sg16
I00
sg17
I00
sg18
Nsg19
g0
(g20
g5
Ntp2010
Rp2011
(dp2012
g24
I00
sg25
I00
sg26
I01
sg27
VFFFFFF
p2013
sg29
L2802272246L
sg30
I00
sg31
(dp2014
g33
(dp2015
g35
(lp2016
(dp2017
g33
Vhttp://t.co/jjWTkVWgFN
p2018
sg39
(lp2019
I0
aI22
asg41
Vhttp://BiloSelhi.com
p2020
sg43
VBiloSelhi.com
p2021
sassg45
(dp2022
g35
(lp2023
(dp2024
g33
Vhttps://t.co/0aFaudDmBY
p2025
sg39
(lp2026
I137
aI160
asg41
Vhttp://biloselhi.com/d.htm
p2027
sg43
Vbiloselhi.com/d.htm
p2028
sasssg48
Vhttps://pbs.twimg.com/profile_images/509778632521154560/DYIdZCfQ_normal.png
p2029
sg50
(dp2030
g52
I00
sg53
I00
sg54
I01
sg55
I00
sg56
L2802272246L
sg57
Vhttps://abs.twimg.com/images/themes/theme13/bg.gif
p2031
sg59
I00
sg60
V333333
p2032
sg62
g2029
sg63
g2013
sg64
g2014
sg65
I11220
sg66
VEEEEEE
p2033
sg68
V2802272246
p2034
sg70
VB2DFDA
p2035
sg72
I72
sg73
I00
sg74
Nsg75
I28395
sg45
VFounder, Bilo Selhi's Stock Alerts. 1,302% return in 13 months. Subscribe today for promo. Follow on Google+ for free trial. DISCLAIMER: https://t.co/0aFaudDmBY
p2036
sg77
I11694
sg78
V \u2193 \u2193 MUST SEE Track record
p2037
sg80
V93A644
p2038
sg82
Vhttp://pbs.twimg.com/profile_images/509778632521154560/DYIdZCfQ_normal.png
p2039
sg84
I00
sg85
I00
sg231
Vhttps://pbs.twimg.com/profile_banners/2802272246/1412893156
p2040
sg86
Vhttp://abs.twimg.com/images/themes/theme13/bg.gif
p2041
sg88
VStocksThatDoubl
p2042
sg90
Ven
p2043
sg92
I00
sg93
I77
sg94
VBilo Selhi
p2044
sg96
I00
sg33
Vhttp://t.co/jjWTkVWgFN
p2045
sg98
VWed Sep 10 18:52:30 +0000 2014
p2046
sg100
I00
sg101
Nsg103
I00
sg104
I00
sg105
I00
ssg106
I00
sg107
g2032
sg108
I11220
sg109
g2033
sg110
g2034
sg111
I00
sg112
I72
sg113
I00
sg114
Nsg115
I28395
sg116
g2036
sg117
I11694
sg118
g2037
sg119
g2038
sg120
g2039
sg121
I00
sg122
I00
sg123
g2035
sg239
g2040
sg124
g2041
sg125
g2042
sg126
g2043
sg127
I00
sg128
I00
sg129
I77
sg130
g2044
sg131
g2045
sg132
g133
(S'\x07\xde\t\n\x124\x1e\x00\x00\x00'
p2047
tp2048
Rp2049
sg137
g2031
sg138
Nsg139
I00
sg140
I00
sg141
I00
sbsg142
Nsg29
L662676849483497472L
sg143
I0
sg144
VNov292014
p2050
sg126
Ven
p2051
sg147
g2011
sg132
g133
(S'\x07\xdf\x0b\x06\x11\x04\x07\x00\x00\x00'
p2052
tp2053
Rp2054
sg50
(dp2055
g152
Nsg153
I00
sg154
g2008
sg155
I00
sg156
Nsg56
L662676849483497472L
sg157
I0
sg158
V<a href="http://biloselhi.com" rel="nofollow">Nov292014</a>
p2056
sg160
I00
sg161
Nsg64
(dp2057
g163
(lp2058
(dp2059
g39
(lp2060
I64
aI69
asg154
VOTIV
p2061
sa(dp2062
g39
(lp2063
I99
aI104
asg154
VECOM
p2064
sa(dp2065
g39
(lp2066
I105
aI110
asg154
VABTL
p2067
sa(dp2068
g39
(lp2069
I111
aI116
asg154
VVRNS
p2070
sa(dp2071
g39
(lp2072
I117
aI122
asg154
VCALA
p2073
sa(dp2074
g39
(lp2075
I123
aI128
asg154
VOSUR
p2076
sa(dp2077
g39
(lp2078
I129
aI134
asg154
VAXGN
p2079
sa(dp2080
g39
(lp2081
I135
aI140
asg154
VFORD
p2082
sasg168
(lp2083
sg170
(lp2084
sg35
(lp2085
(dp2086
g33
Vhttps://t.co/uAcamNRUPt
p2087
sg39
(lp2088
I19
aI42
asg41
Vhttp://BiloSelhi.com
p2089
sg43
VBiloSelhi.com
p2090
sasg491
(lp2091
(dp2092
g494
L2802272246L
sg495
V581224111302709248
p2093
sg41
Vhttp://twitter.com/StocksThatDoubl/status/581224111302709248/photo/1
p2094
sg43
Vpic.twitter.com/qPCeXiynzS
p2095
sg33
Vhttps://t.co/qPCeXiynzS
p2096
sg500
Vhttps://pbs.twimg.com/media/CBDsP8QWQAAzj8C.png
p2097
sg502
V2802272246
p2098
sg504
L581224111302709248L
sg68
V581224110547681280
p2099
sg506
(dp2100
g508
(dp2101
g510
I703
sg511
Vfit
p2102
sg513
I1024
ssg514
(dp2103
g510
I233
sg511
Vfit
p2104
sg513
I340
ssg517
(dp2105
g510
I412
sg511
Vfit
p2106
sg513
I600
ssg520
(dp2107
g510
I150
sg511
Vcrop
p2108
sg513
I150
sssg39
(lp2109
I75
aI98
asg524
Vphoto
p2110
sg56
L581224110547681280L
sg526
Vhttp://pbs.twimg.com/media/CBDsP8QWQAAzj8C.png
p2111
sassg181
Nsg182
Nsg183
I0
sg68
V662676849483497472
p2112
sg185
I00
sg186
g2030
sg187
Nsg188
Nsg189
I00
sg90
g2051
sg98
VFri Nov 06 17:04:07 +0000 2015
p2113
sg191
Nsg192
Nsg193
(dp2114
g195
Ven
p2115
sg197
Vrecent
p2116
sssg199
g2114
sg200
Nsg201
Nsg31
g2057
sg202
Nsg203
Nsg110
g2112
sg204
I00
sg205
Nsg206
I0
sg207
Nsbag0
(g4
g5
Ntp2117
Rp2118
(dp2119
g9
I00
sg10
Nsg11
I00
sg12
VSmart traders join https://t.co/uAcamNRUPt for alerts like this $OTIV +17% https://t.co/qPCeXiynzS $DWSN $VSCP $TANH $OME $GENE $UTSI $CCRN
p2120
sg14
Vhttp://biloselhi.com
p2121
sg16
I00
sg17
I00
sg18
Nsg19
g0
(g20
g5
Ntp2122
Rp2123
(dp2124
g24
I00
sg25
I00
sg26
I01
sg27
VFFFFFF
p2125
sg29
L2802272246L
sg30
I00
sg31
(dp2126
g33
(dp2127
g35
(lp2128
(dp2129
g33
Vhttp://t.co/jjWTkVWgFN
p2130
sg39
(lp2131
I0
aI22
asg41
Vhttp://BiloSelhi.com
p2132
sg43
VBiloSelhi.com
p2133
sassg45
(dp2134
g35
(lp2135
(dp2136
g33
Vhttps://t.co/0aFaudDmBY
p2137
sg39
(lp2138
I137
aI160
asg41
Vhttp://biloselhi.com/d.htm
p2139
sg43
Vbiloselhi.com/d.htm
p2140
sasssg48
Vhttps://pbs.twimg.com/profile_images/509778632521154560/DYIdZCfQ_normal.png
p2141
sg50
(dp2142
g52
I00
sg53
I00
sg54
I01
sg55
I00
sg56
L2802272246L
sg57
Vhttps://abs.twimg.com/images/themes/theme13/bg.gif
p2143
sg59
I00
sg60
V333333
p2144
sg62
g2141
sg63
g2125
sg64
g2126
sg65
I11220
sg66
VEEEEEE
p2145
sg68
V2802272246
p2146
sg70
VB2DFDA
p2147
sg72
I72
sg73
I00
sg74
Nsg75
I28395
sg45
VFounder, Bilo Selhi's Stock Alerts. 1,302% return in 13 months. Subscribe today for promo. Follow on Google+ for free trial. DISCLAIMER: https://t.co/0aFaudDmBY
p2148
sg77
I11694
sg78
V \u2193 \u2193 MUST SEE Track record
p2149
sg80
V93A644
p2150
sg82
Vhttp://pbs.twimg.com/profile_images/509778632521154560/DYIdZCfQ_normal.png
p2151
sg84
I00
sg85
I00
sg231
Vhttps://pbs.twimg.com/profile_banners/2802272246/1412893156
p2152
sg86
Vhttp://abs.twimg.com/images/themes/theme13/bg.gif
p2153
sg88
VStocksThatDoubl
p2154
sg90
Ven
p2155
sg92
I00
sg93
I77
sg94
VBilo Selhi
p2156
sg96
I00
sg33
Vhttp://t.co/jjWTkVWgFN
p2157
sg98
VWed Sep 10 18:52:30 +0000 2014
p2158
sg100
I00
sg101
Nsg103
I00
sg104
I00
sg105
I00
ssg106
I00
sg107
g2144
sg108
I11220
sg109
g2145
sg110
g2146
sg111
I00
sg112
I72
sg113
I00
sg114
Nsg115
I28395
sg116
g2148
sg117
I11694
sg118
g2149
sg119
g2150
sg120
g2151
sg121
I00
sg122
I00
sg123
g2147
sg239
g2152
sg124
g2153
sg125
g2154
sg126
g2155
sg127
I00
sg128
I00
sg129
I77
sg130
g2156
sg131
g2157
sg132
g133
(S'\x07\xde\t\n\x124\x1e\x00\x00\x00'
p2159
tp2160
Rp2161
sg137
g2143
sg138
Nsg139
I00
sg140
I00
sg141
I00
sbsg142
Nsg29
L662611297683525632L
sg143
I0
sg144
VNov292014
p2162
sg126
Ven
p2163
sg147
g2123
sg132
g133
(S'\x07\xdf\x0b\x06\x0c+&\x00\x00\x00'
p2164
tp2165
Rp2166
sg50
(dp2167
g152
Nsg153
I00
sg154
g2120
sg155
I00
sg156
Nsg56
L662611297683525632L
sg157
I0
sg158
V<a href="http://biloselhi.com" rel="nofollow">Nov292014</a>
p2168
sg160
I00
sg161
Nsg64
(dp2169
g163
(lp2170
(dp2171
g39
(lp2172
I64
aI69
asg154
VOTIV
p2173
sa(dp2174
g39
(lp2175
I99
aI104
asg154
VDWSN
p2176
sa(dp2177
g39
(lp2178
I105
aI110
asg154
VVSCP
p2179
sa(dp2180
g39
(lp2181
I111
aI116
asg154
VTANH
p2182
sa(dp2183
g39
(lp2184
I117
aI121
asg154
VOME
p2185
sa(dp2186
g39
(lp2187
I122
aI127
asg154
VGENE
p2188
sa(dp2189
g39
(lp2190
I128
aI133
asg154
VUTSI
p2191
sa(dp2192
g39
(lp2193
I134
aI139
asg154
VCCRN
p2194
sasg168
(lp2195
sg170
(lp2196
sg35
(lp2197
(dp2198
g33
Vhttps://t.co/uAcamNRUPt
p2199
sg39
(lp2200
I19
aI42
asg41
Vhttp://BiloSelhi.com
p2201
sg43
VBiloSelhi.com
p2202
sasg491
(lp2203
(dp2204
g494
L2802272246L
sg495
V581224111302709248
p2205
sg41
Vhttp://twitter.com/StocksThatDoubl/status/581224111302709248/photo/1
p2206
sg43
Vpic.twitter.com/qPCeXiynzS
p2207
sg33
Vhttps://t.co/qPCeXiynzS
p2208
sg500
Vhttps://pbs.twimg.com/media/CBDsP8QWQAAzj8C.png
p2209
sg502
V2802272246
p2210
sg504
L581224111302709248L
sg68
V581224110547681280
p2211
sg506
(dp2212
g508
(dp2213
g510
I703
sg511
Vfit
p2214
sg513
I1024
ssg514
(dp2215
g510
I233
sg511
Vfit
p2216
sg513
I340
ssg517
(dp2217
g510
I412
sg511
Vfit
p2218
sg513
I600
ssg520
(dp2219
g510
I150
sg511
Vcrop
p2220
sg513
I150
sssg39
(lp2221
I75
aI98
asg524
Vphoto
p2222
sg56
L581224110547681280L
sg526
Vhttp://pbs.twimg.com/media/CBDsP8QWQAAzj8C.png
p2223
sassg181
Nsg182
Nsg183
I0
sg68
V662611297683525632
p2224
sg185
I00
sg186
g2142
sg187
Nsg188
Nsg189
I00
sg90
g2163
sg98
VFri Nov 06 12:43:38 +0000 2015
p2225
sg191
Nsg192
Nsg193
(dp2226
g195
Ven
p2227
sg197
Vrecent
p2228
sssg199
g2226
sg200
Nsg201
Nsg31
g2169
sg202
Nsg203
Nsg110
g2224
sg204
I00
sg205
Nsg206
I0
sg207
Nsbag0
(g4
g5
Ntp2229
Rp2230
(dp2231
g9
I00
sg10
Nsg11
I00
sg12
VSmart traders join https://t.co/uAcamNRUPt for alerts like this $OTIV +17% https://t.co/qPCeXiynzS $DWSN $VSCP $TANH $OME $GENE $UTSI $CCRN
p2232
sg14
Vhttp://biloselhi.com
p2233
sg16
I00
sg17
I00
sg18
Nsg19
g0
(g20
g5
Ntp2234
Rp2235
(dp2236
g24
I00
sg25
I00
sg26
I01
sg27
VFFFFFF
p2237
sg29
L2802272246L
sg30
I00
sg31
(dp2238
g33
(dp2239
g35
(lp2240
(dp2241
g33
Vhttp://t.co/jjWTkVWgFN
p2242
sg39
(lp2243
I0
aI22
asg41
Vhttp://BiloSelhi.com
p2244
sg43
VBiloSelhi.com
p2245
sassg45
(dp2246
g35
(lp2247
(dp2248
g33
Vhttps://t.co/0aFaudDmBY
p2249
sg39
(lp2250
I137
aI160
asg41
Vhttp://biloselhi.com/d.htm
p2251
sg43
Vbiloselhi.com/d.htm
p2252
sasssg48
Vhttps://pbs.twimg.com/profile_images/509778632521154560/DYIdZCfQ_normal.png
p2253
sg50
(dp2254
g52
I00
sg53
I00
sg54
I01
sg55
I00
sg56
L2802272246L
sg57
Vhttps://abs.twimg.com/images/themes/theme13/bg.gif
p2255
sg59
I00
sg60
V333333
p2256
sg62
g2253
sg63
g2237
sg64
g2238
sg65
I11220
sg66
VEEEEEE
p2257
sg68
V2802272246
p2258
sg70
VB2DFDA
p2259
sg72
I72
sg73
I00
sg74
Nsg75
I28395
sg45
VFounder, Bilo Selhi's Stock Alerts. 1,302% return in 13 months. Subscribe today for promo. Follow on Google+ for free trial. DISCLAIMER: https://t.co/0aFaudDmBY
p2260
sg77
I11694
sg78
V \u2193 \u2193 MUST SEE Track record
p2261
sg80
V93A644
p2262
sg82
Vhttp://pbs.twimg.com/profile_images/509778632521154560/DYIdZCfQ_normal.png
p2263
sg84
I00
sg85
I00
sg231
Vhttps://pbs.twimg.com/profile_banners/2802272246/1412893156
p2264
sg86
Vhttp://abs.twimg.com/images/themes/theme13/bg.gif
p2265
sg88
VStocksThatDoubl
p2266
sg90
Ven
p2267
sg92
I00
sg93
I77
sg94
VBilo Selhi
p2268
sg96
I00
sg33
Vhttp://t.co/jjWTkVWgFN
p2269
sg98
VWed Sep 10 18:52:30 +0000 2014
p2270
sg100
I00
sg101
Nsg103
I00
sg104
I00
sg105
I00
ssg106
I00
sg107
g2256
sg108
I11220
sg109
g2257
sg110
g2258
sg111
I00
sg112
I72
sg113
I00
sg114
Nsg115
I28395
sg116
g2260
sg117
I11694
sg118
g2261
sg119
g2262
sg120
g2263
sg121
I00
sg122
I00
sg123
g2259
sg239
g2264
sg124
g2265
sg125
g2266
sg126
g2267
sg127
I00
sg128
I00
sg129
I77
sg130
g2268
sg131
g2269
sg132
g133
(S'\x07\xde\t\n\x124\x1e\x00\x00\x00'
p2271
tp2272
Rp2273
sg137
g2255
sg138
Nsg139
I00
sg140
I00
sg141
I00
sbsg142
Nsg29
L662545747389366272L
sg143
I0
sg144
VNov292014
p2274
sg126
Ven
p2275
sg147
g2235
sg132
g133
(S'\x07\xdf\x0b\x06\x08\x17\n\x00\x00\x00'
p2276
tp2277
Rp2278
sg50
(dp2279
g152
Nsg153
I00
sg154
g2232
sg155
I00
sg156
Nsg56
L662545747389366272L
sg157
I0
sg158
V<a href="http://biloselhi.com" rel="nofollow">Nov292014</a>
p2280
sg160
I00
sg161
Nsg64
(dp2281
g163
(lp2282
(dp2283
g39
(lp2284
I64
aI69
asg154
VOTIV
p2285
sa(dp2286
g39
(lp2287
I99
aI104
asg154
VDWSN
p2288
sa(dp2289
g39
(lp2290
I105
aI110
asg154
VVSCP
p2291
sa(dp2292
g39
(lp2293
I111
aI116
asg154
VTANH
p2294
sa(dp2295
g39
(lp2296
I117
aI121
asg154
VOME
p2297
sa(dp2298
g39
(lp2299
I122
aI127
asg154
VGENE
p2300
sa(dp2301
g39
(lp2302
I128
aI133
asg154
VUTSI
p2303
sa(dp2304
g39
(lp2305
I134
aI139
asg154
VCCRN
p2306
sasg168
(lp2307
sg170
(lp2308
sg35
(lp2309
(dp2310
g33
Vhttps://t.co/uAcamNRUPt
p2311
sg39
(lp2312
I19
aI42
asg41
Vhttp://BiloSelhi.com
p2313
sg43
VBiloSelhi.com
p2314
sasg491
(lp2315
(dp2316
g494
L2802272246L
sg495
V581224111302709248
p2317
sg41
Vhttp://twitter.com/StocksThatDoubl/status/581224111302709248/photo/1
p2318
sg43
Vpic.twitter.com/qPCeXiynzS
p2319
sg33
Vhttps://t.co/qPCeXiynzS
p2320
sg500
Vhttps://pbs.twimg.com/media/CBDsP8QWQAAzj8C.png
p2321
sg502
V2802272246
p2322
sg504
L581224111302709248L
sg68
V581224110547681280
p2323
sg506
(dp2324
g508
(dp2325
g510
I703
sg511
Vfit
p2326
sg513
I1024
ssg514
(dp2327
g510
I233
sg511
Vfit
p2328
sg513
I340
ssg517
(dp2329
g510
I412
sg511
Vfit
p2330
sg513
I600
ssg520
(dp2331
g510
I150
sg511
Vcrop
p2332
sg513
I150
sssg39
(lp2333
I75
aI98
asg524
Vphoto
p2334
sg56
L581224110547681280L
sg526
Vhttp://pbs.twimg.com/media/CBDsP8QWQAAzj8C.png
p2335
sassg181
Nsg182
Nsg183
I0
sg68
V662545747389366272
p2336
sg185
I00
sg186
g2254
sg187
Nsg188
Nsg189
I00
sg90
g2275
sg98
VFri Nov 06 08:23:10 +0000 2015
p2337
sg191
Nsg192
Nsg193
(dp2338
g195
Ven
p2339
sg197
Vrecent
p2340
sssg199
g2338
sg200
Nsg201
Nsg31
g2281
sg202
Nsg203
Nsg110
g2336
sg204
I00
sg205
Nsg206
I0
sg207
Nsbag0
(g4
g5
Ntp2341
Rp2342
(dp2343
g9
I00
sg10
Nsg11
I00
sg12
VSmart traders join https://t.co/uAcamNRUPt for alerts like this $OTIV +17% https://t.co/qPCeXiynzS $DWSN $VSCP $TANH $OME $GENE $UTSI $CCRN
p2344
sg14
Vhttp://biloselhi.com
p2345
sg16
I00
sg17
I00
sg18
Nsg19
g0
(g20
g5
Ntp2346
Rp2347
(dp2348
g24
I00
sg25
I00
sg26
I01
sg27
VFFFFFF
p2349
sg29
L2802272246L
sg30
I00
sg31
(dp2350
g33
(dp2351
g35
(lp2352
(dp2353
g33
Vhttp://t.co/jjWTkVWgFN
p2354
sg39
(lp2355
I0
aI22
asg41
Vhttp://BiloSelhi.com
p2356
sg43
VBiloSelhi.com
p2357
sassg45
(dp2358
g35
(lp2359
(dp2360
g33
Vhttps://t.co/0aFaudDmBY
p2361
sg39
(lp2362
I137
aI160
asg41
Vhttp://biloselhi.com/d.htm
p2363
sg43
Vbiloselhi.com/d.htm
p2364
sasssg48
Vhttps://pbs.twimg.com/profile_images/509778632521154560/DYIdZCfQ_normal.png
p2365
sg50
(dp2366
g52
I00
sg53
I00
sg54
I01
sg55
I00
sg56
L2802272246L
sg57
Vhttps://abs.twimg.com/images/themes/theme13/bg.gif
p2367
sg59
I00
sg60
V333333
p2368
sg62
g2365
sg63
g2349
sg64
g2350
sg65
I11220
sg66
VEEEEEE
p2369
sg68
V2802272246
p2370
sg70
VB2DFDA
p2371
sg72
I72
sg73
I00
sg74
Nsg75
I28395
sg45
VFounder, Bilo Selhi's Stock Alerts. 1,302% return in 13 months. Subscribe today for promo. Follow on Google+ for free trial. DISCLAIMER: https://t.co/0aFaudDmBY
p2372
sg77
I11694
sg78
V \u2193 \u2193 MUST SEE Track record
p2373
sg80
V93A644
p2374
sg82
Vhttp://pbs.twimg.com/profile_images/509778632521154560/DYIdZCfQ_normal.png
p2375
sg84
I00
sg85
I00
sg231
Vhttps://pbs.twimg.com/profile_banners/2802272246/1412893156
p2376
sg86
Vhttp://abs.twimg.com/images/themes/theme13/bg.gif
p2377
sg88
VStocksThatDoubl
p2378
sg90
Ven
p2379
sg92
I00
sg93
I77
sg94
VBilo Selhi
p2380
sg96
I00
sg33
Vhttp://t.co/jjWTkVWgFN
p2381
sg98
VWed Sep 10 18:52:30 +0000 2014
p2382
sg100
I00
sg101
Nsg103
I00
sg104
I00
sg105
I00
ssg106
I00
sg107
g2368
sg108
I11220
sg109
g2369
sg110
g2370
sg111
I00
sg112
I72
sg113
I00
sg114
Nsg115
I28395
sg116
g2372
sg117
I11694
sg118
g2373
sg119
g2374
sg120
g2375
sg121
I00
sg122
I00
sg123
g2371
sg239
g2376
sg124
g2377
sg125
g2378
sg126
g2379
sg127
I00
sg128
I00
sg129
I77
sg130
g2380
sg131
g2381
sg132
g133
(S'\x07\xde\t\n\x124\x1e\x00\x00\x00'
p2383
tp2384
Rp2385
sg137
g2367
sg138
Nsg139
I00
sg140
I00
sg141
I00
sbsg142
Nsg29
L662480247653326848L
sg143
I0
sg144
VNov292014
p2386
sg126
Ven
p2387
sg147
g2347
sg132
g133
(S'\x07\xdf\x0b\x06\x04\x025\x00\x00\x00'
p2388
tp2389
Rp2390
sg50
(dp2391
g152
Nsg153
I00
sg154
g2344
sg155
I00
sg156
Nsg56
L662480247653326848L
sg157
I0
sg158
V<a href="http://biloselhi.com" rel="nofollow">Nov292014</a>
p2392
sg160
I00
sg161
Nsg64
(dp2393
g163
(lp2394
(dp2395
g39
(lp2396
I64
aI69
asg154
VOTIV
p2397
sa(dp2398
g39
(lp2399
I99
aI104
asg154
VDWSN
p2400
sa(dp2401
g39
(lp2402
I105
aI110
asg154
VVSCP
p2403
sa(dp2404
g39
(lp2405
I111
aI116
asg154
VTANH
p2406
sa(dp2407
g39
(lp2408
I117
aI121
asg154
VOME
p2409
sa(dp2410
g39
(lp2411
I122
aI127
asg154
VGENE
p2412
sa(dp2413
g39
(lp2414
I128
aI133
asg154
VUTSI
p2415
sa(dp2416
g39
(lp2417
I134
aI139
asg154
VCCRN
p2418
sasg168
(lp2419
sg170
(lp2420
sg35
(lp2421
(dp2422
g33
Vhttps://t.co/uAcamNRUPt
p2423
sg39
(lp2424
I19
aI42
asg41
Vhttp://BiloSelhi.com
p2425
sg43
VBiloSelhi.com
p2426
sasg491
(lp2427
(dp2428
g494
L2802272246L
sg495
V581224111302709248
p2429
sg41
Vhttp://twitter.com/StocksThatDoubl/status/581224111302709248/photo/1
p2430
sg43
Vpic.twitter.com/qPCeXiynzS
p2431
sg33
Vhttps://t.co/qPCeXiynzS
p2432
sg500
Vhttps://pbs.twimg.com/media/CBDsP8QWQAAzj8C.png
p2433
sg502
V2802272246
p2434
sg504
L581224111302709248L
sg68
V581224110547681280
p2435
sg506
(dp2436
g508
(dp2437
g510
I703
sg511
Vfit
p2438
sg513
I1024
ssg514
(dp2439
g510
I233
sg511
Vfit
p2440
sg513
I340
ssg517
(dp2441
g510
I412
sg511
Vfit
p2442
sg513
I600
ssg520
(dp2443
g510
I150
sg511
Vcrop
p2444
sg513
I150
sssg39
(lp2445
I75
aI98
asg524
Vphoto
p2446
sg56
L581224110547681280L
sg526
Vhttp://pbs.twimg.com/media/CBDsP8QWQAAzj8C.png
p2447
sassg181
Nsg182
Nsg183
I0
sg68
V662480247653326848
p2448
sg185
I00
sg186
g2366
sg187
Nsg188
Nsg189
I00
sg90
g2387
sg98
VFri Nov 06 04:02:53 +0000 2015
p2449
sg191
Nsg192
Nsg193
(dp2450
g195
Ven
p2451
sg197
Vrecent
p2452
sssg199
g2450
sg200
Nsg201
Nsg31
g2393
sg202
Nsg203
Nsg110
g2448
sg204
I00
sg205
Nsg206
I0
sg207
Nsbag0
(g4
g5
Ntp2453
Rp2454
(dp2455
g9
I00
sg10
Nsg11
I00
sg12
VSmart traders join https://t.co/uAcamNRUPt for alerts like this $OTIV +17% https://t.co/qPCeXiynzS $DWSN $VSCP $TANH $OME $GENE $UTSI $CCRN
p2456
sg14
Vhttp://biloselhi.com
p2457
sg16
I00
sg17
I00
sg18
Nsg19
g0
(g20
g5
Ntp2458
Rp2459
(dp2460
g24
I00
sg25
I00
sg26
I01
sg27
VFFFFFF
p2461
sg29
L2802272246L
sg30
I00
sg31
(dp2462
g33
(dp2463
g35
(lp2464
(dp2465
g33
Vhttp://t.co/jjWTkVWgFN
p2466
sg39
(lp2467
I0
aI22
asg41
Vhttp://BiloSelhi.com
p2468
sg43
VBiloSelhi.com
p2469
sassg45
(dp2470
g35
(lp2471
(dp2472
g33
Vhttps://t.co/0aFaudDmBY
p2473
sg39
(lp2474
I137
aI160
asg41
Vhttp://biloselhi.com/d.htm
p2475
sg43
Vbiloselhi.com/d.htm
p2476
sasssg48
Vhttps://pbs.twimg.com/profile_images/509778632521154560/DYIdZCfQ_normal.png
p2477
sg50
(dp2478
g52
I00
sg53
I00
sg54
I01
sg55
I00
sg56
L2802272246L
sg57
Vhttps://abs.twimg.com/images/themes/theme13/bg.gif
p2479
sg59
I00
sg60
V333333
p2480
sg62
g2477
sg63
g2461
sg64
g2462
sg65
I11220
sg66
VEEEEEE
p2481
sg68
V2802272246
p2482
sg70
VB2DFDA
p2483
sg72
I72
sg73
I00
sg74
Nsg75
I28395
sg45
VFounder, Bilo Selhi's Stock Alerts. 1,302% return in 13 months. Subscribe today for promo. Follow on Google+ for free trial. DISCLAIMER: https://t.co/0aFaudDmBY
p2484
sg77
I11694
sg78
V \u2193 \u2193 MUST SEE Track record
p2485
sg80
V93A644
p2486
sg82
Vhttp://pbs.twimg.com/profile_images/509778632521154560/DYIdZCfQ_normal.png
p2487
sg84
I00
sg85
I00
sg231
Vhttps://pbs.twimg.com/profile_banners/2802272246/1412893156
p2488
sg86
Vhttp://abs.twimg.com/images/themes/theme13/bg.gif
p2489
sg88
VStocksThatDoubl
p2490
sg90
Ven
p2491
sg92
I00
sg93
I77
sg94
VBilo Selhi
p2492
sg96
I00
sg33
Vhttp://t.co/jjWTkVWgFN
p2493
sg98
VWed Sep 10 18:52:30 +0000 2014
p2494
sg100
I00
sg101
Nsg103
I00
sg104
I00
sg105
I00
ssg106
I00
sg107
g2480
sg108
I11220
sg109
g2481
sg110
g2482
sg111
I00
sg112
I72
sg113
I00
sg114
Nsg115
I28395
sg116
g2484
sg117
I11694
sg118
g2485
sg119
g2486
sg120
g2487
sg121
I00
sg122
I00
sg123
g2483
sg239
g2488
sg124
g2489
sg125
g2490
sg126
g2491
sg127
I00
sg128
I00
sg129
I77
sg130
g2492
sg131
g2493
sg132
g133
(S'\x07\xde\t\n\x124\x1e\x00\x00\x00'
p2495
tp2496
Rp2497
sg137
g2479
sg138
Nsg139
I00
sg140
I00
sg141
I00
sbsg142
Nsg29
L662414703587680256L
sg143
I0
sg144
VNov292014
p2498
sg126
Ven
p2499
sg147
g2459
sg132
g133
(S'\x07\xdf\x0b\x05\x17*\x1b\x00\x00\x00'
p2500
tp2501
Rp2502
sg50
(dp2503
g152
Nsg153
I00
sg154
g2456
sg155
I00
sg156
Nsg56
L662414703587680256L
sg157
I0
sg158
V<a href="http://biloselhi.com" rel="nofollow">Nov292014</a>
p2504
sg160
I00
sg161
Nsg64
(dp2505
g163
(lp2506
(dp2507
g39
(lp2508
I64
aI69
asg154
VOTIV
p2509
sa(dp2510
g39
(lp2511
I99
aI104
asg154
VDWSN
p2512
sa(dp2513
g39
(lp2514
I105
aI110
asg154
VVSCP
p2515
sa(dp2516
g39
(lp2517
I111
aI116
asg154
VTANH
p2518
sa(dp2519
g39
(lp2520
I117
aI121
asg154
VOME
p2521
sa(dp2522
g39
(lp2523
I122
aI127
asg154
VGENE
p2524
sa(dp2525
g39
(lp2526
I128
aI133
asg154
VUTSI
p2527
sa(dp2528
g39
(lp2529
I134
aI139
asg154
VCCRN
p2530
sasg168
(lp2531
sg170
(lp2532
sg35
(lp2533
(dp2534
g33
Vhttps://t.co/uAcamNRUPt
p2535
sg39
(lp2536
I19
aI42
asg41
Vhttp://BiloSelhi.com
p2537
sg43
VBiloSelhi.com
p2538
sasg491
(lp2539
(dp2540
g494
L2802272246L
sg495
V581224111302709248
p2541
sg41
Vhttp://twitter.com/StocksThatDoubl/status/581224111302709248/photo/1
p2542
sg43
Vpic.twitter.com/qPCeXiynzS
p2543
sg33
Vhttps://t.co/qPCeXiynzS
p2544
sg500
Vhttps://pbs.twimg.com/media/CBDsP8QWQAAzj8C.png
p2545
sg502
V2802272246
p2546
sg504
L581224111302709248L
sg68
V581224110547681280
p2547
sg506
(dp2548
g508
(dp2549
g510
I703
sg511
Vfit
p2550
sg513
I1024
ssg514
(dp2551
g510
I233
sg511
Vfit
p2552
sg513
I340
ssg517
(dp2553
g510
I412
sg511
Vfit
p2554
sg513
I600
ssg520
(dp2555
g510
I150
sg511
Vcrop
p2556
sg513
I150
sssg39
(lp2557
I75
aI98
asg524
Vphoto
p2558
sg56
L581224110547681280L
sg526
Vhttp://pbs.twimg.com/media/CBDsP8QWQAAzj8C.png
p2559
sassg181
Nsg182
Nsg183
I0
sg68
V662414703587680256
p2560
sg185
I00
sg186
g2478
sg187
Nsg188
Nsg189
I00
sg90
g2499
sg98
VThu Nov 05 23:42:27 +0000 2015
p2561
sg191
Nsg192
Nsg193
(dp2562
g195
Ven
p2563
sg197
Vrecent
p2564
sssg199
g2562
sg200
Nsg201
Nsg31
g2505
sg202
Nsg203
Nsg110
g2560
sg204
I00
sg205
Nsg206
I0
sg207
Nsbag0
(g4
g5
Ntp2565
Rp2566
(dp2567
g9
I00
sg10
Nsg11
I00
sg12
VSmart traders join https://t.co/uAcamNRUPt for alerts like this $OTIV +17% https://t.co/qPCeXiynzS $DWSN $VSCP $TANH $OME $GENE $UTSI $CCRN
p2568
sg14
Vhttp://biloselhi.com
p2569
sg16
I00
sg17
I00
sg18
Nsg19
g0
(g20
g5
Ntp2570
Rp2571
(dp2572
g24
I00
sg25
I00
sg26
I01
sg27
VFFFFFF
p2573
sg29
L2802272246L
sg30
I00
sg31
(dp2574
g33
(dp2575
g35
(lp2576
(dp2577
g33
Vhttp://t.co/jjWTkVWgFN
p2578
sg39
(lp2579
I0
aI22
asg41
Vhttp://BiloSelhi.com
p2580
sg43
VBiloSelhi.com
p2581
sassg45
(dp2582
g35
(lp2583
(dp2584
g33
Vhttps://t.co/0aFaudDmBY
p2585
sg39
(lp2586
I137
aI160
asg41
Vhttp://biloselhi.com/d.htm
p2587
sg43
Vbiloselhi.com/d.htm
p2588
sasssg48
Vhttps://pbs.twimg.com/profile_images/509778632521154560/DYIdZCfQ_normal.png
p2589
sg50
(dp2590
g52
I00
sg53
I00
sg54
I01
sg55
I00
sg56
L2802272246L
sg57
Vhttps://abs.twimg.com/images/themes/theme13/bg.gif
p2591
sg59
I00
sg60
V333333
p2592
sg62
g2589
sg63
g2573
sg64
g2574
sg65
I11220
sg66
VEEEEEE
p2593
sg68
V2802272246
p2594
sg70
VB2DFDA
p2595
sg72
I72
sg73
I00
sg74
Nsg75
I28395
sg45
VFounder, Bilo Selhi's Stock Alerts. 1,302% return in 13 months. Subscribe today for promo. Follow on Google+ for free trial. DISCLAIMER: https://t.co/0aFaudDmBY
p2596
sg77
I11694
sg78
V \u2193 \u2193 MUST SEE Track record
p2597
sg80
V93A644
p2598
sg82
Vhttp://pbs.twimg.com/profile_images/509778632521154560/DYIdZCfQ_normal.png
p2599
sg84
I00
sg85
I00
sg231
Vhttps://pbs.twimg.com/profile_banners/2802272246/1412893156
p2600
sg86
Vhttp://abs.twimg.com/images/themes/theme13/bg.gif
p2601
sg88
VStocksThatDoubl
p2602
sg90
Ven
p2603
sg92
I00
sg93
I77
sg94
VBilo Selhi
p2604
sg96
I00
sg33
Vhttp://t.co/jjWTkVWgFN
p2605
sg98
VWed Sep 10 18:52:30 +0000 2014
p2606
sg100
I00
sg101
Nsg103
I00
sg104
I00
sg105
I00
ssg106
I00
sg107
g2592
sg108
I11220
sg109
g2593
sg110
g2594
sg111
I00
sg112
I72
sg113
I00
sg114
Nsg115
I28395
sg116
g2596
sg117
I11694
sg118
g2597
sg119
g2598
sg120
g2599
sg121
I00
sg122
I00
sg123
g2595
sg239
g2600
sg124
g2601
sg125
g2602
sg126
g2603
sg127
I00
sg128
I00
sg129
I77
sg130
g2604
sg131
g2605
sg132
g133
(S'\x07\xde\t\n\x124\x1e\x00\x00\x00'
p2607
tp2608
Rp2609
sg137
g2591
sg138
Nsg139
I00
sg140
I00
sg141
I00
sbsg142
Nsg29
L662349152119037952L
sg143
I0
sg144
VNov292014
p2610
sg126
Ven
p2611
sg147
g2571
sg132
g133
(S'\x07\xdf\x0b\x05\x13\x15:\x00\x00\x00'
p2612
tp2613
Rp2614
sg50
(dp2615
g152
Nsg153
I00
sg154
g2568
sg155
I00
sg156
Nsg56
L662349152119037952L
sg157
I0
sg158
V<a href="http://biloselhi.com" rel="nofollow">Nov292014</a>
p2616
sg160
I00
sg161
Nsg64
(dp2617
g163
(lp2618
(dp2619
g39
(lp2620
I64
aI69
asg154
VOTIV
p2621
sa(dp2622
g39
(lp2623
I99
aI104
asg154
VDWSN
p2624
sa(dp2625
g39
(lp2626
I105
aI110
asg154
VVSCP
p2627
sa(dp2628
g39
(lp2629
I111
aI116
asg154
VTANH
p2630
sa(dp2631
g39
(lp2632
I117
aI121
asg154
VOME
p2633
sa(dp2634
g39
(lp2635
I122
aI127
asg154
VGENE
p2636
sa(dp2637
g39
(lp2638
I128
aI133
asg154
VUTSI
p2639
sa(dp2640
g39
(lp2641
I134
aI139
asg154
VCCRN
p2642
sasg168
(lp2643
sg170
(lp2644
sg35
(lp2645
(dp2646
g33
Vhttps://t.co/uAcamNRUPt
p2647
sg39
(lp2648
I19
aI42
asg41
Vhttp://BiloSelhi.com
p2649
sg43
VBiloSelhi.com
p2650
sasg491
(lp2651
(dp2652
g494
L2802272246L
sg495
V581224111302709248
p2653
sg41
Vhttp://twitter.com/StocksThatDoubl/status/581224111302709248/photo/1
p2654
sg43
Vpic.twitter.com/qPCeXiynzS
p2655
sg33
Vhttps://t.co/qPCeXiynzS
p2656
sg500
Vhttps://pbs.twimg.com/media/CBDsP8QWQAAzj8C.png
p2657
sg502
V2802272246
p2658
sg504
L581224111302709248L
sg68
V581224110547681280
p2659
sg506
(dp2660
g508
(dp2661
g510
I703
sg511
Vfit
p2662
sg513
I1024
ssg514
(dp2663
g510
I233
sg511
Vfit
p2664
sg513
I340
ssg517
(dp2665
g510
I412
sg511
Vfit
p2666
sg513
I600
ssg520
(dp2667
g510
I150
sg511
Vcrop
p2668
sg513
I150
sssg39
(lp2669
I75
aI98
asg524
Vphoto
p2670
sg56
L581224110547681280L
sg526
Vhttp://pbs.twimg.com/media/CBDsP8QWQAAzj8C.png
p2671
sassg181
Nsg182
Nsg183
I0
sg68
V662349152119037952
p2672
sg185
I00
sg186
g2590
sg187
Nsg188
Nsg189
I00
sg90
g2611
sg98
VThu Nov 05 19:21:58 +0000 2015
p2673
sg191
Nsg192
Nsg193
(dp2674
g195
Ven
p2675
sg197
Vrecent
p2676
sssg199
g2674
sg200
Nsg201
Nsg31
g2617
sg202
Nsg203
Nsg110
g2672
sg204
I00
sg205
Nsg206
I0
sg207
Nsbag0
(g4
g5
Ntp2677
Rp2678
(dp2679
g9
I00
sg10
Nsg11
I00
sg12
VSmart traders join https://t.co/uAcamNRUPt for alerts like this $OTIV +17% https://t.co/qPCeXiynzS $LINC $PVA $IVOB $SIEN $EGLT $TANH $XOXO
p2680
sg14
Vhttp://biloselhi.com
p2681
sg16
I00
sg17
I00
sg18
Nsg19
g0
(g20
g5
Ntp2682
Rp2683
(dp2684
g24
I00
sg25
I00
sg26
I01
sg27
VFFFFFF
p2685
sg29
L2802272246L
sg30
I00
sg31
(dp2686
g33
(dp2687
g35
(lp2688
(dp2689
g33
Vhttp://t.co/jjWTkVWgFN
p2690
sg39
(lp2691
I0
aI22
asg41
Vhttp://BiloSelhi.com
p2692
sg43
VBiloSelhi.com
p2693
sassg45
(dp2694
g35
(lp2695
(dp2696
g33
Vhttps://t.co/0aFaudDmBY
p2697
sg39
(lp2698
I137
aI160
asg41
Vhttp://biloselhi.com/d.htm
p2699
sg43
Vbiloselhi.com/d.htm
p2700
sasssg48
Vhttps://pbs.twimg.com/profile_images/509778632521154560/DYIdZCfQ_normal.png
p2701
sg50
(dp2702
g52
I00
sg53
I00
sg54
I01
sg55
I00
sg56
L2802272246L
sg57
Vhttps://abs.twimg.com/images/themes/theme13/bg.gif
p2703
sg59
I00
sg60
V333333
p2704
sg62
g2701
sg63
g2685
sg64
g2686
sg65
I11220
sg66
VEEEEEE
p2705
sg68
V2802272246
p2706
sg70
VB2DFDA
p2707
sg72
I72
sg73
I00
sg74
Nsg75
I28395
sg45
VFounder, Bilo Selhi's Stock Alerts. 1,302% return in 13 months. Subscribe today for promo. Follow on Google+ for free trial. DISCLAIMER: https://t.co/0aFaudDmBY
p2708
sg77
I11694
sg78
V \u2193 \u2193 MUST SEE Track record
p2709
sg80
V93A644
p2710
sg82
Vhttp://pbs.twimg.com/profile_images/509778632521154560/DYIdZCfQ_normal.png
p2711
sg84
I00
sg85
I00
sg231
Vhttps://pbs.twimg.com/profile_banners/2802272246/1412893156
p2712
sg86
Vhttp://abs.twimg.com/images/themes/theme13/bg.gif
p2713
sg88
VStocksThatDoubl
p2714
sg90
Ven
p2715
sg92
I00
sg93
I77
sg94
VBilo Selhi
p2716
sg96
I00
sg33
Vhttp://t.co/jjWTkVWgFN
p2717
sg98
VWed Sep 10 18:52:30 +0000 2014
p2718
sg100
I00
sg101
Nsg103
I00
sg104
I00
sg105
I00
ssg106
I00
sg107
g2704
sg108
I11220
sg109
g2705
sg110
g2706
sg111
I00
sg112
I72
sg113
I00
sg114
Nsg115
I28395
sg116
g2708
sg117
I11694
sg118
g2709
sg119
g2710
sg120
g2711
sg121
I00
sg122
I00
sg123
g2707
sg239
g2712
sg124
g2713
sg125
g2714
sg126
g2715
sg127
I00
sg128
I00
sg129
I77
sg130
g2716
sg131
g2717
sg132
g133
(S'\x07\xde\t\n\x124\x1e\x00\x00\x00'
p2719
tp2720
Rp2721
sg137
g2703
sg138
Nsg139
I00
sg140
I00
sg141
I00
sbsg142
Nsg29
L662084399194841088L
sg143
I0
sg144
VNov292014
p2722
sg126
Ven
p2723
sg147
g2683
sg132
g133
(S'\x07\xdf\x0b\x05\x0118\x00\x00\x00'
p2724
tp2725
Rp2726
sg50
(dp2727
g152
Nsg153
I00
sg154
g2680
sg155
I00
sg156
Nsg56
L662084399194841088L
sg157
I0
sg158
V<a href="http://biloselhi.com" rel="nofollow">Nov292014</a>
p2728
sg160
I00
sg161
Nsg64
(dp2729
g163
(lp2730
(dp2731
g39
(lp2732
I64
aI69
asg154
VOTIV
p2733
sa(dp2734
g39
(lp2735
I99
aI104
asg154
VLINC
p2736
sa(dp2737
g39
(lp2738
I105
aI109
asg154
VPVA
p2739
sa(dp2740
g39
(lp2741
I110
aI115
asg154
VIVOB
p2742
sa(dp2743
g39
(lp2744
I116
aI121
asg154
VSIEN
p2745
sa(dp2746
g39
(lp2747
I122
aI127
asg154
VEGLT
p2748
sa(dp2749
g39
(lp2750
I128
aI133
asg154
VTANH
p2751
sa(dp2752
g39
(lp2753
I134
aI139
asg154
VXOXO
p2754
sasg168
(lp2755
sg170
(lp2756
sg35
(lp2757
(dp2758
g33
Vhttps://t.co/uAcamNRUPt
p2759
sg39
(lp2760
I19
aI42
asg41
Vhttp://BiloSelhi.com
p2761
sg43
VBiloSelhi.com
p2762
sasg491
(lp2763
(dp2764
g494
L2802272246L
sg495
V581224111302709248
p2765
sg41
Vhttp://twitter.com/StocksThatDoubl/status/581224111302709248/photo/1
p2766
sg43
Vpic.twitter.com/qPCeXiynzS
p2767
sg33
Vhttps://t.co/qPCeXiynzS
p2768
sg500
Vhttps://pbs.twimg.com/media/CBDsP8QWQAAzj8C.png
p2769
sg502
V2802272246
p2770
sg504
L581224111302709248L
sg68
V581224110547681280
p2771
sg506
(dp2772
g508
(dp2773
g510
I703
sg511
Vfit
p2774
sg513
I1024
ssg514
(dp2775
g510
I233
sg511
Vfit
p2776
sg513
I340
ssg517
(dp2777
g510
I412
sg511
Vfit
p2778
sg513
I600
ssg520
(dp2779
g510
I150
sg511
Vcrop
p2780
sg513
I150
sssg39
(lp2781
I75
aI98
asg524
Vphoto
p2782
sg56
L581224110547681280L
sg526
Vhttp://pbs.twimg.com/media/CBDsP8QWQAAzj8C.png
p2783
sassg181
Nsg182
Nsg183
I0
sg68
V662084399194841088
p2784
sg185
I00
sg186
g2702
sg187
Nsg188
Nsg189
I00
sg90
g2723
sg98
VThu Nov 05 01:49:56 +0000 2015
p2785
sg191
Nsg192
Nsg193
(dp2786
g195
Ven
p2787
sg197
Vrecent
p2788
sssg199
g2786
sg200
Nsg201
Nsg31
g2729
sg202
Nsg203
Nsg110
g2784
sg204
I00
sg205
Nsg206
I0
sg207
Nsbag0
(g4
g5
Ntp2789
Rp2790
(dp2791
g9
I00
sg10
Nsg11
I00
sg12
V$OTIV:\u000a\u000aNew Insider Transaction on OTIV by Chief Executive Officer:\u000a\u000ahttps://t.co/N0w4c1SMz4
p2792
sg14
Vhttp://www.newsflowing.com
p2793
sg16
I00
sg17
I00
sg18
Nsg19
g0
(g20
g5
Ntp2794
Rp2795
(dp2796
g24
I00
sg25
I00
sg26
I01
sg27
VE6F6F9
p2797
sg29
L2342215530L
sg30
I00
sg31
(dp2798
g45
(dp2799
g35
(lp2800
sssg48
Vhttps://pbs.twimg.com/profile_images/544036492876591104/7QJIB-XK_normal.jpeg
p2801
sg50
(dp2802
g52
I00
sg53
I00
sg54
I01
sg55
I00
sg56
L2342215530L
sg57
Vhttps://abs.twimg.com/images/themes/theme17/bg.gif
p2803
sg59
I00
sg60
V333333
p2804
sg62
g2801
sg63
g2797
sg64
g2798
sg65
I465
sg66
VDBE9ED
p2805
sg68
V2342215530
p2806
sg70
VDBE9ED
p2807
sg72
I89
sg73
I00
sg74
I-14400
sg75
I193001
sg45
g228
sg77
I0
sg78
g228
sg80
VCC3366
p2808
sg82
Vhttp://pbs.twimg.com/profile_images/544036492876591104/7QJIB-XK_normal.jpeg
p2809
sg84
I00
sg85
I00
sg86
Vhttp://abs.twimg.com/images/themes/theme17/bg.gif
p2810
sg88
Vnewswithvalue
p2811
sg90
Ven
p2812
sg92
I00
sg93
I0
sg94
VBreaking News Now
p2813
sg96
I00
sg33
Nsg98
VThu Feb 13 16:14:12 +0000 2014
p2814
sg100
I00
sg101
VAtlantic Time (Canada)
p2815
sg103
I00
sg104
I00
sg105
I00
ssg106
I00
sg107
g2804
sg108
I465
sg109
g2805
sg110
g2806
sg111
I00
sg112
I89
sg113
I00
sg114
I-14400
sg115
I193001
sg116
g228
sg117
I0
sg118
g228
sg119
g2808
sg120
g2809
sg121
I00
sg122
I00
sg123
g2807
sg124
g2810
sg125
g2811
sg126
g2812
sg127
I00
sg128
I00
sg129
I0
sg130
g2813
sg131
Nsg132
g133
(S'\x07\xde\x02\r\x10\x0e\x0c\x00\x00\x00'
p2816
tp2817
Rp2818
sg137
g2803
sg138
g2815
sg139
I00
sg140
I00
sg141
I00
sbsg142
Nsg29
L662059798062592001L
sg143
I0
sg144
VNFIG
p2819
sg126
Ven
p2820
sg147
g2795
sg132
g133
(S'\x07\xdf\x0b\x05\x00\x0c\n\x00\x00\x00'
p2821
tp2822
Rp2823
sg50
(dp2824
g152
Nsg153
I00
sg154
V$OTIV:\u000a\u000aNew Insider Transaction on OTIV by Chief Executive Officer:\u000a\u000ahttps://t.co/N0w4c1SMz4
p2825
sg155
I00
sg156
Nsg56
L662059798062592001L
sg157
I0
sg158
V<a href="http://www.newsflowing.com" rel="nofollow">NFIG</a>
p2826
sg160
I00
sg161
Nsg64
(dp2827
g163
(lp2828
(dp2829
g39
(lp2830
I0
aI5
asg154
VOTIV
p2831
sasg168
(lp2832
sg170
(lp2833
sg35
(lp2834
(dp2835
g33
Vhttps://t.co/N0w4c1SMz4
p2836
sg39
(lp2837
I69
aI92
asg41
Vhttp://StockNewsHour.com/otiv-new-insider-transaction-on-otiv-by-chief-executive-officer/
p2838
sg43
VStockNewsHour.com/otiv-new-insid\u2026
p2839
sassg181
Nsg182
Nsg183
I0
sg68
V662059798062592001
p2840
sg185
I00
sg186
g2802
sg187
Nsg188
Nsg189
I00
sg90
g2820
sg98
VThu Nov 05 00:12:10 +0000 2015
p2841
sg191
Nsg192
Nsg193
(dp2842
g195
Ven
p2843
sg197
Vrecent
p2844
sssg199
g2842
sg200
Nsg201
Nsg31
g2827
sg202
Nsg203
Nsg110
g2840
sg204
I00
sg205
Nsg206
I0
sg207
Nsbag0
(g4
g5
Ntp2845
Rp2846
(dp2847
g9
I00
sg10
Nsg11
I00
sg12
VNEW insider transaction on $OTIV reported a moment ago: https://t.co/PtaOfTyY6x
p2848
sg14
Vhttp://insideri.com
p2849
sg16
I00
sg17
I00
sg18
Nsg19
g0
(g20
g5
Ntp2850
Rp2851
(dp2852
g24
I00
sg25
I00
sg26
I00
sg27
V000000
p2853
sg29
L2344420430L
sg30
I00
sg31
(dp2854
g45
(dp2855
g35
(lp2856
sssg48
Vhttps://pbs.twimg.com/profile_images/548481313670299648/XBAwS1Wn_normal.jpeg
p2857
sg50
(dp2858
g52
I00
sg53
I00
sg54
I00
sg55
I00
sg56
L2344420430L
sg57
Vhttps://abs.twimg.com/images/themes/theme8/bg.gif
p2859
sg59
I00
sg60
V000000
p2860
sg62
g2857
sg63
g2853
sg64
g2854
sg65
I335
sg66
V000000
p2861
sg68
V2344420430
p2862
sg70
V000000
p2863
sg72
I23
sg73
I00
sg74
I-18000
sg75
I57351
sg45
VFollow stock purchases and sales by insiders
p2864
sg77
I0
sg78
VUnited States
p2865
sg80
V9266CC
p2866
sg82
Vhttp://pbs.twimg.com/profile_images/548481313670299648/XBAwS1Wn_normal.jpeg
p2867
sg84
I00
sg85
I00
sg86
Vhttp://abs.twimg.com/images/themes/theme8/bg.gif
p2868
sg88
VInsiderAlertsIA
p2869
sg90
Ven
p2870
sg92
I00
sg93
I0
sg94
VInsider Alerts
p2871
sg96
I00
sg33
Nsg98
VSat Feb 15 02:29:07 +0000 2014
p2872
sg100
I00
sg101
VEastern Time (US & Canada)
p2873
sg103
I00
sg104
I00
sg105
I00
ssg106
I00
sg107
g2860
sg108
I335
sg109
g2861
sg110
g2862
sg111
I00
sg112
I23
sg113
I00
sg114
I-18000
sg115
I57351
sg116
g2864
sg117
I0
sg118
g2865
sg119
g2866
sg120
g2867
sg121
I00
sg122
I00
sg123
g2863
sg124
g2868
sg125
g2869
sg126
g2870
sg127
I00
sg128
I00
sg129
I0
sg130
g2871
sg131
Nsg132
g133
(S'\x07\xde\x02\x0f\x02\x1d\x07\x00\x00\x00'
p2874
tp2875
Rp2876
sg137
g2859
sg138
g2873
sg139
I00
sg140
I00
sg141
I00
sbsg142
Nsg29
L662059539576041472L
sg143
I0
sg144
VInsider Alerts
p2877
sg126
Ven
p2878
sg147
g2851
sg132
g133
(S'\x07\xdf\x0b\x05\x00\x0b\t\x00\x00\x00'
p2879
tp2880
Rp2881
sg50
(dp2882
g152
Nsg153
I00
sg154
g2848
sg155
I00
sg156
Nsg56
L662059539576041472L
sg157
I0
sg158
V<a href="http://insideri.com" rel="nofollow">Insider Alerts</a>
p2883
sg160
I00
sg161
Nsg64
(dp2884
g163
(lp2885
(dp2886
g39
(lp2887
I27
aI32
asg154
VOTIV
p2888
sasg168
(lp2889
sg170
(lp2890
sg35
(lp2891
(dp2892
g33
Vhttps://t.co/PtaOfTyY6x
p2893
sg39
(lp2894
I56
aI79
asg41
Vhttp://insideri.com/1651296_000117891315003281_0001178913-15-003281
p2895
sg43
Vinsideri.com/1651296_000117\u2026
p2896
sassg181
Nsg182
Nsg183
I0
sg68
V662059539576041472
p2897
sg185
I00
sg186
g2858
sg187
Nsg188
Nsg189
I00
sg90
g2878
sg98
VThu Nov 05 00:11:09 +0000 2015
p2898
sg191
Nsg192
Nsg193
(dp2899
g195
Ven
p2900
sg197
Vrecent
p2901
sssg199
g2899
sg200
Nsg201
Nsg31
g2884
sg202
Nsg203
Nsg110
g2897
sg204
I00
sg205
Nsg206
I0
sg207
Nsbag0
(g4
g5
Ntp2902
Rp2903
(dp2904
g9
I00
sg10
Nsg11
I00
sg12
VSmart traders join https://t.co/uAcamO9vH1 for alerts like this $OTIV +17% https://t.co/qPCeXiynzS $LINC $PVA $IVOB $SIEN $EGLT $TANH $XOXO
p2905
sg14
Vhttp://biloselhi.com
p2906
sg16
I00
sg17
I00
sg18
Nsg19
g0
(g20
g5
Ntp2907
Rp2908
(dp2909
g24
I00
sg25
I00
sg26
I01
sg27
VFFFFFF
p2910
sg29
L2802272246L
sg30
I00
sg31
(dp2911
g33
(dp2912
g35
(lp2913
(dp2914
g33
Vhttp://t.co/jjWTkVWgFN
p2915
sg39
(lp2916
I0
aI22
asg41
Vhttp://BiloSelhi.com
p2917
sg43
VBiloSelhi.com
p2918
sassg45
(dp2919
g35
(lp2920
(dp2921
g33
Vhttps://t.co/0aFaudDmBY
p2922
sg39
(lp2923
I137
aI160
asg41
Vhttp://biloselhi.com/d.htm
p2924
sg43
Vbiloselhi.com/d.htm
p2925
sasssg48
Vhttps://pbs.twimg.com/profile_images/509778632521154560/DYIdZCfQ_normal.png
p2926
sg50
(dp2927
g52
I00
sg53
I00
sg54
I01
sg55
I00
sg56
L2802272246L
sg57
Vhttps://abs.twimg.com/images/themes/theme13/bg.gif
p2928
sg59
I00
sg60
V333333
p2929
sg62
g2926
sg63
g2910
sg64
g2911
sg65
I11220
sg66
VEEEEEE
p2930
sg68
V2802272246
p2931
sg70
VB2DFDA
p2932
sg72
I72
sg73
I00
sg74
Nsg75
I28395
sg45
VFounder, Bilo Selhi's Stock Alerts. 1,302% return in 13 months. Subscribe today for promo. Follow on Google+ for free trial. DISCLAIMER: https://t.co/0aFaudDmBY
p2933
sg77
I11694
sg78
V \u2193 \u2193 MUST SEE Track record
p2934
sg80
V93A644
p2935
sg82
Vhttp://pbs.twimg.com/profile_images/509778632521154560/DYIdZCfQ_normal.png
p2936
sg84
I00
sg85
I00
sg231
Vhttps://pbs.twimg.com/profile_banners/2802272246/1412893156
p2937
sg86
Vhttp://abs.twimg.com/images/themes/theme13/bg.gif
p2938
sg88
VStocksThatDoubl
p2939
sg90
Ven
p2940
sg92
I00
sg93
I77
sg94
VBilo Selhi
p2941
sg96
I00
sg33
Vhttp://t.co/jjWTkVWgFN
p2942
sg98
VWed Sep 10 18:52:30 +0000 2014
p2943
sg100
I00
sg101
Nsg103
I00
sg104
I00
sg105
I00
ssg106
I00
sg107
g2929
sg108
I11220
sg109
g2930
sg110
g2931
sg111
I00
sg112
I72
sg113
I00
sg114
Nsg115
I28395
sg116
g2933
sg117
I11694
sg118
g2934
sg119
g2935
sg120
g2936
sg121
I00
sg122
I00
sg123
g2932
sg239
g2937
sg124
g2938
sg125
g2939
sg126
g2940
sg127
I00
sg128
I00
sg129
I77
sg130
g2941
sg131
g2942
sg132
g133
(S'\x07\xde\t\n\x124\x1e\x00\x00\x00'
p2944
tp2945
Rp2946
sg137
g2928
sg138
Nsg139
I00
sg140
I00
sg141
I00
sbsg142
Nsg29
L662018810677870592L
sg143
I1
sg144
VNov292014
p2947
sg126
Ven
p2948
sg147
g2908
sg132
g133
(S'\x07\xdf\x0b\x04\x15\x1d\x12\x00\x00\x00'
p2949
tp2950
Rp2951
sg50
(dp2952
g152
Nsg153
I00
sg154
g2905
sg155
I00
sg156
Nsg56
L662018810677870592L
sg157
I1
sg158
V<a href="http://biloselhi.com" rel="nofollow">Nov292014</a>
p2953
sg160
I00
sg161
Nsg64
(dp2954
g163
(lp2955
(dp2956
g39
(lp2957
I64
aI69
asg154
VOTIV
p2958
sa(dp2959
g39
(lp2960
I99
aI104
asg154
VLINC
p2961
sa(dp2962
g39
(lp2963
I105
aI109
asg154
VPVA
p2964
sa(dp2965
g39
(lp2966
I110
aI115
asg154
VIVOB
p2967
sa(dp2968
g39
(lp2969
I116
aI121
asg154
VSIEN
p2970
sa(dp2971
g39
(lp2972
I122
aI127
asg154
VEGLT
p2973
sa(dp2974
g39
(lp2975
I128
aI133
asg154
VTANH
p2976
sa(dp2977
g39
(lp2978
I134
aI139
asg154
VXOXO
p2979
sasg168
(lp2980
sg170
(lp2981
sg35
(lp2982
(dp2983
g33
Vhttps://t.co/uAcamO9vH1
p2984
sg39
(lp2985
I19
aI42
asg41
Vhttp://BiloSelhi.com
p2986
sg43
VBiloSelhi.com
p2987
sasg491
(lp2988
(dp2989
g494
L2802272246L
sg495
V581224111302709248
p2990
sg41
Vhttp://twitter.com/StocksThatDoubl/status/581224111302709248/photo/1
p2991
sg43
Vpic.twitter.com/qPCeXiynzS
p2992
sg33
Vhttps://t.co/qPCeXiynzS
p2993
sg500
Vhttps://pbs.twimg.com/media/CBDsP8QWQAAzj8C.png
p2994
sg502
V2802272246
p2995
sg504
L581224111302709248L
sg68
V581224110547681280
p2996
sg506
(dp2997
g508
(dp2998
g510
I703
sg511
Vfit
p2999
sg513
I1024
ssg514
(dp3000
g510
I233
sg511
Vfit
p3001
sg513
I340
ssg517
(dp3002
g510
I412
sg511
Vfit
p3003
sg513
I600
ssg520
(dp3004
g510
I150
sg511
Vcrop
p3005
sg513
I150
sssg39
(lp3006
I75
aI98
asg524
Vphoto
p3007
sg56
L581224110547681280L
sg526
Vhttp://pbs.twimg.com/media/CBDsP8QWQAAzj8C.png
p3008
sassg181
Nsg182
Nsg183
I0
sg68
V662018810677870592
p3009
sg185
I00
sg186
g2927
sg187
Nsg188
Nsg189
I00
sg90
g2948
sg98
VWed Nov 04 21:29:18 +0000 2015
p3010
sg191
Nsg192
Nsg193
(dp3011
g195
Ven
p3012
sg197
Vrecent
p3013
sssg199
g3011
sg200
Nsg201
Nsg31
g2954
sg202
Nsg203
Nsg110
g3009
sg204
I00
sg205
Nsg206
I0
sg207
Nsbag0
(g4
g5
Ntp3014
Rp3015
(dp3016
g9
I00
sg10
Nsg11
I00
sg12
V$OTIV - Current Report Filing (8-k) https://t.co/BXLCMdMx6h
p3017
sg14
Vhttp://www.advfn.com
p3018
sg16
I00
sg17
I00
sg18
Nsg19
g0
(g20
g5
Ntp3019
Rp3020
(dp3021
g24
I00
sg25
I00
sg26
I01
sg27
VDDEEF6
p3022
sg29
L2440753004L
sg30
I00
sg31
(dp3023
g33
(dp3024
g35
(lp3025
(dp3026
g33
Vhttp://t.co/nRbMebx4ML
p3027
sg39
(lp3028
I0
aI22
asg41
Vhttp://bit.ly/JBPemail
p3029
sg43
Vbit.ly/JBPemail
p3030
sassg45
(dp3031
g35
(lp3032
(dp3033
g33
Vhttp://t.co/UNGiXERmyZ
p3034
sg39
(lp3035
I41
aI63
asg41
Vhttp://bit.ly/Learn2trade
p3036
sg43
Vbit.ly/Learn2trade
p3037
sasssg48
Vhttps://pbs.twimg.com/profile_images/455136055658676224/7alNBYDW_normal.jpeg
p3038
sg50
(dp3039
g52
I00
sg53
I00
sg54
I01
sg55
I00
sg56
L2440753004L
sg57
Vhttps://pbs.twimg.com/profile_background_images/455143539182022657/otI-w2iO.jpeg
p3040
sg59
I00
sg60
V333333
p3041
sg62
g3038
sg63
g3022
sg64
g3023
sg65
I5174
sg66
VFFFFFF
p3042
sg68
V2440753004
p3043
sg70
VC0DEED
p3044
sg72
I67
sg73
I00
sg74
I-18000
sg75
I64419
sg45
VStreaming news on stocks. Learn here \u21a1 \u21fe http://t.co/UNGiXERmyZ
p3045
sg77
I4305
sg78
g228
sg80
V000000
p3046
sg82
Vhttp://pbs.twimg.com/profile_images/455136055658676224/7alNBYDW_normal.jpeg
p3047
sg84
I00
sg85
I00
sg231
Vhttps://pbs.twimg.com/profile_banners/2440753004/1397349382
p3048
sg86
Vhttp://pbs.twimg.com/profile_background_images/455143539182022657/otI-w2iO.jpeg
p3049
sg88
VStockNews_
p3050
sg90
Ven
p3051
sg92
I01
sg93
I0
sg94
VStockNews
p3052
sg96
I00
sg33
Vhttp://t.co/nRbMebx4ML
p3053
sg98
VSun Apr 13 00:07:03 +0000 2014
p3054
sg100
I00
sg101
VEastern Time (US & Canada)
p3055
sg103
I00
sg104
I00
sg105
I00
ssg106
I00
sg107
g3041
sg108
I5174
sg109
g3042
sg110
g3043
sg111
I00
sg112
I67
sg113
I00
sg114
I-18000
sg115
I64419
sg116
g3045
sg117
I4305
sg118
g228
sg119
g3046
sg120
g3047
sg121
I00
sg122
I00
sg123
g3044
sg239
g3048
sg124
g3049
sg125
g3050
sg126
g3051
sg127
I00
sg128
I01
sg129
I0
sg130
g3052
sg131
g3053
sg132
g133
(S'\x07\xde\x04\r\x00\x07\x03\x00\x00\x00'
p3056
tp3057
Rp3058
sg137
g3040
sg138
g3055
sg139
I00
sg140
I00
sg141
I00
sbsg142
Nsg29
L662007930829594625L
sg143
I0
sg144
VADVFN News Alert
p3059
sg126
Vpt
p3060
sg147
g3020
sg132
g133
(S'\x07\xdf\x0b\x04\x14.\x04\x00\x00\x00'
p3061
tp3062
Rp3063
sg50
(dp3064
g152
Nsg153
I00
sg154
g3017
sg155
I00
sg156
Nsg56
L662007930829594625L
sg157
I0
sg158
V<a href="http://www.advfn.com" rel="nofollow">ADVFN News Alert</a>
p3065
sg160
I00
sg161
Nsg64
(dp3066
g163
(lp3067
(dp3068
g39
(lp3069
I0
aI5
asg154
VOTIV
p3070
sasg168
(lp3071
sg170
(lp3072
sg35
(lp3073
(dp3074
g33
Vhttps://t.co/BXLCMdMx6h
p3075
sg39
(lp3076
I36
aI59
asg41
Vhttp://ih.advfn.com/p.php?pid=nmona&article=69166631&xref=newsalerttweet&adw=1126416
p3077
sg43
Vih.advfn.com/p.php?pid=nmon\u2026
p3078
sassg181
Nsg182
Nsg183
I0
sg68
V662007930829594625
p3079
sg185
I00
sg186
g3039
sg187
Nsg188
Nsg189
I00
sg90
g3060
sg98
VWed Nov 04 20:46:04 +0000 2015
p3080
sg191
Nsg192
Nsg193
(dp3081
g195
Vpt
p3082
sg197
Vrecent
p3083
sssg199
g3081
sg200
Nsg201
Nsg31
g3066
sg202
Nsg203
Nsg110
g3079
sg204
I00
sg205
Nsg206
I0
sg207
Nsbag0
(g4
g5
Ntp3084
Rp3085
(dp3086
g9
I00
sg10
Nsg11
I00
sg12
V$OTIV:\u000a\u000aNew SEC Filing for OTIV: Form 8-K (No. 0001178913-15-003277):\u000a\u000ahttps://t.co/OiMFALZ4WF
p3087
sg14
Vhttp://www.stocknewswires.com
p3088
sg16
I00
sg17
I00
sg18
Nsg19
g0
(g20
g5
Ntp3089
Rp3090
(dp3091
g24
I00
sg25
I00
sg26
I01
sg27
VE3E2DE
p3092
sg29
L2344619544L
sg30
I00
sg31
(dp3093
g45
(dp3094
g35
(lp3095
sssg48
Vhttps://pbs.twimg.com/profile_images/562292381764952064/mVtp0UmJ_normal.jpeg
p3096
sg50
(dp3097
g52
I00
sg53
I00
sg54
I01
sg55
I00
sg56
L2344619544L
sg57
Vhttps://abs.twimg.com/images/themes/theme3/bg.gif
p3098
sg59
I00
sg60
V634047
p3099
sg62
g3096
sg63
g3092
sg64
g3093
sg65
I516
sg66
VD3D2CF
p3100
sg68
V2344619544
p3101
sg70
VEDECE9
p3102
sg72
I85
sg73
I01
sg74
I-18000
sg75
I182020
sg45
VNews about Stocks
p3103
sg77
I0
sg78
VU.S.
p3104
sg80
V088253
p3105
sg82
Vhttp://pbs.twimg.com/profile_images/562292381764952064/mVtp0UmJ_normal.jpeg
p3106
sg84
I00
sg85
I00
sg86
Vhttp://abs.twimg.com/images/themes/theme3/bg.gif
p3107
sg88
VNewsToDesk
p3108
sg90
Ven
p3109
sg92
I00
sg93
I0
sg94
VBreakingStocksNews
p3110
sg96
I00
sg33
Nsg98
VSat Feb 15 05:49:10 +0000 2014
p3111
sg100
I00
sg101
VEastern Time (US & Canada)
p3112
sg103
I00
sg104
I00
sg105
I00
ssg106
I00
sg107
g3099
sg108
I516
sg109
g3100
sg110
g3101
sg111
I00
sg112
I85
sg113
I01
sg114
I-18000
sg115
I182020
sg116
g3103
sg117
I0
sg118
g3104
sg119
g3105
sg120
g3106
sg121
I00
sg122
I00
sg123
g3102
sg124
g3107
sg125
g3108
sg126
g3109
sg127
I00
sg128
I00
sg129
I0
sg130
g3110
sg131
Nsg132
g133
(S'\x07\xde\x02\x0f\x051\n\x00\x00\x00'
p3113
tp3114
Rp3115
sg137
g3098
sg138
g3112
sg139
I00
sg140
I00
sg141
I00
sbsg142
Nsg29
L662007703024353281L
sg143
I0
sg144
VStockNewsWires
p3116
sg126
Ven
p3117
sg147
g3090
sg132
g133
(S'\x07\xdf\x0b\x04\x14-\n\x00\x00\x00'
p3118
tp3119
Rp3120
sg50
(dp3121
g152
Nsg153
I00
sg154
V$OTIV:\u000a\u000aNew SEC Filing for OTIV: Form 8-K (No. 0001178913-15-003277):\u000a\u000ahttps://t.co/OiMFALZ4WF
p3122
sg155
I00
sg156
Nsg56
L662007703024353281L
sg157
I0
sg158
V<a href="http://www.stocknewswires.com" rel="nofollow">StockNewsWires</a>
p3123
sg160
I00
sg161
Nsg64
(dp3124
g163
(lp3125
(dp3126
g39
(lp3127
I0
aI5
asg154
VOTIV
p3128
sasg168
(lp3129
sg170
(lp3130
sg35
(lp3131
(dp3132
g33
Vhttps://t.co/OiMFALZ4WF
p3133
sg39
(lp3134
I71
aI94
asg41
Vhttp://StockNewsHour.com/otiv-new-sec-filing-for-otiv-form-8-k-no-0001178913-15-003277/
p3135
sg43
VStockNewsHour.com/otiv-new-sec-f\u2026
p3136
sassg181
Nsg182
Nsg183
I0
sg68
V662007703024353281
p3137
sg185
I00
sg186
g3097
sg187
Nsg188
Nsg189
I00
sg90
g3117
sg98
VWed Nov 04 20:45:10 +0000 2015
p3138
sg191
Nsg192
Nsg193
(dp3139
g195
Ven
p3140
sg197
Vrecent
p3141
sssg199
g3139
sg200
Nsg201
Nsg31
g3124
sg202
Nsg203
Nsg110
g3137
sg204
I00
sg205
Nsg206
I0
sg207
Nsbag0
(g4
g5
Ntp3142
Rp3143
(dp3144
g9
I00
sg10
Nsg11
I00
sg12
VNEW SEC Filing for $OTIV filed a moment ago: https://t.co/koVeJnsOeS https://t.co/9hBU2Sm905
p3145
sg14
Vhttp://fnsappbg.blogspot.com/
p3146
sg16
I00
sg17
I00
sg18
Nsg19
g0
(g20
g5
Ntp3147
Rp3148
(dp3149
g24
I00
sg25
I00
sg26
I01
sg27
VE6F6F9
p3150
sg29
L2344363668L
sg30
I00
sg31
(dp3151
g45
(dp3152
g35
(lp3153
sssg48
Vhttps://pbs.twimg.com/profile_images/477288831767425025/SqzMus3o_normal.jpeg
p3154
sg50
(dp3155
g52
I00
sg53
I00
sg54
I01
sg55
I00
sg56
L2344363668L
sg57
Vhttps://abs.twimg.com/images/themes/theme17/bg.gif
p3156
sg59
I00
sg60
V333333
p3157
sg62
g3154
sg63
g3150
sg64
g3151
sg65
I91
sg66
VDBE9ED
p3158
sg68
V2344363668
p3159
sg70
VDBE9ED
p3160
sg72
I7
sg73
I00
sg74
I-14400
sg75
I17354
sg45
g228
sg77
I6
sg78
g228
sg80
VCC3366
p3161
sg82
Vhttp://pbs.twimg.com/profile_images/477288831767425025/SqzMus3o_normal.jpeg
p3162
sg84
I00
sg85
I00
sg86
Vhttp://abs.twimg.com/images/themes/theme17/bg.gif
p3163
sg88
Vflthelead
p3164
sg90
Ven
p3165
sg92
I00
sg93
I0
sg94
VNew SEC Filings
p3166
sg96
I00
sg33
Nsg98
VSat Feb 15 01:32:19 +0000 2014
p3167
sg100
I00
sg101
VAtlantic Time (Canada)
p3168
sg103
I00
sg104
I00
sg105
I00
ssg106
I00
sg107
g3157
sg108
I91
sg109
g3158
sg110
g3159
sg111
I00
sg112
I7
sg113
I00
sg114
I-14400
sg115
I17354
sg116
g228
sg117
I6
sg118
g228
sg119
g3161
sg120
g3162
sg121
I00
sg122
I00
sg123
g3160
sg124
g3163
sg125
g3164
sg126
g3165
sg127
I00
sg128
I00
sg129
I0
sg130
g3166
sg131
Nsg132
g133
(S'\x07\xde\x02\x0f\x01 \x13\x00\x00\x00'
p3169
tp3170
Rp3171
sg137
g3156
sg138
g3168
sg139
I00
sg140
I00
sg141
I00
sbsg142
Nsg29
L662007456277622784L
sg143
I0
sg144
VFNS_APP
p3172
sg126
Ven
p3173
sg147
g3148
sg132
g133
(S'\x07\xdf\x0b\x04\x14,\x0b\x00\x00\x00'
p3174
tp3175
Rp3176
sg50
(dp3177
g152
Nsg153
I00
sg154
g3145
sg155
I00
sg156
Nsg56
L662007456277622784L
sg157
I0
sg158
V<a href="http://fnsappbg.blogspot.com/" rel="nofollow">FNS_APP</a>
p3178
sg160
I00
sg161
Nsg64
(dp3179
g163
(lp3180
(dp3181
g39
(lp3182
I19
aI24
asg154
VOTIV
p3183
sasg168
(lp3184
sg170
(lp3185
sg35
(lp3186
(dp3187
g33
Vhttps://t.co/koVeJnsOeS
p3188
sg39
(lp3189
I45
aI68
asg41
Vhttp://stocknewsflow.com/1021604_000117891315003277_0001178913-15-003277
p3190
sg43
Vstocknewsflow.com/1021604_000117\u2026
p3191
sasg491
(lp3192
(dp3193
g41
Vhttp://twitter.com/flthelead/status/662007456277622784/photo/1
p3194
sg43
Vpic.twitter.com/9hBU2Sm905
p3195
sg33
Vhttps://t.co/9hBU2Sm905
p3196
sg500
Vhttps://pbs.twimg.com/media/CS_sRh_W4AAje5-.jpg
p3197
sg68
V662007456172793856
p3198
sg506
(dp3199
g508
(dp3200
g510
I4
sg511
Vfit
p3201
sg513
I4
ssg514
(dp3202
g510
I4
sg511
Vfit
p3203
sg513
I4
ssg517
(dp3204
g510
I4
sg511
Vfit
p3205
sg513
I4
ssg520
(dp3206
g510
I4
sg511
Vcrop
p3207
sg513
I4
sssg39
(lp3208
I69
aI92
asg524
Vphoto
p3209
sg56
L662007456172793856L
sg526
Vhttp://pbs.twimg.com/media/CS_sRh_W4AAje5-.jpg
p3210
sassg181
Nsg182
Nsg183
I0
sg68
V662007456277622784
p3211
sg185
I00
sg186
g3155
sg187
Nsg188
Nsg189
I00
sg90
g3173
sg98
VWed Nov 04 20:44:11 +0000 2015
p3212
sg191
Nsg192
Nsg193
(dp3213
g195
Ven
p3214
sg197
Vrecent
p3215
sssg199
g3213
sg200
Nsg201
Nsg31
g3179
sg202
Nsg203
Nsg110
g3211
sg204
I00
sg205
Nsg206
I0
sg207
Nsbag0
(g4
g5
Ntp3216
Rp3217
(dp3218
g9
I00
sg10
Nsg11
I00
sg12
V$OTIV: ON TRACK INNOVATIONS LTD filed a form 8-K. https://t.co/exnRLpZu9i
p3219
sg14
Vhttp://www.jivedata.com/sec
p3220
sg16
I00
sg17
I00
sg18
Nsg19
g0
(g20
g5
Ntp3221
Rp3222
(dp3223
g24
I00
sg25
I00
sg26
I01
sg27
VDDEEF6
p3224
sg29
I898018302
sg30
I00
sg31
(dp3225
g33
(dp3226
g35
(lp3227
(dp3228
g33
Vhttp://t.co/pWCxN8KLo5
p3229
sg39
(lp3230
I0
aI22
asg41
Vhttp://www.jivedata.com
p3231
sg43
Vjivedata.com
p3232
sassg45
(dp3233
g35
(lp3234
sssg48
Vhttps://pbs.twimg.com/profile_images/416320093316841472/YhFYvqmi_normal.png
p3235
sg50
(dp3236
g52
I00
sg53
I00
sg54
I01
sg55
I00
sg56
I898018302
sg57
Vhttps://pbs.twimg.com/profile_background_images/378800000157544683/R6GKx2Ke.png
p3237
sg59
I00
sg60
V333333
p3238
sg62
g3235
sg63
g3224
sg64
g3225
sg65
I87
sg66
VFFFFFF
p3239
sg68
V898018302
p3240
sg70
VFFFFFF
p3241
sg72
I14
sg73
I00
sg74
I-18000
sg75
I56088
sg45
VFinancial. Data. Done. Right. This is a real-time feed of XBRL financial data from 10-K's and 10-Q's
p3242
sg77
I0
sg78
VNew York, NY
p3243
sg80
V0084B4
p3244
sg82
Vhttp://pbs.twimg.com/profile_images/416320093316841472/YhFYvqmi_normal.png
p3245
sg84
I00
sg85
I00
sg86
Vhttp://pbs.twimg.com/profile_background_images/378800000157544683/R6GKx2Ke.png
p3246
sg88
Vsec_filings
p3247
sg90
Ven
p3248
sg92
I00
sg93
I0
sg94
VSec Filings
p3249
sg96
I00
sg33
Vhttp://t.co/pWCxN8KLo5
p3250
sg98
VMon Oct 22 17:25:30 +0000 2012
p3251
sg100
I00
sg101
VEastern Time (US & Canada)
p3252
sg103
I00
sg104
I00
sg105
I00
ssg106
I00
sg107
g3238
sg108
I87
sg109
g3239
sg110
g3240
sg111
I00
sg112
I14
sg113
I00
sg114
I-18000
sg115
I56088
sg116
g3242
sg117
I0
sg118
g3243
sg119
g3244
sg120
g3245
sg121
I00
sg122
I00
sg123
g3241
sg124
g3246
sg125
g3247
sg126
g3248
sg127
I00
sg128
I00
sg129
I0
sg130
g3249
sg131
g3250
sg132
g133
(S'\x07\xdc\n\x16\x11\x19\x1e\x00\x00\x00'
p3253
tp3254
Rp3255
sg137
g3237
sg138
g3252
sg139
I00
sg140
I00
sg141
I00
sbsg142
Nsg29
L662007260038631424L
sg143
I0
sg144
VJive Data SEC Filings
p3256
sg126
Ven
p3257
sg147
g3222
sg132
g133
(S'\x07\xdf\x0b\x04\x14+\x18\x00\x00\x00'
p3258
tp3259
Rp3260
sg50
(dp3261
g152
Nsg153
I00
sg154
g3219
sg155
I00
sg156
Nsg56
L662007260038631424L
sg157
I0
sg158
V<a href="http://www.jivedata.com/sec" rel="nofollow">Jive Data SEC Filings</a>
p3262
sg160
I00
sg161
Nsg64
(dp3263
g163
(lp3264
(dp3265
g39
(lp3266
I0
aI5
asg154
VOTIV
p3267
sasg168
(lp3268
sg170
(lp3269
sg35
(lp3270
(dp3271
g33
Vhttps://t.co/exnRLpZu9i
p3272
sg39
(lp3273
I50
aI73
asg41
Vhttp://www.jivedata.com/filings/OTIV/
p3274
sg43
Vjivedata.com/filings/OTIV/
p3275
sassg181
Nsg182
Nsg183
I0
sg68
V662007260038631424
p3276
sg185
I00
sg186
g3236
sg187
Nsg188
Nsg189
I00
sg90
g3257
sg98
VWed Nov 04 20:43:24 +0000 2015
p3277
sg191
Nsg192
Nsg193
(dp3278
g195
Ven
p3279
sg197
Vrecent
p3280
sssg199
g3278
sg200
Nsg201
Nsg31
g3263
sg202
Nsg203
Nsg110
g3276
sg204
I00
sg205
Nsg206
I0
sg207
Nsbag0
(g4
g5
Ntp3281
Rp3282
(dp3283
g9
I00
sg10
Nsg11
I00
sg12
VSmart traders join https://t.co/uAcamNRUPt for alerts like this $OTIV +17% https://t.co/qPCeXiynzS $LINC $PVA $IVOB $SIEN $EGLT $TANH $XOXO
p3284
sg14
Vhttp://biloselhi.com
p3285
sg16
I00
sg17
I00
sg18
Nsg19
g0
(g20
g5
Ntp3286
Rp3287
(dp3288
g24
I00
sg25
I00
sg26
I01
sg27
VFFFFFF
p3289
sg29
L2802272246L
sg30
I00
sg31
(dp3290
g33
(dp3291
g35
(lp3292
(dp3293
g33
Vhttp://t.co/jjWTkVWgFN
p3294
sg39
(lp3295
I0
aI22
asg41
Vhttp://BiloSelhi.com
p3296
sg43
VBiloSelhi.com
p3297
sassg45
(dp3298
g35
(lp3299
(dp3300
g33
Vhttps://t.co/0aFaudDmBY
p3301
sg39
(lp3302
I137
aI160
asg41
Vhttp://biloselhi.com/d.htm
p3303
sg43
Vbiloselhi.com/d.htm
p3304
sasssg48
Vhttps://pbs.twimg.com/profile_images/509778632521154560/DYIdZCfQ_normal.png
p3305
sg50
(dp3306
g52
I00
sg53
I00
sg54
I01
sg55
I00
sg56
L2802272246L
sg57
Vhttps://abs.twimg.com/images/themes/theme13/bg.gif
p3307
sg59
I00
sg60
V333333
p3308
sg62
g3305
sg63
g3289
sg64
g3290
sg65
I11220
sg66
VEEEEEE
p3309
sg68
V2802272246
p3310
sg70
VB2DFDA
p3311
sg72
I72
sg73
I00
sg74
Nsg75
I28395
sg45
VFounder, Bilo Selhi's Stock Alerts. 1,302% return in 13 months. Subscribe today for promo. Follow on Google+ for free trial. DISCLAIMER: https://t.co/0aFaudDmBY
p3312
sg77
I11694
sg78
V \u2193 \u2193 MUST SEE Track record
p3313
sg80
V93A644
p3314
sg82
Vhttp://pbs.twimg.com/profile_images/509778632521154560/DYIdZCfQ_normal.png
p3315
sg84
I00
sg85
I00
sg231
Vhttps://pbs.twimg.com/profile_banners/2802272246/1412893156
p3316
sg86
Vhttp://abs.twimg.com/images/themes/theme13/bg.gif
p3317
sg88
VStocksThatDoubl
p3318
sg90
Ven
p3319
sg92
I00
sg93
I77
sg94
VBilo Selhi
p3320
sg96
I00
sg33
Vhttp://t.co/jjWTkVWgFN
p3321
sg98
VWed Sep 10 18:52:30 +0000 2014
p3322
sg100
I00
sg101
Nsg103
I00
sg104
I00
sg105
I00
ssg106
I00
sg107
g3308
sg108
I11220
sg109
g3309
sg110
g3310
sg111
I00
sg112
I72
sg113
I00
sg114
Nsg115
I28395
sg116
g3312
sg117
I11694
sg118
g3313
sg119
g3314
sg120
g3315
sg121
I00
sg122
I00
sg123
g3311
sg239
g3316
sg124
g3317
sg125
g3318
sg126
g3319
sg127
I00
sg128
I00
sg129
I77
sg130
g3320
sg131
g3321
sg132
g133
(S'\x07\xde\t\n\x124\x1e\x00\x00\x00'
p3323
tp3324
Rp3325
sg137
g3307
sg138
Nsg139
I00
sg140
I00
sg141
I00
sbsg142
Nsg29
L661953224606355456L
sg143
I0
sg144
VNov292014
p3326
sg126
Ven
p3327
sg147
g3287
sg132
g133
(S'\x07\xdf\x0b\x04\x11\x08)\x00\x00\x00'
p3328
tp3329
Rp3330
sg50
(dp3331
g152
Nsg153
I00
sg154
g3284
sg155
I00
sg156
Nsg56
L661953224606355456L
sg157
I0
sg158
V<a href="http://biloselhi.com" rel="nofollow">Nov292014</a>
p3332
sg160
I00
sg161
Nsg64
(dp3333
g163
(lp3334
(dp3335
g39
(lp3336
I64
aI69
asg154
VOTIV
p3337
sa(dp3338
g39
(lp3339
I99
aI104
asg154
VLINC
p3340
sa(dp3341
g39
(lp3342
I105
aI109
asg154
VPVA
p3343
sa(dp3344
g39
(lp3345
I110
aI115
asg154
VIVOB
p3346
sa(dp3347
g39
(lp3348
I116
aI121
asg154
VSIEN
p3349
sa(dp3350
g39
(lp3351
I122
aI127
asg154
VEGLT
p3352
sa(dp3353
g39
(lp3354
I128
aI133
asg154
VTANH
p3355
sa(dp3356
g39
(lp3357
I134
aI139
asg154
VXOXO
p3358
sasg168
(lp3359
sg170
(lp3360
sg35
(lp3361
(dp3362
g33
Vhttps://t.co/uAcamNRUPt
p3363
sg39
(lp3364
I19
aI42
asg41
Vhttp://BiloSelhi.com
p3365
sg43
VBiloSelhi.com
p3366
sasg491
(lp3367
(dp3368
g494
L2802272246L
sg495
V581224111302709248
p3369
sg41
Vhttp://twitter.com/StocksThatDoubl/status/581224111302709248/photo/1
p3370
sg43
Vpic.twitter.com/qPCeXiynzS
p3371
sg33
Vhttps://t.co/qPCeXiynzS
p3372
sg500
Vhttps://pbs.twimg.com/media/CBDsP8QWQAAzj8C.png
p3373
sg502
V2802272246
p3374
sg504
L581224111302709248L
sg68
V581224110547681280
p3375
sg506
(dp3376
g508
(dp3377
g510
I703
sg511
Vfit
p3378
sg513
I1024
ssg514
(dp3379
g510
I233
sg511
Vfit
p3380
sg513
I340
ssg517
(dp3381
g510
I412
sg511
Vfit
p3382
sg513
I600
ssg520
(dp3383
g510
I150
sg511
Vcrop
p3384
sg513
I150
sssg39
(lp3385
I75
aI98
asg524
Vphoto
p3386
sg56
L581224110547681280L
sg526
Vhttp://pbs.twimg.com/media/CBDsP8QWQAAzj8C.png
p3387
sassg181
Nsg182
Nsg183
I0
sg68
V661953224606355456
p3388
sg185
I00
sg186
g3306
sg187
Nsg188
Nsg189
I00
sg90
g3327
sg98
VWed Nov 04 17:08:41 +0000 2015
p3389
sg191
Nsg192
Nsg193
(dp3390
g195
Ven
p3391
sg197
Vrecent
p3392
sssg199
g3390
sg200
Nsg201
Nsg31
g3333
sg202
Nsg203
Nsg110
g3388
sg204
I00
sg205
Nsg206
I0
sg207
Nsbag0
(g4
g5
Ntp3393
Rp3394
(dp3395
g9
I00
sg10
Nsg11
I00
sg12
VImp catalysts 4 MEIP &amp; CALA in d cmg week Here is DD 4 investors:https://t.co/lwSyWTxOEB $OTEX $OTIC $OTIV $OTTR $OUNZ $OUSA $OUT $OUTR
p3396
sg14
Vhttp://twittimer.com
p3397
sg16
I00
sg17
I00
sg18
Nsg19
g0
(g20
g5
Ntp3398
Rp3399
(dp3400
g24
I00
sg25
I01
sg26
I00
sg27
V000000
p3401
sg29
L3518191635L
sg30
I00
sg31
(dp3402
g33
(dp3403
g35
(lp3404
(dp3405
g33
Vhttps://t.co/ot2Kl5nyub
p3406
sg39
(lp3407
I0
aI23
asg41
Vhttps://groups.google.com/forum/#!forum/jbem777
p3408
sg43
Vgroups.google.com/forum/#!forum/\u2026
p3409
sassg45
(dp3410
g35
(lp3411
sssg48
Vhttps://pbs.twimg.com/profile_images/638885869433196544/C975RWXJ_normal.jpg
p3412
sg50
(dp3413
g52
I00
sg53
I01
sg54
I00
sg55
I00
sg56
L3518191635L
sg57
Vhttps://abs.twimg.com/images/themes/theme1/bg.png
p3414
sg59
I00
sg60
V000000
p3415
sg62
g3412
sg63
g3401
sg64
g3402
sg65
I28
sg66
V000000
p3416
sg68
V3518191635
p3417
sg70
V000000
p3418
sg72
I1
sg73
I00
sg74
I-28800
sg75
I1505
sg45
VHealthcare Stocks
p3419
sg77
I25
sg78
g228
sg80
V89C9FA
p3420
sg82
Vhttp://pbs.twimg.com/profile_images/638885869433196544/C975RWXJ_normal.jpg
p3421
sg84
I00
sg85
I00
sg86
Vhttp://abs.twimg.com/images/themes/theme1/bg.png
p3422
sg88
Vjbemstocks
p3423
sg90
Ven
p3424
sg92
I00
sg93
I0
sg94
VDUE DILIGENCE
p3425
sg96
I00
sg33
Vhttps://t.co/ot2Kl5nyub
p3426
sg98
VWed Sep 02 01:23:46 +0000 2015
p3427
sg100
I00
sg101
VPacific Time (US & Canada)
p3428
sg103
I00
sg104
I00
sg105
I00
ssg106
I00
sg107
g3415
sg108
I28
sg109
g3416
sg110
g3417
sg111
I00
sg112
I1
sg113
I00
sg114
I-28800
sg115
I1505
sg116
g3419
sg117
I25
sg118
g228
sg119
g3420
sg120
g3421
sg121
I00
sg122
I00
sg123
g3418
sg124
g3422
sg125
g3423
sg126
g3424
sg127
I00
sg128
I00
sg129
I0
sg130
g3425
sg131
g3426
sg132
g133
(S'\x07\xdf\t\x02\x01\x17.\x00\x00\x00'
p3429
tp3430
Rp3431
sg137
g3414
sg138
g3428
sg139
I00
sg140
I00
sg141
I00
sbsg142
Nsg29
L661945257190227968L
sg143
I0
sg144
VTwittimer
p3432
sg126
Ven
p3433
sg147
g3399
sg132
g133
(S'\x07\xdf\x0b\x04\x10%\x02\x00\x00\x00'
p3434
tp3435
Rp3436
sg50
(dp3437
g152
Nsg153
I00
sg154
g3396
sg155
I00
sg156
Nsg56
L661945257190227968L
sg157
I0
sg158
V<a href="http://twittimer.com" rel="nofollow">Twittimer</a>
p3438
sg160
I00
sg161
Nsg64
(dp3439
g163
(lp3440
(dp3441
g39
(lp3442
I93
aI98
asg154
VOTEX
p3443
sa(dp3444
g39
(lp3445
I99
aI104
asg154
VOTIC
p3446
sa(dp3447
g39
(lp3448
I105
aI110
asg154
VOTIV
p3449
sa(dp3450
g39
(lp3451
I111
aI116
asg154
VOTTR
p3452
sa(dp3453
g39
(lp3454
I117
aI122
asg154
VOUNZ
p3455
sa(dp3456
g39
(lp3457
I123
aI128
asg154
VOUSA
p3458
sa(dp3459
g39
(lp3460
I129
aI133
asg154
VOUT
p3461
sa(dp3462
g39
(lp3463
I134
aI139
asg154
VOUTR
p3464
sasg168
(lp3465
sg170
(lp3466
sg35
(lp3467
(dp3468
g33
Vhttps://t.co/lwSyWTxOEB
p3469
sg39
(lp3470
I69
aI92
asg41
Vhttp://bit.ly/1KjZ8cR
p3471
sg43
Vbit.ly/1KjZ8cR
p3472
sassg181
Nsg182
Nsg183
I0
sg68
V661945257190227968
p3473
sg185
I00
sg186
g3413
sg187
Nsg188
Nsg189
I00
sg90
g3433
sg98
VWed Nov 04 16:37:02 +0000 2015
p3474
sg191
Nsg192
Nsg193
(dp3475
g195
Ven
p3476
sg197
Vrecent
p3477
sssg199
g3475
sg200
Nsg201
Nsg31
g3439
sg202
Nsg203
Nsg110
g3473
sg204
I00
sg205
Nsg206
I0
sg207
Nsbag0
(g4
g5
Ntp3478
Rp3479
(dp3480
g9
I00
sg10
Nsg11
I00
sg12
VSmart traders join https://t.co/uAcamO9vH1 for alerts like this $OTIV +17% https://t.co/qPCeXiynzS $CNNX $AAMC $BCEI $XOMA $SYPR $HLTH $TRTC
p3481
sg14
Vhttp://biloselhi.com
p3482
sg16
I00
sg17
I00
sg18
Nsg19
g0
(g20
g5
Ntp3483
Rp3484
(dp3485
g24
I00
sg25
I00
sg26
I01
sg27
VFFFFFF
p3486
sg29
L2802272246L
sg30
I00
sg31
(dp3487
g33
(dp3488
g35
(lp3489
(dp3490
g33
Vhttp://t.co/jjWTkVWgFN
p3491
sg39
(lp3492
I0
aI22
asg41
Vhttp://BiloSelhi.com
p3493
sg43
VBiloSelhi.com
p3494
sassg45
(dp3495
g35
(lp3496
(dp3497
g33
Vhttps://t.co/0aFaudDmBY
p3498
sg39
(lp3499
I137
aI160
asg41
Vhttp://biloselhi.com/d.htm
p3500
sg43
Vbiloselhi.com/d.htm
p3501
sasssg48
Vhttps://pbs.twimg.com/profile_images/509778632521154560/DYIdZCfQ_normal.png
p3502
sg50
(dp3503
g52
I00
sg53
I00
sg54
I01
sg55
I00
sg56
L2802272246L
sg57
Vhttps://abs.twimg.com/images/themes/theme13/bg.gif
p3504
sg59
I00
sg60
V333333
p3505
sg62
g3502
sg63
g3486
sg64
g3487
sg65
I11220
sg66
VEEEEEE
p3506
sg68
V2802272246
p3507
sg70
VB2DFDA
p3508
sg72
I72
sg73
I00
sg74
Nsg75
I28395
sg45
VFounder, Bilo Selhi's Stock Alerts. 1,302% return in 13 months. Subscribe today for promo. Follow on Google+ for free trial. DISCLAIMER: https://t.co/0aFaudDmBY
p3509
sg77
I11694
sg78
V \u2193 \u2193 MUST SEE Track record
p3510
sg80
V93A644
p3511
sg82
Vhttp://pbs.twimg.com/profile_images/509778632521154560/DYIdZCfQ_normal.png
p3512
sg84
I00
sg85
I00
sg231
Vhttps://pbs.twimg.com/profile_banners/2802272246/1412893156
p3513
sg86
Vhttp://abs.twimg.com/images/themes/theme13/bg.gif
p3514
sg88
VStocksThatDoubl
p3515
sg90
Ven
p3516
sg92
I00
sg93
I77
sg94
VBilo Selhi
p3517
sg96
I00
sg33
Vhttp://t.co/jjWTkVWgFN
p3518
sg98
VWed Sep 10 18:52:30 +0000 2014
p3519
sg100
I00
sg101
Nsg103
I00
sg104
I00
sg105
I00
ssg106
I00
sg107
g3505
sg108
I11220
sg109
g3506
sg110
g3507
sg111
I00
sg112
I72
sg113
I00
sg114
Nsg115
I28395
sg116
g3509
sg117
I11694
sg118
g3510
sg119
g3511
sg120
g3512
sg121
I00
sg122
I00
sg123
g3508
sg239
g3513
sg124
g3514
sg125
g3515
sg126
g3516
sg127
I00
sg128
I00
sg129
I77
sg130
g3517
sg131
g3518
sg132
g133
(S'\x07\xde\t\n\x124\x1e\x00\x00\x00'
p3520
tp3521
Rp3522
sg137
g3504
sg138
Nsg139
I00
sg140
I00
sg141
I00
sbsg142
Nsg29
L661877357259526145L
sg143
I1
sg144
VNov292014
p3523
sg126
Ven
p3524
sg147
g3484
sg132
g133
(S'\x07\xdf\x0b\x04\x0c\x07\r\x00\x00\x00'
p3525
tp3526
Rp3527
sg50
(dp3528
g152
Nsg153
I00
sg154
g3481
sg155
I00
sg156
Nsg56
L661877357259526145L
sg157
I1
sg158
V<a href="http://biloselhi.com" rel="nofollow">Nov292014</a>
p3529
sg160
I00
sg161
Nsg64
(dp3530
g163
(lp3531
(dp3532
g39
(lp3533
I64
aI69
asg154
VOTIV
p3534
sa(dp3535
g39
(lp3536
I99
aI104
asg154
VCNNX
p3537
sa(dp3538
g39
(lp3539
I105
aI110
asg154
VAAMC
p3540
sa(dp3541
g39
(lp3542
I111
aI116
asg154
VBCEI
p3543
sa(dp3544
g39
(lp3545
I117
aI122
asg154
VXOMA
p3546
sa(dp3547
g39
(lp3548
I123
aI128
asg154
VSYPR
p3549
sa(dp3550
g39
(lp3551
I129
aI134
asg154
VHLTH
p3552
sa(dp3553
g39
(lp3554
I135
aI140
asg154
VTRTC
p3555
sasg168
(lp3556
sg170
(lp3557
sg35
(lp3558
(dp3559
g33
Vhttps://t.co/uAcamO9vH1
p3560
sg39
(lp3561
I19
aI42
asg41
Vhttp://BiloSelhi.com
p3562
sg43
VBiloSelhi.com
p3563
sasg491
(lp3564
(dp3565
g494
L2802272246L
sg495
V581224111302709248
p3566
sg41
Vhttp://twitter.com/StocksThatDoubl/status/581224111302709248/photo/1
p3567
sg43
Vpic.twitter.com/qPCeXiynzS
p3568
sg33
Vhttps://t.co/qPCeXiynzS
p3569
sg500
Vhttps://pbs.twimg.com/media/CBDsP8QWQAAzj8C.png
p3570
sg502
V2802272246
p3571
sg504
L581224111302709248L
sg68
V581224110547681280
p3572
sg506
(dp3573
g508
(dp3574
g510
I703
sg511
Vfit
p3575
sg513
I1024
ssg514
(dp3576
g510
I233
sg511
Vfit
p3577
sg513
I340
ssg517
(dp3578
g510
I412
sg511
Vfit
p3579
sg513
I600
ssg520
(dp3580
g510
I150
sg511
Vcrop
p3581
sg513
I150
sssg39
(lp3582
I75
aI98
asg524
Vphoto
p3583
sg56
L581224110547681280L
sg526
Vhttp://pbs.twimg.com/media/CBDsP8QWQAAzj8C.png
p3584
sassg181
Nsg182
Nsg183
I0
sg68
V661877357259526145
p3585
sg185
I00
sg186
g3503
sg187
Nsg188
Nsg189
I00
sg90
g3524
sg98
VWed Nov 04 12:07:13 +0000 2015
p3586
sg191
Nsg192
Nsg193
(dp3587
g195
Ven
p3588
sg197
Vrecent
p3589
sssg199
g3587
sg200
Nsg201
Nsg31
g3530
sg202
Nsg203
Nsg110
g3585
sg204
I00
sg205
Nsg206
I0
sg207
Nsbag0
(g4
g5
Ntp3590
Rp3591
(dp3592
g9
I00
sg10
Nsg11
I00
sg12
VSmart traders join https://t.co/uAcamNRUPt for alerts like this $OTIV +17% https://t.co/qPCeXiynzS $CNNX $AAMC $BCEI $XOMA $SYPR $HLTH $TRTC
p3593
sg14
Vhttp://biloselhi.com
p3594
sg16
I00
sg17
I00
sg18
Nsg19
g0
(g20
g5
Ntp3595
Rp3596
(dp3597
g24
I00
sg25
I00
sg26
I01
sg27
VFFFFFF
p3598
sg29
L2802272246L
sg30
I00
sg31
(dp3599
g33
(dp3600
g35
(lp3601
(dp3602
g33
Vhttp://t.co/jjWTkVWgFN
p3603
sg39
(lp3604
I0
aI22
asg41
Vhttp://BiloSelhi.com
p3605
sg43
VBiloSelhi.com
p3606
sassg45
(dp3607
g35
(lp3608
(dp3609
g33
Vhttps://t.co/0aFaudDmBY
p3610
sg39
(lp3611
I137
aI160
asg41
Vhttp://biloselhi.com/d.htm
p3612
sg43
Vbiloselhi.com/d.htm
p3613
sasssg48
Vhttps://pbs.twimg.com/profile_images/509778632521154560/DYIdZCfQ_normal.png
p3614
sg50
(dp3615
g52
I00
sg53
I00
sg54
I01
sg55
I00
sg56
L2802272246L
sg57
Vhttps://abs.twimg.com/images/themes/theme13/bg.gif
p3616
sg59
I00
sg60
V333333
p3617
sg62
g3614
sg63
g3598
sg64
g3599
sg65
I11220
sg66
VEEEEEE
p3618
sg68
V2802272246
p3619
sg70
VB2DFDA
p3620
sg72
I72
sg73
I00
sg74
Nsg75
I28395
sg45
VFounder, Bilo Selhi's Stock Alerts. 1,302% return in 13 months. Subscribe today for promo. Follow on Google+ for free trial. DISCLAIMER: https://t.co/0aFaudDmBY
p3621
sg77
I11694
sg78
V \u2193 \u2193 MUST SEE Track record
p3622
sg80
V93A644
p3623
sg82
Vhttp://pbs.twimg.com/profile_images/509778632521154560/DYIdZCfQ_normal.png
p3624
sg84
I00
sg85
I00
sg231
Vhttps://pbs.twimg.com/profile_banners/2802272246/1412893156
p3625
sg86
Vhttp://abs.twimg.com/images/themes/theme13/bg.gif
p3626
sg88
VStocksThatDoubl
p3627
sg90
Ven
p3628
sg92
I00
sg93
I77
sg94
VBilo Selhi
p3629
sg96
I00
sg33
Vhttp://t.co/jjWTkVWgFN
p3630
sg98
VWed Sep 10 18:52:30 +0000 2014
p3631
sg100
I00
sg101
Nsg103
I00
sg104
I00
sg105
I00
ssg106
I00
sg107
g3617
sg108
I11220
sg109
g3618
sg110
g3619
sg111
I00
sg112
I72
sg113
I00
sg114
Nsg115
I28395
sg116
g3621
sg117
I11694
sg118
g3622
sg119
g3623
sg120
g3624
sg121
I00
sg122
I00
sg123
g3620
sg239
g3625
sg124
g3626
sg125
g3627
sg126
g3628
sg127
I00
sg128
I00
sg129
I77
sg130
g3629
sg131
g3630
sg132
g133
(S'\x07\xde\t\n\x124\x1e\x00\x00\x00'
p3632
tp3633
Rp3634
sg137
g3616
sg138
Nsg139
I00
sg140
I00
sg141
I00
sbsg142
Nsg29
L661811826901020672L
sg143
I0
sg144
VNov292014
p3635
sg126
Ven
p3636
sg147
g3596
sg132
g133
(S'\x07\xdf\x0b\x04\x07.2\x00\x00\x00'
p3637
tp3638
Rp3639
sg50
(dp3640
g152
Nsg153
I00
sg154
g3593
sg155
I00
sg156
Nsg56
L661811826901020672L
sg157
I0
sg158
V<a href="http://biloselhi.com" rel="nofollow">Nov292014</a>
p3641
sg160
I00
sg161
Nsg64
(dp3642
g163
(lp3643
(dp3644
g39
(lp3645
I64
aI69
asg154
VOTIV
p3646
sa(dp3647
g39
(lp3648
I99
aI104
asg154
VCNNX
p3649
sa(dp3650
g39
(lp3651
I105
aI110
asg154
VAAMC
p3652
sa(dp3653
g39
(lp3654
I111
aI116
asg154
VBCEI
p3655
sa(dp3656
g39
(lp3657
I117
aI122
asg154
VXOMA
p3658
sa(dp3659
g39
(lp3660
I123
aI128
asg154
VSYPR
p3661
sa(dp3662
g39
(lp3663
I129
aI134
asg154
VHLTH
p3664
sa(dp3665
g39
(lp3666
I135
aI140
asg154
VTRTC
p3667
sasg168
(lp3668
sg170
(lp3669
sg35
(lp3670
(dp3671
g33
Vhttps://t.co/uAcamNRUPt
p3672
sg39
(lp3673
I19
aI42
asg41
Vhttp://BiloSelhi.com
p3674
sg43
VBiloSelhi.com
p3675
sasg491
(lp3676
(dp3677
g494
L2802272246L
sg495
V581224111302709248
p3678
sg41
Vhttp://twitter.com/StocksThatDoubl/status/581224111302709248/photo/1
p3679
sg43
Vpic.twitter.com/qPCeXiynzS
p3680
sg33
Vhttps://t.co/qPCeXiynzS
p3681
sg500
Vhttps://pbs.twimg.com/media/CBDsP8QWQAAzj8C.png
p3682
sg502
V2802272246
p3683
sg504
L581224111302709248L
sg68
V581224110547681280
p3684
sg506
(dp3685
g508
(dp3686
g510
I703
sg511
Vfit
p3687
sg513
I1024
ssg514
(dp3688
g510
I233
sg511
Vfit
p3689
sg513
I340
ssg517
(dp3690
g510
I412
sg511
Vfit
p3691
sg513
I600
ssg520
(dp3692
g510
I150
sg511
Vcrop
p3693
sg513
I150
sssg39
(lp3694
I75
aI98
asg524
Vphoto
p3695
sg56
L581224110547681280L
sg526
Vhttp://pbs.twimg.com/media/CBDsP8QWQAAzj8C.png
p3696
sassg181
Nsg182
Nsg183
I0
sg68
V661811826901020672
p3697
sg185
I00
sg186
g3615
sg187
Nsg188
Nsg189
I00
sg90
g3636
sg98
VWed Nov 04 07:46:50 +0000 2015
p3698
sg191
Nsg192
Nsg193
(dp3699
g195
Ven
p3700
sg197
Vrecent
p3701
sssg199
g3699
sg200
Nsg201
Nsg31
g3642
sg202
Nsg203
Nsg110
g3697
sg204
I00
sg205
Nsg206
I0
sg207
Nsbag0
(g4
g5
Ntp3702
Rp3703
(dp3704
g9
I00
sg10
Nsg11
I00
sg12
VSmart traders join https://t.co/uAcamNRUPt for alerts like this $OTIV +17% https://t.co/qPCeXiynzS $APDN $SGY $TTPH $NPTN $KONA $BBG $TZOO
p3705
sg14
Vhttp://biloselhi.com
p3706
sg16
I00
sg17
I00
sg18
Nsg19
g0
(g20
g5
Ntp3707
Rp3708
(dp3709
g24
I00
sg25
I00
sg26
I01
sg27
VFFFFFF
p3710
sg29
L2802272246L
sg30
I00
sg31
(dp3711
g33
(dp3712
g35
(lp3713
(dp3714
g33
Vhttp://t.co/jjWTkVWgFN
p3715
sg39
(lp3716
I0
aI22
asg41
Vhttp://BiloSelhi.com
p3717
sg43
VBiloSelhi.com
p3718
sassg45
(dp3719
g35
(lp3720
(dp3721
g33
Vhttps://t.co/0aFaudDmBY
p3722
sg39
(lp3723
I137
aI160
asg41
Vhttp://biloselhi.com/d.htm
p3724
sg43
Vbiloselhi.com/d.htm
p3725
sasssg48
Vhttps://pbs.twimg.com/profile_images/509778632521154560/DYIdZCfQ_normal.png
p3726
sg50
(dp3727
g52
I00
sg53
I00
sg54
I01
sg55
I00
sg56
L2802272246L
sg57
Vhttps://abs.twimg.com/images/themes/theme13/bg.gif
p3728
sg59
I00
sg60
V333333
p3729
sg62
g3726
sg63
g3710
sg64
g3711
sg65
I11220
sg66
VEEEEEE
p3730
sg68
V2802272246
p3731
sg70
VB2DFDA
p3732
sg72
I72
sg73
I00
sg74
Nsg75
I28395
sg45
VFounder, Bilo Selhi's Stock Alerts. 1,302% return in 13 months. Subscribe today for promo. Follow on Google+ for free trial. DISCLAIMER: https://t.co/0aFaudDmBY
p3733
sg77
I11694
sg78
V \u2193 \u2193 MUST SEE Track record
p3734
sg80
V93A644
p3735
sg82
Vhttp://pbs.twimg.com/profile_images/509778632521154560/DYIdZCfQ_normal.png
p3736
sg84
I00
sg85
I00
sg231
Vhttps://pbs.twimg.com/profile_banners/2802272246/1412893156
p3737
sg86
Vhttp://abs.twimg.com/images/themes/theme13/bg.gif
p3738
sg88
VStocksThatDoubl
p3739
sg90
Ven
p3740
sg92
I00
sg93
I77
sg94
VBilo Selhi
p3741
sg96
I00
sg33
Vhttp://t.co/jjWTkVWgFN
p3742
sg98
VWed Sep 10 18:52:30 +0000 2014
p3743
sg100
I00
sg101
Nsg103
I00
sg104
I00
sg105
I00
ssg106
I00
sg107
g3729
sg108
I11220
sg109
g3730
sg110
g3731
sg111
I00
sg112
I72
sg113
I00
sg114
Nsg115
I28395
sg116
g3733
sg117
I11694
sg118
g3734
sg119
g3735
sg120
g3736
sg121
I00
sg122
I00
sg123
g3732
sg239
g3737
sg124
g3738
sg125
g3739
sg126
g3740
sg127
I00
sg128
I00
sg129
I77
sg130
g3741
sg131
g3742
sg132
g133
(S'\x07\xde\t\n\x124\x1e\x00\x00\x00'
p3744
tp3745
Rp3746
sg137
g3728
sg138
Nsg139
I00
sg140
I00
sg141
I00
sbsg142
Nsg29
L661627390616031233L
sg143
I0
sg144
VNov292014
p3747
sg126
Vin
p3748
sg147
g3708
sg132
g133
(S'\x07\xdf\x0b\x03\x13!9\x00\x00\x00'
p3749
tp3750
Rp3751
sg50
(dp3752
g152
Nsg153
I00
sg154
g3705
sg155
I00
sg156
Nsg56
L661627390616031233L
sg157
I0
sg158
V<a href="http://biloselhi.com" rel="nofollow">Nov292014</a>
p3753
sg160
I00
sg161
Nsg64
(dp3754
g163
(lp3755
(dp3756
g39
(lp3757
I64
aI69
asg154
VOTIV
p3758
sa(dp3759
g39
(lp3760
I99
aI104
asg154
VAPDN
p3761
sa(dp3762
g39
(lp3763
I105
aI109
asg154
VSGY
p3764
sa(dp3765
g39
(lp3766
I110
aI115
asg154
VTTPH
p3767
sa(dp3768
g39
(lp3769
I116
aI121
asg154
VNPTN
p3770
sa(dp3771
g39
(lp3772
I122
aI127
asg154
VKONA
p3773
sa(dp3774
g39
(lp3775
I128
aI132
asg154
VBBG
p3776
sa(dp3777
g39
(lp3778
I133
aI138
asg154
VTZOO
p3779
sasg168
(lp3780
sg170
(lp3781
sg35
(lp3782
(dp3783
g33
Vhttps://t.co/uAcamNRUPt
p3784
sg39
(lp3785
I19
aI42
asg41
Vhttp://BiloSelhi.com
p3786
sg43
VBiloSelhi.com
p3787
sasg491
(lp3788
(dp3789
g494
L2802272246L
sg495
V581224111302709248
p3790
sg41
Vhttp://twitter.com/StocksThatDoubl/status/581224111302709248/photo/1
p3791
sg43
Vpic.twitter.com/qPCeXiynzS
p3792
sg33
Vhttps://t.co/qPCeXiynzS
p3793
sg500
Vhttps://pbs.twimg.com/media/CBDsP8QWQAAzj8C.png
p3794
sg502
V2802272246
p3795
sg504
L581224111302709248L
sg68
V581224110547681280
p3796
sg506
(dp3797
g508
(dp3798
g510
I703
sg511
Vfit
p3799
sg513
I1024
ssg514
(dp3800
g510
I233
sg511
Vfit
p3801
sg513
I340
ssg517
(dp3802
g510
I412
sg511
Vfit
p3803
sg513
I600
ssg520
(dp3804
g510
I150
sg511
Vcrop
p3805
sg513
I150
sssg39
(lp3806
I75
aI98
asg524
Vphoto
p3807
sg56
L581224110547681280L
sg526
Vhttp://pbs.twimg.com/media/CBDsP8QWQAAzj8C.png
p3808
sassg181
Nsg182
Nsg183
I0
sg68
V661627390616031233
p3809
sg185
I00
sg186
g3727
sg187
Nsg188
Nsg189
I00
sg90
g3748
sg98
VTue Nov 03 19:33:57 +0000 2015
p3810
sg191
Nsg192
Nsg193
(dp3811
g195
Vin
p3812
sg197
Vrecent
p3813
sssg199
g3811
sg200
Nsg201
Nsg31
g3754
sg202
Nsg203
Nsg110
g3809
sg204
I00
sg205
Nsg206
I0
sg207
Nsbag0
(g4
g5
Ntp3814
Rp3815
(dp3816
g9
I00
sg10
Nsg11
I00
sg12
VSmart traders join https://t.co/uAcamNRUPt for alerts like this $OTIV +17% https://t.co/qPCeXiynzS $APDN $SGY $TTPH $NPTN $KONA $BBG $TZOO
p3817
sg14
Vhttp://biloselhi.com
p3818
sg16
I00
sg17
I00
sg18
Nsg19
g0
(g20
g5
Ntp3819
Rp3820
(dp3821
g24
I00
sg25
I00
sg26
I01
sg27
VFFFFFF
p3822
sg29
L2802272246L
sg30
I00
sg31
(dp3823
g33
(dp3824
g35
(lp3825
(dp3826
g33
Vhttp://t.co/jjWTkVWgFN
p3827
sg39
(lp3828
I0
aI22
asg41
Vhttp://BiloSelhi.com
p3829
sg43
VBiloSelhi.com
p3830
sassg45
(dp3831
g35
(lp3832
(dp3833
g33
Vhttps://t.co/0aFaudDmBY
p3834
sg39
(lp3835
I137
aI160
asg41
Vhttp://biloselhi.com/d.htm
p3836
sg43
Vbiloselhi.com/d.htm
p3837
sasssg48
Vhttps://pbs.twimg.com/profile_images/509778632521154560/DYIdZCfQ_normal.png
p3838
sg50
(dp3839
g52
I00
sg53
I00
sg54
I01
sg55
I00
sg56
L2802272246L
sg57
Vhttps://abs.twimg.com/images/themes/theme13/bg.gif
p3840
sg59
I00
sg60
V333333
p3841
sg62
g3838
sg63
g3822
sg64
g3823
sg65
I11220
sg66
VEEEEEE
p3842
sg68
V2802272246
p3843
sg70
VB2DFDA
p3844
sg72
I72
sg73
I00
sg74
Nsg75
I28395
sg45
VFounder, Bilo Selhi's Stock Alerts. 1,302% return in 13 months. Subscribe today for promo. Follow on Google+ for free trial. DISCLAIMER: https://t.co/0aFaudDmBY
p3845
sg77
I11694
sg78
V \u2193 \u2193 MUST SEE Track record
p3846
sg80
V93A644
p3847
sg82
Vhttp://pbs.twimg.com/profile_images/509778632521154560/DYIdZCfQ_normal.png
p3848
sg84
I00
sg85
I00
sg231
Vhttps://pbs.twimg.com/profile_banners/2802272246/1412893156
p3849
sg86
Vhttp://abs.twimg.com/images/themes/theme13/bg.gif
p3850
sg88
VStocksThatDoubl
p3851
sg90
Ven
p3852
sg92
I00
sg93
I77
sg94
VBilo Selhi
p3853
sg96
I00
sg33
Vhttp://t.co/jjWTkVWgFN
p3854
sg98
VWed Sep 10 18:52:30 +0000 2014
p3855
sg100
I00
sg101
Nsg103
I00
sg104
I00
sg105
I00
ssg106
I00
sg107
g3841
sg108
I11220
sg109
g3842
sg110
g3843
sg111
I00
sg112
I72
sg113
I00
sg114
Nsg115
I28395
sg116
g3845
sg117
I11694
sg118
g3846
sg119
g3847
sg120
g3848
sg121
I00
sg122
I00
sg123
g3844
sg239
g3849
sg124
g3850
sg125
g3851
sg126
g3852
sg127
I00
sg128
I00
sg129
I77
sg130
g3853
sg131
g3854
sg132
g133
(S'\x07\xde\t\n\x124\x1e\x00\x00\x00'
p3856
tp3857
Rp3858
sg137
g3840
sg138
Nsg139
I00
sg140
I00
sg141
I00
sbsg142
Nsg29
L661562132912316417L
sg143
I0
sg144
VNov292014
p3859
sg126
Vin
p3860
sg147
g3820
sg132
g133
(S'\x07\xdf\x0b\x03\x0f\x0e&\x00\x00\x00'
p3861
tp3862
Rp3863
sg50
(dp3864
g152
Nsg153
I00
sg154
g3817
sg155
I00
sg156
Nsg56
L661562132912316417L
sg157
I0
sg158
V<a href="http://biloselhi.com" rel="nofollow">Nov292014</a>
p3865
sg160
I00
sg161
Nsg64
(dp3866
g163
(lp3867
(dp3868
g39
(lp3869
I64
aI69
asg154
VOTIV
p3870
sa(dp3871
g39
(lp3872
I99
aI104
asg154
VAPDN
p3873
sa(dp3874
g39
(lp3875
I105
aI109
asg154
VSGY
p3876
sa(dp3877
g39
(lp3878
I110
aI115
asg154
VTTPH
p3879
sa(dp3880
g39
(lp3881
I116
aI121
asg154
VNPTN
p3882
sa(dp3883
g39
(lp3884
I122
aI127
asg154
VKONA
p3885
sa(dp3886
g39
(lp3887
I128
aI132
asg154
VBBG
p3888
sa(dp3889
g39
(lp3890
I133
aI138
asg154
VTZOO
p3891
sasg168
(lp3892
sg170
(lp3893
sg35
(lp3894
(dp3895
g33
Vhttps://t.co/uAcamNRUPt
p3896
sg39
(lp3897
I19
aI42
asg41
Vhttp://BiloSelhi.com
p3898
sg43
VBiloSelhi.com
p3899
sasg491
(lp3900
(dp3901
g494
L2802272246L
sg495
V581224111302709248
p3902
sg41
Vhttp://twitter.com/StocksThatDoubl/status/581224111302709248/photo/1
p3903
sg43
Vpic.twitter.com/qPCeXiynzS
p3904
sg33
Vhttps://t.co/qPCeXiynzS
p3905
sg500
Vhttps://pbs.twimg.com/media/CBDsP8QWQAAzj8C.png
p3906
sg502
V2802272246
p3907
sg504
L581224111302709248L
sg68
V581224110547681280
p3908
sg506
(dp3909
g508
(dp3910
g510
I703
sg511
Vfit
p3911
sg513
I1024
ssg514
(dp3912
g510
I233
sg511
Vfit
p3913
sg513
I340
ssg517
(dp3914
g510
I412
sg511
Vfit
p3915
sg513
I600
ssg520
(dp3916
g510
I150
sg511
Vcrop
p3917
sg513
I150
sssg39
(lp3918
I75
aI98
asg524
Vphoto
p3919
sg56
L581224110547681280L
sg526
Vhttp://pbs.twimg.com/media/CBDsP8QWQAAzj8C.png
p3920
sassg181
Nsg182
Nsg183
I0
sg68
V661562132912316417
p3921
sg185
I00
sg186
g3839
sg187
Nsg188
Nsg189
I00
sg90
g3860
sg98
VTue Nov 03 15:14:38 +0000 2015
p3922
sg191
Nsg192
Nsg193
(dp3923
g195
Vin
p3924
sg197
Vrecent
p3925
sssg199
g3923
sg200
Nsg201
Nsg31
g3866
sg202
Nsg203
Nsg110
g3921
sg204
I00
sg205
Nsg206
I0
sg207
Nsbag0
(g4
g5
Ntp3926
Rp3927
(dp3928
g9
I00
sg10
Nsg11
I00
sg12
Vfor the sub 1 peeps  ...  $OTIV looks very ready
p3929
sg14
Vhttp://twitter.com
p3930
sg17
I00
sg18
Nsg19
g0
(g20
g5
Ntp3931
Rp3932
(dp3933
g24
I00
sg25
I00
sg26
I01
sg27
VDDEEF6
p3934
sg29
I848311970
sg30
I00
sg31
(dp3935
g45
(dp3936
g35
(lp3937
sssg48
Vhttps://pbs.twimg.com/profile_images/591636289088147456/xaHAv__B_normal.png
p3938
sg50
(dp3939
g52
I00
sg53
I00
sg54
I01
sg55
I00
sg56
I848311970
sg57
Vhttps://abs.twimg.com/images/themes/theme1/bg.png
p3940
sg59
I00
sg60
V333333
p3941
sg62
g3938
sg63
g3934
sg64
g3935
sg65
I420
sg66
VC0DEED
p3942
sg68
V848311970
p3943
sg70
VC0DEED
p3944
sg72
I30
sg73
I00
sg74
I-18000
sg75
I10815
sg45
Vprefer long biased trades based on technicals. stocks, options, futures
p3945
sg77
I46
sg78
VWindermere Florida
p3946
sg80
V0084B4
p3947
sg82
Vhttp://pbs.twimg.com/profile_images/591636289088147456/xaHAv__B_normal.png
p3948
sg84
I00
sg85
I01
sg231
Vhttps://pbs.twimg.com/profile_banners/848311970/1406807429
p3949
sg86
Vhttp://abs.twimg.com/images/themes/theme1/bg.png
p3950
sg88
VOptionsavvy
p3951
sg90
Ven
p3952
sg92
I00
sg93
I1418
sg94
VScott R
p3953
sg96
I00
sg33
Nsg98
VWed Sep 26 23:30:09 +0000 2012
p3954
sg100
I00
sg101
VEastern Time (US & Canada)
p3955
sg103
I00
sg104
I01
sg105
I00
ssg106
I00
sg107
g3941
sg108
I420
sg109
g3942
sg110
g3943
sg111
I00
sg112
I30
sg113
I00
sg114
I-18000
sg115
I10815
sg116
g3945
sg117
I46
sg118
g3946
sg119
g3947
sg120
g3948
sg121
I00
sg122
I01
sg123
g3944
sg239
g3949
sg124
g3950
sg125
g3951
sg126
g3952
sg127
I00
sg128
I00
sg129
I1418
sg130
g3953
sg131
Nsg132
g133
(S'\x07\xdc\t\x1a\x17\x1e\t\x00\x00\x00'
p3956
tp3957
Rp3958
sg137
g3940
sg138
g3955
sg139
I00
sg140
I01
sg141
I00
sbsg142
Nsg29
L661533149697044480L
sg143
I0
sg144
VTwitter Web Client
p3959
sg126
Ven
p3960
sg147
g3932
sg132
g133
(S'\x07\xdf\x0b\x03\r\x13\x1c\x00\x00\x00'
p3961
tp3962
Rp3963
sg50
(dp3964
g152
Nsg153
I00
sg154
g3929
sg155
I00
sg156
Nsg56
L661533149697044480L
sg157
I0
sg158
V<a href="http://twitter.com" rel="nofollow">Twitter Web Client</a>
p3965
sg160
I00
sg161
Nsg64
(dp3966
g163
(lp3967
(dp3968
g39
(lp3969
I26
aI31
asg154
VOTIV
p3970
sasg168
(lp3971
sg170
(lp3972
sg35
(lp3973
ssg181
Nsg182
Nsg183
I0
sg68
V661533149697044480
p3974
sg185
I00
sg186
g3939
sg187
Nsg188
Nsg90
g3960
sg98
VTue Nov 03 13:19:28 +0000 2015
p3975
sg191
Nsg192
Nsg193
(dp3976
g195
Ven
p3977
sg197
Vrecent
p3978
sssg199
g3976
sg200
Nsg201
Nsg31
g3966
sg202
Nsg203
Nsg110
g3974
sg204
I00
sg205
Nsg206
I0
sg207
Nsbag0
(g4
g5
Ntp3979
Rp3980
(dp3981
g9
I00
sg10
Nsg11
I00
sg12
V11-03-15 charts ww: $ALIM, $ARTX, $CJJD, $CTRV, $OTIV, $OREX, $PCO, $WGBS, $ZSAN
p3982
sg14
Vhttp://twitter.com
p3983
sg17
I00
sg18
Nsg19
g0
(g20
g5
Ntp3984
Rp3985
(dp3986
g24
I00
sg25
I00
sg26
I00
sg27
V000000
p3987
sg29
I310358069
sg30
I00
sg31
(dp3988
g45
(dp3989
g35
(lp3990
sssg48
Vhttps://pbs.twimg.com/profile_images/378800000801162702/1593bf749f999164b48cae78dcee4674_normal.jpeg
p3991
sg50
(dp3992
g52
I00
sg53
I00
sg54
I00
sg55
I00
sg56
I310358069
sg57
Vhttps://abs.twimg.com/images/themes/theme1/bg.png
p3993
sg59
I00
sg60
V000000
p3994
sg62
g3991
sg63
g3987
sg64
g3988
sg65
I356
sg66
V000000
p3995
sg68
V310358069
p3996
sg70
V000000
p3997
sg72
I11
sg73
I00
sg74
I3600
sg75
I3939
sg45
VI try to spot well positioned smallcaps, bottomed charts, low float pumps. Informational only, not a recommendation to buy or sell any security.
p3998
sg77
I8
sg78
g228
sg80
V3B94D9
p3999
sg82
Vhttp://pbs.twimg.com/profile_images/378800000801162702/1593bf749f999164b48cae78dcee4674_normal.jpeg
p4000
sg84
I00
sg85
I00
sg86
Vhttp://abs.twimg.com/images/themes/theme1/bg.png
p4001
sg88
Vlglmrc
p4002
sg90
Vit
p4003
sg92
I00
sg93
I1376
sg94
Vlglmrc
p4004
sg96
I00
sg33
Nsg98
VFri Jun 03 16:19:37 +0000 2011
p4005
sg100
I00
sg101
VAmsterdam
p4006
sg103
I00
sg104
I00
sg105
I00
ssg106
I00
sg107
g3994
sg108
I356
sg109
g3995
sg110
g3996
sg111
I00
sg112
I11
sg113
I00
sg114
I3600
sg115
I3939
sg116
g3998
sg117
I8
sg118
g228
sg119
g3999
sg120
g4000
sg121
I00
sg122
I00
sg123
g3997
sg124
g4001
sg125
g4002
sg126
g4003
sg127
I00
sg128
I00
sg129
I1376
sg130
g4004
sg131
Nsg132
g133
(S'\x07\xdb\x06\x03\x10\x13%\x00\x00\x00'
p4007
tp4008
Rp4009
sg137
g3993
sg138
g4006
sg139
I00
sg140
I00
sg141
I00
sbsg142
Nsg29
L661460566846885889L
sg143
I0
sg144
VTwitter Web Client
p4010
sg126
Ven
p4011
sg147
g3985
sg132
g133
(S'\x07\xdf\x0b\x03\x08\x1f\x03\x00\x00\x00'
p4012
tp4013
Rp4014
sg50
(dp4015
g152
Nsg153
I00
sg154
g3982
sg155
I00
sg156
Nsg56
L661460566846885889L
sg157
I0
sg158
V<a href="http://twitter.com" rel="nofollow">Twitter Web Client</a>
p4016
sg160
I00
sg161
Nsg64
(dp4017
g163
(lp4018
(dp4019
g39
(lp4020
I20
aI25
asg154
VALIM
p4021
sa(dp4022
g39
(lp4023
I27
aI32
asg154
VARTX
p4024
sa(dp4025
g39
(lp4026
I34
aI39
asg154
VCJJD
p4027
sa(dp4028
g39
(lp4029
I41
aI46
asg154
VCTRV
p4030
sa(dp4031
g39
(lp4032
I48
aI53
asg154
VOTIV
p4033
sa(dp4034
g39
(lp4035
I55
aI60
asg154
VOREX
p4036
sa(dp4037
g39
(lp4038
I62
aI66
asg154
VPCO
p4039
sa(dp4040
g39
(lp4041
I68
aI73
asg154
VWGBS
p4042
sa(dp4043
g39
(lp4044
I75
aI80
asg154
VZSAN
p4045
sasg168
(lp4046
sg170
(lp4047
sg35
(lp4048
ssg181
Nsg182
Nsg183
I0
sg68
V661460566846885889
p4049
sg185
I00
sg186
g3992
sg187
Nsg188
Nsg90
g4011
sg98
VTue Nov 03 08:31:03 +0000 2015
p4050
sg191
Nsg192
Nsg193
(dp4051
g195
Ven
p4052
sg197
Vrecent
p4053
sssg199
g4051
sg200
Nsg201
Nsg31
g4017
sg202
Nsg203
Nsg110
g4049
sg204
I00
sg205
Nsg206
I0
sg207
Nsbag0
(g4
g5
Ntp4054
Rp4055
(dp4056
g9
I00
sg10
Nsg11
I00
sg12
V$OTIV: Wall Street analysts bullish on OTIV's earnings growth: https://t.co/z4oa3dEysN https://t.co/tvLdD8Af4x
p4057
sg14
Vhttp://example.com
p4058
sg16
I00
sg17
I00
sg18
Nsg19
g0
(g20
g5
Ntp4059
Rp4060
(dp4061
g24
I00
sg25
I00
sg26
I01
sg27
VDDEEF6
p4062
sg29
L3290849920L
sg30
I00
sg31
(dp4063
g45
(dp4064
g35
(lp4065
sssg48
Vhttps://pbs.twimg.com/profile_images/606146912773926912/tpzIX1Xs_normal.jpg
p4066
sg50
(dp4067
g52
I00
sg53
I00
sg54
I01
sg55
I00
sg56
L3290849920L
sg57
Vhttps://abs.twimg.com/images/themes/theme1/bg.png
p4068
sg59
I00
sg60
V333333
p4069
sg62
g4066
sg63
g4062
sg64
g4063
sg65
I166
sg66
VC0DEED
p4070
sg68
V3290849920
p4071
sg70
VC0DEED
p4072
sg72
I12
sg73
I00
sg74
I-28800
sg75
I44252
sg45
g228
sg77
I0
sg78
g228
sg80
V0084B4
p4073
sg82
Vhttp://pbs.twimg.com/profile_images/606146912773926912/tpzIX1Xs_normal.jpg
p4074
sg84
I00
sg85
I00
sg86
Vhttp://abs.twimg.com/images/themes/theme1/bg.png
p4075
sg88
VTimeForGrowth
p4076
sg90
Ven
p4077
sg92
I00
sg93
I0
sg94
VTimeForGrowth
p4078
sg96
I00
sg33
Nsg98
VWed May 20 03:22:57 +0000 2015
p4079
sg100
I00
sg101
VPacific Time (US & Canada)
p4080
sg103
I00
sg104
I01
sg105
I00
ssg106
I00
sg107
g4069
sg108
I166
sg109
g4070
sg110
g4071
sg111
I00
sg112
I12
sg113
I00
sg114
I-28800
sg115
I44252
sg116
g228
sg117
I0
sg118
g228
sg119
g4073
sg120
g4074
sg121
I00
sg122
I00
sg123
g4072
sg124
g4075
sg125
g4076
sg126
g4077
sg127
I00
sg128
I00
sg129
I0
sg130
g4078
sg131
Nsg132
g133
(S'\x07\xdf\x05\x14\x03\x169\x00\x00\x00'
p4081
tp4082
Rp4083
sg137
g4068
sg138
g4080
sg139
I00
sg140
I01
sg141
I00
sbsg142
Nsg29
L661383809720565760L
sg143
I0
sg144
VCrunchingTime
p4084
sg126
Ven
p4085
sg147
g4060
sg132
g133
(S'\x07\xdf\x0b\x03\x03\x1a\x02\x00\x00\x00'
p4086
tp4087
Rp4088
sg50
(dp4089
g152
Nsg153
I00
sg154
g4057
sg155
I00
sg156
Nsg56
L661383809720565760L
sg157
I0
sg158
V<a href="http://example.com" rel="nofollow">CrunchingTime</a>
p4090
sg160
I00
sg161
Nsg64
(dp4091
g163
(lp4092
(dp4093
g39
(lp4094
I0
aI5
asg154
VOTIV
p4095
sasg168
(lp4096
sg170
(lp4097
sg35
(lp4098
(dp4099
g33
Vhttps://t.co/z4oa3dEysN
p4100
sg39
(lp4101
I63
aI86
asg41
Vhttp://growthnumbers.com/OTIV
p4102
sg43
Vgrowthnumbers.com/OTIV
p4103
sasg491
(lp4104
(dp4105
g41
Vhttp://twitter.com/TimeForGrowth/status/661383809720565760/photo/1
p4106
sg43
Vpic.twitter.com/tvLdD8Af4x
p4107
sg33
Vhttps://t.co/tvLdD8Af4x
p4108
sg500
Vhttps://pbs.twimg.com/media/CS21EhvWUAAcJKj.jpg
p4109
sg68
V661383809674399744
p4110
sg506
(dp4111
g508
(dp4112
g510
I4
sg511
Vfit
p4113
sg513
I4
ssg514
(dp4114
g510
I4
sg511
Vfit
p4115
sg513
I4
ssg517
(dp4116
g510
I4
sg511
Vfit
p4117
sg513
I4
ssg520
(dp4118
g510
I4
sg511
Vcrop
p4119
sg513
I4
sssg39
(lp4120
I87
aI110
asg524
Vphoto
p4121
sg56
L661383809674399744L
sg526
Vhttp://pbs.twimg.com/media/CS21EhvWUAAcJKj.jpg
p4122
sassg181
Nsg182
Nsg183
I0
sg68
V661383809720565760
p4123
sg185
I00
sg186
g4067
sg187
Nsg188
Nsg189
I00
sg90
g4085
sg98
VTue Nov 03 03:26:02 +0000 2015
p4124
sg191
Nsg192
Nsg193
(dp4125
g195
Ven
p4126
sg197
Vrecent
p4127
sssg199
g4125
sg200
Nsg201
Nsg31
g4091
sg202
Nsg203
Nsg110
g4123
sg204
I00
sg205
Nsg206
I0
sg207
Nsbag0
(g4
g5
Ntp4128
Rp4129
(dp4130
g9
I00
sg10
Nsg11
I00
sg12
VSmart traders join https://t.co/uAcamNRUPt for alerts like this $OTIV +17% https://t.co/qPCeXiynzS $ACI $EYES $BLCM $OCUL $PETX $DRNA $UNXL
p4131
sg14
Vhttp://biloselhi.com
p4132
sg16
I00
sg17
I00
sg18
Nsg19
g0
(g20
g5
Ntp4133
Rp4134
(dp4135
g24
I00
sg25
I00
sg26
I01
sg27
VFFFFFF
p4136
sg29
L2802272246L
sg30
I00
sg31
(dp4137
g33
(dp4138
g35
(lp4139
(dp4140
g33
Vhttp://t.co/jjWTkVWgFN
p4141
sg39
(lp4142
I0
aI22
asg41
Vhttp://BiloSelhi.com
p4143
sg43
VBiloSelhi.com
p4144
sassg45
(dp4145
g35
(lp4146
(dp4147
g33
Vhttps://t.co/0aFaudDmBY
p4148
sg39
(lp4149
I137
aI160
asg41
Vhttp://biloselhi.com/d.htm
p4150
sg43
Vbiloselhi.com/d.htm
p4151
sasssg48
Vhttps://pbs.twimg.com/profile_images/509778632521154560/DYIdZCfQ_normal.png
p4152
sg50
(dp4153
g52
I00
sg53
I00
sg54
I01
sg55
I00
sg56
L2802272246L
sg57
Vhttps://abs.twimg.com/images/themes/theme13/bg.gif
p4154
sg59
I00
sg60
V333333
p4155
sg62
g4152
sg63
g4136
sg64
g4137
sg65
I11220
sg66
VEEEEEE
p4156
sg68
V2802272246
p4157
sg70
VB2DFDA
p4158
sg72
I72
sg73
I00
sg74
Nsg75
I28395
sg45
VFounder, Bilo Selhi's Stock Alerts. 1,302% return in 13 months. Subscribe today for promo. Follow on Google+ for free trial. DISCLAIMER: https://t.co/0aFaudDmBY
p4159
sg77
I11694
sg78
V \u2193 \u2193 MUST SEE Track record
p4160
sg80
V93A644
p4161
sg82
Vhttp://pbs.twimg.com/profile_images/509778632521154560/DYIdZCfQ_normal.png
p4162
sg84
I00
sg85
I00
sg231
Vhttps://pbs.twimg.com/profile_banners/2802272246/1412893156
p4163
sg86
Vhttp://abs.twimg.com/images/themes/theme13/bg.gif
p4164
sg88
VStocksThatDoubl
p4165
sg90
Ven
p4166
sg92
I00
sg93
I77
sg94
VBilo Selhi
p4167
sg96
I00
sg33
Vhttp://t.co/jjWTkVWgFN
p4168
sg98
VWed Sep 10 18:52:30 +0000 2014
p4169
sg100
I00
sg101
Nsg103
I00
sg104
I00
sg105
I00
ssg106
I00
sg107
g4155
sg108
I11220
sg109
g4156
sg110
g4157
sg111
I00
sg112
I72
sg113
I00
sg114
Nsg115
I28395
sg116
g4159
sg117
I11694
sg118
g4160
sg119
g4161
sg120
g4162
sg121
I00
sg122
I00
sg123
g4158
sg239
g4163
sg124
g4164
sg125
g4165
sg126
g4166
sg127
I00
sg128
I00
sg129
I77
sg130
g4167
sg131
g4168
sg132
g133
(S'\x07\xde\t\n\x124\x1e\x00\x00\x00'
p4170
tp4171
Rp4172
sg137
g4154
sg138
Nsg139
I00
sg140
I00
sg141
I00
sbsg142
Nsg29
L661350788686573568L
sg143
I0
sg144
VNov292014
p4173
sg126
Ven
p4174
sg147
g4134
sg132
g133
(S'\x07\xdf\x0b\x03\x01\x0e1\x00\x00\x00'
p4175
tp4176
Rp4177
sg50
(dp4178
g152
Nsg153
I00
sg154
g4131
sg155
I00
sg156
Nsg56
L661350788686573568L
sg157
I0
sg158
V<a href="http://biloselhi.com" rel="nofollow">Nov292014</a>
p4179
sg160
I00
sg161
Nsg64
(dp4180
g163
(lp4181
(dp4182
g39
(lp4183
I64
aI69
asg154
VOTIV
p4184
sa(dp4185
g39
(lp4186
I99
aI103
asg154
VACI
p4187
sa(dp4188
g39
(lp4189
I104
aI109
asg154
VEYES
p4190
sa(dp4191
g39
(lp4192
I110
aI115
asg154
VBLCM
p4193
sa(dp4194
g39
(lp4195
I116
aI121
asg154
VOCUL
p4196
sa(dp4197
g39
(lp4198
I122
aI127
asg154
VPETX
p4199
sa(dp4200
g39
(lp4201
I128
aI133
asg154
VDRNA
p4202
sa(dp4203
g39
(lp4204
I134
aI139
asg154
VUNXL
p4205
sasg168
(lp4206
sg170
(lp4207
sg35
(lp4208
(dp4209
g33
Vhttps://t.co/uAcamNRUPt
p4210
sg39
(lp4211
I19
aI42
asg41
Vhttp://BiloSelhi.com
p4212
sg43
VBiloSelhi.com
p4213
sasg491
(lp4214
(dp4215
g494
L2802272246L
sg495
V581224111302709248
p4216
sg41
Vhttp://twitter.com/StocksThatDoubl/status/581224111302709248/photo/1
p4217
sg43
Vpic.twitter.com/qPCeXiynzS
p4218
sg33
Vhttps://t.co/qPCeXiynzS
p4219
sg500
Vhttps://pbs.twimg.com/media/CBDsP8QWQAAzj8C.png
p4220
sg502
V2802272246
p4221
sg504
L581224111302709248L
sg68
V581224110547681280
p4222
sg506
(dp4223
g508
(dp4224
g510
I703
sg511
Vfit
p4225
sg513
I1024
ssg514
(dp4226
g510
I233
sg511
Vfit
p4227
sg513
I340
ssg517
(dp4228
g510
I412
sg511
Vfit
p4229
sg513
I600
ssg520
(dp4230
g510
I150
sg511
Vcrop
p4231
sg513
I150
sssg39
(lp4232
I75
aI98
asg524
Vphoto
p4233
sg56
L581224110547681280L
sg526
Vhttp://pbs.twimg.com/media/CBDsP8QWQAAzj8C.png
p4234
sassg181
Nsg182
Nsg183
I0
sg68
V661350788686573568
p4235
sg185
I00
sg186
g4153
sg187
Nsg188
Nsg189
I00
sg90
g4174
sg98
VTue Nov 03 01:14:49 +0000 2015
p4236
sg191
Nsg192
Nsg193
(dp4237
g195
Ven
p4238
sg197
Vrecent
p4239
sssg199
g4237
sg200
Nsg201
Nsg31
g4180
sg202
Nsg203
Nsg110
g4235
sg204
I00
sg205
Nsg206
I0
sg207
Nsbag0
(g4
g5
Ntp4240
Rp4241
(dp4242
g9
I00
sg10
Nsg11
I00
sg12
VSmart traders join https://t.co/uAcamNRUPt for alerts like this $OTIV +17% https://t.co/qPCeXiynzS $ACI $EYES $BLCM $OCUL $PETX $DRNA $UNXL
p4243
sg14
Vhttp://biloselhi.com
p4244
sg16
I00
sg17
I00
sg18
Nsg19
g0
(g20
g5
Ntp4245
Rp4246
(dp4247
g24
I00
sg25
I00
sg26
I01
sg27
VFFFFFF
p4248
sg29
L2802272246L
sg30
I00
sg31
(dp4249
g33
(dp4250
g35
(lp4251
(dp4252
g33
Vhttp://t.co/jjWTkVWgFN
p4253
sg39
(lp4254
I0
aI22
asg41
Vhttp://BiloSelhi.com
p4255
sg43
VBiloSelhi.com
p4256
sassg45
(dp4257
g35
(lp4258
(dp4259
g33
Vhttps://t.co/0aFaudDmBY
p4260
sg39
(lp4261
I137
aI160
asg41
Vhttp://biloselhi.com/d.htm
p4262
sg43
Vbiloselhi.com/d.htm
p4263
sasssg48
Vhttps://pbs.twimg.com/profile_images/509778632521154560/DYIdZCfQ_normal.png
p4264
sg50
(dp4265
g52
I00
sg53
I00
sg54
I01
sg55
I00
sg56
L2802272246L
sg57
Vhttps://abs.twimg.com/images/themes/theme13/bg.gif
p4266
sg59
I00
sg60
V333333
p4267
sg62
g4264
sg63
g4248
sg64
g4249
sg65
I11220
sg66
VEEEEEE
p4268
sg68
V2802272246
p4269
sg70
VB2DFDA
p4270
sg72
I72
sg73
I00
sg74
Nsg75
I28395
sg45
VFounder, Bilo Selhi's Stock Alerts. 1,302% return in 13 months. Subscribe today for promo. Follow on Google+ for free trial. DISCLAIMER: https://t.co/0aFaudDmBY
p4271
sg77
I11694
sg78
V \u2193 \u2193 MUST SEE Track record
p4272
sg80
V93A644
p4273
sg82
Vhttp://pbs.twimg.com/profile_images/509778632521154560/DYIdZCfQ_normal.png
p4274
sg84
I00
sg85
I00
sg231
Vhttps://pbs.twimg.com/profile_banners/2802272246/1412893156
p4275
sg86
Vhttp://abs.twimg.com/images/themes/theme13/bg.gif
p4276
sg88
VStocksThatDoubl
p4277
sg90
Ven
p4278
sg92
I00
sg93
I77
sg94
VBilo Selhi
p4279
sg96
I00
sg33
Vhttp://t.co/jjWTkVWgFN
p4280
sg98
VWed Sep 10 18:52:30 +0000 2014
p4281
sg100
I00
sg101
Nsg103
I00
sg104
I00
sg105
I00
ssg106
I00
sg107
g4267
sg108
I11220
sg109
g4268
sg110
g4269
sg111
I00
sg112
I72
sg113
I00
sg114
Nsg115
I28395
sg116
g4271
sg117
I11694
sg118
g4272
sg119
g4273
sg120
g4274
sg121
I00
sg122
I00
sg123
g4270
sg239
g4275
sg124
g4276
sg125
g4277
sg126
g4278
sg127
I00
sg128
I00
sg129
I77
sg130
g4279
sg131
g4280
sg132
g133
(S'\x07\xde\t\n\x124\x1e\x00\x00\x00'
p4282
tp4283
Rp4284
sg137
g4266
sg138
Nsg139
I00
sg140
I00
sg141
I00
sbsg142
Nsg29
L661287228929392640L
sg143
I0
sg144
VNov292014
p4285
sg126
Ven
p4286
sg147
g4246
sg132
g133
(S'\x07\xdf\x0b\x02\x15\x02\x10\x00\x00\x00'
p4287
tp4288
Rp4289
sg50
(dp4290
g152
Nsg153
I00
sg154
g4243
sg155
I00
sg156
Nsg56
L661287228929392640L
sg157
I0
sg158
V<a href="http://biloselhi.com" rel="nofollow">Nov292014</a>
p4291
sg160
I00
sg161
Nsg64
(dp4292
g163
(lp4293
(dp4294
g39
(lp4295
I64
aI69
asg154
VOTIV
p4296
sa(dp4297
g39
(lp4298
I99
aI103
asg154
VACI
p4299
sa(dp4300
g39
(lp4301
I104
aI109
asg154
VEYES
p4302
sa(dp4303
g39
(lp4304
I110
aI115
asg154
VBLCM
p4305
sa(dp4306
g39
(lp4307
I116
aI121
asg154
VOCUL
p4308
sa(dp4309
g39
(lp4310
I122
aI127
asg154
VPETX
p4311
sa(dp4312
g39
(lp4313
I128
aI133
asg154
VDRNA
p4314
sa(dp4315
g39
(lp4316
I134
aI139
asg154
VUNXL
p4317
sasg168
(lp4318
sg170
(lp4319
sg35
(lp4320
(dp4321
g33
Vhttps://t.co/uAcamNRUPt
p4322
sg39
(lp4323
I19
aI42
asg41
Vhttp://BiloSelhi.com
p4324
sg43
VBiloSelhi.com
p4325
sasg491
(lp4326
(dp4327
g494
L2802272246L
sg495
V581224111302709248
p4328
sg41
Vhttp://twitter.com/StocksThatDoubl/status/581224111302709248/photo/1
p4329
sg43
Vpic.twitter.com/qPCeXiynzS
p4330
sg33
Vhttps://t.co/qPCeXiynzS
p4331
sg500
Vhttps://pbs.twimg.com/media/CBDsP8QWQAAzj8C.png
p4332
sg502
V2802272246
p4333
sg504
L581224111302709248L
sg68
V581224110547681280
p4334
sg506
(dp4335
g508
(dp4336
g510
I703
sg511
Vfit
p4337
sg513
I1024
ssg514
(dp4338
g510
I233
sg511
Vfit
p4339
sg513
I340
ssg517
(dp4340
g510
I412
sg511
Vfit
p4341
sg513
I600
ssg520
(dp4342
g510
I150
sg511
Vcrop
p4343
sg513
I150
sssg39
(lp4344
I75
aI98
asg524
Vphoto
p4345
sg56
L581224110547681280L
sg526
Vhttp://pbs.twimg.com/media/CBDsP8QWQAAzj8C.png
p4346
sassg181
Nsg182
Nsg183
I0
sg68
V661287228929392640
p4347
sg185
I00
sg186
g4265
sg187
Nsg188
Nsg189
I00
sg90
g4286
sg98
VMon Nov 02 21:02:16 +0000 2015
p4348
sg191
Nsg192
Nsg193
(dp4349
g195
Ven
p4350
sg197
Vrecent
p4351
sssg199
g4349
sg200
Nsg201
Nsg31
g4292
sg202
Nsg203
Nsg110
g4347
sg204
I00
sg205
Nsg206
I0
sg207
Nsbag0
(g4
g5
Ntp4352
Rp4353
(dp4354
g9
I00
sg10
Nsg11
I00
sg12
VRanks #1 with over 80% in alert gains today. Click here https://t.co/9Vnnw3s1D8 .. $RGEN $FARM $OTIV
p4355
sg14
Vhttp://socialadcenter.com
p4356
sg16
I00
sg17
I00
sg18
Nsg19
g0
(g20
g5
Ntp4357
Rp4358
(dp4359
g24
I00
sg25
I00
sg26
I01
sg27
VDDEEF6
p4360
sg29
L3261001351L
sg30
I00
sg31
(dp4361
g33
(dp4362
g35
(lp4363
(dp4364
g33
Vhttp://t.co/8dJZYrRhox
p4365
sg39
(lp4366
I0
aI22
asg41
Vhttp://pennystocksecret.com
p4367
sg43
Vpennystocksecret.com
p4368
sassg45
(dp4369
g35
(lp4370
(dp4371
g33
Vhttp://t.co/UWzH8kOOl9
p4372
sg39
(lp4373
I11
aI33
asg41
Vhttp://PennyStockSecret.com
p4374
sg43
VPennyStockSecret.com
p4375
sasssg48
Vhttps://pbs.twimg.com/profile_images/617517575241531392/vk4GKKpS_normal.jpg
p4376
sg50
(dp4377
g52
I00
sg53
I00
sg54
I01
sg55
I00
sg56
L3261001351L
sg57
Vhttps://abs.twimg.com/images/themes/theme1/bg.png
p4378
sg59
I00
sg60
V333333
p4379
sg62
g4376
sg63
g4360
sg64
g4361
sg65
I5237
sg66
VC0DEED
p4380
sg68
V3261001351
p4381
sg70
VC0DEED
p4382
sg72
I9
sg73
I00
sg74
I-28800
sg75
I17457
sg45
VSign up to http://t.co/UWzH8kOOl9  and get the premiere penny stock newsletter for free! make sure you subscribe today!
p4383
sg77
I12
sg78
VUnited States
p4384
sg80
V0084B4
p4385
sg82
Vhttp://pbs.twimg.com/profile_images/617517575241531392/vk4GKKpS_normal.jpg
p4386
sg84
I00
sg85
I00
sg231
Vhttps://pbs.twimg.com/profile_banners/3261001351/1436062750
p4387
sg86
Vhttp://abs.twimg.com/images/themes/theme1/bg.png
p4388
sg88
Vstockmaster101
p4389
sg90
Ven
p4390
sg92
I00
sg93
I0
sg94
VStockmaster101
p4391
sg96
I00
sg33
Vhttp://t.co/8dJZYrRhox
p4392
sg98
VTue Jun 30 07:41:17 +0000 2015
p4393
sg100
I00
sg101
VPacific Time (US & Canada)
p4394
sg103
I00
sg104
I01
sg105
I00
ssg106
I00
sg107
g4379
sg108
I5237
sg109
g4380
sg110
g4381
sg111
I00
sg112
I9
sg113
I00
sg114
I-28800
sg115
I17457
sg116
g4383
sg117
I12
sg118
g4384
sg119
g4385
sg120
g4386
sg121
I00
sg122
I00
sg123
g4382
sg239
g4387
sg124
g4388
sg125
g4389
sg126
g4390
sg127
I00
sg128
I00
sg129
I0
sg130
g4391
sg131
g4392
sg132
g133
(S'\x07\xdf\x06\x1e\x07)\x11\x00\x00\x00'
p4395
tp4396
Rp4397
sg137
g4378
sg138
g4394
sg139
I00
sg140
I01
sg141
I00
sbsg142
Nsg29
L661219296282984448L
sg143
I0
sg144
VSocial Ad Center
p4398
sg126
Ven
p4399
sg147
g4358
sg132
g133
(S'\x07\xdf\x0b\x02\x10 \x13\x00\x00\x00'
p4400
tp4401
Rp4402
sg50
(dp4403
g152
Nsg153
I00
sg154
g4355
sg155
I00
sg156
Nsg56
L661219296282984448L
sg157
I0
sg158
V<a href="http://socialadcenter.com" rel="nofollow">Social Ad Center</a>
p4404
sg160
I00
sg161
Nsg64
(dp4405
g163
(lp4406
(dp4407
g39
(lp4408
I83
aI88
asg154
VRGEN
p4409
sa(dp4410
g39
(lp4411
I89
aI94
asg154
VFARM
p4412
sa(dp4413
g39
(lp4414
I95
aI100
asg154
VOTIV
p4415
sasg168
(lp4416
sg170
(lp4417
sg35
(lp4418
(dp4419
g33
Vhttps://t.co/9Vnnw3s1D8
p4420
sg39
(lp4421
I56
aI79
asg41
Vhttp://PennyStockSecret.com
p4422
sg43
VPennyStockSecret.com
p4423
sassg181
Nsg182
Nsg183
I0
sg68
V661219296282984448
p4424
sg185
I00
sg186
g4377
sg187
Nsg188
Nsg189
I00
sg90
g4399
sg98
VMon Nov 02 16:32:19 +0000 2015
p4425
sg191
Nsg192
Nsg193
(dp4426
g195
Ven
p4427
sg197
Vrecent
p4428
sssg199
g4426
sg200
Nsg201
Nsg31
g4405
sg202
Nsg203
Nsg110
g4424
sg204
I00
sg205
Nsg206
I0
sg207
Nsbatp4429
Rp4430
(dp4431
S'count'
p4432
I100
sS'completed_in'
p4433
F0.062
sS'_since_id'
p4434
NsS'refresh_url'
p4435
V?since_id=664375333727113216&q=%24OTIV&include_entities=1
p4436
sS'query'
p4437
V%24OTIV
p4438
sS'_max_id'
p4439
NsS'next_results'
p4440
Nsb.