ccopy_reg
_reconstructor
p0
(ctweepy.models
SearchResults
p1
c__builtin__
list
p2
(lp3
g0
(ctweepy.models
Status
p4
c__builtin__
object
p5
Ntp6
Rp7
(dp8
S'favorited'
p9
I00
sS'contributors'
p10
NsS'truncated'
p11
I00
sS'text'
p12
VPro-Dex $PDEX announced Q1-2016 revenues (ended September 30, 2015) of $4.1 million, increasing 58% from Q1-2015 https://t.co/h2jcANQeye
p13
sS'source_url'
p14
Vhttp://twitter.com
p15
sS'possibly_sensitive'
p16
I00
sS'is_quote_status'
p17
I00
sS'in_reply_to_status_id'
p18
NsS'user'
p19
g0
(ctweepy.models
User
p20
g5
Ntp21
Rp22
(dp23
S'follow_request_sent'
p24
I00
sS'has_extended_profile'
p25
I00
sS'profile_use_background_image'
p26
I01
sS'profile_sidebar_fill_color'
p27
VDDEEF6
p28
sS'id'
p29
L3960431572L
sS'verified'
p30
I00
sS'entities'
p31
(dp32
Vurl
p33
(dp34
Vurls
p35
(lp36
(dp37
g33
Vhttp://t.co/BSrcS5BXrW
p38
sVindices
p39
(lp40
I0
aI22
asVexpanded_url
p41
Vhttp://finglobedirect.com
p42
sVdisplay_url
p43
Vfinglobedirect.com
p44
sassVdescription
p45
(dp46
g35
(lp47
sssS'profile_image_url_https'
p48
Vhttps://pbs.twimg.com/profile_images/654793040440115200/Jf9UcIAl_normal.png
p49
sS'_json'
p50
(dp51
Vfollow_request_sent
p52
I00
sVhas_extended_profile
p53
I00
sVprofile_use_background_image
p54
I01
sVdefault_profile_image
p55
I00
sVid
p56
L3960431572L
sVprofile_background_image_url_https
p57
Vhttps://abs.twimg.com/images/themes/theme1/bg.png
p58
sVverified
p59
I00
sVprofile_text_color
p60
V333333
p61
sVprofile_image_url_https
p62
g49
sVprofile_sidebar_fill_color
p63
g28
sVentities
p64
g32
sVfollowers_count
p65
I52
sVprofile_sidebar_border_color
p66
VC0DEED
p67
sVid_str
p68
V3960431572
p69
sVprofile_background_color
p70
VC0DEED
p71
sVlisted_count
p72
I3
sVis_translation_enabled
p73
I00
sVutc_offset
p74
I-28800
sVstatuses_count
p75
I269
sg45
VFinGlobe  provides curated news and trends  on 1,000+ companies  in 'Global Medical Devices/Technology and Supplies' industry - updated 24/7.
p76
sVfriends_count
p77
I639
sVlocation
p78
VPrinceton,NJ USA  
p79
sVprofile_link_color
p80
V0084B4
p81
sVprofile_image_url
p82
Vhttp://pbs.twimg.com/profile_images/654793040440115200/Jf9UcIAl_normal.png
p83
sVfollowing
p84
I00
sVgeo_enabled
p85
I00
sVprofile_banner_url
p86
Vhttps://pbs.twimg.com/profile_banners/3960431572/1444877262
p87
sVprofile_background_image_url
p88
Vhttp://abs.twimg.com/images/themes/theme1/bg.png
p89
sVscreen_name
p90
VFG_GlobalMedDev
p91
sVlang
p92
Ven
p93
sVprofile_background_tile
p94
I00
sVfavourites_count
p95
I0
sVname
p96
VFG GlobalMedDevices
p97
sVnotifications
p98
I00
sg33
Vhttp://t.co/BSrcS5BXrW
p99
sVcreated_at
p100
VThu Oct 15 00:11:58 +0000 2015
p101
sVcontributors_enabled
p102
I00
sVtime_zone
p103
VPacific Time (US & Canada)
p104
sVprotected
p105
I00
sVdefault_profile
p106
I01
sVis_translator
p107
I00
ssS'contributors_enabled'
p108
I00
sS'profile_text_color'
p109
g61
sS'followers_count'
p110
I52
sS'profile_sidebar_border_color'
p111
g67
sS'id_str'
p112
g69
sS'default_profile_image'
p113
I00
sS'listed_count'
p114
I3
sS'is_translation_enabled'
p115
I00
sS'utc_offset'
p116
I-28800
sS'statuses_count'
p117
I269
sS'description'
p118
g76
sS'friends_count'
p119
I639
sS'location'
p120
g79
sS'profile_link_color'
p121
g81
sS'profile_image_url'
p122
g83
sS'notifications'
p123
I00
sS'geo_enabled'
p124
I00
sS'profile_background_color'
p125
g71
sS'profile_banner_url'
p126
g87
sS'profile_background_image_url'
p127
g89
sS'screen_name'
p128
g91
sS'lang'
p129
g93
sS'following'
p130
I00
sS'profile_background_tile'
p131
I00
sS'favourites_count'
p132
I0
sS'name'
p133
g97
sS'url'
p134
g99
sS'created_at'
p135
cdatetime
datetime
p136
(S'\x07\xdf\n\x0f\x00\x0b:\x00\x00\x00'
p137
tp138
Rp139
sS'profile_background_image_url_https'
p140
g58
sS'time_zone'
p141
g104
sS'protected'
p142
I00
sS'default_profile'
p143
I01
sS'is_translator'
p144
I00
sbsS'geo'
p145
Nsg29
L664442836847362048L
sS'favorite_count'
p146
I0
sS'source'
p147
VTwitter Web Client
p148
sg129
Ven
p149
sS'author'
p150
g22
sg135
g136
(S'\x07\xdf\x0b\x0b\x0e\x01\x1f\x00\x00\x00'
p151
tp152
Rp153
sg50
(dp154
Vcontributors
p155
NsVtruncated
p156
I00
sVtext
p157
g13
sVis_quote_status
p158
I00
sVin_reply_to_status_id
p159
Nsg56
L664442836847362048L
sVfavorite_count
p160
I0
sVsource
p161
V<a href="http://twitter.com" rel="nofollow">Twitter Web Client</a>
p162
sVretweeted
p163
I00
sVcoordinates
p164
Nsg64
(dp165
Vsymbols
p166
(lp167
(dp168
g39
(lp169
I8
aI13
asg157
VPDEX
p170
sasVuser_mentions
p171
(lp172
sVhashtags
p173
(lp174
sg35
(lp175
(dp176
g33
Vhttps://t.co/h2jcANQeye
p177
sg39
(lp178
I113
aI136
asg41
Vhttp://www.irdirect.net/pr/release/id/1597378
p179
sg43
Virdirect.net/pr/release/id/\u2026
p180
sassVin_reply_to_screen_name
p181
NsVin_reply_to_user_id
p182
NsVretweet_count
p183
I0
sg68
V664442836847362048
p184
sVfavorited
p185
I00
sVuser
p186
g51
sVgeo
p187
NsVin_reply_to_user_id_str
p188
NsVpossibly_sensitive
p189
I00
sg92
g149
sg100
VWed Nov 11 14:01:31 +0000 2015
p190
sVin_reply_to_status_id_str
p191
NsVplace
p192
NsVmetadata
p193
(dp194
Viso_language_code
p195
Ven
p196
sVresult_type
p197
Vrecent
p198
sssS'metadata'
p199
g194
sS'coordinates'
p200
NsS'in_reply_to_user_id_str'
p201
Nsg31
g165
sS'in_reply_to_status_id_str'
p202
NsS'in_reply_to_screen_name'
p203
Nsg112
g184
sS'retweeted'
p204
I00
sS'place'
p205
NsS'retweet_count'
p206
I0
sS'in_reply_to_user_id'
p207
Nsbag0
(g4
g5
Ntp208
Rp209
(dp210
g9
I00
sg10
Nsg11
I00
sg12
V$71,000 in ONE TRADE!! By Follwing Their Signals More Info Here https://t.co/n4FmW1UTLN .. $CPRX $PDEX $CTCT
p211
sg14
Vhttp://socialadcenter.com
p212
sg16
I00
sg17
I00
sg18
Nsg19
g0
(g20
g5
Ntp213
Rp214
(dp215
g24
I00
sg25
I00
sg26
I01
sg27
VDDEEF6
p216
sg29
L3260993737L
sg30
I00
sg31
(dp217
g33
(dp218
g35
(lp219
(dp220
g33
Vhttp://t.co/8dJZYrRhox
p221
sg39
(lp222
I0
aI22
asg41
Vhttp://pennystocksecret.com
p223
sg43
Vpennystocksecret.com
p224
sassg45
(dp225
g35
(lp226
sssg48
Vhttps://pbs.twimg.com/profile_images/617146377022279680/aAtOJ8fa_normal.jpg
p227
sg50
(dp228
g52
I00
sg53
I00
sg54
I01
sg55
I00
sg56
L3260993737L
sg57
Vhttps://abs.twimg.com/images/themes/theme1/bg.png
p229
sg59
I00
sg60
V333333
p230
sg62
g227
sg63
g216
sg64
g217
sg65
I6023
sg66
VC0DEED
p231
sg68
V3260993737
p232
sg70
VC0DEED
p233
sg72
I14
sg73
I00
sg74
I-28800
sg75
I26681
sg45
VGet The Best Penny Stocks Alerts For Free! Sign Up For 100% Free Email Alerts!
p234
sg77
I10
sg78
VUnited States
p235
sg80
V0084B4
p236
sg82
Vhttp://pbs.twimg.com/profile_images/617146377022279680/aAtOJ8fa_normal.jpg
p237
sg84
I00
sg85
I00
sg86
Vhttps://pbs.twimg.com/profile_banners/3260993737/1435974310
p238
sg88
Vhttp://abs.twimg.com/images/themes/theme1/bg.png
p239
sg90
Vstocksguru99
p240
sg92
Ven
p241
sg94
I00
sg95
I0
sg96
VStocksguru99
p242
sg98
I00
sg33
Vhttp://t.co/8dJZYrRhox
p243
sg100
VTue Jun 30 07:36:09 +0000 2015
p244
sg102
I00
sg103
VPacific Time (US & Canada)
p245
sg105
I00
sg106
I01
sg107
I00
ssg108
I00
sg109
g230
sg110
I6023
sg111
g231
sg112
g232
sg113
I00
sg114
I14
sg115
I00
sg116
I-28800
sg117
I26681
sg118
g234
sg119
I10
sg120
g235
sg121
g236
sg122
g237
sg123
I00
sg124
I00
sg125
g233
sg126
g238
sg127
g239
sg128
g240
sg129
g241
sg130
I00
sg131
I00
sg132
I0
sg133
g242
sg134
g243
sg135
g136
(S'\x07\xdf\x06\x1e\x07$\t\x00\x00\x00'
p246
tp247
Rp248
sg140
g229
sg141
g245
sg142
I00
sg143
I01
sg144
I00
sbsg145
Nsg29
L664436205178585088L
sg146
I0
sg147
VSocial Ad Center
p249
sg129
Ven
p250
sg150
g214
sg135
g136
(S'\x07\xdf\x0b\x0b\r#\n\x00\x00\x00'
p251
tp252
Rp253
sg50
(dp254
g155
Nsg156
I00
sg157
g211
sg158
I00
sg159
Nsg56
L664436205178585088L
sg160
I0
sg161
V<a href="http://socialadcenter.com" rel="nofollow">Social Ad Center</a>
p255
sg163
I00
sg164
Nsg64
(dp256
g166
(lp257
(dp258
g39
(lp259
I91
aI96
asg157
VCPRX
p260
sa(dp261
g39
(lp262
I97
aI102
asg157
VPDEX
p263
sa(dp264
g39
(lp265
I103
aI108
asg157
VCTCT
p266
sasg171
(lp267
sg173
(lp268
sg35
(lp269
(dp270
g33
Vhttps://t.co/n4FmW1UTLN
p271
sg39
(lp272
I64
aI87
asg41
Vhttp://PennyStockSecret.com
p273
sg43
VPennyStockSecret.com
p274
sassg181
Nsg182
Nsg183
I0
sg68
V664436205178585088
p275
sg185
I00
sg186
g228
sg187
Nsg188
Nsg189
I00
sg92
g250
sg100
VWed Nov 11 13:35:10 +0000 2015
p276
sg191
Nsg192
Nsg193
(dp277
g195
Ven
p278
sg197
Vrecent
p279
sssg199
g277
sg200
Nsg201
Nsg31
g256
sg202
Nsg203
Nsg112
g275
sg204
I00
sg205
Nsg206
I0
sg207
Nsbag0
(g4
g5
Ntp280
Rp281
(dp282
g9
I00
sg10
Nsg11
I00
sg12
V$PDEX Current Report Filing (8-k)\u2026 (https://t.co/YbiSczG4lV)
p283
sg14
Vhttps://mobile.twitter.com
p284
sg16
I00
sg17
I00
sg18
Nsg19
g0
(g20
g5
Ntp285
Rp286
(dp287
g24
I00
sg25
I00
sg26
I01
sg27
VDDEEF6
p288
sg29
L2554107798L
sg30
I00
sg31
(dp289
g45
(dp290
g35
(lp291
sssg48
Vhttps://abs.twimg.com/sticky/default_profile_images/default_profile_4_normal.png
p292
sg50
(dp293
g52
I00
sg53
I00
sg54
I01
sg55
I01
sg56
L2554107798L
sg57
Vhttps://abs.twimg.com/images/themes/theme1/bg.png
p294
sg59
I00
sg60
V333333
p295
sg62
g292
sg63
g288
sg64
g289
sg65
I241
sg66
VC0DEED
p296
sg68
V2554107798
p297
sg70
VC0DEED
p298
sg72
I59
sg73
I01
sg74
I0
sg75
I350821
sg45
V
p299
sg77
I0
sg78
g299
sg80
V0084B4
p300
sg82
Vhttp://abs.twimg.com/sticky/default_profile_images/default_profile_4_normal.png
p301
sg84
I00
sg85
I00
sg88
Vhttp://abs.twimg.com/images/themes/theme1/bg.png
p302
sg90
VNASDAQODUK
p303
sg92
Ven
p304
sg94
I00
sg95
I0
sg96
VNASDAQ
p305
sg98
I00
sg33
Nsg100
VSun Jun 08 07:25:44 +0000 2014
p306
sg102
I00
sg103
VLondon
p307
sg105
I00
sg106
I01
sg107
I00
ssg108
I00
sg109
g295
sg110
I241
sg111
g296
sg112
g297
sg113
I01
sg114
I59
sg115
I01
sg116
I0
sg117
I350821
sg118
g299
sg119
I0
sg120
g299
sg121
g300
sg122
g301
sg123
I00
sg124
I00
sg125
g298
sg127
g302
sg128
g303
sg129
g304
sg130
I00
sg131
I00
sg132
I0
sg133
g305
sg134
Nsg135
g136
(S'\x07\xde\x06\x08\x07\x19,\x00\x00\x00'
p308
tp309
Rp310
sg140
g294
sg141
g307
sg142
I00
sg143
I01
sg144
I00
sbsg145
Nsg29
L664264091863801856L
sg146
I0
sg147
VMobile Web (M2)
p311
sg129
Vtl
p312
sg150
g286
sg135
g136
(S'\x07\xdf\x0b\x0b\x02\x0b\x0f\x00\x00\x00'
p313
tp314
Rp315
sg50
(dp316
g155
Nsg156
I00
sg157
g283
sg158
I00
sg159
Nsg56
L664264091863801856L
sg160
I0
sg161
V<a href="https://mobile.twitter.com" rel="nofollow">Mobile Web (M2)</a>
p317
sg163
I00
sg164
Nsg64
(dp318
g166
(lp319
(dp320
g39
(lp321
I0
aI5
asg157
VPDEX
p322
sasg171
(lp323
sg173
(lp324
sg35
(lp325
(dp326
g33
Vhttps://t.co/YbiSczG4lV
p327
sg39
(lp328
I36
aI59
asg41
Vhttp://uk.advfn.com/p.php?pid=nmona&article=69254089&symbol=NASDAQ%3APDEX
p329
sg43
Vuk.advfn.com/p.php?pid=nmon\u2026
p330
sassg181
Nsg182
Nsg183
I0
sg68
V664264091863801856
p331
sg185
I00
sg186
g293
sg187
Nsg188
Nsg189
I00
sg92
g312
sg100
VWed Nov 11 02:11:15 +0000 2015
p332
sg191
Nsg192
Nsg193
(dp333
g195
Vtl
p334
sg197
Vrecent
p335
sssg199
g333
sg200
Nsg201
Nsg31
g318
sg202
Nsg203
Nsg112
g331
sg204
I00
sg205
Nsg206
I0
sg207
Nsbag0
(g4
g5
Ntp336
Rp337
(dp338
g9
I00
sg10
Nsg11
I00
sg12
V$PDEX Pro-Dex, Inc. Announces Fiscal 2016 First Quarter Result\u2026 (https://t.co/MmTuqw4RsN)
p339
sg14
Vhttps://mobile.twitter.com
p340
sg16
I00
sg17
I00
sg18
Nsg19
g0
(g20
g5
Ntp341
Rp342
(dp343
g24
I00
sg25
I00
sg26
I01
sg27
VDDEEF6
p344
sg29
L2554107798L
sg30
I00
sg31
(dp345
g45
(dp346
g35
(lp347
sssg48
Vhttps://abs.twimg.com/sticky/default_profile_images/default_profile_4_normal.png
p348
sg50
(dp349
g52
I00
sg53
I00
sg54
I01
sg55
I01
sg56
L2554107798L
sg57
Vhttps://abs.twimg.com/images/themes/theme1/bg.png
p350
sg59
I00
sg60
V333333
p351
sg62
g348
sg63
g344
sg64
g345
sg65
I241
sg66
VC0DEED
p352
sg68
V2554107798
p353
sg70
VC0DEED
p354
sg72
I59
sg73
I01
sg74
I0
sg75
I350821
sg45
g299
sg77
I0
sg78
g299
sg80
V0084B4
p355
sg82
Vhttp://abs.twimg.com/sticky/default_profile_images/default_profile_4_normal.png
p356
sg84
I00
sg85
I00
sg88
Vhttp://abs.twimg.com/images/themes/theme1/bg.png
p357
sg90
VNASDAQODUK
p358
sg92
Ven
p359
sg94
I00
sg95
I0
sg96
VNASDAQ
p360
sg98
I00
sg33
Nsg100
VSun Jun 08 07:25:44 +0000 2014
p361
sg102
I00
sg103
VLondon
p362
sg105
I00
sg106
I01
sg107
I00
ssg108
I00
sg109
g351
sg110
I241
sg111
g352
sg112
g353
sg113
I01
sg114
I59
sg115
I01
sg116
I0
sg117
I350821
sg118
g299
sg119
I0
sg120
g299
sg121
g355
sg122
g356
sg123
I00
sg124
I00
sg125
g354
sg127
g357
sg128
g358
sg129
g359
sg130
I00
sg131
I00
sg132
I0
sg133
g360
sg134
Nsg135
g136
(S'\x07\xde\x06\x08\x07\x19,\x00\x00\x00'
p363
tp364
Rp365
sg140
g350
sg141
g362
sg142
I00
sg143
I01
sg144
I00
sbsg145
Nsg29
L664263794462498816L
sg146
I0
sg147
VMobile Web (M2)
p366
sg129
Ven
p367
sg150
g342
sg135
g136
(S'\x07\xdf\x0b\x0b\x02\n\x04\x00\x00\x00'
p368
tp369
Rp370
sg50
(dp371
g155
Nsg156
I00
sg157
g339
sg158
I00
sg159
Nsg56
L664263794462498816L
sg160
I0
sg161
V<a href="https://mobile.twitter.com" rel="nofollow">Mobile Web (M2)</a>
p372
sg163
I00
sg164
Nsg64
(dp373
g166
(lp374
(dp375
g39
(lp376
I0
aI5
asg157
VPDEX
p377
sasg171
(lp378
sg173
(lp379
sg35
(lp380
(dp381
g33
Vhttps://t.co/MmTuqw4RsN
p382
sg39
(lp383
I65
aI88
asg41
Vhttp://uk.advfn.com/p.php?pid=nmona&article=69254019&symbol=NASDAQ%3APDEX
p384
sg43
Vuk.advfn.com/p.php?pid=nmon\u2026
p385
sassg181
Nsg182
Nsg183
I0
sg68
V664263794462498816
p386
sg185
I00
sg186
g349
sg187
Nsg188
Nsg189
I00
sg92
g367
sg100
VWed Nov 11 02:10:04 +0000 2015
p387
sg191
Nsg192
Nsg193
(dp388
g195
Ven
p389
sg197
Vrecent
p390
sssg199
g388
sg200
Nsg201
Nsg31
g373
sg202
Nsg203
Nsg112
g386
sg204
I00
sg205
Nsg206
I0
sg207
Nsbag0
(g4
g5
Ntp391
Rp392
(dp393
g9
I00
sg10
Nsg11
I00
sg12
V$PDEX Quarterly Report (10-q)\u2026 (https://t.co/xu0NRxrfZA)
p394
sg14
Vhttps://mobile.twitter.com
p395
sg16
I00
sg17
I00
sg18
Nsg19
g0
(g20
g5
Ntp396
Rp397
(dp398
g24
I00
sg25
I00
sg26
I01
sg27
VDDEEF6
p399
sg29
L2554107798L
sg30
I00
sg31
(dp400
g45
(dp401
g35
(lp402
sssg48
Vhttps://abs.twimg.com/sticky/default_profile_images/default_profile_4_normal.png
p403
sg50
(dp404
g52
I00
sg53
I00
sg54
I01
sg55
I01
sg56
L2554107798L
sg57
Vhttps://abs.twimg.com/images/themes/theme1/bg.png
p405
sg59
I00
sg60
V333333
p406
sg62
g403
sg63
g399
sg64
g400
sg65
I241
sg66
VC0DEED
p407
sg68
V2554107798
p408
sg70
VC0DEED
p409
sg72
I59
sg73
I01
sg74
I0
sg75
I350821
sg45
g299
sg77
I0
sg78
g299
sg80
V0084B4
p410
sg82
Vhttp://abs.twimg.com/sticky/default_profile_images/default_profile_4_normal.png
p411
sg84
I00
sg85
I00
sg88
Vhttp://abs.twimg.com/images/themes/theme1/bg.png
p412
sg90
VNASDAQODUK
p413
sg92
Ven
p414
sg94
I00
sg95
I0
sg96
VNASDAQ
p415
sg98
I00
sg33
Nsg100
VSun Jun 08 07:25:44 +0000 2014
p416
sg102
I00
sg103
VLondon
p417
sg105
I00
sg106
I01
sg107
I00
ssg108
I00
sg109
g406
sg110
I241
sg111
g407
sg112
g408
sg113
I01
sg114
I59
sg115
I01
sg116
I0
sg117
I350821
sg118
g299
sg119
I0
sg120
g299
sg121
g410
sg122
g411
sg123
I00
sg124
I00
sg125
g409
sg127
g412
sg128
g413
sg129
g414
sg130
I00
sg131
I00
sg132
I0
sg133
g415
sg134
Nsg135
g136
(S'\x07\xde\x06\x08\x07\x19,\x00\x00\x00'
p418
tp419
Rp420
sg140
g405
sg141
g417
sg142
I00
sg143
I01
sg144
I00
sbsg145
Nsg29
L664263202683908096L
sg146
I0
sg147
VMobile Web (M2)
p421
sg129
Ves
p422
sg150
g397
sg135
g136
(S'\x07\xdf\x0b\x0b\x02\x07+\x00\x00\x00'
p423
tp424
Rp425
sg50
(dp426
g155
Nsg156
I00
sg157
g394
sg158
I00
sg159
Nsg56
L664263202683908096L
sg160
I0
sg161
V<a href="https://mobile.twitter.com" rel="nofollow">Mobile Web (M2)</a>
p427
sg163
I00
sg164
Nsg64
(dp428
g166
(lp429
(dp430
g39
(lp431
I0
aI5
asg157
VPDEX
p432
sasg171
(lp433
sg173
(lp434
sg35
(lp435
(dp436
g33
Vhttps://t.co/xu0NRxrfZA
p437
sg39
(lp438
I32
aI55
asg41
Vhttp://uk.advfn.com/p.php?pid=nmona&article=69254048&symbol=NASDAQ%3APDEX
p439
sg43
Vuk.advfn.com/p.php?pid=nmon\u2026
p440
sassg181
Nsg182
Nsg183
I0
sg68
V664263202683908096
p441
sg185
I00
sg186
g404
sg187
Nsg188
Nsg189
I00
sg92
g422
sg100
VWed Nov 11 02:07:43 +0000 2015
p442
sg191
Nsg192
Nsg193
(dp443
g195
Ves
p444
sg197
Vrecent
p445
sssg199
g443
sg200
Nsg201
Nsg31
g428
sg202
Nsg203
Nsg112
g441
sg204
I00
sg205
Nsg206
I0
sg207
Nsbag0
(g4
g5
Ntp446
Rp447
(dp448
g9
I00
sg10
Nsg11
I00
sg12
VNo position. $PDEX Pro-Dex, Inc. Announces Fiscal 2016 First Quarter Results https://t.co/qs70VTZMMf via @YahooFinance
p449
sg14
Vhttp://twitter.com
p450
sg16
I00
sg17
I00
sg18
Nsg19
g0
(g20
g5
Ntp451
Rp452
(dp453
g24
I00
sg25
I00
sg26
I01
sg27
VDDEEF6
p454
sg29
I782030712
sg30
I00
sg31
(dp455
g45
(dp456
g35
(lp457
sssg48
Vhttps://pbs.twimg.com/profile_images/2654027443/adc5588261ab278fc53bbee624c4ba01_normal.jpeg
p458
sg50
(dp459
g52
I00
sg53
I00
sg54
I01
sg55
I00
sg56
I782030712
sg57
Vhttps://abs.twimg.com/images/themes/theme1/bg.png
p460
sg59
I00
sg60
V333333
p461
sg62
g458
sg63
g454
sg64
g455
sg65
I1154
sg66
VC0DEED
p462
sg68
V782030712
p463
sg70
VC0DEED
p464
sg72
I134
sg73
I00
sg74
I-36000
sg75
I43882
sg45
VMicrocap Growth Investor Finance/Economics Quotes Coins Sports History Technology
p465
sg77
I955
sg78
g299
sg80
V0084B4
p466
sg82
Vhttp://pbs.twimg.com/profile_images/2654027443/adc5588261ab278fc53bbee624c4ba01_normal.jpeg
p467
sg84
I00
sg85
I00
sg86
Vhttps://pbs.twimg.com/profile_banners/782030712/1400017736
p468
sg88
Vhttp://abs.twimg.com/images/themes/theme1/bg.png
p469
sg90
VTrentBlair19
p470
sg92
Ven
p471
sg94
I00
sg95
I230
sg96
VTrent Blair
p472
sg98
I00
sg33
Nsg100
VSun Aug 26 08:45:06 +0000 2012
p473
sg102
I00
sg103
VHawaii
p474
sg105
I00
sg106
I01
sg107
I00
ssg108
I00
sg109
g461
sg110
I1154
sg111
g462
sg112
g463
sg113
I00
sg114
I134
sg115
I00
sg116
I-36000
sg117
I43882
sg118
g465
sg119
I955
sg120
g299
sg121
g466
sg122
g467
sg123
I00
sg124
I00
sg125
g464
sg126
g468
sg127
g469
sg128
g470
sg129
g471
sg130
I00
sg131
I00
sg132
I230
sg133
g472
sg134
Nsg135
g136
(S'\x07\xdc\x08\x1a\x08-\x06\x00\x00\x00'
p475
tp476
Rp477
sg140
g460
sg141
g474
sg142
I00
sg143
I01
sg144
I00
sbsg145
Nsg29
L664201722336817152L
sg146
I1
sg147
VTwitter Web Client
p478
sg129
Ven
p479
sg150
g452
sg135
g136
(S'\x07\xdf\x0b\n\x16\x03\x19\x00\x00\x00'
p480
tp481
Rp482
sg50
(dp483
g155
Nsg156
I00
sg157
g449
sg158
I00
sg159
Nsg56
L664201722336817152L
sg160
I1
sg161
V<a href="http://twitter.com" rel="nofollow">Twitter Web Client</a>
p484
sg163
I00
sg164
Nsg64
(dp485
g166
(lp486
(dp487
g39
(lp488
I13
aI18
asg157
VPDEX
p489
sasg171
(lp490
(dp491
g56
I19546277
sg39
(lp492
I105
aI118
asg68
V19546277
p493
sg90
VYahooFinance
p494
sg96
VYahoo Finance
p495
sasg173
(lp496
sg35
(lp497
(dp498
g33
Vhttps://t.co/qs70VTZMMf
p499
sg39
(lp500
I77
aI100
asg41
Vhttp://finance.yahoo.com/news/pro-dex-inc-announces-fiscal-210500872.html?soc_src=mediacontentstory&soc_trk=tw
p501
sg43
Vfinance.yahoo.com/news/pro-dex-i\u2026
p502
sassg181
Nsg182
Nsg183
I0
sg68
V664201722336817152
p503
sg185
I00
sg186
g459
sg187
Nsg188
Nsg189
I00
sg92
g479
sg100
VTue Nov 10 22:03:25 +0000 2015
p504
sg191
Nsg192
Nsg193
(dp505
g195
Ven
p506
sg197
Vrecent
p507
sssg199
g505
sg200
Nsg201
Nsg31
g485
sg202
Nsg203
Nsg112
g503
sg204
I00
sg205
Nsg206
I0
sg207
Nsbag0
(g4
g5
Ntp508
Rp509
(dp510
g9
I00
sg10
Nsg11
I00
sg12
VRT @MicroCapNat: $PDEX results are out: BABY GOT BACKLOG
p511
sg14
Vhttp://twitter.com/download/android
p512
sg17
I00
sg18
Nsg19
g0
(g20
g5
Ntp513
Rp514
(dp515
g24
I00
sg25
I00
sg26
I01
sg27
VDDEEF6
p516
sg29
L3021356811L
sg30
I00
sg31
(dp517
g45
(dp518
g35
(lp519
sssg48
Vhttps://pbs.twimg.com/profile_images/570804294538891264/MwEzz4rl_normal.jpeg
p520
sg50
(dp521
g52
I00
sg53
I00
sg54
I01
sg55
I00
sg56
L3021356811L
sg57
Vhttps://abs.twimg.com/images/themes/theme1/bg.png
p522
sg59
I00
sg60
V333333
p523
sg62
g520
sg63
g516
sg64
g517
sg65
I67
sg66
VC0DEED
p524
sg68
V3021356811
p525
sg70
VC0DEED
p526
sg72
I7
sg73
I00
sg74
Nsg75
I627
sg45
g299
sg77
I248
sg78
g299
sg80
V0084B4
p527
sg82
Vhttp://pbs.twimg.com/profile_images/570804294538891264/MwEzz4rl_normal.jpeg
p528
sg84
I00
sg85
I01
sg88
Vhttp://abs.twimg.com/images/themes/theme1/bg.png
p529
sg90
VAfantiArbitrage
p530
sg92
Ven
p531
sg94
I00
sg95
I235
sg96
VAfanti Arbitrage
p532
sg98
I00
sg33
Nsg100
VFri Feb 06 12:34:40 +0000 2015
p533
sg102
I00
sg103
Nsg105
I00
sg106
I01
sg107
I00
ssg108
I00
sg109
g523
sg110
I67
sg111
g524
sg112
g525
sg113
I00
sg114
I7
sg115
I00
sg116
Nsg117
I627
sg118
g299
sg119
I248
sg120
g299
sg121
g527
sg122
g528
sg123
I00
sg124
I01
sg125
g526
sg127
g529
sg128
g530
sg129
g531
sg130
I00
sg131
I00
sg132
I235
sg133
g532
sg134
Nsg135
g136
(S'\x07\xdf\x02\x06\x0c"(\x00\x00\x00'
p534
tp535
Rp536
sg140
g522
sg141
Nsg142
I00
sg143
I01
sg144
I00
sbsg145
Nsg29
L664199179355361280L
sg146
I0
sg147
VTwitter for Android
p537
sg129
Ven
p538
sS'retweeted_status'
p539
g0
(g4
g5
Ntp540
Rp541
(dp542
g9
I00
sg10
Nsg11
I00
sg12
V$PDEX results are out: BABY GOT BACKLOG
p543
sg14
Vhttp://twitter.com
p544
sg17
I00
sg18
Nsg19
g0
(g20
g5
Ntp545
Rp546
(dp547
g24
I00
sg25
I00
sg26
I01
sg27
VEFEFEF
p548
sg29
I34090529
sg30
I00
sg31
(dp549
g33
(dp550
g35
(lp551
(dp552
g33
Vhttp://t.co/Pkci9TSrMI
p553
sg39
(lp554
I0
aI22
asg41
Vhttp://NatHunt.com
p555
sg43
VNatHunt.com
p556
sassg45
(dp557
g35
(lp558
sssg48
Vhttps://pbs.twimg.com/profile_images/470384065481158657/PAl-3yCE_normal.jpeg
p559
sg50
(dp560
g52
I00
sg53
I00
sg54
I01
sg55
I00
sg56
I34090529
sg57
Vhttps://abs.twimg.com/images/themes/theme14/bg.gif
p561
sg59
I00
sg60
V333333
p562
sg62
g559
sg63
g548
sg64
g549
sg65
I551
sg66
VEEEEEE
p563
sg68
V34090529
p564
sg70
V131516
p565
sg72
I12
sg73
I00
sg74
I-18000
sg75
I1355
sg45
V#microcaps
p566
sg77
I109
sg78
g299
sg80
V1D18A1
p567
sg82
Vhttp://pbs.twimg.com/profile_images/470384065481158657/PAl-3yCE_normal.jpeg
p568
sg84
I00
sg85
I01
sg86
Vhttps://pbs.twimg.com/profile_banners/34090529/1416026624
p569
sg88
Vhttp://abs.twimg.com/images/themes/theme14/bg.gif
p570
sg90
VMicroCapNat
p571
sg92
Ven
p572
sg94
I01
sg95
I281
sg96
VNat Hunt
p573
sg98
I00
sg33
Vhttp://t.co/Pkci9TSrMI
p574
sg100
VTue Apr 21 23:32:09 +0000 2009
p575
sg102
I00
sg103
VEastern Time (US & Canada)
p576
sg105
I00
sg106
I00
sg107
I00
ssg108
I00
sg109
g562
sg110
I551
sg111
g563
sg112
g564
sg113
I00
sg114
I12
sg115
I00
sg116
I-18000
sg117
I1355
sg118
g566
sg119
I109
sg120
g299
sg121
g567
sg122
g568
sg123
I00
sg124
I01
sg125
g565
sg126
g569
sg127
g570
sg128
g571
sg129
g572
sg130
I00
sg131
I01
sg132
I281
sg133
g573
sg134
g574
sg135
g136
(S'\x07\xd9\x04\x15\x17 \t\x00\x00\x00'
p577
tp578
Rp579
sg140
g561
sg141
g576
sg142
I00
sg143
I00
sg144
I00
sbsg145
Nsg29
L664196589242736640L
sg146
I3
sg147
VTwitter Web Client
p580
sg129
Ven
p581
sg150
g546
sg135
g136
(S'\x07\xdf\x0b\n\x15+\x01\x00\x00\x00'
p582
tp583
Rp584
sg50
(dp585
g155
Nsg156
I00
sg157
g543
sg158
I00
sg159
Nsg56
L664196589242736640L
sg160
I3
sg161
V<a href="http://twitter.com" rel="nofollow">Twitter Web Client</a>
p586
sg163
I00
sg164
Nsg64
(dp587
g166
(lp588
(dp589
g39
(lp590
I0
aI5
asg157
VPDEX
p591
sasg171
(lp592
sg173
(lp593
sg35
(lp594
ssg181
Nsg182
Nsg183
I1
sg68
V664196589242736640
p595
sg185
I00
sg186
g560
sg187
Nsg188
Nsg92
g581
sg100
VTue Nov 10 21:43:01 +0000 2015
p596
sg191
Nsg192
Nsg193
(dp597
g195
Ven
p598
sg197
Vrecent
p599
sssg199
g597
sg200
Nsg201
Nsg31
g587
sg202
Nsg203
Nsg112
g595
sg204
I00
sg205
Nsg206
I1
sg207
Nsbsg150
g514
sg135
g136
(S'\x07\xdf\x0b\n\x155\x13\x00\x00\x00'
p600
tp601
Rp602
sg50
(dp603
g155
Nsg156
I00
sg157
g511
sg158
I00
sg159
Nsg56
L664199179355361280L
sg160
I0
sg161
V<a href="http://twitter.com/download/android" rel="nofollow">Twitter for Android</a>
p604
sg163
I00
sg164
Nsg64
(dp605
g166
(lp606
(dp607
g39
(lp608
I17
aI22
asg157
VPDEX
p609
sasg171
(lp610
(dp611
g56
I34090529
sg39
(lp612
I3
aI15
asg68
V34090529
p613
sg90
VMicroCapNat
p614
sg96
VNat Hunt
p615
sasg173
(lp616
sg35
(lp617
ssg181
Nsg182
Nsg183
I1
sg68
V664199179355361280
p618
sg185
I00
sVretweeted_status
p619
g585
sg186
g521
sg187
Nsg188
Nsg92
g538
sg100
VTue Nov 10 21:53:19 +0000 2015
p620
sg191
Nsg192
Nsg193
(dp621
g195
Ven
p622
sg197
Vrecent
p623
sssg199
g621
sg200
Nsg201
Nsg31
g605
sg202
Nsg203
Nsg112
g618
sg204
I00
sg205
Nsg206
I1
sg207
Nsbag0
(g4
g5
Ntp624
Rp625
(dp626
g9
I00
sg10
Nsg11
I00
sg12
V$PDEX results are out: BABY GOT BACKLOG
p627
sg14
Vhttp://twitter.com
p628
sg17
I00
sg18
Nsg19
g0
(g20
g5
Ntp629
Rp630
(dp631
g24
I00
sg25
I00
sg26
I01
sg27
VEFEFEF
p632
sg29
I34090529
sg30
I00
sg31
(dp633
g33
(dp634
g35
(lp635
(dp636
g33
Vhttp://t.co/Pkci9TSrMI
p637
sg39
(lp638
I0
aI22
asg41
Vhttp://NatHunt.com
p639
sg43
VNatHunt.com
p640
sassg45
(dp641
g35
(lp642
sssg48
Vhttps://pbs.twimg.com/profile_images/470384065481158657/PAl-3yCE_normal.jpeg
p643
sg50
(dp644
g52
I00
sg53
I00
sg54
I01
sg55
I00
sg56
I34090529
sg57
Vhttps://abs.twimg.com/images/themes/theme14/bg.gif
p645
sg59
I00
sg60
V333333
p646
sg62
g643
sg63
g632
sg64
g633
sg65
I551
sg66
VEEEEEE
p647
sg68
V34090529
p648
sg70
V131516
p649
sg72
I12
sg73
I00
sg74
I-18000
sg75
I1355
sg45
V#microcaps
p650
sg77
I109
sg78
g299
sg80
V1D18A1
p651
sg82
Vhttp://pbs.twimg.com/profile_images/470384065481158657/PAl-3yCE_normal.jpeg
p652
sg84
I00
sg85
I01
sg86
Vhttps://pbs.twimg.com/profile_banners/34090529/1416026624
p653
sg88
Vhttp://abs.twimg.com/images/themes/theme14/bg.gif
p654
sg90
VMicroCapNat
p655
sg92
Ven
p656
sg94
I01
sg95
I281
sg96
VNat Hunt
p657
sg98
I00
sg33
Vhttp://t.co/Pkci9TSrMI
p658
sg100
VTue Apr 21 23:32:09 +0000 2009
p659
sg102
I00
sg103
VEastern Time (US & Canada)
p660
sg105
I00
sg106
I00
sg107
I00
ssg108
I00
sg109
g646
sg110
I551
sg111
g647
sg112
g648
sg113
I00
sg114
I12
sg115
I00
sg116
I-18000
sg117
I1355
sg118
g650
sg119
I109
sg120
g299
sg121
g651
sg122
g652
sg123
I00
sg124
I01
sg125
g649
sg126
g653
sg127
g654
sg128
g655
sg129
g656
sg130
I00
sg131
I01
sg132
I281
sg133
g657
sg134
g658
sg135
g136
(S'\x07\xd9\x04\x15\x17 \t\x00\x00\x00'
p661
tp662
Rp663
sg140
g645
sg141
g660
sg142
I00
sg143
I00
sg144
I00
sbsg145
Nsg29
L664196589242736640L
sg146
I3
sg147
VTwitter Web Client
p664
sg129
Ven
p665
sg150
g630
sg135
g136
(S'\x07\xdf\x0b\n\x15+\x01\x00\x00\x00'
p666
tp667
Rp668
sg50
(dp669
g155
Nsg156
I00
sg157
g627
sg158
I00
sg159
Nsg56
L664196589242736640L
sg160
I3
sg161
V<a href="http://twitter.com" rel="nofollow">Twitter Web Client</a>
p670
sg163
I00
sg164
Nsg64
(dp671
g166
(lp672
(dp673
g39
(lp674
I0
aI5
asg157
VPDEX
p675
sasg171
(lp676
sg173
(lp677
sg35
(lp678
ssg181
Nsg182
Nsg183
I1
sg68
V664196589242736640
p679
sg185
I00
sg186
g644
sg187
Nsg188
Nsg92
g665
sg100
VTue Nov 10 21:43:01 +0000 2015
p680
sg191
Nsg192
Nsg193
(dp681
g195
Ven
p682
sg197
Vrecent
p683
sssg199
g681
sg200
Nsg201
Nsg31
g671
sg202
Nsg203
Nsg112
g679
sg204
I00
sg205
Nsg206
I1
sg207
Nsbag0
(g4
g5
Ntp684
Rp685
(dp686
g9
I00
sg10
Nsg11
I00
sg12
VPRO DEX INC $PDEX 10-Q now available
p687
sg14
Vhttp://www.instrumental-data.com/
p688
sg17
I00
sg18
Nsg19
g0
(g20
g5
Ntp689
Rp690
(dp691
g24
I00
sg25
I00
sg26
I01
sg27
VDDEEF6
p692
sg29
I1059455906
sg30
I00
sg31
(dp693
g33
(dp694
g35
(lp695
(dp696
g33
Vhttp://t.co/oFA9055G
p697
sg39
(lp698
I0
aI20
asg41
Vhttp://instrumental-data.com
p699
sg43
Vinstrumental-data.com
p700
sassg45
(dp701
g35
(lp702
sssg48
Vhttps://pbs.twimg.com/profile_images/3180899556/40196e66743d89ac67495a06e8aa0e00_normal.png
p703
sg50
(dp704
g52
I00
sg53
I00
sg54
I01
sg55
I00
sg56
I1059455906
sg57
Vhttps://abs.twimg.com/images/themes/theme1/bg.png
p705
sg59
I00
sg60
V333333
p706
sg62
g703
sg63
g692
sg64
g693
sg65
I202
sg66
VC0DEED
p707
sg68
V1059455906
p708
sg70
VC0DEED
p709
sg72
I15
sg73
I00
sg74
Nsg75
I81234
sg45
VFundamental market data, cleaned, parsed, and available within minutes of company filing.
p710
sg77
I4
sg78
VChicago
p711
sg80
V0084B4
p712
sg82
Vhttp://pbs.twimg.com/profile_images/3180899556/40196e66743d89ac67495a06e8aa0e00_normal.png
p713
sg84
I00
sg85
I00
sg88
Vhttp://abs.twimg.com/images/themes/theme1/bg.png
p714
sg90
VInstrumentalD
p715
sg92
Ven
p716
sg94
I00
sg95
I0
sg96
VInstrumental Data
p717
sg98
I00
sg33
Vhttp://t.co/oFA9055G
p718
sg100
VFri Jan 04 03:41:19 +0000 2013
p719
sg102
I00
sg103
Nsg105
I00
sg106
I01
sg107
I00
ssg108
I00
sg109
g706
sg110
I202
sg111
g707
sg112
g708
sg113
I00
sg114
I15
sg115
I00
sg116
Nsg117
I81234
sg118
g710
sg119
I4
sg120
g711
sg121
g712
sg122
g713
sg123
I00
sg124
I00
sg125
g709
sg127
g714
sg128
g715
sg129
g716
sg130
I00
sg131
I00
sg132
I0
sg133
g717
sg134
g718
sg135
g136
(S'\x07\xdd\x01\x04\x03)\x13\x00\x00\x00'
p720
tp721
Rp722
sg140
g705
sg141
Nsg142
I00
sg143
I01
sg144
I00
sbsg145
Nsg29
L664188936080637952L
sg146
I0
sg147
VInstrumental Data
p723
sg129
Vund
p724
sg150
g690
sg135
g136
(S'\x07\xdf\x0b\n\x15\x0c%\x00\x00\x00'
p725
tp726
Rp727
sg50
(dp728
g155
Nsg156
I00
sg157
g687
sg158
I00
sg159
Nsg56
L664188936080637952L
sg160
I0
sg161
V<a href="http://www.instrumental-data.com/" rel="nofollow">Instrumental Data</a>
p729
sg163
I00
sg164
Nsg64
(dp730
g166
(lp731
(dp732
g39
(lp733
I12
aI17
asg157
VPDEX
p734
sasg171
(lp735
sg173
(lp736
sg35
(lp737
ssg181
Nsg182
Nsg183
I0
sg68
V664188936080637952
p738
sg185
I00
sg186
g704
sg187
Nsg188
Nsg92
g724
sg100
VTue Nov 10 21:12:37 +0000 2015
p739
sg191
Nsg192
Nsg193
(dp740
g195
Vund
p741
sg197
Vrecent
p742
sssg199
g740
sg200
Nsg201
Nsg31
g730
sg202
Nsg203
Nsg112
g738
sg204
I00
sg205
Nsg206
I0
sg207
Nsbag0
(g4
g5
Ntp743
Rp744
(dp745
g9
I00
sg10
Nsg11
I00
sg12
V$PDEX: PRO DEX INC filed a form 8-K. https://t.co/i6uCBFvUke
p746
sg14
Vhttp://www.jivedata.com/sec
p747
sg16
I00
sg17
I00
sg18
Nsg19
g0
(g20
g5
Ntp748
Rp749
(dp750
g24
I00
sg25
I00
sg26
I01
sg27
VDDEEF6
p751
sg29
I898018302
sg30
I00
sg31
(dp752
g33
(dp753
g35
(lp754
(dp755
g33
Vhttp://t.co/pWCxN8KLo5
p756
sg39
(lp757
I0
aI22
asg41
Vhttp://www.jivedata.com
p758
sg43
Vjivedata.com
p759
sassg45
(dp760
g35
(lp761
sssg48
Vhttps://pbs.twimg.com/profile_images/416320093316841472/YhFYvqmi_normal.png
p762
sg50
(dp763
g52
I00
sg53
I00
sg54
I01
sg55
I00
sg56
I898018302
sg57
Vhttps://pbs.twimg.com/profile_background_images/378800000157544683/R6GKx2Ke.png
p764
sg59
I00
sg60
V333333
p765
sg62
g762
sg63
g751
sg64
g752
sg65
I87
sg66
VFFFFFF
p766
sg68
V898018302
p767
sg70
VFFFFFF
p768
sg72
I14
sg73
I00
sg74
I-18000
sg75
I56088
sg45
VFinancial. Data. Done. Right. This is a real-time feed of XBRL financial data from 10-K's and 10-Q's
p769
sg77
I0
sg78
VNew York, NY
p770
sg80
V0084B4
p771
sg82
Vhttp://pbs.twimg.com/profile_images/416320093316841472/YhFYvqmi_normal.png
p772
sg84
I00
sg85
I00
sg88
Vhttp://pbs.twimg.com/profile_background_images/378800000157544683/R6GKx2Ke.png
p773
sg90
Vsec_filings
p774
sg92
Ven
p775
sg94
I00
sg95
I0
sg96
VSec Filings
p776
sg98
I00
sg33
Vhttp://t.co/pWCxN8KLo5
p777
sg100
VMon Oct 22 17:25:30 +0000 2012
p778
sg102
I00
sg103
VEastern Time (US & Canada)
p779
sg105
I00
sg106
I00
sg107
I00
ssg108
I00
sg109
g765
sg110
I87
sg111
g766
sg112
g767
sg113
I00
sg114
I14
sg115
I00
sg116
I-18000
sg117
I56088
sg118
g769
sg119
I0
sg120
g770
sg121
g771
sg122
g772
sg123
I00
sg124
I00
sg125
g768
sg127
g773
sg128
g774
sg129
g775
sg130
I00
sg131
I00
sg132
I0
sg133
g776
sg134
g777
sg135
g136
(S'\x07\xdc\n\x16\x11\x19\x1e\x00\x00\x00'
p780
tp781
Rp782
sg140
g764
sg141
g779
sg142
I00
sg143
I00
sg144
I00
sbsg145
Nsg29
L664187629806579712L
sg146
I0
sg147
VJive Data SEC Filings
p783
sg129
Ven
p784
sg150
g749
sg135
g136
(S'\x07\xdf\x0b\n\x15\x07\x19\x00\x00\x00'
p785
tp786
Rp787
sg50
(dp788
g155
Nsg156
I00
sg157
g746
sg158
I00
sg159
Nsg56
L664187629806579712L
sg160
I0
sg161
V<a href="http://www.jivedata.com/sec" rel="nofollow">Jive Data SEC Filings</a>
p789
sg163
I00
sg164
Nsg64
(dp790
g166
(lp791
(dp792
g39
(lp793
I0
aI5
asg157
VPDEX
p794
sasg171
(lp795
sg173
(lp796
sg35
(lp797
(dp798
g33
Vhttps://t.co/i6uCBFvUke
p799
sg39
(lp800
I37
aI60
asg41
Vhttp://www.jivedata.com/filings/PDEX/
p801
sg43
Vjivedata.com/filings/PDEX/
p802
sassg181
Nsg182
Nsg183
I0
sg68
V664187629806579712
p803
sg185
I00
sg186
g763
sg187
Nsg188
Nsg189
I00
sg92
g784
sg100
VTue Nov 10 21:07:25 +0000 2015
p804
sg191
Nsg192
Nsg193
(dp805
g195
Ven
p806
sg197
Vrecent
p807
sssg199
g805
sg200
Nsg201
Nsg31
g790
sg202
Nsg203
Nsg112
g803
sg204
I00
sg205
Nsg206
I0
sg207
Nsbag0
(g4
g5
Ntp808
Rp809
(dp810
g9
I00
sg10
Nsg11
I00
sg12
VYesterday We Made $94,000 In Just One Trade More Info Here https://t.co/8WvnrVmkBS .. $CPRX $PDEX $CTCT
p811
sg14
Vhttp://socialadcenter.com
p812
sg16
I00
sg17
I00
sg18
Nsg19
g0
(g20
g5
Ntp813
Rp814
(dp815
g24
I00
sg25
I00
sg26
I01
sg27
VDDEEF6
p816
sg29
L2730855593L
sg30
I00
sg31
(dp817
g33
(dp818
g35
(lp819
(dp820
g33
Vhttp://t.co/UWzH8kOOl9
p821
sg39
(lp822
I0
aI22
asg41
Vhttp://PennyStockSecret.com
p823
sg43
VPennyStockSecret.com
p824
sassg45
(dp825
g35
(lp826
(dp827
g33
Vhttp://t.co/UWzH8kOOl9
p828
sg39
(lp829
I11
aI33
asg41
Vhttp://PennyStockSecret.com
p830
sg43
VPennyStockSecret.com
p831
sasssg48
Vhttps://pbs.twimg.com/profile_images/573247485616889856/gHAtYS9O_normal.png
p832
sg50
(dp833
g52
I00
sg53
I00
sg54
I01
sg55
I00
sg56
L2730855593L
sg57
Vhttps://abs.twimg.com/images/themes/theme1/bg.png
p834
sg59
I00
sg60
V333333
p835
sg62
g832
sg63
g816
sg64
g817
sg65
I2515
sg66
VC0DEED
p836
sg68
V2730855593
p837
sg70
VC0DEED
p838
sg72
I25
sg73
I00
sg74
I0
sg75
I53229
sg45
VSign up to http://t.co/UWzH8kOOl9  and get the premiere penny stock newsletter for free! make sure you subscribe today!
p839
sg77
I9
sg78
VUSA
p840
sg80
V0084B4
p841
sg82
Vhttp://pbs.twimg.com/profile_images/573247485616889856/gHAtYS9O_normal.png
p842
sg84
I00
sg85
I00
sg86
Vhttps://pbs.twimg.com/profile_banners/2730855593/1425507876
p843
sg88
Vhttp://abs.twimg.com/images/themes/theme1/bg.png
p844
sg90
Vstockschamp
p845
sg92
Ven
p846
sg94
I00
sg95
I0
sg96
Vstockschamp
p847
sg98
I00
sg33
Vhttp://t.co/UWzH8kOOl9
p848
sg100
VFri Aug 01 16:39:24 +0000 2014
p849
sg102
I00
sg103
VDublin
p850
sg105
I00
sg106
I01
sg107
I00
ssg108
I00
sg109
g835
sg110
I2515
sg111
g836
sg112
g837
sg113
I00
sg114
I25
sg115
I00
sg116
I0
sg117
I53229
sg118
g839
sg119
I9
sg120
g840
sg121
g841
sg122
g842
sg123
I00
sg124
I00
sg125
g838
sg126
g843
sg127
g844
sg128
g845
sg129
g846
sg130
I00
sg131
I00
sg132
I0
sg133
g847
sg134
g848
sg135
g136
(S"\x07\xde\x08\x01\x10'\x18\x00\x00\x00"
p851
tp852
Rp853
sg140
g834
sg141
g850
sg142
I00
sg143
I01
sg144
I00
sbsg145
Nsg29
L664071301703663616L
sg146
I0
sg147
VSocial Ad Center
p854
sg129
Ven
p855
sg150
g814
sg135
g136
(S'\x07\xdf\x0b\n\r\x19\n\x00\x00\x00'
p856
tp857
Rp858
sg50
(dp859
g155
Nsg156
I00
sg157
g811
sg158
I00
sg159
Nsg56
L664071301703663616L
sg160
I0
sg161
V<a href="http://socialadcenter.com" rel="nofollow">Social Ad Center</a>
p860
sg163
I00
sg164
Nsg64
(dp861
g166
(lp862
(dp863
g39
(lp864
I86
aI91
asg157
VCPRX
p865
sa(dp866
g39
(lp867
I92
aI97
asg157
VPDEX
p868
sa(dp869
g39
(lp870
I98
aI103
asg157
VCTCT
p871
sasg171
(lp872
sg173
(lp873
sg35
(lp874
(dp875
g33
Vhttps://t.co/8WvnrVmkBS
p876
sg39
(lp877
I59
aI82
asg41
Vhttp://PennyStockSecret.com
p878
sg43
VPennyStockSecret.com
p879
sassg181
Nsg182
Nsg183
I0
sg68
V664071301703663616
p880
sg185
I00
sg186
g833
sg187
Nsg188
Nsg189
I00
sg92
g855
sg100
VTue Nov 10 13:25:10 +0000 2015
p881
sg191
Nsg192
Nsg193
(dp882
g195
Ven
p883
sg197
Vrecent
p884
sssg199
g882
sg200
Nsg201
Nsg31
g861
sg202
Nsg203
Nsg112
g880
sg204
I00
sg205
Nsg206
I0
sg207
Nsbag0
(g4
g5
Ntp885
Rp886
(dp887
g9
I00
sg10
Nsg11
I00
sg12
VAfter 3,500% Gains In 4 Months We Have A New Stock Pick Coming Soon! See It Early: https://t.co/26VbgEBy77 $CPRX $PDEX $CTCT
p888
sg14
Vhttp://twitter.com
p889
sg16
I00
sg17
I00
sg18
Nsg19
g0
(g20
g5
Ntp890
Rp891
(dp892
g24
I00
sg25
I00
sg26
I01
sg27
VDDEEF6
p893
sg29
L3315798743L
sg30
I00
sg31
(dp894
g45
(dp895
g35
(lp896
sssg48
Vhttps://pbs.twimg.com/profile_images/608367794644787200/7Js9oXKP_normal.jpg
p897
sg50
(dp898
g52
I00
sg53
I00
sg54
I01
sg55
I00
sg56
L3315798743L
sg57
Vhttps://abs.twimg.com/images/themes/theme1/bg.png
p899
sg59
I00
sg60
V333333
p900
sg62
g897
sg63
g893
sg64
g894
sg65
I12606
sg66
VC0DEED
p901
sg68
V3315798743
p902
sg70
VC0DEED
p903
sg72
I55
sg73
I00
sg74
Nsg75
I82879
sg45
g299
sg77
I0
sg78
g299
sg80
V0084B4
p904
sg82
Vhttp://pbs.twimg.com/profile_images/608367794644787200/7Js9oXKP_normal.jpg
p905
sg84
I00
sg85
I00
sg88
Vhttp://abs.twimg.com/images/themes/theme1/bg.png
p906
sg90
VStockfiendz
p907
sg92
Ven
p908
sg94
I00
sg95
I0
sg96
VMichael Cook
p909
sg98
I00
sg33
Nsg100
VTue Jun 09 20:16:31 +0000 2015
p910
sg102
I00
sg103
Nsg105
I00
sg106
I01
sg107
I00
ssg108
I00
sg109
g900
sg110
I12606
sg111
g901
sg112
g902
sg113
I00
sg114
I55
sg115
I00
sg116
Nsg117
I82879
sg118
g299
sg119
I0
sg120
g299
sg121
g904
sg122
g905
sg123
I00
sg124
I00
sg125
g903
sg127
g906
sg128
g907
sg129
g908
sg130
I00
sg131
I00
sg132
I0
sg133
g909
sg134
Nsg135
g136
(S'\x07\xdf\x06\t\x14\x10\x1f\x00\x00\x00'
p911
tp912
Rp913
sg140
g899
sg141
Nsg142
I00
sg143
I01
sg144
I00
sbsg145
Nsg29
L663947066155122689L
sg146
I0
sg147
VTwitter Web Client
p914
sg129
Ven
p915
sg150
g891
sg135
g136
(S'\x07\xdf\x0b\n\x05\x0b\x1e\x00\x00\x00'
p916
tp917
Rp918
sg50
(dp919
g155
Nsg156
I00
sg157
g888
sg158
I00
sg159
Nsg56
L663947066155122689L
sg160
I0
sg161
V<a href="http://twitter.com" rel="nofollow">Twitter Web Client</a>
p920
sg163
I00
sg164
Nsg64
(dp921
g166
(lp922
(dp923
g39
(lp924
I107
aI112
asg157
VCPRX
p925
sa(dp926
g39
(lp927
I113
aI118
asg157
VPDEX
p928
sa(dp929
g39
(lp930
I119
aI124
asg157
VCTCT
p931
sasg171
(lp932
sg173
(lp933
sg35
(lp934
(dp935
g33
Vhttps://t.co/26VbgEBy77
p936
sg39
(lp937
I83
aI106
asg41
Vhttp://goo.gl/JYKKVk
p938
sg43
Vgoo.gl/JYKKVk
p939
sassg181
Nsg182
Nsg183
I0
sg68
V663947066155122689
p940
sg185
I00
sg186
g898
sg187
Nsg188
Nsg189
I00
sg92
g915
sg100
VTue Nov 10 05:11:30 +0000 2015
p941
sg191
Nsg192
Nsg193
(dp942
g195
Ven
p943
sg197
Vrecent
p944
sssg199
g942
sg200
Nsg201
Nsg31
g921
sg202
Nsg203
Nsg112
g940
sg204
I00
sg205
Nsg206
I0
sg207
Nsbag0
(g4
g5
Ntp945
Rp946
(dp947
g9
I00
sg10
Nsg11
I00
sg12
VOur Pick On $GEQU Gained Over 3,500% For Our Members Within 4 Months! See Our New Picks: https://t.co/YzphAts7wM $CPRX $PDEX $CTCT
p948
sg14
Vhttp://twitter.com
p949
sg16
I00
sg17
I00
sg18
Nsg19
g0
(g20
g5
Ntp950
Rp951
(dp952
g24
I00
sg25
I00
sg26
I01
sg27
VDDEEF6
p953
sg29
L3243313260L
sg30
I00
sg31
(dp954
g45
(dp955
g35
(lp956
sssg48
Vhttps://pbs.twimg.com/profile_images/609376154588286976/l9qz1Ibc_normal.jpg
p957
sg50
(dp958
g52
I00
sg53
I00
sg54
I01
sg55
I00
sg56
L3243313260L
sg57
Vhttps://abs.twimg.com/images/themes/theme1/bg.png
p959
sg59
I00
sg60
V333333
p960
sg62
g957
sg63
g953
sg64
g954
sg65
I19956
sg66
VC0DEED
p961
sg68
V3243313260
p962
sg70
VC0DEED
p963
sg72
I55
sg73
I00
sg74
Nsg75
I81515
sg45
g299
sg77
I0
sg78
g299
sg80
V0084B4
p964
sg82
Vhttp://pbs.twimg.com/profile_images/609376154588286976/l9qz1Ibc_normal.jpg
p965
sg84
I00
sg85
I00
sg88
Vhttp://abs.twimg.com/images/themes/theme1/bg.png
p966
sg90
VTheStockGuyz
p967
sg92
Ven
p968
sg94
I00
sg95
I0
sg96
VMichael James
p969
sg98
I00
sg33
Nsg100
VFri Jun 12 14:53:00 +0000 2015
p970
sg102
I00
sg103
Nsg105
I00
sg106
I01
sg107
I00
ssg108
I00
sg109
g960
sg110
I19956
sg111
g961
sg112
g962
sg113
I00
sg114
I55
sg115
I00
sg116
Nsg117
I81515
sg118
g299
sg119
I0
sg120
g299
sg121
g964
sg122
g965
sg123
I00
sg124
I00
sg125
g963
sg127
g966
sg128
g967
sg129
g968
sg130
I00
sg131
I00
sg132
I0
sg133
g969
sg134
Nsg135
g136
(S'\x07\xdf\x06\x0c\x0e5\x00\x00\x00\x00'
p971
tp972
Rp973
sg140
g959
sg141
Nsg142
I00
sg143
I01
sg144
I00
sbsg145
Nsg29
L663947048455139328L
sg146
I0
sg147
VTwitter Web Client
p974
sg129
Ven
p975
sg150
g951
sg135
g136
(S'\x07\xdf\x0b\n\x05\x0b\x1a\x00\x00\x00'
p976
tp977
Rp978
sg50
(dp979
g155
Nsg156
I00
sg157
g948
sg158
I00
sg159
Nsg56
L663947048455139328L
sg160
I0
sg161
V<a href="http://twitter.com" rel="nofollow">Twitter Web Client</a>
p980
sg163
I00
sg164
Nsg64
(dp981
g166
(lp982
(dp983
g39
(lp984
I12
aI17
asg157
VGEQU
p985
sa(dp986
g39
(lp987
I113
aI118
asg157
VCPRX
p988
sa(dp989
g39
(lp990
I119
aI124
asg157
VPDEX
p991
sa(dp992
g39
(lp993
I125
aI130
asg157
VCTCT
p994
sasg171
(lp995
sg173
(lp996
sg35
(lp997
(dp998
g33
Vhttps://t.co/YzphAts7wM
p999
sg39
(lp1000
I89
aI112
asg41
Vhttp://bit.ly/1VTm35C
p1001
sg43
Vbit.ly/1VTm35C
p1002
sassg181
Nsg182
Nsg183
I0
sg68
V663947048455139328
p1003
sg185
I00
sg186
g958
sg187
Nsg188
Nsg189
I00
sg92
g975
sg100
VTue Nov 10 05:11:26 +0000 2015
p1004
sg191
Nsg192
Nsg193
(dp1005
g195
Ven
p1006
sg197
Vrecent
p1007
sssg199
g1005
sg200
Nsg201
Nsg31
g981
sg202
Nsg203
Nsg112
g1003
sg204
I00
sg205
Nsg206
I0
sg207
Nsbag0
(g4
g5
Ntp1008
Rp1009
(dp1010
g9
I00
sg10
Nsg11
I00
sg12
VOur Platinum Members Have Been Seeing MASSIVE Gains On Our Penny Stock Picks! Subscribe Today: https://t.co/ro7o3SYbd1 $CPRX $PDEX $CTCT
p1011
sg14
Vhttp://twitter.com
p1012
sg16
I00
sg17
I00
sg18
Nsg19
g0
(g20
g5
Ntp1013
Rp1014
(dp1015
g24
I00
sg25
I00
sg26
I01
sg27
VDDEEF6
p1016
sg29
L2447901655L
sg30
I00
sg31
(dp1017
g45
(dp1018
g35
(lp1019
(dp1020
g33
Vhttp://t.co/QYxLf9LJ7f
p1021
sg39
(lp1022
I94
aI116
asg41
Vhttp://www.pennystockdream.com/disclaimer
p1023
sg43
Vpennystockdream.com/disclaimer
p1024
sasssg48
Vhttps://pbs.twimg.com/profile_images/456519281744703490/M4G5Ld8j_normal.jpeg
p1025
sg50
(dp1026
g52
I00
sg53
I00
sg54
I01
sg55
I00
sg56
L2447901655L
sg57
Vhttps://abs.twimg.com/images/themes/theme1/bg.png
p1027
sg59
I00
sg60
V333333
p1028
sg62
g1025
sg63
g1016
sg64
g1017
sg65
I13505
sg66
VC0DEED
p1029
sg68
V2447901655
p1030
sg70
VC0DEED
p1031
sg72
I79
sg73
I00
sg74
Nsg75
I234690
sg45
VATTENTION: Read full disclaimer before looking at any of our tweets! Link To Full Disclaimer: http://t.co/QYxLf9LJ7f
p1032
sg77
I1
sg78
g299
sg80
V0084B4
p1033
sg82
Vhttp://pbs.twimg.com/profile_images/456519281744703490/M4G5Ld8j_normal.jpeg
p1034
sg84
I00
sg85
I00
sg88
Vhttp://abs.twimg.com/images/themes/theme1/bg.png
p1035
sg90
VStockRocketzz
p1036
sg92
Ven
p1037
sg94
I00
sg95
I0
sg96
VStock Rocket
p1038
sg98
I00
sg33
Nsg100
VWed Apr 16 19:44:35 +0000 2014
p1039
sg102
I00
sg103
Nsg105
I00
sg106
I01
sg107
I00
ssg108
I00
sg109
g1028
sg110
I13505
sg111
g1029
sg112
g1030
sg113
I00
sg114
I79
sg115
I00
sg116
Nsg117
I234690
sg118
g1032
sg119
I1
sg120
g299
sg121
g1033
sg122
g1034
sg123
I00
sg124
I00
sg125
g1031
sg127
g1035
sg128
g1036
sg129
g1037
sg130
I00
sg131
I00
sg132
I0
sg133
g1038
sg134
Nsg135
g136
(S'\x07\xde\x04\x10\x13,#\x00\x00\x00'
p1040
tp1041
Rp1042
sg140
g1027
sg141
Nsg142
I00
sg143
I01
sg144
I00
sbsg145
Nsg29
L663893984884989952L
sg146
I0
sg147
VTwitter Web Client
p1043
sg129
Ven
p1044
sg150
g1014
sg135
g136
(S'\x07\xdf\x0b\n\x01(#\x00\x00\x00'
p1045
tp1046
Rp1047
sg50
(dp1048
g155
Nsg156
I00
sg157
g1011
sg158
I00
sg159
Nsg56
L663893984884989952L
sg160
I0
sg161
V<a href="http://twitter.com" rel="nofollow">Twitter Web Client</a>
p1049
sg163
I00
sg164
Nsg64
(dp1050
g166
(lp1051
(dp1052
g39
(lp1053
I119
aI124
asg157
VCPRX
p1054
sa(dp1055
g39
(lp1056
I125
aI130
asg157
VPDEX
p1057
sa(dp1058
g39
(lp1059
I131
aI136
asg157
VCTCT
p1060
sasg171
(lp1061
sg173
(lp1062
sg35
(lp1063
(dp1064
g33
Vhttps://t.co/ro7o3SYbd1
p1065
sg39
(lp1066
I95
aI118
asg41
Vhttp://tinyurl.com/o3lgmg3
p1067
sg43
Vtinyurl.com/o3lgmg3
p1068
sassg181
Nsg182
Nsg183
I0
sg68
V663893984884989952
p1069
sg185
I00
sg186
g1026
sg187
Nsg188
Nsg189
I00
sg92
g1044
sg100
VTue Nov 10 01:40:35 +0000 2015
p1070
sg191
Nsg192
Nsg193
(dp1071
g195
Ven
p1072
sg197
Vrecent
p1073
sssg199
g1071
sg200
Nsg201
Nsg31
g1050
sg202
Nsg203
Nsg112
g1069
sg204
I00
sg205
Nsg206
I0
sg207
Nsbag0
(g4
g5
Ntp1074
Rp1075
(dp1076
g9
I00
sg10
Nsg11
I00
sg12
VOur Stock Alerts Gained Over 1,900% In 2 And A Half Months! See Our Special New Pick: https://t.co/rdhi4T4cqG $CPRX $PDEX $CTCT
p1077
sg14
Vhttp://twitter.com
p1078
sg16
I00
sg17
I00
sg18
Nsg19
g0
(g20
g5
Ntp1079
Rp1080
(dp1081
g24
I00
sg25
I00
sg26
I01
sg27
VDDEEF6
p1082
sg29
L2447967798L
sg30
I00
sg31
(dp1083
g45
(dp1084
g35
(lp1085
(dp1086
g33
Vhttp://t.co/d1PvG67PuC
p1087
sg39
(lp1088
I80
aI102
asg41
Vhttp://tinyurl.com/mcsbvzz
p1089
sg43
Vtinyurl.com/mcsbvzz
p1090
sasssg48
Vhttps://pbs.twimg.com/profile_images/456529846420525056/wLucrlXI_normal.jpeg
p1091
sg50
(dp1092
g52
I00
sg53
I00
sg54
I01
sg55
I00
sg56
L2447967798L
sg57
Vhttps://abs.twimg.com/images/themes/theme1/bg.png
p1093
sg59
I00
sg60
V333333
p1094
sg62
g1091
sg63
g1082
sg64
g1083
sg65
I14103
sg66
VC0DEED
p1095
sg68
V2447967798
p1096
sg70
VC0DEED
p1097
sg72
I101
sg73
I00
sg74
Nsg75
I443646
sg45
VRead our full disclaimer before looking at any of our tweets! Full Disclaimer:  http://t.co/d1PvG67PuC
p1098
sg77
I8
sg78
g299
sg80
V0084B4
p1099
sg82
Vhttp://pbs.twimg.com/profile_images/456529846420525056/wLucrlXI_normal.jpeg
p1100
sg84
I00
sg85
I00
sg88
Vhttp://abs.twimg.com/images/themes/theme1/bg.png
p1101
sg90
VStockaholics
p1102
sg92
Ven
p1103
sg94
I00
sg95
I22
sg96
VStockaholics
p1104
sg98
I00
sg33
Nsg100
VWed Apr 16 20:27:43 +0000 2014
p1105
sg102
I00
sg103
Nsg105
I00
sg106
I01
sg107
I00
ssg108
I00
sg109
g1094
sg110
I14103
sg111
g1095
sg112
g1096
sg113
I00
sg114
I101
sg115
I00
sg116
Nsg117
I443646
sg118
g1098
sg119
I8
sg120
g299
sg121
g1099
sg122
g1100
sg123
I00
sg124
I00
sg125
g1097
sg127
g1101
sg128
g1102
sg129
g1103
sg130
I00
sg131
I00
sg132
I22
sg133
g1104
sg134
Nsg135
g136
(S'\x07\xde\x04\x10\x14\x1b+\x00\x00\x00'
p1106
tp1107
Rp1108
sg140
g1093
sg141
Nsg142
I00
sg143
I01
sg144
I00
sbsg145
Nsg29
L663893214907269120L
sg146
I0
sg147
VTwitter Web Client
p1109
sg129
Ven
p1110
sg150
g1080
sg135
g136
(S'\x07\xdf\x0b\n\x01%\x1f\x00\x00\x00'
p1111
tp1112
Rp1113
sg50
(dp1114
g155
Nsg156
I00
sg157
g1077
sg158
I00
sg159
Nsg56
L663893214907269120L
sg160
I0
sg161
V<a href="http://twitter.com" rel="nofollow">Twitter Web Client</a>
p1115
sg163
I00
sg164
Nsg64
(dp1116
g166
(lp1117
(dp1118
g39
(lp1119
I110
aI115
asg157
VCPRX
p1120
sa(dp1121
g39
(lp1122
I116
aI121
asg157
VPDEX
p1123
sa(dp1124
g39
(lp1125
I122
aI127
asg157
VCTCT
p1126
sasg171
(lp1127
sg173
(lp1128
sg35
(lp1129
(dp1130
g33
Vhttps://t.co/rdhi4T4cqG
p1131
sg39
(lp1132
I86
aI109
asg41
Vhttp://bit.ly/1P4EFQ5
p1133
sg43
Vbit.ly/1P4EFQ5
p1134
sassg181
Nsg182
Nsg183
I0
sg68
V663893214907269120
p1135
sg185
I00
sg186
g1092
sg187
Nsg188
Nsg189
I00
sg92
g1110
sg100
VTue Nov 10 01:37:31 +0000 2015
p1136
sg191
Nsg192
Nsg193
(dp1137
g195
Ven
p1138
sg197
Vrecent
p1139
sssg199
g1137
sg200
Nsg201
Nsg31
g1116
sg202
Nsg203
Nsg112
g1135
sg204
I00
sg205
Nsg206
I0
sg207
Nsbag0
(g4
g5
Ntp1140
Rp1141
(dp1142
g9
I00
sg10
Nsg11
I00
sg12
VOur Stock Alerts Have Been Seeing Record Gains! Our New Pick Will Be MASSIVE: https://t.co/DXRm9Ebxai $CPRX $PDEX $CTCT
p1143
sg14
Vhttp://twitter.com
p1144
sg16
I00
sg17
I00
sg18
Nsg19
g0
(g20
g5
Ntp1145
Rp1146
(dp1147
g24
I00
sg25
I00
sg26
I01
sg27
VDDEEF6
p1148
sg29
L3091884801L
sg30
I00
sg31
(dp1149
g45
(dp1150
g35
(lp1151
(dp1152
g33
Vhttp://t.co/d1PvG67hF4
p1153
sg39
(lp1154
I79
aI101
asg41
Vhttp://tinyurl.com/mcsbvzz
p1155
sg43
Vtinyurl.com/mcsbvzz
p1156
sasssg48
Vhttps://pbs.twimg.com/profile_images/576989971883499521/yv0Bp7te_normal.jpeg
p1157
sg50
(dp1158
g52
I00
sg53
I00
sg54
I01
sg55
I00
sg56
L3091884801L
sg57
Vhttps://abs.twimg.com/images/themes/theme1/bg.png
p1159
sg59
I00
sg60
V333333
p1160
sg62
g1157
sg63
g1148
sg64
g1149
sg65
I15267
sg66
VC0DEED
p1161
sg68
V3091884801
p1162
sg70
VC0DEED
p1163
sg72
I65
sg73
I00
sg74
Nsg75
I170509
sg45
VRead our full disclaimer before looking at any of our tweets! Full Disclaimer: http://t.co/d1PvG67hF4
p1164
sg77
I1
sg78
g299
sg80
V0084B4
p1165
sg82
Vhttp://pbs.twimg.com/profile_images/576989971883499521/yv0Bp7te_normal.jpeg
p1166
sg84
I00
sg85
I00
sg88
Vhttp://abs.twimg.com/images/themes/theme1/bg.png
p1167
sg90
VStockDawgzz
p1168
sg92
Ven
p1169
sg94
I00
sg95
I0
sg96
VStock Dawgzz
p1170
sg98
I00
sg33
Nsg100
VSun Mar 15 06:13:17 +0000 2015
p1171
sg102
I00
sg103
Nsg105
I00
sg106
I01
sg107
I00
ssg108
I00
sg109
g1160
sg110
I15267
sg111
g1161
sg112
g1162
sg113
I00
sg114
I65
sg115
I00
sg116
Nsg117
I170509
sg118
g1164
sg119
I1
sg120
g299
sg121
g1165
sg122
g1166
sg123
I00
sg124
I00
sg125
g1163
sg127
g1167
sg128
g1168
sg129
g1169
sg130
I00
sg131
I00
sg132
I0
sg133
g1170
sg134
Nsg135
g136
(S'\x07\xdf\x03\x0f\x06\r\x11\x00\x00\x00'
p1172
tp1173
Rp1174
sg140
g1159
sg141
Nsg142
I00
sg143
I01
sg144
I00
sbsg145
Nsg29
L663892927903498240L
sg146
I0
sg147
VTwitter Web Client
p1175
sg129
Ven
p1176
sg150
g1146
sg135
g136
(S'\x07\xdf\x0b\n\x01$\x17\x00\x00\x00'
p1177
tp1178
Rp1179
sg50
(dp1180
g155
Nsg156
I00
sg157
g1143
sg158
I00
sg159
Nsg56
L663892927903498240L
sg160
I0
sg161
V<a href="http://twitter.com" rel="nofollow">Twitter Web Client</a>
p1181
sg163
I00
sg164
Nsg64
(dp1182
g166
(lp1183
(dp1184
g39
(lp1185
I102
aI107
asg157
VCPRX
p1186
sa(dp1187
g39
(lp1188
I108
aI113
asg157
VPDEX
p1189
sa(dp1190
g39
(lp1191
I114
aI119
asg157
VCTCT
p1192
sasg171
(lp1193
sg173
(lp1194
sg35
(lp1195
(dp1196
g33
Vhttps://t.co/DXRm9Ebxai
p1197
sg39
(lp1198
I78
aI101
asg41
Vhttp://goo.gl/NGTqcj
p1199
sg43
Vgoo.gl/NGTqcj
p1200
sassg181
Nsg182
Nsg183
I0
sg68
V663892927903498240
p1201
sg185
I00
sg186
g1158
sg187
Nsg188
Nsg189
I00
sg92
g1176
sg100
VTue Nov 10 01:36:23 +0000 2015
p1202
sg191
Nsg192
Nsg193
(dp1203
g195
Ven
p1204
sg197
Vrecent
p1205
sssg199
g1203
sg200
Nsg201
Nsg31
g1182
sg202
Nsg203
Nsg112
g1201
sg204
I00
sg205
Nsg206
I0
sg207
Nsbag0
(g4
g5
Ntp1206
Rp1207
(dp1208
g9
I00
sg10
Nsg11
I00
sg12
V$GEQU Has Increased Almost 20 TIMES In Value, For Our Subscribers! Huge News: https://t.co/viouXok21i $CPRX $PDEX $CTCT
p1209
sg14
Vhttp://twitter.com
p1210
sg16
I00
sg17
I00
sg18
Nsg19
g0
(g20
g5
Ntp1211
Rp1212
(dp1213
g24
I00
sg25
I00
sg26
I01
sg27
VDDEEF6
p1214
sg29
L3091880403L
sg30
I00
sg31
(dp1215
g45
(dp1216
g35
(lp1217
(dp1218
g33
Vhttp://t.co/d1PvG67hF4
p1219
sg39
(lp1220
I79
aI101
asg41
Vhttp://tinyurl.com/mcsbvzz
p1221
sg43
Vtinyurl.com/mcsbvzz
p1222
sasssg48
Vhttps://pbs.twimg.com/profile_images/576985932299026432/vGRv_VM-_normal.png
p1223
sg50
(dp1224
g52
I00
sg53
I00
sg54
I01
sg55
I00
sg56
L3091880403L
sg57
Vhttps://abs.twimg.com/images/themes/theme1/bg.png
p1225
sg59
I00
sg60
V333333
p1226
sg62
g1223
sg63
g1214
sg64
g1215
sg65
I15272
sg66
VC0DEED
p1227
sg68
V3091880403
p1228
sg70
VC0DEED
p1229
sg72
I71
sg73
I00
sg74
Nsg75
I173961
sg45
VRead our full disclaimer before looking at any of our tweets! Full Disclaimer: http://t.co/d1PvG67hF4
p1230
sg77
I0
sg78
g299
sg80
V0084B4
p1231
sg82
Vhttp://pbs.twimg.com/profile_images/576985932299026432/vGRv_VM-_normal.png
p1232
sg84
I00
sg85
I00
sg88
Vhttp://abs.twimg.com/images/themes/theme1/bg.png
p1233
sg90
VPennyStockingt
p1234
sg92
Ven
p1235
sg94
I00
sg95
I1
sg96
VPenny Stockington
p1236
sg98
I00
sg33
Nsg100
VSun Mar 15 05:57:31 +0000 2015
p1237
sg102
I00
sg103
Nsg105
I00
sg106
I01
sg107
I00
ssg108
I00
sg109
g1226
sg110
I15272
sg111
g1227
sg112
g1228
sg113
I00
sg114
I71
sg115
I00
sg116
Nsg117
I173961
sg118
g1230
sg119
I0
sg120
g299
sg121
g1231
sg122
g1232
sg123
I00
sg124
I00
sg125
g1229
sg127
g1233
sg128
g1234
sg129
g1235
sg130
I00
sg131
I00
sg132
I1
sg133
g1236
sg134
Nsg135
g136
(S'\x07\xdf\x03\x0f\x059\x1f\x00\x00\x00'
p1238
tp1239
Rp1240
sg140
g1225
sg141
Nsg142
I00
sg143
I01
sg144
I00
sbsg145
Nsg29
L663892818050576384L
sg146
I0
sg147
VTwitter Web Client
p1241
sg129
Ven
p1242
sg150
g1212
sg135
g136
(S'\x07\xdf\x0b\n\x01#9\x00\x00\x00'
p1243
tp1244
Rp1245
sg50
(dp1246
g155
Nsg156
I00
sg157
g1209
sg158
I00
sg159
Nsg56
L663892818050576384L
sg160
I0
sg161
V<a href="http://twitter.com" rel="nofollow">Twitter Web Client</a>
p1247
sg163
I00
sg164
Nsg64
(dp1248
g166
(lp1249
(dp1250
g39
(lp1251
I0
aI5
asg157
VGEQU
p1252
sa(dp1253
g39
(lp1254
I102
aI107
asg157
VCPRX
p1255
sa(dp1256
g39
(lp1257
I108
aI113
asg157
VPDEX
p1258
sa(dp1259
g39
(lp1260
I114
aI119
asg157
VCTCT
p1261
sasg171
(lp1262
sg173
(lp1263
sg35
(lp1264
(dp1265
g33
Vhttps://t.co/viouXok21i
p1266
sg39
(lp1267
I78
aI101
asg41
Vhttp://tr.im/abvm6
p1268
sg43
Vtr.im/abvm6
p1269
sassg181
Nsg182
Nsg183
I0
sg68
V663892818050576384
p1270
sg185
I00
sg186
g1224
sg187
Nsg188
Nsg189
I00
sg92
g1242
sg100
VTue Nov 10 01:35:57 +0000 2015
p1271
sg191
Nsg192
Nsg193
(dp1272
g195
Ven
p1273
sg197
Vrecent
p1274
sssg199
g1272
sg200
Nsg201
Nsg31
g1248
sg202
Nsg203
Nsg112
g1270
sg204
I00
sg205
Nsg206
I0
sg207
Nsbag0
(g4
g5
Ntp1275
Rp1276
(dp1277
g9
I00
sg10
Nsg11
I00
sg12
VReal-Time feed of company contracts, original agreements and executive updates from $PDEX https://t.co/yX5YaE7JfB
p1278
sg14
Vhttp://www.lawinsider.com
p1279
sg16
I00
sg17
I00
sg18
Nsg19
g0
(g20
g5
Ntp1280
Rp1281
(dp1282
g24
I00
sg25
I00
sg26
I01
sg27
VDDEEF6
p1283
sg29
L2273664823L
sg30
I00
sg31
(dp1284
g45
(dp1285
g35
(lp1286
(dp1287
g33
Vhttp://t.co/fMDCdXlvnP
p1288
sg39
(lp1289
I21
aI43
asg41
Vhttp://LawInsider.com
p1290
sg43
VLawInsider.com
p1291
sasssg48
Vhttps://pbs.twimg.com/profile_images/418879465003823104/hxUShEdz_normal.jpeg
p1292
sg50
(dp1293
g52
I00
sg53
I00
sg54
I01
sg55
I00
sg56
L2273664823L
sg57
Vhttps://abs.twimg.com/images/themes/theme1/bg.png
p1294
sg59
I00
sg60
V333333
p1295
sg62
g1292
sg63
g1283
sg64
g1284
sg65
I627
sg66
VC0DEED
p1296
sg68
V2273664823
p1297
sg70
VC0DEED
p1298
sg72
I81
sg73
I00
sg74
Nsg75
I353442
sg45
VDaily contracts from http://t.co/fMDCdXlvnP. Tweets by @lawinsider.
p1299
sg77
I17
sg78
g299
sg80
V0084B4
p1300
sg82
Vhttp://pbs.twimg.com/profile_images/418879465003823104/hxUShEdz_normal.jpeg
p1301
sg84
I00
sg85
I00
sg88
Vhttp://abs.twimg.com/images/themes/theme1/bg.png
p1302
sg90
VDailyContracts
p1303
sg92
Ven
p1304
sg94
I00
sg95
I0
sg96
VDaily Contracts
p1305
sg98
I00
sg33
Nsg100
VThu Jan 02 22:57:58 +0000 2014
p1306
sg102
I00
sg103
Nsg105
I00
sg106
I01
sg107
I00
ssg108
I00
sg109
g1295
sg110
I627
sg111
g1296
sg112
g1297
sg113
I00
sg114
I81
sg115
I00
sg116
Nsg117
I353442
sg118
g1299
sg119
I17
sg120
g299
sg121
g1300
sg122
g1301
sg123
I00
sg124
I00
sg125
g1298
sg127
g1302
sg128
g1303
sg129
g1304
sg130
I00
sg131
I00
sg132
I0
sg133
g1305
sg134
Nsg135
g136
(S'\x07\xde\x01\x02\x169:\x00\x00\x00'
p1307
tp1308
Rp1309
sg140
g1294
sg141
Nsg142
I00
sg143
I01
sg144
I00
sbsg145
Nsg29
L663804759023874048L
sg146
I0
sg147
VLawinsider.com tweet on upload
p1310
sg129
Ven
p1311
sg150
g1281
sg135
g136
(S'\x07\xdf\x0b\t\x13.\x02\x00\x00\x00'
p1312
tp1313
Rp1314
sg50
(dp1315
g155
Nsg156
I00
sg157
g1278
sg158
I00
sg159
Nsg56
L663804759023874048L
sg160
I0
sg161
V<a href="http://www.lawinsider.com" rel="nofollow">Lawinsider.com tweet on upload</a>
p1316
sg163
I00
sg164
Nsg64
(dp1317
g166
(lp1318
(dp1319
g39
(lp1320
I84
aI89
asg157
VPDEX
p1321
sasg171
(lp1322
sg173
(lp1323
sg35
(lp1324
(dp1325
g33
Vhttps://t.co/yX5YaE7JfB
p1326
sg39
(lp1327
I90
aI113
asg41
Vhttp://lawinsider.com/company/788920?js=subscribe
p1328
sg43
Vlawinsider.com/company/788920\u2026
p1329
sassg181
Nsg182
Nsg183
I0
sg68
V663804759023874048
p1330
sg185
I00
sg186
g1293
sg187
Nsg188
Nsg189
I00
sg92
g1311
sg100
VMon Nov 09 19:46:02 +0000 2015
p1331
sg191
Nsg192
Nsg193
(dp1332
g195
Ven
p1333
sg197
Vrecent
p1334
sssg199
g1332
sg200
Nsg201
Nsg31
g1317
sg202
Nsg203
Nsg112
g1330
sg204
I00
sg205
Nsg206
I0
sg207
Nsbag0
(g4
g5
Ntp1335
Rp1336
(dp1337
g9
I00
sg10
Nsg11
I00
sg12
VThe Most Accurate Stock Alert Service Made $240,000 Yesterday https://t.co/8WvnrVmkBS .. $PDEX $AGYS $GALT
p1338
sg14
Vhttp://socialadcenter.com
p1339
sg16
I00
sg17
I00
sg18
Nsg19
g0
(g20
g5
Ntp1340
Rp1341
(dp1342
g24
I00
sg25
I00
sg26
I01
sg27
VDDEEF6
p1343
sg29
L2730855593L
sg30
I00
sg31
(dp1344
g33
(dp1345
g35
(lp1346
(dp1347
g33
Vhttp://t.co/UWzH8kOOl9
p1348
sg39
(lp1349
I0
aI22
asg41
Vhttp://PennyStockSecret.com
p1350
sg43
VPennyStockSecret.com
p1351
sassg45
(dp1352
g35
(lp1353
(dp1354
g33
Vhttp://t.co/UWzH8kOOl9
p1355
sg39
(lp1356
I11
aI33
asg41
Vhttp://PennyStockSecret.com
p1357
sg43
VPennyStockSecret.com
p1358
sasssg48
Vhttps://pbs.twimg.com/profile_images/573247485616889856/gHAtYS9O_normal.png
p1359
sg50
(dp1360
g52
I00
sg53
I00
sg54
I01
sg55
I00
sg56
L2730855593L
sg57
Vhttps://abs.twimg.com/images/themes/theme1/bg.png
p1361
sg59
I00
sg60
V333333
p1362
sg62
g1359
sg63
g1343
sg64
g1344
sg65
I2515
sg66
VC0DEED
p1363
sg68
V2730855593
p1364
sg70
VC0DEED
p1365
sg72
I25
sg73
I00
sg74
I0
sg75
I53229
sg45
VSign up to http://t.co/UWzH8kOOl9  and get the premiere penny stock newsletter for free! make sure you subscribe today!
p1366
sg77
I9
sg78
VUSA
p1367
sg80
V0084B4
p1368
sg82
Vhttp://pbs.twimg.com/profile_images/573247485616889856/gHAtYS9O_normal.png
p1369
sg84
I00
sg85
I00
sg86
Vhttps://pbs.twimg.com/profile_banners/2730855593/1425507876
p1370
sg88
Vhttp://abs.twimg.com/images/themes/theme1/bg.png
p1371
sg90
Vstockschamp
p1372
sg92
Ven
p1373
sg94
I00
sg95
I0
sg96
Vstockschamp
p1374
sg98
I00
sg33
Vhttp://t.co/UWzH8kOOl9
p1375
sg100
VFri Aug 01 16:39:24 +0000 2014
p1376
sg102
I00
sg103
VDublin
p1377
sg105
I00
sg106
I01
sg107
I00
ssg108
I00
sg109
g1362
sg110
I2515
sg111
g1363
sg112
g1364
sg113
I00
sg114
I25
sg115
I00
sg116
I0
sg117
I53229
sg118
g1366
sg119
I9
sg120
g1367
sg121
g1368
sg122
g1369
sg123
I00
sg124
I00
sg125
g1365
sg126
g1370
sg127
g1371
sg128
g1372
sg129
g1373
sg130
I00
sg131
I00
sg132
I0
sg133
g1374
sg134
g1375
sg135
g136
(S"\x07\xde\x08\x01\x10'\x18\x00\x00\x00"
p1378
tp1379
Rp1380
sg140
g1361
sg141
g1377
sg142
I00
sg143
I01
sg144
I00
sbsg145
Nsg29
L663730223830073344L
sg146
I0
sg147
VSocial Ad Center
p1381
sg129
Ven
p1382
sg150
g1341
sg135
g136
(S'\x07\xdf\x0b\t\x0e13\x00\x00\x00'
p1383
tp1384
Rp1385
sg50
(dp1386
g155
Nsg156
I00
sg157
g1338
sg158
I00
sg159
Nsg56
L663730223830073344L
sg160
I0
sg161
V<a href="http://socialadcenter.com" rel="nofollow">Social Ad Center</a>
p1387
sg163
I00
sg164
Nsg64
(dp1388
g166
(lp1389
(dp1390
g39
(lp1391
I89
aI94
asg157
VPDEX
p1392
sa(dp1393
g39
(lp1394
I95
aI100
asg157
VAGYS
p1395
sa(dp1396
g39
(lp1397
I101
aI106
asg157
VGALT
p1398
sasg171
(lp1399
sg173
(lp1400
sg35
(lp1401
(dp1402
g33
Vhttps://t.co/8WvnrVmkBS
p1403
sg39
(lp1404
I62
aI85
asg41
Vhttp://PennyStockSecret.com
p1405
sg43
VPennyStockSecret.com
p1406
sassg181
Nsg182
Nsg183
I0
sg68
V663730223830073344
p1407
sg185
I00
sg186
g1360
sg187
Nsg188
Nsg189
I00
sg92
g1382
sg100
VMon Nov 09 14:49:51 +0000 2015
p1408
sg191
Nsg192
Nsg193
(dp1409
g195
Ven
p1410
sg197
Vrecent
p1411
sssg199
g1409
sg200
Nsg201
Nsg31
g1388
sg202
Nsg203
Nsg112
g1407
sg204
I00
sg205
Nsg206
I0
sg207
Nsbag0
(g4
g5
Ntp1412
Rp1413
(dp1414
g9
I00
sg10
Nsg11
I00
sg12
VOur Platinum Members Have Been Seeing MASSIVE Gains On Our Penny Stock Picks! Subscribe Today: https://t.co/ro7o3SYbd1 $CPRX $PDEX $CTCT
p1415
sg14
Vhttp://twitter.com
p1416
sg16
I00
sg17
I00
sg18
Nsg19
g0
(g20
g5
Ntp1417
Rp1418
(dp1419
g24
I00
sg25
I00
sg26
I01
sg27
VDDEEF6
p1420
sg29
L2447901655L
sg30
I00
sg31
(dp1421
g45
(dp1422
g35
(lp1423
(dp1424
g33
Vhttp://t.co/QYxLf9LJ7f
p1425
sg39
(lp1426
I94
aI116
asg41
Vhttp://www.pennystockdream.com/disclaimer
p1427
sg43
Vpennystockdream.com/disclaimer
p1428
sasssg48
Vhttps://pbs.twimg.com/profile_images/456519281744703490/M4G5Ld8j_normal.jpeg
p1429
sg50
(dp1430
g52
I00
sg53
I00
sg54
I01
sg55
I00
sg56
L2447901655L
sg57
Vhttps://abs.twimg.com/images/themes/theme1/bg.png
p1431
sg59
I00
sg60
V333333
p1432
sg62
g1429
sg63
g1420
sg64
g1421
sg65
I13505
sg66
VC0DEED
p1433
sg68
V2447901655
p1434
sg70
VC0DEED
p1435
sg72
I79
sg73
I00
sg74
Nsg75
I234690
sg45
VATTENTION: Read full disclaimer before looking at any of our tweets! Link To Full Disclaimer: http://t.co/QYxLf9LJ7f
p1436
sg77
I1
sg78
g299
sg80
V0084B4
p1437
sg82
Vhttp://pbs.twimg.com/profile_images/456519281744703490/M4G5Ld8j_normal.jpeg
p1438
sg84
I00
sg85
I00
sg88
Vhttp://abs.twimg.com/images/themes/theme1/bg.png
p1439
sg90
VStockRocketzz
p1440
sg92
Ven
p1441
sg94
I00
sg95
I0
sg96
VStock Rocket
p1442
sg98
I00
sg33
Nsg100
VWed Apr 16 19:44:35 +0000 2014
p1443
sg102
I00
sg103
Nsg105
I00
sg106
I01
sg107
I00
ssg108
I00
sg109
g1432
sg110
I13505
sg111
g1433
sg112
g1434
sg113
I00
sg114
I79
sg115
I00
sg116
Nsg117
I234690
sg118
g1436
sg119
I1
sg120
g299
sg121
g1437
sg122
g1438
sg123
I00
sg124
I00
sg125
g1435
sg127
g1439
sg128
g1440
sg129
g1441
sg130
I00
sg131
I00
sg132
I0
sg133
g1442
sg134
Nsg135
g136
(S'\x07\xde\x04\x10\x13,#\x00\x00\x00'
p1444
tp1445
Rp1446
sg140
g1431
sg141
Nsg142
I00
sg143
I01
sg144
I00
sbsg145
Nsg29
L663040130454847488L
sg146
I0
sg147
VTwitter Web Client
p1447
sg129
Ven
p1448
sg150
g1418
sg135
g136
(S'\x07\xdf\x0b\x07\x11\x07(\x00\x00\x00'
p1449
tp1450
Rp1451
sg50
(dp1452
g155
Nsg156
I00
sg157
g1415
sg158
I00
sg159
Nsg56
L663040130454847488L
sg160
I0
sg161
V<a href="http://twitter.com" rel="nofollow">Twitter Web Client</a>
p1453
sg163
I00
sg164
Nsg64
(dp1454
g166
(lp1455
(dp1456
g39
(lp1457
I119
aI124
asg157
VCPRX
p1458
sa(dp1459
g39
(lp1460
I125
aI130
asg157
VPDEX
p1461
sa(dp1462
g39
(lp1463
I131
aI136
asg157
VCTCT
p1464
sasg171
(lp1465
sg173
(lp1466
sg35
(lp1467
(dp1468
g33
Vhttps://t.co/ro7o3SYbd1
p1469
sg39
(lp1470
I95
aI118
asg41
Vhttp://tinyurl.com/o3lgmg3
p1471
sg43
Vtinyurl.com/o3lgmg3
p1472
sassg181
Nsg182
Nsg183
I0
sg68
V663040130454847488
p1473
sg185
I00
sg186
g1430
sg187
Nsg188
Nsg189
I00
sg92
g1448
sg100
VSat Nov 07 17:07:40 +0000 2015
p1474
sg191
Nsg192
Nsg193
(dp1475
g195
Ven
p1476
sg197
Vrecent
p1477
sssg199
g1475
sg200
Nsg201
Nsg31
g1454
sg202
Nsg203
Nsg112
g1473
sg204
I00
sg205
Nsg206
I0
sg207
Nsbag0
(g4
g5
Ntp1478
Rp1479
(dp1480
g9
I00
sg10
Nsg11
I00
sg12
VOur Pick On $HCTI More Than Tripled For Our Members, In 3 Weeks! Subscribe For Our New Picks: https://t.co/6sqzAAvjDY $CPRX $PDEX $CTCT
p1481
sg14
Vhttp://twitter.com
p1482
sg16
I00
sg17
I00
sg18
Nsg19
g0
(g20
g5
Ntp1483
Rp1484
(dp1485
g24
I00
sg25
I00
sg26
I01
sg27
VDDEEF6
p1486
sg29
L2447928920L
sg30
I00
sg31
(dp1487
g45
(dp1488
g35
(lp1489
(dp1490
g33
Vhttp://t.co/QYxLf9LJ7f
p1491
sg39
(lp1492
I94
aI116
asg41
Vhttp://www.pennystockdream.com/disclaimer
p1493
sg43
Vpennystockdream.com/disclaimer
p1494
sasssg48
Vhttps://pbs.twimg.com/profile_images/456523892308201472/sBGAsJTn_normal.png
p1495
sg50
(dp1496
g52
I00
sg53
I00
sg54
I01
sg55
I00
sg56
L2447928920L
sg57
Vhttps://abs.twimg.com/images/themes/theme1/bg.png
p1497
sg59
I00
sg60
V333333
p1498
sg62
g1495
sg63
g1486
sg64
g1487
sg65
I4321
sg66
VC0DEED
p1499
sg68
V2447928920
p1500
sg70
VC0DEED
p1501
sg72
I60
sg73
I00
sg74
Nsg75
I179299
sg45
VATTENTION: Read full disclaimer before looking at any of our tweets! Link To Full Disclaimer: http://t.co/QYxLf9LJ7f
p1502
sg77
I0
sg78
g299
sg80
V0084B4
p1503
sg82
Vhttp://pbs.twimg.com/profile_images/456523892308201472/sBGAsJTn_normal.png
p1504
sg84
I00
sg85
I00
sg88
Vhttp://abs.twimg.com/images/themes/theme1/bg.png
p1505
sg90
VStockenheimer1
p1506
sg92
Ven
p1507
sg94
I00
sg95
I0
sg96
VStockenheimerSchmidt
p1508
sg98
I00
sg33
Nsg100
VWed Apr 16 20:03:52 +0000 2014
p1509
sg102
I00
sg103
Nsg105
I00
sg106
I01
sg107
I00
ssg108
I00
sg109
g1498
sg110
I4321
sg111
g1499
sg112
g1500
sg113
I00
sg114
I60
sg115
I00
sg116
Nsg117
I179299
sg118
g1502
sg119
I0
sg120
g299
sg121
g1503
sg122
g1504
sg123
I00
sg124
I00
sg125
g1501
sg127
g1505
sg128
g1506
sg129
g1507
sg130
I00
sg131
I00
sg132
I0
sg133
g1508
sg134
Nsg135
g136
(S'\x07\xde\x04\x10\x14\x034\x00\x00\x00'
p1510
tp1511
Rp1512
sg140
g1497
sg141
Nsg142
I00
sg143
I01
sg144
I00
sbsg145
Nsg29
L663039153962110976L
sg146
I0
sg147
VTwitter Web Client
p1513
sg129
Ven
p1514
sg150
g1484
sg135
g136
(S'\x07\xdf\x0b\x07\x11\x03/\x00\x00\x00'
p1515
tp1516
Rp1517
sg50
(dp1518
g155
Nsg156
I00
sg157
g1481
sg158
I00
sg159
Nsg56
L663039153962110976L
sg160
I0
sg161
V<a href="http://twitter.com" rel="nofollow">Twitter Web Client</a>
p1519
sg163
I00
sg164
Nsg64
(dp1520
g166
(lp1521
(dp1522
g39
(lp1523
I12
aI17
asg157
VHCTI
p1524
sa(dp1525
g39
(lp1526
I118
aI123
asg157
VCPRX
p1527
sa(dp1528
g39
(lp1529
I124
aI129
asg157
VPDEX
p1530
sa(dp1531
g39
(lp1532
I130
aI135
asg157
VCTCT
p1533
sasg171
(lp1534
sg173
(lp1535
sg35
(lp1536
(dp1537
g33
Vhttps://t.co/6sqzAAvjDY
p1538
sg39
(lp1539
I94
aI117
asg41
Vhttp://ow.ly/SP8LD
p1540
sg43
Vow.ly/SP8LD
p1541
sassg181
Nsg182
Nsg183
I0
sg68
V663039153962110976
p1542
sg185
I00
sg186
g1496
sg187
Nsg188
Nsg189
I00
sg92
g1514
sg100
VSat Nov 07 17:03:47 +0000 2015
p1543
sg191
Nsg192
Nsg193
(dp1544
g195
Ven
p1545
sg197
Vrecent
p1546
sssg199
g1544
sg200
Nsg201
Nsg31
g1520
sg202
Nsg203
Nsg112
g1542
sg204
I00
sg205
Nsg206
I0
sg207
Nsbag0
(g4
g5
Ntp1547
Rp1548
(dp1549
g9
I00
sg10
Nsg11
I00
sg12
VOur Stock Alerts Have Been Seeing Record Gains! Our New Pick Will Be MASSIVE: https://t.co/DXRm9DTWiK $CPRX $PDEX $CTCT
p1550
sg14
Vhttp://twitter.com
p1551
sg16
I00
sg17
I00
sg18
Nsg19
g0
(g20
g5
Ntp1552
Rp1553
(dp1554
g24
I00
sg25
I00
sg26
I01
sg27
VDDEEF6
p1555
sg29
L3091884801L
sg30
I00
sg31
(dp1556
g45
(dp1557
g35
(lp1558
(dp1559
g33
Vhttp://t.co/d1PvG67hF4
p1560
sg39
(lp1561
I79
aI101
asg41
Vhttp://tinyurl.com/mcsbvzz
p1562
sg43
Vtinyurl.com/mcsbvzz
p1563
sasssg48
Vhttps://pbs.twimg.com/profile_images/576989971883499521/yv0Bp7te_normal.jpeg
p1564
sg50
(dp1565
g52
I00
sg53
I00
sg54
I01
sg55
I00
sg56
L3091884801L
sg57
Vhttps://abs.twimg.com/images/themes/theme1/bg.png
p1566
sg59
I00
sg60
V333333
p1567
sg62
g1564
sg63
g1555
sg64
g1556
sg65
I15267
sg66
VC0DEED
p1568
sg68
V3091884801
p1569
sg70
VC0DEED
p1570
sg72
I65
sg73
I00
sg74
Nsg75
I170509
sg45
VRead our full disclaimer before looking at any of our tweets! Full Disclaimer: http://t.co/d1PvG67hF4
p1571
sg77
I1
sg78
g299
sg80
V0084B4
p1572
sg82
Vhttp://pbs.twimg.com/profile_images/576989971883499521/yv0Bp7te_normal.jpeg
p1573
sg84
I00
sg85
I00
sg88
Vhttp://abs.twimg.com/images/themes/theme1/bg.png
p1574
sg90
VStockDawgzz
p1575
sg92
Ven
p1576
sg94
I00
sg95
I0
sg96
VStock Dawgzz
p1577
sg98
I00
sg33
Nsg100
VSun Mar 15 06:13:17 +0000 2015
p1578
sg102
I00
sg103
Nsg105
I00
sg106
I01
sg107
I00
ssg108
I00
sg109
g1567
sg110
I15267
sg111
g1568
sg112
g1569
sg113
I00
sg114
I65
sg115
I00
sg116
Nsg117
I170509
sg118
g1571
sg119
I1
sg120
g299
sg121
g1572
sg122
g1573
sg123
I00
sg124
I00
sg125
g1570
sg127
g1574
sg128
g1575
sg129
g1576
sg130
I00
sg131
I00
sg132
I0
sg133
g1577
sg134
Nsg135
g136
(S'\x07\xdf\x03\x0f\x06\r\x11\x00\x00\x00'
p1579
tp1580
Rp1581
sg140
g1566
sg141
Nsg142
I00
sg143
I01
sg144
I00
sbsg145
Nsg29
L663038454633209856L
sg146
I0
sg147
VTwitter Web Client
p1582
sg129
Ven
p1583
sg150
g1553
sg135
g136
(S'\x07\xdf\x0b\x07\x11\x01\x00\x00\x00\x00'
p1584
tp1585
Rp1586
sg50
(dp1587
g155
Nsg156
I00
sg157
g1550
sg158
I00
sg159
Nsg56
L663038454633209856L
sg160
I0
sg161
V<a href="http://twitter.com" rel="nofollow">Twitter Web Client</a>
p1588
sg163
I00
sg164
Nsg64
(dp1589
g166
(lp1590
(dp1591
g39
(lp1592
I102
aI107
asg157
VCPRX
p1593
sa(dp1594
g39
(lp1595
I108
aI113
asg157
VPDEX
p1596
sa(dp1597
g39
(lp1598
I114
aI119
asg157
VCTCT
p1599
sasg171
(lp1600
sg173
(lp1601
sg35
(lp1602
(dp1603
g33
Vhttps://t.co/DXRm9DTWiK
p1604
sg39
(lp1605
I78
aI101
asg41
Vhttp://goo.gl/NGTqcj
p1606
sg43
Vgoo.gl/NGTqcj
p1607
sassg181
Nsg182
Nsg183
I0
sg68
V663038454633209856
p1608
sg185
I00
sg186
g1565
sg187
Nsg188
Nsg189
I00
sg92
g1583
sg100
VSat Nov 07 17:01:00 +0000 2015
p1609
sg191
Nsg192
Nsg193
(dp1610
g195
Ven
p1611
sg197
Vrecent
p1612
sssg199
g1610
sg200
Nsg201
Nsg31
g1589
sg202
Nsg203
Nsg112
g1608
sg204
I00
sg205
Nsg206
I0
sg207
Nsbag0
(g4
g5
Ntp1613
Rp1614
(dp1615
g9
I00
sg10
Nsg11
I00
sg12
VOur Stock Alerts Gained Over 1,900% In 2 And A Half Months! See Our Special New Pick: https://t.co/rdhi4T4cqG $CPRX $PDEX $CTCT
p1616
sg14
Vhttp://twitter.com
p1617
sg16
I00
sg17
I00
sg18
Nsg19
g0
(g20
g5
Ntp1618
Rp1619
(dp1620
g24
I00
sg25
I00
sg26
I01
sg27
VDDEEF6
p1621
sg29
L2447967798L
sg30
I00
sg31
(dp1622
g45
(dp1623
g35
(lp1624
(dp1625
g33
Vhttp://t.co/d1PvG67PuC
p1626
sg39
(lp1627
I80
aI102
asg41
Vhttp://tinyurl.com/mcsbvzz
p1628
sg43
Vtinyurl.com/mcsbvzz
p1629
sasssg48
Vhttps://pbs.twimg.com/profile_images/456529846420525056/wLucrlXI_normal.jpeg
p1630
sg50
(dp1631
g52
I00
sg53
I00
sg54
I01
sg55
I00
sg56
L2447967798L
sg57
Vhttps://abs.twimg.com/images/themes/theme1/bg.png
p1632
sg59
I00
sg60
V333333
p1633
sg62
g1630
sg63
g1621
sg64
g1622
sg65
I14103
sg66
VC0DEED
p1634
sg68
V2447967798
p1635
sg70
VC0DEED
p1636
sg72
I101
sg73
I00
sg74
Nsg75
I443646
sg45
VRead our full disclaimer before looking at any of our tweets! Full Disclaimer:  http://t.co/d1PvG67PuC
p1637
sg77
I8
sg78
g299
sg80
V0084B4
p1638
sg82
Vhttp://pbs.twimg.com/profile_images/456529846420525056/wLucrlXI_normal.jpeg
p1639
sg84
I00
sg85
I00
sg88
Vhttp://abs.twimg.com/images/themes/theme1/bg.png
p1640
sg90
VStockaholics
p1641
sg92
Ven
p1642
sg94
I00
sg95
I22
sg96
VStockaholics
p1643
sg98
I00
sg33
Nsg100
VWed Apr 16 20:27:43 +0000 2014
p1644
sg102
I00
sg103
Nsg105
I00
sg106
I01
sg107
I00
ssg108
I00
sg109
g1633
sg110
I14103
sg111
g1634
sg112
g1635
sg113
I00
sg114
I101
sg115
I00
sg116
Nsg117
I443646
sg118
g1637
sg119
I8
sg120
g299
sg121
g1638
sg122
g1639
sg123
I00
sg124
I00
sg125
g1636
sg127
g1640
sg128
g1641
sg129
g1642
sg130
I00
sg131
I00
sg132
I22
sg133
g1643
sg134
Nsg135
g136
(S'\x07\xde\x04\x10\x14\x1b+\x00\x00\x00'
p1645
tp1646
Rp1647
sg140
g1632
sg141
Nsg142
I00
sg143
I01
sg144
I00
sbsg145
Nsg29
L663035777438322689L
sg146
I0
sg147
VTwitter Web Client
p1648
sg129
Ven
p1649
sg150
g1619
sg135
g136
(S'\x07\xdf\x0b\x07\x102\x16\x00\x00\x00'
p1650
tp1651
Rp1652
sg50
(dp1653
g155
Nsg156
I00
sg157
g1616
sg158
I00
sg159
Nsg56
L663035777438322689L
sg160
I0
sg161
V<a href="http://twitter.com" rel="nofollow">Twitter Web Client</a>
p1654
sg163
I00
sg164
Nsg64
(dp1655
g166
(lp1656
(dp1657
g39
(lp1658
I110
aI115
asg157
VCPRX
p1659
sa(dp1660
g39
(lp1661
I116
aI121
asg157
VPDEX
p1662
sa(dp1663
g39
(lp1664
I122
aI127
asg157
VCTCT
p1665
sasg171
(lp1666
sg173
(lp1667
sg35
(lp1668
(dp1669
g33
Vhttps://t.co/rdhi4T4cqG
p1670
sg39
(lp1671
I86
aI109
asg41
Vhttp://bit.ly/1P4EFQ5
p1672
sg43
Vbit.ly/1P4EFQ5
p1673
sassg181
Nsg182
Nsg183
I0
sg68
V663035777438322689
p1674
sg185
I00
sg186
g1631
sg187
Nsg188
Nsg189
I00
sg92
g1649
sg100
VSat Nov 07 16:50:22 +0000 2015
p1675
sg191
Nsg192
Nsg193
(dp1676
g195
Ven
p1677
sg197
Vrecent
p1678
sssg199
g1676
sg200
Nsg201
Nsg31
g1655
sg202
Nsg203
Nsg112
g1674
sg204
I00
sg205
Nsg206
I0
sg207
Nsbag0
(g4
g5
Ntp1679
Rp1680
(dp1681
g9
I00
sg10
Nsg11
I00
sg12
V$GEQU Has Increased Almost 20 TIMES In Value, For Our Subscribers! Huge News: https://t.co/viouXok21i $CPRX $PDEX $CTCT
p1682
sg14
Vhttp://twitter.com
p1683
sg16
I00
sg17
I00
sg18
Nsg19
g0
(g20
g5
Ntp1684
Rp1685
(dp1686
g24
I00
sg25
I00
sg26
I01
sg27
VDDEEF6
p1687
sg29
L3091880403L
sg30
I00
sg31
(dp1688
g45
(dp1689
g35
(lp1690
(dp1691
g33
Vhttp://t.co/d1PvG67hF4
p1692
sg39
(lp1693
I79
aI101
asg41
Vhttp://tinyurl.com/mcsbvzz
p1694
sg43
Vtinyurl.com/mcsbvzz
p1695
sasssg48
Vhttps://pbs.twimg.com/profile_images/576985932299026432/vGRv_VM-_normal.png
p1696
sg50
(dp1697
g52
I00
sg53
I00
sg54
I01
sg55
I00
sg56
L3091880403L
sg57
Vhttps://abs.twimg.com/images/themes/theme1/bg.png
p1698
sg59
I00
sg60
V333333
p1699
sg62
g1696
sg63
g1687
sg64
g1688
sg65
I15272
sg66
VC0DEED
p1700
sg68
V3091880403
p1701
sg70
VC0DEED
p1702
sg72
I71
sg73
I00
sg74
Nsg75
I173961
sg45
VRead our full disclaimer before looking at any of our tweets! Full Disclaimer: http://t.co/d1PvG67hF4
p1703
sg77
I0
sg78
g299
sg80
V0084B4
p1704
sg82
Vhttp://pbs.twimg.com/profile_images/576985932299026432/vGRv_VM-_normal.png
p1705
sg84
I00
sg85
I00
sg88
Vhttp://abs.twimg.com/images/themes/theme1/bg.png
p1706
sg90
VPennyStockingt
p1707
sg92
Ven
p1708
sg94
I00
sg95
I1
sg96
VPenny Stockington
p1709
sg98
I00
sg33
Nsg100
VSun Mar 15 05:57:31 +0000 2015
p1710
sg102
I00
sg103
Nsg105
I00
sg106
I01
sg107
I00
ssg108
I00
sg109
g1699
sg110
I15272
sg111
g1700
sg112
g1701
sg113
I00
sg114
I71
sg115
I00
sg116
Nsg117
I173961
sg118
g1703
sg119
I0
sg120
g299
sg121
g1704
sg122
g1705
sg123
I00
sg124
I00
sg125
g1702
sg127
g1706
sg128
g1707
sg129
g1708
sg130
I00
sg131
I00
sg132
I1
sg133
g1709
sg134
Nsg135
g136
(S'\x07\xdf\x03\x0f\x059\x1f\x00\x00\x00'
p1711
tp1712
Rp1713
sg140
g1698
sg141
Nsg142
I00
sg143
I01
sg144
I00
sbsg145
Nsg29
L663032104700223489L
sg146
I0
sg147
VTwitter Web Client
p1714
sg129
Ven
p1715
sg150
g1685
sg135
g136
(S'\x07\xdf\x0b\x07\x10#.\x00\x00\x00'
p1716
tp1717
Rp1718
sg50
(dp1719
g155
Nsg156
I00
sg157
g1682
sg158
I00
sg159
Nsg56
L663032104700223489L
sg160
I0
sg161
V<a href="http://twitter.com" rel="nofollow">Twitter Web Client</a>
p1720
sg163
I00
sg164
Nsg64
(dp1721
g166
(lp1722
(dp1723
g39
(lp1724
I0
aI5
asg157
VGEQU
p1725
sa(dp1726
g39
(lp1727
I102
aI107
asg157
VCPRX
p1728
sa(dp1729
g39
(lp1730
I108
aI113
asg157
VPDEX
p1731
sa(dp1732
g39
(lp1733
I114
aI119
asg157
VCTCT
p1734
sasg171
(lp1735
sg173
(lp1736
sg35
(lp1737
(dp1738
g33
Vhttps://t.co/viouXok21i
p1739
sg39
(lp1740
I78
aI101
asg41
Vhttp://tr.im/abvm6
p1741
sg43
Vtr.im/abvm6
p1742
sassg181
Nsg182
Nsg183
I0
sg68
V663032104700223489
p1743
sg185
I00
sg186
g1697
sg187
Nsg188
Nsg189
I00
sg92
g1715
sg100
VSat Nov 07 16:35:46 +0000 2015
p1744
sg191
Nsg192
Nsg193
(dp1745
g195
Ven
p1746
sg197
Vrecent
p1747
sssg199
g1745
sg200
Nsg201
Nsg31
g1721
sg202
Nsg203
Nsg112
g1743
sg204
I00
sg205
Nsg206
I0
sg207
Nsbag0
(g4
g5
Ntp1748
Rp1749
(dp1750
g9
I00
sg10
Nsg11
I00
sg12
VOur Pick On $GEQU Gained Over 3,500% For Our Members Within 4 Months! See Our New Picks: https://t.co/YzphAts7wM $CPRX $PDEX $CTCT
p1751
sg14
Vhttp://twitter.com
p1752
sg16
I00
sg17
I00
sg18
Nsg19
g0
(g20
g5
Ntp1753
Rp1754
(dp1755
g24
I00
sg25
I00
sg26
I01
sg27
VDDEEF6
p1756
sg29
L3243313260L
sg30
I00
sg31
(dp1757
g45
(dp1758
g35
(lp1759
sssg48
Vhttps://pbs.twimg.com/profile_images/609376154588286976/l9qz1Ibc_normal.jpg
p1760
sg50
(dp1761
g52
I00
sg53
I00
sg54
I01
sg55
I00
sg56
L3243313260L
sg57
Vhttps://abs.twimg.com/images/themes/theme1/bg.png
p1762
sg59
I00
sg60
V333333
p1763
sg62
g1760
sg63
g1756
sg64
g1757
sg65
I19956
sg66
VC0DEED
p1764
sg68
V3243313260
p1765
sg70
VC0DEED
p1766
sg72
I55
sg73
I00
sg74
Nsg75
I81515
sg45
g299
sg77
I0
sg78
g299
sg80
V0084B4
p1767
sg82
Vhttp://pbs.twimg.com/profile_images/609376154588286976/l9qz1Ibc_normal.jpg
p1768
sg84
I00
sg85
I00
sg88
Vhttp://abs.twimg.com/images/themes/theme1/bg.png
p1769
sg90
VTheStockGuyz
p1770
sg92
Ven
p1771
sg94
I00
sg95
I0
sg96
VMichael James
p1772
sg98
I00
sg33
Nsg100
VFri Jun 12 14:53:00 +0000 2015
p1773
sg102
I00
sg103
Nsg105
I00
sg106
I01
sg107
I00
ssg108
I00
sg109
g1763
sg110
I19956
sg111
g1764
sg112
g1765
sg113
I00
sg114
I55
sg115
I00
sg116
Nsg117
I81515
sg118
g299
sg119
I0
sg120
g299
sg121
g1767
sg122
g1768
sg123
I00
sg124
I00
sg125
g1766
sg127
g1769
sg128
g1770
sg129
g1771
sg130
I00
sg131
I00
sg132
I0
sg133
g1772
sg134
Nsg135
g136
(S'\x07\xdf\x06\x0c\x0e5\x00\x00\x00\x00'
p1774
tp1775
Rp1776
sg140
g1762
sg141
Nsg142
I00
sg143
I01
sg144
I00
sbsg145
Nsg29
L662860775522967552L
sg146
I0
sg147
VTwitter Web Client
p1777
sg129
Ven
p1778
sg150
g1754
sg135
g136
(S'\x07\xdf\x0b\x07\x05\x0e:\x00\x00\x00'
p1779
tp1780
Rp1781
sg50
(dp1782
g155
Nsg156
I00
sg157
g1751
sg158
I00
sg159
Nsg56
L662860775522967552L
sg160
I0
sg161
V<a href="http://twitter.com" rel="nofollow">Twitter Web Client</a>
p1783
sg163
I00
sg164
Nsg64
(dp1784
g166
(lp1785
(dp1786
g39
(lp1787
I12
aI17
asg157
VGEQU
p1788
sa(dp1789
g39
(lp1790
I113
aI118
asg157
VCPRX
p1791
sa(dp1792
g39
(lp1793
I119
aI124
asg157
VPDEX
p1794
sa(dp1795
g39
(lp1796
I125
aI130
asg157
VCTCT
p1797
sasg171
(lp1798
sg173
(lp1799
sg35
(lp1800
(dp1801
g33
Vhttps://t.co/YzphAts7wM
p1802
sg39
(lp1803
I89
aI112
asg41
Vhttp://bit.ly/1VTm35C
p1804
sg43
Vbit.ly/1VTm35C
p1805
sassg181
Nsg182
Nsg183
I0
sg68
V662860775522967552
p1806
sg185
I00
sg186
g1761
sg187
Nsg188
Nsg189
I00
sg92
g1778
sg100
VSat Nov 07 05:14:58 +0000 2015
p1807
sg191
Nsg192
Nsg193
(dp1808
g195
Ven
p1809
sg197
Vrecent
p1810
sssg199
g1808
sg200
Nsg201
Nsg31
g1784
sg202
Nsg203
Nsg112
g1806
sg204
I00
sg205
Nsg206
I0
sg207
Nsbag0
(g4
g5
Ntp1811
Rp1812
(dp1813
g9
I00
sg10
Nsg11
I00
sg12
VAfter 3,500% Gains In 4 Months We Have A New Stock Pick Coming Soon! See It Early: https://t.co/26VbgEBy77 $CPRX $PDEX $CTCT
p1814
sg14
Vhttp://twitter.com
p1815
sg16
I00
sg17
I00
sg18
Nsg19
g0
(g20
g5
Ntp1816
Rp1817
(dp1818
g24
I00
sg25
I00
sg26
I01
sg27
VDDEEF6
p1819
sg29
L3315798743L
sg30
I00
sg31
(dp1820
g45
(dp1821
g35
(lp1822
sssg48
Vhttps://pbs.twimg.com/profile_images/608367794644787200/7Js9oXKP_normal.jpg
p1823
sg50
(dp1824
g52
I00
sg53
I00
sg54
I01
sg55
I00
sg56
L3315798743L
sg57
Vhttps://abs.twimg.com/images/themes/theme1/bg.png
p1825
sg59
I00
sg60
V333333
p1826
sg62
g1823
sg63
g1819
sg64
g1820
sg65
I12606
sg66
VC0DEED
p1827
sg68
V3315798743
p1828
sg70
VC0DEED
p1829
sg72
I55
sg73
I00
sg74
Nsg75
I82879
sg45
g299
sg77
I0
sg78
g299
sg80
V0084B4
p1830
sg82
Vhttp://pbs.twimg.com/profile_images/608367794644787200/7Js9oXKP_normal.jpg
p1831
sg84
I00
sg85
I00
sg88
Vhttp://abs.twimg.com/images/themes/theme1/bg.png
p1832
sg90
VStockfiendz
p1833
sg92
Ven
p1834
sg94
I00
sg95
I0
sg96
VMichael Cook
p1835
sg98
I00
sg33
Nsg100
VTue Jun 09 20:16:31 +0000 2015
p1836
sg102
I00
sg103
Nsg105
I00
sg106
I01
sg107
I00
ssg108
I00
sg109
g1826
sg110
I12606
sg111
g1827
sg112
g1828
sg113
I00
sg114
I55
sg115
I00
sg116
Nsg117
I82879
sg118
g299
sg119
I0
sg120
g299
sg121
g1830
sg122
g1831
sg123
I00
sg124
I00
sg125
g1829
sg127
g1832
sg128
g1833
sg129
g1834
sg130
I00
sg131
I00
sg132
I0
sg133
g1835
sg134
Nsg135
g136
(S'\x07\xdf\x06\t\x14\x10\x1f\x00\x00\x00'
p1837
tp1838
Rp1839
sg140
g1825
sg141
Nsg142
I00
sg143
I01
sg144
I00
sbsg145
Nsg29
L662860662692032512L
sg146
I0
sg147
VTwitter Web Client
p1840
sg129
Ven
p1841
sg150
g1817
sg135
g136
(S'\x07\xdf\x0b\x07\x05\x0e\x1f\x00\x00\x00'
p1842
tp1843
Rp1844
sg50
(dp1845
g155
Nsg156
I00
sg157
g1814
sg158
I00
sg159
Nsg56
L662860662692032512L
sg160
I0
sg161
V<a href="http://twitter.com" rel="nofollow">Twitter Web Client</a>
p1846
sg163
I00
sg164
Nsg64
(dp1847
g166
(lp1848
(dp1849
g39
(lp1850
I107
aI112
asg157
VCPRX
p1851
sa(dp1852
g39
(lp1853
I113
aI118
asg157
VPDEX
p1854
sa(dp1855
g39
(lp1856
I119
aI124
asg157
VCTCT
p1857
sasg171
(lp1858
sg173
(lp1859
sg35
(lp1860
(dp1861
g33
Vhttps://t.co/26VbgEBy77
p1862
sg39
(lp1863
I83
aI106
asg41
Vhttp://goo.gl/JYKKVk
p1864
sg43
Vgoo.gl/JYKKVk
p1865
sassg181
Nsg182
Nsg183
I0
sg68
V662860662692032512
p1866
sg185
I00
sg186
g1824
sg187
Nsg188
Nsg189
I00
sg92
g1841
sg100
VSat Nov 07 05:14:31 +0000 2015
p1867
sg191
Nsg192
Nsg193
(dp1868
g195
Ven
p1869
sg197
Vrecent
p1870
sssg199
g1868
sg200
Nsg201
Nsg31
g1847
sg202
Nsg203
Nsg112
g1866
sg204
I00
sg205
Nsg206
I0
sg207
Nsbag0
(g4
g5
Ntp1871
Rp1872
(dp1873
g9
I00
sg10
Nsg11
I00
sg12
VReal-Time feed of company contracts, original agreements and executive updates from $PDEX https://t.co/yX5YaE7JfB
p1874
sg14
Vhttp://www.lawinsider.com
p1875
sg16
I00
sg17
I00
sg18
Nsg19
g0
(g20
g5
Ntp1876
Rp1877
(dp1878
g24
I00
sg25
I00
sg26
I01
sg27
VDDEEF6
p1879
sg29
L2273664823L
sg30
I00
sg31
(dp1880
g45
(dp1881
g35
(lp1882
(dp1883
g33
Vhttp://t.co/fMDCdXlvnP
p1884
sg39
(lp1885
I21
aI43
asg41
Vhttp://LawInsider.com
p1886
sg43
VLawInsider.com
p1887
sasssg48
Vhttps://pbs.twimg.com/profile_images/418879465003823104/hxUShEdz_normal.jpeg
p1888
sg50
(dp1889
g52
I00
sg53
I00
sg54
I01
sg55
I00
sg56
L2273664823L
sg57
Vhttps://abs.twimg.com/images/themes/theme1/bg.png
p1890
sg59
I00
sg60
V333333
p1891
sg62
g1888
sg63
g1879
sg64
g1880
sg65
I627
sg66
VC0DEED
p1892
sg68
V2273664823
p1893
sg70
VC0DEED
p1894
sg72
I81
sg73
I00
sg74
Nsg75
I353442
sg45
VDaily contracts from http://t.co/fMDCdXlvnP. Tweets by @lawinsider.
p1895
sg77
I17
sg78
g299
sg80
V0084B4
p1896
sg82
Vhttp://pbs.twimg.com/profile_images/418879465003823104/hxUShEdz_normal.jpeg
p1897
sg84
I00
sg85
I00
sg88
Vhttp://abs.twimg.com/images/themes/theme1/bg.png
p1898
sg90
VDailyContracts
p1899
sg92
Ven
p1900
sg94
I00
sg95
I0
sg96
VDaily Contracts
p1901
sg98
I00
sg33
Nsg100
VThu Jan 02 22:57:58 +0000 2014
p1902
sg102
I00
sg103
Nsg105
I00
sg106
I01
sg107
I00
ssg108
I00
sg109
g1891
sg110
I627
sg111
g1892
sg112
g1893
sg113
I00
sg114
I81
sg115
I00
sg116
Nsg117
I353442
sg118
g1895
sg119
I17
sg120
g299
sg121
g1896
sg122
g1897
sg123
I00
sg124
I00
sg125
g1894
sg127
g1898
sg128
g1899
sg129
g1900
sg130
I00
sg131
I00
sg132
I0
sg133
g1901
sg134
Nsg135
g136
(S'\x07\xde\x01\x02\x169:\x00\x00\x00'
p1903
tp1904
Rp1905
sg140
g1890
sg141
Nsg142
I00
sg143
I01
sg144
I00
sbsg145
Nsg29
L662739489618432000L
sg146
I0
sg147
VLawinsider.com tweet on upload
p1906
sg129
Ven
p1907
sg150
g1877
sg135
g136
(S'\x07\xdf\x0b\x06\x15\r\x02\x00\x00\x00'
p1908
tp1909
Rp1910
sg50
(dp1911
g155
Nsg156
I00
sg157
g1874
sg158
I00
sg159
Nsg56
L662739489618432000L
sg160
I0
sg161
V<a href="http://www.lawinsider.com" rel="nofollow">Lawinsider.com tweet on upload</a>
p1912
sg163
I00
sg164
Nsg64
(dp1913
g166
(lp1914
(dp1915
g39
(lp1916
I84
aI89
asg157
VPDEX
p1917
sasg171
(lp1918
sg173
(lp1919
sg35
(lp1920
(dp1921
g33
Vhttps://t.co/yX5YaE7JfB
p1922
sg39
(lp1923
I90
aI113
asg41
Vhttp://lawinsider.com/company/788920?js=subscribe
p1924
sg43
Vlawinsider.com/company/788920\u2026
p1925
sassg181
Nsg182
Nsg183
I0
sg68
V662739489618432000
p1926
sg185
I00
sg186
g1889
sg187
Nsg188
Nsg189
I00
sg92
g1907
sg100
VFri Nov 06 21:13:02 +0000 2015
p1927
sg191
Nsg192
Nsg193
(dp1928
g195
Ven
p1929
sg197
Vrecent
p1930
sssg199
g1928
sg200
Nsg201
Nsg31
g1913
sg202
Nsg203
Nsg112
g1926
sg204
I00
sg205
Nsg206
I0
sg207
Nsbag0
(g4
g5
Ntp1931
Rp1932
(dp1933
g9
I00
sg10
Nsg11
I00
sg12
VOur Pick On $GEQU Gained Over 3,500% For Our Members Within 4 Months! See Our New Pick: https://t.co/YzphAts7wM $CPRX $PDEX $CTCT
p1934
sg14
Vhttp://twitter.com
p1935
sg16
I00
sg17
I00
sg18
Nsg19
g0
(g20
g5
Ntp1936
Rp1937
(dp1938
g24
I00
sg25
I00
sg26
I01
sg27
VDDEEF6
p1939
sg29
L3243313260L
sg30
I00
sg31
(dp1940
g45
(dp1941
g35
(lp1942
sssg48
Vhttps://pbs.twimg.com/profile_images/609376154588286976/l9qz1Ibc_normal.jpg
p1943
sg50
(dp1944
g52
I00
sg53
I00
sg54
I01
sg55
I00
sg56
L3243313260L
sg57
Vhttps://abs.twimg.com/images/themes/theme1/bg.png
p1945
sg59
I00
sg60
V333333
p1946
sg62
g1943
sg63
g1939
sg64
g1940
sg65
I19956
sg66
VC0DEED
p1947
sg68
V3243313260
p1948
sg70
VC0DEED
p1949
sg72
I55
sg73
I00
sg74
Nsg75
I81515
sg45
g299
sg77
I0
sg78
g299
sg80
V0084B4
p1950
sg82
Vhttp://pbs.twimg.com/profile_images/609376154588286976/l9qz1Ibc_normal.jpg
p1951
sg84
I00
sg85
I00
sg88
Vhttp://abs.twimg.com/images/themes/theme1/bg.png
p1952
sg90
VTheStockGuyz
p1953
sg92
Ven
p1954
sg94
I00
sg95
I0
sg96
VMichael James
p1955
sg98
I00
sg33
Nsg100
VFri Jun 12 14:53:00 +0000 2015
p1956
sg102
I00
sg103
Nsg105
I00
sg106
I01
sg107
I00
ssg108
I00
sg109
g1946
sg110
I19956
sg111
g1947
sg112
g1948
sg113
I00
sg114
I55
sg115
I00
sg116
Nsg117
I81515
sg118
g299
sg119
I0
sg120
g299
sg121
g1950
sg122
g1951
sg123
I00
sg124
I00
sg125
g1949
sg127
g1952
sg128
g1953
sg129
g1954
sg130
I00
sg131
I00
sg132
I0
sg133
g1955
sg134
Nsg135
g136
(S'\x07\xdf\x06\x0c\x0e5\x00\x00\x00\x00'
p1957
tp1958
Rp1959
sg140
g1945
sg141
Nsg142
I00
sg143
I01
sg144
I00
sbsg145
Nsg29
L662650418179239938L
sg146
I0
sg147
VTwitter Web Client
p1960
sg129
Ven
p1961
sg150
g1937
sg135
g136
(S'\x07\xdf\x0b\x06\x0f\x13\x05\x00\x00\x00'
p1962
tp1963
Rp1964
sg50
(dp1965
g155
Nsg156
I00
sg157
g1934
sg158
I00
sg159
Nsg56
L662650418179239938L
sg160
I0
sg161
V<a href="http://twitter.com" rel="nofollow">Twitter Web Client</a>
p1966
sg163
I00
sg164
Nsg64
(dp1967
g166
(lp1968
(dp1969
g39
(lp1970
I12
aI17
asg157
VGEQU
p1971
sa(dp1972
g39
(lp1973
I112
aI117
asg157
VCPRX
p1974
sa(dp1975
g39
(lp1976
I118
aI123
asg157
VPDEX
p1977
sa(dp1978
g39
(lp1979
I124
aI129
asg157
VCTCT
p1980
sasg171
(lp1981
sg173
(lp1982
sg35
(lp1983
(dp1984
g33
Vhttps://t.co/YzphAts7wM
p1985
sg39
(lp1986
I88
aI111
asg41
Vhttp://bit.ly/1VTm35C
p1987
sg43
Vbit.ly/1VTm35C
p1988
sassg181
Nsg182
Nsg183
I0
sg68
V662650418179239938
p1989
sg185
I00
sg186
g1944
sg187
Nsg188
Nsg189
I00
sg92
g1961
sg100
VFri Nov 06 15:19:05 +0000 2015
p1990
sg191
Nsg192
Nsg193
(dp1991
g195
Ven
p1992
sg197
Vrecent
p1993
sssg199
g1991
sg200
Nsg201
Nsg31
g1967
sg202
Nsg203
Nsg112
g1989
sg204
I00
sg205
Nsg206
I0
sg207
Nsbag0
(g4
g5
Ntp1994
Rp1995
(dp1996
g9
I00
sg10
Nsg11
I00
sg12
VOur Platinum Members Have Been Seeing MASSIVE Gains On Our Penny Stock Picks! Subscribe Today: https://t.co/ro7o3SYbd1 $CPRX $PDEX $CTCT
p1997
sg14
Vhttp://twitter.com
p1998
sg16
I00
sg17
I00
sg18
Nsg19
g0
(g20
g5
Ntp1999
Rp2000
(dp2001
g24
I00
sg25
I00
sg26
I01
sg27
VDDEEF6
p2002
sg29
L2447901655L
sg30
I00
sg31
(dp2003
g45
(dp2004
g35
(lp2005
(dp2006
g33
Vhttp://t.co/QYxLf9LJ7f
p2007
sg39
(lp2008
I94
aI116
asg41
Vhttp://www.pennystockdream.com/disclaimer
p2009
sg43
Vpennystockdream.com/disclaimer
p2010
sasssg48
Vhttps://pbs.twimg.com/profile_images/456519281744703490/M4G5Ld8j_normal.jpeg
p2011
sg50
(dp2012
g52
I00
sg53
I00
sg54
I01
sg55
I00
sg56
L2447901655L
sg57
Vhttps://abs.twimg.com/images/themes/theme1/bg.png
p2013
sg59
I00
sg60
V333333
p2014
sg62
g2011
sg63
g2002
sg64
g2003
sg65
I13505
sg66
VC0DEED
p2015
sg68
V2447901655
p2016
sg70
VC0DEED
p2017
sg72
I79
sg73
I00
sg74
Nsg75
I234690
sg45
VATTENTION: Read full disclaimer before looking at any of our tweets! Link To Full Disclaimer: http://t.co/QYxLf9LJ7f
p2018
sg77
I1
sg78
g299
sg80
V0084B4
p2019
sg82
Vhttp://pbs.twimg.com/profile_images/456519281744703490/M4G5Ld8j_normal.jpeg
p2020
sg84
I00
sg85
I00
sg88
Vhttp://abs.twimg.com/images/themes/theme1/bg.png
p2021
sg90
VStockRocketzz
p2022
sg92
Ven
p2023
sg94
I00
sg95
I0
sg96
VStock Rocket
p2024
sg98
I00
sg33
Nsg100
VWed Apr 16 19:44:35 +0000 2014
p2025
sg102
I00
sg103
Nsg105
I00
sg106
I01
sg107
I00
ssg108
I00
sg109
g2014
sg110
I13505
sg111
g2015
sg112
g2016
sg113
I00
sg114
I79
sg115
I00
sg116
Nsg117
I234690
sg118
g2018
sg119
I1
sg120
g299
sg121
g2019
sg122
g2020
sg123
I00
sg124
I00
sg125
g2017
sg127
g2021
sg128
g2022
sg129
g2023
sg130
I00
sg131
I00
sg132
I0
sg133
g2024
sg134
Nsg135
g136
(S'\x07\xde\x04\x10\x13,#\x00\x00\x00'
p2026
tp2027
Rp2028
sg140
g2013
sg141
Nsg142
I00
sg143
I01
sg144
I00
sbsg145
Nsg29
L662586670798229504L
sg146
I0
sg147
VTwitter Web Client
p2029
sg129
Ven
p2030
sg150
g2000
sg135
g136
(S'\x07\xdf\x0b\x06\x0b\x05/\x00\x00\x00'
p2031
tp2032
Rp2033
sg50
(dp2034
g155
Nsg156
I00
sg157
g1997
sg158
I00
sg159
Nsg56
L662586670798229504L
sg160
I0
sg161
V<a href="http://twitter.com" rel="nofollow">Twitter Web Client</a>
p2035
sg163
I00
sg164
Nsg64
(dp2036
g166
(lp2037
(dp2038
g39
(lp2039
I119
aI124
asg157
VCPRX
p2040
sa(dp2041
g39
(lp2042
I125
aI130
asg157
VPDEX
p2043
sa(dp2044
g39
(lp2045
I131
aI136
asg157
VCTCT
p2046
sasg171
(lp2047
sg173
(lp2048
sg35
(lp2049
(dp2050
g33
Vhttps://t.co/ro7o3SYbd1
p2051
sg39
(lp2052
I95
aI118
asg41
Vhttp://tinyurl.com/o3lgmg3
p2053
sg43
Vtinyurl.com/o3lgmg3
p2054
sassg181
Nsg182
Nsg183
I0
sg68
V662586670798229504
p2055
sg185
I00
sg186
g2012
sg187
Nsg188
Nsg189
I00
sg92
g2030
sg100
VFri Nov 06 11:05:47 +0000 2015
p2056
sg191
Nsg192
Nsg193
(dp2057
g195
Ven
p2058
sg197
Vrecent
p2059
sssg199
g2057
sg200
Nsg201
Nsg31
g2036
sg202
Nsg203
Nsg112
g2055
sg204
I00
sg205
Nsg206
I0
sg207
Nsbag0
(g4
g5
Ntp2060
Rp2061
(dp2062
g9
I00
sg10
Nsg11
I00
sg12
VOur Pick On $HCTI More Than Tripled For Our Members, In 3 Weeks! Subscribe For Our New Picks: https://t.co/6sqzAAvjDY $CPRX $PDEX $CTCT
p2063
sg14
Vhttp://twitter.com
p2064
sg16
I00
sg17
I00
sg18
Nsg19
g0
(g20
g5
Ntp2065
Rp2066
(dp2067
g24
I00
sg25
I00
sg26
I01
sg27
VDDEEF6
p2068
sg29
L2447928920L
sg30
I00
sg31
(dp2069
g45
(dp2070
g35
(lp2071
(dp2072
g33
Vhttp://t.co/QYxLf9LJ7f
p2073
sg39
(lp2074
I94
aI116
asg41
Vhttp://www.pennystockdream.com/disclaimer
p2075
sg43
Vpennystockdream.com/disclaimer
p2076
sasssg48
Vhttps://pbs.twimg.com/profile_images/456523892308201472/sBGAsJTn_normal.png
p2077
sg50
(dp2078
g52
I00
sg53
I00
sg54
I01
sg55
I00
sg56
L2447928920L
sg57
Vhttps://abs.twimg.com/images/themes/theme1/bg.png
p2079
sg59
I00
sg60
V333333
p2080
sg62
g2077
sg63
g2068
sg64
g2069
sg65
I4321
sg66
VC0DEED
p2081
sg68
V2447928920
p2082
sg70
VC0DEED
p2083
sg72
I60
sg73
I00
sg74
Nsg75
I179299
sg45
VATTENTION: Read full disclaimer before looking at any of our tweets! Link To Full Disclaimer: http://t.co/QYxLf9LJ7f
p2084
sg77
I0
sg78
g299
sg80
V0084B4
p2085
sg82
Vhttp://pbs.twimg.com/profile_images/456523892308201472/sBGAsJTn_normal.png
p2086
sg84
I00
sg85
I00
sg88
Vhttp://abs.twimg.com/images/themes/theme1/bg.png
p2087
sg90
VStockenheimer1
p2088
sg92
Ven
p2089
sg94
I00
sg95
I0
sg96
VStockenheimerSchmidt
p2090
sg98
I00
sg33
Nsg100
VWed Apr 16 20:03:52 +0000 2014
p2091
sg102
I00
sg103
Nsg105
I00
sg106
I01
sg107
I00
ssg108
I00
sg109
g2080
sg110
I4321
sg111
g2081
sg112
g2082
sg113
I00
sg114
I60
sg115
I00
sg116
Nsg117
I179299
sg118
g2084
sg119
I0
sg120
g299
sg121
g2085
sg122
g2086
sg123
I00
sg124
I00
sg125
g2083
sg127
g2087
sg128
g2088
sg129
g2089
sg130
I00
sg131
I00
sg132
I0
sg133
g2090
sg134
Nsg135
g136
(S'\x07\xde\x04\x10\x14\x034\x00\x00\x00'
p2092
tp2093
Rp2094
sg140
g2079
sg141
Nsg142
I00
sg143
I01
sg144
I00
sbsg145
Nsg29
L662586590649262081L
sg146
I0
sg147
VTwitter Web Client
p2095
sg129
Ven
p2096
sg150
g2066
sg135
g136
(S'\x07\xdf\x0b\x06\x0b\x05\x1c\x00\x00\x00'
p2097
tp2098
Rp2099
sg50
(dp2100
g155
Nsg156
I00
sg157
g2063
sg158
I00
sg159
Nsg56
L662586590649262081L
sg160
I0
sg161
V<a href="http://twitter.com" rel="nofollow">Twitter Web Client</a>
p2101
sg163
I00
sg164
Nsg64
(dp2102
g166
(lp2103
(dp2104
g39
(lp2105
I12
aI17
asg157
VHCTI
p2106
sa(dp2107
g39
(lp2108
I118
aI123
asg157
VCPRX
p2109
sa(dp2110
g39
(lp2111
I124
aI129
asg157
VPDEX
p2112
sa(dp2113
g39
(lp2114
I130
aI135
asg157
VCTCT
p2115
sasg171
(lp2116
sg173
(lp2117
sg35
(lp2118
(dp2119
g33
Vhttps://t.co/6sqzAAvjDY
p2120
sg39
(lp2121
I94
aI117
asg41
Vhttp://ow.ly/SP8LD
p2122
sg43
Vow.ly/SP8LD
p2123
sassg181
Nsg182
Nsg183
I0
sg68
V662586590649262081
p2124
sg185
I00
sg186
g2078
sg187
Nsg188
Nsg189
I00
sg92
g2096
sg100
VFri Nov 06 11:05:28 +0000 2015
p2125
sg191
Nsg192
Nsg193
(dp2126
g195
Ven
p2127
sg197
Vrecent
p2128
sssg199
g2126
sg200
Nsg201
Nsg31
g2102
sg202
Nsg203
Nsg112
g2124
sg204
I00
sg205
Nsg206
I0
sg207
Nsbag0
(g4
g5
Ntp2129
Rp2130
(dp2131
g9
I00
sg10
Nsg11
I00
sg12
VOur Stock Alerts Have Been Seeing Record Gains! Our New Pick Will Be MASSIVE: https://t.co/DXRm9DTWiK $CPRX $PDEX $CTCT
p2132
sg14
Vhttp://twitter.com
p2133
sg16
I00
sg17
I00
sg18
Nsg19
g0
(g20
g5
Ntp2134
Rp2135
(dp2136
g24
I00
sg25
I00
sg26
I01
sg27
VDDEEF6
p2137
sg29
L3091884801L
sg30
I00
sg31
(dp2138
g45
(dp2139
g35
(lp2140
(dp2141
g33
Vhttp://t.co/d1PvG67hF4
p2142
sg39
(lp2143
I79
aI101
asg41
Vhttp://tinyurl.com/mcsbvzz
p2144
sg43
Vtinyurl.com/mcsbvzz
p2145
sasssg48
Vhttps://pbs.twimg.com/profile_images/576989971883499521/yv0Bp7te_normal.jpeg
p2146
sg50
(dp2147
g52
I00
sg53
I00
sg54
I01
sg55
I00
sg56
L3091884801L
sg57
Vhttps://abs.twimg.com/images/themes/theme1/bg.png
p2148
sg59
I00
sg60
V333333
p2149
sg62
g2146
sg63
g2137
sg64
g2138
sg65
I15267
sg66
VC0DEED
p2150
sg68
V3091884801
p2151
sg70
VC0DEED
p2152
sg72
I65
sg73
I00
sg74
Nsg75
I170509
sg45
VRead our full disclaimer before looking at any of our tweets! Full Disclaimer: http://t.co/d1PvG67hF4
p2153
sg77
I1
sg78
g299
sg80
V0084B4
p2154
sg82
Vhttp://pbs.twimg.com/profile_images/576989971883499521/yv0Bp7te_normal.jpeg
p2155
sg84
I00
sg85
I00
sg88
Vhttp://abs.twimg.com/images/themes/theme1/bg.png
p2156
sg90
VStockDawgzz
p2157
sg92
Ven
p2158
sg94
I00
sg95
I0
sg96
VStock Dawgzz
p2159
sg98
I00
sg33
Nsg100
VSun Mar 15 06:13:17 +0000 2015
p2160
sg102
I00
sg103
Nsg105
I00
sg106
I01
sg107
I00
ssg108
I00
sg109
g2149
sg110
I15267
sg111
g2150
sg112
g2151
sg113
I00
sg114
I65
sg115
I00
sg116
Nsg117
I170509
sg118
g2153
sg119
I1
sg120
g299
sg121
g2154
sg122
g2155
sg123
I00
sg124
I00
sg125
g2152
sg127
g2156
sg128
g2157
sg129
g2158
sg130
I00
sg131
I00
sg132
I0
sg133
g2159
sg134
Nsg135
g136
(S'\x07\xdf\x03\x0f\x06\r\x11\x00\x00\x00'
p2161
tp2162
Rp2163
sg140
g2148
sg141
Nsg142
I00
sg143
I01
sg144
I00
sbsg145
Nsg29
L662585945066221568L
sg146
I0
sg147
VTwitter Web Client
p2164
sg129
Ven
p2165
sg150
g2135
sg135
g136
(S'\x07\xdf\x0b\x06\x0b\x026\x00\x00\x00'
p2166
tp2167
Rp2168
sg50
(dp2169
g155
Nsg156
I00
sg157
g2132
sg158
I00
sg159
Nsg56
L662585945066221568L
sg160
I0
sg161
V<a href="http://twitter.com" rel="nofollow">Twitter Web Client</a>
p2170
sg163
I00
sg164
Nsg64
(dp2171
g166
(lp2172
(dp2173
g39
(lp2174
I102
aI107
asg157
VCPRX
p2175
sa(dp2176
g39
(lp2177
I108
aI113
asg157
VPDEX
p2178
sa(dp2179
g39
(lp2180
I114
aI119
asg157
VCTCT
p2181
sasg171
(lp2182
sg173
(lp2183
sg35
(lp2184
(dp2185
g33
Vhttps://t.co/DXRm9DTWiK
p2186
sg39
(lp2187
I78
aI101
asg41
Vhttp://goo.gl/NGTqcj
p2188
sg43
Vgoo.gl/NGTqcj
p2189
sassg181
Nsg182
Nsg183
I0
sg68
V662585945066221568
p2190
sg185
I00
sg186
g2147
sg187
Nsg188
Nsg189
I00
sg92
g2165
sg100
VFri Nov 06 11:02:54 +0000 2015
p2191
sg191
Nsg192
Nsg193
(dp2192
g195
Ven
p2193
sg197
Vrecent
p2194
sssg199
g2192
sg200
Nsg201
Nsg31
g2171
sg202
Nsg203
Nsg112
g2190
sg204
I00
sg205
Nsg206
I0
sg207
Nsbag0
(g4
g5
Ntp2195
Rp2196
(dp2197
g9
I00
sg10
Nsg11
I00
sg12
VOur Stock Alerts Gained Over 1,900% In 2 And A Half Months! See Our Special New Pick: https://t.co/rdhi4T4cqG $CPRX $PDEX $CTCT
p2198
sg14
Vhttp://twitter.com
p2199
sg16
I00
sg17
I00
sg18
Nsg19
g0
(g20
g5
Ntp2200
Rp2201
(dp2202
g24
I00
sg25
I00
sg26
I01
sg27
VDDEEF6
p2203
sg29
L2447967798L
sg30
I00
sg31
(dp2204
g45
(dp2205
g35
(lp2206
(dp2207
g33
Vhttp://t.co/d1PvG67PuC
p2208
sg39
(lp2209
I80
aI102
asg41
Vhttp://tinyurl.com/mcsbvzz
p2210
sg43
Vtinyurl.com/mcsbvzz
p2211
sasssg48
Vhttps://pbs.twimg.com/profile_images/456529846420525056/wLucrlXI_normal.jpeg
p2212
sg50
(dp2213
g52
I00
sg53
I00
sg54
I01
sg55
I00
sg56
L2447967798L
sg57
Vhttps://abs.twimg.com/images/themes/theme1/bg.png
p2214
sg59
I00
sg60
V333333
p2215
sg62
g2212
sg63
g2203
sg64
g2204
sg65
I14103
sg66
VC0DEED
p2216
sg68
V2447967798
p2217
sg70
VC0DEED
p2218
sg72
I101
sg73
I00
sg74
Nsg75
I443646
sg45
VRead our full disclaimer before looking at any of our tweets! Full Disclaimer:  http://t.co/d1PvG67PuC
p2219
sg77
I8
sg78
g299
sg80
V0084B4
p2220
sg82
Vhttp://pbs.twimg.com/profile_images/456529846420525056/wLucrlXI_normal.jpeg
p2221
sg84
I00
sg85
I00
sg88
Vhttp://abs.twimg.com/images/themes/theme1/bg.png
p2222
sg90
VStockaholics
p2223
sg92
Ven
p2224
sg94
I00
sg95
I22
sg96
VStockaholics
p2225
sg98
I00
sg33
Nsg100
VWed Apr 16 20:27:43 +0000 2014
p2226
sg102
I00
sg103
Nsg105
I00
sg106
I01
sg107
I00
ssg108
I00
sg109
g2215
sg110
I14103
sg111
g2216
sg112
g2217
sg113
I00
sg114
I101
sg115
I00
sg116
Nsg117
I443646
sg118
g2219
sg119
I8
sg120
g299
sg121
g2220
sg122
g2221
sg123
I00
sg124
I00
sg125
g2218
sg127
g2222
sg128
g2223
sg129
g2224
sg130
I00
sg131
I00
sg132
I22
sg133
g2225
sg134
Nsg135
g136
(S'\x07\xde\x04\x10\x14\x1b+\x00\x00\x00'
p2227
tp2228
Rp2229
sg140
g2214
sg141
Nsg142
I00
sg143
I01
sg144
I00
sbsg145
Nsg29
L662583161524789249L
sg146
I0
sg147
VTwitter Web Client
p2230
sg129
Ven
p2231
sg150
g2201
sg135
g136
(S'\x07\xdf\x0b\x06\n32\x00\x00\x00'
p2232
tp2233
Rp2234
sg50
(dp2235
g155
Nsg156
I00
sg157
g2198
sg158
I00
sg159
Nsg56
L662583161524789249L
sg160
I0
sg161
V<a href="http://twitter.com" rel="nofollow">Twitter Web Client</a>
p2236
sg163
I00
sg164
Nsg64
(dp2237
g166
(lp2238
(dp2239
g39
(lp2240
I110
aI115
asg157
VCPRX
p2241
sa(dp2242
g39
(lp2243
I116
aI121
asg157
VPDEX
p2244
sa(dp2245
g39
(lp2246
I122
aI127
asg157
VCTCT
p2247
sasg171
(lp2248
sg173
(lp2249
sg35
(lp2250
(dp2251
g33
Vhttps://t.co/rdhi4T4cqG
p2252
sg39
(lp2253
I86
aI109
asg41
Vhttp://bit.ly/1P4EFQ5
p2254
sg43
Vbit.ly/1P4EFQ5
p2255
sassg181
Nsg182
Nsg183
I0
sg68
V662583161524789249
p2256
sg185
I00
sg186
g2213
sg187
Nsg188
Nsg189
I00
sg92
g2231
sg100
VFri Nov 06 10:51:50 +0000 2015
p2257
sg191
Nsg192
Nsg193
(dp2258
g195
Ven
p2259
sg197
Vrecent
p2260
sssg199
g2258
sg200
Nsg201
Nsg31
g2237
sg202
Nsg203
Nsg112
g2256
sg204
I00
sg205
Nsg206
I0
sg207
Nsbag0
(g4
g5
Ntp2261
Rp2262
(dp2263
g9
I00
sg10
Nsg11
I00
sg12
V$GEQU Has Increased Almost 20 TIMES In Value, For Our Subscribers! Huge News: https://t.co/viouXok21i $CPRX $PDEX $CTCT
p2264
sg14
Vhttp://twitter.com
p2265
sg16
I00
sg17
I00
sg18
Nsg19
g0
(g20
g5
Ntp2266
Rp2267
(dp2268
g24
I00
sg25
I00
sg26
I01
sg27
VDDEEF6
p2269
sg29
L3091880403L
sg30
I00
sg31
(dp2270
g45
(dp2271
g35
(lp2272
(dp2273
g33
Vhttp://t.co/d1PvG67hF4
p2274
sg39
(lp2275
I79
aI101
asg41
Vhttp://tinyurl.com/mcsbvzz
p2276
sg43
Vtinyurl.com/mcsbvzz
p2277
sasssg48
Vhttps://pbs.twimg.com/profile_images/576985932299026432/vGRv_VM-_normal.png
p2278
sg50
(dp2279
g52
I00
sg53
I00
sg54
I01
sg55
I00
sg56
L3091880403L
sg57
Vhttps://abs.twimg.com/images/themes/theme1/bg.png
p2280
sg59
I00
sg60
V333333
p2281
sg62
g2278
sg63
g2269
sg64
g2270
sg65
I15272
sg66
VC0DEED
p2282
sg68
V3091880403
p2283
sg70
VC0DEED
p2284
sg72
I71
sg73
I00
sg74
Nsg75
I173961
sg45
VRead our full disclaimer before looking at any of our tweets! Full Disclaimer: http://t.co/d1PvG67hF4
p2285
sg77
I0
sg78
g299
sg80
V0084B4
p2286
sg82
Vhttp://pbs.twimg.com/profile_images/576985932299026432/vGRv_VM-_normal.png
p2287
sg84
I00
sg85
I00
sg88
Vhttp://abs.twimg.com/images/themes/theme1/bg.png
p2288
sg90
VPennyStockingt
p2289
sg92
Ven
p2290
sg94
I00
sg95
I1
sg96
VPenny Stockington
p2291
sg98
I00
sg33
Nsg100
VSun Mar 15 05:57:31 +0000 2015
p2292
sg102
I00
sg103
Nsg105
I00
sg106
I01
sg107
I00
ssg108
I00
sg109
g2281
sg110
I15272
sg111
g2282
sg112
g2283
sg113
I00
sg114
I71
sg115
I00
sg116
Nsg117
I173961
sg118
g2285
sg119
I0
sg120
g299
sg121
g2286
sg122
g2287
sg123
I00
sg124
I00
sg125
g2284
sg127
g2288
sg128
g2289
sg129
g2290
sg130
I00
sg131
I00
sg132
I1
sg133
g2291
sg134
Nsg135
g136
(S'\x07\xdf\x03\x0f\x059\x1f\x00\x00\x00'
p2293
tp2294
Rp2295
sg140
g2280
sg141
Nsg142
I00
sg143
I01
sg144
I00
sbsg145
Nsg29
L662580246584164352L
sg146
I0
sg147
VTwitter Web Client
p2296
sg129
Ven
p2297
sg150
g2267
sg135
g136
(S'\x07\xdf\x0b\x06\n(\x0f\x00\x00\x00'
p2298
tp2299
Rp2300
sg50
(dp2301
g155
Nsg156
I00
sg157
g2264
sg158
I00
sg159
Nsg56
L662580246584164352L
sg160
I0
sg161
V<a href="http://twitter.com" rel="nofollow">Twitter Web Client</a>
p2302
sg163
I00
sg164
Nsg64
(dp2303
g166
(lp2304
(dp2305
g39
(lp2306
I0
aI5
asg157
VGEQU
p2307
sa(dp2308
g39
(lp2309
I102
aI107
asg157
VCPRX
p2310
sa(dp2311
g39
(lp2312
I108
aI113
asg157
VPDEX
p2313
sa(dp2314
g39
(lp2315
I114
aI119
asg157
VCTCT
p2316
sasg171
(lp2317
sg173
(lp2318
sg35
(lp2319
(dp2320
g33
Vhttps://t.co/viouXok21i
p2321
sg39
(lp2322
I78
aI101
asg41
Vhttp://tr.im/abvm6
p2323
sg43
Vtr.im/abvm6
p2324
sassg181
Nsg182
Nsg183
I0
sg68
V662580246584164352
p2325
sg185
I00
sg186
g2279
sg187
Nsg188
Nsg189
I00
sg92
g2297
sg100
VFri Nov 06 10:40:15 +0000 2015
p2326
sg191
Nsg192
Nsg193
(dp2327
g195
Ven
p2328
sg197
Vrecent
p2329
sssg199
g2327
sg200
Nsg201
Nsg31
g2303
sg202
Nsg203
Nsg112
g2325
sg204
I00
sg205
Nsg206
I0
sg207
Nsbag0
(g4
g5
Ntp2330
Rp2331
(dp2332
g9
I00
sg10
Nsg11
I00
sg12
VPremium Alerts Ranked #1 For Gains 2834% Last Week https://t.co/n4FmW1UTLN .. $CPRX $PDEX $CTCT
p2333
sg14
Vhttp://socialadcenter.com
p2334
sg16
I00
sg17
I00
sg18
Nsg19
g0
(g20
g5
Ntp2335
Rp2336
(dp2337
g24
I00
sg25
I00
sg26
I01
sg27
VDDEEF6
p2338
sg29
L3260993737L
sg30
I00
sg31
(dp2339
g33
(dp2340
g35
(lp2341
(dp2342
g33
Vhttp://t.co/8dJZYrRhox
p2343
sg39
(lp2344
I0
aI22
asg41
Vhttp://pennystocksecret.com
p2345
sg43
Vpennystocksecret.com
p2346
sassg45
(dp2347
g35
(lp2348
sssg48
Vhttps://pbs.twimg.com/profile_images/617146377022279680/aAtOJ8fa_normal.jpg
p2349
sg50
(dp2350
g52
I00
sg53
I00
sg54
I01
sg55
I00
sg56
L3260993737L
sg57
Vhttps://abs.twimg.com/images/themes/theme1/bg.png
p2351
sg59
I00
sg60
V333333
p2352
sg62
g2349
sg63
g2338
sg64
g2339
sg65
I6023
sg66
VC0DEED
p2353
sg68
V3260993737
p2354
sg70
VC0DEED
p2355
sg72
I14
sg73
I00
sg74
I-28800
sg75
I26681
sg45
VGet The Best Penny Stocks Alerts For Free! Sign Up For 100% Free Email Alerts!
p2356
sg77
I10
sg78
VUnited States
p2357
sg80
V0084B4
p2358
sg82
Vhttp://pbs.twimg.com/profile_images/617146377022279680/aAtOJ8fa_normal.jpg
p2359
sg84
I00
sg85
I00
sg86
Vhttps://pbs.twimg.com/profile_banners/3260993737/1435974310
p2360
sg88
Vhttp://abs.twimg.com/images/themes/theme1/bg.png
p2361
sg90
Vstocksguru99
p2362
sg92
Ven
p2363
sg94
I00
sg95
I0
sg96
VStocksguru99
p2364
sg98
I00
sg33
Vhttp://t.co/8dJZYrRhox
p2365
sg100
VTue Jun 30 07:36:09 +0000 2015
p2366
sg102
I00
sg103
VPacific Time (US & Canada)
p2367
sg105
I00
sg106
I01
sg107
I00
ssg108
I00
sg109
g2352
sg110
I6023
sg111
g2353
sg112
g2354
sg113
I00
sg114
I14
sg115
I00
sg116
I-28800
sg117
I26681
sg118
g2356
sg119
I10
sg120
g2357
sg121
g2358
sg122
g2359
sg123
I00
sg124
I00
sg125
g2355
sg126
g2360
sg127
g2361
sg128
g2362
sg129
g2363
sg130
I00
sg131
I00
sg132
I0
sg133
g2364
sg134
g2365
sg135
g136
(S'\x07\xdf\x06\x1e\x07$\t\x00\x00\x00'
p2368
tp2369
Rp2370
sg140
g2351
sg141
g2367
sg142
I00
sg143
I01
sg144
I00
sbsg145
Nsg29
L662573530211442688L
sg146
I0
sg147
VSocial Ad Center
p2371
sg129
Ven
p2372
sg150
g2336
sg135
g136
(S'\x07\xdf\x0b\x06\n\r"\x00\x00\x00'
p2373
tp2374
Rp2375
sg50
(dp2376
g155
Nsg156
I00
sg157
g2333
sg158
I00
sg159
Nsg56
L662573530211442688L
sg160
I0
sg161
V<a href="http://socialadcenter.com" rel="nofollow">Social Ad Center</a>
p2377
sg163
I00
sg164
Nsg64
(dp2378
g166
(lp2379
(dp2380
g39
(lp2381
I78
aI83
asg157
VCPRX
p2382
sa(dp2383
g39
(lp2384
I84
aI89
asg157
VPDEX
p2385
sa(dp2386
g39
(lp2387
I90
aI95
asg157
VCTCT
p2388
sasg171
(lp2389
sg173
(lp2390
sg35
(lp2391
(dp2392
g33
Vhttps://t.co/n4FmW1UTLN
p2393
sg39
(lp2394
I51
aI74
asg41
Vhttp://PennyStockSecret.com
p2395
sg43
VPennyStockSecret.com
p2396
sassg181
Nsg182
Nsg183
I0
sg68
V662573530211442688
p2397
sg185
I00
sg186
g2350
sg187
Nsg188
Nsg189
I00
sg92
g2372
sg100
VFri Nov 06 10:13:34 +0000 2015
p2398
sg191
Nsg192
Nsg193
(dp2399
g195
Ven
p2400
sg197
Vrecent
p2401
sssg199
g2399
sg200
Nsg201
Nsg31
g2378
sg202
Nsg203
Nsg112
g2397
sg204
I00
sg205
Nsg206
I0
sg207
Nsbag0
(g4
g5
Ntp2402
Rp2403
(dp2404
g9
I00
sg10
Nsg11
I00
sg12
VOur Platinum Members Have Been Seeing MASSIVE Gains On Our Penny Stock Picks! Subscribe Today: https://t.co/ro7o3SYbd1 $CPRX $PDEX $CTCT
p2405
sg14
Vhttp://twitter.com
p2406
sg16
I00
sg17
I00
sg18
Nsg19
g0
(g20
g5
Ntp2407
Rp2408
(dp2409
g24
I00
sg25
I00
sg26
I01
sg27
VDDEEF6
p2410
sg29
L2447901655L
sg30
I00
sg31
(dp2411
g45
(dp2412
g35
(lp2413
(dp2414
g33
Vhttp://t.co/QYxLf9LJ7f
p2415
sg39
(lp2416
I94
aI116
asg41
Vhttp://www.pennystockdream.com/disclaimer
p2417
sg43
Vpennystockdream.com/disclaimer
p2418
sasssg48
Vhttps://pbs.twimg.com/profile_images/456519281744703490/M4G5Ld8j_normal.jpeg
p2419
sg50
(dp2420
g52
I00
sg53
I00
sg54
I01
sg55
I00
sg56
L2447901655L
sg57
Vhttps://abs.twimg.com/images/themes/theme1/bg.png
p2421
sg59
I00
sg60
V333333
p2422
sg62
g2419
sg63
g2410
sg64
g2411
sg65
I13505
sg66
VC0DEED
p2423
sg68
V2447901655
p2424
sg70
VC0DEED
p2425
sg72
I79
sg73
I00
sg74
Nsg75
I234690
sg45
VATTENTION: Read full disclaimer before looking at any of our tweets! Link To Full Disclaimer: http://t.co/QYxLf9LJ7f
p2426
sg77
I1
sg78
g299
sg80
V0084B4
p2427
sg82
Vhttp://pbs.twimg.com/profile_images/456519281744703490/M4G5Ld8j_normal.jpeg
p2428
sg84
I00
sg85
I00
sg88
Vhttp://abs.twimg.com/images/themes/theme1/bg.png
p2429
sg90
VStockRocketzz
p2430
sg92
Ven
p2431
sg94
I00
sg95
I0
sg96
VStock Rocket
p2432
sg98
I00
sg33
Nsg100
VWed Apr 16 19:44:35 +0000 2014
p2433
sg102
I00
sg103
Nsg105
I00
sg106
I01
sg107
I00
ssg108
I00
sg109
g2422
sg110
I13505
sg111
g2423
sg112
g2424
sg113
I00
sg114
I79
sg115
I00
sg116
Nsg117
I234690
sg118
g2426
sg119
I1
sg120
g299
sg121
g2427
sg122
g2428
sg123
I00
sg124
I00
sg125
g2425
sg127
g2429
sg128
g2430
sg129
g2431
sg130
I00
sg131
I00
sg132
I0
sg133
g2432
sg134
Nsg135
g136
(S'\x07\xde\x04\x10\x13,#\x00\x00\x00'
p2434
tp2435
Rp2436
sg140
g2421
sg141
Nsg142
I00
sg143
I01
sg144
I00
sbsg145
Nsg29
L662056513888997376L
sg146
I0
sg147
VTwitter Web Client
p2437
sg129
Ven
p2438
sg150
g2408
sg135
g136
(S'\x07\xdf\x0b\x04\x17;\x07\x00\x00\x00'
p2439
tp2440
Rp2441
sg50
(dp2442
g155
Nsg156
I00
sg157
g2405
sg158
I00
sg159
Nsg56
L662056513888997376L
sg160
I0
sg161
V<a href="http://twitter.com" rel="nofollow">Twitter Web Client</a>
p2443
sg163
I00
sg164
Nsg64
(dp2444
g166
(lp2445
(dp2446
g39
(lp2447
I119
aI124
asg157
VCPRX
p2448
sa(dp2449
g39
(lp2450
I125
aI130
asg157
VPDEX
p2451
sa(dp2452
g39
(lp2453
I131
aI136
asg157
VCTCT
p2454
sasg171
(lp2455
sg173
(lp2456
sg35
(lp2457
(dp2458
g33
Vhttps://t.co/ro7o3SYbd1
p2459
sg39
(lp2460
I95
aI118
asg41
Vhttp://tinyurl.com/o3lgmg3
p2461
sg43
Vtinyurl.com/o3lgmg3
p2462
sassg181
Nsg182
Nsg183
I0
sg68
V662056513888997376
p2463
sg185
I00
sg186
g2420
sg187
Nsg188
Nsg189
I00
sg92
g2438
sg100
VWed Nov 04 23:59:07 +0000 2015
p2464
sg191
Nsg192
Nsg193
(dp2465
g195
Ven
p2466
sg197
Vrecent
p2467
sssg199
g2465
sg200
Nsg201
Nsg31
g2444
sg202
Nsg203
Nsg112
g2463
sg204
I00
sg205
Nsg206
I0
sg207
Nsbag0
(g4
g5
Ntp2468
Rp2469
(dp2470
g9
I00
sg10
Nsg11
I00
sg12
VOur Pick On $HCTI More Than Tripled For Our Members, In 3 Weeks! Subscribe For Our New Picks: https://t.co/6sqzAAvjDY $CPRX $PDEX $CTCT
p2471
sg14
Vhttp://twitter.com
p2472
sg16
I00
sg17
I00
sg18
Nsg19
g0
(g20
g5
Ntp2473
Rp2474
(dp2475
g24
I00
sg25
I00
sg26
I01
sg27
VDDEEF6
p2476
sg29
L2447928920L
sg30
I00
sg31
(dp2477
g45
(dp2478
g35
(lp2479
(dp2480
g33
Vhttp://t.co/QYxLf9LJ7f
p2481
sg39
(lp2482
I94
aI116
asg41
Vhttp://www.pennystockdream.com/disclaimer
p2483
sg43
Vpennystockdream.com/disclaimer
p2484
sasssg48
Vhttps://pbs.twimg.com/profile_images/456523892308201472/sBGAsJTn_normal.png
p2485
sg50
(dp2486
g52
I00
sg53
I00
sg54
I01
sg55
I00
sg56
L2447928920L
sg57
Vhttps://abs.twimg.com/images/themes/theme1/bg.png
p2487
sg59
I00
sg60
V333333
p2488
sg62
g2485
sg63
g2476
sg64
g2477
sg65
I4321
sg66
VC0DEED
p2489
sg68
V2447928920
p2490
sg70
VC0DEED
p2491
sg72
I60
sg73
I00
sg74
Nsg75
I179299
sg45
VATTENTION: Read full disclaimer before looking at any of our tweets! Link To Full Disclaimer: http://t.co/QYxLf9LJ7f
p2492
sg77
I0
sg78
g299
sg80
V0084B4
p2493
sg82
Vhttp://pbs.twimg.com/profile_images/456523892308201472/sBGAsJTn_normal.png
p2494
sg84
I00
sg85
I00
sg88
Vhttp://abs.twimg.com/images/themes/theme1/bg.png
p2495
sg90
VStockenheimer1
p2496
sg92
Ven
p2497
sg94
I00
sg95
I0
sg96
VStockenheimerSchmidt
p2498
sg98
I00
sg33
Nsg100
VWed Apr 16 20:03:52 +0000 2014
p2499
sg102
I00
sg103
Nsg105
I00
sg106
I01
sg107
I00
ssg108
I00
sg109
g2488
sg110
I4321
sg111
g2489
sg112
g2490
sg113
I00
sg114
I60
sg115
I00
sg116
Nsg117
I179299
sg118
g2492
sg119
I0
sg120
g299
sg121
g2493
sg122
g2494
sg123
I00
sg124
I00
sg125
g2491
sg127
g2495
sg128
g2496
sg129
g2497
sg130
I00
sg131
I00
sg132
I0
sg133
g2498
sg134
Nsg135
g136
(S'\x07\xde\x04\x10\x14\x034\x00\x00\x00'
p2500
tp2501
Rp2502
sg140
g2487
sg141
Nsg142
I00
sg143
I01
sg144
I00
sbsg145
Nsg29
L662055406685036544L
sg146
I0
sg147
VTwitter Web Client
p2503
sg129
Ven
p2504
sg150
g2474
sg135
g136
(S'\x07\xdf\x0b\x04\x176,\x00\x00\x00'
p2505
tp2506
Rp2507
sg50
(dp2508
g155
Nsg156
I00
sg157
g2471
sg158
I00
sg159
Nsg56
L662055406685036544L
sg160
I0
sg161
V<a href="http://twitter.com" rel="nofollow">Twitter Web Client</a>
p2509
sg163
I00
sg164
Nsg64
(dp2510
g166
(lp2511
(dp2512
g39
(lp2513
I12
aI17
asg157
VHCTI
p2514
sa(dp2515
g39
(lp2516
I118
aI123
asg157
VCPRX
p2517
sa(dp2518
g39
(lp2519
I124
aI129
asg157
VPDEX
p2520
sa(dp2521
g39
(lp2522
I130
aI135
asg157
VCTCT
p2523
sasg171
(lp2524
sg173
(lp2525
sg35
(lp2526
(dp2527
g33
Vhttps://t.co/6sqzAAvjDY
p2528
sg39
(lp2529
I94
aI117
asg41
Vhttp://ow.ly/SP8LD
p2530
sg43
Vow.ly/SP8LD
p2531
sassg181
Nsg182
Nsg183
I0
sg68
V662055406685036544
p2532
sg185
I00
sg186
g2486
sg187
Nsg188
Nsg189
I00
sg92
g2504
sg100
VWed Nov 04 23:54:44 +0000 2015
p2533
sg191
Nsg192
Nsg193
(dp2534
g195
Ven
p2535
sg197
Vrecent
p2536
sssg199
g2534
sg200
Nsg201
Nsg31
g2510
sg202
Nsg203
Nsg112
g2532
sg204
I00
sg205
Nsg206
I0
sg207
Nsbag0
(g4
g5
Ntp2537
Rp2538
(dp2539
g9
I00
sg10
Nsg11
I00
sg12
VOur Stock Alerts Gained Over 1,900% In 2 And A Half Months! See Our Special New Pick: https://t.co/rdhi4T4cqG $CPRX $PDEX $CTCT
p2540
sg14
Vhttp://twitter.com
p2541
sg16
I00
sg17
I00
sg18
Nsg19
g0
(g20
g5
Ntp2542
Rp2543
(dp2544
g24
I00
sg25
I00
sg26
I01
sg27
VDDEEF6
p2545
sg29
L2447967798L
sg30
I00
sg31
(dp2546
g45
(dp2547
g35
(lp2548
(dp2549
g33
Vhttp://t.co/d1PvG67PuC
p2550
sg39
(lp2551
I80
aI102
asg41
Vhttp://tinyurl.com/mcsbvzz
p2552
sg43
Vtinyurl.com/mcsbvzz
p2553
sasssg48
Vhttps://pbs.twimg.com/profile_images/456529846420525056/wLucrlXI_normal.jpeg
p2554
sg50
(dp2555
g52
I00
sg53
I00
sg54
I01
sg55
I00
sg56
L2447967798L
sg57
Vhttps://abs.twimg.com/images/themes/theme1/bg.png
p2556
sg59
I00
sg60
V333333
p2557
sg62
g2554
sg63
g2545
sg64
g2546
sg65
I14103
sg66
VC0DEED
p2558
sg68
V2447967798
p2559
sg70
VC0DEED
p2560
sg72
I101
sg73
I00
sg74
Nsg75
I443646
sg45
VRead our full disclaimer before looking at any of our tweets! Full Disclaimer:  http://t.co/d1PvG67PuC
p2561
sg77
I8
sg78
g299
sg80
V0084B4
p2562
sg82
Vhttp://pbs.twimg.com/profile_images/456529846420525056/wLucrlXI_normal.jpeg
p2563
sg84
I00
sg85
I00
sg88
Vhttp://abs.twimg.com/images/themes/theme1/bg.png
p2564
sg90
VStockaholics
p2565
sg92
Ven
p2566
sg94
I00
sg95
I22
sg96
VStockaholics
p2567
sg98
I00
sg33
Nsg100
VWed Apr 16 20:27:43 +0000 2014
p2568
sg102
I00
sg103
Nsg105
I00
sg106
I01
sg107
I00
ssg108
I00
sg109
g2557
sg110
I14103
sg111
g2558
sg112
g2559
sg113
I00
sg114
I101
sg115
I00
sg116
Nsg117
I443646
sg118
g2561
sg119
I8
sg120
g299
sg121
g2562
sg122
g2563
sg123
I00
sg124
I00
sg125
g2560
sg127
g2564
sg128
g2565
sg129
g2566
sg130
I00
sg131
I00
sg132
I22
sg133
g2567
sg134
Nsg135
g136
(S'\x07\xde\x04\x10\x14\x1b+\x00\x00\x00'
p2569
tp2570
Rp2571
sg140
g2556
sg141
Nsg142
I00
sg143
I01
sg144
I00
sbsg145
Nsg29
L662054894405292032L
sg146
I0
sg147
VTwitter Web Client
p2572
sg129
Ven
p2573
sg150
g2543
sg135
g136
(S'\x07\xdf\x0b\x04\x174)\x00\x00\x00'
p2574
tp2575
Rp2576
sg50
(dp2577
g155
Nsg156
I00
sg157
g2540
sg158
I00
sg159
Nsg56
L662054894405292032L
sg160
I0
sg161
V<a href="http://twitter.com" rel="nofollow">Twitter Web Client</a>
p2578
sg163
I00
sg164
Nsg64
(dp2579
g166
(lp2580
(dp2581
g39
(lp2582
I110
aI115
asg157
VCPRX
p2583
sa(dp2584
g39
(lp2585
I116
aI121
asg157
VPDEX
p2586
sa(dp2587
g39
(lp2588
I122
aI127
asg157
VCTCT
p2589
sasg171
(lp2590
sg173
(lp2591
sg35
(lp2592
(dp2593
g33
Vhttps://t.co/rdhi4T4cqG
p2594
sg39
(lp2595
I86
aI109
asg41
Vhttp://bit.ly/1P4EFQ5
p2596
sg43
Vbit.ly/1P4EFQ5
p2597
sassg181
Nsg182
Nsg183
I0
sg68
V662054894405292032
p2598
sg185
I00
sg186
g2555
sg187
Nsg188
Nsg189
I00
sg92
g2573
sg100
VWed Nov 04 23:52:41 +0000 2015
p2599
sg191
Nsg192
Nsg193
(dp2600
g195
Ven
p2601
sg197
Vrecent
p2602
sssg199
g2600
sg200
Nsg201
Nsg31
g2579
sg202
Nsg203
Nsg112
g2598
sg204
I00
sg205
Nsg206
I0
sg207
Nsbag0
(g4
g5
Ntp2603
Rp2604
(dp2605
g9
I00
sg10
Nsg11
I00
sg12
V$GEQU Has Increased Almost 20 TIMES In Value, For Our Subscribers! Huge News: https://t.co/viouXok21i $CPRX $PDEX $CTCT
p2606
sg14
Vhttp://twitter.com
p2607
sg16
I00
sg17
I00
sg18
Nsg19
g0
(g20
g5
Ntp2608
Rp2609
(dp2610
g24
I00
sg25
I00
sg26
I01
sg27
VDDEEF6
p2611
sg29
L3091880403L
sg30
I00
sg31
(dp2612
g45
(dp2613
g35
(lp2614
(dp2615
g33
Vhttp://t.co/d1PvG67hF4
p2616
sg39
(lp2617
I79
aI101
asg41
Vhttp://tinyurl.com/mcsbvzz
p2618
sg43
Vtinyurl.com/mcsbvzz
p2619
sasssg48
Vhttps://pbs.twimg.com/profile_images/576985932299026432/vGRv_VM-_normal.png
p2620
sg50
(dp2621
g52
I00
sg53
I00
sg54
I01
sg55
I00
sg56
L3091880403L
sg57
Vhttps://abs.twimg.com/images/themes/theme1/bg.png
p2622
sg59
I00
sg60
V333333
p2623
sg62
g2620
sg63
g2611
sg64
g2612
sg65
I15272
sg66
VC0DEED
p2624
sg68
V3091880403
p2625
sg70
VC0DEED
p2626
sg72
I71
sg73
I00
sg74
Nsg75
I173961
sg45
VRead our full disclaimer before looking at any of our tweets! Full Disclaimer: http://t.co/d1PvG67hF4
p2627
sg77
I0
sg78
g299
sg80
V0084B4
p2628
sg82
Vhttp://pbs.twimg.com/profile_images/576985932299026432/vGRv_VM-_normal.png
p2629
sg84
I00
sg85
I00
sg88
Vhttp://abs.twimg.com/images/themes/theme1/bg.png
p2630
sg90
VPennyStockingt
p2631
sg92
Ven
p2632
sg94
I00
sg95
I1
sg96
VPenny Stockington
p2633
sg98
I00
sg33
Nsg100
VSun Mar 15 05:57:31 +0000 2015
p2634
sg102
I00
sg103
Nsg105
I00
sg106
I01
sg107
I00
ssg108
I00
sg109
g2623
sg110
I15272
sg111
g2624
sg112
g2625
sg113
I00
sg114
I71
sg115
I00
sg116
Nsg117
I173961
sg118
g2627
sg119
I0
sg120
g299
sg121
g2628
sg122
g2629
sg123
I00
sg124
I00
sg125
g2626
sg127
g2630
sg128
g2631
sg129
g2632
sg130
I00
sg131
I00
sg132
I1
sg133
g2633
sg134
Nsg135
g136
(S'\x07\xdf\x03\x0f\x059\x1f\x00\x00\x00'
p2635
tp2636
Rp2637
sg140
g2622
sg141
Nsg142
I00
sg143
I01
sg144
I00
sbsg145
Nsg29
L662052480994381824L
sg146
I0
sg147
VTwitter Web Client
p2638
sg129
Ven
p2639
sg150
g2609
sg135
g136
(S'\x07\xdf\x0b\x04\x17+\x06\x00\x00\x00'
p2640
tp2641
Rp2642
sg50
(dp2643
g155
Nsg156
I00
sg157
g2606
sg158
I00
sg159
Nsg56
L662052480994381824L
sg160
I0
sg161
V<a href="http://twitter.com" rel="nofollow">Twitter Web Client</a>
p2644
sg163
I00
sg164
Nsg64
(dp2645
g166
(lp2646
(dp2647
g39
(lp2648
I0
aI5
asg157
VGEQU
p2649
sa(dp2650
g39
(lp2651
I102
aI107
asg157
VCPRX
p2652
sa(dp2653
g39
(lp2654
I108
aI113
asg157
VPDEX
p2655
sa(dp2656
g39
(lp2657
I114
aI119
asg157
VCTCT
p2658
sasg171
(lp2659
sg173
(lp2660
sg35
(lp2661
(dp2662
g33
Vhttps://t.co/viouXok21i
p2663
sg39
(lp2664
I78
aI101
asg41
Vhttp://tr.im/abvm6
p2665
sg43
Vtr.im/abvm6
p2666
sassg181
Nsg182
Nsg183
I0
sg68
V662052480994381824
p2667
sg185
I00
sg186
g2621
sg187
Nsg188
Nsg189
I00
sg92
g2639
sg100
VWed Nov 04 23:43:06 +0000 2015
p2668
sg191
Nsg192
Nsg193
(dp2669
g195
Ven
p2670
sg197
Vrecent
p2671
sssg199
g2669
sg200
Nsg201
Nsg31
g2645
sg202
Nsg203
Nsg112
g2667
sg204
I00
sg205
Nsg206
I0
sg207
Nsbag0
(g4
g5
Ntp2672
Rp2673
(dp2674
g9
I00
sg10
Nsg11
I00
sg12
VImp catalysts 4 MEIP &amp; CALA in d cmg week Here is DD 4 investors:https://t.co/lwSyWTxOEB $PCY $PCYG $PCYO $PDBC $PDCE $PDCO $PDEX $PDFS
p2675
sg14
Vhttp://twittimer.com
p2676
sg16
I00
sg17
I00
sg18
Nsg19
g0
(g20
g5
Ntp2677
Rp2678
(dp2679
g24
I00
sg25
I01
sg26
I00
sg27
V000000
p2680
sg29
L3518191635L
sg30
I00
sg31
(dp2681
g33
(dp2682
g35
(lp2683
(dp2684
g33
Vhttps://t.co/ot2Kl5nyub
p2685
sg39
(lp2686
I0
aI23
asg41
Vhttps://groups.google.com/forum/#!forum/jbem777
p2687
sg43
Vgroups.google.com/forum/#!forum/\u2026
p2688
sassg45
(dp2689
g35
(lp2690
sssg48
Vhttps://pbs.twimg.com/profile_images/638885869433196544/C975RWXJ_normal.jpg
p2691
sg50
(dp2692
g52
I00
sg53
I01
sg54
I00
sg55
I00
sg56
L3518191635L
sg57
Vhttps://abs.twimg.com/images/themes/theme1/bg.png
p2693
sg59
I00
sg60
V000000
p2694
sg62
g2691
sg63
g2680
sg64
g2681
sg65
I28
sg66
V000000
p2695
sg68
V3518191635
p2696
sg70
V000000
p2697
sg72
I1
sg73
I00
sg74
I-28800
sg75
I1505
sg45
VHealthcare Stocks
p2698
sg77
I25
sg78
g299
sg80
V89C9FA
p2699
sg82
Vhttp://pbs.twimg.com/profile_images/638885869433196544/C975RWXJ_normal.jpg
p2700
sg84
I00
sg85
I00
sg88
Vhttp://abs.twimg.com/images/themes/theme1/bg.png
p2701
sg90
Vjbemstocks
p2702
sg92
Ven
p2703
sg94
I00
sg95
I0
sg96
VDUE DILIGENCE
p2704
sg98
I00
sg33
Vhttps://t.co/ot2Kl5nyub
p2705
sg100
VWed Sep 02 01:23:46 +0000 2015
p2706
sg102
I00
sg103
VPacific Time (US & Canada)
p2707
sg105
I00
sg106
I00
sg107
I00
ssg108
I00
sg109
g2694
sg110
I28
sg111
g2695
sg112
g2696
sg113
I00
sg114
I1
sg115
I00
sg116
I-28800
sg117
I1505
sg118
g2698
sg119
I25
sg120
g299
sg121
g2699
sg122
g2700
sg123
I00
sg124
I00
sg125
g2697
sg127
g2701
sg128
g2702
sg129
g2703
sg130
I00
sg131
I00
sg132
I0
sg133
g2704
sg134
g2705
sg135
g136
(S'\x07\xdf\t\x02\x01\x17.\x00\x00\x00'
p2708
tp2709
Rp2710
sg140
g2693
sg141
g2707
sg142
I00
sg143
I00
sg144
I00
sbsg145
Nsg29
L661942490992283648L
sg146
I0
sg147
VTwittimer
p2711
sg129
Vpl
p2712
sg150
g2678
sg135
g136
(S'\x07\xdf\x0b\x04\x10\x1a\x02\x00\x00\x00'
p2713
tp2714
Rp2715
sg50
(dp2716
g155
Nsg156
I00
sg157
g2675
sg158
I00
sg159
Nsg56
L661942490992283648L
sg160
I0
sg161
V<a href="http://twittimer.com" rel="nofollow">Twittimer</a>
p2717
sg163
I00
sg164
Nsg64
(dp2718
g166
(lp2719
(dp2720
g39
(lp2721
I93
aI97
asg157
VPCY
p2722
sa(dp2723
g39
(lp2724
I98
aI103
asg157
VPCYG
p2725
sa(dp2726
g39
(lp2727
I104
aI109
asg157
VPCYO
p2728
sa(dp2729
g39
(lp2730
I110
aI115
asg157
VPDBC
p2731
sa(dp2732
g39
(lp2733
I116
aI121
asg157
VPDCE
p2734
sa(dp2735
g39
(lp2736
I122
aI127
asg157
VPDCO
p2737
sa(dp2738
g39
(lp2739
I128
aI133
asg157
VPDEX
p2740
sa(dp2741
g39
(lp2742
I134
aI139
asg157
VPDFS
p2743
sasg171
(lp2744
sg173
(lp2745
sg35
(lp2746
(dp2747
g33
Vhttps://t.co/lwSyWTxOEB
p2748
sg39
(lp2749
I69
aI92
asg41
Vhttp://bit.ly/1KjZ8cR
p2750
sg43
Vbit.ly/1KjZ8cR
p2751
sassg181
Nsg182
Nsg183
I0
sg68
V661942490992283648
p2752
sg185
I00
sg186
g2692
sg187
Nsg188
Nsg189
I00
sg92
g2712
sg100
VWed Nov 04 16:26:02 +0000 2015
p2753
sg191
Nsg192
Nsg193
(dp2754
g195
Vpl
p2755
sg197
Vrecent
p2756
sssg199
g2754
sg200
Nsg201
Nsg31
g2718
sg202
Nsg203
Nsg112
g2752
sg204
I00
sg205
Nsg206
I0
sg207
Nsbag0
(g4
g5
Ntp2757
Rp2758
(dp2759
g9
I00
sg10
Nsg11
I00
sg12
VRanks #1 with over 80% in alert gains today. Click here https://t.co/9Vnnw3s1D8 .. $CPRX $PDEX $CTCT
p2760
sg14
Vhttp://socialadcenter.com
p2761
sg16
I00
sg17
I00
sg18
Nsg19
g0
(g20
g5
Ntp2762
Rp2763
(dp2764
g24
I00
sg25
I00
sg26
I01
sg27
VDDEEF6
p2765
sg29
L3261001351L
sg30
I00
sg31
(dp2766
g33
(dp2767
g35
(lp2768
(dp2769
g33
Vhttp://t.co/8dJZYrRhox
p2770
sg39
(lp2771
I0
aI22
asg41
Vhttp://pennystocksecret.com
p2772
sg43
Vpennystocksecret.com
p2773
sassg45
(dp2774
g35
(lp2775
(dp2776
g33
Vhttp://t.co/UWzH8kOOl9
p2777
sg39
(lp2778
I11
aI33
asg41
Vhttp://PennyStockSecret.com
p2779
sg43
VPennyStockSecret.com
p2780
sasssg48
Vhttps://pbs.twimg.com/profile_images/617517575241531392/vk4GKKpS_normal.jpg
p2781
sg50
(dp2782
g52
I00
sg53
I00
sg54
I01
sg55
I00
sg56
L3261001351L
sg57
Vhttps://abs.twimg.com/images/themes/theme1/bg.png
p2783
sg59
I00
sg60
V333333
p2784
sg62
g2781
sg63
g2765
sg64
g2766
sg65
I5237
sg66
VC0DEED
p2785
sg68
V3261001351
p2786
sg70
VC0DEED
p2787
sg72
I9
sg73
I00
sg74
I-28800
sg75
I17457
sg45
VSign up to http://t.co/UWzH8kOOl9  and get the premiere penny stock newsletter for free! make sure you subscribe today!
p2788
sg77
I12
sg78
VUnited States
p2789
sg80
V0084B4
p2790
sg82
Vhttp://pbs.twimg.com/profile_images/617517575241531392/vk4GKKpS_normal.jpg
p2791
sg84
I00
sg85
I00
sg86
Vhttps://pbs.twimg.com/profile_banners/3261001351/1436062750
p2792
sg88
Vhttp://abs.twimg.com/images/themes/theme1/bg.png
p2793
sg90
Vstockmaster101
p2794
sg92
Ven
p2795
sg94
I00
sg95
I0
sg96
VStockmaster101
p2796
sg98
I00
sg33
Vhttp://t.co/8dJZYrRhox
p2797
sg100
VTue Jun 30 07:41:17 +0000 2015
p2798
sg102
I00
sg103
VPacific Time (US & Canada)
p2799
sg105
I00
sg106
I01
sg107
I00
ssg108
I00
sg109
g2784
sg110
I5237
sg111
g2785
sg112
g2786
sg113
I00
sg114
I9
sg115
I00
sg116
I-28800
sg117
I17457
sg118
g2788
sg119
I12
sg120
g2789
sg121
g2790
sg122
g2791
sg123
I00
sg124
I00
sg125
g2787
sg126
g2792
sg127
g2793
sg128
g2794
sg129
g2795
sg130
I00
sg131
I00
sg132
I0
sg133
g2796
sg134
g2797
sg135
g136
(S'\x07\xdf\x06\x1e\x07)\x11\x00\x00\x00'
p2800
tp2801
Rp2802
sg140
g2783
sg141
g2799
sg142
I00
sg143
I01
sg144
I00
sbsg145
Nsg29
L661920068784119813L
sg146
I0
sg147
VSocial Ad Center
p2803
sg129
Ven
p2804
sg150
g2763
sg135
g136
(S'\x07\xdf\x0b\x04\x0e88\x00\x00\x00'
p2805
tp2806
Rp2807
sg50
(dp2808
g155
Nsg156
I00
sg157
g2760
sg158
I00
sg159
Nsg56
L661920068784119813L
sg160
I0
sg161
V<a href="http://socialadcenter.com" rel="nofollow">Social Ad Center</a>
p2809
sg163
I00
sg164
Nsg64
(dp2810
g166
(lp2811
(dp2812
g39
(lp2813
I83
aI88
asg157
VCPRX
p2814
sa(dp2815
g39
(lp2816
I89
aI94
asg157
VPDEX
p2817
sa(dp2818
g39
(lp2819
I95
aI100
asg157
VCTCT
p2820
sasg171
(lp2821
sg173
(lp2822
sg35
(lp2823
(dp2824
g33
Vhttps://t.co/9Vnnw3s1D8
p2825
sg39
(lp2826
I56
aI79
asg41
Vhttp://PennyStockSecret.com
p2827
sg43
VPennyStockSecret.com
p2828
sassg181
Nsg182
Nsg183
I0
sg68
V661920068784119813
p2829
sg185
I00
sg186
g2782
sg187
Nsg188
Nsg189
I00
sg92
g2804
sg100
VWed Nov 04 14:56:56 +0000 2015
p2830
sg191
Nsg192
Nsg193
(dp2831
g195
Ven
p2832
sg197
Vrecent
p2833
sssg199
g2831
sg200
Nsg201
Nsg31
g2810
sg202
Nsg203
Nsg112
g2829
sg204
I00
sg205
Nsg206
I0
sg207
Nsbag0
(g4
g5
Ntp2834
Rp2835
(dp2836
g9
I00
sg10
Nsg11
I00
sg12
VOur Platinum Members Have Been Seeing MASSIVE Gains On Our Penny Stock Picks! Subscribe Today: https://t.co/ro7o3SYbd1 $CPRX $PDEX $CTCT
p2837
sg14
Vhttp://twitter.com
p2838
sg16
I00
sg17
I00
sg18
Nsg19
g0
(g20
g5
Ntp2839
Rp2840
(dp2841
g24
I00
sg25
I00
sg26
I01
sg27
VDDEEF6
p2842
sg29
L2447901655L
sg30
I00
sg31
(dp2843
g45
(dp2844
g35
(lp2845
(dp2846
g33
Vhttp://t.co/QYxLf9LJ7f
p2847
sg39
(lp2848
I94
aI116
asg41
Vhttp://www.pennystockdream.com/disclaimer
p2849
sg43
Vpennystockdream.com/disclaimer
p2850
sasssg48
Vhttps://pbs.twimg.com/profile_images/456519281744703490/M4G5Ld8j_normal.jpeg
p2851
sg50
(dp2852
g52
I00
sg53
I00
sg54
I01
sg55
I00
sg56
L2447901655L
sg57
Vhttps://abs.twimg.com/images/themes/theme1/bg.png
p2853
sg59
I00
sg60
V333333
p2854
sg62
g2851
sg63
g2842
sg64
g2843
sg65
I13505
sg66
VC0DEED
p2855
sg68
V2447901655
p2856
sg70
VC0DEED
p2857
sg72
I79
sg73
I00
sg74
Nsg75
I234690
sg45
VATTENTION: Read full disclaimer before looking at any of our tweets! Link To Full Disclaimer: http://t.co/QYxLf9LJ7f
p2858
sg77
I1
sg78
g299
sg80
V0084B4
p2859
sg82
Vhttp://pbs.twimg.com/profile_images/456519281744703490/M4G5Ld8j_normal.jpeg
p2860
sg84
I00
sg85
I00
sg88
Vhttp://abs.twimg.com/images/themes/theme1/bg.png
p2861
sg90
VStockRocketzz
p2862
sg92
Ven
p2863
sg94
I00
sg95
I0
sg96
VStock Rocket
p2864
sg98
I00
sg33
Nsg100
VWed Apr 16 19:44:35 +0000 2014
p2865
sg102
I00
sg103
Nsg105
I00
sg106
I01
sg107
I00
ssg108
I00
sg109
g2854
sg110
I13505
sg111
g2855
sg112
g2856
sg113
I00
sg114
I79
sg115
I00
sg116
Nsg117
I234690
sg118
g2858
sg119
I1
sg120
g299
sg121
g2859
sg122
g2860
sg123
I00
sg124
I00
sg125
g2857
sg127
g2861
sg128
g2862
sg129
g2863
sg130
I00
sg131
I00
sg132
I0
sg133
g2864
sg134
Nsg135
g136
(S'\x07\xde\x04\x10\x13,#\x00\x00\x00'
p2866
tp2867
Rp2868
sg140
g2853
sg141
Nsg142
I00
sg143
I01
sg144
I00
sbsg145
Nsg29
L661858096294309888L
sg146
I0
sg147
VTwitter Web Client
p2869
sg129
Ven
p2870
sg150
g2840
sg135
g136
(S'\x07\xdf\x0b\x04\n2)\x00\x00\x00'
p2871
tp2872
Rp2873
sg50
(dp2874
g155
Nsg156
I00
sg157
g2837
sg158
I00
sg159
Nsg56
L661858096294309888L
sg160
I0
sg161
V<a href="http://twitter.com" rel="nofollow">Twitter Web Client</a>
p2875
sg163
I00
sg164
Nsg64
(dp2876
g166
(lp2877
(dp2878
g39
(lp2879
I119
aI124
asg157
VCPRX
p2880
sa(dp2881
g39
(lp2882
I125
aI130
asg157
VPDEX
p2883
sa(dp2884
g39
(lp2885
I131
aI136
asg157
VCTCT
p2886
sasg171
(lp2887
sg173
(lp2888
sg35
(lp2889
(dp2890
g33
Vhttps://t.co/ro7o3SYbd1
p2891
sg39
(lp2892
I95
aI118
asg41
Vhttp://tinyurl.com/o3lgmg3
p2893
sg43
Vtinyurl.com/o3lgmg3
p2894
sassg181
Nsg182
Nsg183
I0
sg68
V661858096294309888
p2895
sg185
I00
sg186
g2852
sg187
Nsg188
Nsg189
I00
sg92
g2870
sg100
VWed Nov 04 10:50:41 +0000 2015
p2896
sg191
Nsg192
Nsg193
(dp2897
g195
Ven
p2898
sg197
Vrecent
p2899
sssg199
g2897
sg200
Nsg201
Nsg31
g2876
sg202
Nsg203
Nsg112
g2895
sg204
I00
sg205
Nsg206
I0
sg207
Nsbag0
(g4
g5
Ntp2900
Rp2901
(dp2902
g9
I00
sg10
Nsg11
I00
sg12
VOur Pick On $HCTI More Than Tripled For Our Members, In 3 Weeks! Subscribe For Our New Picks: https://t.co/6sqzAAvjDY $CPRX $PDEX $CTCT
p2903
sg14
Vhttp://twitter.com
p2904
sg16
I00
sg17
I00
sg18
Nsg19
g0
(g20
g5
Ntp2905
Rp2906
(dp2907
g24
I00
sg25
I00
sg26
I01
sg27
VDDEEF6
p2908
sg29
L2447928920L
sg30
I00
sg31
(dp2909
g45
(dp2910
g35
(lp2911
(dp2912
g33
Vhttp://t.co/QYxLf9LJ7f
p2913
sg39
(lp2914
I94
aI116
asg41
Vhttp://www.pennystockdream.com/disclaimer
p2915
sg43
Vpennystockdream.com/disclaimer
p2916
sasssg48
Vhttps://pbs.twimg.com/profile_images/456523892308201472/sBGAsJTn_normal.png
p2917
sg50
(dp2918
g52
I00
sg53
I00
sg54
I01
sg55
I00
sg56
L2447928920L
sg57
Vhttps://abs.twimg.com/images/themes/theme1/bg.png
p2919
sg59
I00
sg60
V333333
p2920
sg62
g2917
sg63
g2908
sg64
g2909
sg65
I4321
sg66
VC0DEED
p2921
sg68
V2447928920
p2922
sg70
VC0DEED
p2923
sg72
I60
sg73
I00
sg74
Nsg75
I179299
sg45
VATTENTION: Read full disclaimer before looking at any of our tweets! Link To Full Disclaimer: http://t.co/QYxLf9LJ7f
p2924
sg77
I0
sg78
g299
sg80
V0084B4
p2925
sg82
Vhttp://pbs.twimg.com/profile_images/456523892308201472/sBGAsJTn_normal.png
p2926
sg84
I00
sg85
I00
sg88
Vhttp://abs.twimg.com/images/themes/theme1/bg.png
p2927
sg90
VStockenheimer1
p2928
sg92
Ven
p2929
sg94
I00
sg95
I0
sg96
VStockenheimerSchmidt
p2930
sg98
I00
sg33
Nsg100
VWed Apr 16 20:03:52 +0000 2014
p2931
sg102
I00
sg103
Nsg105
I00
sg106
I01
sg107
I00
ssg108
I00
sg109
g2920
sg110
I4321
sg111
g2921
sg112
g2922
sg113
I00
sg114
I60
sg115
I00
sg116
Nsg117
I179299
sg118
g2924
sg119
I0
sg120
g299
sg121
g2925
sg122
g2926
sg123
I00
sg124
I00
sg125
g2923
sg127
g2927
sg128
g2928
sg129
g2929
sg130
I00
sg131
I00
sg132
I0
sg133
g2930
sg134
Nsg135
g136
(S'\x07\xde\x04\x10\x14\x034\x00\x00\x00'
p2932
tp2933
Rp2934
sg140
g2919
sg141
Nsg142
I00
sg143
I01
sg144
I00
sbsg145
Nsg29
L661858014970925056L
sg146
I0
sg147
VTwitter Web Client
p2935
sg129
Ven
p2936
sg150
g2906
sg135
g136
(S'\x07\xdf\x0b\x04\n2\x16\x00\x00\x00'
p2937
tp2938
Rp2939
sg50
(dp2940
g155
Nsg156
I00
sg157
g2903
sg158
I00
sg159
Nsg56
L661858014970925056L
sg160
I0
sg161
V<a href="http://twitter.com" rel="nofollow">Twitter Web Client</a>
p2941
sg163
I00
sg164
Nsg64
(dp2942
g166
(lp2943
(dp2944
g39
(lp2945
I12
aI17
asg157
VHCTI
p2946
sa(dp2947
g39
(lp2948
I118
aI123
asg157
VCPRX
p2949
sa(dp2950
g39
(lp2951
I124
aI129
asg157
VPDEX
p2952
sa(dp2953
g39
(lp2954
I130
aI135
asg157
VCTCT
p2955
sasg171
(lp2956
sg173
(lp2957
sg35
(lp2958
(dp2959
g33
Vhttps://t.co/6sqzAAvjDY
p2960
sg39
(lp2961
I94
aI117
asg41
Vhttp://ow.ly/SP8LD
p2962
sg43
Vow.ly/SP8LD
p2963
sassg181
Nsg182
Nsg183
I0
sg68
V661858014970925056
p2964
sg185
I00
sg186
g2918
sg187
Nsg188
Nsg189
I00
sg92
g2936
sg100
VWed Nov 04 10:50:22 +0000 2015
p2965
sg191
Nsg192
Nsg193
(dp2966
g195
Ven
p2967
sg197
Vrecent
p2968
sssg199
g2966
sg200
Nsg201
Nsg31
g2942
sg202
Nsg203
Nsg112
g2964
sg204
I00
sg205
Nsg206
I0
sg207
Nsbag0
(g4
g5
Ntp2969
Rp2970
(dp2971
g9
I00
sg10
Nsg11
I00
sg12
VOur Stock Alerts Have Been Seeing Record Gains! Our New Pick Will Be MASSIVE: https://t.co/DXRm9DTWiK $CPRX $PDEX $CTCT
p2972
sg14
Vhttp://twitter.com
p2973
sg16
I00
sg17
I00
sg18
Nsg19
g0
(g20
g5
Ntp2974
Rp2975
(dp2976
g24
I00
sg25
I00
sg26
I01
sg27
VDDEEF6
p2977
sg29
L3091884801L
sg30
I00
sg31
(dp2978
g45
(dp2979
g35
(lp2980
(dp2981
g33
Vhttp://t.co/d1PvG67hF4
p2982
sg39
(lp2983
I79
aI101
asg41
Vhttp://tinyurl.com/mcsbvzz
p2984
sg43
Vtinyurl.com/mcsbvzz
p2985
sasssg48
Vhttps://pbs.twimg.com/profile_images/576989971883499521/yv0Bp7te_normal.jpeg
p2986
sg50
(dp2987
g52
I00
sg53
I00
sg54
I01
sg55
I00
sg56
L3091884801L
sg57
Vhttps://abs.twimg.com/images/themes/theme1/bg.png
p2988
sg59
I00
sg60
V333333
p2989
sg62
g2986
sg63
g2977
sg64
g2978
sg65
I15267
sg66
VC0DEED
p2990
sg68
V3091884801
p2991
sg70
VC0DEED
p2992
sg72
I65
sg73
I00
sg74
Nsg75
I170509
sg45
VRead our full disclaimer before looking at any of our tweets! Full Disclaimer: http://t.co/d1PvG67hF4
p2993
sg77
I1
sg78
g299
sg80
V0084B4
p2994
sg82
Vhttp://pbs.twimg.com/profile_images/576989971883499521/yv0Bp7te_normal.jpeg
p2995
sg84
I00
sg85
I00
sg88
Vhttp://abs.twimg.com/images/themes/theme1/bg.png
p2996
sg90
VStockDawgzz
p2997
sg92
Ven
p2998
sg94
I00
sg95
I0
sg96
VStock Dawgzz
p2999
sg98
I00
sg33
Nsg100
VSun Mar 15 06:13:17 +0000 2015
p3000
sg102
I00
sg103
Nsg105
I00
sg106
I01
sg107
I00
ssg108
I00
sg109
g2989
sg110
I15267
sg111
g2990
sg112
g2991
sg113
I00
sg114
I65
sg115
I00
sg116
Nsg117
I170509
sg118
g2993
sg119
I1
sg120
g299
sg121
g2994
sg122
g2995
sg123
I00
sg124
I00
sg125
g2992
sg127
g2996
sg128
g2997
sg129
g2998
sg130
I00
sg131
I00
sg132
I0
sg133
g2999
sg134
Nsg135
g136
(S'\x07\xdf\x03\x0f\x06\r\x11\x00\x00\x00'
p3001
tp3002
Rp3003
sg140
g2988
sg141
Nsg142
I00
sg143
I01
sg144
I00
sbsg145
Nsg29
L661857879465529344L
sg146
I0
sg147
VTwitter Web Client
p3004
sg129
Ven
p3005
sg150
g2975
sg135
g136
(S'\x07\xdf\x0b\x04\n11\x00\x00\x00'
p3006
tp3007
Rp3008
sg50
(dp3009
g155
Nsg156
I00
sg157
g2972
sg158
I00
sg159
Nsg56
L661857879465529344L
sg160
I0
sg161
V<a href="http://twitter.com" rel="nofollow">Twitter Web Client</a>
p3010
sg163
I00
sg164
Nsg64
(dp3011
g166
(lp3012
(dp3013
g39
(lp3014
I102
aI107
asg157
VCPRX
p3015
sa(dp3016
g39
(lp3017
I108
aI113
asg157
VPDEX
p3018
sa(dp3019
g39
(lp3020
I114
aI119
asg157
VCTCT
p3021
sasg171
(lp3022
sg173
(lp3023
sg35
(lp3024
(dp3025
g33
Vhttps://t.co/DXRm9DTWiK
p3026
sg39
(lp3027
I78
aI101
asg41
Vhttp://goo.gl/NGTqcj
p3028
sg43
Vgoo.gl/NGTqcj
p3029
sassg181
Nsg182
Nsg183
I0
sg68
V661857879465529344
p3030
sg185
I00
sg186
g2987
sg187
Nsg188
Nsg189
I00
sg92
g3005
sg100
VWed Nov 04 10:49:49 +0000 2015
p3031
sg191
Nsg192
Nsg193
(dp3032
g195
Ven
p3033
sg197
Vrecent
p3034
sssg199
g3032
sg200
Nsg201
Nsg31
g3011
sg202
Nsg203
Nsg112
g3030
sg204
I00
sg205
Nsg206
I0
sg207
Nsbag0
(g4
g5
Ntp3035
Rp3036
(dp3037
g9
I00
sg10
Nsg11
I00
sg12
VOur Stock Alerts Gained Over 1,900% In 2 And A Half Months! See Our Special New Pick: https://t.co/rdhi4T4cqG $CPRX $PDEX $CTCT
p3038
sg14
Vhttp://twitter.com
p3039
sg16
I00
sg17
I00
sg18
Nsg19
g0
(g20
g5
Ntp3040
Rp3041
(dp3042
g24
I00
sg25
I00
sg26
I01
sg27
VDDEEF6
p3043
sg29
L2447967798L
sg30
I00
sg31
(dp3044
g45
(dp3045
g35
(lp3046
(dp3047
g33
Vhttp://t.co/d1PvG67PuC
p3048
sg39
(lp3049
I80
aI102
asg41
Vhttp://tinyurl.com/mcsbvzz
p3050
sg43
Vtinyurl.com/mcsbvzz
p3051
sasssg48
Vhttps://pbs.twimg.com/profile_images/456529846420525056/wLucrlXI_normal.jpeg
p3052
sg50
(dp3053
g52
I00
sg53
I00
sg54
I01
sg55
I00
sg56
L2447967798L
sg57
Vhttps://abs.twimg.com/images/themes/theme1/bg.png
p3054
sg59
I00
sg60
V333333
p3055
sg62
g3052
sg63
g3043
sg64
g3044
sg65
I14103
sg66
VC0DEED
p3056
sg68
V2447967798
p3057
sg70
VC0DEED
p3058
sg72
I101
sg73
I00
sg74
Nsg75
I443646
sg45
VRead our full disclaimer before looking at any of our tweets! Full Disclaimer:  http://t.co/d1PvG67PuC
p3059
sg77
I8
sg78
g299
sg80
V0084B4
p3060
sg82
Vhttp://pbs.twimg.com/profile_images/456529846420525056/wLucrlXI_normal.jpeg
p3061
sg84
I00
sg85
I00
sg88
Vhttp://abs.twimg.com/images/themes/theme1/bg.png
p3062
sg90
VStockaholics
p3063
sg92
Ven
p3064
sg94
I00
sg95
I22
sg96
VStockaholics
p3065
sg98
I00
sg33
Nsg100
VWed Apr 16 20:27:43 +0000 2014
p3066
sg102
I00
sg103
Nsg105
I00
sg106
I01
sg107
I00
ssg108
I00
sg109
g3055
sg110
I14103
sg111
g3056
sg112
g3057
sg113
I00
sg114
I101
sg115
I00
sg116
Nsg117
I443646
sg118
g3059
sg119
I8
sg120
g299
sg121
g3060
sg122
g3061
sg123
I00
sg124
I00
sg125
g3058
sg127
g3062
sg128
g3063
sg129
g3064
sg130
I00
sg131
I00
sg132
I22
sg133
g3065
sg134
Nsg135
g136
(S'\x07\xde\x04\x10\x14\x1b+\x00\x00\x00'
p3067
tp3068
Rp3069
sg140
g3054
sg141
Nsg142
I00
sg143
I01
sg144
I00
sbsg145
Nsg29
L661857006781886464L
sg146
I0
sg147
VTwitter Web Client
p3070
sg129
Ven
p3071
sg150
g3041
sg135
g136
(S'\x07\xdf\x0b\x04\n.\x15\x00\x00\x00'
p3072
tp3073
Rp3074
sg50
(dp3075
g155
Nsg156
I00
sg157
g3038
sg158
I00
sg159
Nsg56
L661857006781886464L
sg160
I0
sg161
V<a href="http://twitter.com" rel="nofollow">Twitter Web Client</a>
p3076
sg163
I00
sg164
Nsg64
(dp3077
g166
(lp3078
(dp3079
g39
(lp3080
I110
aI115
asg157
VCPRX
p3081
sa(dp3082
g39
(lp3083
I116
aI121
asg157
VPDEX
p3084
sa(dp3085
g39
(lp3086
I122
aI127
asg157
VCTCT
p3087
sasg171
(lp3088
sg173
(lp3089
sg35
(lp3090
(dp3091
g33
Vhttps://t.co/rdhi4T4cqG
p3092
sg39
(lp3093
I86
aI109
asg41
Vhttp://bit.ly/1P4EFQ5
p3094
sg43
Vbit.ly/1P4EFQ5
p3095
sassg181
Nsg182
Nsg183
I0
sg68
V661857006781886464
p3096
sg185
I00
sg186
g3053
sg187
Nsg188
Nsg189
I00
sg92
g3071
sg100
VWed Nov 04 10:46:21 +0000 2015
p3097
sg191
Nsg192
Nsg193
(dp3098
g195
Ven
p3099
sg197
Vrecent
p3100
sssg199
g3098
sg200
Nsg201
Nsg31
g3077
sg202
Nsg203
Nsg112
g3096
sg204
I00
sg205
Nsg206
I0
sg207
Nsbag0
(g4
g5
Ntp3101
Rp3102
(dp3103
g9
I00
sg10
Nsg11
I00
sg12
V$GEQU Has Increased Almost 20 TIMES In Value, For Our Subscribers! Huge News: https://t.co/viouXok21i $CPRX $PDEX $CTCT
p3104
sg14
Vhttp://twitter.com
p3105
sg16
I00
sg17
I00
sg18
Nsg19
g0
(g20
g5
Ntp3106
Rp3107
(dp3108
g24
I00
sg25
I00
sg26
I01
sg27
VDDEEF6
p3109
sg29
L3091880403L
sg30
I00
sg31
(dp3110
g45
(dp3111
g35
(lp3112
(dp3113
g33
Vhttp://t.co/d1PvG67hF4
p3114
sg39
(lp3115
I79
aI101
asg41
Vhttp://tinyurl.com/mcsbvzz
p3116
sg43
Vtinyurl.com/mcsbvzz
p3117
sasssg48
Vhttps://pbs.twimg.com/profile_images/576985932299026432/vGRv_VM-_normal.png
p3118
sg50
(dp3119
g52
I00
sg53
I00
sg54
I01
sg55
I00
sg56
L3091880403L
sg57
Vhttps://abs.twimg.com/images/themes/theme1/bg.png
p3120
sg59
I00
sg60
V333333
p3121
sg62
g3118
sg63
g3109
sg64
g3110
sg65
I15272
sg66
VC0DEED
p3122
sg68
V3091880403
p3123
sg70
VC0DEED
p3124
sg72
I71
sg73
I00
sg74
Nsg75
I173961
sg45
VRead our full disclaimer before looking at any of our tweets! Full Disclaimer: http://t.co/d1PvG67hF4
p3125
sg77
I0
sg78
g299
sg80
V0084B4
p3126
sg82
Vhttp://pbs.twimg.com/profile_images/576985932299026432/vGRv_VM-_normal.png
p3127
sg84
I00
sg85
I00
sg88
Vhttp://abs.twimg.com/images/themes/theme1/bg.png
p3128
sg90
VPennyStockingt
p3129
sg92
Ven
p3130
sg94
I00
sg95
I1
sg96
VPenny Stockington
p3131
sg98
I00
sg33
Nsg100
VSun Mar 15 05:57:31 +0000 2015
p3132
sg102
I00
sg103
Nsg105
I00
sg106
I01
sg107
I00
ssg108
I00
sg109
g3121
sg110
I15272
sg111
g3122
sg112
g3123
sg113
I00
sg114
I71
sg115
I00
sg116
Nsg117
I173961
sg118
g3125
sg119
I0
sg120
g299
sg121
g3126
sg122
g3127
sg123
I00
sg124
I00
sg125
g3124
sg127
g3128
sg128
g3129
sg129
g3130
sg130
I00
sg131
I00
sg132
I1
sg133
g3131
sg134
Nsg135
g136
(S'\x07\xdf\x03\x0f\x059\x1f\x00\x00\x00'
p3133
tp3134
Rp3135
sg140
g3120
sg141
Nsg142
I00
sg143
I01
sg144
I00
sbsg145
Nsg29
L661856179291824128L
sg146
I0
sg147
VTwitter Web Client
p3136
sg129
Ven
p3137
sg150
g3107
sg135
g136
(S'\x07\xdf\x0b\x04\n+\x04\x00\x00\x00'
p3138
tp3139
Rp3140
sg50
(dp3141
g155
Nsg156
I00
sg157
g3104
sg158
I00
sg159
Nsg56
L661856179291824128L
sg160
I0
sg161
V<a href="http://twitter.com" rel="nofollow">Twitter Web Client</a>
p3142
sg163
I00
sg164
Nsg64
(dp3143
g166
(lp3144
(dp3145
g39
(lp3146
I0
aI5
asg157
VGEQU
p3147
sa(dp3148
g39
(lp3149
I102
aI107
asg157
VCPRX
p3150
sa(dp3151
g39
(lp3152
I108
aI113
asg157
VPDEX
p3153
sa(dp3154
g39
(lp3155
I114
aI119
asg157
VCTCT
p3156
sasg171
(lp3157
sg173
(lp3158
sg35
(lp3159
(dp3160
g33
Vhttps://t.co/viouXok21i
p3161
sg39
(lp3162
I78
aI101
asg41
Vhttp://tr.im/abvm6
p3163
sg43
Vtr.im/abvm6
p3164
sassg181
Nsg182
Nsg183
I0
sg68
V661856179291824128
p3165
sg185
I00
sg186
g3119
sg187
Nsg188
Nsg189
I00
sg92
g3137
sg100
VWed Nov 04 10:43:04 +0000 2015
p3166
sg191
Nsg192
Nsg193
(dp3167
g195
Ven
p3168
sg197
Vrecent
p3169
sssg199
g3167
sg200
Nsg201
Nsg31
g3143
sg202
Nsg203
Nsg112
g3165
sg204
I00
sg205
Nsg206
I0
sg207
Nsbag0
(g4
g5
Ntp3170
Rp3171
(dp3172
g9
I00
sg10
Nsg11
I00
sg12
VYesterday We Made $54,000 In Just One Trade More Info Here https://t.co/8WvnrVmkBS .. $CPRX $PDEX $CTCT
p3173
sg14
Vhttp://socialadcenter.com
p3174
sg16
I00
sg17
I00
sg18
Nsg19
g0
(g20
g5
Ntp3175
Rp3176
(dp3177
g24
I00
sg25
I00
sg26
I01
sg27
VDDEEF6
p3178
sg29
L2730855593L
sg30
I00
sg31
(dp3179
g33
(dp3180
g35
(lp3181
(dp3182
g33
Vhttp://t.co/UWzH8kOOl9
p3183
sg39
(lp3184
I0
aI22
asg41
Vhttp://PennyStockSecret.com
p3185
sg43
VPennyStockSecret.com
p3186
sassg45
(dp3187
g35
(lp3188
(dp3189
g33
Vhttp://t.co/UWzH8kOOl9
p3190
sg39
(lp3191
I11
aI33
asg41
Vhttp://PennyStockSecret.com
p3192
sg43
VPennyStockSecret.com
p3193
sasssg48
Vhttps://pbs.twimg.com/profile_images/573247485616889856/gHAtYS9O_normal.png
p3194
sg50
(dp3195
g52
I00
sg53
I00
sg54
I01
sg55
I00
sg56
L2730855593L
sg57
Vhttps://abs.twimg.com/images/themes/theme1/bg.png
p3196
sg59
I00
sg60
V333333
p3197
sg62
g3194
sg63
g3178
sg64
g3179
sg65
I2515
sg66
VC0DEED
p3198
sg68
V2730855593
p3199
sg70
VC0DEED
p3200
sg72
I25
sg73
I00
sg74
I0
sg75
I53229
sg45
VSign up to http://t.co/UWzH8kOOl9  and get the premiere penny stock newsletter for free! make sure you subscribe today!
p3201
sg77
I9
sg78
VUSA
p3202
sg80
V0084B4
p3203
sg82
Vhttp://pbs.twimg.com/profile_images/573247485616889856/gHAtYS9O_normal.png
p3204
sg84
I00
sg85
I00
sg86
Vhttps://pbs.twimg.com/profile_banners/2730855593/1425507876
p3205
sg88
Vhttp://abs.twimg.com/images/themes/theme1/bg.png
p3206
sg90
Vstockschamp
p3207
sg92
Ven
p3208
sg94
I00
sg95
I0
sg96
Vstockschamp
p3209
sg98
I00
sg33
Vhttp://t.co/UWzH8kOOl9
p3210
sg100
VFri Aug 01 16:39:24 +0000 2014
p3211
sg102
I00
sg103
VDublin
p3212
sg105
I00
sg106
I01
sg107
I00
ssg108
I00
sg109
g3197
sg110
I2515
sg111
g3198
sg112
g3199
sg113
I00
sg114
I25
sg115
I00
sg116
I0
sg117
I53229
sg118
g3201
sg119
I9
sg120
g3202
sg121
g3203
sg122
g3204
sg123
I00
sg124
I00
sg125
g3200
sg126
g3205
sg127
g3206
sg128
g3207
sg129
g3208
sg130
I00
sg131
I00
sg132
I0
sg133
g3209
sg134
g3210
sg135
g136
(S"\x07\xde\x08\x01\x10'\x18\x00\x00\x00"
p3213
tp3214
Rp3215
sg140
g3196
sg141
g3212
sg142
I00
sg143
I01
sg144
I00
sbsg145
Nsg29
L661546094627700736L
sg146
I0
sg147
VSocial Ad Center
p3216
sg129
Ven
p3217
sg150
g3176
sg135
g136
(S'\x07\xdf\x0b\x03\x0e\n6\x00\x00\x00'
p3218
tp3219
Rp3220
sg50
(dp3221
g155
Nsg156
I00
sg157
g3173
sg158
I00
sg159
Nsg56
L661546094627700736L
sg160
I0
sg161
V<a href="http://socialadcenter.com" rel="nofollow">Social Ad Center</a>
p3222
sg163
I00
sg164
Nsg64
(dp3223
g166
(lp3224
(dp3225
g39
(lp3226
I86
aI91
asg157
VCPRX
p3227
sa(dp3228
g39
(lp3229
I92
aI97
asg157
VPDEX
p3230
sa(dp3231
g39
(lp3232
I98
aI103
asg157
VCTCT
p3233
sasg171
(lp3234
sg173
(lp3235
sg35
(lp3236
(dp3237
g33
Vhttps://t.co/8WvnrVmkBS
p3238
sg39
(lp3239
I59
aI82
asg41
Vhttp://PennyStockSecret.com
p3240
sg43
VPennyStockSecret.com
p3241
sassg181
Nsg182
Nsg183
I0
sg68
V661546094627700736
p3242
sg185
I00
sg186
g3195
sg187
Nsg188
Nsg189
I00
sg92
g3217
sg100
VTue Nov 03 14:10:54 +0000 2015
p3243
sg191
Nsg192
Nsg193
(dp3244
g195
Ven
p3245
sg197
Vrecent
p3246
sssg199
g3244
sg200
Nsg201
Nsg31
g3223
sg202
Nsg203
Nsg112
g3242
sg204
I00
sg205
Nsg206
I0
sg207
Nsbag0
(g4
g5
Ntp3247
Rp3248
(dp3249
g9
I00
sg10
Nsg11
I00
sg12
VOur Stock Alerts Have Been Seeing Record Gains! Our New Pick Will Be MASSIVE: https://t.co/DXRm9DTWiK $CPRX $PDEX $CTCT
p3250
sg14
Vhttp://twitter.com
p3251
sg16
I00
sg17
I00
sg18
Nsg19
g0
(g20
g5
Ntp3252
Rp3253
(dp3254
g24
I00
sg25
I00
sg26
I01
sg27
VDDEEF6
p3255
sg29
L3091884801L
sg30
I00
sg31
(dp3256
g45
(dp3257
g35
(lp3258
(dp3259
g33
Vhttp://t.co/d1PvG67hF4
p3260
sg39
(lp3261
I79
aI101
asg41
Vhttp://tinyurl.com/mcsbvzz
p3262
sg43
Vtinyurl.com/mcsbvzz
p3263
sasssg48
Vhttps://pbs.twimg.com/profile_images/576989971883499521/yv0Bp7te_normal.jpeg
p3264
sg50
(dp3265
g52
I00
sg53
I00
sg54
I01
sg55
I00
sg56
L3091884801L
sg57
Vhttps://abs.twimg.com/images/themes/theme1/bg.png
p3266
sg59
I00
sg60
V333333
p3267
sg62
g3264
sg63
g3255
sg64
g3256
sg65
I15267
sg66
VC0DEED
p3268
sg68
V3091884801
p3269
sg70
VC0DEED
p3270
sg72
I65
sg73
I00
sg74
Nsg75
I170509
sg45
VRead our full disclaimer before looking at any of our tweets! Full Disclaimer: http://t.co/d1PvG67hF4
p3271
sg77
I1
sg78
g299
sg80
V0084B4
p3272
sg82
Vhttp://pbs.twimg.com/profile_images/576989971883499521/yv0Bp7te_normal.jpeg
p3273
sg84
I00
sg85
I00
sg88
Vhttp://abs.twimg.com/images/themes/theme1/bg.png
p3274
sg90
VStockDawgzz
p3275
sg92
Ven
p3276
sg94
I00
sg95
I0
sg96
VStock Dawgzz
p3277
sg98
I00
sg33
Nsg100
VSun Mar 15 06:13:17 +0000 2015
p3278
sg102
I00
sg103
Nsg105
I00
sg106
I01
sg107
I00
ssg108
I00
sg109
g3267
sg110
I15267
sg111
g3268
sg112
g3269
sg113
I00
sg114
I65
sg115
I00
sg116
Nsg117
I170509
sg118
g3271
sg119
I1
sg120
g299
sg121
g3272
sg122
g3273
sg123
I00
sg124
I00
sg125
g3270
sg127
g3274
sg128
g3275
sg129
g3276
sg130
I00
sg131
I00
sg132
I0
sg133
g3277
sg134
Nsg135
g136
(S'\x07\xdf\x03\x0f\x06\r\x11\x00\x00\x00'
p3279
tp3280
Rp3281
sg140
g3266
sg141
Nsg142
I00
sg143
I01
sg144
I00
sbsg145
Nsg29
L661521460658356228L
sg146
I0
sg147
VTwitter Web Client
p3282
sg129
Ven
p3283
sg150
g3253
sg135
g136
(S'\x07\xdf\x0b\x03\x0c!\x01\x00\x00\x00'
p3284
tp3285
Rp3286
sg50
(dp3287
g155
Nsg156
I00
sg157
g3250
sg158
I00
sg159
Nsg56
L661521460658356228L
sg160
I0
sg161
V<a href="http://twitter.com" rel="nofollow">Twitter Web Client</a>
p3288
sg163
I00
sg164
Nsg64
(dp3289
g166
(lp3290
(dp3291
g39
(lp3292
I102
aI107
asg157
VCPRX
p3293
sa(dp3294
g39
(lp3295
I108
aI113
asg157
VPDEX
p3296
sa(dp3297
g39
(lp3298
I114
aI119
asg157
VCTCT
p3299
sasg171
(lp3300
sg173
(lp3301
sg35
(lp3302
(dp3303
g33
Vhttps://t.co/DXRm9DTWiK
p3304
sg39
(lp3305
I78
aI101
asg41
Vhttp://goo.gl/NGTqcj
p3306
sg43
Vgoo.gl/NGTqcj
p3307
sassg181
Nsg182
Nsg183
I0
sg68
V661521460658356228
p3308
sg185
I00
sg186
g3265
sg187
Nsg188
Nsg189
I00
sg92
g3283
sg100
VTue Nov 03 12:33:01 +0000 2015
p3309
sg191
Nsg192
Nsg193
(dp3310
g195
Ven
p3311
sg197
Vrecent
p3312
sssg199
g3310
sg200
Nsg201
Nsg31
g3289
sg202
Nsg203
Nsg112
g3308
sg204
I00
sg205
Nsg206
I0
sg207
Nsbag0
(g4
g5
Ntp3313
Rp3314
(dp3315
g9
I00
sg10
Nsg11
I00
sg12
VPlatinum Members Saw Our Picks Gain Over 3,700% In 3 Months! Subscribe Today: https://t.co/cY8mh65j1l: https://t.co/yWn2CRCU6G $CPRX $PDEX $
p3316
sg14
Vhttp://twitter.com
p3317
sg16
I00
sg17
I00
sg18
Nsg19
g0
(g20
g5
Ntp3318
Rp3319
(dp3320
g24
I00
sg25
I00
sg26
I01
sg27
VDDEEF6
p3321
sg29
L3243387344L
sg30
I00
sg31
(dp3322
g45
(dp3323
g35
(lp3324
sssg48
Vhttps://pbs.twimg.com/profile_images/609378706293821441/PgsP93Yo_normal.jpg
p3325
sg50
(dp3326
g52
I00
sg53
I00
sg54
I01
sg55
I00
sg56
L3243387344L
sg57
Vhttps://abs.twimg.com/images/themes/theme1/bg.png
p3327
sg59
I00
sg60
V333333
p3328
sg62
g3325
sg63
g3321
sg64
g3322
sg65
I12565
sg66
VC0DEED
p3329
sg68
V3243387344
p3330
sg70
VC0DEED
p3331
sg72
I50
sg73
I00
sg74
I-28800
sg75
I83039
sg45
g299
sg77
I0
sg78
g299
sg80
V0084B4
p3332
sg82
Vhttp://pbs.twimg.com/profile_images/609378706293821441/PgsP93Yo_normal.jpg
p3333
sg84
I00
sg85
I00
sg88
Vhttp://abs.twimg.com/images/themes/theme1/bg.png
p3334
sg90
VMoneyMarketzz
p3335
sg92
Ven
p3336
sg94
I00
sg95
I0
sg96
VPaul Henry
p3337
sg98
I00
sg33
Nsg100
VFri Jun 12 15:13:59 +0000 2015
p3338
sg102
I00
sg103
VPacific Time (US & Canada)
p3339
sg105
I00
sg106
I01
sg107
I00
ssg108
I00
sg109
g3328
sg110
I12565
sg111
g3329
sg112
g3330
sg113
I00
sg114
I50
sg115
I00
sg116
I-28800
sg117
I83039
sg118
g299
sg119
I0
sg120
g299
sg121
g3332
sg122
g3333
sg123
I00
sg124
I00
sg125
g3331
sg127
g3334
sg128
g3335
sg129
g3336
sg130
I00
sg131
I00
sg132
I0
sg133
g3337
sg134
Nsg135
g136
(S'\x07\xdf\x06\x0c\x0f\r;\x00\x00\x00'
p3340
tp3341
Rp3342
sg140
g3327
sg141
g3339
sg142
I00
sg143
I01
sg144
I00
sbsg145
Nsg29
L661433478182019072L
sg146
I0
sg147
VTwitter Web Client
p3343
sg129
Ven
p3344
sg150
g3319
sg135
g136
(S'\x07\xdf\x0b\x03\x06+\x18\x00\x00\x00'
p3345
tp3346
Rp3347
sg50
(dp3348
g155
Nsg156
I00
sg157
g3316
sg158
I00
sg159
Nsg56
L661433478182019072L
sg160
I0
sg161
V<a href="http://twitter.com" rel="nofollow">Twitter Web Client</a>
p3349
sg163
I00
sg164
Nsg64
(dp3350
g166
(lp3351
(dp3352
g39
(lp3353
I127
aI132
asg157
VCPRX
p3354
sa(dp3355
g39
(lp3356
I133
aI138
asg157
VPDEX
p3357
sasg171
(lp3358
sg173
(lp3359
sg35
(lp3360
(dp3361
g33
Vhttps://t.co/cY8mh65j1l
p3362
sg39
(lp3363
I78
aI101
asg41
Vhttp://tr.im/Vcmhs
p3364
sg43
Vtr.im/Vcmhs
p3365
sa(dp3366
g33
Vhttps://t.co/yWn2CRCU6G
p3367
sg39
(lp3368
I103
aI126
asg41
Vhttp://tr.im/xU0Zy
p3369
sg43
Vtr.im/xU0Zy
p3370
sassg181
Nsg182
Nsg183
I0
sg68
V661433478182019072
p3371
sg185
I00
sg186
g3326
sg187
Nsg188
Nsg189
I00
sg92
g3344
sg100
VTue Nov 03 06:43:24 +0000 2015
p3372
sg191
Nsg192
Nsg193
(dp3373
g195
Ven
p3374
sg197
Vrecent
p3375
sssg199
g3373
sg200
Nsg201
Nsg31
g3350
sg202
Nsg203
Nsg112
g3371
sg204
I00
sg205
Nsg206
I0
sg207
Nsbag0
(g4
g5
Ntp3376
Rp3377
(dp3378
g9
I00
sg10
Nsg11
I00
sg12
VOur Stock Pick On $GEQU Is Up 3,085.71% For Our Platinum Members! Subscribe Today: https://t.co/vokJGdW3OC $CPRX $PDEX $CTCT
p3379
sg14
Vhttp://twitter.com
p3380
sg16
I00
sg17
I00
sg18
Nsg19
g0
(g20
g5
Ntp3381
Rp3382
(dp3383
g24
I00
sg25
I00
sg26
I01
sg27
VDDEEF6
p3384
sg29
L3315798743L
sg30
I00
sg31
(dp3385
g45
(dp3386
g35
(lp3387
sssg48
Vhttps://pbs.twimg.com/profile_images/608367794644787200/7Js9oXKP_normal.jpg
p3388
sg50
(dp3389
g52
I00
sg53
I00
sg54
I01
sg55
I00
sg56
L3315798743L
sg57
Vhttps://abs.twimg.com/images/themes/theme1/bg.png
p3390
sg59
I00
sg60
V333333
p3391
sg62
g3388
sg63
g3384
sg64
g3385
sg65
I12606
sg66
VC0DEED
p3392
sg68
V3315798743
p3393
sg70
VC0DEED
p3394
sg72
I55
sg73
I00
sg74
Nsg75
I82879
sg45
g299
sg77
I0
sg78
g299
sg80
V0084B4
p3395
sg82
Vhttp://pbs.twimg.com/profile_images/608367794644787200/7Js9oXKP_normal.jpg
p3396
sg84
I00
sg85
I00
sg88
Vhttp://abs.twimg.com/images/themes/theme1/bg.png
p3397
sg90
VStockfiendz
p3398
sg92
Ven
p3399
sg94
I00
sg95
I0
sg96
VMichael Cook
p3400
sg98
I00
sg33
Nsg100
VTue Jun 09 20:16:31 +0000 2015
p3401
sg102
I00
sg103
Nsg105
I00
sg106
I01
sg107
I00
ssg108
I00
sg109
g3391
sg110
I12606
sg111
g3392
sg112
g3393
sg113
I00
sg114
I55
sg115
I00
sg116
Nsg117
I82879
sg118
g299
sg119
I0
sg120
g299
sg121
g3395
sg122
g3396
sg123
I00
sg124
I00
sg125
g3394
sg127
g3397
sg128
g3398
sg129
g3399
sg130
I00
sg131
I00
sg132
I0
sg133
g3400
sg134
Nsg135
g136
(S'\x07\xdf\x06\t\x14\x10\x1f\x00\x00\x00'
p3402
tp3403
Rp3404
sg140
g3390
sg141
Nsg142
I00
sg143
I01
sg144
I00
sbsg145
Nsg29
L661431162666110976L
sg146
I0
sg147
VTwitter Web Client
p3405
sg129
Ven
p3406
sg150
g3382
sg135
g136
(S'\x07\xdf\x0b\x03\x06"\x0c\x00\x00\x00'
p3407
tp3408
Rp3409
sg50
(dp3410
g155
Nsg156
I00
sg157
g3379
sg158
I00
sg159
Nsg56
L661431162666110976L
sg160
I0
sg161
V<a href="http://twitter.com" rel="nofollow">Twitter Web Client</a>
p3411
sg163
I00
sg164
Nsg64
(dp3412
g166
(lp3413
(dp3414
g39
(lp3415
I18
aI23
asg157
VGEQU
p3416
sa(dp3417
g39
(lp3418
I107
aI112
asg157
VCPRX
p3419
sa(dp3420
g39
(lp3421
I113
aI118
asg157
VPDEX
p3422
sa(dp3423
g39
(lp3424
I119
aI124
asg157
VCTCT
p3425
sasg171
(lp3426
sg173
(lp3427
sg35
(lp3428
(dp3429
g33
Vhttps://t.co/vokJGdW3OC
p3430
sg39
(lp3431
I83
aI106
asg41
Vhttp://goo.gl/lBllxk
p3432
sg43
Vgoo.gl/lBllxk
p3433
sassg181
Nsg182
Nsg183
I0
sg68
V661431162666110976
p3434
sg185
I00
sg186
g3389
sg187
Nsg188
Nsg189
I00
sg92
g3406
sg100
VTue Nov 03 06:34:12 +0000 2015
p3435
sg191
Nsg192
Nsg193
(dp3436
g195
Ven
p3437
sg197
Vrecent
p3438
sssg199
g3436
sg200
Nsg201
Nsg31
g3412
sg202
Nsg203
Nsg112
g3434
sg204
I00
sg205
Nsg206
I0
sg207
Nsbag0
(g4
g5
Ntp3439
Rp3440
(dp3441
g9
I00
sg10
Nsg11
I00
sg12
VOur Pick On $GEQU Multiplied More Than 35 Times It's Value Since The Initial Alert! Big News: https://t.co/YzphAts7wM $CPRX $PDEX $CTCT
p3442
sg14
Vhttp://twitter.com
p3443
sg16
I00
sg17
I00
sg18
Nsg19
g0
(g20
g5
Ntp3444
Rp3445
(dp3446
g24
I00
sg25
I00
sg26
I01
sg27
VDDEEF6
p3447
sg29
L3243313260L
sg30
I00
sg31
(dp3448
g45
(dp3449
g35
(lp3450
sssg48
Vhttps://pbs.twimg.com/profile_images/609376154588286976/l9qz1Ibc_normal.jpg
p3451
sg50
(dp3452
g52
I00
sg53
I00
sg54
I01
sg55
I00
sg56
L3243313260L
sg57
Vhttps://abs.twimg.com/images/themes/theme1/bg.png
p3453
sg59
I00
sg60
V333333
p3454
sg62
g3451
sg63
g3447
sg64
g3448
sg65
I19956
sg66
VC0DEED
p3455
sg68
V3243313260
p3456
sg70
VC0DEED
p3457
sg72
I55
sg73
I00
sg74
Nsg75
I81515
sg45
g299
sg77
I0
sg78
g299
sg80
V0084B4
p3458
sg82
Vhttp://pbs.twimg.com/profile_images/609376154588286976/l9qz1Ibc_normal.jpg
p3459
sg84
I00
sg85
I00
sg88
Vhttp://abs.twimg.com/images/themes/theme1/bg.png
p3460
sg90
VTheStockGuyz
p3461
sg92
Ven
p3462
sg94
I00
sg95
I0
sg96
VMichael James
p3463
sg98
I00
sg33
Nsg100
VFri Jun 12 14:53:00 +0000 2015
p3464
sg102
I00
sg103
Nsg105
I00
sg106
I01
sg107
I00
ssg108
I00
sg109
g3454
sg110
I19956
sg111
g3455
sg112
g3456
sg113
I00
sg114
I55
sg115
I00
sg116
Nsg117
I81515
sg118
g299
sg119
I0
sg120
g299
sg121
g3458
sg122
g3459
sg123
I00
sg124
I00
sg125
g3457
sg127
g3460
sg128
g3461
sg129
g3462
sg130
I00
sg131
I00
sg132
I0
sg133
g3463
sg134
Nsg135
g136
(S'\x07\xdf\x06\x0c\x0e5\x00\x00\x00\x00'
p3465
tp3466
Rp3467
sg140
g3453
sg141
Nsg142
I00
sg143
I01
sg144
I00
sbsg145
Nsg29
L661420237993152512L
sg146
I0
sg147
VTwitter Web Client
p3468
sg129
Ven
p3469
sg150
g3445
sg135
g136
(S'\x07\xdf\x0b\x03\x052/\x00\x00\x00'
p3470
tp3471
Rp3472
sg50
(dp3473
g155
Nsg156
I00
sg157
g3442
sg158
I00
sg159
Nsg56
L661420237993152512L
sg160
I0
sg161
V<a href="http://twitter.com" rel="nofollow">Twitter Web Client</a>
p3474
sg163
I00
sg164
Nsg64
(dp3475
g166
(lp3476
(dp3477
g39
(lp3478
I12
aI17
asg157
VGEQU
p3479
sa(dp3480
g39
(lp3481
I118
aI123
asg157
VCPRX
p3482
sa(dp3483
g39
(lp3484
I124
aI129
asg157
VPDEX
p3485
sa(dp3486
g39
(lp3487
I130
aI135
asg157
VCTCT
p3488
sasg171
(lp3489
sg173
(lp3490
sg35
(lp3491
(dp3492
g33
Vhttps://t.co/YzphAts7wM
p3493
sg39
(lp3494
I94
aI117
asg41
Vhttp://bit.ly/1VTm35C
p3495
sg43
Vbit.ly/1VTm35C
p3496
sassg181
Nsg182
Nsg183
I0
sg68
V661420237993152512
p3497
sg185
I00
sg186
g3452
sg187
Nsg188
Nsg189
I00
sg92
g3469
sg100
VTue Nov 03 05:50:47 +0000 2015
p3498
sg191
Nsg192
Nsg193
(dp3499
g195
Ven
p3500
sg197
Vrecent
p3501
sssg199
g3499
sg200
Nsg201
Nsg31
g3475
sg202
Nsg203
Nsg112
g3497
sg204
I00
sg205
Nsg206
I0
sg207
Nsbag0
(g4
g5
Ntp3502
Rp3503
(dp3504
g9
I00
sg10
Nsg11
I00
sg12
VOur Stock Alerts Gained Over 1,900% In 2 And A Half Months! See Our Special New Pick: https://t.co/rdhi4T4cqG $CPRX $PDEX $CTCT
p3505
sg14
Vhttp://twitter.com
p3506
sg16
I00
sg17
I00
sg18
Nsg19
g0
(g20
g5
Ntp3507
Rp3508
(dp3509
g24
I00
sg25
I00
sg26
I01
sg27
VDDEEF6
p3510
sg29
L2447967798L
sg30
I00
sg31
(dp3511
g45
(dp3512
g35
(lp3513
(dp3514
g33
Vhttp://t.co/d1PvG67PuC
p3515
sg39
(lp3516
I80
aI102
asg41
Vhttp://tinyurl.com/mcsbvzz
p3517
sg43
Vtinyurl.com/mcsbvzz
p3518
sasssg48
Vhttps://pbs.twimg.com/profile_images/456529846420525056/wLucrlXI_normal.jpeg
p3519
sg50
(dp3520
g52
I00
sg53
I00
sg54
I01
sg55
I00
sg56
L2447967798L
sg57
Vhttps://abs.twimg.com/images/themes/theme1/bg.png
p3521
sg59
I00
sg60
V333333
p3522
sg62
g3519
sg63
g3510
sg64
g3511
sg65
I14103
sg66
VC0DEED
p3523
sg68
V2447967798
p3524
sg70
VC0DEED
p3525
sg72
I101
sg73
I00
sg74
Nsg75
I443646
sg45
VRead our full disclaimer before looking at any of our tweets! Full Disclaimer:  http://t.co/d1PvG67PuC
p3526
sg77
I8
sg78
g299
sg80
V0084B4
p3527
sg82
Vhttp://pbs.twimg.com/profile_images/456529846420525056/wLucrlXI_normal.jpeg
p3528
sg84
I00
sg85
I00
sg88
Vhttp://abs.twimg.com/images/themes/theme1/bg.png
p3529
sg90
VStockaholics
p3530
sg92
Ven
p3531
sg94
I00
sg95
I22
sg96
VStockaholics
p3532
sg98
I00
sg33
Nsg100
VWed Apr 16 20:27:43 +0000 2014
p3533
sg102
I00
sg103
Nsg105
I00
sg106
I01
sg107
I00
ssg108
I00
sg109
g3522
sg110
I14103
sg111
g3523
sg112
g3524
sg113
I00
sg114
I101
sg115
I00
sg116
Nsg117
I443646
sg118
g3526
sg119
I8
sg120
g299
sg121
g3527
sg122
g3528
sg123
I00
sg124
I00
sg125
g3525
sg127
g3529
sg128
g3530
sg129
g3531
sg130
I00
sg131
I00
sg132
I22
sg133
g3532
sg134
Nsg135
g136
(S'\x07\xde\x04\x10\x14\x1b+\x00\x00\x00'
p3534
tp3535
Rp3536
sg140
g3521
sg141
Nsg142
I00
sg143
I01
sg144
I00
sbsg145
Nsg29
L661348727865651200L
sg146
I0
sg147
VTwitter Web Client
p3537
sg129
Ven
p3538
sg150
g3508
sg135
g136
(S'\x07\xdf\x0b\x03\x01\x06&\x00\x00\x00'
p3539
tp3540
Rp3541
sg50
(dp3542
g155
Nsg156
I00
sg157
g3505
sg158
I00
sg159
Nsg56
L661348727865651200L
sg160
I0
sg161
V<a href="http://twitter.com" rel="nofollow">Twitter Web Client</a>
p3543
sg163
I00
sg164
Nsg64
(dp3544
g166
(lp3545
(dp3546
g39
(lp3547
I110
aI115
asg157
VCPRX
p3548
sa(dp3549
g39
(lp3550
I116
aI121
asg157
VPDEX
p3551
sa(dp3552
g39
(lp3553
I122
aI127
asg157
VCTCT
p3554
sasg171
(lp3555
sg173
(lp3556
sg35
(lp3557
(dp3558
g33
Vhttps://t.co/rdhi4T4cqG
p3559
sg39
(lp3560
I86
aI109
asg41
Vhttp://bit.ly/1P4EFQ5
p3561
sg43
Vbit.ly/1P4EFQ5
p3562
sassg181
Nsg182
Nsg183
I0
sg68
V661348727865651200
p3563
sg185
I00
sg186
g3520
sg187
Nsg188
Nsg189
I00
sg92
g3538
sg100
VTue Nov 03 01:06:38 +0000 2015
p3564
sg191
Nsg192
Nsg193
(dp3565
g195
Ven
p3566
sg197
Vrecent
p3567
sssg199
g3565
sg200
Nsg201
Nsg31
g3544
sg202
Nsg203
Nsg112
g3563
sg204
I00
sg205
Nsg206
I0
sg207
Nsbag0
(g4
g5
Ntp3568
Rp3569
(dp3570
g9
I00
sg10
Nsg11
I00
sg12
VOur Pick On $HCTI More Than Tripled For Our Members, In 3 Weeks! Subscribe For Our New Picks: https://t.co/6sqzAAvjDY $CPRX $PDEX $CTCT
p3571
sg14
Vhttp://twitter.com
p3572
sg16
I00
sg17
I00
sg18
Nsg19
g0
(g20
g5
Ntp3573
Rp3574
(dp3575
g24
I00
sg25
I00
sg26
I01
sg27
VDDEEF6
p3576
sg29
L2447928920L
sg30
I00
sg31
(dp3577
g45
(dp3578
g35
(lp3579
(dp3580
g33
Vhttp://t.co/QYxLf9LJ7f
p3581
sg39
(lp3582
I94
aI116
asg41
Vhttp://www.pennystockdream.com/disclaimer
p3583
sg43
Vpennystockdream.com/disclaimer
p3584
sasssg48
Vhttps://pbs.twimg.com/profile_images/456523892308201472/sBGAsJTn_normal.png
p3585
sg50
(dp3586
g52
I00
sg53
I00
sg54
I01
sg55
I00
sg56
L2447928920L
sg57
Vhttps://abs.twimg.com/images/themes/theme1/bg.png
p3587
sg59
I00
sg60
V333333
p3588
sg62
g3585
sg63
g3576
sg64
g3577
sg65
I4321
sg66
VC0DEED
p3589
sg68
V2447928920
p3590
sg70
VC0DEED
p3591
sg72
I60
sg73
I00
sg74
Nsg75
I179299
sg45
VATTENTION: Read full disclaimer before looking at any of our tweets! Link To Full Disclaimer: http://t.co/QYxLf9LJ7f
p3592
sg77
I0
sg78
g299
sg80
V0084B4
p3593
sg82
Vhttp://pbs.twimg.com/profile_images/456523892308201472/sBGAsJTn_normal.png
p3594
sg84
I00
sg85
I00
sg88
Vhttp://abs.twimg.com/images/themes/theme1/bg.png
p3595
sg90
VStockenheimer1
p3596
sg92
Ven
p3597
sg94
I00
sg95
I0
sg96
VStockenheimerSchmidt
p3598
sg98
I00
sg33
Nsg100
VWed Apr 16 20:03:52 +0000 2014
p3599
sg102
I00
sg103
Nsg105
I00
sg106
I01
sg107
I00
ssg108
I00
sg109
g3588
sg110
I4321
sg111
g3589
sg112
g3590
sg113
I00
sg114
I60
sg115
I00
sg116
Nsg117
I179299
sg118
g3592
sg119
I0
sg120
g299
sg121
g3593
sg122
g3594
sg123
I00
sg124
I00
sg125
g3591
sg127
g3595
sg128
g3596
sg129
g3597
sg130
I00
sg131
I00
sg132
I0
sg133
g3598
sg134
Nsg135
g136
(S'\x07\xde\x04\x10\x14\x034\x00\x00\x00'
p3600
tp3601
Rp3602
sg140
g3587
sg141
Nsg142
I00
sg143
I01
sg144
I00
sbsg145
Nsg29
L661347907296194560L
sg146
I0
sg147
VTwitter Web Client
p3603
sg129
Ven
p3604
sg150
g3574
sg135
g136
(S'\x07\xdf\x0b\x03\x01\x03\x17\x00\x00\x00'
p3605
tp3606
Rp3607
sg50
(dp3608
g155
Nsg156
I00
sg157
g3571
sg158
I00
sg159
Nsg56
L661347907296194560L
sg160
I0
sg161
V<a href="http://twitter.com" rel="nofollow">Twitter Web Client</a>
p3609
sg163
I00
sg164
Nsg64
(dp3610
g166
(lp3611
(dp3612
g39
(lp3613
I12
aI17
asg157
VHCTI
p3614
sa(dp3615
g39
(lp3616
I118
aI123
asg157
VCPRX
p3617
sa(dp3618
g39
(lp3619
I124
aI129
asg157
VPDEX
p3620
sa(dp3621
g39
(lp3622
I130
aI135
asg157
VCTCT
p3623
sasg171
(lp3624
sg173
(lp3625
sg35
(lp3626
(dp3627
g33
Vhttps://t.co/6sqzAAvjDY
p3628
sg39
(lp3629
I94
aI117
asg41
Vhttp://ow.ly/SP8LD
p3630
sg43
Vow.ly/SP8LD
p3631
sassg181
Nsg182
Nsg183
I0
sg68
V661347907296194560
p3632
sg185
I00
sg186
g3586
sg187
Nsg188
Nsg189
I00
sg92
g3604
sg100
VTue Nov 03 01:03:23 +0000 2015
p3633
sg191
Nsg192
Nsg193
(dp3634
g195
Ven
p3635
sg197
Vrecent
p3636
sssg199
g3634
sg200
Nsg201
Nsg31
g3610
sg202
Nsg203
Nsg112
g3632
sg204
I00
sg205
Nsg206
I0
sg207
Nsbag0
(g4
g5
Ntp3637
Rp3638
(dp3639
g9
I00
sg10
Nsg11
I00
sg12
VOur Platinum Members Have Been Seeing MASSIVE Gains On Our Penny Stock Picks! Subscribe Today: https://t.co/ro7o3SYbd1 $CPRX $PDEX $CTCT
p3640
sg14
Vhttp://twitter.com
p3641
sg16
I00
sg17
I00
sg18
Nsg19
g0
(g20
g5
Ntp3642
Rp3643
(dp3644
g24
I00
sg25
I00
sg26
I01
sg27
VDDEEF6
p3645
sg29
L2447901655L
sg30
I00
sg31
(dp3646
g45
(dp3647
g35
(lp3648
(dp3649
g33
Vhttp://t.co/QYxLf9LJ7f
p3650
sg39
(lp3651
I94
aI116
asg41
Vhttp://www.pennystockdream.com/disclaimer
p3652
sg43
Vpennystockdream.com/disclaimer
p3653
sasssg48
Vhttps://pbs.twimg.com/profile_images/456519281744703490/M4G5Ld8j_normal.jpeg
p3654
sg50
(dp3655
g52
I00
sg53
I00
sg54
I01
sg55
I00
sg56
L2447901655L
sg57
Vhttps://abs.twimg.com/images/themes/theme1/bg.png
p3656
sg59
I00
sg60
V333333
p3657
sg62
g3654
sg63
g3645
sg64
g3646
sg65
I13505
sg66
VC0DEED
p3658
sg68
V2447901655
p3659
sg70
VC0DEED
p3660
sg72
I79
sg73
I00
sg74
Nsg75
I234690
sg45
VATTENTION: Read full disclaimer before looking at any of our tweets! Link To Full Disclaimer: http://t.co/QYxLf9LJ7f
p3661
sg77
I1
sg78
g299
sg80
V0084B4
p3662
sg82
Vhttp://pbs.twimg.com/profile_images/456519281744703490/M4G5Ld8j_normal.jpeg
p3663
sg84
I00
sg85
I00
sg88
Vhttp://abs.twimg.com/images/themes/theme1/bg.png
p3664
sg90
VStockRocketzz
p3665
sg92
Ven
p3666
sg94
I00
sg95
I0
sg96
VStock Rocket
p3667
sg98
I00
sg33
Nsg100
VWed Apr 16 19:44:35 +0000 2014
p3668
sg102
I00
sg103
Nsg105
I00
sg106
I01
sg107
I00
ssg108
I00
sg109
g3657
sg110
I13505
sg111
g3658
sg112
g3659
sg113
I00
sg114
I79
sg115
I00
sg116
Nsg117
I234690
sg118
g3661
sg119
I1
sg120
g299
sg121
g3662
sg122
g3663
sg123
I00
sg124
I00
sg125
g3660
sg127
g3664
sg128
g3665
sg129
g3666
sg130
I00
sg131
I00
sg132
I0
sg133
g3667
sg134
Nsg135
g136
(S'\x07\xde\x04\x10\x13,#\x00\x00\x00'
p3669
tp3670
Rp3671
sg140
g3656
sg141
Nsg142
I00
sg143
I01
sg144
I00
sbsg145
Nsg29
L661346364832538624L
sg146
I0
sg147
VTwitter Web Client
p3672
sg129
Ven
p3673
sg150
g3643
sg135
g136
(S'\x07\xdf\x0b\x03\x009\x0f\x00\x00\x00'
p3674
tp3675
Rp3676
sg50
(dp3677
g155
Nsg156
I00
sg157
g3640
sg158
I00
sg159
Nsg56
L661346364832538624L
sg160
I0
sg161
V<a href="http://twitter.com" rel="nofollow">Twitter Web Client</a>
p3678
sg163
I00
sg164
Nsg64
(dp3679
g166
(lp3680
(dp3681
g39
(lp3682
I119
aI124
asg157
VCPRX
p3683
sa(dp3684
g39
(lp3685
I125
aI130
asg157
VPDEX
p3686
sa(dp3687
g39
(lp3688
I131
aI136
asg157
VCTCT
p3689
sasg171
(lp3690
sg173
(lp3691
sg35
(lp3692
(dp3693
g33
Vhttps://t.co/ro7o3SYbd1
p3694
sg39
(lp3695
I95
aI118
asg41
Vhttp://tinyurl.com/o3lgmg3
p3696
sg43
Vtinyurl.com/o3lgmg3
p3697
sassg181
Nsg182
Nsg183
I0
sg68
V661346364832538624
p3698
sg185
I00
sg186
g3655
sg187
Nsg188
Nsg189
I00
sg92
g3673
sg100
VTue Nov 03 00:57:15 +0000 2015
p3699
sg191
Nsg192
Nsg193
(dp3700
g195
Ven
p3701
sg197
Vrecent
p3702
sssg199
g3700
sg200
Nsg201
Nsg31
g3679
sg202
Nsg203
Nsg112
g3698
sg204
I00
sg205
Nsg206
I0
sg207
Nsbag0
(g4
g5
Ntp3703
Rp3704
(dp3705
g9
I00
sg10
Nsg11
I00
sg12
V$GEQU Has Increased Almost 20 TIMES In Value, For Our Subscribers! Huge News: https://t.co/viouXok21i $CPRX $PDEX $CTCT
p3706
sg14
Vhttp://twitter.com
p3707
sg16
I00
sg17
I00
sg18
Nsg19
g0
(g20
g5
Ntp3708
Rp3709
(dp3710
g24
I00
sg25
I00
sg26
I01
sg27
VDDEEF6
p3711
sg29
L3091880403L
sg30
I00
sg31
(dp3712
g45
(dp3713
g35
(lp3714
(dp3715
g33
Vhttp://t.co/d1PvG67hF4
p3716
sg39
(lp3717
I79
aI101
asg41
Vhttp://tinyurl.com/mcsbvzz
p3718
sg43
Vtinyurl.com/mcsbvzz
p3719
sasssg48
Vhttps://pbs.twimg.com/profile_images/576985932299026432/vGRv_VM-_normal.png
p3720
sg50
(dp3721
g52
I00
sg53
I00
sg54
I01
sg55
I00
sg56
L3091880403L
sg57
Vhttps://abs.twimg.com/images/themes/theme1/bg.png
p3722
sg59
I00
sg60
V333333
p3723
sg62
g3720
sg63
g3711
sg64
g3712
sg65
I15272
sg66
VC0DEED
p3724
sg68
V3091880403
p3725
sg70
VC0DEED
p3726
sg72
I71
sg73
I00
sg74
Nsg75
I173961
sg45
VRead our full disclaimer before looking at any of our tweets! Full Disclaimer: http://t.co/d1PvG67hF4
p3727
sg77
I0
sg78
g299
sg80
V0084B4
p3728
sg82
Vhttp://pbs.twimg.com/profile_images/576985932299026432/vGRv_VM-_normal.png
p3729
sg84
I00
sg85
I00
sg88
Vhttp://abs.twimg.com/images/themes/theme1/bg.png
p3730
sg90
VPennyStockingt
p3731
sg92
Ven
p3732
sg94
I00
sg95
I1
sg96
VPenny Stockington
p3733
sg98
I00
sg33
Nsg100
VSun Mar 15 05:57:31 +0000 2015
p3734
sg102
I00
sg103
Nsg105
I00
sg106
I01
sg107
I00
ssg108
I00
sg109
g3723
sg110
I15272
sg111
g3724
sg112
g3725
sg113
I00
sg114
I71
sg115
I00
sg116
Nsg117
I173961
sg118
g3727
sg119
I0
sg120
g299
sg121
g3728
sg122
g3729
sg123
I00
sg124
I00
sg125
g3726
sg127
g3730
sg128
g3731
sg129
g3732
sg130
I00
sg131
I00
sg132
I1
sg133
g3733
sg134
Nsg135
g136
(S'\x07\xdf\x03\x0f\x059\x1f\x00\x00\x00'
p3735
tp3736
Rp3737
sg140
g3722
sg141
Nsg142
I00
sg143
I01
sg144
I00
sbsg145
Nsg29
L661344855226978305L
sg146
I0
sg147
VTwitter Web Client
p3738
sg129
Ven
p3739
sg150
g3709
sg135
g136
(S'\x07\xdf\x0b\x03\x003\x0f\x00\x00\x00'
p3740
tp3741
Rp3742
sg50
(dp3743
g155
Nsg156
I00
sg157
g3706
sg158
I00
sg159
Nsg56
L661344855226978305L
sg160
I0
sg161
V<a href="http://twitter.com" rel="nofollow">Twitter Web Client</a>
p3744
sg163
I00
sg164
Nsg64
(dp3745
g166
(lp3746
(dp3747
g39
(lp3748
I0
aI5
asg157
VGEQU
p3749
sa(dp3750
g39
(lp3751
I102
aI107
asg157
VCPRX
p3752
sa(dp3753
g39
(lp3754
I108
aI113
asg157
VPDEX
p3755
sa(dp3756
g39
(lp3757
I114
aI119
asg157
VCTCT
p3758
sasg171
(lp3759
sg173
(lp3760
sg35
(lp3761
(dp3762
g33
Vhttps://t.co/viouXok21i
p3763
sg39
(lp3764
I78
aI101
asg41
Vhttp://tr.im/abvm6
p3765
sg43
Vtr.im/abvm6
p3766
sassg181
Nsg182
Nsg183
I0
sg68
V661344855226978305
p3767
sg185
I00
sg186
g3721
sg187
Nsg188
Nsg189
I00
sg92
g3739
sg100
VTue Nov 03 00:51:15 +0000 2015
p3768
sg191
Nsg192
Nsg193
(dp3769
g195
Ven
p3770
sg197
Vrecent
p3771
sssg199
g3769
sg200
Nsg201
Nsg31
g3745
sg202
Nsg203
Nsg112
g3767
sg204
I00
sg205
Nsg206
I0
sg207
Nsbag0
(g4
g5
Ntp3772
Rp3773
(dp3774
g9
I00
sg10
Nsg11
I00
sg12
VOur Stock Alerts Have Been Seeing Record Gains! Our New Pick Will Be MASSIVE: https://t.co/DXRm9DTWiK $CPRX $PDEX $CTCT
p3775
sg14
Vhttp://twitter.com
p3776
sg16
I00
sg17
I00
sg18
Nsg19
g0
(g20
g5
Ntp3777
Rp3778
(dp3779
g24
I00
sg25
I00
sg26
I01
sg27
VDDEEF6
p3780
sg29
L3091884801L
sg30
I00
sg31
(dp3781
g45
(dp3782
g35
(lp3783
(dp3784
g33
Vhttp://t.co/d1PvG67hF4
p3785
sg39
(lp3786
I79
aI101
asg41
Vhttp://tinyurl.com/mcsbvzz
p3787
sg43
Vtinyurl.com/mcsbvzz
p3788
sasssg48
Vhttps://pbs.twimg.com/profile_images/576989971883499521/yv0Bp7te_normal.jpeg
p3789
sg50
(dp3790
g52
I00
sg53
I00
sg54
I01
sg55
I00
sg56
L3091884801L
sg57
Vhttps://abs.twimg.com/images/themes/theme1/bg.png
p3791
sg59
I00
sg60
V333333
p3792
sg62
g3789
sg63
g3780
sg64
g3781
sg65
I15267
sg66
VC0DEED
p3793
sg68
V3091884801
p3794
sg70
VC0DEED
p3795
sg72
I65
sg73
I00
sg74
Nsg75
I170509
sg45
VRead our full disclaimer before looking at any of our tweets! Full Disclaimer: http://t.co/d1PvG67hF4
p3796
sg77
I1
sg78
g299
sg80
V0084B4
p3797
sg82
Vhttp://pbs.twimg.com/profile_images/576989971883499521/yv0Bp7te_normal.jpeg
p3798
sg84
I00
sg85
I00
sg88
Vhttp://abs.twimg.com/images/themes/theme1/bg.png
p3799
sg90
VStockDawgzz
p3800
sg92
Ven
p3801
sg94
I00
sg95
I0
sg96
VStock Dawgzz
p3802
sg98
I00
sg33
Nsg100
VSun Mar 15 06:13:17 +0000 2015
p3803
sg102
I00
sg103
Nsg105
I00
sg106
I01
sg107
I00
ssg108
I00
sg109
g3792
sg110
I15267
sg111
g3793
sg112
g3794
sg113
I00
sg114
I65
sg115
I00
sg116
Nsg117
I170509
sg118
g3796
sg119
I1
sg120
g299
sg121
g3797
sg122
g3798
sg123
I00
sg124
I00
sg125
g3795
sg127
g3799
sg128
g3800
sg129
g3801
sg130
I00
sg131
I00
sg132
I0
sg133
g3802
sg134
Nsg135
g136
(S'\x07\xdf\x03\x0f\x06\r\x11\x00\x00\x00'
p3804
tp3805
Rp3806
sg140
g3791
sg141
Nsg142
I00
sg143
I01
sg144
I00
sbsg145
Nsg29
L661333670909902848L
sg146
I0
sg147
VTwitter Web Client
p3807
sg129
Ven
p3808
sg150
g3778
sg135
g136
(S'\x07\xdf\x0b\x03\x00\x060\x00\x00\x00'
p3809
tp3810
Rp3811
sg50
(dp3812
g155
Nsg156
I00
sg157
g3775
sg158
I00
sg159
Nsg56
L661333670909902848L
sg160
I0
sg161
V<a href="http://twitter.com" rel="nofollow">Twitter Web Client</a>
p3813
sg163
I00
sg164
Nsg64
(dp3814
g166
(lp3815
(dp3816
g39
(lp3817
I102
aI107
asg157
VCPRX
p3818
sa(dp3819
g39
(lp3820
I108
aI113
asg157
VPDEX
p3821
sa(dp3822
g39
(lp3823
I114
aI119
asg157
VCTCT
p3824
sasg171
(lp3825
sg173
(lp3826
sg35
(lp3827
(dp3828
g33
Vhttps://t.co/DXRm9DTWiK
p3829
sg39
(lp3830
I78
aI101
asg41
Vhttp://goo.gl/NGTqcj
p3831
sg43
Vgoo.gl/NGTqcj
p3832
sassg181
Nsg182
Nsg183
I0
sg68
V661333670909902848
p3833
sg185
I00
sg186
g3790
sg187
Nsg188
Nsg189
I00
sg92
g3808
sg100
VTue Nov 03 00:06:48 +0000 2015
p3834
sg191
Nsg192
Nsg193
(dp3835
g195
Ven
p3836
sg197
Vrecent
p3837
sssg199
g3835
sg200
Nsg201
Nsg31
g3814
sg202
Nsg203
Nsg112
g3833
sg204
I00
sg205
Nsg206
I0
sg207
Nsbag0
(g4
g5
Ntp3838
Rp3839
(dp3840
g9
I00
sg10
Nsg11
I00
sg12
VRanks #1 with over 80% in alert gains today. Click here https://t.co/9Vnnw3s1D8 .. $PDEX $AGYS $GALT
p3841
sg14
Vhttp://socialadcenter.com
p3842
sg16
I00
sg17
I00
sg18
Nsg19
g0
(g20
g5
Ntp3843
Rp3844
(dp3845
g24
I00
sg25
I00
sg26
I01
sg27
VDDEEF6
p3846
sg29
L3261001351L
sg30
I00
sg31
(dp3847
g33
(dp3848
g35
(lp3849
(dp3850
g33
Vhttp://t.co/8dJZYrRhox
p3851
sg39
(lp3852
I0
aI22
asg41
Vhttp://pennystocksecret.com
p3853
sg43
Vpennystocksecret.com
p3854
sassg45
(dp3855
g35
(lp3856
(dp3857
g33
Vhttp://t.co/UWzH8kOOl9
p3858
sg39
(lp3859
I11
aI33
asg41
Vhttp://PennyStockSecret.com
p3860
sg43
VPennyStockSecret.com
p3861
sasssg48
Vhttps://pbs.twimg.com/profile_images/617517575241531392/vk4GKKpS_normal.jpg
p3862
sg50
(dp3863
g52
I00
sg53
I00
sg54
I01
sg55
I00
sg56
L3261001351L
sg57
Vhttps://abs.twimg.com/images/themes/theme1/bg.png
p3864
sg59
I00
sg60
V333333
p3865
sg62
g3862
sg63
g3846
sg64
g3847
sg65
I5237
sg66
VC0DEED
p3866
sg68
V3261001351
p3867
sg70
VC0DEED
p3868
sg72
I9
sg73
I00
sg74
I-28800
sg75
I17457
sg45
VSign up to http://t.co/UWzH8kOOl9  and get the premiere penny stock newsletter for free! make sure you subscribe today!
p3869
sg77
I12
sg78
VUnited States
p3870
sg80
V0084B4
p3871
sg82
Vhttp://pbs.twimg.com/profile_images/617517575241531392/vk4GKKpS_normal.jpg
p3872
sg84
I00
sg85
I00
sg86
Vhttps://pbs.twimg.com/profile_banners/3261001351/1436062750
p3873
sg88
Vhttp://abs.twimg.com/images/themes/theme1/bg.png
p3874
sg90
Vstockmaster101
p3875
sg92
Ven
p3876
sg94
I00
sg95
I0
sg96
VStockmaster101
p3877
sg98
I00
sg33
Vhttp://t.co/8dJZYrRhox
p3878
sg100
VTue Jun 30 07:41:17 +0000 2015
p3879
sg102
I00
sg103
VPacific Time (US & Canada)
p3880
sg105
I00
sg106
I01
sg107
I00
ssg108
I00
sg109
g3865
sg110
I5237
sg111
g3866
sg112
g3867
sg113
I00
sg114
I9
sg115
I00
sg116
I-28800
sg117
I17457
sg118
g3869
sg119
I12
sg120
g3870
sg121
g3871
sg122
g3872
sg123
I00
sg124
I00
sg125
g3868
sg126
g3873
sg127
g3874
sg128
g3875
sg129
g3876
sg130
I00
sg131
I00
sg132
I0
sg133
g3877
sg134
g3878
sg135
g136
(S'\x07\xdf\x06\x1e\x07)\x11\x00\x00\x00'
p3881
tp3882
Rp3883
sg140
g3864
sg141
g3880
sg142
I00
sg143
I01
sg144
I00
sbsg145
Nsg29
L661192362840854529L
sg146
I0
sg147
VSocial Ad Center
p3884
sg129
Ven
p3885
sg150
g3844
sg135
g136
(S'\x07\xdf\x0b\x02\x0e-\x12\x00\x00\x00'
p3886
tp3887
Rp3888
sg50
(dp3889
g155
Nsg156
I00
sg157
g3841
sg158
I00
sg159
Nsg56
L661192362840854529L
sg160
I0
sg161
V<a href="http://socialadcenter.com" rel="nofollow">Social Ad Center</a>
p3890
sg163
I00
sg164
Nsg64
(dp3891
g166
(lp3892
(dp3893
g39
(lp3894
I83
aI88
asg157
VPDEX
p3895
sa(dp3896
g39
(lp3897
I89
aI94
asg157
VAGYS
p3898
sa(dp3899
g39
(lp3900
I95
aI100
asg157
VGALT
p3901
sasg171
(lp3902
sg173
(lp3903
sg35
(lp3904
(dp3905
g33
Vhttps://t.co/9Vnnw3s1D8
p3906
sg39
(lp3907
I56
aI79
asg41
Vhttp://PennyStockSecret.com
p3908
sg43
VPennyStockSecret.com
p3909
sassg181
Nsg182
Nsg183
I0
sg68
V661192362840854529
p3910
sg185
I00
sg186
g3863
sg187
Nsg188
Nsg189
I00
sg92
g3885
sg100
VMon Nov 02 14:45:18 +0000 2015
p3911
sg191
Nsg192
Nsg193
(dp3912
g195
Ven
p3913
sg197
Vrecent
p3914
sssg199
g3912
sg200
Nsg201
Nsg31
g3891
sg202
Nsg203
Nsg112
g3910
sg204
I00
sg205
Nsg206
I0
sg207
Nsbatp3915
Rp3916
(dp3917
S'count'
p3918
I100
sS'completed_in'
p3919
F0.088
sS'_since_id'
p3920
NsS'refresh_url'
p3921
V?since_id=664442836847362048&q=%24PDEX&include_entities=1
p3922
sS'query'
p3923
V%24PDEX
p3924
sS'_max_id'
p3925
NsS'next_results'
p3926
Nsb.