ccopy_reg
_reconstructor
p0
(ctweepy.models
SearchResults
p1
c__builtin__
list
p2
(lp3
g0
(ctweepy.models
Status
p4
c__builtin__
object
p5
Ntp6
Rp7
(dp8
S'favorited'
p9
I00
sS'contributors'
p10
NsS'truncated'
p11
I00
sS'text'
p12
VAnalysts Set $9.00 Target Price for Sotherly Hotels $SOHO https://t.co/f0hb3LXkWV
p13
sS'source_url'
p14
Vhttp://ifttt.com
p15
sS'possibly_sensitive'
p16
I00
sS'is_quote_status'
p17
I00
sS'in_reply_to_status_id'
p18
NsS'user'
p19
g0
(ctweepy.models
User
p20
g5
Ntp21
Rp22
(dp23
S'follow_request_sent'
p24
I00
sS'has_extended_profile'
p25
I00
sS'profile_use_background_image'
p26
I01
sS'profile_sidebar_fill_color'
p27
VDDEEF6
p28
sS'id'
p29
L2525892205L
sS'verified'
p30
I00
sS'entities'
p31
(dp32
Vurl
p33
(dp34
Vurls
p35
(lp36
(dp37
g33
Vhttp://t.co/oT0s8pX8T2
p38
sVindices
p39
(lp40
I0
aI22
asVexpanded_url
p41
Vhttp://www.intercooleronline.com
p42
sVdisplay_url
p43
Vintercooleronline.com
p44
sassVdescription
p45
(dp46
g35
(lp47
sssS'profile_image_url_https'
p48
Vhttps://pbs.twimg.com/profile_images/471038514675474432/wc-6YgXp_normal.jpeg
p49
sS'_json'
p50
(dp51
Vfollow_request_sent
p52
I00
sVhas_extended_profile
p53
I00
sVprofile_use_background_image
p54
I01
sVdefault_profile_image
p55
I00
sVid
p56
L2525892205L
sVprofile_background_image_url_https
p57
Vhttps://abs.twimg.com/images/themes/theme1/bg.png
p58
sVverified
p59
I00
sVprofile_text_color
p60
V333333
p61
sVprofile_image_url_https
p62
g49
sVprofile_sidebar_fill_color
p63
g28
sVentities
p64
g32
sVfollowers_count
p65
I414
sVprofile_sidebar_border_color
p66
VC0DEED
p67
sVid_str
p68
V2525892205
p69
sVprofile_background_color
p70
VC0DEED
p71
sVlisted_count
p72
I22
sVis_translation_enabled
p73
I00
sVutc_offset
p74
NsVstatuses_count
p75
I117976
sg45
V
p76
sVfriends_count
p77
I6
sVlocation
p78
VFlorida
p79
sVprofile_link_color
p80
V0084B4
p81
sVprofile_image_url
p82
Vhttp://pbs.twimg.com/profile_images/471038514675474432/wc-6YgXp_normal.jpeg
p83
sVfollowing
p84
I00
sVgeo_enabled
p85
I00
sVprofile_banner_url
p86
Vhttps://pbs.twimg.com/profile_banners/2525892205/1401139391
p87
sVprofile_background_image_url
p88
Vhttp://abs.twimg.com/images/themes/theme1/bg.png
p89
sVscreen_name
p90
Vintercooleronli
p91
sVlang
p92
Ven
p93
sVprofile_background_tile
p94
I00
sVfavourites_count
p95
I0
sVname
p96
VInterCooler
p97
sVnotifications
p98
I00
sg33
Vhttp://t.co/oT0s8pX8T2
p99
sVcreated_at
p100
VMon May 26 21:20:18 +0000 2014
p101
sVcontributors_enabled
p102
I00
sVtime_zone
p103
NsVprotected
p104
I00
sVdefault_profile
p105
I01
sVis_translator
p106
I00
ssS'contributors_enabled'
p107
I00
sS'profile_text_color'
p108
g61
sS'followers_count'
p109
I414
sS'profile_sidebar_border_color'
p110
g67
sS'id_str'
p111
g69
sS'default_profile_image'
p112
I00
sS'listed_count'
p113
I22
sS'is_translation_enabled'
p114
I00
sS'utc_offset'
p115
NsS'statuses_count'
p116
I117976
sS'description'
p117
g76
sS'friends_count'
p118
I6
sS'location'
p119
g79
sS'profile_link_color'
p120
g81
sS'profile_image_url'
p121
g83
sS'notifications'
p122
I00
sS'geo_enabled'
p123
I00
sS'profile_background_color'
p124
g71
sS'profile_banner_url'
p125
g87
sS'profile_background_image_url'
p126
g89
sS'screen_name'
p127
g91
sS'lang'
p128
g93
sS'following'
p129
I00
sS'profile_background_tile'
p130
I00
sS'favourites_count'
p131
I0
sS'name'
p132
g97
sS'url'
p133
g99
sS'created_at'
p134
cdatetime
datetime
p135
(S'\x07\xde\x05\x1a\x15\x14\x12\x00\x00\x00'
p136
tp137
Rp138
sS'profile_background_image_url_https'
p139
g58
sS'time_zone'
p140
NsS'protected'
p141
I00
sS'default_profile'
p142
I01
sS'is_translator'
p143
I00
sbsS'geo'
p144
Nsg29
L664432319269314560L
sS'favorite_count'
p145
I0
sS'source'
p146
VIFTTT
p147
sg128
Ven
p148
sS'author'
p149
g22
sg134
g135
(S'\x07\xdf\x0b\x0b\r\x13,\x00\x00\x00'
p150
tp151
Rp152
sg50
(dp153
Vcontributors
p154
NsVtruncated
p155
I00
sVtext
p156
g13
sVis_quote_status
p157
I00
sVin_reply_to_status_id
p158
Nsg56
L664432319269314560L
sVfavorite_count
p159
I0
sVsource
p160
V<a href="http://ifttt.com" rel="nofollow">IFTTT</a>
p161
sVretweeted
p162
I00
sVcoordinates
p163
Nsg64
(dp164
Vsymbols
p165
(lp166
(dp167
g39
(lp168
I52
aI57
asg156
VSOHO
p169
sasVuser_mentions
p170
(lp171
sVhashtags
p172
(lp173
sg35
(lp174
(dp175
g33
Vhttps://t.co/f0hb3LXkWV
p176
sg39
(lp177
I58
aI81
asg41
Vhttp://ift.tt/1kMqBit
p178
sg43
Vift.tt/1kMqBit
p179
sassVin_reply_to_screen_name
p180
NsVin_reply_to_user_id
p181
NsVretweet_count
p182
I0
sg68
V664432319269314560
p183
sVfavorited
p184
I00
sVuser
p185
g51
sVgeo
p186
NsVin_reply_to_user_id_str
p187
NsVpossibly_sensitive
p188
I00
sg92
g148
sg100
VWed Nov 11 13:19:44 +0000 2015
p189
sVin_reply_to_status_id_str
p190
NsVplace
p191
NsVmetadata
p192
(dp193
Viso_language_code
p194
Ven
p195
sVresult_type
p196
Vrecent
p197
sssS'metadata'
p198
g193
sS'coordinates'
p199
NsS'in_reply_to_user_id_str'
p200
Nsg31
g164
sS'in_reply_to_status_id_str'
p201
NsS'in_reply_to_screen_name'
p202
Nsg111
g183
sS'retweeted'
p203
I00
sS'place'
p204
NsS'retweet_count'
p205
I0
sS'in_reply_to_user_id'
p206
Nsbag0
(g4
g5
Ntp207
Rp208
(dp209
g9
I00
sg10
Nsg11
I00
sg12
VTop % Gainers Since Open: $SOHO 16%, $ACI 13%, $PTCT 12%, $BBSI 11%, $CLV 10%, $XONE 8%, $HOTR 7%, $WPCS $LGND $SCLN $KPTI $RAX $JAZZ $SNAK
p210
sg14
Vhttp://morningblue.ua
p211
sg17
I00
sg18
Nsg19
g0
(g20
g5
Ntp212
Rp213
(dp214
g24
I00
sg25
I00
sg26
I01
sg27
VDDEEF6
p215
sg29
L3436692077L
sg30
I00
sg31
(dp216
g45
(dp217
g35
(lp218
sssg48
Vhttps://pbs.twimg.com/profile_images/635870554763984896/3vCENFGo_normal.jpg
p219
sg50
(dp220
g52
I00
sg53
I00
sg54
I01
sg55
I00
sg56
L3436692077L
sg57
Vhttps://abs.twimg.com/images/themes/theme1/bg.png
p221
sg59
I00
sg60
V333333
p222
sg62
g219
sg63
g215
sg64
g216
sg65
I3
sg66
VC0DEED
p223
sg68
V3436692077
p224
sg70
VC0DEED
p225
sg72
I3
sg73
I00
sg74
Nsg75
I69
sg45
g76
sg77
I18
sg78
VUSA
p226
sg80
V0084B4
p227
sg82
Vhttp://pbs.twimg.com/profile_images/635870554763984896/3vCENFGo_normal.jpg
p228
sg84
I00
sg85
I00
sg86
Vhttps://pbs.twimg.com/profile_banners/3436692077/1440438312
p229
sg88
Vhttp://abs.twimg.com/images/themes/theme1/bg.png
p230
sg90
Vloriannbnj28
p231
sg92
Ven
p232
sg94
I00
sg95
I0
sg96
Vloriann kahn
p233
sg98
I00
sg33
Nsg100
VSun Aug 23 13:11:59 +0000 2015
p234
sg102
I00
sg103
Nsg104
I00
sg105
I01
sg106
I00
ssg107
I00
sg108
g222
sg109
I3
sg110
g223
sg111
g224
sg112
I00
sg113
I3
sg114
I00
sg115
Nsg116
I69
sg117
g76
sg118
I18
sg119
g226
sg120
g227
sg121
g228
sg122
I00
sg123
I00
sg124
g225
sg125
g229
sg126
g230
sg127
g231
sg128
g232
sg129
I00
sg130
I00
sg131
I0
sg132
g233
sg133
Nsg134
g135
(S'\x07\xdf\x08\x17\r\x0b;\x00\x00\x00'
p235
tp236
Rp237
sg139
g221
sg140
Nsg141
I00
sg142
I01
sg143
I00
sbsg144
Nsg29
L664403461195329536L
sg145
I0
sg146
VMorningBlue
p238
sg128
Vin
p239
sg149
g213
sg134
g135
(S'\x07\xdf\x0b\x0b\x0b\x19\x03\x00\x00\x00'
p240
tp241
Rp242
sg50
(dp243
g154
Nsg155
I00
sg156
g210
sg157
I00
sg158
Nsg56
L664403461195329536L
sg159
I0
sg160
V<a href="http://morningblue.ua" rel="nofollow">MorningBlue</a>
p244
sg162
I00
sg163
Nsg64
(dp245
g165
(lp246
(dp247
g39
(lp248
I26
aI31
asg156
VSOHO
p249
sa(dp250
g39
(lp251
I37
aI41
asg156
VACI
p252
sa(dp253
g39
(lp254
I47
aI52
asg156
VPTCT
p255
sa(dp256
g39
(lp257
I58
aI63
asg156
VBBSI
p258
sa(dp259
g39
(lp260
I69
aI73
asg156
VCLV
p261
sa(dp262
g39
(lp263
I79
aI84
asg156
VXONE
p264
sa(dp265
g39
(lp266
I89
aI94
asg156
VHOTR
p267
sa(dp268
g39
(lp269
I99
aI104
asg156
VWPCS
p270
sa(dp271
g39
(lp272
I105
aI110
asg156
VLGND
p273
sa(dp274
g39
(lp275
I111
aI116
asg156
VSCLN
p276
sa(dp277
g39
(lp278
I117
aI122
asg156
VKPTI
p279
sa(dp280
g39
(lp281
I123
aI127
asg156
VRAX
p282
sa(dp283
g39
(lp284
I128
aI133
asg156
VJAZZ
p285
sa(dp286
g39
(lp287
I134
aI139
asg156
VSNAK
p288
sasg170
(lp289
sg172
(lp290
sg35
(lp291
ssg180
Nsg181
Nsg182
I0
sg68
V664403461195329536
p292
sg184
I00
sg185
g220
sg186
Nsg187
Nsg92
g239
sg100
VWed Nov 11 11:25:03 +0000 2015
p293
sg190
Nsg191
Nsg192
(dp294
g194
Vin
p295
sg196
Vrecent
p296
sssg198
g294
sg199
Nsg200
Nsg31
g245
sg201
Nsg202
Nsg111
g292
sg203
I00
sg204
Nsg205
I0
sg206
Nsbag0
(g4
g5
Ntp297
Rp298
(dp299
g9
I00
sg10
Nsg11
I00
sg12
V$SOHO:\u000a\u000aSotherly Hotels Inc (SOHO) Issues FY15 Earnings Guidance:\u000a\u000ahttps://t.co/aYEUzU4Fnk
p300
sg14
Vhttp://www.stocknewswires.com
p301
sg16
I00
sg17
I00
sg18
Nsg19
g0
(g20
g5
Ntp302
Rp303
(dp304
g24
I00
sg25
I00
sg26
I01
sg27
VE3E2DE
p305
sg29
L2344619544L
sg30
I00
sg31
(dp306
g45
(dp307
g35
(lp308
sssg48
Vhttps://pbs.twimg.com/profile_images/562292381764952064/mVtp0UmJ_normal.jpeg
p309
sg50
(dp310
g52
I00
sg53
I00
sg54
I01
sg55
I00
sg56
L2344619544L
sg57
Vhttps://abs.twimg.com/images/themes/theme3/bg.gif
p311
sg59
I00
sg60
V634047
p312
sg62
g309
sg63
g305
sg64
g306
sg65
I516
sg66
VD3D2CF
p313
sg68
V2344619544
p314
sg70
VEDECE9
p315
sg72
I85
sg73
I01
sg74
I-18000
sg75
I182017
sg45
VNews about Stocks
p316
sg77
I0
sg78
VU.S.
p317
sg80
V088253
p318
sg82
Vhttp://pbs.twimg.com/profile_images/562292381764952064/mVtp0UmJ_normal.jpeg
p319
sg84
I00
sg85
I00
sg88
Vhttp://abs.twimg.com/images/themes/theme3/bg.gif
p320
sg90
VNewsToDesk
p321
sg92
Ven
p322
sg94
I00
sg95
I0
sg96
VBreakingStocksNews
p323
sg98
I00
sg33
Nsg100
VSat Feb 15 05:49:10 +0000 2014
p324
sg102
I00
sg103
VEastern Time (US & Canada)
p325
sg104
I00
sg105
I00
sg106
I00
ssg107
I00
sg108
g312
sg109
I516
sg110
g313
sg111
g314
sg112
I00
sg113
I85
sg114
I01
sg115
I-18000
sg116
I182017
sg117
g316
sg118
I0
sg119
g317
sg120
g318
sg121
g319
sg122
I00
sg123
I00
sg124
g315
sg126
g320
sg127
g321
sg128
g322
sg129
I00
sg130
I00
sg131
I0
sg132
g323
sg133
Nsg134
g135
(S'\x07\xde\x02\x0f\x051\n\x00\x00\x00'
p326
tp327
Rp328
sg139
g311
sg140
g325
sg141
I00
sg142
I00
sg143
I00
sbsg144
Nsg29
L664161656805699592L
sg145
I0
sg146
VStockNewsWires
p329
sg128
Ven
p330
sg149
g303
sg134
g135
(S'\x07\xdf\x0b\n\x13\x18\r\x00\x00\x00'
p331
tp332
Rp333
sg50
(dp334
g154
Nsg155
I00
sg156
V$SOHO:\u000a\u000aSotherly Hotels Inc (SOHO) Issues FY15 Earnings Guidance:\u000a\u000ahttps://t.co/aYEUzU4Fnk
p335
sg157
I00
sg158
Nsg56
L664161656805699592L
sg159
I0
sg160
V<a href="http://www.stocknewswires.com" rel="nofollow">StockNewsWires</a>
p336
sg162
I00
sg163
Nsg64
(dp337
g165
(lp338
(dp339
g39
(lp340
I0
aI5
asg156
VSOHO
p341
sasg170
(lp342
sg172
(lp343
sg35
(lp344
(dp345
g33
Vhttps://t.co/aYEUzU4Fnk
p346
sg39
(lp347
I67
aI90
asg41
Vhttp://StockNewsHour.com/soho-sotherly-hotels-inc-soho-issues-fy15-earnings-guidance/
p348
sg43
VStockNewsHour.com/soho-sotherly-\u2026
p349
sassg180
Nsg181
Nsg182
I0
sg68
V664161656805699592
p350
sg184
I00
sg185
g310
sg186
Nsg187
Nsg188
I00
sg92
g330
sg100
VTue Nov 10 19:24:13 +0000 2015
p351
sg190
Nsg191
Nsg192
(dp352
g194
Ven
p353
sg196
Vrecent
p354
sssg198
g352
sg199
Nsg200
Nsg31
g337
sg201
Nsg202
Nsg111
g350
sg203
I00
sg204
Nsg205
I0
sg206
Nsbag0
(g4
g5
Ntp355
Rp356
(dp357
g9
I00
sg10
Nsg11
I00
sg12
VSotherly Hotels Inc updates FY15 guidance to $1.04-1.08 EPS  &amp; revenue guidance to $136.4-142.7 million.  https://t.co/isTrD2uxIh $SOHO #S\u2026
p358
sg14
Vhttp://ifttt.com
p359
sg16
I00
sg17
I00
sg18
Nsg19
g0
(g20
g5
Ntp360
Rp361
(dp362
g24
I00
sg25
I00
sg26
I01
sg27
VE8E8E8
p363
sg29
I52210566
sg30
I00
sg31
(dp364
g33
(dp365
g35
(lp366
(dp367
g33
Vhttp://t.co/odTc3pvcAe
p368
sg39
(lp369
I0
aI22
asg41
Vhttp://www.americanconsumernews.com/
p370
sg43
Vamericanconsumernews.com
p371
sassg45
(dp372
g35
(lp373
sssg48
Vhttps://pbs.twimg.com/profile_images/289298274/text_normal.jpg
p374
sg50
(dp375
g52
I00
sg53
I00
sg54
I01
sg55
I00
sg56
I52210566
sg57
Vhttps://pbs.twimg.com/profile_background_images/20558354/back.jpg
p376
sg59
I00
sg60
V333333
p377
sg62
g374
sg63
g363
sg64
g364
sg65
I1114
sg66
VADADAD
p378
sg68
V52210566
p379
sg70
V9AE4E8
p380
sg72
I96
sg73
I00
sg74
I-21600
sg75
I580839
sg45
VPersonal Finance and Consumer Tips
p381
sg77
I1412
sg78
VSioux Falls, SD
p382
sg80
V0084B4
p383
sg82
Vhttp://pbs.twimg.com/profile_images/289298274/text_normal.jpg
p384
sg84
I00
sg85
I00
sg88
Vhttp://pbs.twimg.com/profile_background_images/20558354/back.jpg
p385
sg90
VAmConsumerNews
p386
sg92
Ven
p387
sg94
I00
sg95
I0
sg96
VConsumer News
p388
sg98
I00
sg33
Vhttp://t.co/odTc3pvcAe
p389
sg100
VMon Jun 29 22:22:08 +0000 2009
p390
sg102
I00
sg103
VCentral Time (US & Canada)
p391
sg104
I00
sg105
I00
sg106
I00
ssg107
I00
sg108
g377
sg109
I1114
sg110
g378
sg111
g379
sg112
I00
sg113
I96
sg114
I00
sg115
I-21600
sg116
I580839
sg117
g381
sg118
I1412
sg119
g382
sg120
g383
sg121
g384
sg122
I00
sg123
I00
sg124
g380
sg126
g385
sg127
g386
sg128
g387
sg129
I00
sg130
I00
sg131
I0
sg132
g388
sg133
g389
sg134
g135
(S'\x07\xd9\x06\x1d\x16\x16\x08\x00\x00\x00'
p392
tp393
Rp394
sg139
g376
sg140
g391
sg141
I00
sg142
I00
sg143
I00
sbsg144
Nsg29
L664157177645518848L
sg145
I0
sg146
VIFTTT
p395
sg128
Ven
p396
sg149
g361
sg134
g135
(S'\x07\xdf\x0b\n\x13\x06\x19\x00\x00\x00'
p397
tp398
Rp399
sg50
(dp400
g154
Nsg155
I00
sg156
g358
sg157
I00
sg158
Nsg56
L664157177645518848L
sg159
I0
sg160
V<a href="http://ifttt.com" rel="nofollow">IFTTT</a>
p401
sg162
I00
sg163
Nsg64
(dp402
g165
(lp403
(dp404
g39
(lp405
I134
aI139
asg156
VSOHO
p406
sasg170
(lp407
sg172
(lp408
(dp409
g39
(lp410
I140
aI142
asg156
VS
p411
sasg35
(lp412
(dp413
g33
Vhttps://t.co/isTrD2uxIh
p414
sg39
(lp415
I110
aI133
asg41
Vhttp://ift.tt/1Npzgi5
p416
sg43
Vift.tt/1Npzgi5
p417
sassg180
Nsg181
Nsg182
I0
sg68
V664157177645518848
p418
sg184
I00
sg185
g375
sg186
Nsg187
Nsg188
I00
sg92
g396
sg100
VTue Nov 10 19:06:25 +0000 2015
p419
sg190
Nsg191
Nsg192
(dp420
g194
Ven
p421
sg196
Vrecent
p422
sssg198
g420
sg199
Nsg200
Nsg31
g402
sg201
Nsg202
Nsg111
g418
sg203
I00
sg204
Nsg205
I0
sg206
Nsbag0
(g4
g5
Ntp423
Rp424
(dp425
g9
I00
sg10
Nsg11
I00
sg12
VSotherly Hotels Inc updates FY15 guidance to $1.04-1.08 EPS  &amp; revenue guidance to $136.4-142.7 million.  https://t.co/hYvw1yBkdq $SOHO #S\u2026
p426
sg14
Vhttp://ifttt.com
p427
sg16
I00
sg17
I00
sg18
Nsg19
g0
(g20
g5
Ntp428
Rp429
(dp430
g24
I00
sg25
I00
sg26
I01
sg27
VCCDAFF
p431
sg29
I61661638
sg30
I00
sg31
(dp432
g33
(dp433
g35
(lp434
(dp435
g33
Vhttp://t.co/7EZswS49Q1
p436
sg39
(lp437
I0
aI22
asg41
Vhttp://www.americanbankingnews.com/
p438
sg43
Vamericanbankingnews.com
p439
sassg45
(dp440
g35
(lp441
sssg48
Vhttps://pbs.twimg.com/profile_images/541252987/Image5_normal.jpg
p442
sg50
(dp443
g52
I00
sg53
I00
sg54
I01
sg55
I00
sg56
I61661638
sg57
Vhttps://pbs.twimg.com/profile_background_images/55647305/background.png
p444
sg59
I00
sg60
V141414
p445
sg62
g442
sg63
g431
sg64
g432
sg65
I5557
sg66
VABB1D9
p446
sg68
V61661638
p447
sg70
V000000
p448
sg72
I469
sg73
I00
sg74
I-21600
sg75
I693975
sg45
VBanks, Credit Unions & Financial Institutions
p449
sg77
I2307
sg78
VSioux Falls, SD
p450
sg80
VA60000
p451
sg82
Vhttp://pbs.twimg.com/profile_images/541252987/Image5_normal.jpg
p452
sg84
I00
sg85
I00
sg88
Vhttp://pbs.twimg.com/profile_background_images/55647305/background.png
p453
sg90
VAmericanBanking
p454
sg92
Ven
p455
sg94
I01
sg95
I0
sg96
VUS Banking News
p456
sg98
I00
sg33
Vhttp://t.co/7EZswS49Q1
p457
sg100
VFri Jul 31 01:58:33 +0000 2009
p458
sg102
I00
sg103
VCentral Time (US & Canada)
p459
sg104
I00
sg105
I00
sg106
I00
ssg107
I00
sg108
g445
sg109
I5557
sg110
g446
sg111
g447
sg112
I00
sg113
I469
sg114
I00
sg115
I-21600
sg116
I693975
sg117
g449
sg118
I2307
sg119
g450
sg120
g451
sg121
g452
sg122
I00
sg123
I00
sg124
g448
sg126
g453
sg127
g454
sg128
g455
sg129
I00
sg130
I01
sg131
I0
sg132
g456
sg133
g457
sg134
g135
(S'\x07\xd9\x07\x1f\x01:!\x00\x00\x00'
p460
tp461
Rp462
sg139
g444
sg140
g459
sg141
I00
sg142
I00
sg143
I00
sbsg144
Nsg29
L664157136226791424L
sg145
I0
sg146
VIFTTT
p463
sg128
Ven
p464
sg149
g429
sg134
g135
(S'\x07\xdf\x0b\n\x13\x06\x0f\x00\x00\x00'
p465
tp466
Rp467
sg50
(dp468
g154
Nsg155
I00
sg156
g426
sg157
I00
sg158
Nsg56
L664157136226791424L
sg159
I0
sg160
V<a href="http://ifttt.com" rel="nofollow">IFTTT</a>
p469
sg162
I00
sg163
Nsg64
(dp470
g165
(lp471
(dp472
g39
(lp473
I134
aI139
asg156
VSOHO
p474
sasg170
(lp475
sg172
(lp476
(dp477
g39
(lp478
I140
aI142
asg156
g411
sasg35
(lp479
(dp480
g33
Vhttps://t.co/hYvw1yBkdq
p481
sg39
(lp482
I110
aI133
asg41
Vhttp://ift.tt/1Npzgi5
p483
sg43
Vift.tt/1Npzgi5
p484
sassg180
Nsg181
Nsg182
I0
sg68
V664157136226791424
p485
sg184
I00
sg185
g443
sg186
Nsg187
Nsg188
I00
sg92
g464
sg100
VTue Nov 10 19:06:15 +0000 2015
p486
sg190
Nsg191
Nsg192
(dp487
g194
Ven
p488
sg196
Vrecent
p489
sssg198
g487
sg199
Nsg200
Nsg31
g470
sg201
Nsg202
Nsg111
g485
sg203
I00
sg204
Nsg205
I0
sg206
Nsbag0
(g4
g5
Ntp490
Rp491
(dp492
g9
I00
sg10
Nsg11
I00
sg12
V$SOHO is rated BUY, 71.0% upside by Wall Street analysts based on average ratings/targets https://t.co/pPv1aiqovS https://t.co/CaHWVBCovt
p493
sg14
Vhttp://investwithconf.blogspot.com
p494
sg16
I00
sg17
I00
sg18
Nsg19
g0
(g20
g5
Ntp495
Rp496
(dp497
g24
I00
sg25
I00
sg26
I01
sg27
VF6FFD1
p498
sg29
L2344623210L
sg30
I00
sg31
(dp499
g45
(dp500
g35
(lp501
sssg48
Vhttps://pbs.twimg.com/profile_images/597618707721035778/xao5eh5P_normal.jpg
p502
sg50
(dp503
g52
I00
sg53
I00
sg54
I01
sg55
I00
sg56
L2344623210L
sg57
Vhttps://abs.twimg.com/images/themes/theme19/bg.gif
p504
sg59
I00
sg60
V333333
p505
sg62
g502
sg63
g498
sg64
g499
sg65
I256
sg66
VFFF8AD
p506
sg68
V2344623210
p507
sg70
VFFF04D
p508
sg72
I16
sg73
I00
sg74
I-18000
sg75
I67446
sg45
g76
sg77
I0
sg78
g76
sg80
V0099CC
p509
sg82
Vhttp://pbs.twimg.com/profile_images/597618707721035778/xao5eh5P_normal.jpg
p510
sg84
I00
sg85
I00
sg88
Vhttp://abs.twimg.com/images/themes/theme19/bg.gif
p511
sg90
VInvestWithConf
p512
sg92
Ven
p513
sg94
I00
sg95
I0
sg96
VInvestWithConf
p514
sg98
I00
sg33
Nsg100
VSat Feb 15 05:52:28 +0000 2014
p515
sg102
I00
sg103
VEastern Time (US & Canada)
p516
sg104
I00
sg105
I00
sg106
I00
ssg107
I00
sg108
g505
sg109
I256
sg110
g506
sg111
g507
sg112
I00
sg113
I16
sg114
I00
sg115
I-18000
sg116
I67446
sg117
g76
sg118
I0
sg119
g76
sg120
g509
sg121
g510
sg122
I00
sg123
I00
sg124
g508
sg126
g511
sg127
g512
sg128
g513
sg129
I00
sg130
I00
sg131
I0
sg132
g514
sg133
Nsg134
g135
(S'\x07\xde\x02\x0f\x054\x1c\x00\x00\x00'
p517
tp518
Rp519
sg139
g504
sg140
g516
sg141
I00
sg142
I00
sg143
I00
sbsg144
Nsg29
L664151799310508032L
sg145
I1
sg146
VIWCE
p520
sg128
Ven
p521
sg149
g496
sg134
g135
(S'\x07\xdf\x0b\n\x12-\x02\x00\x00\x00'
p522
tp523
Rp524
sg50
(dp525
g154
Nsg155
I00
sg156
g493
sg157
I00
sg158
Nsg56
L664151799310508032L
sg159
I1
sg160
V<a href="http://investwithconf.blogspot.com" rel="nofollow">IWCE</a>
p526
sg162
I00
sg163
Nsg64
(dp527
g165
(lp528
(dp529
g39
(lp530
I0
aI5
asg156
VSOHO
p531
sasg170
(lp532
sg172
(lp533
sg35
(lp534
(dp535
g33
Vhttps://t.co/pPv1aiqovS
p536
sg39
(lp537
I90
aI113
asg41
Vhttp://manyratings.com/SOHO
p538
sg43
Vmanyratings.com/SOHO
p539
sasVmedia
p540
(lp541
(dp542
g41
Vhttp://twitter.com/InvestWithConf/status/664151799310508032/photo/1
p543
sg43
Vpic.twitter.com/CaHWVBCovt
p544
sg33
Vhttps://t.co/CaHWVBCovt
p545
sVmedia_url_https
p546
Vhttps://pbs.twimg.com/media/CTeKiuCW4AEeAdZ.jpg
p547
sg68
V664151799138541569
p548
sVsizes
p549
(dp550
Vlarge
p551
(dp552
Vh
p553
I4
sVresize
p554
Vfit
p555
sVw
p556
I4
ssVsmall
p557
(dp558
g553
I4
sg554
Vfit
p559
sg556
I4
ssVmedium
p560
(dp561
g553
I4
sg554
Vfit
p562
sg556
I4
ssVthumb
p563
(dp564
g553
I4
sg554
Vcrop
p565
sg556
I4
sssg39
(lp566
I114
aI137
asVtype
p567
Vphoto
p568
sg56
L664151799138541569L
sVmedia_url
p569
Vhttp://pbs.twimg.com/media/CTeKiuCW4AEeAdZ.jpg
p570
sassg180
Nsg181
Nsg182
I0
sg68
V664151799310508032
p571
sg184
I00
sg185
g503
sg186
Nsg187
Nsg188
I00
sg92
g521
sg100
VTue Nov 10 18:45:02 +0000 2015
p572
sg190
Nsg191
Nsg192
(dp573
g194
Ven
p574
sg196
Vrecent
p575
sssg198
g573
sg199
Nsg200
Nsg31
g527
sg201
Nsg202
Nsg111
g571
sg203
I00
sg204
Nsg205
I0
sg206
Nsbag0
(g4
g5
Ntp576
Rp577
(dp578
g9
I00
sg10
Nsg11
I00
sg12
V$SOHO Earnings result is out. Check out next day hist price reaction, EPS &amp; Revenue Surprise. https://t.co/WERdZO9Lmz
p579
sg14
Vhttp://www.hootsuite.com
p580
sg16
I00
sg17
I00
sg18
Nsg19
g0
(g20
g5
Ntp581
Rp582
(dp583
g24
I00
sg25
I00
sg26
I01
sg27
VDDEEF6
p584
sg29
L2683803193L
sg30
I00
sg31
(dp585
g33
(dp586
g35
(lp587
(dp588
g33
Vhttp://t.co/TkVoSXCWAo
p589
sg39
(lp590
I0
aI22
asg41
Vhttp://StocksEarning.com
p591
sg43
VStocksEarning.com
p592
sassg45
(dp593
g35
(lp594
sssg48
Vhttps://pbs.twimg.com/profile_images/493963538138804226/wKa0JIgx_normal.jpeg
p595
sg50
(dp596
g52
I00
sg53
I00
sg54
I01
sg55
I00
sg56
L2683803193L
sg57
Vhttps://abs.twimg.com/images/themes/theme1/bg.png
p597
sg59
I00
sg60
V333333
p598
sg62
g595
sg63
g584
sg64
g585
sg65
I406
sg66
VC0DEED
p599
sg68
V2683803193
p600
sg70
VC0DEED
p601
sg72
I29
sg73
I00
sg74
Nsg75
I38513
sg45
VFinancial services website dedicated to provide the research on Stocks Earnings by using our proprietary indicators. Do your own research. Tweets not advice.
p602
sg77
I100
sg78
VNew York, NY
p603
sg80
V0084B4
p604
sg82
Vhttp://pbs.twimg.com/profile_images/493963538138804226/wKa0JIgx_normal.jpeg
p605
sg84
I00
sg85
I00
sg88
Vhttp://abs.twimg.com/images/themes/theme1/bg.png
p606
sg90
VStocksEarnings
p607
sg92
Ven
p608
sg94
I00
sg95
I6
sg96
VStockEarnings.com
p609
sg98
I00
sg33
Vhttp://t.co/TkVoSXCWAo
p610
sg100
VSun Jul 27 01:23:04 +0000 2014
p611
sg102
I00
sg103
Nsg104
I00
sg105
I01
sg106
I00
ssg107
I00
sg108
g598
sg109
I406
sg110
g599
sg111
g600
sg112
I00
sg113
I29
sg114
I00
sg115
Nsg116
I38513
sg117
g602
sg118
I100
sg119
g603
sg120
g604
sg121
g605
sg122
I00
sg123
I00
sg124
g601
sg126
g606
sg127
g607
sg128
g608
sg129
I00
sg130
I00
sg131
I6
sg132
g609
sg133
g610
sg134
g135
(S'\x07\xde\x07\x1b\x01\x17\x04\x00\x00\x00'
p612
tp613
Rp614
sg139
g597
sg140
Nsg141
I00
sg142
I01
sg143
I00
sbsg144
Nsg29
L664134256378159104L
sg145
I0
sg146
VHootsuite
p615
sg128
Ven
p616
sg149
g582
sg134
g135
(S'\x07\xdf\x0b\n\x11#\x14\x00\x00\x00'
p617
tp618
Rp619
sg50
(dp620
g154
Nsg155
I00
sg156
g579
sg157
I00
sg158
Nsg56
L664134256378159104L
sg159
I0
sg160
V<a href="http://www.hootsuite.com" rel="nofollow">Hootsuite</a>
p621
sg162
I00
sg163
Nsg64
(dp622
g165
(lp623
(dp624
g39
(lp625
I0
aI5
asg156
VSOHO
p626
sasg170
(lp627
sg172
(lp628
sg35
(lp629
(dp630
g33
Vhttps://t.co/WERdZO9Lmz
p631
sg39
(lp632
I98
aI121
asg41
Vhttp://ow.ly/Utl2h
p633
sg43
Vow.ly/Utl2h
p634
sassg180
Nsg181
Nsg182
I0
sg68
V664134256378159104
p635
sg184
I00
sg185
g596
sg186
Nsg187
Nsg188
I00
sg92
g616
sg100
VTue Nov 10 17:35:20 +0000 2015
p636
sg190
Nsg191
Nsg192
(dp637
g194
Ven
p638
sg196
Vrecent
p639
sssg198
g637
sg199
Nsg200
Nsg31
g622
sg201
Nsg202
Nsg111
g635
sg203
I00
sg204
Nsg205
I0
sg206
Nsbag0
(g4
g5
Ntp640
Rp641
(dp642
g9
I00
sg10
Nsg11
I00
sg12
V$SOHO Sotherly Hotels Inc. Reports Financial Results for the Third Quarter 2015 https://t.co/pMEa79ftqK
p643
sg14
Vhttp://www.myallies.com
p644
sg16
I00
sg17
I00
sg18
Nsg19
g0
(g20
g5
Ntp645
Rp646
(dp647
g24
I00
sg25
I00
sg26
I00
sg27
V000000
p648
sg29
L2397975692L
sg30
I00
sg31
(dp649
g33
(dp650
g35
(lp651
(dp652
g33
Vhttps://t.co/CXkUO1PIZA
p653
sg39
(lp654
I0
aI23
asg41
Vhttps://play.google.com/store/apps/details?id=com.myallies.apps.trading
p655
sg43
Vplay.google.com/store/apps/det\u2026
p656
sassg45
(dp657
g35
(lp658
(dp659
g33
Vhttps://t.co/CXkUO1PIZA
p660
sg39
(lp661
I124
aI147
asg41
Vhttps://play.google.com/store/apps/details?id=com.myallies.apps.trading
p662
sg43
Vplay.google.com/store/apps/det\u2026
p663
sasssg48
Vhttps://pbs.twimg.com/profile_images/577892873095401473/dP2JPlyp_normal.png
p664
sg50
(dp665
g52
I00
sg53
I00
sg54
I00
sg55
I00
sg56
L2397975692L
sg57
Vhttps://abs.twimg.com/images/themes/theme1/bg.png
p666
sg59
I00
sg60
V000000
p667
sg62
g664
sg63
g648
sg64
g649
sg65
I221
sg66
V000000
p668
sg68
V2397975692
p669
sg70
V000000
p670
sg72
I47
sg73
I01
sg74
I3600
sg75
I64857
sg45
VMyAllies delivers breaking news from across the globe and information on the latest breaking business and financial events. https://t.co/CXkUO1PIZA
p671
sg77
I0
sg78
g76
sg80
V3B94D9
p672
sg82
Vhttp://pbs.twimg.com/profile_images/577892873095401473/dP2JPlyp_normal.png
p673
sg84
I00
sg85
I00
sg88
Vhttp://abs.twimg.com/images/themes/theme1/bg.png
p674
sg90
VMyAlliesTrading
p675
sg92
Ven
p676
sg94
I00
sg95
I0
sg96
VMyAllies Trading
p677
sg98
I00
sg33
Vhttps://t.co/CXkUO1PIZA
p678
sg100
VWed Mar 19 14:36:36 +0000 2014
p679
sg102
I00
sg103
VBelgrade
p680
sg104
I00
sg105
I00
sg106
I00
ssg107
I00
sg108
g667
sg109
I221
sg110
g668
sg111
g669
sg112
I00
sg113
I47
sg114
I01
sg115
I3600
sg116
I64857
sg117
g671
sg118
I0
sg119
g76
sg120
g672
sg121
g673
sg122
I00
sg123
I00
sg124
g670
sg126
g674
sg127
g675
sg128
g676
sg129
I00
sg130
I00
sg131
I0
sg132
g677
sg133
g678
sg134
g135
(S'\x07\xde\x03\x13\x0e$$\x00\x00\x00'
p681
tp682
Rp683
sg139
g666
sg140
g680
sg141
I00
sg142
I00
sg143
I00
sbsg144
Nsg29
L664120009938063360L
sg145
I0
sg146
VMyAllies Breaking News
p684
sg128
Ven
p685
sg149
g646
sg134
g135
(S'\x07\xdf\x0b\n\x10&+\x00\x00\x00'
p686
tp687
Rp688
sg50
(dp689
g154
Nsg155
I00
sg156
g643
sg157
I00
sg158
Nsg56
L664120009938063360L
sg159
I0
sg160
V<a href="http://www.myallies.com" rel="nofollow">MyAllies Breaking News</a>
p690
sg162
I00
sg163
Nsg64
(dp691
g165
(lp692
(dp693
g39
(lp694
I0
aI5
asg156
VSOHO
p695
sasg170
(lp696
sg172
(lp697
sg35
(lp698
(dp699
g33
Vhttps://t.co/pMEa79ftqK
p700
sg39
(lp701
I80
aI103
asg41
Vhttp://goo.gl/bQX8Pq
p702
sg43
Vgoo.gl/bQX8Pq
p703
sassg180
Nsg181
Nsg182
I0
sg68
V664120009938063360
p704
sg184
I00
sg185
g665
sg186
Nsg187
Nsg188
I00
sg92
g685
sg100
VTue Nov 10 16:38:43 +0000 2015
p705
sg190
Nsg191
Nsg192
(dp706
g194
Ven
p707
sg196
Vrecent
p708
sssg198
g706
sg199
Nsg200
Nsg31
g691
sg201
Nsg202
Nsg111
g704
sg203
I00
sg204
Nsg205
I0
sg206
Nsbag0
(g4
g5
Ntp709
Rp710
(dp711
g9
I00
sg10
Nsg11
I00
sg12
VSOHO Stock 5.74 Sotherly Hotels Inc $SOHO Hit a 52 week low of 4.50 Closing the day 10:43 at 5.74 -0.06 -1.03% https://t.co/5Yiz6eRQBZ
p712
sg14
Vhttp://investorshangout.com/
p713
sg16
I00
sg17
I00
sg18
Nsg19
g0
(g20
g5
Ntp714
Rp715
(dp716
g24
I00
sg25
I00
sg26
I01
sg27
VA0C5C7
p717
sg29
L2181403417L
sg30
I00
sg31
(dp718
g45
(dp719
g35
(lp720
sssg48
Vhttps://pbs.twimg.com/profile_images/378800000709786988/9596d78dcc8156002d8dab069fc38cf7_normal.jpeg
p721
sg50
(dp722
g52
I00
sg53
I00
sg54
I01
sg55
I00
sg56
L2181403417L
sg57
Vhttps://abs.twimg.com/images/themes/theme6/bg.gif
p723
sg59
I00
sg60
V333333
p724
sg62
g721
sg63
g717
sg64
g718
sg65
I494
sg66
V86A4A6
p725
sg68
V2181403417
p726
sg70
V709397
p727
sg72
I165
sg73
I00
sg74
Nsg75
I156398
sg45
g76
sg77
I454
sg78
g76
sg80
VFF3300
p728
sg82
Vhttp://pbs.twimg.com/profile_images/378800000709786988/9596d78dcc8156002d8dab069fc38cf7_normal.jpeg
p729
sg84
I00
sg85
I00
sg88
Vhttp://abs.twimg.com/images/themes/theme6/bg.gif
p730
sg90
VEmylers
p731
sg92
Ven
p732
sg94
I00
sg95
I0
sg96
VEmylers
p733
sg98
I00
sg33
Nsg100
VFri Nov 08 03:50:04 +0000 2013
p734
sg102
I00
sg103
Nsg104
I00
sg105
I00
sg106
I00
ssg107
I00
sg108
g724
sg109
I494
sg110
g725
sg111
g726
sg112
I00
sg113
I165
sg114
I00
sg115
Nsg116
I156398
sg117
g76
sg118
I454
sg119
g76
sg120
g728
sg121
g729
sg122
I00
sg123
I00
sg124
g727
sg126
g730
sg127
g731
sg128
g732
sg129
I00
sg130
I00
sg131
I0
sg132
g733
sg133
Nsg134
g135
(S'\x07\xdd\x0b\x08\x032\x04\x00\x00\x00'
p735
tp736
Rp737
sg139
g723
sg140
Nsg141
I00
sg142
I00
sg143
I00
sbsg144
Nsg29
L664116000690995200L
sg145
I0
sg146
VInvestors Hangout
p738
sg128
Ven
p739
sg149
g715
sg134
g135
(S'\x07\xdf\x0b\n\x10\x16/\x00\x00\x00'
p740
tp741
Rp742
sg50
(dp743
g154
Nsg155
I00
sg156
g712
sg157
I00
sg158
Nsg56
L664116000690995200L
sg159
I0
sg160
V<a href="http://investorshangout.com/" rel="nofollow">Investors Hangout</a>
p744
sg162
I00
sg163
Nsg64
(dp745
g165
(lp746
(dp747
g39
(lp748
I36
aI41
asg156
VSOHO
p749
sasg170
(lp750
sg172
(lp751
sg35
(lp752
(dp753
g33
Vhttps://t.co/5Yiz6eRQBZ
p754
sg39
(lp755
I111
aI134
asg41
Vhttp://investorshangout.com/post/view?id=3329050
p756
sg43
Vinvestorshangout.com/post/view?id=3\u2026
p757
sassg180
Nsg181
Nsg182
I0
sg68
V664116000690995200
p758
sg184
I00
sg185
g722
sg186
Nsg187
Nsg188
I00
sg92
g739
sg100
VTue Nov 10 16:22:47 +0000 2015
p759
sg190
Nsg191
Nsg192
(dp760
g194
Ven
p761
sg196
Vrecent
p762
sssg198
g760
sg199
Nsg200
Nsg31
g745
sg201
Nsg202
Nsg111
g758
sg203
I00
sg204
Nsg205
I0
sg206
Nsbag0
(g4
g5
Ntp763
Rp764
(dp765
g9
I00
sg10
Nsg11
I00
sg12
VTop % Gainers Since Open: $ACI 17%, $SOHO 13%, $ICPT 12%, $PTCT 11%, $KPTI 10%, $ZINC $CLV $PSIX $BBSI $HOTR $LGND $RAX $SCLN $XONE $JAZZ
p766
sg14
Vhttp://www.hootsuite.com
p767
sg17
I00
sg18
Nsg19
g0
(g20
g5
Ntp768
Rp769
(dp770
g24
I00
sg25
I00
sg26
I01
sg27
VDDEEF6
p771
sg29
L3249150511L
sg30
I00
sg31
(dp772
g45
(dp773
g35
(lp774
sssg48
Vhttps://pbs.twimg.com/profile_images/613280914974507008/MFV7eI3g_normal.png
p775
sg50
(dp776
g52
I00
sg53
I00
sg54
I01
sg55
I00
sg56
L3249150511L
sg57
Vhttps://abs.twimg.com/images/themes/theme1/bg.png
p777
sg59
I00
sg60
V333333
p778
sg62
g775
sg63
g771
sg64
g772
sg65
I104
sg66
VC0DEED
p779
sg68
V3249150511
p780
sg70
VC0DEED
p781
sg72
I12
sg73
I00
sg74
Nsg75
I1518
sg45
VEffective and positive team player known for contributing effective creative solutions as well as technical ability.
p782
sg77
I173
sg78
V590 Honeysuckle Lane Seattle, 
p783
sg80
V0084B4
p784
sg82
Vhttp://pbs.twimg.com/profile_images/613280914974507008/MFV7eI3g_normal.png
p785
sg84
I00
sg85
I00
sg86
Vhttps://pbs.twimg.com/profile_banners/3249150511/1435052577
p786
sg88
Vhttp://abs.twimg.com/images/themes/theme1/bg.png
p787
sg90
Vsheltonwillia1
p788
sg92
Ven
p789
sg94
I00
sg95
I1
sg96
Vshelton williams
p790
sg98
I00
sg33
Nsg100
VThu Jun 18 20:46:56 +0000 2015
p791
sg102
I00
sg103
Nsg104
I00
sg105
I01
sg106
I00
ssg107
I00
sg108
g778
sg109
I104
sg110
g779
sg111
g780
sg112
I00
sg113
I12
sg114
I00
sg115
Nsg116
I1518
sg117
g782
sg118
I173
sg119
g783
sg120
g784
sg121
g785
sg122
I00
sg123
I00
sg124
g781
sg125
g786
sg126
g787
sg127
g788
sg128
g789
sg129
I00
sg130
I00
sg131
I1
sg132
g790
sg133
Nsg134
g135
(S'\x07\xdf\x06\x12\x14.8\x00\x00\x00'
p792
tp793
Rp794
sg139
g777
sg140
Nsg141
I00
sg142
I01
sg143
I00
sbsg144
Nsg29
L664113276435963904L
sg145
I0
sg146
VHootsuite
p795
sg128
Vin
p796
sg149
g769
sg134
g135
(S'\x07\xdf\x0b\n\x10\x0b:\x00\x00\x00'
p797
tp798
Rp799
sg50
(dp800
g154
Nsg155
I00
sg156
g766
sg157
I00
sg158
Nsg56
L664113276435963904L
sg159
I0
sg160
V<a href="http://www.hootsuite.com" rel="nofollow">Hootsuite</a>
p801
sg162
I00
sg163
Nsg64
(dp802
g165
(lp803
(dp804
g39
(lp805
I26
aI30
asg156
VACI
p806
sa(dp807
g39
(lp808
I36
aI41
asg156
VSOHO
p809
sa(dp810
g39
(lp811
I47
aI52
asg156
VICPT
p812
sa(dp813
g39
(lp814
I58
aI63
asg156
VPTCT
p815
sa(dp816
g39
(lp817
I69
aI74
asg156
VKPTI
p818
sa(dp819
g39
(lp820
I80
aI85
asg156
VZINC
p821
sa(dp822
g39
(lp823
I86
aI90
asg156
VCLV
p824
sa(dp825
g39
(lp826
I91
aI96
asg156
VPSIX
p827
sa(dp828
g39
(lp829
I97
aI102
asg156
VBBSI
p830
sa(dp831
g39
(lp832
I103
aI108
asg156
VHOTR
p833
sa(dp834
g39
(lp835
I109
aI114
asg156
VLGND
p836
sa(dp837
g39
(lp838
I115
aI119
asg156
VRAX
p839
sa(dp840
g39
(lp841
I120
aI125
asg156
VSCLN
p842
sa(dp843
g39
(lp844
I126
aI131
asg156
VXONE
p845
sa(dp846
g39
(lp847
I132
aI137
asg156
VJAZZ
p848
sasg170
(lp849
sg172
(lp850
sg35
(lp851
ssg180
Nsg181
Nsg182
I0
sg68
V664113276435963904
p852
sg184
I00
sg185
g776
sg186
Nsg187
Nsg92
g796
sg100
VTue Nov 10 16:11:58 +0000 2015
p853
sg190
Nsg191
Nsg192
(dp854
g194
Vin
p855
sg196
Vrecent
p856
sssg198
g854
sg199
Nsg200
Nsg31
g802
sg201
Nsg202
Nsg111
g852
sg203
I00
sg204
Nsg205
I0
sg206
Nsbag0
(g4
g5
Ntp857
Rp858
(dp859
g9
I00
sg10
Nsg11
I00
sg12
VTop % Gainers Since Open: $ACI 17%, $SOHO 13%, $ICPT 12%, $PTCT 11%, $KPTI 10%, $ZINC $CLV $PSIX $BBSI $HOTR $LGND $RAX $SCLN $XONE $JAZZ
p860
sg14
Vhttp://twitter.com
p861
sg17
I00
sg18
Nsg19
g0
(g20
g5
Ntp862
Rp863
(dp864
g24
I00
sg25
I00
sg26
I00
sg27
V000000
p865
sg29
I360855408
sg30
I00
sg31
(dp866
g45
(dp867
g35
(lp868
sssg48
Vhttps://pbs.twimg.com/profile_images/565175991299878912/85zH9khD_normal.png
p869
sg50
(dp870
g52
I00
sg53
I00
sg54
I00
sg55
I00
sg56
I360855408
sg57
Vhttps://abs.twimg.com/images/themes/theme1/bg.png
p871
sg59
I00
sg60
V000000
p872
sg62
g869
sg63
g865
sg64
g866
sg65
I224
sg66
V000000
p873
sg68
V360855408
p874
sg70
V000000
p875
sg72
I16
sg73
I00
sg74
Nsg75
I1482
sg45
VI look for good risk/reward trades, both long & short. MSFT: MCSE. National IT Mgr. Finance: Prudential Securities, then 10 years trading. Posts are not advice.
p876
sg77
I5
sg78
VNew York, NY
p877
sg80
V4A913C
p878
sg82
Vhttp://pbs.twimg.com/profile_images/565175991299878912/85zH9khD_normal.png
p879
sg84
I00
sg85
I00
sg86
Vhttps://pbs.twimg.com/profile_banners/360855408/1436200371
p880
sg88
Vhttp://abs.twimg.com/images/themes/theme1/bg.png
p881
sg90
VSuper1NYC
p882
sg92
Ven
p883
sg94
I00
sg95
I20
sg96
VAce
p884
sg98
I00
sg33
Nsg100
VTue Aug 23 21:36:13 +0000 2011
p885
sg102
I00
sg103
Nsg104
I00
sg105
I00
sg106
I00
ssg107
I00
sg108
g872
sg109
I224
sg110
g873
sg111
g874
sg112
I00
sg113
I16
sg114
I00
sg115
Nsg116
I1482
sg117
g876
sg118
I5
sg119
g877
sg120
g878
sg121
g879
sg122
I00
sg123
I00
sg124
g875
sg125
g880
sg126
g881
sg127
g882
sg128
g883
sg129
I00
sg130
I00
sg131
I20
sg132
g884
sg133
Nsg134
g135
(S'\x07\xdb\x08\x17\x15$\r\x00\x00\x00'
p886
tp887
Rp888
sg139
g871
sg140
Nsg141
I00
sg142
I00
sg143
I00
sbsg144
Nsg29
L664111673087811584L
sg145
I0
sg146
VTwitter Web Client
p889
sg128
Vin
p890
sg149
g863
sg134
g135
(S'\x07\xdf\x0b\n\x10\x05$\x00\x00\x00'
p891
tp892
Rp893
sg50
(dp894
g154
Nsg155
I00
sg156
g860
sg157
I00
sg158
Nsg56
L664111673087811584L
sg159
I0
sg160
V<a href="http://twitter.com" rel="nofollow">Twitter Web Client</a>
p895
sg162
I00
sg163
Nsg64
(dp896
g165
(lp897
(dp898
g39
(lp899
I26
aI30
asg156
VACI
p900
sa(dp901
g39
(lp902
I36
aI41
asg156
VSOHO
p903
sa(dp904
g39
(lp905
I47
aI52
asg156
VICPT
p906
sa(dp907
g39
(lp908
I58
aI63
asg156
VPTCT
p909
sa(dp910
g39
(lp911
I69
aI74
asg156
VKPTI
p912
sa(dp913
g39
(lp914
I80
aI85
asg156
VZINC
p915
sa(dp916
g39
(lp917
I86
aI90
asg156
VCLV
p918
sa(dp919
g39
(lp920
I91
aI96
asg156
VPSIX
p921
sa(dp922
g39
(lp923
I97
aI102
asg156
VBBSI
p924
sa(dp925
g39
(lp926
I103
aI108
asg156
VHOTR
p927
sa(dp928
g39
(lp929
I109
aI114
asg156
VLGND
p930
sa(dp931
g39
(lp932
I115
aI119
asg156
VRAX
p933
sa(dp934
g39
(lp935
I120
aI125
asg156
VSCLN
p936
sa(dp937
g39
(lp938
I126
aI131
asg156
VXONE
p939
sa(dp940
g39
(lp941
I132
aI137
asg156
VJAZZ
p942
sasg170
(lp943
sg172
(lp944
sg35
(lp945
ssg180
Nsg181
Nsg182
I0
sg68
V664111673087811584
p946
sg184
I00
sg185
g870
sg186
Nsg187
Nsg92
g890
sg100
VTue Nov 10 16:05:36 +0000 2015
p947
sg190
Nsg191
Nsg192
(dp948
g194
Vin
p949
sg196
Vrecent
p950
sssg198
g948
sg199
Nsg200
Nsg31
g896
sg201
Nsg202
Nsg111
g946
sg203
I00
sg204
Nsg205
I0
sg206
Nsbag0
(g4
g5
Ntp951
Rp952
(dp953
g9
I00
sg10
Nsg11
I00
sg12
VTop % Gainers Since Open: $SOHO 16%, $ACI 13%, $PTCT 12%, $BBSI 11%, $CLV 10%, $XONE 8%, $HOTR 7%, $WPCS $LGND $SCLN $KPTI $RAX $JAZZ $SNAK
p954
sg14
Vhttp://www.hootsuite.com
p955
sg17
I00
sg18
Nsg19
g0
(g20
g5
Ntp956
Rp957
(dp958
g24
I00
sg25
I00
sg26
I01
sg27
VDDEEF6
p959
sg29
L3249150511L
sg30
I00
sg31
(dp960
g45
(dp961
g35
(lp962
sssg48
Vhttps://pbs.twimg.com/profile_images/613280914974507008/MFV7eI3g_normal.png
p963
sg50
(dp964
g52
I00
sg53
I00
sg54
I01
sg55
I00
sg56
L3249150511L
sg57
Vhttps://abs.twimg.com/images/themes/theme1/bg.png
p965
sg59
I00
sg60
V333333
p966
sg62
g963
sg63
g959
sg64
g960
sg65
I104
sg66
VC0DEED
p967
sg68
V3249150511
p968
sg70
VC0DEED
p969
sg72
I12
sg73
I00
sg74
Nsg75
I1518
sg45
VEffective and positive team player known for contributing effective creative solutions as well as technical ability.
p970
sg77
I173
sg78
V590 Honeysuckle Lane Seattle, 
p971
sg80
V0084B4
p972
sg82
Vhttp://pbs.twimg.com/profile_images/613280914974507008/MFV7eI3g_normal.png
p973
sg84
I00
sg85
I00
sg86
Vhttps://pbs.twimg.com/profile_banners/3249150511/1435052577
p974
sg88
Vhttp://abs.twimg.com/images/themes/theme1/bg.png
p975
sg90
Vsheltonwillia1
p976
sg92
Ven
p977
sg94
I00
sg95
I1
sg96
Vshelton williams
p978
sg98
I00
sg33
Nsg100
VThu Jun 18 20:46:56 +0000 2015
p979
sg102
I00
sg103
Nsg104
I00
sg105
I01
sg106
I00
ssg107
I00
sg108
g966
sg109
I104
sg110
g967
sg111
g968
sg112
I00
sg113
I12
sg114
I00
sg115
Nsg116
I1518
sg117
g970
sg118
I173
sg119
g971
sg120
g972
sg121
g973
sg122
I00
sg123
I00
sg124
g969
sg125
g974
sg126
g975
sg127
g976
sg128
g977
sg129
I00
sg130
I00
sg131
I1
sg132
g978
sg133
Nsg134
g135
(S'\x07\xdf\x06\x12\x14.8\x00\x00\x00'
p980
tp981
Rp982
sg139
g965
sg140
Nsg141
I00
sg142
I01
sg143
I00
sbsg144
Nsg29
L664106398876344321L
sg145
I0
sg146
VHootsuite
p983
sg128
Vin
p984
sg149
g957
sg134
g135
(S'\x07\xdf\x0b\n\x0f,&\x00\x00\x00'
p985
tp986
Rp987
sg50
(dp988
g154
Nsg155
I00
sg156
g954
sg157
I00
sg158
Nsg56
L664106398876344321L
sg159
I0
sg160
V<a href="http://www.hootsuite.com" rel="nofollow">Hootsuite</a>
p989
sg162
I00
sg163
Nsg64
(dp990
g165
(lp991
(dp992
g39
(lp993
I26
aI31
asg156
VSOHO
p994
sa(dp995
g39
(lp996
I37
aI41
asg156
VACI
p997
sa(dp998
g39
(lp999
I47
aI52
asg156
VPTCT
p1000
sa(dp1001
g39
(lp1002
I58
aI63
asg156
VBBSI
p1003
sa(dp1004
g39
(lp1005
I69
aI73
asg156
VCLV
p1006
sa(dp1007
g39
(lp1008
I79
aI84
asg156
VXONE
p1009
sa(dp1010
g39
(lp1011
I89
aI94
asg156
VHOTR
p1012
sa(dp1013
g39
(lp1014
I99
aI104
asg156
VWPCS
p1015
sa(dp1016
g39
(lp1017
I105
aI110
asg156
VLGND
p1018
sa(dp1019
g39
(lp1020
I111
aI116
asg156
VSCLN
p1021
sa(dp1022
g39
(lp1023
I117
aI122
asg156
VKPTI
p1024
sa(dp1025
g39
(lp1026
I123
aI127
asg156
VRAX
p1027
sa(dp1028
g39
(lp1029
I128
aI133
asg156
VJAZZ
p1030
sa(dp1031
g39
(lp1032
I134
aI139
asg156
VSNAK
p1033
sasg170
(lp1034
sg172
(lp1035
sg35
(lp1036
ssg180
Nsg181
Nsg182
I0
sg68
V664106398876344321
p1037
sg184
I00
sg185
g964
sg186
Nsg187
Nsg92
g984
sg100
VTue Nov 10 15:44:38 +0000 2015
p1038
sg190
Nsg191
Nsg192
(dp1039
g194
Vin
p1040
sg196
Vrecent
p1041
sssg198
g1039
sg199
Nsg200
Nsg31
g990
sg201
Nsg202
Nsg111
g1037
sg203
I00
sg204
Nsg205
I0
sg206
Nsbag0
(g4
g5
Ntp1042
Rp1043
(dp1044
g9
I00
sg10
Nsg11
I00
sg12
VTop % Gainers Since Open: $SOHO 16%, $ACI 13%, $PTCT 12%, $BBSI 11%, $CLV 10%, $XONE 8%, $HOTR 7%, $WPCS $LGND $SCLN $KPTI $RAX $JAZZ $SNAK
p1045
sg14
Vhttp://twitter.com
p1046
sg17
I00
sg18
Nsg19
g0
(g20
g5
Ntp1047
Rp1048
(dp1049
g24
I00
sg25
I00
sg26
I00
sg27
V000000
p1050
sg29
I360855408
sg30
I00
sg31
(dp1051
g45
(dp1052
g35
(lp1053
sssg48
Vhttps://pbs.twimg.com/profile_images/565175991299878912/85zH9khD_normal.png
p1054
sg50
(dp1055
g52
I00
sg53
I00
sg54
I00
sg55
I00
sg56
I360855408
sg57
Vhttps://abs.twimg.com/images/themes/theme1/bg.png
p1056
sg59
I00
sg60
V000000
p1057
sg62
g1054
sg63
g1050
sg64
g1051
sg65
I224
sg66
V000000
p1058
sg68
V360855408
p1059
sg70
V000000
p1060
sg72
I16
sg73
I00
sg74
Nsg75
I1482
sg45
VI look for good risk/reward trades, both long & short. MSFT: MCSE. National IT Mgr. Finance: Prudential Securities, then 10 years trading. Posts are not advice.
p1061
sg77
I5
sg78
VNew York, NY
p1062
sg80
V4A913C
p1063
sg82
Vhttp://pbs.twimg.com/profile_images/565175991299878912/85zH9khD_normal.png
p1064
sg84
I00
sg85
I00
sg86
Vhttps://pbs.twimg.com/profile_banners/360855408/1436200371
p1065
sg88
Vhttp://abs.twimg.com/images/themes/theme1/bg.png
p1066
sg90
VSuper1NYC
p1067
sg92
Ven
p1068
sg94
I00
sg95
I20
sg96
VAce
p1069
sg98
I00
sg33
Nsg100
VTue Aug 23 21:36:13 +0000 2011
p1070
sg102
I00
sg103
Nsg104
I00
sg105
I00
sg106
I00
ssg107
I00
sg108
g1057
sg109
I224
sg110
g1058
sg111
g1059
sg112
I00
sg113
I16
sg114
I00
sg115
Nsg116
I1482
sg117
g1061
sg118
I5
sg119
g1062
sg120
g1063
sg121
g1064
sg122
I00
sg123
I00
sg124
g1060
sg125
g1065
sg126
g1066
sg127
g1067
sg128
g1068
sg129
I00
sg130
I00
sg131
I20
sg132
g1069
sg133
Nsg134
g135
(S'\x07\xdb\x08\x17\x15$\r\x00\x00\x00'
p1071
tp1072
Rp1073
sg139
g1056
sg140
Nsg141
I00
sg142
I00
sg143
I00
sbsg144
Nsg29
L664106059028668416L
sg145
I0
sg146
VTwitter Web Client
p1074
sg128
Vin
p1075
sg149
g1048
sg134
g135
(S'\x07\xdf\x0b\n\x0f+\x11\x00\x00\x00'
p1076
tp1077
Rp1078
sg50
(dp1079
g154
Nsg155
I00
sg156
g1045
sg157
I00
sg158
Nsg56
L664106059028668416L
sg159
I0
sg160
V<a href="http://twitter.com" rel="nofollow">Twitter Web Client</a>
p1080
sg162
I00
sg163
Nsg64
(dp1081
g165
(lp1082
(dp1083
g39
(lp1084
I26
aI31
asg156
VSOHO
p1085
sa(dp1086
g39
(lp1087
I37
aI41
asg156
VACI
p1088
sa(dp1089
g39
(lp1090
I47
aI52
asg156
VPTCT
p1091
sa(dp1092
g39
(lp1093
I58
aI63
asg156
VBBSI
p1094
sa(dp1095
g39
(lp1096
I69
aI73
asg156
VCLV
p1097
sa(dp1098
g39
(lp1099
I79
aI84
asg156
VXONE
p1100
sa(dp1101
g39
(lp1102
I89
aI94
asg156
VHOTR
p1103
sa(dp1104
g39
(lp1105
I99
aI104
asg156
VWPCS
p1106
sa(dp1107
g39
(lp1108
I105
aI110
asg156
VLGND
p1109
sa(dp1110
g39
(lp1111
I111
aI116
asg156
VSCLN
p1112
sa(dp1113
g39
(lp1114
I117
aI122
asg156
VKPTI
p1115
sa(dp1116
g39
(lp1117
I123
aI127
asg156
VRAX
p1118
sa(dp1119
g39
(lp1120
I128
aI133
asg156
VJAZZ
p1121
sa(dp1122
g39
(lp1123
I134
aI139
asg156
VSNAK
p1124
sasg170
(lp1125
sg172
(lp1126
sg35
(lp1127
ssg180
Nsg181
Nsg182
I0
sg68
V664106059028668416
p1128
sg184
I00
sg185
g1055
sg186
Nsg187
Nsg92
g1075
sg100
VTue Nov 10 15:43:17 +0000 2015
p1129
sg190
Nsg191
Nsg192
(dp1130
g194
Vin
p1131
sg196
Vrecent
p1132
sssg198
g1130
sg199
Nsg200
Nsg31
g1081
sg201
Nsg202
Nsg111
g1128
sg203
I00
sg204
Nsg205
I0
sg206
Nsbag0
(g4
g5
Ntp1133
Rp1134
(dp1135
g9
I00
sg10
Nsg11
I00
sg12
VSotherly Hotels $SOHO Issues  Earnings Results https://t.co/Snj7Y2DHFN
p1136
sg14
Vhttp://ifttt.com
p1137
sg16
I00
sg17
I00
sg18
Nsg19
g0
(g20
g5
Ntp1138
Rp1139
(dp1140
g24
I00
sg25
I00
sg26
I01
sg27
VDDEEF6
p1141
sg29
L2743641378L
sg30
I00
sg31
(dp1142
g45
(dp1143
g35
(lp1144
sssg48
Vhttps://pbs.twimg.com/profile_images/501548634412838914/LR6q5snv_normal.jpeg
p1145
sg50
(dp1146
g52
I00
sg53
I00
sg54
I01
sg55
I00
sg56
L2743641378L
sg57
Vhttps://abs.twimg.com/images/themes/theme1/bg.png
p1147
sg59
I00
sg60
V333333
p1148
sg62
g1145
sg63
g1141
sg64
g1142
sg65
I668
sg66
VC0DEED
p1149
sg68
V2743641378
p1150
sg70
VC0DEED
p1151
sg72
I59
sg73
I00
sg74
Nsg75
I275759
sg45
g76
sg77
I0
sg78
g76
sg80
V0084B4
p1152
sg82
Vhttp://pbs.twimg.com/profile_images/501548634412838914/LR6q5snv_normal.jpeg
p1153
sg84
I00
sg85
I00
sg86
Vhttps://pbs.twimg.com/profile_banners/2743641378/1408413498
p1154
sg88
Vhttp://abs.twimg.com/images/themes/theme1/bg.png
p1155
sg90
VSleekMoneycom
p1156
sg92
Ven
p1157
sg94
I00
sg95
I0
sg96
VSleek Money
p1158
sg98
I00
sg33
Nsg100
VTue Aug 19 01:57:20 +0000 2014
p1159
sg102
I00
sg103
Nsg104
I00
sg105
I01
sg106
I00
ssg107
I00
sg108
g1148
sg109
I668
sg110
g1149
sg111
g1150
sg112
I00
sg113
I59
sg114
I00
sg115
Nsg116
I275759
sg117
g76
sg118
I0
sg119
g76
sg120
g1152
sg121
g1153
sg122
I00
sg123
I00
sg124
g1151
sg125
g1154
sg126
g1155
sg127
g1156
sg128
g1157
sg129
I00
sg130
I00
sg131
I0
sg132
g1158
sg133
Nsg134
g135
(S'\x07\xde\x08\x13\x019\x14\x00\x00\x00'
p1160
tp1161
Rp1162
sg139
g1147
sg140
Nsg141
I00
sg142
I01
sg143
I00
sbsg144
Nsg29
L664102627005833216L
sg145
I0
sg146
VIFTTT
p1163
sg128
Ven
p1164
sg149
g1139
sg134
g135
(S"\x07\xdf\x0b\n\x0f\x1d'\x00\x00\x00"
p1165
tp1166
Rp1167
sg50
(dp1168
g154
Nsg155
I00
sg156
g1136
sg157
I00
sg158
Nsg56
L664102627005833216L
sg159
I0
sg160
V<a href="http://ifttt.com" rel="nofollow">IFTTT</a>
p1169
sg162
I00
sg163
Nsg64
(dp1170
g165
(lp1171
(dp1172
g39
(lp1173
I16
aI21
asg156
VSOHO
p1174
sasg170
(lp1175
sg172
(lp1176
sg35
(lp1177
(dp1178
g33
Vhttps://t.co/Snj7Y2DHFN
p1179
sg39
(lp1180
I47
aI70
asg41
Vhttp://ift.tt/1WKOHvq
p1181
sg43
Vift.tt/1WKOHvq
p1182
sassg180
Nsg181
Nsg182
I0
sg68
V664102627005833216
p1183
sg184
I00
sg185
g1146
sg186
Nsg187
Nsg188
I00
sg92
g1164
sg100
VTue Nov 10 15:29:39 +0000 2015
p1184
sg190
Nsg191
Nsg192
(dp1185
g194
Ven
p1186
sg196
Vrecent
p1187
sssg198
g1185
sg199
Nsg200
Nsg31
g1170
sg201
Nsg202
Nsg111
g1183
sg203
I00
sg204
Nsg205
I0
sg206
Nsbag0
(g4
g5
Ntp1188
Rp1189
(dp1190
g9
I00
sg10
Nsg11
I00
sg12
V10:21 New 52wk Lows: $SOHO
p1191
sg14
Vhttp://largevoid.com/
p1192
sg17
I00
sg18
Nsg19
g0
(g20
g5
Ntp1193
Rp1194
(dp1195
g24
I00
sg25
I00
sg26
I01
sg27
VEFEFEF
p1196
sg29
I412611622
sg30
I00
sg31
(dp1197
g33
(dp1198
g35
(lp1199
(dp1200
g33
Vhttp://t.co/x4EXOorWNT
p1201
sg39
(lp1202
I0
aI22
asg41
Vhttp://largevoid.com/
p1203
sg43
Vlargevoid.com
p1204
sassg45
(dp1205
g35
(lp1206
sssg48
Vhttps://pbs.twimg.com/profile_images/1639347555/Egg-Robot-Crop_normal.png
p1207
sg50
(dp1208
g52
I00
sg53
I00
sg54
I01
sg55
I00
sg56
I412611622
sg57
Vhttps://abs.twimg.com/images/themes/theme14/bg.gif
p1209
sg59
I00
sg60
V333333
p1210
sg62
g1207
sg63
g1196
sg64
g1197
sg65
I1143
sg66
VEEEEEE
p1211
sg68
V412611622
p1212
sg70
V131516
p1213
sg72
I82
sg73
I00
sg74
I-28800
sg75
I127507
sg45
VBot Slave to @LargeVoid
p1214
sg77
I1
sg78
VIn the wires
p1215
sg80
V009999
p1216
sg82
Vhttp://pbs.twimg.com/profile_images/1639347555/Egg-Robot-Crop_normal.png
p1217
sg84
I00
sg85
I00
sg86
Vhttps://pbs.twimg.com/profile_banners/412611622/1402240651
p1218
sg88
Vhttp://abs.twimg.com/images/themes/theme14/bg.gif
p1219
sg90
VLargeVoidBot
p1220
sg92
Ven
p1221
sg94
I01
sg95
I2
sg96
VLarge Void Bot
p1222
sg98
I00
sg33
Vhttp://t.co/x4EXOorWNT
p1223
sg100
VMon Nov 14 23:10:09 +0000 2011
p1224
sg102
I00
sg103
VPacific Time (US & Canada)
p1225
sg104
I00
sg105
I00
sg106
I00
ssg107
I00
sg108
g1210
sg109
I1143
sg110
g1211
sg111
g1212
sg112
I00
sg113
I82
sg114
I00
sg115
I-28800
sg116
I127507
sg117
g1214
sg118
I1
sg119
g1215
sg120
g1216
sg121
g1217
sg122
I00
sg123
I00
sg124
g1213
sg125
g1218
sg126
g1219
sg127
g1220
sg128
g1221
sg129
I00
sg130
I01
sg131
I2
sg132
g1222
sg133
g1223
sg134
g135
(S'\x07\xdb\x0b\x0e\x17\n\t\x00\x00\x00'
p1226
tp1227
Rp1228
sg139
g1209
sg140
g1225
sg141
I00
sg142
I00
sg143
I00
sbsg144
Nsg29
L664100517350518785L
sg145
I0
sg146
VLV PriceAlertBot
p1229
sg128
Ven
p1230
sg149
g1194
sg134
g135
(S'\x07\xdf\x0b\n\x0f\x15\x10\x00\x00\x00'
p1231
tp1232
Rp1233
sg50
(dp1234
g154
Nsg155
I00
sg156
g1191
sg157
I00
sg158
Nsg56
L664100517350518785L
sg159
I0
sg160
V<a href="http://largevoid.com/" rel="nofollow">LV PriceAlertBot</a>
p1235
sg162
I00
sg163
Nsg64
(dp1236
g165
(lp1237
(dp1238
g39
(lp1239
I21
aI26
asg156
VSOHO
p1240
sasg170
(lp1241
sg172
(lp1242
sg35
(lp1243
ssg180
Nsg181
Nsg182
I0
sg68
V664100517350518785
p1244
sg184
I00
sg185
g1208
sg186
Nsg187
Nsg92
g1230
sg100
VTue Nov 10 15:21:16 +0000 2015
p1245
sg190
Nsg191
Nsg192
(dp1246
g194
Ven
p1247
sg196
Vrecent
p1248
sssg198
g1246
sg199
Nsg200
Nsg31
g1236
sg201
Nsg202
Nsg111
g1244
sg203
I00
sg204
Nsg205
I0
sg206
Nsbag0
(g4
g5
Ntp1249
Rp1250
(dp1251
g9
I00
sg10
Nsg11
I00
sg12
VSotherly Hotels $SOHO Announces  Earnings Results https://t.co/XUWIoew2aA #acn
p1252
sg14
Vhttp://ifttt.com
p1253
sg16
I00
sg17
I00
sg18
Nsg19
g0
(g20
g5
Ntp1254
Rp1255
(dp1256
g24
I00
sg25
I00
sg26
I01
sg27
VE8E8E8
p1257
sg29
I52210566
sg30
I00
sg31
(dp1258
g33
(dp1259
g35
(lp1260
(dp1261
g33
Vhttp://t.co/odTc3pvcAe
p1262
sg39
(lp1263
I0
aI22
asg41
Vhttp://www.americanconsumernews.com/
p1264
sg43
Vamericanconsumernews.com
p1265
sassg45
(dp1266
g35
(lp1267
sssg48
Vhttps://pbs.twimg.com/profile_images/289298274/text_normal.jpg
p1268
sg50
(dp1269
g52
I00
sg53
I00
sg54
I01
sg55
I00
sg56
I52210566
sg57
Vhttps://pbs.twimg.com/profile_background_images/20558354/back.jpg
p1270
sg59
I00
sg60
V333333
p1271
sg62
g1268
sg63
g1257
sg64
g1258
sg65
I1114
sg66
VADADAD
p1272
sg68
V52210566
p1273
sg70
V9AE4E8
p1274
sg72
I96
sg73
I00
sg74
I-21600
sg75
I580839
sg45
VPersonal Finance and Consumer Tips
p1275
sg77
I1412
sg78
VSioux Falls, SD
p1276
sg80
V0084B4
p1277
sg82
Vhttp://pbs.twimg.com/profile_images/289298274/text_normal.jpg
p1278
sg84
I00
sg85
I00
sg88
Vhttp://pbs.twimg.com/profile_background_images/20558354/back.jpg
p1279
sg90
VAmConsumerNews
p1280
sg92
Ven
p1281
sg94
I00
sg95
I0
sg96
VConsumer News
p1282
sg98
I00
sg33
Vhttp://t.co/odTc3pvcAe
p1283
sg100
VMon Jun 29 22:22:08 +0000 2009
p1284
sg102
I00
sg103
VCentral Time (US & Canada)
p1285
sg104
I00
sg105
I00
sg106
I00
ssg107
I00
sg108
g1271
sg109
I1114
sg110
g1272
sg111
g1273
sg112
I00
sg113
I96
sg114
I00
sg115
I-21600
sg116
I580839
sg117
g1275
sg118
I1412
sg119
g1276
sg120
g1277
sg121
g1278
sg122
I00
sg123
I00
sg124
g1274
sg126
g1279
sg127
g1280
sg128
g1281
sg129
I00
sg130
I00
sg131
I0
sg132
g1282
sg133
g1283
sg134
g135
(S'\x07\xd9\x06\x1d\x16\x16\x08\x00\x00\x00'
p1286
tp1287
Rp1288
sg139
g1270
sg140
g1285
sg141
I00
sg142
I00
sg143
I00
sbsg144
Nsg29
L664094518275416064L
sg145
I0
sg146
VIFTTT
p1289
sg128
Ven
p1290
sg149
g1255
sg134
g135
(S'\x07\xdf\x0b\n\x0e9\x1a\x00\x00\x00'
p1291
tp1292
Rp1293
sg50
(dp1294
g154
Nsg155
I00
sg156
g1252
sg157
I00
sg158
Nsg56
L664094518275416064L
sg159
I0
sg160
V<a href="http://ifttt.com" rel="nofollow">IFTTT</a>
p1295
sg162
I00
sg163
Nsg64
(dp1296
g165
(lp1297
(dp1298
g39
(lp1299
I16
aI21
asg156
VSOHO
p1300
sasg170
(lp1301
sg172
(lp1302
(dp1303
g39
(lp1304
I74
aI78
asg156
Vacn
p1305
sasg35
(lp1306
(dp1307
g33
Vhttps://t.co/XUWIoew2aA
p1308
sg39
(lp1309
I50
aI73
asg41
Vhttp://ift.tt/1iR3aDs
p1310
sg43
Vift.tt/1iR3aDs
p1311
sassg180
Nsg181
Nsg182
I0
sg68
V664094518275416064
p1312
sg184
I00
sg185
g1269
sg186
Nsg187
Nsg188
I00
sg92
g1290
sg100
VTue Nov 10 14:57:26 +0000 2015
p1313
sg190
Nsg191
Nsg192
(dp1314
g194
Ven
p1315
sg196
Vrecent
p1316
sssg198
g1314
sg199
Nsg200
Nsg31
g1296
sg201
Nsg202
Nsg111
g1312
sg203
I00
sg204
Nsg205
I0
sg206
Nsbag0
(g4
g5
Ntp1317
Rp1318
(dp1319
g9
I00
sg10
Nsg11
I00
sg12
VSotherly Hotels $SOHO Announces  Earnings Results https://t.co/db1A1Sb4w4
p1320
sg14
Vhttp://ifttt.com
p1321
sg16
I00
sg17
I00
sg18
Nsg19
g0
(g20
g5
Ntp1322
Rp1323
(dp1324
g24
I00
sg25
I00
sg26
I01
sg27
VEFEFEF
p1325
sg29
I1979190776
sg30
I00
sg31
(dp1326
g45
(dp1327
g35
(lp1328
sssg48
Vhttps://pbs.twimg.com/profile_images/378800000629011324/02a58ce4852fa2c0b053a8853393c35c_normal.png
p1329
sg50
(dp1330
g52
I00
sg53
I00
sg54
I01
sg55
I00
sg56
I1979190776
sg57
Vhttps://abs.twimg.com/images/themes/theme14/bg.gif
p1331
sg59
I00
sg60
V333333
p1332
sg62
g1329
sg63
g1325
sg64
g1326
sg65
I780
sg66
VEEEEEE
p1333
sg68
V1979190776
p1334
sg70
V131516
p1335
sg72
I83
sg73
I00
sg74
Nsg75
I347263
sg45
VMarket moving news
p1336
sg77
I11
sg78
VVirginia
p1337
sg80
V009999
p1338
sg82
Vhttp://pbs.twimg.com/profile_images/378800000629011324/02a58ce4852fa2c0b053a8853393c35c_normal.png
p1339
sg84
I00
sg85
I00
sg88
Vhttp://abs.twimg.com/images/themes/theme14/bg.gif
p1340
sg90
VTickerReport
p1341
sg92
Ven
p1342
sg94
I01
sg95
I0
sg96
VTicker Report
p1343
sg98
I00
sg33
Nsg100
VMon Oct 21 15:58:27 +0000 2013
p1344
sg102
I00
sg103
Nsg104
I00
sg105
I00
sg106
I00
ssg107
I00
sg108
g1332
sg109
I780
sg110
g1333
sg111
g1334
sg112
I00
sg113
I83
sg114
I00
sg115
Nsg116
I347263
sg117
g1336
sg118
I11
sg119
g1337
sg120
g1338
sg121
g1339
sg122
I00
sg123
I00
sg124
g1335
sg126
g1340
sg127
g1341
sg128
g1342
sg129
I00
sg130
I01
sg131
I0
sg132
g1343
sg133
Nsg134
g135
(S'\x07\xdd\n\x15\x0f:\x1b\x00\x00\x00'
p1345
tp1346
Rp1347
sg139
g1331
sg140
Nsg141
I00
sg142
I00
sg143
I00
sbsg144
Nsg29
L664094012924669952L
sg145
I0
sg146
VIFTTT
p1348
sg128
Ven
p1349
sg149
g1323
sg134
g135
(S'\x07\xdf\x0b\n\x0e7\x19\x00\x00\x00'
p1350
tp1351
Rp1352
sg50
(dp1353
g154
Nsg155
I00
sg156
g1320
sg157
I00
sg158
Nsg56
L664094012924669952L
sg159
I0
sg160
V<a href="http://ifttt.com" rel="nofollow">IFTTT</a>
p1354
sg162
I00
sg163
Nsg64
(dp1355
g165
(lp1356
(dp1357
g39
(lp1358
I16
aI21
asg156
VSOHO
p1359
sasg170
(lp1360
sg172
(lp1361
sg35
(lp1362
(dp1363
g33
Vhttps://t.co/db1A1Sb4w4
p1364
sg39
(lp1365
I50
aI73
asg41
Vhttp://ift.tt/1liH929
p1366
sg43
Vift.tt/1liH929
p1367
sassg180
Nsg181
Nsg182
I0
sg68
V664094012924669952
p1368
sg184
I00
sg185
g1330
sg186
Nsg187
Nsg188
I00
sg92
g1349
sg100
VTue Nov 10 14:55:25 +0000 2015
p1369
sg190
Nsg191
Nsg192
(dp1370
g194
Ven
p1371
sg196
Vrecent
p1372
sssg198
g1370
sg199
Nsg200
Nsg31
g1355
sg201
Nsg202
Nsg111
g1368
sg203
I00
sg204
Nsg205
I0
sg206
Nsbag0
(g4
g5
Ntp1373
Rp1374
(dp1375
g9
I00
sg10
Nsg11
I00
sg12
VSotherly Hotels $SOHO Announces  Earnings Results https://t.co/0oF8PJB8Ii
p1376
sg14
Vhttp://ifttt.com
p1377
sg16
I00
sg17
I00
sg18
Nsg19
g0
(g20
g5
Ntp1378
Rp1379
(dp1380
g24
I00
sg25
I00
sg26
I01
sg27
VCCDAFF
p1381
sg29
I61661638
sg30
I00
sg31
(dp1382
g33
(dp1383
g35
(lp1384
(dp1385
g33
Vhttp://t.co/7EZswS49Q1
p1386
sg39
(lp1387
I0
aI22
asg41
Vhttp://www.americanbankingnews.com/
p1388
sg43
Vamericanbankingnews.com
p1389
sassg45
(dp1390
g35
(lp1391
sssg48
Vhttps://pbs.twimg.com/profile_images/541252987/Image5_normal.jpg
p1392
sg50
(dp1393
g52
I00
sg53
I00
sg54
I01
sg55
I00
sg56
I61661638
sg57
Vhttps://pbs.twimg.com/profile_background_images/55647305/background.png
p1394
sg59
I00
sg60
V141414
p1395
sg62
g1392
sg63
g1381
sg64
g1382
sg65
I5557
sg66
VABB1D9
p1396
sg68
V61661638
p1397
sg70
V000000
p1398
sg72
I469
sg73
I00
sg74
I-21600
sg75
I693975
sg45
VBanks, Credit Unions & Financial Institutions
p1399
sg77
I2307
sg78
VSioux Falls, SD
p1400
sg80
VA60000
p1401
sg82
Vhttp://pbs.twimg.com/profile_images/541252987/Image5_normal.jpg
p1402
sg84
I00
sg85
I00
sg88
Vhttp://pbs.twimg.com/profile_background_images/55647305/background.png
p1403
sg90
VAmericanBanking
p1404
sg92
Ven
p1405
sg94
I01
sg95
I0
sg96
VUS Banking News
p1406
sg98
I00
sg33
Vhttp://t.co/7EZswS49Q1
p1407
sg100
VFri Jul 31 01:58:33 +0000 2009
p1408
sg102
I00
sg103
VCentral Time (US & Canada)
p1409
sg104
I00
sg105
I00
sg106
I00
ssg107
I00
sg108
g1395
sg109
I5557
sg110
g1396
sg111
g1397
sg112
I00
sg113
I469
sg114
I00
sg115
I-21600
sg116
I693975
sg117
g1399
sg118
I2307
sg119
g1400
sg120
g1401
sg121
g1402
sg122
I00
sg123
I00
sg124
g1398
sg126
g1403
sg127
g1404
sg128
g1405
sg129
I00
sg130
I01
sg131
I0
sg132
g1406
sg133
g1407
sg134
g135
(S'\x07\xd9\x07\x1f\x01:!\x00\x00\x00'
p1410
tp1411
Rp1412
sg139
g1394
sg140
g1409
sg141
I00
sg142
I00
sg143
I00
sbsg144
Nsg29
L664093783936602112L
sg145
I0
sg146
VIFTTT
p1413
sg128
Ven
p1414
sg149
g1379
sg134
g135
(S'\x07\xdf\x0b\n\x0e6\x1f\x00\x00\x00'
p1415
tp1416
Rp1417
sg50
(dp1418
g154
Nsg155
I00
sg156
g1376
sg157
I00
sg158
Nsg56
L664093783936602112L
sg159
I0
sg160
V<a href="http://ifttt.com" rel="nofollow">IFTTT</a>
p1419
sg162
I00
sg163
Nsg64
(dp1420
g165
(lp1421
(dp1422
g39
(lp1423
I16
aI21
asg156
VSOHO
p1424
sasg170
(lp1425
sg172
(lp1426
sg35
(lp1427
(dp1428
g33
Vhttps://t.co/0oF8PJB8Ii
p1429
sg39
(lp1430
I50
aI73
asg41
Vhttp://ift.tt/1liH929
p1431
sg43
Vift.tt/1liH929
p1432
sassg180
Nsg181
Nsg182
I0
sg68
V664093783936602112
p1433
sg184
I00
sg185
g1393
sg186
Nsg187
Nsg188
I00
sg92
g1414
sg100
VTue Nov 10 14:54:31 +0000 2015
p1434
sg190
Nsg191
Nsg192
(dp1435
g194
Ven
p1436
sg196
Vrecent
p1437
sssg198
g1435
sg199
Nsg200
Nsg31
g1420
sg201
Nsg202
Nsg111
g1433
sg203
I00
sg204
Nsg205
I0
sg206
Nsbag0
(g4
g5
Ntp1438
Rp1439
(dp1440
g9
I00
sg10
Nsg11
I00
sg12
VSotherly Hotels announces earnings. $0.11 EPS. Misses estimates. https://t.co/PpnvPI1D9D $SOHO #SOHO
p1441
sg14
Vhttp://ifttt.com
p1442
sg16
I00
sg17
I00
sg18
Nsg19
g0
(g20
g5
Ntp1443
Rp1444
(dp1445
g24
I00
sg25
I00
sg26
I01
sg27
VCCDAFF
p1446
sg29
I61661638
sg30
I00
sg31
(dp1447
g33
(dp1448
g35
(lp1449
(dp1450
g33
Vhttp://t.co/7EZswS49Q1
p1451
sg39
(lp1452
I0
aI22
asg41
Vhttp://www.americanbankingnews.com/
p1453
sg43
Vamericanbankingnews.com
p1454
sassg45
(dp1455
g35
(lp1456
sssg48
Vhttps://pbs.twimg.com/profile_images/541252987/Image5_normal.jpg
p1457
sg50
(dp1458
g52
I00
sg53
I00
sg54
I01
sg55
I00
sg56
I61661638
sg57
Vhttps://pbs.twimg.com/profile_background_images/55647305/background.png
p1459
sg59
I00
sg60
V141414
p1460
sg62
g1457
sg63
g1446
sg64
g1447
sg65
I5557
sg66
VABB1D9
p1461
sg68
V61661638
p1462
sg70
V000000
p1463
sg72
I469
sg73
I00
sg74
I-21600
sg75
I693975
sg45
VBanks, Credit Unions & Financial Institutions
p1464
sg77
I2307
sg78
VSioux Falls, SD
p1465
sg80
VA60000
p1466
sg82
Vhttp://pbs.twimg.com/profile_images/541252987/Image5_normal.jpg
p1467
sg84
I00
sg85
I00
sg88
Vhttp://pbs.twimg.com/profile_background_images/55647305/background.png
p1468
sg90
VAmericanBanking
p1469
sg92
Ven
p1470
sg94
I01
sg95
I0
sg96
VUS Banking News
p1471
sg98
I00
sg33
Vhttp://t.co/7EZswS49Q1
p1472
sg100
VFri Jul 31 01:58:33 +0000 2009
p1473
sg102
I00
sg103
VCentral Time (US & Canada)
p1474
sg104
I00
sg105
I00
sg106
I00
ssg107
I00
sg108
g1460
sg109
I5557
sg110
g1461
sg111
g1462
sg112
I00
sg113
I469
sg114
I00
sg115
I-21600
sg116
I693975
sg117
g1464
sg118
I2307
sg119
g1465
sg120
g1466
sg121
g1467
sg122
I00
sg123
I00
sg124
g1463
sg126
g1468
sg127
g1469
sg128
g1470
sg129
I00
sg130
I01
sg131
I0
sg132
g1471
sg133
g1472
sg134
g135
(S'\x07\xd9\x07\x1f\x01:!\x00\x00\x00'
p1475
tp1476
Rp1477
sg139
g1459
sg140
g1474
sg141
I00
sg142
I00
sg143
I00
sbsg144
Nsg29
L664088051585581056L
sg145
I0
sg146
VIFTTT
p1478
sg128
Ven
p1479
sg149
g1444
sg134
g135
(S'\x07\xdf\x0b\n\x0e\x1f,\x00\x00\x00'
p1480
tp1481
Rp1482
sg50
(dp1483
g154
Nsg155
I00
sg156
g1441
sg157
I00
sg158
Nsg56
L664088051585581056L
sg159
I0
sg160
V<a href="http://ifttt.com" rel="nofollow">IFTTT</a>
p1484
sg162
I00
sg163
Nsg64
(dp1485
g165
(lp1486
(dp1487
g39
(lp1488
I89
aI94
asg156
VSOHO
p1489
sasg170
(lp1490
sg172
(lp1491
(dp1492
g39
(lp1493
I95
aI100
asg156
VSOHO
p1494
sasg35
(lp1495
(dp1496
g33
Vhttps://t.co/PpnvPI1D9D
p1497
sg39
(lp1498
I65
aI88
asg41
Vhttp://ift.tt/1kmPUYW
p1499
sg43
Vift.tt/1kmPUYW
p1500
sassg180
Nsg181
Nsg182
I0
sg68
V664088051585581056
p1501
sg184
I00
sg185
g1458
sg186
Nsg187
Nsg188
I00
sg92
g1479
sg100
VTue Nov 10 14:31:44 +0000 2015
p1502
sg190
Nsg191
Nsg192
(dp1503
g194
Ven
p1504
sg196
Vrecent
p1505
sssg198
g1503
sg199
Nsg200
Nsg31
g1485
sg201
Nsg202
Nsg111
g1501
sg203
I00
sg204
Nsg205
I0
sg206
Nsbag0
(g4
g5
Ntp1506
Rp1507
(dp1508
g9
I00
sg10
Nsg11
I00
sg12
VSotherly Hotels announces earnings. $0.11 EPS. Misses estimates. https://t.co/GWMjpfIKVt $SOHO #SOHO
p1509
sg14
Vhttp://ifttt.com
p1510
sg16
I00
sg17
I00
sg18
Nsg19
g0
(g20
g5
Ntp1511
Rp1512
(dp1513
g24
I00
sg25
I00
sg26
I01
sg27
VE8E8E8
p1514
sg29
I52210566
sg30
I00
sg31
(dp1515
g33
(dp1516
g35
(lp1517
(dp1518
g33
Vhttp://t.co/odTc3pvcAe
p1519
sg39
(lp1520
I0
aI22
asg41
Vhttp://www.americanconsumernews.com/
p1521
sg43
Vamericanconsumernews.com
p1522
sassg45
(dp1523
g35
(lp1524
sssg48
Vhttps://pbs.twimg.com/profile_images/289298274/text_normal.jpg
p1525
sg50
(dp1526
g52
I00
sg53
I00
sg54
I01
sg55
I00
sg56
I52210566
sg57
Vhttps://pbs.twimg.com/profile_background_images/20558354/back.jpg
p1527
sg59
I00
sg60
V333333
p1528
sg62
g1525
sg63
g1514
sg64
g1515
sg65
I1114
sg66
VADADAD
p1529
sg68
V52210566
p1530
sg70
V9AE4E8
p1531
sg72
I96
sg73
I00
sg74
I-21600
sg75
I580839
sg45
VPersonal Finance and Consumer Tips
p1532
sg77
I1412
sg78
VSioux Falls, SD
p1533
sg80
V0084B4
p1534
sg82
Vhttp://pbs.twimg.com/profile_images/289298274/text_normal.jpg
p1535
sg84
I00
sg85
I00
sg88
Vhttp://pbs.twimg.com/profile_background_images/20558354/back.jpg
p1536
sg90
VAmConsumerNews
p1537
sg92
Ven
p1538
sg94
I00
sg95
I0
sg96
VConsumer News
p1539
sg98
I00
sg33
Vhttp://t.co/odTc3pvcAe
p1540
sg100
VMon Jun 29 22:22:08 +0000 2009
p1541
sg102
I00
sg103
VCentral Time (US & Canada)
p1542
sg104
I00
sg105
I00
sg106
I00
ssg107
I00
sg108
g1528
sg109
I1114
sg110
g1529
sg111
g1530
sg112
I00
sg113
I96
sg114
I00
sg115
I-21600
sg116
I580839
sg117
g1532
sg118
I1412
sg119
g1533
sg120
g1534
sg121
g1535
sg122
I00
sg123
I00
sg124
g1531
sg126
g1536
sg127
g1537
sg128
g1538
sg129
I00
sg130
I00
sg131
I0
sg132
g1539
sg133
g1540
sg134
g135
(S'\x07\xd9\x06\x1d\x16\x16\x08\x00\x00\x00'
p1543
tp1544
Rp1545
sg139
g1527
sg140
g1542
sg141
I00
sg142
I00
sg143
I00
sbsg144
Nsg29
L664086950312288256L
sg145
I0
sg146
VIFTTT
p1546
sg128
Ven
p1547
sg149
g1512
sg134
g135
(S'\x07\xdf\x0b\n\x0e\x1b\x15\x00\x00\x00'
p1548
tp1549
Rp1550
sg50
(dp1551
g154
Nsg155
I00
sg156
g1509
sg157
I00
sg158
Nsg56
L664086950312288256L
sg159
I0
sg160
V<a href="http://ifttt.com" rel="nofollow">IFTTT</a>
p1552
sg162
I00
sg163
Nsg64
(dp1553
g165
(lp1554
(dp1555
g39
(lp1556
I89
aI94
asg156
VSOHO
p1557
sasg170
(lp1558
sg172
(lp1559
(dp1560
g39
(lp1561
I95
aI100
asg156
VSOHO
p1562
sasg35
(lp1563
(dp1564
g33
Vhttps://t.co/GWMjpfIKVt
p1565
sg39
(lp1566
I65
aI88
asg41
Vhttp://ift.tt/1kmPUYW
p1567
sg43
Vift.tt/1kmPUYW
p1568
sassg180
Nsg181
Nsg182
I0
sg68
V664086950312288256
p1569
sg184
I00
sg185
g1526
sg186
Nsg187
Nsg188
I00
sg92
g1547
sg100
VTue Nov 10 14:27:21 +0000 2015
p1570
sg190
Nsg191
Nsg192
(dp1571
g194
Ven
p1572
sg196
Vrecent
p1573
sssg198
g1571
sg199
Nsg200
Nsg31
g1553
sg201
Nsg202
Nsg111
g1569
sg203
I00
sg204
Nsg205
I0
sg206
Nsbag0
(g4
g5
Ntp1574
Rp1575
(dp1576
g9
I00
sg10
Nsg11
I00
sg12
VNEW SEC Filing for $SOHO filed a moment ago: https://t.co/Of3w0Jrn5q https://t.co/pAFdNkPCVv
p1577
sg14
Vhttp://www.newsflowing.com
p1578
sg16
I00
sg17
I00
sg18
Nsg19
g0
(g20
g5
Ntp1579
Rp1580
(dp1581
g24
I00
sg25
I00
sg26
I01
sg27
VF3F3F3
p1582
sg29
L2341446434L
sg30
I00
sg31
(dp1583
g45
(dp1584
g35
(lp1585
sssg48
Vhttps://pbs.twimg.com/profile_images/562323085005565953/2Sazc-dB_normal.jpeg
p1586
sg50
(dp1587
g52
I00
sg53
I00
sg54
I01
sg55
I00
sg56
L2341446434L
sg57
Vhttps://abs.twimg.com/images/themes/theme7/bg.gif
p1588
sg59
I00
sg60
V333333
p1589
sg62
g1586
sg63
g1582
sg64
g1583
sg65
I69
sg66
VDFDFDF
p1590
sg68
V2341446434
p1591
sg70
VEBEBEB
p1592
sg72
I6
sg73
I00
sg74
I-14400
sg75
I26716
sg45
g76
sg77
I0
sg78
g76
sg80
V990000
p1593
sg82
Vhttp://pbs.twimg.com/profile_images/562323085005565953/2Sazc-dB_normal.jpeg
p1594
sg84
I00
sg85
I00
sg88
Vhttp://abs.twimg.com/images/themes/theme7/bg.gif
p1595
sg90
VNewsThatIs
p1596
sg92
Ven
p1597
sg94
I00
sg95
I0
sg96
VSEC Filings Reporter
p1598
sg98
I00
sg33
Nsg100
VThu Feb 13 05:31:19 +0000 2014
p1599
sg102
I00
sg103
VAtlantic Time (Canada)
p1600
sg104
I00
sg105
I00
sg106
I00
ssg107
I00
sg108
g1589
sg109
I69
sg110
g1590
sg111
g1591
sg112
I00
sg113
I6
sg114
I00
sg115
I-14400
sg116
I26716
sg117
g76
sg118
I0
sg119
g76
sg120
g1593
sg121
g1594
sg122
I00
sg123
I00
sg124
g1592
sg126
g1595
sg127
g1596
sg128
g1597
sg129
I00
sg130
I00
sg131
I0
sg132
g1598
sg133
Nsg134
g135
(S'\x07\xde\x02\r\x05\x1f\x13\x00\x00\x00'
p1601
tp1602
Rp1603
sg139
g1588
sg140
g1600
sg141
I00
sg142
I00
sg143
I00
sbsg144
Nsg29
L664084740660666368L
sg145
I0
sg146
VNFIG
p1604
sg128
Ven
p1605
sg149
g1580
sg134
g135
(S'\x07\xdf\x0b\n\x0e\x12"\x00\x00\x00'
p1606
tp1607
Rp1608
sg50
(dp1609
g154
Nsg155
I00
sg156
g1577
sg157
I00
sg158
Nsg56
L664084740660666368L
sg159
I0
sg160
V<a href="http://www.newsflowing.com" rel="nofollow">NFIG</a>
p1610
sg162
I00
sg163
Nsg64
(dp1611
g165
(lp1612
(dp1613
g39
(lp1614
I19
aI24
asg156
VSOHO
p1615
sasg170
(lp1616
sg172
(lp1617
sg35
(lp1618
(dp1619
g33
Vhttps://t.co/Of3w0Jrn5q
p1620
sg39
(lp1621
I45
aI68
asg41
Vhttp://stocknewsflow.com/1301236_000156459015010288_0001564590-15-010288
p1622
sg43
Vstocknewsflow.com/1301236_000156\u2026
p1623
sasg540
(lp1624
(dp1625
g41
Vhttp://twitter.com/NewsThatIs/status/664084740660666368/photo/1
p1626
sg43
Vpic.twitter.com/pAFdNkPCVv
p1627
sg33
Vhttps://t.co/pAFdNkPCVv
p1628
sg546
Vhttps://pbs.twimg.com/media/CTdNjZSWsAAPU1u.jpg
p1629
sg68
V664084740539068416
p1630
sg549
(dp1631
g551
(dp1632
g553
I4
sg554
Vfit
p1633
sg556
I4
ssg557
(dp1634
g553
I4
sg554
Vfit
p1635
sg556
I4
ssg560
(dp1636
g553
I4
sg554
Vfit
p1637
sg556
I4
ssg563
(dp1638
g553
I4
sg554
Vcrop
p1639
sg556
I4
sssg39
(lp1640
I69
aI92
asg567
Vphoto
p1641
sg56
L664084740539068416L
sg569
Vhttp://pbs.twimg.com/media/CTdNjZSWsAAPU1u.jpg
p1642
sassg180
Nsg181
Nsg182
I0
sg68
V664084740660666368
p1643
sg184
I00
sg185
g1587
sg186
Nsg187
Nsg188
I00
sg92
g1605
sg100
VTue Nov 10 14:18:34 +0000 2015
p1644
sg190
Nsg191
Nsg192
(dp1645
g194
Ven
p1646
sg196
Vrecent
p1647
sssg198
g1645
sg199
Nsg200
Nsg31
g1611
sg201
Nsg202
Nsg111
g1643
sg203
I00
sg204
Nsg205
I0
sg206
Nsbag0
(g4
g5
Ntp1648
Rp1649
(dp1650
g9
I00
sg10
Nsg11
I00
sg12
V$SOHO received a new alert. Find out why at https://t.co/nZwqReM0tj #stocks #daytrading #trading #mkt  #NYSE #NASDAQ #markets 222
p1651
sg14
Vhttp://www.aheadsup.com/
p1652
sg16
I00
sg17
I00
sg18
Nsg19
g0
(g20
g5
Ntp1653
Rp1654
(dp1655
g24
I00
sg25
I00
sg26
I01
sg27
VDDEEF6
p1656
sg29
I39546678
sg30
I00
sg31
(dp1657
g33
(dp1658
g35
(lp1659
(dp1660
g33
Vhttp://t.co/TlOjBDQQtY
p1661
sg39
(lp1662
I0
aI22
asg41
Vhttp://www.MediaSentiment.com
p1663
sg43
VMediaSentiment.com
p1664
sassg45
(dp1665
g35
(lp1666
(dp1667
g33
Vhttp://t.co/feRZl5QRu9
p1668
sg39
(lp1669
I129
aI151
asg41
Vhttp://www.aheadsup.com
p1670
sg43
Vaheadsup.com
p1671
sasssg48
Vhttps://pbs.twimg.com/profile_images/420277170586394624/5mABm6pI_normal.png
p1672
sg50
(dp1673
g52
I00
sg53
I00
sg54
I01
sg55
I00
sg56
I39546678
sg57
Vhttps://pbs.twimg.com/profile_background_images/378800000163732765/PdOKr6DH.png
p1674
sg59
I00
sg60
V333333
p1675
sg62
g1672
sg63
g1656
sg64
g1657
sg65
I7463
sg66
VFFFFFF
p1676
sg68
V39546678
p1677
sg70
VFFFFFF
p1678
sg72
I87
sg73
I00
sg74
I-28800
sg75
I291238
sg45
VMedia Sentiment helps you to find the news that matters to you from accounts you follow on twitter! New social networking tool: http://t.co/feRZl5QRu9
p1679
sg77
I7208
sg78
g76
sg80
V911955
p1680
sg82
Vhttp://pbs.twimg.com/profile_images/420277170586394624/5mABm6pI_normal.png
p1681
sg84
I00
sg85
I00
sg86
Vhttps://pbs.twimg.com/profile_banners/39546678/1389036891
p1682
sg88
Vhttp://pbs.twimg.com/profile_background_images/378800000163732765/PdOKr6DH.png
p1683
sg90
Vmediasentiment
p1684
sg92
Ven
p1685
sg94
I00
sg95
I4
sg96
VMedia Sentiment
p1686
sg98
I00
sg33
Vhttp://t.co/TlOjBDQQtY
p1687
sg100
VTue May 12 17:21:24 +0000 2009
p1688
sg102
I00
sg103
VPacific Time (US & Canada)
p1689
sg104
I00
sg105
I00
sg106
I00
ssg107
I00
sg108
g1675
sg109
I7463
sg110
g1676
sg111
g1677
sg112
I00
sg113
I87
sg114
I00
sg115
I-28800
sg116
I291238
sg117
g1679
sg118
I7208
sg119
g76
sg120
g1680
sg121
g1681
sg122
I00
sg123
I00
sg124
g1678
sg125
g1682
sg126
g1683
sg127
g1684
sg128
g1685
sg129
I00
sg130
I00
sg131
I4
sg132
g1686
sg133
g1687
sg134
g135
(S'\x07\xd9\x05\x0c\x11\x15\x18\x00\x00\x00'
p1690
tp1691
Rp1692
sg139
g1674
sg140
g1689
sg141
I00
sg142
I00
sg143
I00
sbsg144
Nsg29
L664083139375927296L
sg145
I0
sg146
VSocial Media Sentiment aheadsup
p1693
sg128
Ven
p1694
sg149
g1654
sg134
g135
(S'\x07\xdf\x0b\n\x0e\x0c\r\x00\x00\x00'
p1695
tp1696
Rp1697
sg50
(dp1698
g154
Nsg155
I00
sg156
g1651
sg157
I00
sg158
Nsg56
L664083139375927296L
sg159
I0
sg160
V<a href="http://www.aheadsup.com/" rel="nofollow">Social Media Sentiment aheadsup</a>
p1699
sg162
I00
sg163
Nsg64
(dp1700
g165
(lp1701
(dp1702
g39
(lp1703
I0
aI5
asg156
VSOHO
p1704
sasg170
(lp1705
sg172
(lp1706
(dp1707
g39
(lp1708
I68
aI75
asg156
Vstocks
p1709
sa(dp1710
g39
(lp1711
I76
aI87
asg156
Vdaytrading
p1712
sa(dp1713
g39
(lp1714
I88
aI96
asg156
Vtrading
p1715
sa(dp1716
g39
(lp1717
I97
aI101
asg156
Vmkt
p1718
sa(dp1719
g39
(lp1720
I103
aI108
asg156
VNYSE
p1721
sa(dp1722
g39
(lp1723
I109
aI116
asg156
VNASDAQ
p1724
sa(dp1725
g39
(lp1726
I117
aI125
asg156
Vmarkets
p1727
sasg35
(lp1728
(dp1729
g33
Vhttps://t.co/nZwqReM0tj
p1730
sg39
(lp1731
I44
aI67
asg41
Vhttp://www.mediasentiment.com/
p1732
sg43
Vmediasentiment.com
p1733
sassg180
Nsg181
Nsg182
I0
sg68
V664083139375927296
p1734
sg184
I00
sg185
g1673
sg186
Nsg187
Nsg188
I00
sg92
g1694
sg100
VTue Nov 10 14:12:13 +0000 2015
p1735
sg190
Nsg191
Nsg192
(dp1736
g194
Ven
p1737
sg196
Vrecent
p1738
sssg198
g1736
sg199
Nsg200
Nsg31
g1700
sg201
Nsg202
Nsg111
g1734
sg203
I00
sg204
Nsg205
I0
sg206
Nsbag0
(g4
g5
Ntp1739
Rp1740
(dp1741
g9
I00
sg10
Nsg11
I00
sg12
V$SOHO:\u000a\u000aNew SEC Filing for SOHO: Form 8-K (No. 0001564590-15-010288):\u000a\u000ahttps://t.co/Dy9wyx3SOH
p1742
sg14
Vhttp://www.stocknewswires.com
p1743
sg16
I00
sg17
I00
sg18
Nsg19
g0
(g20
g5
Ntp1744
Rp1745
(dp1746
g24
I00
sg25
I00
sg26
I01
sg27
VDAECF4
p1747
sg29
L2341445778L
sg30
I00
sg31
(dp1748
g45
(dp1749
g35
(lp1750
sssg48
Vhttps://pbs.twimg.com/profile_images/542238326397227008/UfZ0ulTf_normal.jpeg
p1751
sg50
(dp1752
g52
I00
sg53
I00
sg54
I01
sg55
I00
sg56
L2341445778L
sg57
Vhttps://abs.twimg.com/images/themes/theme2/bg.gif
p1753
sg59
I00
sg60
V663B12
p1754
sg62
g1751
sg63
g1747
sg64
g1748
sg65
I660
sg66
VC6E2EE
p1755
sg68
V2341445778
p1756
sg70
VC6E2EE
p1757
sg72
I107
sg73
I00
sg74
I-14400
sg75
I236872
sg45
VInvest like a fish
p1758
sg77
I9
sg78
VUnited States
p1759
sg80
V1F98C7
p1760
sg82
Vhttp://pbs.twimg.com/profile_images/542238326397227008/UfZ0ulTf_normal.jpeg
p1761
sg84
I00
sg85
I00
sg88
Vhttp://abs.twimg.com/images/themes/theme2/bg.gif
p1762
sg90
VStockNewsWires
p1763
sg92
Ven
p1764
sg94
I00
sg95
I0
sg96
VStockNewsWires
p1765
sg98
I00
sg33
Nsg100
VThu Feb 13 05:31:52 +0000 2014
p1766
sg102
I00
sg103
VAtlantic Time (Canada)
p1767
sg104
I00
sg105
I00
sg106
I00
ssg107
I00
sg108
g1754
sg109
I660
sg110
g1755
sg111
g1756
sg112
I00
sg113
I107
sg114
I00
sg115
I-14400
sg116
I236872
sg117
g1758
sg118
I9
sg119
g1759
sg120
g1760
sg121
g1761
sg122
I00
sg123
I00
sg124
g1757
sg126
g1762
sg127
g1763
sg128
g1764
sg129
I00
sg130
I00
sg131
I0
sg132
g1765
sg133
Nsg134
g135
(S'\x07\xde\x02\r\x05\x1f4\x00\x00\x00'
p1768
tp1769
Rp1770
sg139
g1753
sg140
g1767
sg141
I00
sg142
I00
sg143
I00
sbsg144
Nsg29
L664082880897904640L
sg145
I0
sg146
VStockNewsWires
p1771
sg128
Ven
p1772
sg149
g1745
sg134
g135
(S'\x07\xdf\x0b\n\x0e\x0b\x0b\x00\x00\x00'
p1773
tp1774
Rp1775
sg50
(dp1776
g154
Nsg155
I00
sg156
V$SOHO:\u000a\u000aNew SEC Filing for SOHO: Form 8-K (No. 0001564590-15-010288):\u000a\u000ahttps://t.co/Dy9wyx3SOH
p1777
sg157
I00
sg158
Nsg56
L664082880897904640L
sg159
I0
sg160
V<a href="http://www.stocknewswires.com" rel="nofollow">StockNewsWires</a>
p1778
sg162
I00
sg163
Nsg64
(dp1779
g165
(lp1780
(dp1781
g39
(lp1782
I0
aI5
asg156
VSOHO
p1783
sasg170
(lp1784
sg172
(lp1785
sg35
(lp1786
(dp1787
g33
Vhttps://t.co/Dy9wyx3SOH
p1788
sg39
(lp1789
I71
aI94
asg41
Vhttp://StockNewsHour.com/soho-new-sec-filing-for-soho-form-8-k-no-0001564590-15-010288/
p1790
sg43
VStockNewsHour.com/soho-new-sec-f\u2026
p1791
sassg180
Nsg181
Nsg182
I0
sg68
V664082880897904640
p1792
sg184
I00
sg185
g1752
sg186
Nsg187
Nsg188
I00
sg92
g1772
sg100
VTue Nov 10 14:11:11 +0000 2015
p1793
sg190
Nsg191
Nsg192
(dp1794
g194
Ven
p1795
sg196
Vrecent
p1796
sssg198
g1794
sg199
Nsg200
Nsg31
g1779
sg201
Nsg202
Nsg111
g1792
sg203
I00
sg204
Nsg205
I0
sg206
Nsbag0
(g4
g5
Ntp1797
Rp1798
(dp1799
g9
I00
sg10
Nsg11
I00
sg12
VNEW SEC Filing for $SOHO filed a moment ago: https://t.co/Of3w0Jrn5q https://t.co/MiFdLq8FhG
p1800
sg14
Vhttp://www.newsflowing.com
p1801
sg16
I00
sg17
I00
sg18
Nsg19
g0
(g20
g5
Ntp1802
Rp1803
(dp1804
g24
I00
sg25
I00
sg26
I01
sg27
VF3F3F3
p1805
sg29
L2341446434L
sg30
I00
sg31
(dp1806
g45
(dp1807
g35
(lp1808
sssg48
Vhttps://pbs.twimg.com/profile_images/562323085005565953/2Sazc-dB_normal.jpeg
p1809
sg50
(dp1810
g52
I00
sg53
I00
sg54
I01
sg55
I00
sg56
L2341446434L
sg57
Vhttps://abs.twimg.com/images/themes/theme7/bg.gif
p1811
sg59
I00
sg60
V333333
p1812
sg62
g1809
sg63
g1805
sg64
g1806
sg65
I69
sg66
VDFDFDF
p1813
sg68
V2341446434
p1814
sg70
VEBEBEB
p1815
sg72
I6
sg73
I00
sg74
I-14400
sg75
I26716
sg45
g76
sg77
I0
sg78
g76
sg80
V990000
p1816
sg82
Vhttp://pbs.twimg.com/profile_images/562323085005565953/2Sazc-dB_normal.jpeg
p1817
sg84
I00
sg85
I00
sg88
Vhttp://abs.twimg.com/images/themes/theme7/bg.gif
p1818
sg90
VNewsThatIs
p1819
sg92
Ven
p1820
sg94
I00
sg95
I0
sg96
VSEC Filings Reporter
p1821
sg98
I00
sg33
Nsg100
VThu Feb 13 05:31:19 +0000 2014
p1822
sg102
I00
sg103
VAtlantic Time (Canada)
p1823
sg104
I00
sg105
I00
sg106
I00
ssg107
I00
sg108
g1812
sg109
I69
sg110
g1813
sg111
g1814
sg112
I00
sg113
I6
sg114
I00
sg115
I-14400
sg116
I26716
sg117
g76
sg118
I0
sg119
g76
sg120
g1816
sg121
g1817
sg122
I00
sg123
I00
sg124
g1815
sg126
g1818
sg127
g1819
sg128
g1820
sg129
I00
sg130
I00
sg131
I0
sg132
g1821
sg133
Nsg134
g135
(S'\x07\xde\x02\r\x05\x1f\x13\x00\x00\x00'
p1824
tp1825
Rp1826
sg139
g1811
sg140
g1823
sg141
I00
sg142
I00
sg143
I00
sbsg144
Nsg29
L664082751830802432L
sg145
I0
sg146
VNFIG
p1827
sg128
Ven
p1828
sg149
g1803
sg134
g135
(S'\x07\xdf\x0b\n\x0e\n(\x00\x00\x00'
p1829
tp1830
Rp1831
sg50
(dp1832
g154
Nsg155
I00
sg156
g1800
sg157
I00
sg158
Nsg56
L664082751830802432L
sg159
I0
sg160
V<a href="http://www.newsflowing.com" rel="nofollow">NFIG</a>
p1833
sg162
I00
sg163
Nsg64
(dp1834
g165
(lp1835
(dp1836
g39
(lp1837
I19
aI24
asg156
VSOHO
p1838
sasg170
(lp1839
sg172
(lp1840
sg35
(lp1841
(dp1842
g33
Vhttps://t.co/Of3w0Jrn5q
p1843
sg39
(lp1844
I45
aI68
asg41
Vhttp://stocknewsflow.com/1301236_000156459015010288_0001564590-15-010288
p1845
sg43
Vstocknewsflow.com/1301236_000156\u2026
p1846
sasg540
(lp1847
(dp1848
g41
Vhttp://twitter.com/NewsThatIs/status/664082751830802432/photo/1
p1849
sg43
Vpic.twitter.com/MiFdLq8FhG
p1850
sg33
Vhttps://t.co/MiFdLq8FhG
p1851
sg546
Vhttps://pbs.twimg.com/media/CTdLvoiWEAAHRFl.jpg
p1852
sg68
V664082751767842816
p1853
sg549
(dp1854
g551
(dp1855
g553
I4
sg554
Vfit
p1856
sg556
I4
ssg557
(dp1857
g553
I4
sg554
Vfit
p1858
sg556
I4
ssg560
(dp1859
g553
I4
sg554
Vfit
p1860
sg556
I4
ssg563
(dp1861
g553
I4
sg554
Vcrop
p1862
sg556
I4
sssg39
(lp1863
I69
aI92
asg567
Vphoto
p1864
sg56
L664082751767842816L
sg569
Vhttp://pbs.twimg.com/media/CTdLvoiWEAAHRFl.jpg
p1865
sassg180
Nsg181
Nsg182
I0
sg68
V664082751830802432
p1866
sg184
I00
sg185
g1810
sg186
Nsg187
Nsg188
I00
sg92
g1828
sg100
VTue Nov 10 14:10:40 +0000 2015
p1867
sg190
Nsg191
Nsg192
(dp1868
g194
Ven
p1869
sg196
Vrecent
p1870
sssg198
g1868
sg199
Nsg200
Nsg31
g1834
sg201
Nsg202
Nsg111
g1866
sg203
I00
sg204
Nsg205
I0
sg206
Nsbag0
(g4
g5
Ntp1871
Rp1872
(dp1873
g9
I00
sg10
Nsg11
I00
sg12
VSoTHERLY Hotels misses by $0.13, misses on revenue https://t.co/AfDJ0Ibb7G #premarket $SOHO
p1874
sg14
Vhttp://seekingalpha.com
p1875
sg16
I00
sg17
I00
sg18
Nsg19
g0
(g20
g5
Ntp1876
Rp1877
(dp1878
g24
I00
sg25
I00
sg26
I01
sg27
VDDEEF6
p1879
sg29
I207441033
sg30
I00
sg31
(dp1880
g45
(dp1881
g35
(lp1882
sssg48
Vhttps://pbs.twimg.com/profile_images/628450795533414401/xwE4BfP__normal.jpg
p1883
sg50
(dp1884
g52
I00
sg53
I00
sg54
I01
sg55
I00
sg56
I207441033
sg57
Vhttps://abs.twimg.com/images/themes/theme1/bg.png
p1885
sg59
I00
sg60
V333333
p1886
sg62
g1883
sg63
g1879
sg64
g1880
sg65
I135
sg66
VC0DEED
p1887
sg68
V207441033
p1888
sg70
VC0DEED
p1889
sg72
I30
sg73
I01
sg74
I7200
sg75
I30085
sg45
g76
sg77
I1
sg78
g76
sg80
V0084B4
p1890
sg82
Vhttp://pbs.twimg.com/profile_images/628450795533414401/xwE4BfP__normal.jpg
p1891
sg84
I00
sg85
I00
sg86
Vhttps://pbs.twimg.com/profile_banners/207441033/1438669732
p1892
sg88
Vhttp://abs.twimg.com/images/themes/theme1/bg.png
p1893
sg90
VSA_FACTSET
p1894
sg92
Ven
p1895
sg94
I00
sg95
I0
sg96
VSeeking Alpha
p1896
sg98
I00
sg33
Nsg100
VMon Oct 25 10:13:55 +0000 2010
p1897
sg102
I00
sg103
VBucharest
p1898
sg104
I00
sg105
I01
sg106
I00
ssg107
I00
sg108
g1886
sg109
I135
sg110
g1887
sg111
g1888
sg112
I00
sg113
I30
sg114
I01
sg115
I7200
sg116
I30085
sg117
g76
sg118
I1
sg119
g76
sg120
g1890
sg121
g1891
sg122
I00
sg123
I00
sg124
g1889
sg125
g1892
sg126
g1893
sg127
g1894
sg128
g1895
sg129
I00
sg130
I00
sg131
I0
sg132
g1896
sg133
Nsg134
g135
(S'\x07\xda\n\x19\n\r7\x00\x00\x00'
p1899
tp1900
Rp1901
sg139
g1885
sg140
g1898
sg141
I00
sg142
I01
sg143
I00
sbsg144
Nsg29
L664082296899661825L
sg145
I0
sg146
VSeeking Alpha
p1902
sg128
Ven
p1903
sg149
g1877
sg134
g135
(S'\x07\xdf\x0b\n\x0e\x084\x00\x00\x00'
p1904
tp1905
Rp1906
sg50
(dp1907
g154
Nsg155
I00
sg156
g1874
sg157
I00
sg158
Nsg56
L664082296899661825L
sg159
I0
sg160
V<a href="http://seekingalpha.com" rel="nofollow">Seeking Alpha</a>
p1908
sg162
I00
sg163
Nsg64
(dp1909
g165
(lp1910
(dp1911
g39
(lp1912
I86
aI91
asg156
VSOHO
p1913
sasg170
(lp1914
sg172
(lp1915
(dp1916
g39
(lp1917
I75
aI85
asg156
Vpremarket
p1918
sasg35
(lp1919
(dp1920
g33
Vhttps://t.co/AfDJ0Ibb7G
p1921
sg39
(lp1922
I51
aI74
asg41
Vhttp://seekingalpha.com/news/2916906-sotherly-hotels-misses-by-0_13-misses-on-revenue?source=twitter_sa_factset
p1923
sg43
Vseekingalpha.com/news/2916906-s\u2026
p1924
sassg180
Nsg181
Nsg182
I0
sg68
V664082296899661825
p1925
sg184
I00
sg185
g1884
sg186
Nsg187
Nsg188
I00
sg92
g1903
sg100
VTue Nov 10 14:08:52 +0000 2015
p1926
sg190
Nsg191
Nsg192
(dp1927
g194
Ven
p1928
sg196
Vrecent
p1929
sssg198
g1927
sg199
Nsg200
Nsg31
g1909
sg201
Nsg202
Nsg111
g1925
sg203
I00
sg204
Nsg205
I0
sg206
Nsbag0
(g4
g5
Ntp1930
Rp1931
(dp1932
g9
I00
sg10
Nsg11
I00
sg12
VSoTHERLY Hotels misses by $0.13, misses on revenue https://t.co/wUtdfJzmpP #premarket $SOHO
p1933
sg14
Vhttp://seekingalpha.com
p1934
sg16
I00
sg17
I00
sg18
Nsg19
g0
(g20
g5
Ntp1935
Rp1936
(dp1937
g24
I00
sg25
I00
sg26
I00
sg27
VDDEEF6
p1938
sg29
L2999680401L
sg30
I00
sg31
(dp1939
g33
(dp1940
g35
(lp1941
(dp1942
g33
Vhttp://t.co/5I1XB8gaU7
p1943
sg39
(lp1944
I0
aI22
asg41
Vhttp://seekingalpha.com/news/financials
p1945
sg43
Vseekingalpha.com/news/financials
p1946
sassg45
(dp1947
g35
(lp1948
(dp1949
g33
Vhttps://t.co/IA82A8AOS3
p1950
sg39
(lp1951
I91
aI114
asg41
Vhttps://twitter.com/SeekingAlpha/following
p1952
sg43
Vtwitter.com/SeekingAlpha/f\u2026
p1953
sasssg48
Vhttps://pbs.twimg.com/profile_images/559721131364478977/qrBH69mU_normal.png
p1954
sg50
(dp1955
g52
I00
sg53
I00
sg54
I00
sg55
I00
sg56
L2999680401L
sg57
Vhttps://abs.twimg.com/images/themes/theme1/bg.png
p1956
sg59
I00
sg60
V333333
p1957
sg62
g1954
sg63
g1938
sg64
g1939
sg65
I966
sg66
VC0DEED
p1958
sg68
V2999680401
p1959
sg70
VC0DEED
p1960
sg72
I33
sg73
I01
sg74
I7200
sg75
I12972
sg45
VBreaking news and analysis of financials from Seeking Alpha. For all SA Twitter feeds, see https://t.co/IA82A8AOS3
p1961
sg77
I32
sg78
g76
sg80
V360000
p1962
sg82
Vhttp://pbs.twimg.com/profile_images/559721131364478977/qrBH69mU_normal.png
p1963
sg84
I00
sg85
I00
sg88
Vhttp://abs.twimg.com/images/themes/theme1/bg.png
p1964
sg90
VSA_FinancialInv
p1965
sg92
Ven
p1966
sg94
I00
sg95
I0
sg96
VFinancial Stocks
p1967
sg98
I00
sg33
Vhttp://t.co/5I1XB8gaU7
p1968
sg100
VMon Jan 26 14:32:39 +0000 2015
p1969
sg102
I00
sg103
VBucharest
p1970
sg104
I00
sg105
I00
sg106
I00
ssg107
I00
sg108
g1957
sg109
I966
sg110
g1958
sg111
g1959
sg112
I00
sg113
I33
sg114
I01
sg115
I7200
sg116
I12972
sg117
g1961
sg118
I32
sg119
g76
sg120
g1962
sg121
g1963
sg122
I00
sg123
I00
sg124
g1960
sg126
g1964
sg127
g1965
sg128
g1966
sg129
I00
sg130
I00
sg131
I0
sg132
g1967
sg133
g1968
sg134
g135
(S"\x07\xdf\x01\x1a\x0e '\x00\x00\x00"
p1971
tp1972
Rp1973
sg139
g1956
sg140
g1970
sg141
I00
sg142
I00
sg143
I00
sbsg144
Nsg29
L664082295624593408L
sg145
I0
sg146
VSeeking Alpha
p1974
sg128
Ven
p1975
sg149
g1936
sg134
g135
(S'\x07\xdf\x0b\n\x0e\x083\x00\x00\x00'
p1976
tp1977
Rp1978
sg50
(dp1979
g154
Nsg155
I00
sg156
g1933
sg157
I00
sg158
Nsg56
L664082295624593408L
sg159
I0
sg160
V<a href="http://seekingalpha.com" rel="nofollow">Seeking Alpha</a>
p1980
sg162
I00
sg163
Nsg64
(dp1981
g165
(lp1982
(dp1983
g39
(lp1984
I86
aI91
asg156
VSOHO
p1985
sasg170
(lp1986
sg172
(lp1987
(dp1988
g39
(lp1989
I75
aI85
asg156
Vpremarket
p1990
sasg35
(lp1991
(dp1992
g33
Vhttps://t.co/wUtdfJzmpP
p1993
sg39
(lp1994
I51
aI74
asg41
Vhttp://seekingalpha.com/news/2916906-sotherly-hotels-misses-by-0_13-misses-on-revenue?source=twitter_sa_financialinv
p1995
sg43
Vseekingalpha.com/news/2916906-s\u2026
p1996
sassg180
Nsg181
Nsg182
I0
sg68
V664082295624593408
p1997
sg184
I00
sg185
g1955
sg186
Nsg187
Nsg188
I00
sg92
g1975
sg100
VTue Nov 10 14:08:51 +0000 2015
p1998
sg190
Nsg191
Nsg192
(dp1999
g194
Ven
p2000
sg196
Vrecent
p2001
sssg198
g1999
sg199
Nsg200
Nsg31
g1981
sg201
Nsg202
Nsg111
g1997
sg203
I00
sg204
Nsg205
I0
sg206
Nsbag0
(g4
g5
Ntp2002
Rp2003
(dp2004
g9
I00
sg10
Nsg11
I00
sg12
VSoTHERLY Hotels misses by $0.13, misses on revenue https://t.co/f1nQEgXaPX #premarket $SOHO
p2005
sg14
Vhttp://seekingalpha.com
p2006
sg16
I00
sg17
I00
sg18
Nsg19
g0
(g20
g5
Ntp2007
Rp2008
(dp2009
g24
I00
sg25
I00
sg26
I00
sg27
VF3F3F3
p2010
sg29
I15296897
sg30
I00
sg31
(dp2011
g33
(dp2012
g35
(lp2013
(dp2014
g33
Vhttp://t.co/K8mUqhVprF
p2015
sg39
(lp2016
I0
aI22
asg41
Vhttp://seekingalpha.com/news/all
p2017
sg43
Vseekingalpha.com/news/all
p2018
sassg45
(dp2019
g35
(lp2020
(dp2021
g33
Vhttps://t.co/nzLmsIKexy
p2022
sg39
(lp2023
I96
aI119
asg41
Vhttps://twitter.com/SeekingAlpha/following
p2024
sg43
Vtwitter.com/SeekingAlpha/f\u2026
p2025
sasssg48
Vhttps://pbs.twimg.com/profile_images/562235643225309184/BbO5bjbH_normal.png
p2026
sg50
(dp2027
g52
I00
sg53
I00
sg54
I00
sg55
I00
sg56
I15296897
sg57
Vhttps://pbs.twimg.com/profile_background_images/378800000040521500/f26581d4dd97008e0985dcfede25018e.png
p2028
sg59
I00
sg60
V000000
p2029
sg62
g2026
sg63
g2010
sg64
g2011
sg65
I19259
sg66
VFFFFFF
p2030
sg68
V15296897
p2031
sg70
VC0DEED
p2032
sg72
I1035
sg73
I00
sg74
I-10800
sg75
I373319
sg45
VReal-time stock market news from Seeking Alpha. See all options for Seeking Alpha on Twitter at https://t.co/nzLmsIKexy
p2033
sg77
I33
sg78
VNew York
p2034
sg80
V360000
p2035
sg82
Vhttp://pbs.twimg.com/profile_images/562235643225309184/BbO5bjbH_normal.png
p2036
sg84
I00
sg85
I00
sg88
Vhttp://pbs.twimg.com/profile_background_images/378800000040521500/f26581d4dd97008e0985dcfede25018e.png
p2037
sg90
VMarketCurrents
p2038
sg92
Ven
p2039
sg94
I00
sg95
I0
sg96
VBreaking News
p2040
sg98
I00
sg33
Vhttp://t.co/K8mUqhVprF
p2041
sg100
VWed Jul 02 10:38:58 +0000 2008
p2042
sg102
I00
sg103
VSantiago
p2043
sg104
I00
sg105
I00
sg106
I00
ssg107
I00
sg108
g2029
sg109
I19259
sg110
g2030
sg111
g2031
sg112
I00
sg113
I1035
sg114
I00
sg115
I-10800
sg116
I373319
sg117
g2033
sg118
I33
sg119
g2034
sg120
g2035
sg121
g2036
sg122
I00
sg123
I00
sg124
g2032
sg126
g2037
sg127
g2038
sg128
g2039
sg129
I00
sg130
I00
sg131
I0
sg132
g2040
sg133
g2041
sg134
g135
(S'\x07\xd8\x07\x02\n&:\x00\x00\x00'
p2044
tp2045
Rp2046
sg139
g2028
sg140
g2043
sg141
I00
sg142
I00
sg143
I00
sbsg144
Nsg29
L664082293795913729L
sg145
I0
sg146
VSeeking Alpha
p2047
sg128
Ven
p2048
sg149
g2008
sg134
g135
(S'\x07\xdf\x0b\n\x0e\x083\x00\x00\x00'
p2049
tp2050
Rp2051
sg50
(dp2052
g154
Nsg155
I00
sg156
g2005
sg157
I00
sg158
Nsg56
L664082293795913729L
sg159
I0
sg160
V<a href="http://seekingalpha.com" rel="nofollow">Seeking Alpha</a>
p2053
sg162
I00
sg163
Nsg64
(dp2054
g165
(lp2055
(dp2056
g39
(lp2057
I86
aI91
asg156
VSOHO
p2058
sasg170
(lp2059
sg172
(lp2060
(dp2061
g39
(lp2062
I75
aI85
asg156
Vpremarket
p2063
sasg35
(lp2064
(dp2065
g33
Vhttps://t.co/f1nQEgXaPX
p2066
sg39
(lp2067
I51
aI74
asg41
Vhttp://seekingalpha.com/news/2916906-sotherly-hotels-misses-by-0_13-misses-on-revenue?source=feed_f
p2068
sg43
Vseekingalpha.com/news/2916906-s\u2026
p2069
sassg180
Nsg181
Nsg182
I0
sg68
V664082293795913729
p2070
sg184
I00
sg185
g2027
sg186
Nsg187
Nsg188
I00
sg92
g2048
sg100
VTue Nov 10 14:08:51 +0000 2015
p2071
sg190
Nsg191
Nsg192
(dp2072
g194
Ven
p2073
sg196
Vrecent
p2074
sssg198
g2072
sg199
Nsg200
Nsg31
g2054
sg201
Nsg202
Nsg111
g2070
sg203
I00
sg204
Nsg205
I0
sg206
Nsbag0
(g4
g5
Ntp2075
Rp2076
(dp2077
g9
I00
sg10
Nsg11
I00
sg12
V$SOHO:\u000a\u000aSotherly Hotels Inc. Reports Financial Results for the Third Quarter \u2026:\u000a\u000ahttps://t.co/iBWwVG2fFb
p2078
sg14
Vhttp://fnsappbg.blogspot.com/
p2079
sg16
I00
sg17
I00
sg18
Nsg19
g0
(g20
g5
Ntp2080
Rp2081
(dp2082
g24
I00
sg25
I00
sg26
I01
sg27
VDDEEF6
p2083
sg29
L2881595931L
sg30
I00
sg31
(dp2084
g45
(dp2085
g35
(lp2086
sssg48
Vhttps://pbs.twimg.com/profile_images/542392174428434432/PfyzCfya_normal.jpeg
p2087
sg50
(dp2088
g52
I00
sg53
I00
sg54
I01
sg55
I00
sg56
L2881595931L
sg57
Vhttps://abs.twimg.com/images/themes/theme1/bg.png
p2089
sg59
I00
sg60
V333333
p2090
sg62
g2087
sg63
g2083
sg64
g2084
sg65
I593
sg66
VC0DEED
p2091
sg68
V2881595931
p2092
sg70
VC0DEED
p2093
sg72
I90
sg73
I00
sg74
I-18000
sg75
I235203
sg45
g76
sg77
I6
sg78
g76
sg80
V0084B4
p2094
sg82
Vhttp://pbs.twimg.com/profile_images/542392174428434432/PfyzCfya_normal.jpeg
p2095
sg84
I00
sg85
I00
sg88
Vhttp://abs.twimg.com/images/themes/theme1/bg.png
p2096
sg90
VProVesting
p2097
sg92
Ven
p2098
sg94
I00
sg95
I0
sg96
VProVesting
p2099
sg98
I00
sg33
Nsg100
VMon Nov 17 20:15:38 +0000 2014
p2100
sg102
I00
sg103
VEastern Time (US & Canada)
p2101
sg104
I00
sg105
I01
sg106
I00
ssg107
I00
sg108
g2090
sg109
I593
sg110
g2091
sg111
g2092
sg112
I00
sg113
I90
sg114
I00
sg115
I-18000
sg116
I235203
sg117
g76
sg118
I6
sg119
g76
sg120
g2094
sg121
g2095
sg122
I00
sg123
I00
sg124
g2093
sg126
g2096
sg127
g2097
sg128
g2098
sg129
I00
sg130
I00
sg131
I0
sg132
g2099
sg133
Nsg134
g135
(S'\x07\xde\x0b\x11\x14\x0f&\x00\x00\x00'
p2102
tp2103
Rp2104
sg139
g2089
sg140
g2101
sg141
I00
sg142
I01
sg143
I00
sbsg144
Nsg29
L664082134299230208L
sg145
I0
sg146
VFNS_APP
p2105
sg128
Ven
p2106
sg149
g2081
sg134
g135
(S'\x07\xdf\x0b\n\x0e\x08\r\x00\x00\x00'
p2107
tp2108
Rp2109
sg50
(dp2110
g154
Nsg155
I00
sg156
V$SOHO:\u000a\u000aSotherly Hotels Inc. Reports Financial Results for the Third Quarter \u2026:\u000a\u000ahttps://t.co/iBWwVG2fFb
p2111
sg157
I00
sg158
Nsg56
L664082134299230208L
sg159
I0
sg160
V<a href="http://fnsappbg.blogspot.com/" rel="nofollow">FNS_APP</a>
p2112
sg162
I00
sg163
Nsg64
(dp2113
g165
(lp2114
(dp2115
g39
(lp2116
I0
aI5
asg156
VSOHO
p2117
sasg170
(lp2118
sg172
(lp2119
sg35
(lp2120
(dp2121
g33
Vhttps://t.co/iBWwVG2fFb
p2122
sg39
(lp2123
I81
aI104
asg41
Vhttp://StockNewsHour.com/soho-sotherly-hotels-inc-reports-financial-results-for-the-third-quarter/
p2124
sg43
VStockNewsHour.com/soho-sotherly-\u2026
p2125
sassg180
Nsg181
Nsg182
I0
sg68
V664082134299230208
p2126
sg184
I00
sg185
g2088
sg186
Nsg187
Nsg188
I00
sg92
g2106
sg100
VTue Nov 10 14:08:13 +0000 2015
p2127
sg190
Nsg191
Nsg192
(dp2128
g194
Ven
p2129
sg196
Vrecent
p2130
sssg198
g2128
sg199
Nsg200
Nsg31
g2113
sg201
Nsg202
Nsg111
g2126
sg203
I00
sg204
Nsg205
I0
sg206
Nsbag0
(g4
g5
Ntp2131
Rp2132
(dp2133
g9
I00
sg10
Nsg11
I00
sg12
VSotherly Hotels Inc. Reports Financial Results for the Third Quarter 2015 $SOHO https://t.co/A6tpAQ0xJk
p2134
sg14
Vhttp://globenewswire.com
p2135
sg16
I00
sg17
I00
sg18
Nsg19
g0
(g20
g5
Ntp2136
Rp2137
(dp2138
g24
I00
sg25
I00
sg26
I01
sg27
VDDEEF6
p2139
sg29
I438816954
sg30
I00
sg31
(dp2140
g33
(dp2141
g35
(lp2142
(dp2143
g33
Vhttp://t.co/wcNS0H8hwT
p2144
sg39
(lp2145
I0
aI22
asg41
Vhttp://globenewswire.com
p2146
sg43
Vglobenewswire.com
p2147
sassg45
(dp2148
g35
(lp2149
sssg48
Vhttps://pbs.twimg.com/profile_images/456885923221753857/TSrk7Sxb_normal.png
p2150
sg50
(dp2151
g52
I00
sg53
I00
sg54
I01
sg55
I00
sg56
I438816954
sg57
Vhttps://abs.twimg.com/images/themes/theme1/bg.png
p2152
sg59
I00
sg60
V333333
p2153
sg62
g2150
sg63
g2139
sg64
g2140
sg65
I284
sg66
VC0DEED
p2154
sg68
V438816954
p2155
sg70
VC0DEED
p2156
sg72
I61
sg73
I00
sg74
I-28800
sg75
I205695
sg45
VThe latest live news and press releases - directly from GlobeNewswire.
p2157
sg77
I260
sg78
VGlobal
p2158
sg80
V0084B4
p2159
sg82
Vhttp://pbs.twimg.com/profile_images/456885923221753857/TSrk7Sxb_normal.png
p2160
sg84
I00
sg85
I00
sg88
Vhttp://abs.twimg.com/images/themes/theme1/bg.png
p2161
sg90
VGNWLive
p2162
sg92
Ven
p2163
sg94
I00
sg95
I0
sg96
VGNWLive
p2164
sg98
I00
sg33
Vhttp://t.co/wcNS0H8hwT
p2165
sg100
VSat Dec 17 01:58:33 +0000 2011
p2166
sg102
I00
sg103
VPacific Time (US & Canada)
p2167
sg104
I00
sg105
I01
sg106
I00
ssg107
I00
sg108
g2153
sg109
I284
sg110
g2154
sg111
g2155
sg112
I00
sg113
I61
sg114
I00
sg115
I-28800
sg116
I205695
sg117
g2157
sg118
I260
sg119
g2158
sg120
g2159
sg121
g2160
sg122
I00
sg123
I00
sg124
g2156
sg126
g2161
sg127
g2162
sg128
g2163
sg129
I00
sg130
I00
sg131
I0
sg132
g2164
sg133
g2165
sg134
g135
(S'\x07\xdb\x0c\x11\x01:!\x00\x00\x00'
p2168
tp2169
Rp2170
sg139
g2152
sg140
g2167
sg141
I00
sg142
I01
sg143
I00
sbsg144
Nsg29
L664080877828349956L
sg145
I0
sg146
VGNWLive
p2171
sg128
Ven
p2172
sg149
g2137
sg134
g135
(S'\x07\xdf\x0b\n\x0e\x03\r\x00\x00\x00'
p2173
tp2174
Rp2175
sg50
(dp2176
g154
Nsg155
I00
sg156
g2134
sg157
I00
sg158
Nsg56
L664080877828349956L
sg159
I0
sg160
V<a href="http://globenewswire.com" rel="nofollow">GNWLive</a>
p2177
sg162
I00
sg163
Nsg64
(dp2178
g165
(lp2179
(dp2180
g39
(lp2181
I74
aI79
asg156
VSOHO
p2182
sasg170
(lp2183
sg172
(lp2184
sg35
(lp2185
(dp2186
g33
Vhttps://t.co/A6tpAQ0xJk
p2187
sg39
(lp2188
I80
aI103
asg41
Vhttp://bit.ly/1SfwCio
p2189
sg43
Vbit.ly/1SfwCio
p2190
sassg180
Nsg181
Nsg182
I0
sg68
V664080877828349956
p2191
sg184
I00
sg185
g2151
sg186
Nsg187
Nsg188
I00
sg92
g2172
sg100
VTue Nov 10 14:03:13 +0000 2015
p2192
sg190
Nsg191
Nsg192
(dp2193
g194
Ven
p2194
sg196
Vrecent
p2195
sssg198
g2193
sg199
Nsg200
Nsg31
g2178
sg201
Nsg202
Nsg111
g2191
sg203
I00
sg204
Nsg205
I0
sg206
Nsbag0
(g4
g5
Ntp2196
Rp2197
(dp2198
g9
I00
sg10
Nsg11
I00
sg12
V$SOHO:\u000a\u000aZacks Lowers Sotherly Hotels to Sell (SOHO):\u000a\u000ahttps://t.co/Yqw0BxLeO8
p2199
sg14
Vhttp://www.newsflowing.com
p2200
sg16
I00
sg17
I00
sg18
Nsg19
g0
(g20
g5
Ntp2201
Rp2202
(dp2203
g24
I00
sg25
I00
sg26
I01
sg27
VE6F6F9
p2204
sg29
L2342215530L
sg30
I00
sg31
(dp2205
g45
(dp2206
g35
(lp2207
sssg48
Vhttps://pbs.twimg.com/profile_images/544036492876591104/7QJIB-XK_normal.jpeg
p2208
sg50
(dp2209
g52
I00
sg53
I00
sg54
I01
sg55
I00
sg56
L2342215530L
sg57
Vhttps://abs.twimg.com/images/themes/theme17/bg.gif
p2210
sg59
I00
sg60
V333333
p2211
sg62
g2208
sg63
g2204
sg64
g2205
sg65
I465
sg66
VDBE9ED
p2212
sg68
V2342215530
p2213
sg70
VDBE9ED
p2214
sg72
I89
sg73
I00
sg74
I-14400
sg75
I192995
sg45
g76
sg77
I0
sg78
g76
sg80
VCC3366
p2215
sg82
Vhttp://pbs.twimg.com/profile_images/544036492876591104/7QJIB-XK_normal.jpeg
p2216
sg84
I00
sg85
I00
sg88
Vhttp://abs.twimg.com/images/themes/theme17/bg.gif
p2217
sg90
Vnewswithvalue
p2218
sg92
Ven
p2219
sg94
I00
sg95
I0
sg96
VBreaking News Now
p2220
sg98
I00
sg33
Nsg100
VThu Feb 13 16:14:12 +0000 2014
p2221
sg102
I00
sg103
VAtlantic Time (Canada)
p2222
sg104
I00
sg105
I00
sg106
I00
ssg107
I00
sg108
g2211
sg109
I465
sg110
g2212
sg111
g2213
sg112
I00
sg113
I89
sg114
I00
sg115
I-14400
sg116
I192995
sg117
g76
sg118
I0
sg119
g76
sg120
g2215
sg121
g2216
sg122
I00
sg123
I00
sg124
g2214
sg126
g2217
sg127
g2218
sg128
g2219
sg129
I00
sg130
I00
sg131
I0
sg132
g2220
sg133
Nsg134
g135
(S'\x07\xde\x02\r\x10\x0e\x0c\x00\x00\x00'
p2223
tp2224
Rp2225
sg139
g2210
sg140
g2222
sg141
I00
sg142
I00
sg143
I00
sbsg144
Nsg29
L664041570082168832L
sg145
I0
sg146
VNFIG
p2226
sg128
Ven
p2227
sg149
g2202
sg134
g135
(S'\x07\xdf\x0b\n\x0b\x1b\x02\x00\x00\x00'
p2228
tp2229
Rp2230
sg50
(dp2231
g154
Nsg155
I00
sg156
V$SOHO:\u000a\u000aZacks Lowers Sotherly Hotels to Sell (SOHO):\u000a\u000ahttps://t.co/Yqw0BxLeO8
p2232
sg157
I00
sg158
Nsg56
L664041570082168832L
sg159
I0
sg160
V<a href="http://www.newsflowing.com" rel="nofollow">NFIG</a>
p2233
sg162
I00
sg163
Nsg64
(dp2234
g165
(lp2235
(dp2236
g39
(lp2237
I0
aI5
asg156
VSOHO
p2238
sasg170
(lp2239
sg172
(lp2240
sg35
(lp2241
(dp2242
g33
Vhttps://t.co/Yqw0BxLeO8
p2243
sg39
(lp2244
I54
aI77
asg41
Vhttp://StockNewsHour.com/soho-zacks-lowers-sotherly-hotels-to-sell-soho/
p2245
sg43
VStockNewsHour.com/soho-zacks-low\u2026
p2246
sassg180
Nsg181
Nsg182
I0
sg68
V664041570082168832
p2247
sg184
I00
sg185
g2209
sg186
Nsg187
Nsg188
I00
sg92
g2227
sg100
VTue Nov 10 11:27:02 +0000 2015
p2248
sg190
Nsg191
Nsg192
(dp2249
g194
Ven
p2250
sg196
Vrecent
p2251
sssg198
g2249
sg199
Nsg200
Nsg31
g2234
sg201
Nsg202
Nsg111
g2247
sg203
I00
sg204
Nsg205
I0
sg206
Nsbag0
(g4
g5
Ntp2252
Rp2253
(dp2254
g9
I00
sg10
Nsg11
I00
sg12
V$SOHO received a new alert. Find out why at https://t.co/nZwqReM0tj #stocks #daytrading #trading #mkt  #NYSE #NASDAQ #markets 34
p2255
sg14
Vhttp://www.aheadsup.com/
p2256
sg16
I00
sg17
I00
sg18
Nsg19
g0
(g20
g5
Ntp2257
Rp2258
(dp2259
g24
I00
sg25
I00
sg26
I01
sg27
VDDEEF6
p2260
sg29
I39546678
sg30
I00
sg31
(dp2261
g33
(dp2262
g35
(lp2263
(dp2264
g33
Vhttp://t.co/TlOjBDQQtY
p2265
sg39
(lp2266
I0
aI22
asg41
Vhttp://www.MediaSentiment.com
p2267
sg43
VMediaSentiment.com
p2268
sassg45
(dp2269
g35
(lp2270
(dp2271
g33
Vhttp://t.co/feRZl5QRu9
p2272
sg39
(lp2273
I129
aI151
asg41
Vhttp://www.aheadsup.com
p2274
sg43
Vaheadsup.com
p2275
sasssg48
Vhttps://pbs.twimg.com/profile_images/420277170586394624/5mABm6pI_normal.png
p2276
sg50
(dp2277
g52
I00
sg53
I00
sg54
I01
sg55
I00
sg56
I39546678
sg57
Vhttps://pbs.twimg.com/profile_background_images/378800000163732765/PdOKr6DH.png
p2278
sg59
I00
sg60
V333333
p2279
sg62
g2276
sg63
g2260
sg64
g2261
sg65
I7463
sg66
VFFFFFF
p2280
sg68
V39546678
p2281
sg70
VFFFFFF
p2282
sg72
I87
sg73
I00
sg74
I-28800
sg75
I291238
sg45
VMedia Sentiment helps you to find the news that matters to you from accounts you follow on twitter! New social networking tool: http://t.co/feRZl5QRu9
p2283
sg77
I7208
sg78
g76
sg80
V911955
p2284
sg82
Vhttp://pbs.twimg.com/profile_images/420277170586394624/5mABm6pI_normal.png
p2285
sg84
I00
sg85
I00
sg86
Vhttps://pbs.twimg.com/profile_banners/39546678/1389036891
p2286
sg88
Vhttp://pbs.twimg.com/profile_background_images/378800000163732765/PdOKr6DH.png
p2287
sg90
Vmediasentiment
p2288
sg92
Ven
p2289
sg94
I00
sg95
I4
sg96
VMedia Sentiment
p2290
sg98
I00
sg33
Vhttp://t.co/TlOjBDQQtY
p2291
sg100
VTue May 12 17:21:24 +0000 2009
p2292
sg102
I00
sg103
VPacific Time (US & Canada)
p2293
sg104
I00
sg105
I00
sg106
I00
ssg107
I00
sg108
g2279
sg109
I7463
sg110
g2280
sg111
g2281
sg112
I00
sg113
I87
sg114
I00
sg115
I-28800
sg116
I291238
sg117
g2283
sg118
I7208
sg119
g76
sg120
g2284
sg121
g2285
sg122
I00
sg123
I00
sg124
g2282
sg125
g2286
sg126
g2287
sg127
g2288
sg128
g2289
sg129
I00
sg130
I00
sg131
I4
sg132
g2290
sg133
g2291
sg134
g135
(S'\x07\xd9\x05\x0c\x11\x15\x18\x00\x00\x00'
p2294
tp2295
Rp2296
sg139
g2278
sg140
g2293
sg141
I00
sg142
I00
sg143
I00
sbsg144
Nsg29
L663988664519667712L
sg145
I0
sg146
VSocial Media Sentiment aheadsup
p2297
sg128
Ven
p2298
sg149
g2258
sg134
g135
(S'\x07\xdf\x0b\n\x0780\x00\x00\x00'
p2299
tp2300
Rp2301
sg50
(dp2302
g154
Nsg155
I00
sg156
g2255
sg157
I00
sg158
Nsg56
L663988664519667712L
sg159
I0
sg160
V<a href="http://www.aheadsup.com/" rel="nofollow">Social Media Sentiment aheadsup</a>
p2303
sg162
I00
sg163
Nsg64
(dp2304
g165
(lp2305
(dp2306
g39
(lp2307
I0
aI5
asg156
VSOHO
p2308
sasg170
(lp2309
sg172
(lp2310
(dp2311
g39
(lp2312
I68
aI75
asg156
Vstocks
p2313
sa(dp2314
g39
(lp2315
I76
aI87
asg156
Vdaytrading
p2316
sa(dp2317
g39
(lp2318
I88
aI96
asg156
Vtrading
p2319
sa(dp2320
g39
(lp2321
I97
aI101
asg156
Vmkt
p2322
sa(dp2323
g39
(lp2324
I103
aI108
asg156
VNYSE
p2325
sa(dp2326
g39
(lp2327
I109
aI116
asg156
VNASDAQ
p2328
sa(dp2329
g39
(lp2330
I117
aI125
asg156
Vmarkets
p2331
sasg35
(lp2332
(dp2333
g33
Vhttps://t.co/nZwqReM0tj
p2334
sg39
(lp2335
I44
aI67
asg41
Vhttp://www.mediasentiment.com/
p2336
sg43
Vmediasentiment.com
p2337
sassg180
Nsg181
Nsg182
I0
sg68
V663988664519667712
p2338
sg184
I00
sg185
g2277
sg186
Nsg187
Nsg188
I00
sg92
g2298
sg100
VTue Nov 10 07:56:48 +0000 2015
p2339
sg190
Nsg191
Nsg192
(dp2340
g194
Ven
p2341
sg196
Vrecent
p2342
sssg198
g2340
sg199
Nsg200
Nsg31
g2304
sg201
Nsg202
Nsg111
g2338
sg203
I00
sg204
Nsg205
I0
sg206
Nsbag0
(g4
g5
Ntp2343
Rp2344
(dp2345
g9
I00
sg10
Nsg11
I00
sg12
VSotherly Hotels downgraded by Zacks to sell. https://t.co/gUUohXj7Y8 $SOHO #SOHO
p2346
sg14
Vhttp://ifttt.com
p2347
sg16
I00
sg17
I00
sg18
Nsg19
g0
(g20
g5
Ntp2348
Rp2349
(dp2350
g24
I00
sg25
I00
sg26
I01
sg27
VEFEFEF
p2351
sg29
I992182100
sg30
I00
sg31
(dp2352
g33
(dp2353
g35
(lp2354
(dp2355
g33
Vhttp://t.co/8V4MkNiWl0
p2356
sg39
(lp2357
I0
aI22
asg41
Vhttp://www.marketbeat.com
p2358
sg43
Vmarketbeat.com
p2359
sassg45
(dp2360
g35
(lp2361
(dp2362
g33
Vhttp://t.co/3t3pBdeo4G
p2363
sg39
(lp2364
I34
aI56
asg41
Vhttp://MarketBeat.com
p2365
sg43
VMarketBeat.com
p2366
sasssg48
Vhttps://pbs.twimg.com/profile_images/605433922986606592/LeOUrdkT_normal.png
p2367
sg50
(dp2368
g52
I00
sg53
I00
sg54
I01
sg55
I00
sg56
I992182100
sg57
Vhttps://abs.twimg.com/images/themes/theme14/bg.gif
p2369
sg59
I00
sg60
V333333
p2370
sg62
g2367
sg63
g2351
sg64
g2352
sg65
I3561
sg66
VFFFFFF
p2371
sg68
V992182100
p2372
sg70
V131516
p2373
sg72
I359
sg73
I00
sg74
Nsg75
I226213
sg45
VFormerly Analyst Ratings Network. http://t.co/3t3pBdeo4G tracks analyst upgrades, downgrades and new coverage in real-time.
p2374
sg77
I2
sg78
VSioux Falls, SD
p2375
sg80
V002277
p2376
sg82
Vhttp://pbs.twimg.com/profile_images/605433922986606592/LeOUrdkT_normal.png
p2377
sg84
I00
sg85
I00
sg86
Vhttps://pbs.twimg.com/profile_banners/992182100/1410482657
p2378
sg88
Vhttp://abs.twimg.com/images/themes/theme14/bg.gif
p2379
sg90
VRatingsNetwork
p2380
sg92
Ven
p2381
sg94
I01
sg95
I0
sg96
VMarketBeatCom
p2382
sg98
I00
sg33
Vhttp://t.co/8V4MkNiWl0
p2383
sg100
VThu Dec 06 01:50:15 +0000 2012
p2384
sg102
I00
sg103
Nsg104
I00
sg105
I00
sg106
I00
ssg107
I00
sg108
g2370
sg109
I3561
sg110
g2371
sg111
g2372
sg112
I00
sg113
I359
sg114
I00
sg115
Nsg116
I226213
sg117
g2374
sg118
I2
sg119
g2375
sg120
g2376
sg121
g2377
sg122
I00
sg123
I00
sg124
g2373
sg125
g2378
sg126
g2379
sg127
g2380
sg128
g2381
sg129
I00
sg130
I01
sg131
I0
sg132
g2382
sg133
g2383
sg134
g135
(S'\x07\xdc\x0c\x06\x012\x0f\x00\x00\x00'
p2385
tp2386
Rp2387
sg139
g2369
sg140
Nsg141
I00
sg142
I00
sg143
I00
sbsg144
Nsg29
L663988336730759168L
sg145
I0
sg146
VIFTTT
p2388
sg128
Ven
p2389
sg149
g2349
sg134
g135
(S'\x07\xdf\x0b\n\x077\x1e\x00\x00\x00'
p2390
tp2391
Rp2392
sg50
(dp2393
g154
Nsg155
I00
sg156
g2346
sg157
I00
sg158
Nsg56
L663988336730759168L
sg159
I0
sg160
V<a href="http://ifttt.com" rel="nofollow">IFTTT</a>
p2394
sg162
I00
sg163
Nsg64
(dp2395
g165
(lp2396
(dp2397
g39
(lp2398
I69
aI74
asg156
VSOHO
p2399
sasg170
(lp2400
sg172
(lp2401
(dp2402
g39
(lp2403
I75
aI80
asg156
VSOHO
p2404
sasg35
(lp2405
(dp2406
g33
Vhttps://t.co/gUUohXj7Y8
p2407
sg39
(lp2408
I45
aI68
asg41
Vhttp://ift.tt/1kIy8yQ
p2409
sg43
Vift.tt/1kIy8yQ
p2410
sassg180
Nsg181
Nsg182
I0
sg68
V663988336730759168
p2411
sg184
I00
sg185
g2368
sg186
Nsg187
Nsg188
I00
sg92
g2389
sg100
VTue Nov 10 07:55:30 +0000 2015
p2412
sg190
Nsg191
Nsg192
(dp2413
g194
Ven
p2414
sg196
Vrecent
p2415
sssg198
g2413
sg199
Nsg200
Nsg31
g2395
sg201
Nsg202
Nsg111
g2411
sg203
I00
sg204
Nsg205
I0
sg206
Nsbag0
(g4
g5
Ntp2416
Rp2417
(dp2418
g9
I00
sg10
Nsg11
I00
sg12
VRT @FonsieTrader: #earnings for Tuesday, November 10 $WUBA $AQXP $ARNA $CSIQ $CREG $DRNA $EXEL $JUNO $SOHO $OPXA $W $YY and much more https\u2026
p2419
sg14
Vhttp://twitter.com/download/iphone
p2420
sg16
I00
sg17
I00
sg18
Nsg19
g0
(g20
g5
Ntp2421
Rp2422
(dp2423
g24
I00
sg25
I00
sg26
I01
sg27
VDDEEF6
p2424
sg29
I383927121
sg30
I00
sg31
(dp2425
g45
(dp2426
g35
(lp2427
sssg48
Vhttps://pbs.twimg.com/profile_images/465599478628876288/Fr2oHtFj_normal.jpeg
p2428
sg50
(dp2429
g52
I00
sg53
I00
sg54
I01
sg55
I00
sg56
I383927121
sg57
Vhttps://abs.twimg.com/images/themes/theme1/bg.png
p2430
sg59
I00
sg60
V333333
p2431
sg62
g2428
sg63
g2424
sg64
g2425
sg65
I2622
sg66
VC0DEED
p2432
sg68
V383927121
p2433
sg70
VC0DEED
p2434
sg72
I155
sg73
I00
sg74
Nsg75
I39386
sg45
VAll my post are my opinion only. They are not a recomendation to buy or sell a security. Do your own Due Diligence and Trade Responsibly.
p2435
sg77
I3063
sg78
VMars
p2436
sg80
V0084B4
p2437
sg82
Vhttp://pbs.twimg.com/profile_images/465599478628876288/Fr2oHtFj_normal.jpeg
p2438
sg84
I00
sg85
I01
sg88
Vhttp://abs.twimg.com/images/themes/theme1/bg.png
p2439
sg90
VJohnLBair1
p2440
sg92
Ven
p2441
sg94
I00
sg95
I5112
sg96
VJohn L. Bair
p2442
sg98
I00
sg33
Nsg100
VSun Oct 02 19:19:24 +0000 2011
p2443
sg102
I00
sg103
Nsg104
I00
sg105
I01
sg106
I00
ssg107
I00
sg108
g2431
sg109
I2622
sg110
g2432
sg111
g2433
sg112
I00
sg113
I155
sg114
I00
sg115
Nsg116
I39386
sg117
g2435
sg118
I3063
sg119
g2436
sg120
g2437
sg121
g2438
sg122
I00
sg123
I01
sg124
g2434
sg126
g2439
sg127
g2440
sg128
g2441
sg129
I00
sg130
I00
sg131
I5112
sg132
g2442
sg133
Nsg134
g135
(S'\x07\xdb\n\x02\x13\x13\x18\x00\x00\x00'
p2444
tp2445
Rp2446
sg139
g2430
sg140
Nsg141
I00
sg142
I01
sg143
I00
sbsg144
Nsg29
L663972184822587392L
sg145
I0
sg146
VTwitter for iPhone
p2447
sg128
Ven
p2448
sS'retweeted_status'
p2449
g0
(g4
g5
Ntp2450
Rp2451
(dp2452
g9
I00
sg10
Nsg11
I00
sg12
V#earnings for Tuesday, November 10 $WUBA $AQXP $ARNA $CSIQ $CREG $DRNA $EXEL $JUNO $SOHO $OPXA $W $YY and much more https://t.co/5cRfK77dm4
p2453
sg14
Vhttps://about.twitter.com/products/tweetdeck
p2454
sg16
I00
sg17
I00
sg18
Nsg19
g0
(g20
g5
Ntp2455
Rp2456
(dp2457
g24
I00
sg25
I00
sg26
I01
sg27
VDDEEF6
p2458
sg29
L2520719083L
sg30
I00
sg31
(dp2459
g33
(dp2460
g35
(lp2461
(dp2462
g33
Vhttp://t.co/AyCIck58Qf
p2463
sg39
(lp2464
I0
aI22
asg41
Vhttp://fonsietraderblog.blogspot.com
p2465
sg43
Vfonsietraderblog.blogspot.com
p2466
sassg45
(dp2467
g35
(lp2468
sssg48
Vhttps://pbs.twimg.com/profile_images/643385015724834816/zs5nX6C2_normal.jpg
p2469
sg50
(dp2470
g52
I00
sg53
I00
sg54
I01
sg55
I00
sg56
L2520719083L
sg57
Vhttps://pbs.twimg.com/profile_background_images/470238229682085888/hZek9ysq.jpeg
p2471
sg59
I00
sg60
V333333
p2472
sg62
g2469
sg63
g2458
sg64
g2459
sg65
I2397
sg66
VFFFFFF
p2473
sg68
V2520719083
p2474
sg70
VC0DEED
p2475
sg72
I130
sg73
I00
sg74
I3600
sg75
I30289
sg45
VIntermediate Equities Technical/Fundamental Trader
p2476
sg77
I255
sg78
VEarth Planet 
p2477
sg80
V0084B4
p2478
sg82
Vhttp://pbs.twimg.com/profile_images/643385015724834816/zs5nX6C2_normal.jpg
p2479
sg84
I00
sg85
I00
sg86
Vhttps://pbs.twimg.com/profile_banners/2520719083/1442302156
p2480
sg88
Vhttp://pbs.twimg.com/profile_background_images/470238229682085888/hZek9ysq.jpeg
p2481
sg90
VFonsieTrader
p2482
sg92
Ven
p2483
sg94
I01
sg95
I173
sg96
VFonsieTrader
p2484
sg98
I00
sg33
Vhttp://t.co/AyCIck58Qf
p2485
sg100
VSat May 24 15:20:44 +0000 2014
p2486
sg102
I00
sg103
VAmsterdam
p2487
sg104
I00
sg105
I00
sg106
I00
ssg107
I00
sg108
g2472
sg109
I2397
sg110
g2473
sg111
g2474
sg112
I00
sg113
I130
sg114
I00
sg115
I3600
sg116
I30289
sg117
g2476
sg118
I255
sg119
g2477
sg120
g2478
sg121
g2479
sg122
I00
sg123
I00
sg124
g2475
sg125
g2480
sg126
g2481
sg127
g2482
sg128
g2483
sg129
I00
sg130
I01
sg131
I173
sg132
g2484
sg133
g2485
sg134
g135
(S'\x07\xde\x05\x18\x0f\x14,\x00\x00\x00'
p2488
tp2489
Rp2490
sg139
g2471
sg140
g2487
sg141
I00
sg142
I00
sg143
I00
sbsg144
Nsg29
L663970653805019136L
sg145
I1
sg146
VTweetDeck
p2491
sg128
Ven
p2492
sg149
g2456
sg134
g135
(S'\x07\xdf\x0b\n\x06-\x0e\x00\x00\x00'
p2493
tp2494
Rp2495
sg50
(dp2496
g154
Nsg155
I00
sg156
g2453
sg157
I00
sg158
Nsg56
L663970653805019136L
sg159
I1
sg160
V<a href="https://about.twitter.com/products/tweetdeck" rel="nofollow">TweetDeck</a>
p2497
sg162
I00
sg163
Nsg64
(dp2498
g165
(lp2499
(dp2500
g39
(lp2501
I35
aI40
asg156
VWUBA
p2502
sa(dp2503
g39
(lp2504
I41
aI46
asg156
VAQXP
p2505
sa(dp2506
g39
(lp2507
I47
aI52
asg156
VARNA
p2508
sa(dp2509
g39
(lp2510
I53
aI58
asg156
VCSIQ
p2511
sa(dp2512
g39
(lp2513
I59
aI64
asg156
VCREG
p2514
sa(dp2515
g39
(lp2516
I65
aI70
asg156
VDRNA
p2517
sa(dp2518
g39
(lp2519
I71
aI76
asg156
VEXEL
p2520
sa(dp2521
g39
(lp2522
I77
aI82
asg156
VJUNO
p2523
sa(dp2524
g39
(lp2525
I83
aI88
asg156
VSOHO
p2526
sa(dp2527
g39
(lp2528
I89
aI94
asg156
VOPXA
p2529
sa(dp2530
g39
(lp2531
I95
aI97
asg156
VW
p2532
sa(dp2533
g39
(lp2534
I98
aI101
asg156
VYY
p2535
sasg170
(lp2536
sg172
(lp2537
(dp2538
g39
(lp2539
I0
aI9
asg156
Vearnings
p2540
sasg35
(lp2541
(dp2542
g33
Vhttps://t.co/5cRfK77dm4
p2543
sg39
(lp2544
I116
aI139
asg41
Vhttp://www.investing.com/earnings-calendar/
p2545
sg43
Vinvesting.com/earnings-calen\u2026
p2546
sassg180
Nsg181
Nsg182
I1
sg68
V663970653805019136
p2547
sg184
I00
sg185
g2470
sg186
Nsg187
Nsg188
I00
sg92
g2492
sg100
VTue Nov 10 06:45:14 +0000 2015
p2548
sg190
Nsg191
Nsg192
(dp2549
g194
Ven
p2550
sg196
Vrecent
p2551
sssg198
g2549
sg199
Nsg200
Nsg31
g2498
sg201
Nsg202
Nsg111
g2547
sg203
I00
sg204
Nsg205
I1
sg206
Nsbsg149
g2422
sg134
g135
(S'\x07\xdf\x0b\n\x063\x13\x00\x00\x00'
p2552
tp2553
Rp2554
sg50
(dp2555
g154
Nsg155
I00
sg156
g2419
sg157
I00
sg158
Nsg56
L663972184822587392L
sg159
I0
sg160
V<a href="http://twitter.com/download/iphone" rel="nofollow">Twitter for iPhone</a>
p2556
sg162
I00
sg163
Nsg64
(dp2557
g165
(lp2558
(dp2559
g39
(lp2560
I53
aI58
asg156
VWUBA
p2561
sa(dp2562
g39
(lp2563
I59
aI64
asg156
VAQXP
p2564
sa(dp2565
g39
(lp2566
I65
aI70
asg156
VARNA
p2567
sa(dp2568
g39
(lp2569
I71
aI76
asg156
VCSIQ
p2570
sa(dp2571
g39
(lp2572
I77
aI82
asg156
VCREG
p2573
sa(dp2574
g39
(lp2575
I83
aI88
asg156
VDRNA
p2576
sa(dp2577
g39
(lp2578
I89
aI94
asg156
VEXEL
p2579
sa(dp2580
g39
(lp2581
I95
aI100
asg156
VJUNO
p2582
sa(dp2583
g39
(lp2584
I101
aI106
asg156
VSOHO
p2585
sa(dp2586
g39
(lp2587
I107
aI112
asg156
VOPXA
p2588
sa(dp2589
g39
(lp2590
I113
aI115
asg156
g2532
sa(dp2591
g39
(lp2592
I116
aI119
asg156
VYY
p2593
sasg170
(lp2594
(dp2595
g56
L2520719083L
sg39
(lp2596
I3
aI16
asg68
V2520719083
p2597
sg90
VFonsieTrader
p2598
sg96
VFonsieTrader
p2599
sasg172
(lp2600
(dp2601
g39
(lp2602
I18
aI27
asg156
Vearnings
p2603
sasg35
(lp2604
(dp2605
g33
Vhttps://t.co/5cRfK77dm4
p2606
sg39
(lp2607
I139
aI140
asg41
Vhttp://www.investing.com/earnings-calendar/
p2608
sg43
Vinvesting.com/earnings-calen\u2026
p2609
sassg180
Nsg181
Nsg182
I1
sg68
V663972184822587392
p2610
sg184
I00
sVretweeted_status
p2611
g2496
sg185
g2429
sg186
Nsg187
Nsg188
I00
sg92
g2448
sg100
VTue Nov 10 06:51:19 +0000 2015
p2612
sg190
Nsg191
Nsg192
(dp2613
g194
Ven
p2614
sg196
Vrecent
p2615
sssg198
g2613
sg199
Nsg200
Nsg31
g2557
sg201
Nsg202
Nsg111
g2610
sg203
I00
sg204
Nsg205
I1
sg206
Nsbag0
(g4
g5
Ntp2616
Rp2617
(dp2618
g9
I00
sg10
Nsg11
I00
sg12
V#earnings for Tuesday, November 10 $WUBA $AQXP $ARNA $CSIQ $CREG $DRNA $EXEL $JUNO $SOHO $OPXA $W $YY and much more https://t.co/5cRfK77dm4
p2619
sg14
Vhttps://about.twitter.com/products/tweetdeck
p2620
sg16
I00
sg17
I00
sg18
Nsg19
g0
(g20
g5
Ntp2621
Rp2622
(dp2623
g24
I00
sg25
I00
sg26
I01
sg27
VDDEEF6
p2624
sg29
L2520719083L
sg30
I00
sg31
(dp2625
g33
(dp2626
g35
(lp2627
(dp2628
g33
Vhttp://t.co/AyCIck58Qf
p2629
sg39
(lp2630
I0
aI22
asg41
Vhttp://fonsietraderblog.blogspot.com
p2631
sg43
Vfonsietraderblog.blogspot.com
p2632
sassg45
(dp2633
g35
(lp2634
sssg48
Vhttps://pbs.twimg.com/profile_images/643385015724834816/zs5nX6C2_normal.jpg
p2635
sg50
(dp2636
g52
I00
sg53
I00
sg54
I01
sg55
I00
sg56
L2520719083L
sg57
Vhttps://pbs.twimg.com/profile_background_images/470238229682085888/hZek9ysq.jpeg
p2637
sg59
I00
sg60
V333333
p2638
sg62
g2635
sg63
g2624
sg64
g2625
sg65
I2397
sg66
VFFFFFF
p2639
sg68
V2520719083
p2640
sg70
VC0DEED
p2641
sg72
I130
sg73
I00
sg74
I3600
sg75
I30289
sg45
VIntermediate Equities Technical/Fundamental Trader
p2642
sg77
I255
sg78
VEarth Planet 
p2643
sg80
V0084B4
p2644
sg82
Vhttp://pbs.twimg.com/profile_images/643385015724834816/zs5nX6C2_normal.jpg
p2645
sg84
I00
sg85
I00
sg86
Vhttps://pbs.twimg.com/profile_banners/2520719083/1442302156
p2646
sg88
Vhttp://pbs.twimg.com/profile_background_images/470238229682085888/hZek9ysq.jpeg
p2647
sg90
VFonsieTrader
p2648
sg92
Ven
p2649
sg94
I01
sg95
I173
sg96
VFonsieTrader
p2650
sg98
I00
sg33
Vhttp://t.co/AyCIck58Qf
p2651
sg100
VSat May 24 15:20:44 +0000 2014
p2652
sg102
I00
sg103
VAmsterdam
p2653
sg104
I00
sg105
I00
sg106
I00
ssg107
I00
sg108
g2638
sg109
I2397
sg110
g2639
sg111
g2640
sg112
I00
sg113
I130
sg114
I00
sg115
I3600
sg116
I30289
sg117
g2642
sg118
I255
sg119
g2643
sg120
g2644
sg121
g2645
sg122
I00
sg123
I00
sg124
g2641
sg125
g2646
sg126
g2647
sg127
g2648
sg128
g2649
sg129
I00
sg130
I01
sg131
I173
sg132
g2650
sg133
g2651
sg134
g135
(S'\x07\xde\x05\x18\x0f\x14,\x00\x00\x00'
p2654
tp2655
Rp2656
sg139
g2637
sg140
g2653
sg141
I00
sg142
I00
sg143
I00
sbsg144
Nsg29
L663970653805019136L
sg145
I1
sg146
VTweetDeck
p2657
sg128
Ven
p2658
sg149
g2622
sg134
g135
(S'\x07\xdf\x0b\n\x06-\x0e\x00\x00\x00'
p2659
tp2660
Rp2661
sg50
(dp2662
g154
Nsg155
I00
sg156
g2619
sg157
I00
sg158
Nsg56
L663970653805019136L
sg159
I1
sg160
V<a href="https://about.twitter.com/products/tweetdeck" rel="nofollow">TweetDeck</a>
p2663
sg162
I00
sg163
Nsg64
(dp2664
g165
(lp2665
(dp2666
g39
(lp2667
I35
aI40
asg156
VWUBA
p2668
sa(dp2669
g39
(lp2670
I41
aI46
asg156
VAQXP
p2671
sa(dp2672
g39
(lp2673
I47
aI52
asg156
VARNA
p2674
sa(dp2675
g39
(lp2676
I53
aI58
asg156
VCSIQ
p2677
sa(dp2678
g39
(lp2679
I59
aI64
asg156
VCREG
p2680
sa(dp2681
g39
(lp2682
I65
aI70
asg156
VDRNA
p2683
sa(dp2684
g39
(lp2685
I71
aI76
asg156
VEXEL
p2686
sa(dp2687
g39
(lp2688
I77
aI82
asg156
VJUNO
p2689
sa(dp2690
g39
(lp2691
I83
aI88
asg156
VSOHO
p2692
sa(dp2693
g39
(lp2694
I89
aI94
asg156
VOPXA
p2695
sa(dp2696
g39
(lp2697
I95
aI97
asg156
g2532
sa(dp2698
g39
(lp2699
I98
aI101
asg156
VYY
p2700
sasg170
(lp2701
sg172
(lp2702
(dp2703
g39
(lp2704
I0
aI9
asg156
Vearnings
p2705
sasg35
(lp2706
(dp2707
g33
Vhttps://t.co/5cRfK77dm4
p2708
sg39
(lp2709
I116
aI139
asg41
Vhttp://www.investing.com/earnings-calendar/
p2710
sg43
Vinvesting.com/earnings-calen\u2026
p2711
sassg180
Nsg181
Nsg182
I1
sg68
V663970653805019136
p2712
sg184
I00
sg185
g2636
sg186
Nsg187
Nsg188
I00
sg92
g2658
sg100
VTue Nov 10 06:45:14 +0000 2015
p2713
sg190
Nsg191
Nsg192
(dp2714
g194
Ven
p2715
sg196
Vrecent
p2716
sssg198
g2714
sg199
Nsg200
Nsg31
g2664
sg201
Nsg202
Nsg111
g2712
sg203
I00
sg204
Nsg205
I1
sg206
Nsbag0
(g4
g5
Ntp2717
Rp2718
(dp2719
g9
I00
sg10
Nsg11
I00
sg12
V$SOHO: Wall Street analysts bullish on SOHO's earnings growth: https://t.co/AxiyWo9Imz https://t.co/0udMUvxmdo
p2720
sg14
Vhttp://example.com
p2721
sg16
I00
sg17
I00
sg18
Nsg19
g0
(g20
g5
Ntp2722
Rp2723
(dp2724
g24
I00
sg25
I00
sg26
I01
sg27
VDDEEF6
p2725
sg29
L3290849920L
sg30
I00
sg31
(dp2726
g45
(dp2727
g35
(lp2728
sssg48
Vhttps://pbs.twimg.com/profile_images/606146912773926912/tpzIX1Xs_normal.jpg
p2729
sg50
(dp2730
g52
I00
sg53
I00
sg54
I01
sg55
I00
sg56
L3290849920L
sg57
Vhttps://abs.twimg.com/images/themes/theme1/bg.png
p2731
sg59
I00
sg60
V333333
p2732
sg62
g2729
sg63
g2725
sg64
g2726
sg65
I166
sg66
VC0DEED
p2733
sg68
V3290849920
p2734
sg70
VC0DEED
p2735
sg72
I12
sg73
I00
sg74
I-28800
sg75
I44251
sg45
g76
sg77
I0
sg78
g76
sg80
V0084B4
p2736
sg82
Vhttp://pbs.twimg.com/profile_images/606146912773926912/tpzIX1Xs_normal.jpg
p2737
sg84
I00
sg85
I00
sg88
Vhttp://abs.twimg.com/images/themes/theme1/bg.png
p2738
sg90
VTimeForGrowth
p2739
sg92
Ven
p2740
sg94
I00
sg95
I0
sg96
VTimeForGrowth
p2741
sg98
I00
sg33
Nsg100
VWed May 20 03:22:57 +0000 2015
p2742
sg102
I00
sg103
VPacific Time (US & Canada)
p2743
sg104
I00
sg105
I01
sg106
I00
ssg107
I00
sg108
g2732
sg109
I166
sg110
g2733
sg111
g2734
sg112
I00
sg113
I12
sg114
I00
sg115
I-28800
sg116
I44251
sg117
g76
sg118
I0
sg119
g76
sg120
g2736
sg121
g2737
sg122
I00
sg123
I00
sg124
g2735
sg126
g2738
sg127
g2739
sg128
g2740
sg129
I00
sg130
I00
sg131
I0
sg132
g2741
sg133
Nsg134
g135
(S'\x07\xdf\x05\x14\x03\x169\x00\x00\x00'
p2744
tp2745
Rp2746
sg139
g2731
sg140
g2743
sg141
I00
sg142
I01
sg143
I00
sbsg144
Nsg29
L663918008574877697L
sg145
I0
sg146
VCrunchingTime
p2747
sg128
Ven
p2748
sg149
g2723
sg134
g135
(S'\x07\xdf\x0b\n\x03\x10\x02\x00\x00\x00'
p2749
tp2750
Rp2751
sg50
(dp2752
g154
Nsg155
I00
sg156
g2720
sg157
I00
sg158
Nsg56
L663918008574877697L
sg159
I0
sg160
V<a href="http://example.com" rel="nofollow">CrunchingTime</a>
p2753
sg162
I00
sg163
Nsg64
(dp2754
g165
(lp2755
(dp2756
g39
(lp2757
I0
aI5
asg156
VSOHO
p2758
sasg170
(lp2759
sg172
(lp2760
sg35
(lp2761
(dp2762
g33
Vhttps://t.co/AxiyWo9Imz
p2763
sg39
(lp2764
I63
aI86
asg41
Vhttp://growthnumbers.com/SOHO
p2765
sg43
Vgrowthnumbers.com/SOHO
p2766
sasg540
(lp2767
(dp2768
g41
Vhttp://twitter.com/TimeForGrowth/status/663918008574877697/photo/1
p2769
sg43
Vpic.twitter.com/0udMUvxmdo
p2770
sg33
Vhttps://t.co/0udMUvxmdo
p2771
sg546
Vhttps://pbs.twimg.com/media/CTa16S3XAAAZeYa.jpg
p2772
sg68
V663918008184799232
p2773
sg549
(dp2774
g551
(dp2775
g553
I4
sg554
Vfit
p2776
sg556
I4
ssg557
(dp2777
g553
I4
sg554
Vfit
p2778
sg556
I4
ssg560
(dp2779
g553
I4
sg554
Vfit
p2780
sg556
I4
ssg563
(dp2781
g553
I4
sg554
Vcrop
p2782
sg556
I4
sssg39
(lp2783
I87
aI110
asg567
Vphoto
p2784
sg56
L663918008184799232L
sg569
Vhttp://pbs.twimg.com/media/CTa16S3XAAAZeYa.jpg
p2785
sassg180
Nsg181
Nsg182
I0
sg68
V663918008574877697
p2786
sg184
I00
sg185
g2730
sg186
Nsg187
Nsg188
I00
sg92
g2748
sg100
VTue Nov 10 03:16:02 +0000 2015
p2787
sg190
Nsg191
Nsg192
(dp2788
g194
Ven
p2789
sg196
Vrecent
p2790
sssg198
g2788
sg199
Nsg200
Nsg31
g2754
sg201
Nsg202
Nsg111
g2786
sg203
I00
sg204
Nsg205
I0
sg206
Nsbag0
(g4
g5
Ntp2791
Rp2792
(dp2793
g9
I00
sg10
Nsg11
I00
sg12
V$RMP.TO $ROK $RDNI3.SA $RON.TO $RSID3.SA $SIS.TO $SELEC.IS $MCRB $SEN.TO $SGF.TO $SGLB $STEC.BK $SOHO $SPAN $TOY.TO $SAS.TO $SCB.TO $SCON
p2794
sg14
Vhttps://twitter.com/USEarningsCal
p2795
sg17
I00
sg18
Nsg19
g0
(g20
g5
Ntp2796
Rp2797
(dp2798
g24
I00
sg25
I01
sg26
I00
sg27
V000000
p2799
sg29
L3272603407L
sg30
I00
sg31
(dp2800
g45
(dp2801
g35
(lp2802
sssg48
Vhttps://pbs.twimg.com/profile_images/621905731336323072/M63p67Ym_normal.jpg
p2803
sg50
(dp2804
g52
I00
sg53
I01
sg54
I00
sg55
I00
sg56
L3272603407L
sg57
Vhttps://abs.twimg.com/images/themes/theme1/bg.png
p2805
sg59
I00
sg60
V000000
p2806
sg62
g2803
sg63
g2799
sg64
g2800
sg65
I20
sg66
V000000
p2807
sg68
V3272603407
p2808
sg70
V000000
p2809
sg72
I4
sg73
I00
sg74
Nsg75
I436
sg45
VU.S. Earnings
p2810
sg77
I2
sg78
VUnited States
p2811
sg80
V4A913C
p2812
sg82
Vhttp://pbs.twimg.com/profile_images/621905731336323072/M63p67Ym_normal.jpg
p2813
sg84
I00
sg85
I00
sg86
Vhttps://pbs.twimg.com/profile_banners/3272603407/1437108798
p2814
sg88
Vhttp://abs.twimg.com/images/themes/theme1/bg.png
p2815
sg90
VUSEarningsCal
p2816
sg92
Ven
p2817
sg94
I00
sg95
I0
sg96
VUS Earnings Calendar
p2818
sg98
I00
sg33
Nsg100
VThu Jul 09 04:45:59 +0000 2015
p2819
sg102
I00
sg103
Nsg104
I00
sg105
I00
sg106
I00
ssg107
I00
sg108
g2806
sg109
I20
sg110
g2807
sg111
g2808
sg112
I00
sg113
I4
sg114
I00
sg115
Nsg116
I436
sg117
g2810
sg118
I2
sg119
g2811
sg120
g2812
sg121
g2813
sg122
I00
sg123
I00
sg124
g2809
sg125
g2814
sg126
g2815
sg127
g2816
sg128
g2817
sg129
I00
sg130
I00
sg131
I0
sg132
g2818
sg133
Nsg134
g135
(S'\x07\xdf\x07\t\x04-;\x00\x00\x00'
p2820
tp2821
Rp2822
sg139
g2805
sg140
Nsg141
I00
sg142
I00
sg143
I00
sbsg144
Nsg29
L663883789517484033L
sg145
I0
sg146
VUS Earnings Cal
p2823
sg128
Ven
p2824
sg149
g2797
sg134
g135
(S'\x07\xdf\x0b\n\x01\x00\x04\x00\x00\x00'
p2825
tp2826
Rp2827
sg50
(dp2828
g154
Nsg155
I00
sg156
g2794
sg157
I00
sg158
Nsg56
L663883789517484033L
sg159
I0
sg160
V<a href="https://twitter.com/USEarningsCal" rel="nofollow">US Earnings Cal</a>
p2829
sg162
I00
sg163
Nsg64
(dp2830
g165
(lp2831
(dp2832
g39
(lp2833
I0
aI7
asg156
VRMP.TO
p2834
sa(dp2835
g39
(lp2836
I8
aI12
asg156
VROK
p2837
sa(dp2838
g39
(lp2839
I23
aI30
asg156
VRON.TO
p2840
sa(dp2841
g39
(lp2842
I41
aI48
asg156
VSIS.TO
p2843
sa(dp2844
g39
(lp2845
I49
aI58
asg156
VSELEC.IS
p2846
sa(dp2847
g39
(lp2848
I59
aI64
asg156
VMCRB
p2849
sa(dp2850
g39
(lp2851
I65
aI72
asg156
VSEN.TO
p2852
sa(dp2853
g39
(lp2854
I73
aI80
asg156
VSGF.TO
p2855
sa(dp2856
g39
(lp2857
I81
aI86
asg156
VSGLB
p2858
sa(dp2859
g39
(lp2860
I87
aI95
asg156
VSTEC.BK
p2861
sa(dp2862
g39
(lp2863
I96
aI101
asg156
VSOHO
p2864
sa(dp2865
g39
(lp2866
I102
aI107
asg156
VSPAN
p2867
sa(dp2868
g39
(lp2869
I108
aI115
asg156
VTOY.TO
p2870
sa(dp2871
g39
(lp2872
I116
aI123
asg156
VSAS.TO
p2873
sa(dp2874
g39
(lp2875
I124
aI131
asg156
VSCB.TO
p2876
sa(dp2877
g39
(lp2878
I132
aI137
asg156
VSCON
p2879
sasg170
(lp2880
sg172
(lp2881
sg35
(lp2882
ssg180
Nsg181
Nsg182
I0
sg68
V663883789517484033
p2883
sg184
I00
sg185
g2804
sg186
Nsg187
Nsg92
g2824
sg100
VTue Nov 10 01:00:04 +0000 2015
p2884
sg190
Nsg191
Nsg192
(dp2885
g194
Ven
p2886
sg196
Vrecent
p2887
sssg198
g2885
sg199
Nsg200
Nsg31
g2830
sg201
Nsg202
Nsg111
g2883
sg203
I00
sg204
Nsg205
I0
sg206
Nsbag0
(g4
g5
Ntp2888
Rp2889
(dp2890
g9
I00
sg10
Nsg11
I00
sg12
V$SOHO is reporting tomorrow BMO, and is a potential signal for today @investiecomp. EPS est $0.24 Rev est $35.15M
p2891
sg14
Vhttp://www.investiecomp.com/
p2892
sg17
I00
sg18
Nsg19
g0
(g20
g5
Ntp2893
Rp2894
(dp2895
g24
I00
sg25
I00
sg26
I01
sg27
VDDEEF6
p2896
sg29
L3003388150L
sg30
I00
sg31
(dp2897
g33
(dp2898
g35
(lp2899
(dp2900
g33
Vhttp://t.co/YIDZvFiz0r
p2901
sg39
(lp2902
I0
aI22
asg41
Vhttp://investiecomp.com
p2903
sg43
Vinvestiecomp.com
p2904
sassg45
(dp2905
g35
(lp2906
sssg48
Vhttps://pbs.twimg.com/profile_images/560458750159355905/txRzeQnB_normal.png
p2907
sg50
(dp2908
g52
I00
sg53
I00
sg54
I01
sg55
I00
sg56
L3003388150L
sg57
Vhttps://abs.twimg.com/images/themes/theme1/bg.png
p2909
sg59
I00
sg60
V333333
p2910
sg62
g2907
sg63
g2896
sg64
g2897
sg65
I23
sg66
VC0DEED
p2911
sg68
V3003388150
p2912
sg70
VC0DEED
p2913
sg72
I4
sg73
I01
sg74
I7200
sg75
I5625
sg45
VTrade with InvestieComp Signal Engine to discover great trading opportunities during the earnings season. @investiecomp
p2914
sg77
I0
sg78
g76
sg80
V0084B4
p2915
sg82
Vhttp://pbs.twimg.com/profile_images/560458750159355905/txRzeQnB_normal.png
p2916
sg84
I00
sg85
I00
sg88
Vhttp://abs.twimg.com/images/themes/theme1/bg.png
p2917
sg90
VInvestieCompEr
p2918
sg92
Ven
p2919
sg94
I00
sg95
I0
sg96
VInvestiecompEarnings
p2920
sg98
I00
sg33
Vhttp://t.co/YIDZvFiz0r
p2921
sg100
VWed Jan 28 15:24:35 +0000 2015
p2922
sg102
I00
sg103
VBucharest
p2923
sg104
I00
sg105
I01
sg106
I00
ssg107
I00
sg108
g2910
sg109
I23
sg110
g2911
sg111
g2912
sg112
I00
sg113
I4
sg114
I01
sg115
I7200
sg116
I5625
sg117
g2914
sg118
I0
sg119
g76
sg120
g2915
sg121
g2916
sg122
I00
sg123
I00
sg124
g2913
sg126
g2917
sg127
g2918
sg128
g2919
sg129
I00
sg130
I00
sg131
I0
sg132
g2920
sg133
g2921
sg134
g135
(S'\x07\xdf\x01\x1c\x0f\x18#\x00\x00\x00'
p2924
tp2925
Rp2926
sg139
g2909
sg140
g2923
sg141
I00
sg142
I01
sg143
I00
sbsg144
Nsg29
L663803352703238144L
sg145
I0
sg146
VInvestiecomp Earnings
p2927
sg128
Ven
p2928
sg149
g2894
sg134
g135
(S'\x07\xdf\x0b\t\x13(\x1a\x00\x00\x00'
p2929
tp2930
Rp2931
sg50
(dp2932
g154
Nsg155
I00
sg156
g2891
sg157
I00
sg158
Nsg56
L663803352703238144L
sg159
I0
sg160
V<a href="http://www.investiecomp.com/" rel="nofollow">Investiecomp Earnings</a>
p2933
sg162
I00
sg163
Nsg64
(dp2934
g165
(lp2935
(dp2936
g39
(lp2937
I0
aI5
asg156
VSOHO
p2938
sasg170
(lp2939
(dp2940
g56
L2988894511L
sg39
(lp2941
I69
aI82
asg68
V2988894511
p2942
sg90
VInvestieComp
p2943
sg96
VInvestiecomp
p2944
sasg172
(lp2945
sg35
(lp2946
ssg180
Nsg181
Nsg182
I0
sg68
V663803352703238144
p2947
sg184
I00
sg185
g2908
sg186
Nsg187
Nsg92
g2928
sg100
VMon Nov 09 19:40:26 +0000 2015
p2948
sg190
Nsg191
Nsg192
(dp2949
g194
Ven
p2950
sg196
Vrecent
p2951
sssg198
g2949
sg199
Nsg200
Nsg31
g2934
sg201
Nsg202
Nsg111
g2947
sg203
I00
sg204
Nsg205
I0
sg206
Nsbag0
(g4
g5
Ntp2952
Rp2953
(dp2954
g9
I00
sg10
Nsg11
I00
sg12
VSotherly Hotels $SOHO to Release Quarterly Earnings on Tuesday https://t.co/S0xFiCJ6uN
p2955
sg14
Vhttp://ifttt.com
p2956
sg16
I00
sg17
I00
sg18
Nsg19
g0
(g20
g5
Ntp2957
Rp2958
(dp2959
g24
I00
sg25
I00
sg26
I01
sg27
VC0DFEC
p2960
sg29
L2181281054L
sg30
I00
sg31
(dp2961
g33
(dp2962
g35
(lp2963
(dp2964
g33
Vhttp://t.co/NYpmdUJnIe
p2965
sg39
(lp2966
I0
aI22
asg41
Vhttp://www.wkrb13.com
p2967
sg43
Vwkrb13.com
p2968
sassg45
(dp2969
g35
(lp2970
(dp2971
g33
Vhttp://t.co/n4QyKK8afr
p2972
sg39
(lp2973
I31
aI53
asg41
Vhttp://WKRB13.com
p2974
sg43
VWKRB13.com
p2975
sasssg48
Vhttps://pbs.twimg.com/profile_images/378800000709495912/4d5b1653db87aeb8c4685ea3febc9ab0_normal.png
p2976
sg50
(dp2977
g52
I00
sg53
I00
sg54
I01
sg55
I00
sg56
L2181281054L
sg57
Vhttps://abs.twimg.com/images/themes/theme15/bg.png
p2978
sg59
I00
sg60
V333333
p2979
sg62
g2976
sg63
g2960
sg64
g2961
sg65
I506
sg66
VA8C7F7
p2980
sg68
V2181281054
p2981
sg70
V022330
p2982
sg72
I73
sg73
I00
sg74
Nsg75
I299436
sg45
VWKRB News - News and Analysis. http://t.co/n4QyKK8afr
p2983
sg77
I8
sg78
g76
sg80
V0084B4
p2984
sg82
Vhttp://pbs.twimg.com/profile_images/378800000709495912/4d5b1653db87aeb8c4685ea3febc9ab0_normal.png
p2985
sg84
I00
sg85
I00
sg88
Vhttp://abs.twimg.com/images/themes/theme15/bg.png
p2986
sg90
VWKRBNews
p2987
sg92
Ven
p2988
sg94
I00
sg95
I0
sg96
VWKRB News
p2989
sg98
I00
sg33
Vhttp://t.co/NYpmdUJnIe
p2990
sg100
VFri Nov 08 02:17:02 +0000 2013
p2991
sg102
I00
sg103
Nsg104
I00
sg105
I00
sg106
I00
ssg107
I00
sg108
g2979
sg109
I506
sg110
g2980
sg111
g2981
sg112
I00
sg113
I73
sg114
I00
sg115
Nsg116
I299436
sg117
g2983
sg118
I8
sg119
g76
sg120
g2984
sg121
g2985
sg122
I00
sg123
I00
sg124
g2982
sg126
g2986
sg127
g2987
sg128
g2988
sg129
I00
sg130
I00
sg131
I0
sg132
g2989
sg133
g2990
sg134
g135
(S'\x07\xdd\x0b\x08\x02\x11\x02\x00\x00\x00'
p2992
tp2993
Rp2994
sg139
g2978
sg140
Nsg141
I00
sg142
I00
sg143
I00
sbsg144
Nsg29
L663668717516152832L
sg145
I0
sg146
VIFTTT
p2995
sg128
Ven
p2996
sg149
g2958
sg134
g135
(S'\x07\xdf\x0b\t\n-\x1b\x00\x00\x00'
p2997
tp2998
Rp2999
sg50
(dp3000
g154
Nsg155
I00
sg156
g2955
sg157
I00
sg158
Nsg56
L663668717516152832L
sg159
I0
sg160
V<a href="http://ifttt.com" rel="nofollow">IFTTT</a>
p3001
sg162
I00
sg163
Nsg64
(dp3002
g165
(lp3003
(dp3004
g39
(lp3005
I16
aI21
asg156
VSOHO
p3006
sasg170
(lp3007
sg172
(lp3008
sg35
(lp3009
(dp3010
g33
Vhttps://t.co/S0xFiCJ6uN
p3011
sg39
(lp3012
I63
aI86
asg41
Vhttp://ift.tt/1Qdxera
p3013
sg43
Vift.tt/1Qdxera
p3014
sassg180
Nsg181
Nsg182
I0
sg68
V663668717516152832
p3015
sg184
I00
sg185
g2977
sg186
Nsg187
Nsg188
I00
sg92
g2996
sg100
VMon Nov 09 10:45:27 +0000 2015
p3016
sg190
Nsg191
Nsg192
(dp3017
g194
Ven
p3018
sg196
Vrecent
p3019
sssg198
g3017
sg199
Nsg200
Nsg31
g3002
sg201
Nsg202
Nsg111
g3015
sg203
I00
sg204
Nsg205
I0
sg206
Nsbag0
(g4
g5
Ntp3020
Rp3021
(dp3022
g9
I00
sg10
Nsg11
I00
sg12
VSotherly Hotels $SOHO to Release Quarterly Earnings on Tuesday https://t.co/5PKUKAQJSw
p3023
sg14
Vhttp://ifttt.com
p3024
sg16
I00
sg17
I00
sg18
Nsg19
g0
(g20
g5
Ntp3025
Rp3026
(dp3027
g24
I00
sg25
I00
sg26
I01
sg27
VCCDAFF
p3028
sg29
I61661638
sg30
I00
sg31
(dp3029
g33
(dp3030
g35
(lp3031
(dp3032
g33
Vhttp://t.co/7EZswS49Q1
p3033
sg39
(lp3034
I0
aI22
asg41
Vhttp://www.americanbankingnews.com/
p3035
sg43
Vamericanbankingnews.com
p3036
sassg45
(dp3037
g35
(lp3038
sssg48
Vhttps://pbs.twimg.com/profile_images/541252987/Image5_normal.jpg
p3039
sg50
(dp3040
g52
I00
sg53
I00
sg54
I01
sg55
I00
sg56
I61661638
sg57
Vhttps://pbs.twimg.com/profile_background_images/55647305/background.png
p3041
sg59
I00
sg60
V141414
p3042
sg62
g3039
sg63
g3028
sg64
g3029
sg65
I5557
sg66
VABB1D9
p3043
sg68
V61661638
p3044
sg70
V000000
p3045
sg72
I469
sg73
I00
sg74
I-21600
sg75
I693975
sg45
VBanks, Credit Unions & Financial Institutions
p3046
sg77
I2307
sg78
VSioux Falls, SD
p3047
sg80
VA60000
p3048
sg82
Vhttp://pbs.twimg.com/profile_images/541252987/Image5_normal.jpg
p3049
sg84
I00
sg85
I00
sg88
Vhttp://pbs.twimg.com/profile_background_images/55647305/background.png
p3050
sg90
VAmericanBanking
p3051
sg92
Ven
p3052
sg94
I01
sg95
I0
sg96
VUS Banking News
p3053
sg98
I00
sg33
Vhttp://t.co/7EZswS49Q1
p3054
sg100
VFri Jul 31 01:58:33 +0000 2009
p3055
sg102
I00
sg103
VCentral Time (US & Canada)
p3056
sg104
I00
sg105
I00
sg106
I00
ssg107
I00
sg108
g3042
sg109
I5557
sg110
g3043
sg111
g3044
sg112
I00
sg113
I469
sg114
I00
sg115
I-21600
sg116
I693975
sg117
g3046
sg118
I2307
sg119
g3047
sg120
g3048
sg121
g3049
sg122
I00
sg123
I00
sg124
g3045
sg126
g3050
sg127
g3051
sg128
g3052
sg129
I00
sg130
I01
sg131
I0
sg132
g3053
sg133
g3054
sg134
g135
(S'\x07\xd9\x07\x1f\x01:!\x00\x00\x00'
p3057
tp3058
Rp3059
sg139
g3041
sg140
g3056
sg141
I00
sg142
I00
sg143
I00
sbsg144
Nsg29
L663668456986923008L
sg145
I0
sg146
VIFTTT
p3060
sg128
Ven
p3061
sg149
g3026
sg134
g135
(S'\x07\xdf\x0b\t\n,\x19\x00\x00\x00'
p3062
tp3063
Rp3064
sg50
(dp3065
g154
Nsg155
I00
sg156
g3023
sg157
I00
sg158
Nsg56
L663668456986923008L
sg159
I0
sg160
V<a href="http://ifttt.com" rel="nofollow">IFTTT</a>
p3066
sg162
I00
sg163
Nsg64
(dp3067
g165
(lp3068
(dp3069
g39
(lp3070
I16
aI21
asg156
VSOHO
p3071
sasg170
(lp3072
sg172
(lp3073
sg35
(lp3074
(dp3075
g33
Vhttps://t.co/5PKUKAQJSw
p3076
sg39
(lp3077
I63
aI86
asg41
Vhttp://ift.tt/1WLxtJ0
p3078
sg43
Vift.tt/1WLxtJ0
p3079
sassg180
Nsg181
Nsg182
I0
sg68
V663668456986923008
p3080
sg184
I00
sg185
g3040
sg186
Nsg187
Nsg188
I00
sg92
g3061
sg100
VMon Nov 09 10:44:25 +0000 2015
p3081
sg190
Nsg191
Nsg192
(dp3082
g194
Ven
p3083
sg196
Vrecent
p3084
sssg198
g3082
sg199
Nsg200
Nsg31
g3067
sg201
Nsg202
Nsg111
g3080
sg203
I00
sg204
Nsg205
I0
sg206
Nsbag0
(g4
g5
Ntp3085
Rp3086
(dp3087
g9
I00
sg10
Nsg11
I00
sg12
VSotherly Hotels $SOHO to Release Quarterly Earnings on Tuesday https://t.co/AtrVdhyrhv #acn
p3088
sg14
Vhttp://ifttt.com
p3089
sg16
I00
sg17
I00
sg18
Nsg19
g0
(g20
g5
Ntp3090
Rp3091
(dp3092
g24
I00
sg25
I00
sg26
I01
sg27
VE8E8E8
p3093
sg29
I52210566
sg30
I00
sg31
(dp3094
g33
(dp3095
g35
(lp3096
(dp3097
g33
Vhttp://t.co/odTc3pvcAe
p3098
sg39
(lp3099
I0
aI22
asg41
Vhttp://www.americanconsumernews.com/
p3100
sg43
Vamericanconsumernews.com
p3101
sassg45
(dp3102
g35
(lp3103
sssg48
Vhttps://pbs.twimg.com/profile_images/289298274/text_normal.jpg
p3104
sg50
(dp3105
g52
I00
sg53
I00
sg54
I01
sg55
I00
sg56
I52210566
sg57
Vhttps://pbs.twimg.com/profile_background_images/20558354/back.jpg
p3106
sg59
I00
sg60
V333333
p3107
sg62
g3104
sg63
g3093
sg64
g3094
sg65
I1114
sg66
VADADAD
p3108
sg68
V52210566
p3109
sg70
V9AE4E8
p3110
sg72
I96
sg73
I00
sg74
I-21600
sg75
I580839
sg45
VPersonal Finance and Consumer Tips
p3111
sg77
I1412
sg78
VSioux Falls, SD
p3112
sg80
V0084B4
p3113
sg82
Vhttp://pbs.twimg.com/profile_images/289298274/text_normal.jpg
p3114
sg84
I00
sg85
I00
sg88
Vhttp://pbs.twimg.com/profile_background_images/20558354/back.jpg
p3115
sg90
VAmConsumerNews
p3116
sg92
Ven
p3117
sg94
I00
sg95
I0
sg96
VConsumer News
p3118
sg98
I00
sg33
Vhttp://t.co/odTc3pvcAe
p3119
sg100
VMon Jun 29 22:22:08 +0000 2009
p3120
sg102
I00
sg103
VCentral Time (US & Canada)
p3121
sg104
I00
sg105
I00
sg106
I00
ssg107
I00
sg108
g3107
sg109
I1114
sg110
g3108
sg111
g3109
sg112
I00
sg113
I96
sg114
I00
sg115
I-21600
sg116
I580839
sg117
g3111
sg118
I1412
sg119
g3112
sg120
g3113
sg121
g3114
sg122
I00
sg123
I00
sg124
g3110
sg126
g3115
sg127
g3116
sg128
g3117
sg129
I00
sg130
I00
sg131
I0
sg132
g3118
sg133
g3119
sg134
g135
(S'\x07\xd9\x06\x1d\x16\x16\x08\x00\x00\x00'
p3122
tp3123
Rp3124
sg139
g3106
sg140
g3121
sg141
I00
sg142
I00
sg143
I00
sbsg144
Nsg29
L663668442155909121L
sg145
I0
sg146
VIFTTT
p3125
sg128
Ven
p3126
sg149
g3091
sg134
g135
(S'\x07\xdf\x0b\t\n,\x15\x00\x00\x00'
p3127
tp3128
Rp3129
sg50
(dp3130
g154
Nsg155
I00
sg156
g3088
sg157
I00
sg158
Nsg56
L663668442155909121L
sg159
I0
sg160
V<a href="http://ifttt.com" rel="nofollow">IFTTT</a>
p3131
sg162
I00
sg163
Nsg64
(dp3132
g165
(lp3133
(dp3134
g39
(lp3135
I16
aI21
asg156
VSOHO
p3136
sasg170
(lp3137
sg172
(lp3138
(dp3139
g39
(lp3140
I87
aI91
asg156
Vacn
p3141
sasg35
(lp3142
(dp3143
g33
Vhttps://t.co/AtrVdhyrhv
p3144
sg39
(lp3145
I63
aI86
asg41
Vhttp://ift.tt/1Qdx8zW
p3146
sg43
Vift.tt/1Qdx8zW
p3147
sassg180
Nsg181
Nsg182
I0
sg68
V663668442155909121
p3148
sg184
I00
sg185
g3105
sg186
Nsg187
Nsg188
I00
sg92
g3126
sg100
VMon Nov 09 10:44:21 +0000 2015
p3149
sg190
Nsg191
Nsg192
(dp3150
g194
Ven
p3151
sg196
Vrecent
p3152
sssg198
g3150
sg199
Nsg200
Nsg31
g3132
sg201
Nsg202
Nsg111
g3148
sg203
I00
sg204
Nsg205
I0
sg206
Nsbag0
(g4
g5
Ntp3153
Rp3154
(dp3155
g9
I00
sg10
Nsg11
I00
sg12
V$SOHO:\u000a\u000aSotherly Hotels (SOHO) to Release Quarterly Earnings on Tuesday:\u000a\u000ahttps://t.co/rLYp7KVCKI
p3156
sg14
Vhttp://www.newsflowing.com
p3157
sg16
I00
sg17
I00
sg18
Nsg19
g0
(g20
g5
Ntp3158
Rp3159
(dp3160
g24
I00
sg25
I00
sg26
I01
sg27
VE6F6F9
p3161
sg29
L2342215530L
sg30
I00
sg31
(dp3162
g45
(dp3163
g35
(lp3164
sssg48
Vhttps://pbs.twimg.com/profile_images/544036492876591104/7QJIB-XK_normal.jpeg
p3165
sg50
(dp3166
g52
I00
sg53
I00
sg54
I01
sg55
I00
sg56
L2342215530L
sg57
Vhttps://abs.twimg.com/images/themes/theme17/bg.gif
p3167
sg59
I00
sg60
V333333
p3168
sg62
g3165
sg63
g3161
sg64
g3162
sg65
I465
sg66
VDBE9ED
p3169
sg68
V2342215530
p3170
sg70
VDBE9ED
p3171
sg72
I89
sg73
I00
sg74
I-14400
sg75
I192995
sg45
g76
sg77
I0
sg78
g76
sg80
VCC3366
p3172
sg82
Vhttp://pbs.twimg.com/profile_images/544036492876591104/7QJIB-XK_normal.jpeg
p3173
sg84
I00
sg85
I00
sg88
Vhttp://abs.twimg.com/images/themes/theme17/bg.gif
p3174
sg90
Vnewswithvalue
p3175
sg92
Ven
p3176
sg94
I00
sg95
I0
sg96
VBreaking News Now
p3177
sg98
I00
sg33
Nsg100
VThu Feb 13 16:14:12 +0000 2014
p3178
sg102
I00
sg103
VAtlantic Time (Canada)
p3179
sg104
I00
sg105
I00
sg106
I00
ssg107
I00
sg108
g3168
sg109
I465
sg110
g3169
sg111
g3170
sg112
I00
sg113
I89
sg114
I00
sg115
I-14400
sg116
I192995
sg117
g76
sg118
I0
sg119
g76
sg120
g3172
sg121
g3173
sg122
I00
sg123
I00
sg124
g3171
sg126
g3174
sg127
g3175
sg128
g3176
sg129
I00
sg130
I00
sg131
I0
sg132
g3177
sg133
Nsg134
g135
(S'\x07\xde\x02\r\x10\x0e\x0c\x00\x00\x00'
p3180
tp3181
Rp3182
sg139
g3167
sg140
g3179
sg141
I00
sg142
I00
sg143
I00
sbsg144
Nsg29
L663668113259569152L
sg145
I0
sg146
VNFIG
p3183
sg128
Ven
p3184
sg149
g3159
sg134
g135
(S'\x07\xdf\x0b\t\n+\x03\x00\x00\x00'
p3185
tp3186
Rp3187
sg50
(dp3188
g154
Nsg155
I00
sg156
V$SOHO:\u000a\u000aSotherly Hotels (SOHO) to Release Quarterly Earnings on Tuesday:\u000a\u000ahttps://t.co/rLYp7KVCKI
p3189
sg157
I00
sg158
Nsg56
L663668113259569152L
sg159
I0
sg160
V<a href="http://www.newsflowing.com" rel="nofollow">NFIG</a>
p3190
sg162
I00
sg163
Nsg64
(dp3191
g165
(lp3192
(dp3193
g39
(lp3194
I0
aI5
asg156
VSOHO
p3195
sasg170
(lp3196
sg172
(lp3197
sg35
(lp3198
(dp3199
g33
Vhttps://t.co/rLYp7KVCKI
p3200
sg39
(lp3201
I74
aI97
asg41
Vhttp://StockNewsHour.com/soho-sotherly-hotels-soho-to-release-quarterly-earnings-on-tuesday/
p3202
sg43
VStockNewsHour.com/soho-sotherly-\u2026
p3203
sassg180
Nsg181
Nsg182
I0
sg68
V663668113259569152
p3204
sg184
I00
sg185
g3166
sg186
Nsg187
Nsg188
I00
sg92
g3184
sg100
VMon Nov 09 10:43:03 +0000 2015
p3205
sg190
Nsg191
Nsg192
(dp3206
g194
Ven
p3207
sg196
Vrecent
p3208
sssg198
g3206
sg199
Nsg200
Nsg31
g3191
sg201
Nsg202
Nsg111
g3204
sg203
I00
sg204
Nsg205
I0
sg206
Nsbag0
(g4
g5
Ntp3209
Rp3210
(dp3211
g9
I00
sg10
Nsg11
I00
sg12
VThe Most Accurate Stock Alert Service Made $240,000 Yesterday https://t.co/8WvnrVmkBS .. $CARB $JACK $SOHO
p3212
sg14
Vhttp://socialadcenter.com
p3213
sg16
I00
sg17
I00
sg18
Nsg19
g0
(g20
g5
Ntp3214
Rp3215
(dp3216
g24
I00
sg25
I00
sg26
I01
sg27
VDDEEF6
p3217
sg29
L2730855593L
sg30
I00
sg31
(dp3218
g33
(dp3219
g35
(lp3220
(dp3221
g33
Vhttp://t.co/UWzH8kOOl9
p3222
sg39
(lp3223
I0
aI22
asg41
Vhttp://PennyStockSecret.com
p3224
sg43
VPennyStockSecret.com
p3225
sassg45
(dp3226
g35
(lp3227
(dp3228
g33
Vhttp://t.co/UWzH8kOOl9
p3229
sg39
(lp3230
I11
aI33
asg41
Vhttp://PennyStockSecret.com
p3231
sg43
VPennyStockSecret.com
p3232
sasssg48
Vhttps://pbs.twimg.com/profile_images/573247485616889856/gHAtYS9O_normal.png
p3233
sg50
(dp3234
g52
I00
sg53
I00
sg54
I01
sg55
I00
sg56
L2730855593L
sg57
Vhttps://abs.twimg.com/images/themes/theme1/bg.png
p3235
sg59
I00
sg60
V333333
p3236
sg62
g3233
sg63
g3217
sg64
g3218
sg65
I2515
sg66
VC0DEED
p3237
sg68
V2730855593
p3238
sg70
VC0DEED
p3239
sg72
I25
sg73
I00
sg74
I0
sg75
I53229
sg45
VSign up to http://t.co/UWzH8kOOl9  and get the premiere penny stock newsletter for free! make sure you subscribe today!
p3240
sg77
I9
sg78
VUSA
p3241
sg80
V0084B4
p3242
sg82
Vhttp://pbs.twimg.com/profile_images/573247485616889856/gHAtYS9O_normal.png
p3243
sg84
I00
sg85
I00
sg86
Vhttps://pbs.twimg.com/profile_banners/2730855593/1425507876
p3244
sg88
Vhttp://abs.twimg.com/images/themes/theme1/bg.png
p3245
sg90
Vstockschamp
p3246
sg92
Ven
p3247
sg94
I00
sg95
I0
sg96
Vstockschamp
p3248
sg98
I00
sg33
Vhttp://t.co/UWzH8kOOl9
p3249
sg100
VFri Aug 01 16:39:24 +0000 2014
p3250
sg102
I00
sg103
VDublin
p3251
sg104
I00
sg105
I01
sg106
I00
ssg107
I00
sg108
g3236
sg109
I2515
sg110
g3237
sg111
g3238
sg112
I00
sg113
I25
sg114
I00
sg115
I0
sg116
I53229
sg117
g3240
sg118
I9
sg119
g3241
sg120
g3242
sg121
g3243
sg122
I00
sg123
I00
sg124
g3239
sg125
g3244
sg126
g3245
sg127
g3246
sg128
g3247
sg129
I00
sg130
I00
sg131
I0
sg132
g3248
sg133
g3249
sg134
g135
(S"\x07\xde\x08\x01\x10'\x18\x00\x00\x00"
p3252
tp3253
Rp3254
sg139
g3235
sg140
g3251
sg141
I00
sg142
I01
sg143
I00
sbsg144
Nsg29
L663558552133341184L
sg145
I0
sg146
VSocial Ad Center
p3255
sg128
Ven
p3256
sg149
g3215
sg134
g135
(S'\x07\xdf\x0b\t\x03\x1b)\x00\x00\x00'
p3257
tp3258
Rp3259
sg50
(dp3260
g154
Nsg155
I00
sg156
g3212
sg157
I00
sg158
Nsg56
L663558552133341184L
sg159
I0
sg160
V<a href="http://socialadcenter.com" rel="nofollow">Social Ad Center</a>
p3261
sg162
I00
sg163
Nsg64
(dp3262
g165
(lp3263
(dp3264
g39
(lp3265
I89
aI94
asg156
VCARB
p3266
sa(dp3267
g39
(lp3268
I95
aI100
asg156
VJACK
p3269
sa(dp3270
g39
(lp3271
I101
aI106
asg156
VSOHO
p3272
sasg170
(lp3273
sg172
(lp3274
sg35
(lp3275
(dp3276
g33
Vhttps://t.co/8WvnrVmkBS
p3277
sg39
(lp3278
I62
aI85
asg41
Vhttp://PennyStockSecret.com
p3279
sg43
VPennyStockSecret.com
p3280
sassg180
Nsg181
Nsg182
I0
sg68
V663558552133341184
p3281
sg184
I00
sg185
g3234
sg186
Nsg187
Nsg188
I00
sg92
g3256
sg100
VMon Nov 09 03:27:41 +0000 2015
p3282
sg190
Nsg191
Nsg192
(dp3283
g194
Ven
p3284
sg196
Vrecent
p3285
sssg198
g3283
sg199
Nsg200
Nsg31
g3262
sg201
Nsg202
Nsg111
g3281
sg203
I00
sg204
Nsg205
I0
sg206
Nsbag0
(g4
g5
Ntp3286
Rp3287
(dp3288
g9
I00
sg10
Nsg11
I00
sg12
VSotherly Hotels Reaches New 1-Year Low at $5.81 $SOHO https://t.co/qbuyc505aj
p3289
sg14
Vhttp://ifttt.com
p3290
sg16
I00
sg17
I00
sg18
Nsg19
g0
(g20
g5
Ntp3291
Rp3292
(dp3293
g24
I00
sg25
I00
sg26
I01
sg27
VEFEFEF
p3294
sg29
I1979190776
sg30
I00
sg31
(dp3295
g45
(dp3296
g35
(lp3297
sssg48
Vhttps://pbs.twimg.com/profile_images/378800000629011324/02a58ce4852fa2c0b053a8853393c35c_normal.png
p3298
sg50
(dp3299
g52
I00
sg53
I00
sg54
I01
sg55
I00
sg56
I1979190776
sg57
Vhttps://abs.twimg.com/images/themes/theme14/bg.gif
p3300
sg59
I00
sg60
V333333
p3301
sg62
g3298
sg63
g3294
sg64
g3295
sg65
I780
sg66
VEEEEEE
p3302
sg68
V1979190776
p3303
sg70
V131516
p3304
sg72
I83
sg73
I00
sg74
Nsg75
I347263
sg45
VMarket moving news
p3305
sg77
I11
sg78
VVirginia
p3306
sg80
V009999
p3307
sg82
Vhttp://pbs.twimg.com/profile_images/378800000629011324/02a58ce4852fa2c0b053a8853393c35c_normal.png
p3308
sg84
I00
sg85
I00
sg88
Vhttp://abs.twimg.com/images/themes/theme14/bg.gif
p3309
sg90
VTickerReport
p3310
sg92
Ven
p3311
sg94
I01
sg95
I0
sg96
VTicker Report
p3312
sg98
I00
sg33
Nsg100
VMon Oct 21 15:58:27 +0000 2013
p3313
sg102
I00
sg103
Nsg104
I00
sg105
I00
sg106
I00
ssg107
I00
sg108
g3301
sg109
I780
sg110
g3302
sg111
g3303
sg112
I00
sg113
I83
sg114
I00
sg115
Nsg116
I347263
sg117
g3305
sg118
I11
sg119
g3306
sg120
g3307
sg121
g3308
sg122
I00
sg123
I00
sg124
g3304
sg126
g3309
sg127
g3310
sg128
g3311
sg129
I00
sg130
I01
sg131
I0
sg132
g3312
sg133
Nsg134
g135
(S'\x07\xdd\n\x15\x0f:\x1b\x00\x00\x00'
p3314
tp3315
Rp3316
sg139
g3300
sg140
Nsg141
I00
sg142
I00
sg143
I00
sbsg144
Nsg29
L663231198316118017L
sg145
I0
sg146
VIFTTT
p3317
sg128
Ven
p3318
sg149
g3292
sg134
g135
(S'\x07\xdf\x0b\x08\x05.6\x00\x00\x00'
p3319
tp3320
Rp3321
sg50
(dp3322
g154
Nsg155
I00
sg156
g3289
sg157
I00
sg158
Nsg56
L663231198316118017L
sg159
I0
sg160
V<a href="http://ifttt.com" rel="nofollow">IFTTT</a>
p3323
sg162
I00
sg163
Nsg64
(dp3324
g165
(lp3325
(dp3326
g39
(lp3327
I48
aI53
asg156
VSOHO
p3328
sasg170
(lp3329
sg172
(lp3330
sg35
(lp3331
(dp3332
g33
Vhttps://t.co/qbuyc505aj
p3333
sg39
(lp3334
I54
aI77
asg41
Vhttp://ift.tt/1XX3i46
p3335
sg43
Vift.tt/1XX3i46
p3336
sassg180
Nsg181
Nsg182
I0
sg68
V663231198316118017
p3337
sg184
I00
sg185
g3299
sg186
Nsg187
Nsg188
I00
sg92
g3318
sg100
VSun Nov 08 05:46:54 +0000 2015
p3338
sg190
Nsg191
Nsg192
(dp3339
g194
Ven
p3340
sg196
Vrecent
p3341
sssg198
g3339
sg199
Nsg200
Nsg31
g3324
sg201
Nsg202
Nsg111
g3337
sg203
I00
sg204
Nsg205
I0
sg206
Nsbag0
(g4
g5
Ntp3342
Rp3343
(dp3344
g9
I00
sg10
Nsg11
I00
sg12
VSotherly Hotels Reaches New 1-Year Low at $5.81 $SOHO https://t.co/vk2noc1xDJ
p3345
sg14
Vhttp://ifttt.com
p3346
sg16
I00
sg17
I00
sg18
Nsg19
g0
(g20
g5
Ntp3347
Rp3348
(dp3349
g24
I00
sg25
I00
sg26
I01
sg27
VCCDAFF
p3350
sg29
I61661638
sg30
I00
sg31
(dp3351
g33
(dp3352
g35
(lp3353
(dp3354
g33
Vhttp://t.co/7EZswS49Q1
p3355
sg39
(lp3356
I0
aI22
asg41
Vhttp://www.americanbankingnews.com/
p3357
sg43
Vamericanbankingnews.com
p3358
sassg45
(dp3359
g35
(lp3360
sssg48
Vhttps://pbs.twimg.com/profile_images/541252987/Image5_normal.jpg
p3361
sg50
(dp3362
g52
I00
sg53
I00
sg54
I01
sg55
I00
sg56
I61661638
sg57
Vhttps://pbs.twimg.com/profile_background_images/55647305/background.png
p3363
sg59
I00
sg60
V141414
p3364
sg62
g3361
sg63
g3350
sg64
g3351
sg65
I5557
sg66
VABB1D9
p3365
sg68
V61661638
p3366
sg70
V000000
p3367
sg72
I469
sg73
I00
sg74
I-21600
sg75
I693975
sg45
VBanks, Credit Unions & Financial Institutions
p3368
sg77
I2307
sg78
VSioux Falls, SD
p3369
sg80
VA60000
p3370
sg82
Vhttp://pbs.twimg.com/profile_images/541252987/Image5_normal.jpg
p3371
sg84
I00
sg85
I00
sg88
Vhttp://pbs.twimg.com/profile_background_images/55647305/background.png
p3372
sg90
VAmericanBanking
p3373
sg92
Ven
p3374
sg94
I01
sg95
I0
sg96
VUS Banking News
p3375
sg98
I00
sg33
Vhttp://t.co/7EZswS49Q1
p3376
sg100
VFri Jul 31 01:58:33 +0000 2009
p3377
sg102
I00
sg103
VCentral Time (US & Canada)
p3378
sg104
I00
sg105
I00
sg106
I00
ssg107
I00
sg108
g3364
sg109
I5557
sg110
g3365
sg111
g3366
sg112
I00
sg113
I469
sg114
I00
sg115
I-21600
sg116
I693975
sg117
g3368
sg118
I2307
sg119
g3369
sg120
g3370
sg121
g3371
sg122
I00
sg123
I00
sg124
g3367
sg126
g3372
sg127
g3373
sg128
g3374
sg129
I00
sg130
I01
sg131
I0
sg132
g3375
sg133
g3376
sg134
g135
(S'\x07\xd9\x07\x1f\x01:!\x00\x00\x00'
p3379
tp3380
Rp3381
sg139
g3363
sg140
g3378
sg141
I00
sg142
I00
sg143
I00
sbsg144
Nsg29
L663230856664915968L
sg145
I0
sg146
VIFTTT
p3382
sg128
Ven
p3383
sg149
g3348
sg134
g135
(S'\x07\xdf\x0b\x08\x05-!\x00\x00\x00'
p3384
tp3385
Rp3386
sg50
(dp3387
g154
Nsg155
I00
sg156
g3345
sg157
I00
sg158
Nsg56
L663230856664915968L
sg159
I0
sg160
V<a href="http://ifttt.com" rel="nofollow">IFTTT</a>
p3388
sg162
I00
sg163
Nsg64
(dp3389
g165
(lp3390
(dp3391
g39
(lp3392
I48
aI53
asg156
VSOHO
p3393
sasg170
(lp3394
sg172
(lp3395
sg35
(lp3396
(dp3397
g33
Vhttps://t.co/vk2noc1xDJ
p3398
sg39
(lp3399
I54
aI77
asg41
Vhttp://ift.tt/1XX3i46
p3400
sg43
Vift.tt/1XX3i46
p3401
sassg180
Nsg181
Nsg182
I0
sg68
V663230856664915968
p3402
sg184
I00
sg185
g3362
sg186
Nsg187
Nsg188
I00
sg92
g3383
sg100
VSun Nov 08 05:45:33 +0000 2015
p3403
sg190
Nsg191
Nsg192
(dp3404
g194
Ven
p3405
sg196
Vrecent
p3406
sssg198
g3404
sg199
Nsg200
Nsg31
g3389
sg201
Nsg202
Nsg111
g3402
sg203
I00
sg204
Nsg205
I0
sg206
Nsbag0
(g4
g5
Ntp3407
Rp3408
(dp3409
g9
I00
sg10
Nsg11
I00
sg12
VSotherly Hotels Reaches New 12-Month Low at $5.81 $SOHO https://t.co/3bYYpUr1cL
p3410
sg14
Vhttp://ifttt.com
p3411
sg16
I00
sg17
I00
sg18
Nsg19
g0
(g20
g5
Ntp3412
Rp3413
(dp3414
g24
I00
sg25
I00
sg26
I01
sg27
VEFEFEF
p3415
sg29
I1979190776
sg30
I00
sg31
(dp3416
g45
(dp3417
g35
(lp3418
sssg48
Vhttps://pbs.twimg.com/profile_images/378800000629011324/02a58ce4852fa2c0b053a8853393c35c_normal.png
p3419
sg50
(dp3420
g52
I00
sg53
I00
sg54
I01
sg55
I00
sg56
I1979190776
sg57
Vhttps://abs.twimg.com/images/themes/theme14/bg.gif
p3421
sg59
I00
sg60
V333333
p3422
sg62
g3419
sg63
g3415
sg64
g3416
sg65
I780
sg66
VEEEEEE
p3423
sg68
V1979190776
p3424
sg70
V131516
p3425
sg72
I83
sg73
I00
sg74
Nsg75
I347263
sg45
VMarket moving news
p3426
sg77
I11
sg78
VVirginia
p3427
sg80
V009999
p3428
sg82
Vhttp://pbs.twimg.com/profile_images/378800000629011324/02a58ce4852fa2c0b053a8853393c35c_normal.png
p3429
sg84
I00
sg85
I00
sg88
Vhttp://abs.twimg.com/images/themes/theme14/bg.gif
p3430
sg90
VTickerReport
p3431
sg92
Ven
p3432
sg94
I01
sg95
I0
sg96
VTicker Report
p3433
sg98
I00
sg33
Nsg100
VMon Oct 21 15:58:27 +0000 2013
p3434
sg102
I00
sg103
Nsg104
I00
sg105
I00
sg106
I00
ssg107
I00
sg108
g3422
sg109
I780
sg110
g3423
sg111
g3424
sg112
I00
sg113
I83
sg114
I00
sg115
Nsg116
I347263
sg117
g3426
sg118
I11
sg119
g3427
sg120
g3428
sg121
g3429
sg122
I00
sg123
I00
sg124
g3425
sg126
g3430
sg127
g3431
sg128
g3432
sg129
I00
sg130
I01
sg131
I0
sg132
g3433
sg133
Nsg134
g135
(S'\x07\xdd\n\x15\x0f:\x1b\x00\x00\x00'
p3435
tp3436
Rp3437
sg139
g3421
sg140
Nsg141
I00
sg142
I00
sg143
I00
sbsg144
Nsg29
L663080138695974912L
sg145
I0
sg146
VIFTTT
p3438
sg128
Ven
p3439
sg149
g3413
sg134
g135
(S"\x07\xdf\x0b\x07\x13.'\x00\x00\x00"
p3440
tp3441
Rp3442
sg50
(dp3443
g154
Nsg155
I00
sg156
g3410
sg157
I00
sg158
Nsg56
L663080138695974912L
sg159
I0
sg160
V<a href="http://ifttt.com" rel="nofollow">IFTTT</a>
p3444
sg162
I00
sg163
Nsg64
(dp3445
g165
(lp3446
(dp3447
g39
(lp3448
I50
aI55
asg156
VSOHO
p3449
sasg170
(lp3450
sg172
(lp3451
sg35
(lp3452
(dp3453
g33
Vhttps://t.co/3bYYpUr1cL
p3454
sg39
(lp3455
I56
aI79
asg41
Vhttp://ift.tt/1QaZn27
p3456
sg43
Vift.tt/1QaZn27
p3457
sassg180
Nsg181
Nsg182
I0
sg68
V663080138695974912
p3458
sg184
I00
sg185
g3420
sg186
Nsg187
Nsg188
I00
sg92
g3439
sg100
VSat Nov 07 19:46:39 +0000 2015
p3459
sg190
Nsg191
Nsg192
(dp3460
g194
Ven
p3461
sg196
Vrecent
p3462
sssg198
g3460
sg199
Nsg200
Nsg31
g3445
sg201
Nsg202
Nsg111
g3458
sg203
I00
sg204
Nsg205
I0
sg206
Nsbag0
(g4
g5
Ntp3463
Rp3464
(dp3465
g9
I00
sg10
Nsg11
I00
sg12
VSotherly Hotels Reaches New 12-Month Low at $5.81 $SOHO https://t.co/1YA5sVi8lg
p3466
sg14
Vhttp://ifttt.com
p3467
sg16
I00
sg17
I00
sg18
Nsg19
g0
(g20
g5
Ntp3468
Rp3469
(dp3470
g24
I00
sg25
I00
sg26
I01
sg27
VCCDAFF
p3471
sg29
I61661638
sg30
I00
sg31
(dp3472
g33
(dp3473
g35
(lp3474
(dp3475
g33
Vhttp://t.co/7EZswS49Q1
p3476
sg39
(lp3477
I0
aI22
asg41
Vhttp://www.americanbankingnews.com/
p3478
sg43
Vamericanbankingnews.com
p3479
sassg45
(dp3480
g35
(lp3481
sssg48
Vhttps://pbs.twimg.com/profile_images/541252987/Image5_normal.jpg
p3482
sg50
(dp3483
g52
I00
sg53
I00
sg54
I01
sg55
I00
sg56
I61661638
sg57
Vhttps://pbs.twimg.com/profile_background_images/55647305/background.png
p3484
sg59
I00
sg60
V141414
p3485
sg62
g3482
sg63
g3471
sg64
g3472
sg65
I5557
sg66
VABB1D9
p3486
sg68
V61661638
p3487
sg70
V000000
p3488
sg72
I469
sg73
I00
sg74
I-21600
sg75
I693975
sg45
VBanks, Credit Unions & Financial Institutions
p3489
sg77
I2307
sg78
VSioux Falls, SD
p3490
sg80
VA60000
p3491
sg82
Vhttp://pbs.twimg.com/profile_images/541252987/Image5_normal.jpg
p3492
sg84
I00
sg85
I00
sg88
Vhttp://pbs.twimg.com/profile_background_images/55647305/background.png
p3493
sg90
VAmericanBanking
p3494
sg92
Ven
p3495
sg94
I01
sg95
I0
sg96
VUS Banking News
p3496
sg98
I00
sg33
Vhttp://t.co/7EZswS49Q1
p3497
sg100
VFri Jul 31 01:58:33 +0000 2009
p3498
sg102
I00
sg103
VCentral Time (US & Canada)
p3499
sg104
I00
sg105
I00
sg106
I00
ssg107
I00
sg108
g3485
sg109
I5557
sg110
g3486
sg111
g3487
sg112
I00
sg113
I469
sg114
I00
sg115
I-21600
sg116
I693975
sg117
g3489
sg118
I2307
sg119
g3490
sg120
g3491
sg121
g3492
sg122
I00
sg123
I00
sg124
g3488
sg126
g3493
sg127
g3494
sg128
g3495
sg129
I00
sg130
I01
sg131
I0
sg132
g3496
sg133
g3497
sg134
g135
(S'\x07\xd9\x07\x1f\x01:!\x00\x00\x00'
p3500
tp3501
Rp3502
sg139
g3484
sg140
g3499
sg141
I00
sg142
I00
sg143
I00
sbsg144
Nsg29
L663079884600815616L
sg145
I0
sg146
VIFTTT
p3503
sg128
Ven
p3504
sg149
g3469
sg134
g135
(S'\x07\xdf\x0b\x07\x13-&\x00\x00\x00'
p3505
tp3506
Rp3507
sg50
(dp3508
g154
Nsg155
I00
sg156
g3466
sg157
I00
sg158
Nsg56
L663079884600815616L
sg159
I0
sg160
V<a href="http://ifttt.com" rel="nofollow">IFTTT</a>
p3509
sg162
I00
sg163
Nsg64
(dp3510
g165
(lp3511
(dp3512
g39
(lp3513
I50
aI55
asg156
VSOHO
p3514
sasg170
(lp3515
sg172
(lp3516
sg35
(lp3517
(dp3518
g33
Vhttps://t.co/1YA5sVi8lg
p3519
sg39
(lp3520
I56
aI79
asg41
Vhttp://ift.tt/1QaZn27
p3521
sg43
Vift.tt/1QaZn27
p3522
sassg180
Nsg181
Nsg182
I0
sg68
V663079884600815616
p3523
sg184
I00
sg185
g3483
sg186
Nsg187
Nsg188
I00
sg92
g3504
sg100
VSat Nov 07 19:45:38 +0000 2015
p3524
sg190
Nsg191
Nsg192
(dp3525
g194
Ven
p3526
sg196
Vrecent
p3527
sssg198
g3525
sg199
Nsg200
Nsg31
g3510
sg201
Nsg202
Nsg111
g3523
sg203
I00
sg204
Nsg205
I0
sg206
Nsbag0
(g4
g5
Ntp3528
Rp3529
(dp3530
g9
I00
sg10
Nsg11
I00
sg12
V$SOHO is rated BUY, 68.3% upside by Wall Street analysts based on average ratings/targets https://t.co/pPv1ai8N7i https://t.co/1CGNP6VPyc
p3531
sg14
Vhttp://investwithconf.blogspot.com
p3532
sg16
I00
sg17
I00
sg18
Nsg19
g0
(g20
g5
Ntp3533
Rp3534
(dp3535
g24
I00
sg25
I00
sg26
I01
sg27
VF6FFD1
p3536
sg29
L2344623210L
sg30
I00
sg31
(dp3537
g45
(dp3538
g35
(lp3539
sssg48
Vhttps://pbs.twimg.com/profile_images/597618707721035778/xao5eh5P_normal.jpg
p3540
sg50
(dp3541
g52
I00
sg53
I00
sg54
I01
sg55
I00
sg56
L2344623210L
sg57
Vhttps://abs.twimg.com/images/themes/theme19/bg.gif
p3542
sg59
I00
sg60
V333333
p3543
sg62
g3540
sg63
g3536
sg64
g3537
sg65
I256
sg66
VFFF8AD
p3544
sg68
V2344623210
p3545
sg70
VFFF04D
p3546
sg72
I16
sg73
I00
sg74
I-18000
sg75
I67446
sg45
g76
sg77
I0
sg78
g76
sg80
V0099CC
p3547
sg82
Vhttp://pbs.twimg.com/profile_images/597618707721035778/xao5eh5P_normal.jpg
p3548
sg84
I00
sg85
I00
sg88
Vhttp://abs.twimg.com/images/themes/theme19/bg.gif
p3549
sg90
VInvestWithConf
p3550
sg92
Ven
p3551
sg94
I00
sg95
I0
sg96
VInvestWithConf
p3552
sg98
I00
sg33
Nsg100
VSat Feb 15 05:52:28 +0000 2014
p3553
sg102
I00
sg103
VEastern Time (US & Canada)
p3554
sg104
I00
sg105
I00
sg106
I00
ssg107
I00
sg108
g3543
sg109
I256
sg110
g3544
sg111
g3545
sg112
I00
sg113
I16
sg114
I00
sg115
I-18000
sg116
I67446
sg117
g76
sg118
I0
sg119
g76
sg120
g3547
sg121
g3548
sg122
I00
sg123
I00
sg124
g3546
sg126
g3549
sg127
g3550
sg128
g3551
sg129
I00
sg130
I00
sg131
I0
sg132
g3552
sg133
Nsg134
g135
(S'\x07\xde\x02\x0f\x054\x1c\x00\x00\x00'
p3555
tp3556
Rp3557
sg139
g3542
sg140
g3554
sg141
I00
sg142
I00
sg143
I00
sbsg144
Nsg29
L662737482966929408L
sg145
I0
sg146
VIWCE
p3558
sg128
Ven
p3559
sg149
g3534
sg134
g135
(S'\x07\xdf\x0b\x06\x15\x05\x03\x00\x00\x00'
p3560
tp3561
Rp3562
sg50
(dp3563
g154
Nsg155
I00
sg156
g3531
sg157
I00
sg158
Nsg56
L662737482966929408L
sg159
I0
sg160
V<a href="http://investwithconf.blogspot.com" rel="nofollow">IWCE</a>
p3564
sg162
I00
sg163
Nsg64
(dp3565
g165
(lp3566
(dp3567
g39
(lp3568
I0
aI5
asg156
VSOHO
p3569
sasg170
(lp3570
sg172
(lp3571
sg35
(lp3572
(dp3573
g33
Vhttps://t.co/pPv1ai8N7i
p3574
sg39
(lp3575
I90
aI113
asg41
Vhttp://manyratings.com/SOHO
p3576
sg43
Vmanyratings.com/SOHO
p3577
sasg540
(lp3578
(dp3579
g41
Vhttp://twitter.com/InvestWithConf/status/662737482966929408/photo/1
p3580
sg43
Vpic.twitter.com/1CGNP6VPyc
p3581
sg33
Vhttps://t.co/1CGNP6VPyc
p3582
sg546
Vhttps://pbs.twimg.com/media/CTKEOqlUcAEwtGt.jpg
p3583
sg68
V662737482660737025
p3584
sg549
(dp3585
g551
(dp3586
g553
I4
sg554
Vfit
p3587
sg556
I4
ssg557
(dp3588
g553
I4
sg554
Vfit
p3589
sg556
I4
ssg560
(dp3590
g553
I4
sg554
Vfit
p3591
sg556
I4
ssg563
(dp3592
g553
I4
sg554
Vcrop
p3593
sg556
I4
sssg39
(lp3594
I114
aI137
asg567
Vphoto
p3595
sg56
L662737482660737025L
sg569
Vhttp://pbs.twimg.com/media/CTKEOqlUcAEwtGt.jpg
p3596
sassg180
Nsg181
Nsg182
I0
sg68
V662737482966929408
p3597
sg184
I00
sg185
g3541
sg186
Nsg187
Nsg188
I00
sg92
g3559
sg100
VFri Nov 06 21:05:03 +0000 2015
p3598
sg190
Nsg191
Nsg192
(dp3599
g194
Ven
p3600
sg196
Vrecent
p3601
sssg198
g3599
sg199
Nsg200
Nsg31
g3565
sg201
Nsg202
Nsg111
g3597
sg203
I00
sg204
Nsg205
I0
sg206
Nsbag0
(g4
g5
Ntp3602
Rp3603
(dp3604
g9
I00
sg10
Nsg11
I00
sg12
VSotherly Hotels Receives Consensus Hold Rating from Analysts $SOHO https://t.co/moeEV4RJ68
p3605
sg14
Vhttp://ifttt.com
p3606
sg16
I00
sg17
I00
sg18
Nsg19
g0
(g20
g5
Ntp3607
Rp3608
(dp3609
g24
I00
sg25
I00
sg26
I01
sg27
VCCDAFF
p3610
sg29
I61661638
sg30
I00
sg31
(dp3611
g33
(dp3612
g35
(lp3613
(dp3614
g33
Vhttp://t.co/7EZswS49Q1
p3615
sg39
(lp3616
I0
aI22
asg41
Vhttp://www.americanbankingnews.com/
p3617
sg43
Vamericanbankingnews.com
p3618
sassg45
(dp3619
g35
(lp3620
sssg48
Vhttps://pbs.twimg.com/profile_images/541252987/Image5_normal.jpg
p3621
sg50
(dp3622
g52
I00
sg53
I00
sg54
I01
sg55
I00
sg56
I61661638
sg57
Vhttps://pbs.twimg.com/profile_background_images/55647305/background.png
p3623
sg59
I00
sg60
V141414
p3624
sg62
g3621
sg63
g3610
sg64
g3611
sg65
I5557
sg66
VABB1D9
p3625
sg68
V61661638
p3626
sg70
V000000
p3627
sg72
I469
sg73
I00
sg74
I-21600
sg75
I693975
sg45
VBanks, Credit Unions & Financial Institutions
p3628
sg77
I2307
sg78
VSioux Falls, SD
p3629
sg80
VA60000
p3630
sg82
Vhttp://pbs.twimg.com/profile_images/541252987/Image5_normal.jpg
p3631
sg84
I00
sg85
I00
sg88
Vhttp://pbs.twimg.com/profile_background_images/55647305/background.png
p3632
sg90
VAmericanBanking
p3633
sg92
Ven
p3634
sg94
I01
sg95
I0
sg96
VUS Banking News
p3635
sg98
I00
sg33
Vhttp://t.co/7EZswS49Q1
p3636
sg100
VFri Jul 31 01:58:33 +0000 2009
p3637
sg102
I00
sg103
VCentral Time (US & Canada)
p3638
sg104
I00
sg105
I00
sg106
I00
ssg107
I00
sg108
g3624
sg109
I5557
sg110
g3625
sg111
g3626
sg112
I00
sg113
I469
sg114
I00
sg115
I-21600
sg116
I693975
sg117
g3628
sg118
I2307
sg119
g3629
sg120
g3630
sg121
g3631
sg122
I00
sg123
I00
sg124
g3627
sg126
g3632
sg127
g3633
sg128
g3634
sg129
I00
sg130
I01
sg131
I0
sg132
g3635
sg133
g3636
sg134
g135
(S'\x07\xd9\x07\x1f\x01:!\x00\x00\x00'
p3639
tp3640
Rp3641
sg139
g3623
sg140
g3638
sg141
I00
sg142
I00
sg143
I00
sbsg144
Nsg29
L662637349441036288L
sg145
I0
sg146
VIFTTT
p3642
sg128
Ven
p3643
sg149
g3608
sg134
g135
(S'\x07\xdf\x0b\x06\x0e\x1b\t\x00\x00\x00'
p3644
tp3645
Rp3646
sg50
(dp3647
g154
Nsg155
I00
sg156
g3605
sg157
I00
sg158
Nsg56
L662637349441036288L
sg159
I0
sg160
V<a href="http://ifttt.com" rel="nofollow">IFTTT</a>
p3648
sg162
I00
sg163
Nsg64
(dp3649
g165
(lp3650
(dp3651
g39
(lp3652
I61
aI66
asg156
VSOHO
p3653
sasg170
(lp3654
sg172
(lp3655
sg35
(lp3656
(dp3657
g33
Vhttps://t.co/moeEV4RJ68
p3658
sg39
(lp3659
I67
aI90
asg41
Vhttp://ift.tt/1WBYVhy
p3660
sg43
Vift.tt/1WBYVhy
p3661
sassg180
Nsg181
Nsg182
I0
sg68
V662637349441036288
p3662
sg184
I00
sg185
g3622
sg186
Nsg187
Nsg188
I00
sg92
g3643
sg100
VFri Nov 06 14:27:09 +0000 2015
p3663
sg190
Nsg191
Nsg192
(dp3664
g194
Ven
p3665
sg196
Vrecent
p3666
sssg198
g3664
sg199
Nsg200
Nsg31
g3649
sg201
Nsg202
Nsg111
g3662
sg203
I00
sg204
Nsg205
I0
sg206
Nsbag0
(g4
g5
Ntp3667
Rp3668
(dp3669
g9
I00
sg10
Nsg11
I00
sg12
V$SOHO Sotherly Hotels Inc. filed a new #XBRL report to the #SEC. https://t.co/ajRFmNIe1r
p3670
sg14
Vhttp://www.xbrl4.org/
p3671
sg16
I00
sg17
I00
sg18
Nsg19
g0
(g20
g5
Ntp3672
Rp3673
(dp3674
g24
I00
sg25
I00
sg26
I01
sg27
VDDEEF6
p3675
sg29
I179538557
sg30
I00
sg31
(dp3676
g33
(dp3677
g35
(lp3678
(dp3679
g33
Vhttp://t.co/yzdi83V9uz
p3680
sg39
(lp3681
I0
aI22
asg41
Vhttp://www.reportingstandard.com
p3682
sg43
Vreportingstandard.com
p3683
sassg45
(dp3684
g35
(lp3685
sssg48
Vhttps://pbs.twimg.com/profile_images/1105004443/Logo-Reporting_normal.jpg
p3686
sg50
(dp3687
g52
I00
sg53
I00
sg54
I01
sg55
I00
sg56
I179538557
sg57
Vhttps://abs.twimg.com/images/themes/theme1/bg.png
p3688
sg59
I00
sg60
V333333
p3689
sg62
g3686
sg63
g3675
sg64
g3676
sg65
I140
sg66
VC0DEED
p3690
sg68
V179538557
p3691
sg70
VC0DEED
p3692
sg72
I18
sg73
I00
sg74
I3600
sg75
I133110
sg45
VXBRL software for Regulators, Filers, Analysts and other software companies
p3693
sg77
I36
sg78
VEarth
p3694
sg80
V0084B4
p3695
sg82
Vhttp://pbs.twimg.com/profile_images/1105004443/Logo-Reporting_normal.jpg
p3696
sg84
I00
sg85
I00
sg88
Vhttp://abs.twimg.com/images/themes/theme1/bg.png
p3697
sg90
VXBRLStandard
p3698
sg92
Ves
p3699
sg94
I00
sg95
I0
sg96
VReporting Standards
p3700
sg98
I00
sg33
Vhttp://t.co/yzdi83V9uz
p3701
sg100
VTue Aug 17 14:55:42 +0000 2010
p3702
sg102
I00
sg103
VMadrid
p3703
sg104
I00
sg105
I01
sg106
I00
ssg107
I00
sg108
g3689
sg109
I140
sg110
g3690
sg111
g3691
sg112
I00
sg113
I18
sg114
I00
sg115
I3600
sg116
I133110
sg117
g3693
sg118
I36
sg119
g3694
sg120
g3695
sg121
g3696
sg122
I00
sg123
I00
sg124
g3692
sg126
g3697
sg127
g3698
sg128
g3699
sg129
I00
sg130
I00
sg131
I0
sg132
g3700
sg133
g3701
sg134
g135
(S'\x07\xda\x08\x11\x0e7*\x00\x00\x00'
p3704
tp3705
Rp3706
sg139
g3688
sg140
g3703
sg141
I00
sg142
I01
sg143
I00
sbsg144
Nsg29
L662273985267281920L
sg145
I0
sg146
VSEC Submissions feed
p3707
sg128
Ven
p3708
sg149
g3673
sg134
g135
(S'\x07\xdf\x0b\x05\x0e\x17\x11\x00\x00\x00'
p3709
tp3710
Rp3711
sg50
(dp3712
g154
Nsg155
I00
sg156
g3670
sg157
I00
sg158
Nsg56
L662273985267281920L
sg159
I0
sg160
V<a href="http://www.xbrl4.org/" rel="nofollow">SEC Submissions feed</a>
p3713
sg162
I00
sg163
Nsg64
(dp3714
g165
(lp3715
(dp3716
g39
(lp3717
I0
aI5
asg156
VSOHO
p3718
sasg170
(lp3719
sg172
(lp3720
(dp3721
g39
(lp3722
I39
aI44
asg156
VXBRL
p3723
sa(dp3724
g39
(lp3725
I59
aI63
asg156
VSEC
p3726
sasg35
(lp3727
(dp3728
g33
Vhttps://t.co/ajRFmNIe1r
p3729
sg39
(lp3730
I65
aI88
asg41
Vhttp://www.xbrl4.org/regulators/seeReport.jsp?documentKey=http://www.sec.gov/Archives/edgar/data/1301236/000119312515187621/soho-20150331.xml
p3731
sg43
Vxbrl4.org/regulators/see\u2026
p3732
sassg180
Nsg181
Nsg182
I0
sg68
V662273985267281920
p3733
sg184
I00
sg185
g3687
sg186
Nsg187
Nsg188
I00
sg92
g3708
sg100
VThu Nov 05 14:23:17 +0000 2015
p3734
sg190
Nsg191
Nsg192
(dp3735
g194
Ven
p3736
sg196
Vrecent
p3737
sssg198
g3735
sg199
Nsg200
Nsg31
g3714
sg201
Nsg202
Nsg111
g3733
sg203
I00
sg204
Nsg205
I0
sg206
Nsbag0
(g4
g5
Ntp3738
Rp3739
(dp3740
g9
I00
sg10
Nsg11
I00
sg12
V$VASC $SOHO $X:\u000a\u000aStocks Trending: Digital Ally Inc., Vascular Solutions Inc. (NASDAQ \u2026:\u000a\u000ahttps://t.co/19p7cpntIA
p3741
sg14
Vhttp://fnsappbg.blogspot.com/
p3742
sg16
I00
sg17
I00
sg18
Nsg19
g0
(g20
g5
Ntp3743
Rp3744
(dp3745
g24
I00
sg25
I00
sg26
I01
sg27
VDDEEF6
p3746
sg29
L2881595931L
sg30
I00
sg31
(dp3747
g45
(dp3748
g35
(lp3749
sssg48
Vhttps://pbs.twimg.com/profile_images/542392174428434432/PfyzCfya_normal.jpeg
p3750
sg50
(dp3751
g52
I00
sg53
I00
sg54
I01
sg55
I00
sg56
L2881595931L
sg57
Vhttps://abs.twimg.com/images/themes/theme1/bg.png
p3752
sg59
I00
sg60
V333333
p3753
sg62
g3750
sg63
g3746
sg64
g3747
sg65
I593
sg66
VC0DEED
p3754
sg68
V2881595931
p3755
sg70
VC0DEED
p3756
sg72
I90
sg73
I00
sg74
I-18000
sg75
I235203
sg45
g76
sg77
I6
sg78
g76
sg80
V0084B4
p3757
sg82
Vhttp://pbs.twimg.com/profile_images/542392174428434432/PfyzCfya_normal.jpeg
p3758
sg84
I00
sg85
I00
sg88
Vhttp://abs.twimg.com/images/themes/theme1/bg.png
p3759
sg90
VProVesting
p3760
sg92
Ven
p3761
sg94
I00
sg95
I0
sg96
VProVesting
p3762
sg98
I00
sg33
Nsg100
VMon Nov 17 20:15:38 +0000 2014
p3763
sg102
I00
sg103
VEastern Time (US & Canada)
p3764
sg104
I00
sg105
I01
sg106
I00
ssg107
I00
sg108
g3753
sg109
I593
sg110
g3754
sg111
g3755
sg112
I00
sg113
I90
sg114
I00
sg115
I-18000
sg116
I235203
sg117
g76
sg118
I6
sg119
g76
sg120
g3757
sg121
g3758
sg122
I00
sg123
I00
sg124
g3756
sg126
g3759
sg127
g3760
sg128
g3761
sg129
I00
sg130
I00
sg131
I0
sg132
g3762
sg133
Nsg134
g135
(S'\x07\xde\x0b\x11\x14\x0f&\x00\x00\x00'
p3765
tp3766
Rp3767
sg139
g3752
sg140
g3764
sg141
I00
sg142
I01
sg143
I00
sbsg144
Nsg29
L662268931416178688L
sg145
I0
sg146
VFNS_APP
p3768
sg128
Vund
p3769
sg149
g3744
sg134
g135
(S'\x07\xdf\x0b\x05\x0e\x03\x0c\x00\x00\x00'
p3770
tp3771
Rp3772
sg50
(dp3773
g154
Nsg155
I00
sg156
V$VASC $SOHO $X:\u000a\u000aStocks Trending: Digital Ally Inc., Vascular Solutions Inc. (NASDAQ \u2026:\u000a\u000ahttps://t.co/19p7cpntIA
p3774
sg157
I00
sg158
Nsg56
L662268931416178688L
sg159
I0
sg160
V<a href="http://fnsappbg.blogspot.com/" rel="nofollow">FNS_APP</a>
p3775
sg162
I00
sg163
Nsg64
(dp3776
g165
(lp3777
(dp3778
g39
(lp3779
I0
aI5
asg156
VVASC
p3780
sa(dp3781
g39
(lp3782
I6
aI11
asg156
VSOHO
p3783
sa(dp3784
g39
(lp3785
I12
aI14
asg156
VX
p3786
sasg170
(lp3787
sg172
(lp3788
sg35
(lp3789
(dp3790
g33
Vhttps://t.co/19p7cpntIA
p3791
sg39
(lp3792
I89
aI112
asg41
Vhttp://StockNewsHour.com/vasc-soho-x-stocks-trending-digital-ally-inc-vascular-solutions-inc-nasdaq/
p3793
sg43
VStockNewsHour.com/vasc-soho-x-st\u2026
p3794
sassg180
Nsg181
Nsg182
I0
sg68
V662268931416178688
p3795
sg184
I00
sg185
g3751
sg186
Nsg187
Nsg188
I00
sg92
g3769
sg100
VThu Nov 05 14:03:12 +0000 2015
p3796
sg190
Nsg191
Nsg192
(dp3797
g194
Vund
p3798
sg196
Vrecent
p3799
sssg198
g3797
sg199
Nsg200
Nsg31
g3776
sg201
Nsg202
Nsg111
g3795
sg203
I00
sg204
Nsg205
I0
sg206
Nsbag0
(g4
g5
Ntp3800
Rp3801
(dp3802
g9
I00
sg10
Nsg11
I00
sg12
VSotherly Hotels Raised to \u201cHold\u201d at Zacks $SOHO https://t.co/6ZKaQ72GM0
p3803
sg14
Vhttp://ifttt.com
p3804
sg16
I00
sg17
I00
sg18
Nsg19
g0
(g20
g5
Ntp3805
Rp3806
(dp3807
g24
I00
sg25
I00
sg26
I01
sg27
VEFEFEF
p3808
sg29
I1979190776
sg30
I00
sg31
(dp3809
g45
(dp3810
g35
(lp3811
sssg48
Vhttps://pbs.twimg.com/profile_images/378800000629011324/02a58ce4852fa2c0b053a8853393c35c_normal.png
p3812
sg50
(dp3813
g52
I00
sg53
I00
sg54
I01
sg55
I00
sg56
I1979190776
sg57
Vhttps://abs.twimg.com/images/themes/theme14/bg.gif
p3814
sg59
I00
sg60
V333333
p3815
sg62
g3812
sg63
g3808
sg64
g3809
sg65
I780
sg66
VEEEEEE
p3816
sg68
V1979190776
p3817
sg70
V131516
p3818
sg72
I83
sg73
I00
sg74
Nsg75
I347263
sg45
VMarket moving news
p3819
sg77
I11
sg78
VVirginia
p3820
sg80
V009999
p3821
sg82
Vhttp://pbs.twimg.com/profile_images/378800000629011324/02a58ce4852fa2c0b053a8853393c35c_normal.png
p3822
sg84
I00
sg85
I00
sg88
Vhttp://abs.twimg.com/images/themes/theme14/bg.gif
p3823
sg90
VTickerReport
p3824
sg92
Ven
p3825
sg94
I01
sg95
I0
sg96
VTicker Report
p3826
sg98
I00
sg33
Nsg100
VMon Oct 21 15:58:27 +0000 2013
p3827
sg102
I00
sg103
Nsg104
I00
sg105
I00
sg106
I00
ssg107
I00
sg108
g3815
sg109
I780
sg110
g3816
sg111
g3817
sg112
I00
sg113
I83
sg114
I00
sg115
Nsg116
I347263
sg117
g3819
sg118
I11
sg119
g3820
sg120
g3821
sg121
g3822
sg122
I00
sg123
I00
sg124
g3818
sg126
g3823
sg127
g3824
sg128
g3825
sg129
I00
sg130
I01
sg131
I0
sg132
g3826
sg133
Nsg134
g135
(S'\x07\xdd\n\x15\x0f:\x1b\x00\x00\x00'
p3828
tp3829
Rp3830
sg139
g3814
sg140
Nsg141
I00
sg142
I00
sg143
I00
sbsg144
Nsg29
L662086872513044480L
sg145
I0
sg146
VIFTTT
p3831
sg128
Ven
p3832
sg149
g3806
sg134
g135
(S'\x07\xdf\x0b\x05\x01;.\x00\x00\x00'
p3833
tp3834
Rp3835
sg50
(dp3836
g154
Nsg155
I00
sg156
g3803
sg157
I00
sg158
Nsg56
L662086872513044480L
sg159
I0
sg160
V<a href="http://ifttt.com" rel="nofollow">IFTTT</a>
p3837
sg162
I00
sg163
Nsg64
(dp3838
g165
(lp3839
(dp3840
g39
(lp3841
I42
aI47
asg156
VSOHO
p3842
sasg170
(lp3843
sg172
(lp3844
sg35
(lp3845
(dp3846
g33
Vhttps://t.co/6ZKaQ72GM0
p3847
sg39
(lp3848
I48
aI71
asg41
Vhttp://ift.tt/1kud3rT
p3849
sg43
Vift.tt/1kud3rT
p3850
sassg180
Nsg181
Nsg182
I0
sg68
V662086872513044480
p3851
sg184
I00
sg185
g3813
sg186
Nsg187
Nsg188
I00
sg92
g3832
sg100
VThu Nov 05 01:59:46 +0000 2015
p3852
sg190
Nsg191
Nsg192
(dp3853
g194
Ven
p3854
sg196
Vrecent
p3855
sssg198
g3853
sg199
Nsg200
Nsg31
g3838
sg201
Nsg202
Nsg111
g3851
sg203
I00
sg204
Nsg205
I0
sg206
Nsbag0
(g4
g5
Ntp3856
Rp3857
(dp3858
g9
I00
sg10
Nsg11
I00
sg12
VSotherly Hotels Raised to \u201cHold\u201d at Zacks $SOHO https://t.co/h2hFx6kh4S
p3859
sg14
Vhttp://ifttt.com
p3860
sg16
I00
sg17
I00
sg18
Nsg19
g0
(g20
g5
Ntp3861
Rp3862
(dp3863
g24
I00
sg25
I00
sg26
I01
sg27
VCCDAFF
p3864
sg29
I61661638
sg30
I00
sg31
(dp3865
g33
(dp3866
g35
(lp3867
(dp3868
g33
Vhttp://t.co/7EZswS49Q1
p3869
sg39
(lp3870
I0
aI22
asg41
Vhttp://www.americanbankingnews.com/
p3871
sg43
Vamericanbankingnews.com
p3872
sassg45
(dp3873
g35
(lp3874
sssg48
Vhttps://pbs.twimg.com/profile_images/541252987/Image5_normal.jpg
p3875
sg50
(dp3876
g52
I00
sg53
I00
sg54
I01
sg55
I00
sg56
I61661638
sg57
Vhttps://pbs.twimg.com/profile_background_images/55647305/background.png
p3877
sg59
I00
sg60
V141414
p3878
sg62
g3875
sg63
g3864
sg64
g3865
sg65
I5557
sg66
VABB1D9
p3879
sg68
V61661638
p3880
sg70
V000000
p3881
sg72
I469
sg73
I00
sg74
I-21600
sg75
I693975
sg45
VBanks, Credit Unions & Financial Institutions
p3882
sg77
I2307
sg78
VSioux Falls, SD
p3883
sg80
VA60000
p3884
sg82
Vhttp://pbs.twimg.com/profile_images/541252987/Image5_normal.jpg
p3885
sg84
I00
sg85
I00
sg88
Vhttp://pbs.twimg.com/profile_background_images/55647305/background.png
p3886
sg90
VAmericanBanking
p3887
sg92
Ven
p3888
sg94
I01
sg95
I0
sg96
VUS Banking News
p3889
sg98
I00
sg33
Vhttp://t.co/7EZswS49Q1
p3890
sg100
VFri Jul 31 01:58:33 +0000 2009
p3891
sg102
I00
sg103
VCentral Time (US & Canada)
p3892
sg104
I00
sg105
I00
sg106
I00
ssg107
I00
sg108
g3878
sg109
I5557
sg110
g3879
sg111
g3880
sg112
I00
sg113
I469
sg114
I00
sg115
I-21600
sg116
I693975
sg117
g3882
sg118
I2307
sg119
g3883
sg120
g3884
sg121
g3885
sg122
I00
sg123
I00
sg124
g3881
sg126
g3886
sg127
g3887
sg128
g3888
sg129
I00
sg130
I01
sg131
I0
sg132
g3889
sg133
g3890
sg134
g135
(S'\x07\xd9\x07\x1f\x01:!\x00\x00\x00'
p3893
tp3894
Rp3895
sg139
g3877
sg140
g3892
sg141
I00
sg142
I00
sg143
I00
sbsg144
Nsg29
L662086240146202624L
sg145
I0
sg146
VIFTTT
p3896
sg128
Ven
p3897
sg149
g3862
sg134
g135
(S'\x07\xdf\x0b\x05\x019\x0f\x00\x00\x00'
p3898
tp3899
Rp3900
sg50
(dp3901
g154
Nsg155
I00
sg156
g3859
sg157
I00
sg158
Nsg56
L662086240146202624L
sg159
I0
sg160
V<a href="http://ifttt.com" rel="nofollow">IFTTT</a>
p3902
sg162
I00
sg163
Nsg64
(dp3903
g165
(lp3904
(dp3905
g39
(lp3906
I42
aI47
asg156
VSOHO
p3907
sasg170
(lp3908
sg172
(lp3909
sg35
(lp3910
(dp3911
g33
Vhttps://t.co/h2hFx6kh4S
p3912
sg39
(lp3913
I48
aI71
asg41
Vhttp://ift.tt/1kud3rT
p3914
sg43
Vift.tt/1kud3rT
p3915
sassg180
Nsg181
Nsg182
I0
sg68
V662086240146202624
p3916
sg184
I00
sg185
g3876
sg186
Nsg187
Nsg188
I00
sg92
g3897
sg100
VThu Nov 05 01:57:15 +0000 2015
p3917
sg190
Nsg191
Nsg192
(dp3918
g194
Ven
p3919
sg196
Vrecent
p3920
sssg198
g3918
sg199
Nsg200
Nsg31
g3903
sg201
Nsg202
Nsg111
g3916
sg203
I00
sg204
Nsg205
I0
sg206
Nsbag0
(g4
g5
Ntp3921
Rp3922
(dp3923
g9
I00
sg10
Nsg11
I00
sg12
VImp catalysts 4 MEIP &amp; CALA in d cmg week Here is DD 4 investors:https://t.co/lwSyWTxOEB $SOHO $KKD $SNMX $GTIM $NILE $PIR
p3924
sg14
Vhttp://twittimer.com
p3925
sg16
I00
sg17
I00
sg18
Nsg19
g0
(g20
g5
Ntp3926
Rp3927
(dp3928
g24
I00
sg25
I01
sg26
I00
sg27
V000000
p3929
sg29
L3518191635L
sg30
I00
sg31
(dp3930
g33
(dp3931
g35
(lp3932
(dp3933
g33
Vhttps://t.co/ot2Kl5nyub
p3934
sg39
(lp3935
I0
aI23
asg41
Vhttps://groups.google.com/forum/#!forum/jbem777
p3936
sg43
Vgroups.google.com/forum/#!forum/\u2026
p3937
sassg45
(dp3938
g35
(lp3939
sssg48
Vhttps://pbs.twimg.com/profile_images/638885869433196544/C975RWXJ_normal.jpg
p3940
sg50
(dp3941
g52
I00
sg53
I01
sg54
I00
sg55
I00
sg56
L3518191635L
sg57
Vhttps://abs.twimg.com/images/themes/theme1/bg.png
p3942
sg59
I00
sg60
V000000
p3943
sg62
g3940
sg63
g3929
sg64
g3930
sg65
I28
sg66
V000000
p3944
sg68
V3518191635
p3945
sg70
V000000
p3946
sg72
I1
sg73
I00
sg74
I-28800
sg75
I1505
sg45
VHealthcare Stocks
p3947
sg77
I25
sg78
g76
sg80
V89C9FA
p3948
sg82
Vhttp://pbs.twimg.com/profile_images/638885869433196544/C975RWXJ_normal.jpg
p3949
sg84
I00
sg85
I00
sg88
Vhttp://abs.twimg.com/images/themes/theme1/bg.png
p3950
sg90
Vjbemstocks
p3951
sg92
Ven
p3952
sg94
I00
sg95
I0
sg96
VDUE DILIGENCE
p3953
sg98
I00
sg33
Vhttps://t.co/ot2Kl5nyub
p3954
sg100
VWed Sep 02 01:23:46 +0000 2015
p3955
sg102
I00
sg103
VPacific Time (US & Canada)
p3956
sg104
I00
sg105
I00
sg106
I00
ssg107
I00
sg108
g3943
sg109
I28
sg110
g3944
sg111
g3945
sg112
I00
sg113
I1
sg114
I00
sg115
I-28800
sg116
I1505
sg117
g3947
sg118
I25
sg119
g76
sg120
g3948
sg121
g3949
sg122
I00
sg123
I00
sg124
g3946
sg126
g3950
sg127
g3951
sg128
g3952
sg129
I00
sg130
I00
sg131
I0
sg132
g3953
sg133
g3954
sg134
g135
(S'\x07\xdf\t\x02\x01\x17.\x00\x00\x00'
p3957
tp3958
Rp3959
sg139
g3942
sg140
g3956
sg141
I00
sg142
I00
sg143
I00
sbsg144
Nsg29
L662079651368464384L
sg145
I0
sg146
VTwittimer
p3960
sg128
Ven
p3961
sg149
g3927
sg134
g135
(S'\x07\xdf\x0b\x05\x01\x1f\x04\x00\x00\x00'
p3962
tp3963
Rp3964
sg50
(dp3965
g154
Nsg155
I00
sg156
g3924
sg157
I00
sg158
Nsg56
L662079651368464384L
sg159
I0
sg160
V<a href="http://twittimer.com" rel="nofollow">Twittimer</a>
p3966
sg162
I00
sg163
Nsg64
(dp3967
g165
(lp3968
(dp3969
g39
(lp3970
I93
aI98
asg156
VSOHO
p3971
sa(dp3972
g39
(lp3973
I99
aI103
asg156
VKKD
p3974
sa(dp3975
g39
(lp3976
I104
aI109
asg156
VSNMX
p3977
sa(dp3978
g39
(lp3979
I110
aI115
asg156
VGTIM
p3980
sa(dp3981
g39
(lp3982
I116
aI121
asg156
VNILE
p3983
sa(dp3984
g39
(lp3985
I122
aI126
asg156
VPIR
p3986
sasg170
(lp3987
sg172
(lp3988
sg35
(lp3989
(dp3990
g33
Vhttps://t.co/lwSyWTxOEB
p3991
sg39
(lp3992
I69
aI92
asg41
Vhttp://bit.ly/1KjZ8cR
p3993
sg43
Vbit.ly/1KjZ8cR
p3994
sassg180
Nsg181
Nsg182
I0
sg68
V662079651368464384
p3995
sg184
I00
sg185
g3941
sg186
Nsg187
Nsg188
I00
sg92
g3961
sg100
VThu Nov 05 01:31:04 +0000 2015
p3996
sg190
Nsg191
Nsg192
(dp3997
g194
Ven
p3998
sg196
Vrecent
p3999
sssg198
g3997
sg199
Nsg200
Nsg31
g3967
sg201
Nsg202
Nsg111
g3995
sg203
I00
sg204
Nsg205
I0
sg206
Nsbag0
(g4
g5
Ntp4000
Rp4001
(dp4002
g9
I00
sg10
Nsg11
I00
sg12
V$SOHO received a new alert. Find out why at https://t.co/nZwqReM0tj #stocks #daytrading #trading #mkt  #NYSE #NASDAQ #markets 942
p4003
sg14
Vhttp://www.aheadsup.com/
p4004
sg16
I00
sg17
I00
sg18
Nsg19
g0
(g20
g5
Ntp4005
Rp4006
(dp4007
g24
I00
sg25
I00
sg26
I01
sg27
VDDEEF6
p4008
sg29
I39546678
sg30
I00
sg31
(dp4009
g33
(dp4010
g35
(lp4011
(dp4012
g33
Vhttp://t.co/TlOjBDQQtY
p4013
sg39
(lp4014
I0
aI22
asg41
Vhttp://www.MediaSentiment.com
p4015
sg43
VMediaSentiment.com
p4016
sassg45
(dp4017
g35
(lp4018
(dp4019
g33
Vhttp://t.co/feRZl5QRu9
p4020
sg39
(lp4021
I129
aI151
asg41
Vhttp://www.aheadsup.com
p4022
sg43
Vaheadsup.com
p4023
sasssg48
Vhttps://pbs.twimg.com/profile_images/420277170586394624/5mABm6pI_normal.png
p4024
sg50
(dp4025
g52
I00
sg53
I00
sg54
I01
sg55
I00
sg56
I39546678
sg57
Vhttps://pbs.twimg.com/profile_background_images/378800000163732765/PdOKr6DH.png
p4026
sg59
I00
sg60
V333333
p4027
sg62
g4024
sg63
g4008
sg64
g4009
sg65
I7463
sg66
VFFFFFF
p4028
sg68
V39546678
p4029
sg70
VFFFFFF
p4030
sg72
I87
sg73
I00
sg74
I-28800
sg75
I291238
sg45
VMedia Sentiment helps you to find the news that matters to you from accounts you follow on twitter! New social networking tool: http://t.co/feRZl5QRu9
p4031
sg77
I7208
sg78
g76
sg80
V911955
p4032
sg82
Vhttp://pbs.twimg.com/profile_images/420277170586394624/5mABm6pI_normal.png
p4033
sg84
I00
sg85
I00
sg86
Vhttps://pbs.twimg.com/profile_banners/39546678/1389036891
p4034
sg88
Vhttp://pbs.twimg.com/profile_background_images/378800000163732765/PdOKr6DH.png
p4035
sg90
Vmediasentiment
p4036
sg92
Ven
p4037
sg94
I00
sg95
I4
sg96
VMedia Sentiment
p4038
sg98
I00
sg33
Vhttp://t.co/TlOjBDQQtY
p4039
sg100
VTue May 12 17:21:24 +0000 2009
p4040
sg102
I00
sg103
VPacific Time (US & Canada)
p4041
sg104
I00
sg105
I00
sg106
I00
ssg107
I00
sg108
g4027
sg109
I7463
sg110
g4028
sg111
g4029
sg112
I00
sg113
I87
sg114
I00
sg115
I-28800
sg116
I291238
sg117
g4031
sg118
I7208
sg119
g76
sg120
g4032
sg121
g4033
sg122
I00
sg123
I00
sg124
g4030
sg125
g4034
sg126
g4035
sg127
g4036
sg128
g4037
sg129
I00
sg130
I00
sg131
I4
sg132
g4038
sg133
g4039
sg134
g135
(S'\x07\xd9\x05\x0c\x11\x15\x18\x00\x00\x00'
p4042
tp4043
Rp4044
sg139
g4026
sg140
g4041
sg141
I00
sg142
I00
sg143
I00
sbsg144
Nsg29
L662077218420424705L
sg145
I1
sg146
VSocial Media Sentiment aheadsup
p4045
sg128
Ven
p4046
sg149
g4006
sg134
g135
(S'\x07\xdf\x0b\x05\x01\x15\x18\x00\x00\x00'
p4047
tp4048
Rp4049
sg50
(dp4050
g154
Nsg155
I00
sg156
g4003
sg157
I00
sg158
Nsg56
L662077218420424705L
sg159
I1
sg160
V<a href="http://www.aheadsup.com/" rel="nofollow">Social Media Sentiment aheadsup</a>
p4051
sg162
I00
sg163
Nsg64
(dp4052
g165
(lp4053
(dp4054
g39
(lp4055
I0
aI5
asg156
VSOHO
p4056
sasg170
(lp4057
sg172
(lp4058
(dp4059
g39
(lp4060
I68
aI75
asg156
Vstocks
p4061
sa(dp4062
g39
(lp4063
I76
aI87
asg156
Vdaytrading
p4064
sa(dp4065
g39
(lp4066
I88
aI96
asg156
Vtrading
p4067
sa(dp4068
g39
(lp4069
I97
aI101
asg156
Vmkt
p4070
sa(dp4071
g39
(lp4072
I103
aI108
asg156
VNYSE
p4073
sa(dp4074
g39
(lp4075
I109
aI116
asg156
VNASDAQ
p4076
sa(dp4077
g39
(lp4078
I117
aI125
asg156
Vmarkets
p4079
sasg35
(lp4080
(dp4081
g33
Vhttps://t.co/nZwqReM0tj
p4082
sg39
(lp4083
I44
aI67
asg41
Vhttp://www.mediasentiment.com/
p4084
sg43
Vmediasentiment.com
p4085
sassg180
Nsg181
Nsg182
I0
sg68
V662077218420424705
p4086
sg184
I00
sg185
g4025
sg186
Nsg187
Nsg188
I00
sg92
g4046
sg100
VThu Nov 05 01:21:24 +0000 2015
p4087
sg190
Nsg191
Nsg192
(dp4088
g194
Ven
p4089
sg196
Vrecent
p4090
sssg198
g4088
sg199
Nsg200
Nsg31
g4052
sg201
Nsg202
Nsg111
g4086
sg203
I00
sg204
Nsg205
I0
sg206
Nsbag0
(g4
g5
Ntp4091
Rp4092
(dp4093
g9
I00
sg10
Nsg11
I00
sg12
VSotherly Hotels upgraded by Zacks to hold. https://t.co/EtAvFMRPSr $SOHO #SOHO
p4094
sg14
Vhttp://ifttt.com
p4095
sg16
I00
sg17
I00
sg18
Nsg19
g0
(g20
g5
Ntp4096
Rp4097
(dp4098
g24
I00
sg25
I00
sg26
I01
sg27
VF6FFD1
p4099
sg29
I68559732
sg30
I00
sg31
(dp4100
g33
(dp4101
g35
(lp4102
(dp4103
g33
Vhttp://t.co/OKklQuZ0Um
p4104
sg39
(lp4105
I0
aI22
asg41
Vhttp://www.americanconsumernews.com
p4106
sg43
Vamericanconsumernews.com
p4107
sassg45
(dp4108
g35
(lp4109
sssg48
Vhttps://pbs.twimg.com/profile_images/379977873/msn_normal.jpg
p4110
sg50
(dp4111
g52
I00
sg53
I00
sg54
I01
sg55
I00
sg56
I68559732
sg57
Vhttps://abs.twimg.com/images/themes/theme19/bg.gif
p4112
sg59
I00
sg60
V333333
p4113
sg62
g4110
sg63
g4099
sg64
g4100
sg65
I4381
sg66
VFFF8AD
p4114
sg68
V68559732
p4115
sg70
VFFF04D
p4116
sg72
I397
sg73
I00
sg74
I-21600
sg75
I255294
sg45
VNews for Consumers in a Changing World
p4117
sg77
I2843
sg78
VSioux Falls, SD
p4118
sg80
V0099CC
p4119
sg82
Vhttp://pbs.twimg.com/profile_images/379977873/msn_normal.jpg
p4120
sg84
I00
sg85
I00
sg88
Vhttp://abs.twimg.com/images/themes/theme19/bg.gif
p4121
sg90
VConsumerFeed
p4122
sg92
Ven
p4123
sg94
I00
sg95
I0
sg96
VUS Consumer News
p4124
sg98
I00
sg33
Vhttp://t.co/OKklQuZ0Um
p4125
sg100
VTue Aug 25 00:39:44 +0000 2009
p4126
sg102
I00
sg103
VCentral Time (US & Canada)
p4127
sg104
I00
sg105
I00
sg106
I00
ssg107
I00
sg108
g4113
sg109
I4381
sg110
g4114
sg111
g4115
sg112
I00
sg113
I397
sg114
I00
sg115
I-21600
sg116
I255294
sg117
g4117
sg118
I2843
sg119
g4118
sg120
g4119
sg121
g4120
sg122
I00
sg123
I00
sg124
g4116
sg126
g4121
sg127
g4122
sg128
g4123
sg129
I00
sg130
I00
sg131
I0
sg132
g4124
sg133
g4125
sg134
g135
(S"\x07\xd9\x08\x19\x00',\x00\x00\x00"
p4128
tp4129
Rp4130
sg139
g4112
sg140
g4127
sg141
I00
sg142
I00
sg143
I00
sbsg144
Nsg29
L662076531662069760L
sg145
I0
sg146
VIFTTT
p4131
sg128
Ven
p4132
sg149
g4097
sg134
g135
(S'\x07\xdf\x0b\x05\x01\x12(\x00\x00\x00'
p4133
tp4134
Rp4135
sg50
(dp4136
g154
Nsg155
I00
sg156
g4094
sg157
I00
sg158
Nsg56
L662076531662069760L
sg159
I0
sg160
V<a href="http://ifttt.com" rel="nofollow">IFTTT</a>
p4137
sg162
I00
sg163
Nsg64
(dp4138
g165
(lp4139
(dp4140
g39
(lp4141
I67
aI72
asg156
VSOHO
p4142
sasg170
(lp4143
sg172
(lp4144
(dp4145
g39
(lp4146
I73
aI78
asg156
VSOHO
p4147
sasg35
(lp4148
(dp4149
g33
Vhttps://t.co/EtAvFMRPSr
p4150
sg39
(lp4151
I43
aI66
asg41
Vhttp://ift.tt/1PbkqkV
p4152
sg43
Vift.tt/1PbkqkV
p4153
sassg180
Nsg181
Nsg182
I0
sg68
V662076531662069760
p4154
sg184
I00
sg185
g4111
sg186
Nsg187
Nsg188
I00
sg92
g4132
sg100
VThu Nov 05 01:18:40 +0000 2015
p4155
sg190
Nsg191
Nsg192
(dp4156
g194
Ven
p4157
sg196
Vrecent
p4158
sssg198
g4156
sg199
Nsg200
Nsg31
g4138
sg201
Nsg202
Nsg111
g4154
sg203
I00
sg204
Nsg205
I0
sg206
Nsbag0
(g4
g5
Ntp4159
Rp4160
(dp4161
g9
I00
sg10
Nsg11
I00
sg12
VSotherly Hotels upgraded by Zacks to hold. https://t.co/oQ2zojwdKl $SOHO #SOHO
p4162
sg14
Vhttp://ifttt.com
p4163
sg16
I00
sg17
I00
sg18
Nsg19
g0
(g20
g5
Ntp4164
Rp4165
(dp4166
g24
I00
sg25
I00
sg26
I01
sg27
VEFEFEF
p4167
sg29
I992182100
sg30
I00
sg31
(dp4168
g33
(dp4169
g35
(lp4170
(dp4171
g33
Vhttp://t.co/8V4MkNiWl0
p4172
sg39
(lp4173
I0
aI22
asg41
Vhttp://www.marketbeat.com
p4174
sg43
Vmarketbeat.com
p4175
sassg45
(dp4176
g35
(lp4177
(dp4178
g33
Vhttp://t.co/3t3pBdeo4G
p4179
sg39
(lp4180
I34
aI56
asg41
Vhttp://MarketBeat.com
p4181
sg43
VMarketBeat.com
p4182
sasssg48
Vhttps://pbs.twimg.com/profile_images/605433922986606592/LeOUrdkT_normal.png
p4183
sg50
(dp4184
g52
I00
sg53
I00
sg54
I01
sg55
I00
sg56
I992182100
sg57
Vhttps://abs.twimg.com/images/themes/theme14/bg.gif
p4185
sg59
I00
sg60
V333333
p4186
sg62
g4183
sg63
g4167
sg64
g4168
sg65
I3561
sg66
VFFFFFF
p4187
sg68
V992182100
p4188
sg70
V131516
p4189
sg72
I359
sg73
I00
sg74
Nsg75
I226213
sg45
VFormerly Analyst Ratings Network. http://t.co/3t3pBdeo4G tracks analyst upgrades, downgrades and new coverage in real-time.
p4190
sg77
I2
sg78
VSioux Falls, SD
p4191
sg80
V002277
p4192
sg82
Vhttp://pbs.twimg.com/profile_images/605433922986606592/LeOUrdkT_normal.png
p4193
sg84
I00
sg85
I00
sg86
Vhttps://pbs.twimg.com/profile_banners/992182100/1410482657
p4194
sg88
Vhttp://abs.twimg.com/images/themes/theme14/bg.gif
p4195
sg90
VRatingsNetwork
p4196
sg92
Ven
p4197
sg94
I01
sg95
I0
sg96
VMarketBeatCom
p4198
sg98
I00
sg33
Vhttp://t.co/8V4MkNiWl0
p4199
sg100
VThu Dec 06 01:50:15 +0000 2012
p4200
sg102
I00
sg103
Nsg104
I00
sg105
I00
sg106
I00
ssg107
I00
sg108
g4186
sg109
I3561
sg110
g4187
sg111
g4188
sg112
I00
sg113
I359
sg114
I00
sg115
Nsg116
I226213
sg117
g4190
sg118
I2
sg119
g4191
sg120
g4192
sg121
g4193
sg122
I00
sg123
I00
sg124
g4189
sg125
g4194
sg126
g4195
sg127
g4196
sg128
g4197
sg129
I00
sg130
I01
sg131
I0
sg132
g4198
sg133
g4199
sg134
g135
(S'\x07\xdc\x0c\x06\x012\x0f\x00\x00\x00'
p4201
tp4202
Rp4203
sg139
g4185
sg140
Nsg141
I00
sg142
I00
sg143
I00
sbsg144
Nsg29
L662075251824697345L
sg145
I0
sg146
VIFTTT
p4204
sg128
Ven
p4205
sg149
g4165
sg134
g135
(S'\x07\xdf\x0b\x05\x01\r#\x00\x00\x00'
p4206
tp4207
Rp4208
sg50
(dp4209
g154
Nsg155
I00
sg156
g4162
sg157
I00
sg158
Nsg56
L662075251824697345L
sg159
I0
sg160
V<a href="http://ifttt.com" rel="nofollow">IFTTT</a>
p4210
sg162
I00
sg163
Nsg64
(dp4211
g165
(lp4212
(dp4213
g39
(lp4214
I67
aI72
asg156
VSOHO
p4215
sasg170
(lp4216
sg172
(lp4217
(dp4218
g39
(lp4219
I73
aI78
asg156
VSOHO
p4220
sasg35
(lp4221
(dp4222
g33
Vhttps://t.co/oQ2zojwdKl
p4223
sg39
(lp4224
I43
aI66
asg41
Vhttp://ift.tt/1PbkqkV
p4225
sg43
Vift.tt/1PbkqkV
p4226
sassg180
Nsg181
Nsg182
I0
sg68
V662075251824697345
p4227
sg184
I00
sg185
g4184
sg186
Nsg187
Nsg188
I00
sg92
g4205
sg100
VThu Nov 05 01:13:35 +0000 2015
p4228
sg190
Nsg191
Nsg192
(dp4229
g194
Ven
p4230
sg196
Vrecent
p4231
sssg198
g4229
sg199
Nsg200
Nsg31
g4211
sg201
Nsg202
Nsg111
g4227
sg203
I00
sg204
Nsg205
I0
sg206
Nsbag0
(g4
g5
Ntp4232
Rp4233
(dp4234
g9
I00
sg10
Nsg11
I00
sg12
VImp catalysts 4 MEIP &amp; CALA in d cmg week Here is DD 4 investors:https://t.co/lwSyWTxOEB $SNX $SNY $SO $SOCB $SOCL $SODA $SOFO $SOHO
p4235
sg14
Vhttp://twittimer.com
p4236
sg16
I00
sg17
I00
sg18
Nsg19
g0
(g20
g5
Ntp4237
Rp4238
(dp4239
g24
I00
sg25
I01
sg26
I00
sg27
V000000
p4240
sg29
L3518191635L
sg30
I00
sg31
(dp4241
g33
(dp4242
g35
(lp4243
(dp4244
g33
Vhttps://t.co/ot2Kl5nyub
p4245
sg39
(lp4246
I0
aI23
asg41
Vhttps://groups.google.com/forum/#!forum/jbem777
p4247
sg43
Vgroups.google.com/forum/#!forum/\u2026
p4248
sassg45
(dp4249
g35
(lp4250
sssg48
Vhttps://pbs.twimg.com/profile_images/638885869433196544/C975RWXJ_normal.jpg
p4251
sg50
(dp4252
g52
I00
sg53
I01
sg54
I00
sg55
I00
sg56
L3518191635L
sg57
Vhttps://abs.twimg.com/images/themes/theme1/bg.png
p4253
sg59
I00
sg60
V000000
p4254
sg62
g4251
sg63
g4240
sg64
g4241
sg65
I28
sg66
V000000
p4255
sg68
V3518191635
p4256
sg70
V000000
p4257
sg72
I1
sg73
I00
sg74
I-28800
sg75
I1505
sg45
VHealthcare Stocks
p4258
sg77
I25
sg78
g76
sg80
V89C9FA
p4259
sg82
Vhttp://pbs.twimg.com/profile_images/638885869433196544/C975RWXJ_normal.jpg
p4260
sg84
I00
sg85
I00
sg88
Vhttp://abs.twimg.com/images/themes/theme1/bg.png
p4261
sg90
Vjbemstocks
p4262
sg92
Ven
p4263
sg94
I00
sg95
I0
sg96
VDUE DILIGENCE
p4264
sg98
I00
sg33
Vhttps://t.co/ot2Kl5nyub
p4265
sg100
VWed Sep 02 01:23:46 +0000 2015
p4266
sg102
I00
sg103
VPacific Time (US & Canada)
p4267
sg104
I00
sg105
I00
sg106
I00
ssg107
I00
sg108
g4254
sg109
I28
sg110
g4255
sg111
g4256
sg112
I00
sg113
I1
sg114
I00
sg115
I-28800
sg116
I1505
sg117
g4258
sg118
I25
sg119
g76
sg120
g4259
sg121
g4260
sg122
I00
sg123
I00
sg124
g4257
sg126
g4261
sg127
g4262
sg128
g4263
sg129
I00
sg130
I00
sg131
I0
sg132
g4264
sg133
g4265
sg134
g135
(S'\x07\xdf\t\x02\x01\x17.\x00\x00\x00'
p4268
tp4269
Rp4270
sg139
g4253
sg140
g4267
sg141
I00
sg142
I00
sg143
I00
sbsg144
Nsg29
L661910278234226688L
sg145
I0
sg146
VTwittimer
p4271
sg128
Vsl
p4272
sg149
g4238
sg134
g135
(S'\x07\xdf\x0b\x04\x0e\x12\x02\x00\x00\x00'
p4273
tp4274
Rp4275
sg50
(dp4276
g154
Nsg155
I00
sg156
g4235
sg157
I00
sg158
Nsg56
L661910278234226688L
sg159
I0
sg160
V<a href="http://twittimer.com" rel="nofollow">Twittimer</a>
p4277
sg162
I00
sg163
Nsg64
(dp4278
g165
(lp4279
(dp4280
g39
(lp4281
I93
aI97
asg156
VSNX
p4282
sa(dp4283
g39
(lp4284
I98
aI102
asg156
VSNY
p4285
sa(dp4286
g39
(lp4287
I103
aI106
asg156
VSO
p4288
sa(dp4289
g39
(lp4290
I107
aI112
asg156
VSOCB
p4291
sa(dp4292
g39
(lp4293
I113
aI118
asg156
VSOCL
p4294
sa(dp4295
g39
(lp4296
I119
aI124
asg156
VSODA
p4297
sa(dp4298
g39
(lp4299
I125
aI130
asg156
VSOFO
p4300
sa(dp4301
g39
(lp4302
I131
aI136
asg156
VSOHO
p4303
sasg170
(lp4304
sg172
(lp4305
sg35
(lp4306
(dp4307
g33
Vhttps://t.co/lwSyWTxOEB
p4308
sg39
(lp4309
I69
aI92
asg41
Vhttp://bit.ly/1KjZ8cR
p4310
sg43
Vbit.ly/1KjZ8cR
p4311
sassg180
Nsg181
Nsg182
I0
sg68
V661910278234226688
p4312
sg184
I00
sg185
g4252
sg186
Nsg187
Nsg188
I00
sg92
g4272
sg100
VWed Nov 04 14:18:02 +0000 2015
p4313
sg190
Nsg191
Nsg192
(dp4314
g194
Vsl
p4315
sg196
Vrecent
p4316
sssg198
g4314
sg199
Nsg200
Nsg31
g4278
sg201
Nsg202
Nsg111
g4312
sg203
I00
sg204
Nsg205
I0
sg206
Nsbag0
(g4
g5
Ntp4317
Rp4318
(dp4319
g9
I00
sg10
Nsg11
I00
sg12
V$SOHO SOTHERLY HOTELS LP filed a new #XBRL report to the #SEC. https://t.co/djxLSFYiru
p4320
sg14
Vhttp://www.xbrl4.org/
p4321
sg16
I00
sg17
I00
sg18
Nsg19
g0
(g20
g5
Ntp4322
Rp4323
(dp4324
g24
I00
sg25
I00
sg26
I01
sg27
VDDEEF6
p4325
sg29
I179538557
sg30
I00
sg31
(dp4326
g33
(dp4327
g35
(lp4328
(dp4329
g33
Vhttp://t.co/yzdi83V9uz
p4330
sg39
(lp4331
I0
aI22
asg41
Vhttp://www.reportingstandard.com
p4332
sg43
Vreportingstandard.com
p4333
sassg45
(dp4334
g35
(lp4335
sssg48
Vhttps://pbs.twimg.com/profile_images/1105004443/Logo-Reporting_normal.jpg
p4336
sg50
(dp4337
g52
I00
sg53
I00
sg54
I01
sg55
I00
sg56
I179538557
sg57
Vhttps://abs.twimg.com/images/themes/theme1/bg.png
p4338
sg59
I00
sg60
V333333
p4339
sg62
g4336
sg63
g4325
sg64
g4326
sg65
I140
sg66
VC0DEED
p4340
sg68
V179538557
p4341
sg70
VC0DEED
p4342
sg72
I18
sg73
I00
sg74
I3600
sg75
I133110
sg45
VXBRL software for Regulators, Filers, Analysts and other software companies
p4343
sg77
I36
sg78
VEarth
p4344
sg80
V0084B4
p4345
sg82
Vhttp://pbs.twimg.com/profile_images/1105004443/Logo-Reporting_normal.jpg
p4346
sg84
I00
sg85
I00
sg88
Vhttp://abs.twimg.com/images/themes/theme1/bg.png
p4347
sg90
VXBRLStandard
p4348
sg92
Ves
p4349
sg94
I00
sg95
I0
sg96
VReporting Standards
p4350
sg98
I00
sg33
Vhttp://t.co/yzdi83V9uz
p4351
sg100
VTue Aug 17 14:55:42 +0000 2010
p4352
sg102
I00
sg103
VMadrid
p4353
sg104
I00
sg105
I01
sg106
I00
ssg107
I00
sg108
g4339
sg109
I140
sg110
g4340
sg111
g4341
sg112
I00
sg113
I18
sg114
I00
sg115
I3600
sg116
I133110
sg117
g4343
sg118
I36
sg119
g4344
sg120
g4345
sg121
g4346
sg122
I00
sg123
I00
sg124
g4342
sg126
g4347
sg127
g4348
sg128
g4349
sg129
I00
sg130
I00
sg131
I0
sg132
g4350
sg133
g4351
sg134
g135
(S'\x07\xda\x08\x11\x0e7*\x00\x00\x00'
p4354
tp4355
Rp4356
sg139
g4338
sg140
g4353
sg141
I00
sg142
I01
sg143
I00
sbsg144
Nsg29
L661306720325656576L
sg145
I0
sg146
VSEC Submissions feed
p4357
sg128
Ven
p4358
sg149
g4323
sg134
g135
(S'\x07\xdf\x0b\x02\x16\x13+\x00\x00\x00'
p4359
tp4360
Rp4361
sg50
(dp4362
g154
Nsg155
I00
sg156
g4320
sg157
I00
sg158
Nsg56
L661306720325656576L
sg159
I0
sg160
V<a href="http://www.xbrl4.org/" rel="nofollow">SEC Submissions feed</a>
p4363
sg162
I00
sg163
Nsg64
(dp4364
g165
(lp4365
(dp4366
g39
(lp4367
I0
aI5
asg156
VSOHO
p4368
sasg170
(lp4369
sg172
(lp4370
(dp4371
g39
(lp4372
I37
aI42
asg156
VXBRL
p4373
sa(dp4374
g39
(lp4375
I57
aI61
asg156
VSEC
p4376
sasg35
(lp4377
(dp4378
g33
Vhttps://t.co/djxLSFYiru
p4379
sg39
(lp4380
I63
aI86
asg41
Vhttp://www.xbrl4.org/regulators/seeReport.jsp?documentKey=http://www.sec.gov/Archives/edgar/data/1313536/000119312515129493/soho-20141231.xml
p4381
sg43
Vxbrl4.org/regulators/see\u2026
p4382
sassg180
Nsg181
Nsg182
I0
sg68
V661306720325656576
p4383
sg184
I00
sg185
g4337
sg186
Nsg187
Nsg188
I00
sg92
g4358
sg100
VMon Nov 02 22:19:43 +0000 2015
p4384
sg190
Nsg191
Nsg192
(dp4385
g194
Ven
p4386
sg196
Vrecent
p4387
sssg198
g4385
sg199
Nsg200
Nsg31
g4364
sg201
Nsg202
Nsg111
g4383
sg203
I00
sg204
Nsg205
I0
sg206
Nsbatp4388
Rp4389
(dp4390
S'count'
p4391
I100
sS'completed_in'
p4392
F0.075
sS'_since_id'
p4393
NsS'refresh_url'
p4394
V?since_id=664432319269314560&q=%24SOHO&include_entities=1
p4395
sS'query'
p4396
V%24SOHO
p4397
sS'_max_id'
p4398
NsS'next_results'
p4399
Nsb.