ccopy_reg
_reconstructor
p0
(ctweepy.models
SearchResults
p1
c__builtin__
list
p2
(lp3
g0
(ctweepy.models
Status
p4
c__builtin__
object
p5
Ntp6
Rp7
(dp8
S'favorited'
p9
I00
sS'contributors'
p10
NsS'truncated'
p11
I00
sS'text'
p12
Vas long as $VPCO has a mkt cap of over about 300k  its over valued to risk.  currently 2.7M just sayin
p13
sS'source_url'
p14
Vhttp://twitter.com
p15
sS'is_quote_status'
p16
I00
sS'in_reply_to_status_id'
p17
NsS'user'
p18
g0
(ctweepy.models
User
p19
g5
Ntp20
Rp21
(dp22
S'follow_request_sent'
p23
I00
sS'has_extended_profile'
p24
I00
sS'profile_use_background_image'
p25
I01
sS'profile_sidebar_fill_color'
p26
VDDEEF6
p27
sS'id'
p28
I848311970
sS'verified'
p29
I00
sS'entities'
p30
(dp31
Vdescription
p32
(dp33
Vurls
p34
(lp35
sssS'profile_image_url_https'
p36
Vhttps://pbs.twimg.com/profile_images/591636289088147456/xaHAv__B_normal.png
p37
sS'_json'
p38
(dp39
Vfollow_request_sent
p40
I00
sVhas_extended_profile
p41
I00
sVprofile_use_background_image
p42
I01
sVdefault_profile_image
p43
I00
sVid
p44
I848311970
sVprofile_background_image_url_https
p45
Vhttps://abs.twimg.com/images/themes/theme1/bg.png
p46
sVverified
p47
I00
sVprofile_text_color
p48
V333333
p49
sVprofile_image_url_https
p50
g37
sVprofile_sidebar_fill_color
p51
g27
sVentities
p52
g31
sVfollowers_count
p53
I420
sVprofile_sidebar_border_color
p54
VC0DEED
p55
sVid_str
p56
V848311970
p57
sVprofile_background_color
p58
VC0DEED
p59
sVlisted_count
p60
I30
sVis_translation_enabled
p61
I00
sVutc_offset
p62
I-18000
sVstatuses_count
p63
I10815
sg32
Vprefer long biased trades based on technicals. stocks, options, futures
p64
sVfriends_count
p65
I46
sVlocation
p66
VWindermere Florida
p67
sVprofile_link_color
p68
V0084B4
p69
sVprofile_image_url
p70
Vhttp://pbs.twimg.com/profile_images/591636289088147456/xaHAv__B_normal.png
p71
sVfollowing
p72
I00
sVgeo_enabled
p73
I01
sVprofile_banner_url
p74
Vhttps://pbs.twimg.com/profile_banners/848311970/1406807429
p75
sVprofile_background_image_url
p76
Vhttp://abs.twimg.com/images/themes/theme1/bg.png
p77
sVscreen_name
p78
VOptionsavvy
p79
sVlang
p80
Ven
p81
sVprofile_background_tile
p82
I00
sVfavourites_count
p83
I1418
sVname
p84
VScott R
p85
sVnotifications
p86
I00
sVurl
p87
NsVcreated_at
p88
VWed Sep 26 23:30:09 +0000 2012
p89
sVcontributors_enabled
p90
I00
sVtime_zone
p91
VEastern Time (US & Canada)
p92
sVprotected
p93
I00
sVdefault_profile
p94
I01
sVis_translator
p95
I00
ssS'contributors_enabled'
p96
I00
sS'profile_text_color'
p97
g49
sS'followers_count'
p98
I420
sS'profile_sidebar_border_color'
p99
g55
sS'id_str'
p100
g57
sS'default_profile_image'
p101
I00
sS'listed_count'
p102
I30
sS'is_translation_enabled'
p103
I00
sS'utc_offset'
p104
I-18000
sS'statuses_count'
p105
I10815
sS'description'
p106
g64
sS'friends_count'
p107
I46
sS'location'
p108
g67
sS'profile_link_color'
p109
g69
sS'profile_image_url'
p110
g71
sS'notifications'
p111
I00
sS'geo_enabled'
p112
I01
sS'profile_background_color'
p113
g59
sS'profile_banner_url'
p114
g75
sS'profile_background_image_url'
p115
g77
sS'screen_name'
p116
g79
sS'lang'
p117
g81
sS'following'
p118
I00
sS'profile_background_tile'
p119
I00
sS'favourites_count'
p120
I1418
sS'name'
p121
g85
sS'url'
p122
NsS'created_at'
p123
cdatetime
datetime
p124
(S'\x07\xdc\t\x1a\x17\x1e\t\x00\x00\x00'
p125
tp126
Rp127
sS'profile_background_image_url_https'
p128
g46
sS'time_zone'
p129
g92
sS'protected'
p130
I00
sS'default_profile'
p131
I01
sS'is_translator'
p132
I00
sbsS'geo'
p133
Nsg28
L664422479071440896L
sS'favorite_count'
p134
I0
sS'source'
p135
VTwitter Web Client
p136
sg117
Ven
p137
sS'author'
p138
g21
sg123
g124
(S'\x07\xdf\x0b\x0b\x0c(&\x00\x00\x00'
p139
tp140
Rp141
sg38
(dp142
Vcontributors
p143
NsVtruncated
p144
I00
sVtext
p145
g13
sVis_quote_status
p146
I00
sVin_reply_to_status_id
p147
Nsg44
L664422479071440896L
sVfavorite_count
p148
I0
sVsource
p149
V<a href="http://twitter.com" rel="nofollow">Twitter Web Client</a>
p150
sVretweeted
p151
I00
sVcoordinates
p152
Nsg52
(dp153
Vsymbols
p154
(lp155
(dp156
Vindices
p157
(lp158
I11
aI16
asg145
VVPCO
p159
sasVuser_mentions
p160
(lp161
sVhashtags
p162
(lp163
sg34
(lp164
ssVin_reply_to_screen_name
p165
NsVin_reply_to_user_id
p166
NsVretweet_count
p167
I0
sg56
V664422479071440896
p168
sVfavorited
p169
I00
sVuser
p170
g39
sVgeo
p171
NsVin_reply_to_user_id_str
p172
Nsg80
g137
sg88
VWed Nov 11 12:40:38 +0000 2015
p173
sVin_reply_to_status_id_str
p174
NsVplace
p175
NsVmetadata
p176
(dp177
Viso_language_code
p178
Ven
p179
sVresult_type
p180
Vrecent
p181
sssS'metadata'
p182
g177
sS'coordinates'
p183
NsS'in_reply_to_user_id_str'
p184
Nsg30
g153
sS'in_reply_to_status_id_str'
p185
NsS'in_reply_to_screen_name'
p186
Nsg100
g168
sS'retweeted'
p187
I00
sS'place'
p188
NsS'retweet_count'
p189
I0
sS'in_reply_to_user_id'
p190
Nsbag0
(g4
g5
Ntp191
Rp192
(dp193
g9
I00
sg10
Nsg11
I00
sg12
VRT @stocksIbuy: $HEMPD is it at bottom yet? Is it time for a reveres? Down almost 75% since rev split. @potstockradio @HempNews $SRNA $THCZ\u2026
p194
sg14
Vhttp://twitter.com
p195
sg16
I00
sg17
Nsg18
g0
(g19
g5
Ntp196
Rp197
(dp198
g23
I00
sg24
I00
sg25
I01
sg26
V95E8EC
p199
sg28
L2282060946L
sg29
I00
sg30
(dp200
g32
(dp201
g34
(lp202
sssg36
Vhttps://pbs.twimg.com/profile_images/624879521217449985/wIy1k20e_normal.jpg
p203
sg38
(dp204
g40
I00
sg41
I00
sg42
I01
sg43
I00
sg44
L2282060946L
sg45
Vhttps://abs.twimg.com/images/themes/theme4/bg.gif
p205
sg47
I00
sg48
V3C3940
p206
sg50
g203
sg51
g199
sg52
g200
sg53
I3387
sg54
VFFFFFF
p207
sg56
V2282060946
p208
sg58
V0099B9
p209
sg60
I42
sg61
I00
sg62
I-28800
sg63
I9133
sg32
VIndiana Hemp Collective is a platform for all Hemp Related Businesses to connect and network without the middleman.
p210
sg65
I4299
sg66
VIndiana, USA
p211
sg68
V4A913C
p212
sg70
Vhttp://pbs.twimg.com/profile_images/624879521217449985/wIy1k20e_normal.jpg
p213
sg72
I00
sg73
I00
sg74
Vhttps://pbs.twimg.com/profile_banners/2282060946/1437817871
p214
sg76
Vhttp://abs.twimg.com/images/themes/theme4/bg.gif
p215
sg78
VIndiana_Hemp
p216
sg80
Ven
p217
sg82
I00
sg83
I2290
sg84
VIndiana Hemp
p218
sg86
I00
sg87
Nsg88
VWed Jan 08 12:18:49 +0000 2014
p219
sg90
I00
sg91
VPacific Time (US & Canada)
p220
sg93
I00
sg94
I00
sg95
I00
ssg96
I00
sg97
g206
sg98
I3387
sg99
g207
sg100
g208
sg101
I00
sg102
I42
sg103
I00
sg104
I-28800
sg105
I9133
sg106
g210
sg107
I4299
sg108
g211
sg109
g212
sg110
g213
sg111
I00
sg112
I00
sg113
g209
sg114
g214
sg115
g215
sg116
g216
sg117
g217
sg118
I00
sg119
I00
sg120
I2290
sg121
g218
sg122
Nsg123
g124
(S'\x07\xde\x01\x08\x0c\x121\x00\x00\x00'
p221
tp222
Rp223
sg128
g205
sg129
g220
sg130
I00
sg131
I00
sg132
I00
sbsg133
Nsg28
L664233101367742464L
sg134
I0
sg135
VTwitter Web Client
p224
sg117
Ven
p225
sS'retweeted_status'
p226
g0
(g4
g5
Ntp227
Rp228
(dp229
g9
I00
sg10
Nsg11
I00
sg12
V$HEMPD is it at bottom yet? Is it time for a reveres? Down almost 75% since rev split. @potstockradio @HempNews $SRNA $THCZ $MJNA $VPCO - $S
p230
sg14
Vhttp://twitter.com
p231
sg16
I00
sg17
Nsg18
g0
(g19
g5
Ntp232
Rp233
(dp234
g23
I00
sg24
I00
sg25
I01
sg26
VEFEFEF
p235
sg28
I168640257
sg29
I00
sg30
(dp236
g87
(dp237
g34
(lp238
(dp239
g87
Vhttp://t.co/Gl28KaBILU
p240
sg157
(lp241
I0
aI22
asVexpanded_url
p242
Vhttp://www.stocksibuy.com
p243
sVdisplay_url
p244
Vstocksibuy.com
p245
sassg32
(dp246
g34
(lp247
sssg36
Vhttps://pbs.twimg.com/profile_images/1082854248/untitled_normal.JPG
p248
sg38
(dp249
g40
I00
sg41
I00
sg42
I01
sg43
I00
sg44
I168640257
sg45
Vhttps://pbs.twimg.com/profile_background_images/474889556768980992/vErRUJMp.jpeg
p250
sg47
I00
sg48
V333333
p251
sg50
g248
sg51
g235
sg52
g236
sg53
I592
sg54
V000000
p252
sg56
V168640257
p253
sg58
V131516
p254
sg60
I20
sg61
I00
sg62
I-18000
sg63
I2233
sg32
VI am not an investment broker, licensed trader or financial advisor. Invest at your own risk. Not all stocks posted I own.
p255
sg65
I1979
sg66
V
p256
sg68
V009999
p257
sg70
Vhttp://pbs.twimg.com/profile_images/1082854248/untitled_normal.JPG
p258
sg72
I00
sg73
I01
sg74
Vhttps://pbs.twimg.com/profile_banners/168640257/1402057396
p259
sg76
Vhttp://pbs.twimg.com/profile_background_images/474889556768980992/vErRUJMp.jpeg
p260
sg78
VstocksIbuy
p261
sg80
Ven
p262
sg82
I00
sg83
I15
sg84
VStocks I Buy
p263
sg86
I00
sg87
Vhttp://t.co/Gl28KaBILU
p264
sg88
VTue Jul 20 12:26:23 +0000 2010
p265
sg90
I00
sg91
VQuito
p266
sg93
I00
sg94
I00
sg95
I00
ssg96
I00
sg97
g251
sg98
I592
sg99
g252
sg100
g253
sg101
I00
sg102
I20
sg103
I00
sg104
I-18000
sg105
I2233
sg106
g255
sg107
I1979
sg108
g256
sg109
g257
sg110
g258
sg111
I00
sg112
I01
sg113
g254
sg114
g259
sg115
g260
sg116
g261
sg117
g262
sg118
I00
sg119
I00
sg120
I15
sg121
g263
sg122
g264
sg123
g124
(S'\x07\xda\x07\x14\x0c\x1a\x17\x00\x00\x00'
p267
tp268
Rp269
sg128
g250
sg129
g266
sg130
I00
sg131
I00
sg132
I00
sbsg133
Nsg28
L633719353339473920L
sg134
I32
sg135
VTwitter Web Client
p270
sg117
Ven
p271
sg138
g233
sg123
g124
(S'\x07\xdf\x08\x12\x13\x11\x16\x00\x00\x00'
p272
tp273
Rp274
sg38
(dp275
g143
Nsg144
I00
sg145
g230
sg146
I00
sg147
Nsg44
L633719353339473920L
sg148
I32
sg149
V<a href="http://twitter.com" rel="nofollow">Twitter Web Client</a>
p276
sg151
I00
sg152
Nsg52
(dp277
g154
(lp278
(dp279
g157
(lp280
I0
aI6
asg145
VHEMPD
p281
sa(dp282
g157
(lp283
I112
aI117
asg145
VSRNA
p284
sa(dp285
g157
(lp286
I118
aI123
asg145
VTHCZ
p287
sa(dp288
g157
(lp289
I124
aI129
asg145
VMJNA
p290
sa(dp291
g157
(lp292
I130
aI135
asg145
VVPCO
p293
sa(dp294
g157
(lp295
I138
aI140
asg145
VS
p296
sasg160
(lp297
(dp298
g44
L2596733009L
sg157
(lp299
I87
aI101
asg56
V2596733009
p300
sg78
Vpotstockradio
p301
sg84
VPOT STOCK RADIO
p302
sa(dp303
g44
I20563800
sg157
(lp304
I102
aI111
asg56
V20563800
p305
sg78
VHempNews
p306
sg84
VThe Hemp News
p307
sasg162
(lp308
sg34
(lp309
ssg165
Nsg166
Nsg167
I27
sg56
V633719353339473920
p310
sg169
I00
sg170
g249
sg171
Nsg172
Nsg80
g271
sg88
VTue Aug 18 19:17:22 +0000 2015
p311
sg174
Nsg175
Nsg176
(dp312
g178
Ven
p313
sg180
Vrecent
p314
sssg182
g312
sg183
Nsg184
Nsg30
g277
sg185
Nsg186
Nsg100
g310
sg187
I00
sg188
Nsg189
I27
sg190
Nsbsg138
g197
sg123
g124
(S'\x07\xdf\x0b\x0b\x00\x08\x06\x00\x00\x00'
p315
tp316
Rp317
sg38
(dp318
g143
Nsg144
I00
sg145
g194
sg146
I00
sg147
Nsg44
L664233101367742464L
sg148
I0
sg149
V<a href="http://twitter.com" rel="nofollow">Twitter Web Client</a>
p319
sg151
I00
sg152
Nsg52
(dp320
g154
(lp321
(dp322
g157
(lp323
I16
aI22
asg145
VHEMPD
p324
sa(dp325
g157
(lp326
I128
aI133
asg145
VSRNA
p327
sa(dp328
g157
(lp329
I139
aI140
asg145
VTHCZ
p330
sa(dp331
g157
(lp332
I139
aI140
asg145
VMJNA
p333
sa(dp334
g157
(lp335
I139
aI140
asg145
VVPCO
p336
sa(dp337
g157
(lp338
I139
aI140
asg145
g296
sasg160
(lp339
(dp340
g44
I168640257
sg157
(lp341
I3
aI14
asg56
V168640257
p342
sg78
VstocksIbuy
p343
sg84
VStocks I Buy
p344
sa(dp345
g44
L2596733009L
sg157
(lp346
I103
aI117
asg56
V2596733009
p347
sg78
Vpotstockradio
p348
sg84
VPOT STOCK RADIO
p349
sa(dp350
g44
I20563800
sg157
(lp351
I118
aI127
asg56
V20563800
p352
sg78
VHempNews
p353
sg84
VThe Hemp News
p354
sasg162
(lp355
sg34
(lp356
ssg165
Nsg166
Nsg167
I27
sg56
V664233101367742464
p357
sg169
I00
sVretweeted_status
p358
g275
sg170
g204
sg171
Nsg172
Nsg80
g225
sg88
VWed Nov 11 00:08:06 +0000 2015
p359
sg174
Nsg175
Nsg176
(dp360
g178
Ven
p361
sg180
Vrecent
p362
sssg182
g360
sg183
Nsg184
Nsg30
g320
sg185
Nsg186
Nsg100
g357
sg187
I00
sg188
Nsg189
I27
sg190
Nsbag0
(g4
g5
Ntp363
Rp364
(dp365
g9
I00
sg10
Nsg11
I00
sg12
V$VPCO vapork: 70 locations They bought another big Chain in: vapork https://t.co/7AXmjoYYcR
p366
sg14
Vhttp://twitterfeed.com
p367
sS'possibly_sensitive'
p368
I00
sg16
I00
sg17
Nsg18
g0
(g19
g5
Ntp369
Rp370
(dp371
g23
I00
sg24
I00
sg25
I01
sg26
VDDEEF6
p372
sg28
L2329624993L
sg29
I00
sg30
(dp373
g87
(dp374
g34
(lp375
(dp376
g87
Vhttp://t.co/GPmOGK0Cc5
p377
sg157
(lp378
I0
aI22
asg242
Vhttp://528marketing.com/we-can-help-distribute-your-cannabis-or-vape-products-to-c-stores/
p379
sg244
V528marketing.com/we-can-help-di\u2026
p380
sassg32
(dp381
g34
(lp382
(dp383
g87
Vhttp://t.co/QBCbrsEVse
p384
sg157
(lp385
I42
aI64
asg242
Vhttp://528Marketing.com
p386
sg244
V528Marketing.com
p387
sasssg36
Vhttps://pbs.twimg.com/profile_images/469861227854708736/VMPEysjY_normal.jpeg
p388
sg38
(dp389
g40
I00
sg41
I00
sg42
I01
sg43
I00
sg44
L2329624993L
sg45
Vhttps://pbs.twimg.com/profile_background_images/469860658213699584/X9aU4wJN.jpeg
p390
sg47
I00
sg48
V333333
p391
sg50
g388
sg51
g372
sg52
g373
sg53
I3153
sg54
VFFFFFF
p392
sg56
V2329624993
p393
sg58
VC0DEED
p394
sg60
I52
sg61
I00
sg62
I-28800
sg63
I49470
sg32
VWe promote  UR #vape and products through http://t.co/QBCbrsEVse - visit our other Twitter handles @528Canna and @528Marketing - email contact@528marketing.com
p395
sg65
I2387
sg66
VThe wolrd of vape
p396
sg68
V0084B4
p397
sg70
Vhttp://pbs.twimg.com/profile_images/469861227854708736/VMPEysjY_normal.jpeg
p398
sg72
I00
sg73
I00
sg74
Vhttps://pbs.twimg.com/profile_banners/2329624993/1400858521
p399
sg76
Vhttp://pbs.twimg.com/profile_background_images/469860658213699584/X9aU4wJN.jpeg
p400
sg78
V528vape
p401
sg80
Ven
p402
sg82
I01
sg83
I444
sg84
V528vape
p403
sg86
I00
sg87
Vhttp://t.co/GPmOGK0Cc5
p404
sg88
VThu Feb 06 01:30:14 +0000 2014
p405
sg90
I00
sg91
VPacific Time (US & Canada)
p406
sg93
I00
sg94
I00
sg95
I00
ssg96
I00
sg97
g391
sg98
I3153
sg99
g392
sg100
g393
sg101
I00
sg102
I52
sg103
I00
sg104
I-28800
sg105
I49470
sg106
g395
sg107
I2387
sg108
g396
sg109
g397
sg110
g398
sg111
I00
sg112
I00
sg113
g394
sg114
g399
sg115
g400
sg116
g401
sg117
g402
sg118
I00
sg119
I01
sg120
I444
sg121
g403
sg122
g404
sg123
g124
(S'\x07\xde\x02\x06\x01\x1e\x0e\x00\x00\x00'
p407
tp408
Rp409
sg128
g390
sg129
g406
sg130
I00
sg131
I00
sg132
I00
sbsg133
Nsg28
L664197601076482048L
sg134
I0
sg135
Vtwitterfeed
p410
sg117
Ven
p411
sg138
g370
sg123
g124
(S'\x07\xdf\x0b\n\x15/\x02\x00\x00\x00'
p412
tp413
Rp414
sg38
(dp415
g143
Nsg144
I00
sg145
g366
sg146
I00
sg147
Nsg44
L664197601076482048L
sg148
I0
sg149
V<a href="http://twitterfeed.com" rel="nofollow">twitterfeed</a>
p416
sg151
I00
sg152
Nsg52
(dp417
g154
(lp418
(dp419
g157
(lp420
I0
aI5
asg145
VVPCO
p421
sasg160
(lp422
sg162
(lp423
sg34
(lp424
(dp425
g87
Vhttps://t.co/7AXmjoYYcR
p426
sg157
(lp427
I68
aI91
asg242
Vhttp://bit.ly/1SgK3yC
p428
sg244
Vbit.ly/1SgK3yC
p429
sassg165
Nsg166
Nsg167
I0
sg56
V664197601076482048
p430
sg169
I00
sg170
g389
sg171
Nsg172
NsVpossibly_sensitive
p431
I00
sg80
g411
sg88
VTue Nov 10 21:47:02 +0000 2015
p432
sg174
Nsg175
Nsg176
(dp433
g178
Ven
p434
sg180
Vrecent
p435
sssg182
g433
sg183
Nsg184
Nsg30
g417
sg185
Nsg186
Nsg100
g430
sg187
I00
sg188
Nsg189
I0
sg190
Nsbag0
(g4
g5
Ntp436
Rp437
(dp438
g9
I00
sg10
Nsg11
I00
sg12
V$VPCO vapork: Madvapes, vaporfi, Avail are beasts: vapork https://t.co/VhW25yBQXS
p439
sg14
Vhttp://twitterfeed.com
p440
sg368
I00
sg16
I00
sg17
Nsg18
g0
(g19
g5
Ntp441
Rp442
(dp443
g23
I00
sg24
I00
sg25
I01
sg26
VDDEEF6
p444
sg28
L2329624993L
sg29
I00
sg30
(dp445
g87
(dp446
g34
(lp447
(dp448
g87
Vhttp://t.co/GPmOGK0Cc5
p449
sg157
(lp450
I0
aI22
asg242
Vhttp://528marketing.com/we-can-help-distribute-your-cannabis-or-vape-products-to-c-stores/
p451
sg244
V528marketing.com/we-can-help-di\u2026
p452
sassg32
(dp453
g34
(lp454
(dp455
g87
Vhttp://t.co/QBCbrsEVse
p456
sg157
(lp457
I42
aI64
asg242
Vhttp://528Marketing.com
p458
sg244
V528Marketing.com
p459
sasssg36
Vhttps://pbs.twimg.com/profile_images/469861227854708736/VMPEysjY_normal.jpeg
p460
sg38
(dp461
g40
I00
sg41
I00
sg42
I01
sg43
I00
sg44
L2329624993L
sg45
Vhttps://pbs.twimg.com/profile_background_images/469860658213699584/X9aU4wJN.jpeg
p462
sg47
I00
sg48
V333333
p463
sg50
g460
sg51
g444
sg52
g445
sg53
I3153
sg54
VFFFFFF
p464
sg56
V2329624993
p465
sg58
VC0DEED
p466
sg60
I52
sg61
I00
sg62
I-28800
sg63
I49470
sg32
VWe promote  UR #vape and products through http://t.co/QBCbrsEVse - visit our other Twitter handles @528Canna and @528Marketing - email contact@528marketing.com
p467
sg65
I2387
sg66
VThe wolrd of vape
p468
sg68
V0084B4
p469
sg70
Vhttp://pbs.twimg.com/profile_images/469861227854708736/VMPEysjY_normal.jpeg
p470
sg72
I00
sg73
I00
sg74
Vhttps://pbs.twimg.com/profile_banners/2329624993/1400858521
p471
sg76
Vhttp://pbs.twimg.com/profile_background_images/469860658213699584/X9aU4wJN.jpeg
p472
sg78
V528vape
p473
sg80
Ven
p474
sg82
I01
sg83
I444
sg84
V528vape
p475
sg86
I00
sg87
Vhttp://t.co/GPmOGK0Cc5
p476
sg88
VThu Feb 06 01:30:14 +0000 2014
p477
sg90
I00
sg91
VPacific Time (US & Canada)
p478
sg93
I00
sg94
I00
sg95
I00
ssg96
I00
sg97
g463
sg98
I3153
sg99
g464
sg100
g465
sg101
I00
sg102
I52
sg103
I00
sg104
I-28800
sg105
I49470
sg106
g467
sg107
I2387
sg108
g468
sg109
g469
sg110
g470
sg111
I00
sg112
I00
sg113
g466
sg114
g471
sg115
g472
sg116
g473
sg117
g474
sg118
I00
sg119
I01
sg120
I444
sg121
g475
sg122
g476
sg123
g124
(S'\x07\xde\x02\x06\x01\x1e\x0e\x00\x00\x00'
p479
tp480
Rp481
sg128
g462
sg129
g478
sg130
I00
sg131
I00
sg132
I00
sbsg133
Nsg28
L664175733170794496L
sg134
I0
sg135
Vtwitterfeed
p482
sg117
Ven
p483
sg138
g442
sg123
g124
(S'\x07\xdf\x0b\n\x14\x14\t\x00\x00\x00'
p484
tp485
Rp486
sg38
(dp487
g143
Nsg144
I00
sg145
g439
sg146
I00
sg147
Nsg44
L664175733170794496L
sg148
I0
sg149
V<a href="http://twitterfeed.com" rel="nofollow">twitterfeed</a>
p488
sg151
I00
sg152
Nsg52
(dp489
g154
(lp490
(dp491
g157
(lp492
I0
aI5
asg145
VVPCO
p493
sasg160
(lp494
sg162
(lp495
sg34
(lp496
(dp497
g87
Vhttps://t.co/VhW25yBQXS
p498
sg157
(lp499
I58
aI81
asg242
Vhttp://bit.ly/1SgxL9F
p500
sg244
Vbit.ly/1SgxL9F
p501
sassg165
Nsg166
Nsg167
I0
sg56
V664175733170794496
p502
sg169
I00
sg170
g461
sg171
Nsg172
Nsg431
I00
sg80
g483
sg88
VTue Nov 10 20:20:09 +0000 2015
p503
sg174
Nsg175
Nsg176
(dp504
g178
Ven
p505
sg180
Vrecent
p506
sssg182
g504
sg183
Nsg184
Nsg30
g489
sg185
Nsg186
Nsg100
g502
sg187
I00
sg188
Nsg189
I0
sg190
Nsbag0
(g4
g5
Ntp507
Rp508
(dp509
g9
I00
sg10
Nsg11
I00
sg12
V$VPCO said dump it several times over 1.00 because management sucked.  now .32
p510
sg14
Vhttp://twitter.com
p511
sg16
I00
sg17
Nsg18
g0
(g19
g5
Ntp512
Rp513
(dp514
g23
I00
sg24
I00
sg25
I01
sg26
VDDEEF6
p515
sg28
I848311970
sg29
I00
sg30
(dp516
g32
(dp517
g34
(lp518
sssg36
Vhttps://pbs.twimg.com/profile_images/591636289088147456/xaHAv__B_normal.png
p519
sg38
(dp520
g40
I00
sg41
I00
sg42
I01
sg43
I00
sg44
I848311970
sg45
Vhttps://abs.twimg.com/images/themes/theme1/bg.png
p521
sg47
I00
sg48
V333333
p522
sg50
g519
sg51
g515
sg52
g516
sg53
I420
sg54
VC0DEED
p523
sg56
V848311970
p524
sg58
VC0DEED
p525
sg60
I30
sg61
I00
sg62
I-18000
sg63
I10815
sg32
Vprefer long biased trades based on technicals. stocks, options, futures
p526
sg65
I46
sg66
VWindermere Florida
p527
sg68
V0084B4
p528
sg70
Vhttp://pbs.twimg.com/profile_images/591636289088147456/xaHAv__B_normal.png
p529
sg72
I00
sg73
I01
sg74
Vhttps://pbs.twimg.com/profile_banners/848311970/1406807429
p530
sg76
Vhttp://abs.twimg.com/images/themes/theme1/bg.png
p531
sg78
VOptionsavvy
p532
sg80
Ven
p533
sg82
I00
sg83
I1418
sg84
VScott R
p534
sg86
I00
sg87
Nsg88
VWed Sep 26 23:30:09 +0000 2012
p535
sg90
I00
sg91
VEastern Time (US & Canada)
p536
sg93
I00
sg94
I01
sg95
I00
ssg96
I00
sg97
g522
sg98
I420
sg99
g523
sg100
g524
sg101
I00
sg102
I30
sg103
I00
sg104
I-18000
sg105
I10815
sg106
g526
sg107
I46
sg108
g527
sg109
g528
sg110
g529
sg111
I00
sg112
I01
sg113
g525
sg114
g530
sg115
g531
sg116
g532
sg117
g533
sg118
I00
sg119
I00
sg120
I1418
sg121
g534
sg122
Nsg123
g124
(S'\x07\xdc\t\x1a\x17\x1e\t\x00\x00\x00'
p537
tp538
Rp539
sg128
g521
sg129
g536
sg130
I00
sg131
I01
sg132
I00
sbsg133
Nsg28
L664040974440669185L
sg134
I0
sg135
VTwitter Web Client
p540
sg117
Ven
p541
sg138
g513
sg123
g124
(S'\x07\xdf\x0b\n\x0b\x18(\x00\x00\x00'
p542
tp543
Rp544
sg38
(dp545
g143
Nsg144
I00
sg145
g510
sg146
I00
sg147
Nsg44
L664040974440669185L
sg148
I0
sg149
V<a href="http://twitter.com" rel="nofollow">Twitter Web Client</a>
p546
sg151
I00
sg152
Nsg52
(dp547
g154
(lp548
(dp549
g157
(lp550
I0
aI5
asg145
VVPCO
p551
sasg160
(lp552
sg162
(lp553
sg34
(lp554
ssg165
Nsg166
Nsg167
I0
sg56
V664040974440669185
p555
sg169
I00
sg170
g520
sg171
Nsg172
Nsg80
g541
sg88
VTue Nov 10 11:24:40 +0000 2015
p556
sg174
Nsg175
Nsg176
(dp557
g178
Ven
p558
sg180
Vrecent
p559
sssg182
g557
sg183
Nsg184
Nsg30
g547
sg185
Nsg186
Nsg100
g555
sg187
I00
sg188
Nsg189
I0
sg190
Nsbag0
(g4
g5
Ntp560
Rp561
(dp562
g9
I00
sg10
Nsg11
I00
sg12
V#Marijuana Index Daily Report - November 9th, 2015 $VPCO $MDBX $MSRT $DIGP #marijuanastocks  https://t.co/6qWYhSfekO
p563
sg14
Vhttp://twitter.com/download/iphone
p564
sg368
I00
sg16
I00
sg17
Nsg18
g0
(g19
g5
Ntp565
Rp566
(dp567
g23
I00
sg24
I00
sg25
I00
sg26
V000000
p568
sg28
L2185041662L
sg29
I00
sg30
(dp569
g87
(dp570
g34
(lp571
(dp572
g87
Vhttps://t.co/4NAEZ6Ah7m
p573
sg157
(lp574
I0
aI23
asg242
Vhttp://www.vitamin-fizz.com/index.html
p575
sg244
Vvitamin-fizz.com/index.html
p576
sassg32
(dp577
g34
(lp578
sssg36
Vhttps://pbs.twimg.com/profile_images/663924548853628928/XKYAU-vg_normal.jpg
p579
sg38
(dp580
g40
I00
sg41
I00
sg42
I00
sg43
I00
sg44
L2185041662L
sg45
Vhttps://abs.twimg.com/images/themes/theme16/bg.gif
p581
sg47
I00
sg48
V000000
p582
sg50
g579
sg51
g568
sg52
g569
sg53
I1223
sg54
V000000
p583
sg56
V2185041662
p584
sg58
V000000
p585
sg60
I112
sg61
I00
sg62
I-28800
sg63
I6663
sg32
VDie hard LA Sports fan. #Lakers #Dodgers #UCLA #Football #Basketball #FeelTheFizz
p586
sg65
I2012
sg66
VLos Angeles, CA
p587
sg68
V3B94D9
p588
sg70
Vhttp://pbs.twimg.com/profile_images/663924548853628928/XKYAU-vg_normal.jpg
p589
sg72
I00
sg73
I00
sg74
Vhttps://pbs.twimg.com/profile_banners/2185041662/1445238355
p590
sg76
Vhttp://abs.twimg.com/images/themes/theme16/bg.gif
p591
sg78
VGeorge323818
p592
sg80
Ven
p593
sg82
I00
sg83
I10077
sg84
VGeorge_LakersNation
p594
sg86
I00
sg87
Vhttps://t.co/4NAEZ6Ah7m
p595
sg88
VSat Nov 09 21:02:34 +0000 2013
p596
sg90
I00
sg91
VPacific Time (US & Canada)
p597
sg93
I00
sg94
I00
sg95
I00
ssg96
I00
sg97
g582
sg98
I1223
sg99
g583
sg100
g584
sg101
I00
sg102
I112
sg103
I00
sg104
I-28800
sg105
I6663
sg106
g586
sg107
I2012
sg108
g587
sg109
g588
sg110
g589
sg111
I00
sg112
I00
sg113
g585
sg114
g590
sg115
g591
sg116
g592
sg117
g593
sg118
I00
sg119
I00
sg120
I10077
sg121
g594
sg122
g595
sg123
g124
(S'\x07\xdd\x0b\t\x15\x02"\x00\x00\x00'
p598
tp599
Rp600
sg128
g581
sg129
g597
sg130
I00
sg131
I00
sg132
I00
sbsg133
Nsg28
L663865307090432000L
sg134
I0
sg135
VTwitter for iPhone
p601
sg117
Vde
p602
sg138
g566
sg123
g124
(S'\x07\xdf\x0b\t\x17.%\x00\x00\x00'
p603
tp604
Rp605
sg38
(dp606
g143
Nsg144
I00
sg145
g563
sg146
I00
sg147
Nsg44
L663865307090432000L
sg148
I0
sg149
V<a href="http://twitter.com/download/iphone" rel="nofollow">Twitter for iPhone</a>
p607
sg151
I00
sg152
Nsg52
(dp608
g154
(lp609
(dp610
g157
(lp611
I51
aI56
asg145
VVPCO
p612
sa(dp613
g157
(lp614
I57
aI62
asg145
VMDBX
p615
sa(dp616
g157
(lp617
I63
aI68
asg145
VMSRT
p618
sa(dp619
g157
(lp620
I69
aI74
asg145
VDIGP
p621
sasg160
(lp622
sg162
(lp623
(dp624
g157
(lp625
I0
aI10
asg145
VMarijuana
p626
sa(dp627
g157
(lp628
I75
aI91
asg145
Vmarijuanastocks
p629
sasg34
(lp630
(dp631
g87
Vhttps://t.co/6qWYhSfekO
p632
sg157
(lp633
I93
aI116
asg242
Vhttp://us3.campaign-archive1.com/?u=a73138d5b44bc039ce7ed05e9&id=c3d941e464&e=e5d789571f
p634
sg244
Vus3.campaign-archive1.com/?u=a73138d5b44\u2026
p635
sassg165
Nsg166
Nsg167
I0
sg56
V663865307090432000
p636
sg169
I00
sg170
g580
sg171
Nsg172
Nsg431
I00
sg80
g602
sg88
VMon Nov 09 23:46:37 +0000 2015
p637
sg174
Nsg175
Nsg176
(dp638
g178
Vde
p639
sg180
Vrecent
p640
sssg182
g638
sg183
Nsg184
Nsg30
g608
sg185
Nsg186
Nsg100
g636
sg187
I00
sg188
Nsg189
I0
sg190
Nsbag0
(g4
g5
Ntp641
Rp642
(dp643
g9
I00
sg10
Nsg11
I00
sg12
V$VPCO Ultimaratioregum: Vape chains* lol wtf is cape Chana. Lol autocorrect: Ultimaratioregum https://t.co/9DYrFlMrDG
p644
sg14
Vhttp://twitterfeed.com
p645
sg368
I00
sg16
I00
sg17
Nsg18
g0
(g19
g5
Ntp646
Rp647
(dp648
g23
I00
sg24
I00
sg25
I01
sg26
VDDEEF6
p649
sg28
L2329624993L
sg29
I00
sg30
(dp650
g87
(dp651
g34
(lp652
(dp653
g87
Vhttp://t.co/GPmOGK0Cc5
p654
sg157
(lp655
I0
aI22
asg242
Vhttp://528marketing.com/we-can-help-distribute-your-cannabis-or-vape-products-to-c-stores/
p656
sg244
V528marketing.com/we-can-help-di\u2026
p657
sassg32
(dp658
g34
(lp659
(dp660
g87
Vhttp://t.co/QBCbrsEVse
p661
sg157
(lp662
I42
aI64
asg242
Vhttp://528Marketing.com
p663
sg244
V528Marketing.com
p664
sasssg36
Vhttps://pbs.twimg.com/profile_images/469861227854708736/VMPEysjY_normal.jpeg
p665
sg38
(dp666
g40
I00
sg41
I00
sg42
I01
sg43
I00
sg44
L2329624993L
sg45
Vhttps://pbs.twimg.com/profile_background_images/469860658213699584/X9aU4wJN.jpeg
p667
sg47
I00
sg48
V333333
p668
sg50
g665
sg51
g649
sg52
g650
sg53
I3153
sg54
VFFFFFF
p669
sg56
V2329624993
p670
sg58
VC0DEED
p671
sg60
I52
sg61
I00
sg62
I-28800
sg63
I49470
sg32
VWe promote  UR #vape and products through http://t.co/QBCbrsEVse - visit our other Twitter handles @528Canna and @528Marketing - email contact@528marketing.com
p672
sg65
I2387
sg66
VThe wolrd of vape
p673
sg68
V0084B4
p674
sg70
Vhttp://pbs.twimg.com/profile_images/469861227854708736/VMPEysjY_normal.jpeg
p675
sg72
I00
sg73
I00
sg74
Vhttps://pbs.twimg.com/profile_banners/2329624993/1400858521
p676
sg76
Vhttp://pbs.twimg.com/profile_background_images/469860658213699584/X9aU4wJN.jpeg
p677
sg78
V528vape
p678
sg80
Ven
p679
sg82
I01
sg83
I444
sg84
V528vape
p680
sg86
I00
sg87
Vhttp://t.co/GPmOGK0Cc5
p681
sg88
VThu Feb 06 01:30:14 +0000 2014
p682
sg90
I00
sg91
VPacific Time (US & Canada)
p683
sg93
I00
sg94
I00
sg95
I00
ssg96
I00
sg97
g668
sg98
I3153
sg99
g669
sg100
g670
sg101
I00
sg102
I52
sg103
I00
sg104
I-28800
sg105
I49470
sg106
g672
sg107
I2387
sg108
g673
sg109
g674
sg110
g675
sg111
I00
sg112
I00
sg113
g671
sg114
g676
sg115
g677
sg116
g678
sg117
g679
sg118
I00
sg119
I01
sg120
I444
sg121
g680
sg122
g681
sg123
g124
(S'\x07\xde\x02\x06\x01\x1e\x0e\x00\x00\x00'
p684
tp685
Rp686
sg128
g667
sg129
g683
sg130
I00
sg131
I00
sg132
I00
sbsg133
Nsg28
L663832665695453184L
sg134
I0
sg135
Vtwitterfeed
p687
sg117
Ven
p688
sg138
g647
sg123
g124
(S'\x07\xdf\x0b\t\x15$7\x00\x00\x00'
p689
tp690
Rp691
sg38
(dp692
g143
Nsg144
I00
sg145
g644
sg146
I00
sg147
Nsg44
L663832665695453184L
sg148
I0
sg149
V<a href="http://twitterfeed.com" rel="nofollow">twitterfeed</a>
p693
sg151
I00
sg152
Nsg52
(dp694
g154
(lp695
(dp696
g157
(lp697
I0
aI5
asg145
VVPCO
p698
sasg160
(lp699
sg162
(lp700
sg34
(lp701
(dp702
g87
Vhttps://t.co/9DYrFlMrDG
p703
sg157
(lp704
I94
aI117
asg242
Vhttp://bit.ly/1HDuWcQ
p705
sg244
Vbit.ly/1HDuWcQ
p706
sassg165
Nsg166
Nsg167
I0
sg56
V663832665695453184
p707
sg169
I00
sg170
g666
sg171
Nsg172
Nsg431
I00
sg80
g688
sg88
VMon Nov 09 21:36:55 +0000 2015
p708
sg174
Nsg175
Nsg176
(dp709
g178
Ven
p710
sg180
Vrecent
p711
sssg182
g709
sg183
Nsg184
Nsg30
g694
sg185
Nsg186
Nsg100
g707
sg187
I00
sg188
Nsg189
I0
sg190
Nsbag0
(g4
g5
Ntp712
Rp713
(dp714
g9
I00
sg10
Nsg11
I00
sg12
V$VPCO vapork: The market isn't going to be impressed for: vapork https://t.co/F0ldzrAPBI
p715
sg14
Vhttp://twitterfeed.com
p716
sg368
I00
sg16
I00
sg17
Nsg18
g0
(g19
g5
Ntp717
Rp718
(dp719
g23
I00
sg24
I00
sg25
I01
sg26
VDDEEF6
p720
sg28
L2329624993L
sg29
I00
sg30
(dp721
g87
(dp722
g34
(lp723
(dp724
g87
Vhttp://t.co/GPmOGK0Cc5
p725
sg157
(lp726
I0
aI22
asg242
Vhttp://528marketing.com/we-can-help-distribute-your-cannabis-or-vape-products-to-c-stores/
p727
sg244
V528marketing.com/we-can-help-di\u2026
p728
sassg32
(dp729
g34
(lp730
(dp731
g87
Vhttp://t.co/QBCbrsEVse
p732
sg157
(lp733
I42
aI64
asg242
Vhttp://528Marketing.com
p734
sg244
V528Marketing.com
p735
sasssg36
Vhttps://pbs.twimg.com/profile_images/469861227854708736/VMPEysjY_normal.jpeg
p736
sg38
(dp737
g40
I00
sg41
I00
sg42
I01
sg43
I00
sg44
L2329624993L
sg45
Vhttps://pbs.twimg.com/profile_background_images/469860658213699584/X9aU4wJN.jpeg
p738
sg47
I00
sg48
V333333
p739
sg50
g736
sg51
g720
sg52
g721
sg53
I3153
sg54
VFFFFFF
p740
sg56
V2329624993
p741
sg58
VC0DEED
p742
sg60
I52
sg61
I00
sg62
I-28800
sg63
I49470
sg32
VWe promote  UR #vape and products through http://t.co/QBCbrsEVse - visit our other Twitter handles @528Canna and @528Marketing - email contact@528marketing.com
p743
sg65
I2387
sg66
VThe wolrd of vape
p744
sg68
V0084B4
p745
sg70
Vhttp://pbs.twimg.com/profile_images/469861227854708736/VMPEysjY_normal.jpeg
p746
sg72
I00
sg73
I00
sg74
Vhttps://pbs.twimg.com/profile_banners/2329624993/1400858521
p747
sg76
Vhttp://pbs.twimg.com/profile_background_images/469860658213699584/X9aU4wJN.jpeg
p748
sg78
V528vape
p749
sg80
Ven
p750
sg82
I01
sg83
I444
sg84
V528vape
p751
sg86
I00
sg87
Vhttp://t.co/GPmOGK0Cc5
p752
sg88
VThu Feb 06 01:30:14 +0000 2014
p753
sg90
I00
sg91
VPacific Time (US & Canada)
p754
sg93
I00
sg94
I00
sg95
I00
ssg96
I00
sg97
g739
sg98
I3153
sg99
g740
sg100
g741
sg101
I00
sg102
I52
sg103
I00
sg104
I-28800
sg105
I49470
sg106
g743
sg107
I2387
sg108
g744
sg109
g745
sg110
g746
sg111
I00
sg112
I00
sg113
g742
sg114
g747
sg115
g748
sg116
g749
sg117
g750
sg118
I00
sg119
I01
sg120
I444
sg121
g751
sg122
g752
sg123
g124
(S'\x07\xde\x02\x06\x01\x1e\x0e\x00\x00\x00'
p755
tp756
Rp757
sg128
g738
sg129
g754
sg130
I00
sg131
I00
sg132
I00
sbsg133
Nsg28
L663810715816341504L
sg134
I0
sg135
Vtwitterfeed
p758
sg117
Ven
p759
sg138
g718
sg123
g124
(S'\x07\xdf\x0b\t\x14\t*\x00\x00\x00'
p760
tp761
Rp762
sg38
(dp763
g143
Nsg144
I00
sg145
g715
sg146
I00
sg147
Nsg44
L663810715816341504L
sg148
I0
sg149
V<a href="http://twitterfeed.com" rel="nofollow">twitterfeed</a>
p764
sg151
I00
sg152
Nsg52
(dp765
g154
(lp766
(dp767
g157
(lp768
I0
aI5
asg145
VVPCO
p769
sasg160
(lp770
sg162
(lp771
sg34
(lp772
(dp773
g87
Vhttps://t.co/F0ldzrAPBI
p774
sg157
(lp775
I65
aI88
asg242
Vhttp://bit.ly/1kH0vxj
p776
sg244
Vbit.ly/1kH0vxj
p777
sassg165
Nsg166
Nsg167
I0
sg56
V663810715816341504
p778
sg169
I00
sg170
g737
sg171
Nsg172
Nsg431
I00
sg80
g759
sg88
VMon Nov 09 20:09:42 +0000 2015
p779
sg174
Nsg175
Nsg176
(dp780
g178
Ven
p781
sg180
Vrecent
p782
sssg182
g780
sg183
Nsg184
Nsg30
g765
sg185
Nsg186
Nsg100
g778
sg187
I00
sg188
Nsg189
I0
sg190
Nsbag0
(g4
g5
Ntp783
Rp784
(dp785
g9
I00
sg10
Nsg11
I00
sg12
V$VPCO Austin_Powers: https://t.co/E4idinme01\u000a\u000agrrr baby. Seems like the market isnt i: Austin_Powers https://t.co/6xNQixULwK
p786
sg14
Vhttp://twitterfeed.com
p787
sg368
I00
sg16
I00
sg17
Nsg18
g0
(g19
g5
Ntp788
Rp789
(dp790
g23
I00
sg24
I00
sg25
I01
sg26
VDDEEF6
p791
sg28
L2329624993L
sg29
I00
sg30
(dp792
g87
(dp793
g34
(lp794
(dp795
g87
Vhttp://t.co/GPmOGK0Cc5
p796
sg157
(lp797
I0
aI22
asg242
Vhttp://528marketing.com/we-can-help-distribute-your-cannabis-or-vape-products-to-c-stores/
p798
sg244
V528marketing.com/we-can-help-di\u2026
p799
sassg32
(dp800
g34
(lp801
(dp802
g87
Vhttp://t.co/QBCbrsEVse
p803
sg157
(lp804
I42
aI64
asg242
Vhttp://528Marketing.com
p805
sg244
V528Marketing.com
p806
sasssg36
Vhttps://pbs.twimg.com/profile_images/469861227854708736/VMPEysjY_normal.jpeg
p807
sg38
(dp808
g40
I00
sg41
I00
sg42
I01
sg43
I00
sg44
L2329624993L
sg45
Vhttps://pbs.twimg.com/profile_background_images/469860658213699584/X9aU4wJN.jpeg
p809
sg47
I00
sg48
V333333
p810
sg50
g807
sg51
g791
sg52
g792
sg53
I3153
sg54
VFFFFFF
p811
sg56
V2329624993
p812
sg58
VC0DEED
p813
sg60
I52
sg61
I00
sg62
I-28800
sg63
I49470
sg32
VWe promote  UR #vape and products through http://t.co/QBCbrsEVse - visit our other Twitter handles @528Canna and @528Marketing - email contact@528marketing.com
p814
sg65
I2387
sg66
VThe wolrd of vape
p815
sg68
V0084B4
p816
sg70
Vhttp://pbs.twimg.com/profile_images/469861227854708736/VMPEysjY_normal.jpeg
p817
sg72
I00
sg73
I00
sg74
Vhttps://pbs.twimg.com/profile_banners/2329624993/1400858521
p818
sg76
Vhttp://pbs.twimg.com/profile_background_images/469860658213699584/X9aU4wJN.jpeg
p819
sg78
V528vape
p820
sg80
Ven
p821
sg82
I01
sg83
I444
sg84
V528vape
p822
sg86
I00
sg87
Vhttp://t.co/GPmOGK0Cc5
p823
sg88
VThu Feb 06 01:30:14 +0000 2014
p824
sg90
I00
sg91
VPacific Time (US & Canada)
p825
sg93
I00
sg94
I00
sg95
I00
ssg96
I00
sg97
g810
sg98
I3153
sg99
g811
sg100
g812
sg101
I00
sg102
I52
sg103
I00
sg104
I-28800
sg105
I49470
sg106
g814
sg107
I2387
sg108
g815
sg109
g816
sg110
g817
sg111
I00
sg112
I00
sg113
g813
sg114
g818
sg115
g819
sg116
g820
sg117
g821
sg118
I00
sg119
I01
sg120
I444
sg121
g822
sg122
g823
sg123
g124
(S'\x07\xde\x02\x06\x01\x1e\x0e\x00\x00\x00'
p826
tp827
Rp828
sg128
g809
sg129
g825
sg130
I00
sg131
I00
sg132
I00
sbsg133
Nsg28
L663739253621321728L
sg134
I0
sg135
Vtwitterfeed
p829
sg117
Ven
p830
sg138
g789
sg123
g124
(S'\x07\xdf\x0b\t\x0f\x19,\x00\x00\x00'
p831
tp832
Rp833
sg38
(dp834
g143
Nsg144
I00
sg145
V$VPCO Austin_Powers: https://t.co/E4idinme01\u000a\u000agrrr baby. Seems like the market isnt i: Austin_Powers https://t.co/6xNQixULwK
p835
sg146
I00
sg147
Nsg44
L663739253621321728L
sg148
I0
sg149
V<a href="http://twitterfeed.com" rel="nofollow">twitterfeed</a>
p836
sg151
I00
sg152
Nsg52
(dp837
g154
(lp838
(dp839
g157
(lp840
I0
aI5
asg145
VVPCO
p841
sasg160
(lp842
sg162
(lp843
sg34
(lp844
(dp845
g87
Vhttps://t.co/E4idinme01
p846
sg157
(lp847
I21
aI44
asg242
Vhttp://shop.vulcanvape.com/blogs/news
p848
sg244
Vshop.vulcanvape.com/blogs/news
p849
sa(dp850
g87
Vhttps://t.co/6xNQixULwK
p851
sg157
(lp852
I101
aI124
asg242
Vhttp://bit.ly/1kG5cHF
p853
sg244
Vbit.ly/1kG5cHF
p854
sassg165
Nsg166
Nsg167
I0
sg56
V663739253621321728
p855
sg169
I00
sg170
g808
sg171
Nsg172
Nsg431
I00
sg80
g830
sg88
VMon Nov 09 15:25:44 +0000 2015
p856
sg174
Nsg175
Nsg176
(dp857
g178
Ven
p858
sg180
Vrecent
p859
sssg182
g857
sg183
Nsg184
Nsg30
g837
sg185
Nsg186
Nsg100
g855
sg187
I00
sg188
Nsg189
I0
sg190
Nsbag0
(g4
g5
Ntp860
Rp861
(dp862
g9
I00
sg10
Nsg11
I00
sg12
V$VPCO 11%
p863
sg14
Vhttp://twitter.com
p864
sg16
I00
sg17
Nsg18
g0
(g19
g5
Ntp865
Rp866
(dp867
g23
I00
sg24
I00
sg25
I01
sg26
VEFEFEF
p868
sg28
I40300931
sg29
I00
sg30
(dp869
g32
(dp870
g34
(lp871
sssg36
Vhttps://pbs.twimg.com/profile_images/378800000674553843/63d8ac759dadf15bbec333467faa8e37_normal.jpeg
p872
sg38
(dp873
g40
I00
sg41
I00
sg42
I01
sg43
I00
sg44
I40300931
sg45
Vhttps://pbs.twimg.com/profile_background_images/795542208/d332ed6071ae26fd3fb75c17b212399d.jpeg
p874
sg47
I00
sg48
V333333
p875
sg50
g872
sg51
g868
sg52
g869
sg53
I3885
sg54
VFFFFFF
p876
sg56
V40300931
p877
sg58
V131516
p878
sg60
I117
sg61
I00
sg62
I-18000
sg63
I17955
sg32
VTrading Full Time  All tweets are my personal opinion \u000aDo your own DD to Buy or Sell Stocks\u000a       Always Looking At New Business Ideas
p879
sg65
I1735
sg66
VAll AROUND THE WORLD
p880
sg68
V009999
p881
sg70
Vhttp://pbs.twimg.com/profile_images/378800000674553843/63d8ac759dadf15bbec333467faa8e37_normal.jpeg
p882
sg72
I00
sg73
I01
sg74
Vhttps://pbs.twimg.com/profile_banners/40300931/1405878637
p883
sg76
Vhttp://pbs.twimg.com/profile_background_images/795542208/d332ed6071ae26fd3fb75c17b212399d.jpeg
p884
sg78
VMONEYEMPIRE
p885
sg80
Ven
p886
sg82
I01
sg83
I2117
sg84
VMoneyEmpire
p887
sg86
I00
sg87
Nsg88
VFri May 15 18:30:57 +0000 2009
p888
sg90
I00
sg91
VEastern Time (US & Canada)
p889
sg93
I00
sg94
I00
sg95
I00
ssg96
I00
sg97
g875
sg98
I3885
sg99
g876
sg100
g877
sg101
I00
sg102
I117
sg103
I00
sg104
I-18000
sg105
I17955
sg106
VTrading Full Time  All tweets are my personal opinion \u000aDo your own DD to Buy or Sell Stocks\u000a       Always Looking At New Business Ideas
p890
sg107
I1735
sg108
g880
sg109
g881
sg110
g882
sg111
I00
sg112
I01
sg113
g878
sg114
g883
sg115
g884
sg116
g885
sg117
g886
sg118
I00
sg119
I01
sg120
I2117
sg121
g887
sg122
Nsg123
g124
(S'\x07\xd9\x05\x0f\x12\x1e9\x00\x00\x00'
p891
tp892
Rp893
sg128
g874
sg129
g889
sg130
I00
sg131
I00
sg132
I00
sbsg133
Nsg28
L663728826346684416L
sg134
I1
sg135
VTwitter Web Client
p894
sg117
Vnl
p895
sg138
g866
sg123
g124
(S'\x07\xdf\x0b\t\x0e,\x12\x00\x00\x00'
p896
tp897
Rp898
sg38
(dp899
g143
Nsg144
I00
sg145
g863
sg146
I00
sg147
Nsg44
L663728826346684416L
sg148
I1
sg149
V<a href="http://twitter.com" rel="nofollow">Twitter Web Client</a>
p900
sg151
I00
sg152
Nsg52
(dp901
g154
(lp902
(dp903
g157
(lp904
I0
aI5
asg145
VVPCO
p905
sasg160
(lp906
sg162
(lp907
sg34
(lp908
ssg165
Nsg166
Nsg167
I0
sg56
V663728826346684416
p909
sg169
I00
sg170
g873
sg171
Nsg172
Nsg80
g895
sg88
VMon Nov 09 14:44:18 +0000 2015
p910
sg174
Nsg175
Nsg176
(dp911
g178
Vnl
p912
sg180
Vrecent
p913
sssg182
g911
sg183
Nsg184
Nsg30
g901
sg185
Nsg186
Nsg100
g909
sg187
I00
sg188
Nsg189
I0
sg190
Nsbag0
(g4
g5
Ntp914
Rp915
(dp916
g9
I00
sg10
Nsg11
I00
sg12
V$VPCO Vapor Corp. Continues to Successfully Execute National Retail Expansion Program with Acquisition of Three... https://t.co/B3kb9s8QR6
p917
sg14
Vhttp://www.hootsuite.com
p918
sg368
I00
sg16
I00
sg17
Nsg18
g0
(g19
g5
Ntp919
Rp920
(dp921
g23
I00
sg24
I00
sg25
I01
sg26
VC0DFEC
p922
sg28
I352785485
sg29
I00
sg30
(dp923
g87
(dp924
g34
(lp925
(dp926
g87
Vhttp://t.co/MALLlPW0Du
p927
sg157
(lp928
I0
aI22
asg242
Vhttp://stocknewsnow.com
p929
sg244
Vstocknewsnow.com
p930
sassg32
(dp931
g34
(lp932
(dp933
g87
Vhttps://t.co/pGeMRvpkst
p934
sg157
(lp935
I17
aI40
asg242
Vhttp://www.StockNewsNow.com
p936
sg244
VStockNewsNow.com
p937
sasssg36
Vhttps://pbs.twimg.com/profile_images/491990402925211648/LsoxRNml_normal.jpeg
p938
sg38
(dp939
g40
I00
sg41
I00
sg42
I01
sg43
I00
sg44
I352785485
sg45
Vhttps://abs.twimg.com/images/themes/theme15/bg.png
p940
sg47
I00
sg48
V333333
p941
sg50
g938
sg51
g922
sg52
g923
sg53
I1335
sg54
VA8C7F7
p942
sg56
V352785485
p943
sg58
V022330
p944
sg60
I74
sg61
I00
sg62
I-28800
sg63
I13751
sg32
VTwitter Feed for https://t.co/pGeMRvpkst, The Official MicroCap News Source\u2122 #MicroCap #MicroCaps
p945
sg65
I1374
sg66
VUS
p946
sg68
V0084B4
p947
sg70
Vhttp://pbs.twimg.com/profile_images/491990402925211648/LsoxRNml_normal.jpeg
p948
sg72
I00
sg73
I00
sg74
Vhttps://pbs.twimg.com/profile_banners/352785485/1406581260
p949
sg76
Vhttp://abs.twimg.com/images/themes/theme15/bg.png
p950
sg78
VStockNewsNow
p951
sg80
Ven
p952
sg82
I00
sg83
I181
sg84
VStock News Now
p953
sg86
I00
sg87
Vhttp://t.co/MALLlPW0Du
p954
sg88
VThu Aug 11 02:45:12 +0000 2011
p955
sg90
I00
sg91
VPacific Time (US & Canada)
p956
sg93
I00
sg94
I00
sg95
I00
ssg96
I00
sg97
g941
sg98
I1335
sg99
g942
sg100
g943
sg101
I00
sg102
I74
sg103
I00
sg104
I-28800
sg105
I13751
sg106
g945
sg107
I1374
sg108
g946
sg109
g947
sg110
g948
sg111
I00
sg112
I00
sg113
g944
sg114
g949
sg115
g950
sg116
g951
sg117
g952
sg118
I00
sg119
I00
sg120
I181
sg121
g953
sg122
g954
sg123
g124
(S'\x07\xdb\x08\x0b\x02-\x0c\x00\x00\x00'
p957
tp958
Rp959
sg128
g940
sg129
g956
sg130
I00
sg131
I00
sg132
I00
sbsg133
Nsg28
L663714730905837568L
sg134
I0
sg135
VHootsuite
p960
sg117
Ven
p961
sg138
g920
sg123
g124
(S'\x07\xdf\x0b\t\r0\x11\x00\x00\x00'
p962
tp963
Rp964
sg38
(dp965
g143
Nsg144
I00
sg145
g917
sg146
I00
sg147
Nsg44
L663714730905837568L
sg148
I0
sg149
V<a href="http://www.hootsuite.com" rel="nofollow">Hootsuite</a>
p966
sg151
I00
sg152
Nsg52
(dp967
g154
(lp968
(dp969
g157
(lp970
I0
aI5
asg145
VVPCO
p971
sasg160
(lp972
sg162
(lp973
sg34
(lp974
(dp975
g87
Vhttps://t.co/B3kb9s8QR6
p976
sg157
(lp977
I115
aI138
asg242
Vhttp://ow.ly/UpTLS
p978
sg244
Vow.ly/UpTLS
p979
sassg165
Nsg166
Nsg167
I0
sg56
V663714730905837568
p980
sg169
I00
sg170
g939
sg171
Nsg172
Nsg431
I00
sg80
g961
sg88
VMon Nov 09 13:48:17 +0000 2015
p981
sg174
Nsg175
Nsg176
(dp982
g178
Ven
p983
sg180
Vrecent
p984
sssg182
g982
sg183
Nsg184
Nsg30
g967
sg185
Nsg186
Nsg100
g980
sg187
I00
sg188
Nsg189
I0
sg190
Nsbag0
(g4
g5
Ntp985
Rp986
(dp987
g9
I00
sg10
Nsg11
I00
sg12
V$VPCO Continues to Successfully Execute National Retail Expansion Program https://t.co/VX6Jx6Bf0k #marijuanastocks #potstocks
p988
sg14
Vhttp://marijuanastocks.com
p989
sg368
I00
sg16
I00
sg17
Nsg18
g0
(g19
g5
Ntp990
Rp991
(dp992
g23
I00
sg24
I00
sg25
I01
sg26
VEFEFEF
p993
sg28
I69350553
sg29
I00
sg30
(dp994
g87
(dp995
g34
(lp996
(dp997
g87
Vhttp://t.co/y2GyByiU8c
p998
sg157
(lp999
I0
aI22
asg242
Vhttp://MarijuanaStocks.com
p1000
sg244
VMarijuanaStocks.com
p1001
sassg32
(dp1002
g34
(lp1003
sssg36
Vhttps://pbs.twimg.com/profile_images/509056312089407488/xzc1kEZj_normal.jpeg
p1004
sg38
(dp1005
g40
I00
sg41
I00
sg42
I01
sg43
I00
sg44
I69350553
sg45
Vhttps://abs.twimg.com/images/themes/theme14/bg.gif
p1006
sg47
I00
sg48
V333333
p1007
sg50
g1004
sg51
g993
sg52
g994
sg53
I20983
sg54
VEEEEEE
p1008
sg56
V69350553
p1009
sg58
V131516
p1010
sg60
I266
sg61
I00
sg62
I-18000
sg63
I4626
sg32
VInfo on publicly traded companies forming or operating in the emerging legal marijuana (cannabis) industry. Tweets are not recommendations to buy or sell
p1011
sg65
I1707
sg66
g256
sg68
V009999
p1012
sg70
Vhttp://pbs.twimg.com/profile_images/509056312089407488/xzc1kEZj_normal.jpeg
p1013
sg72
I00
sg73
I00
sg74
Vhttps://pbs.twimg.com/profile_banners/69350553/1410204029
p1014
sg76
Vhttp://abs.twimg.com/images/themes/theme14/bg.gif
p1015
sg78
VMarijuanaStocks
p1016
sg80
Ven
p1017
sg82
I01
sg83
I358
sg84
VMarijuana Stocks
p1018
sg86
I00
sg87
Vhttp://t.co/y2GyByiU8c
p1019
sg88
VThu Aug 27 17:31:06 +0000 2009
p1020
sg90
I00
sg91
VEastern Time (US & Canada)
p1021
sg93
I00
sg94
I00
sg95
I00
ssg96
I00
sg97
g1007
sg98
I20983
sg99
g1008
sg100
g1009
sg101
I00
sg102
I266
sg103
I00
sg104
I-18000
sg105
I4626
sg106
g1011
sg107
I1707
sg108
g256
sg109
g1012
sg110
g1013
sg111
I00
sg112
I00
sg113
g1010
sg114
g1014
sg115
g1015
sg116
g1016
sg117
g1017
sg118
I00
sg119
I01
sg120
I358
sg121
g1018
sg122
g1019
sg123
g124
(S'\x07\xd9\x08\x1b\x11\x1f\x06\x00\x00\x00'
p1022
tp1023
Rp1024
sg128
g1006
sg129
g1021
sg130
I00
sg131
I00
sg132
I00
sbsg133
Nsg28
L663712090096463872L
sg134
I0
sg135
Vwp to twitter mjstocks
p1025
sg117
Ven
p1026
sg138
g991
sg123
g124
(S'\x07\xdf\x0b\t\r%0\x00\x00\x00'
p1027
tp1028
Rp1029
sg38
(dp1030
g143
Nsg144
I00
sg145
g988
sg146
I00
sg147
Nsg44
L663712090096463872L
sg148
I0
sg149
V<a href="http://marijuanastocks.com" rel="nofollow">wp to twitter mjstocks</a>
p1031
sg151
I00
sg152
Nsg52
(dp1032
g154
(lp1033
(dp1034
g157
(lp1035
I0
aI5
asg145
VVPCO
p1036
sasg160
(lp1037
sg162
(lp1038
(dp1039
g157
(lp1040
I98
aI114
asg145
Vmarijuanastocks
p1041
sa(dp1042
g157
(lp1043
I115
aI125
asg145
Vpotstocks
p1044
sasg34
(lp1045
(dp1046
g87
Vhttps://t.co/VX6Jx6Bf0k
p1047
sg157
(lp1048
I74
aI97
asg242
Vhttp://marijuanastocks.com/vpco-continues-to-successfully-execute-national-retail-expansion-program-2/
p1049
sg244
Vmarijuanastocks.com/vpco-continues\u2026
p1050
sassg165
Nsg166
Nsg167
I0
sg56
V663712090096463872
p1051
sg169
I00
sg170
g1005
sg171
Nsg172
Nsg431
I00
sg80
g1026
sg88
VMon Nov 09 13:37:48 +0000 2015
p1052
sg174
Nsg175
Nsg176
(dp1053
g178
Ven
p1054
sg180
Vrecent
p1055
sssg182
g1053
sg183
Nsg184
Nsg30
g1032
sg185
Nsg186
Nsg100
g1051
sg187
I00
sg188
Nsg189
I0
sg190
Nsbag0
(g4
g5
Ntp1056
Rp1057
(dp1058
g9
I00
sg10
Nsg11
I00
sg12
VThe Most Accurate Stock Alert Service Made $240,000 Yesterday https://t.co/8WvnrVmkBS .. $VPCO $DISCA $MTSN
p1059
sg14
Vhttp://socialadcenter.com
p1060
sg368
I00
sg16
I00
sg17
Nsg18
g0
(g19
g5
Ntp1061
Rp1062
(dp1063
g23
I00
sg24
I00
sg25
I01
sg26
VDDEEF6
p1064
sg28
L2730855593L
sg29
I00
sg30
(dp1065
g87
(dp1066
g34
(lp1067
(dp1068
g87
Vhttp://t.co/UWzH8kOOl9
p1069
sg157
(lp1070
I0
aI22
asg242
Vhttp://PennyStockSecret.com
p1071
sg244
VPennyStockSecret.com
p1072
sassg32
(dp1073
g34
(lp1074
(dp1075
g87
Vhttp://t.co/UWzH8kOOl9
p1076
sg157
(lp1077
I11
aI33
asg242
Vhttp://PennyStockSecret.com
p1078
sg244
VPennyStockSecret.com
p1079
sasssg36
Vhttps://pbs.twimg.com/profile_images/573247485616889856/gHAtYS9O_normal.png
p1080
sg38
(dp1081
g40
I00
sg41
I00
sg42
I01
sg43
I00
sg44
L2730855593L
sg45
Vhttps://abs.twimg.com/images/themes/theme1/bg.png
p1082
sg47
I00
sg48
V333333
p1083
sg50
g1080
sg51
g1064
sg52
g1065
sg53
I2515
sg54
VC0DEED
p1084
sg56
V2730855593
p1085
sg58
VC0DEED
p1086
sg60
I25
sg61
I00
sg62
I0
sg63
I53230
sg32
VSign up to http://t.co/UWzH8kOOl9  and get the premiere penny stock newsletter for free! make sure you subscribe today!
p1087
sg65
I9
sg66
VUSA
p1088
sg68
V0084B4
p1089
sg70
Vhttp://pbs.twimg.com/profile_images/573247485616889856/gHAtYS9O_normal.png
p1090
sg72
I00
sg73
I00
sg74
Vhttps://pbs.twimg.com/profile_banners/2730855593/1425507876
p1091
sg76
Vhttp://abs.twimg.com/images/themes/theme1/bg.png
p1092
sg78
Vstockschamp
p1093
sg80
Ven
p1094
sg82
I00
sg83
I0
sg84
Vstockschamp
p1095
sg86
I00
sg87
Vhttp://t.co/UWzH8kOOl9
p1096
sg88
VFri Aug 01 16:39:24 +0000 2014
p1097
sg90
I00
sg91
VDublin
p1098
sg93
I00
sg94
I01
sg95
I00
ssg96
I00
sg97
g1083
sg98
I2515
sg99
g1084
sg100
g1085
sg101
I00
sg102
I25
sg103
I00
sg104
I0
sg105
I53230
sg106
g1087
sg107
I9
sg108
g1088
sg109
g1089
sg110
g1090
sg111
I00
sg112
I00
sg113
g1086
sg114
g1091
sg115
g1092
sg116
g1093
sg117
g1094
sg118
I00
sg119
I00
sg120
I0
sg121
g1095
sg122
g1096
sg123
g124
(S"\x07\xde\x08\x01\x10'\x18\x00\x00\x00"
p1099
tp1100
Rp1101
sg128
g1082
sg129
g1098
sg130
I00
sg131
I01
sg132
I00
sbsg133
Nsg28
L663631046936625152L
sg134
I0
sg135
VSocial Ad Center
p1102
sg117
Ven
p1103
sg138
g1062
sg123
g124
(S'\x07\xdf\x0b\t\x08\x0f-\x00\x00\x00'
p1104
tp1105
Rp1106
sg38
(dp1107
g143
Nsg144
I00
sg145
g1059
sg146
I00
sg147
Nsg44
L663631046936625152L
sg148
I0
sg149
V<a href="http://socialadcenter.com" rel="nofollow">Social Ad Center</a>
p1108
sg151
I00
sg152
Nsg52
(dp1109
g154
(lp1110
(dp1111
g157
(lp1112
I89
aI94
asg145
VVPCO
p1113
sa(dp1114
g157
(lp1115
I95
aI101
asg145
VDISCA
p1116
sa(dp1117
g157
(lp1118
I102
aI107
asg145
VMTSN
p1119
sasg160
(lp1120
sg162
(lp1121
sg34
(lp1122
(dp1123
g87
Vhttps://t.co/8WvnrVmkBS
p1124
sg157
(lp1125
I62
aI85
asg242
Vhttp://PennyStockSecret.com
p1126
sg244
VPennyStockSecret.com
p1127
sassg165
Nsg166
Nsg167
I0
sg56
V663631046936625152
p1128
sg169
I00
sg170
g1081
sg171
Nsg172
Nsg431
I00
sg80
g1103
sg88
VMon Nov 09 08:15:45 +0000 2015
p1129
sg174
Nsg175
Nsg176
(dp1130
g178
Ven
p1131
sg180
Vrecent
p1132
sssg182
g1130
sg183
Nsg184
Nsg30
g1109
sg185
Nsg186
Nsg100
g1128
sg187
I00
sg188
Nsg189
I0
sg190
Nsbag0
(g4
g5
Ntp1133
Rp1134
(dp1135
g9
I00
sg10
Nsg11
I00
sg12
V$VPCO vapork: buy some Philip Morris International and let $VPCO ride.: vapork https://t.co/YESj2zAamY
p1136
sg14
Vhttp://twitterfeed.com
p1137
sg368
I00
sg16
I00
sg17
Nsg18
g0
(g19
g5
Ntp1138
Rp1139
(dp1140
g23
I00
sg24
I00
sg25
I01
sg26
VDDEEF6
p1141
sg28
L2329624993L
sg29
I00
sg30
(dp1142
g87
(dp1143
g34
(lp1144
(dp1145
g87
Vhttp://t.co/GPmOGK0Cc5
p1146
sg157
(lp1147
I0
aI22
asg242
Vhttp://528marketing.com/we-can-help-distribute-your-cannabis-or-vape-products-to-c-stores/
p1148
sg244
V528marketing.com/we-can-help-di\u2026
p1149
sassg32
(dp1150
g34
(lp1151
(dp1152
g87
Vhttp://t.co/QBCbrsEVse
p1153
sg157
(lp1154
I42
aI64
asg242
Vhttp://528Marketing.com
p1155
sg244
V528Marketing.com
p1156
sasssg36
Vhttps://pbs.twimg.com/profile_images/469861227854708736/VMPEysjY_normal.jpeg
p1157
sg38
(dp1158
g40
I00
sg41
I00
sg42
I01
sg43
I00
sg44
L2329624993L
sg45
Vhttps://pbs.twimg.com/profile_background_images/469860658213699584/X9aU4wJN.jpeg
p1159
sg47
I00
sg48
V333333
p1160
sg50
g1157
sg51
g1141
sg52
g1142
sg53
I3153
sg54
VFFFFFF
p1161
sg56
V2329624993
p1162
sg58
VC0DEED
p1163
sg60
I52
sg61
I00
sg62
I-28800
sg63
I49470
sg32
VWe promote  UR #vape and products through http://t.co/QBCbrsEVse - visit our other Twitter handles @528Canna and @528Marketing - email contact@528marketing.com
p1164
sg65
I2387
sg66
VThe wolrd of vape
p1165
sg68
V0084B4
p1166
sg70
Vhttp://pbs.twimg.com/profile_images/469861227854708736/VMPEysjY_normal.jpeg
p1167
sg72
I00
sg73
I00
sg74
Vhttps://pbs.twimg.com/profile_banners/2329624993/1400858521
p1168
sg76
Vhttp://pbs.twimg.com/profile_background_images/469860658213699584/X9aU4wJN.jpeg
p1169
sg78
V528vape
p1170
sg80
Ven
p1171
sg82
I01
sg83
I444
sg84
V528vape
p1172
sg86
I00
sg87
Vhttp://t.co/GPmOGK0Cc5
p1173
sg88
VThu Feb 06 01:30:14 +0000 2014
p1174
sg90
I00
sg91
VPacific Time (US & Canada)
p1175
sg93
I00
sg94
I00
sg95
I00
ssg96
I00
sg97
g1160
sg98
I3153
sg99
g1161
sg100
g1162
sg101
I00
sg102
I52
sg103
I00
sg104
I-28800
sg105
I49470
sg106
g1164
sg107
I2387
sg108
g1165
sg109
g1166
sg110
g1167
sg111
I00
sg112
I00
sg113
g1163
sg114
g1168
sg115
g1169
sg116
g1170
sg117
g1171
sg118
I00
sg119
I01
sg120
I444
sg121
g1172
sg122
g1173
sg123
g124
(S'\x07\xde\x02\x06\x01\x1e\x0e\x00\x00\x00'
p1176
tp1177
Rp1178
sg128
g1159
sg129
g1175
sg130
I00
sg131
I00
sg132
I00
sbsg133
Nsg28
L663462667781144576L
sg134
I0
sg135
Vtwitterfeed
p1179
sg117
Ven
p1180
sg138
g1139
sg123
g124
(S'\x07\xdf\x0b\x08\x15\x06)\x00\x00\x00'
p1181
tp1182
Rp1183
sg38
(dp1184
g143
Nsg144
I00
sg145
g1136
sg146
I00
sg147
Nsg44
L663462667781144576L
sg148
I0
sg149
V<a href="http://twitterfeed.com" rel="nofollow">twitterfeed</a>
p1185
sg151
I00
sg152
Nsg52
(dp1186
g154
(lp1187
(dp1188
g157
(lp1189
I0
aI5
asg145
VVPCO
p1190
sa(dp1191
g157
(lp1192
I59
aI64
asg145
VVPCO
p1193
sasg160
(lp1194
sg162
(lp1195
sg34
(lp1196
(dp1197
g87
Vhttps://t.co/YESj2zAamY
p1198
sg157
(lp1199
I79
aI102
asg242
Vhttp://bit.ly/1Safyu4
p1200
sg244
Vbit.ly/1Safyu4
p1201
sassg165
Nsg166
Nsg167
I0
sg56
V663462667781144576
p1202
sg169
I00
sg170
g1158
sg171
Nsg172
Nsg431
I00
sg80
g1180
sg88
VSun Nov 08 21:06:41 +0000 2015
p1203
sg174
Nsg175
Nsg176
(dp1204
g178
Ven
p1205
sg180
Vrecent
p1206
sssg182
g1204
sg183
Nsg184
Nsg30
g1186
sg185
Nsg186
Nsg100
g1202
sg187
I00
sg188
Nsg189
I0
sg190
Nsbag0
(g4
g5
Ntp1207
Rp1208
(dp1209
g9
I00
sg10
Nsg11
I00
sg12
V$VPCO Ultimaratioregum: IMO the biggest problem is management lack of: Ultimaratioregum https://t.co/IiFzZY6TYI
p1210
sg14
Vhttp://twitterfeed.com
p1211
sg368
I00
sg16
I00
sg17
Nsg18
g0
(g19
g5
Ntp1212
Rp1213
(dp1214
g23
I00
sg24
I00
sg25
I01
sg26
VDDEEF6
p1215
sg28
L2329624993L
sg29
I00
sg30
(dp1216
g87
(dp1217
g34
(lp1218
(dp1219
g87
Vhttp://t.co/GPmOGK0Cc5
p1220
sg157
(lp1221
I0
aI22
asg242
Vhttp://528marketing.com/we-can-help-distribute-your-cannabis-or-vape-products-to-c-stores/
p1222
sg244
V528marketing.com/we-can-help-di\u2026
p1223
sassg32
(dp1224
g34
(lp1225
(dp1226
g87
Vhttp://t.co/QBCbrsEVse
p1227
sg157
(lp1228
I42
aI64
asg242
Vhttp://528Marketing.com
p1229
sg244
V528Marketing.com
p1230
sasssg36
Vhttps://pbs.twimg.com/profile_images/469861227854708736/VMPEysjY_normal.jpeg
p1231
sg38
(dp1232
g40
I00
sg41
I00
sg42
I01
sg43
I00
sg44
L2329624993L
sg45
Vhttps://pbs.twimg.com/profile_background_images/469860658213699584/X9aU4wJN.jpeg
p1233
sg47
I00
sg48
V333333
p1234
sg50
g1231
sg51
g1215
sg52
g1216
sg53
I3153
sg54
VFFFFFF
p1235
sg56
V2329624993
p1236
sg58
VC0DEED
p1237
sg60
I52
sg61
I00
sg62
I-28800
sg63
I49470
sg32
VWe promote  UR #vape and products through http://t.co/QBCbrsEVse - visit our other Twitter handles @528Canna and @528Marketing - email contact@528marketing.com
p1238
sg65
I2387
sg66
VThe wolrd of vape
p1239
sg68
V0084B4
p1240
sg70
Vhttp://pbs.twimg.com/profile_images/469861227854708736/VMPEysjY_normal.jpeg
p1241
sg72
I00
sg73
I00
sg74
Vhttps://pbs.twimg.com/profile_banners/2329624993/1400858521
p1242
sg76
Vhttp://pbs.twimg.com/profile_background_images/469860658213699584/X9aU4wJN.jpeg
p1243
sg78
V528vape
p1244
sg80
Ven
p1245
sg82
I01
sg83
I444
sg84
V528vape
p1246
sg86
I00
sg87
Vhttp://t.co/GPmOGK0Cc5
p1247
sg88
VThu Feb 06 01:30:14 +0000 2014
p1248
sg90
I00
sg91
VPacific Time (US & Canada)
p1249
sg93
I00
sg94
I00
sg95
I00
ssg96
I00
sg97
g1234
sg98
I3153
sg99
g1235
sg100
g1236
sg101
I00
sg102
I52
sg103
I00
sg104
I-28800
sg105
I49470
sg106
g1238
sg107
I2387
sg108
g1239
sg109
g1240
sg110
g1241
sg111
I00
sg112
I00
sg113
g1237
sg114
g1242
sg115
g1243
sg116
g1244
sg117
g1245
sg118
I00
sg119
I01
sg120
I444
sg121
g1246
sg122
g1247
sg123
g124
(S'\x07\xde\x02\x06\x01\x1e\x0e\x00\x00\x00'
p1250
tp1251
Rp1252
sg128
g1233
sg129
g1249
sg130
I00
sg131
I00
sg132
I00
sbsg133
Nsg28
L663051522750611456L
sg134
I0
sg135
Vtwitterfeed
p1253
sg117
Ven
p1254
sg138
g1213
sg123
g124
(S'\x07\xdf\x0b\x07\x1148\x00\x00\x00'
p1255
tp1256
Rp1257
sg38
(dp1258
g143
Nsg144
I00
sg145
g1210
sg146
I00
sg147
Nsg44
L663051522750611456L
sg148
I0
sg149
V<a href="http://twitterfeed.com" rel="nofollow">twitterfeed</a>
p1259
sg151
I00
sg152
Nsg52
(dp1260
g154
(lp1261
(dp1262
g157
(lp1263
I0
aI5
asg145
VVPCO
p1264
sasg160
(lp1265
sg162
(lp1266
sg34
(lp1267
(dp1268
g87
Vhttps://t.co/IiFzZY6TYI
p1269
sg157
(lp1270
I88
aI111
asg242
Vhttp://bit.ly/1HkXhKe
p1271
sg244
Vbit.ly/1HkXhKe
p1272
sassg165
Nsg166
Nsg167
I0
sg56
V663051522750611456
p1273
sg169
I00
sg170
g1232
sg171
Nsg172
Nsg431
I00
sg80
g1254
sg88
VSat Nov 07 17:52:56 +0000 2015
p1274
sg174
Nsg175
Nsg176
(dp1275
g178
Ven
p1276
sg180
Vrecent
p1277
sssg182
g1275
sg183
Nsg184
Nsg30
g1260
sg185
Nsg186
Nsg100
g1273
sg187
I00
sg188
Nsg189
I0
sg190
Nsbag0
(g4
g5
Ntp1278
Rp1279
(dp1280
g9
I00
sg10
Nsg11
I00
sg12
VVapor Corp $VPCO Rating Has been upgraded by SADIF. https://t.co/14DaGEL7kf
p1281
sg14
Vhttp://twitter.com
p1282
sg368
I00
sg16
I00
sg17
Nsg18
g0
(g19
g5
Ntp1283
Rp1284
(dp1285
g23
I00
sg24
I00
sg25
I01
sg26
V252429
p1286
sg28
L2229740180L
sg29
I00
sg30
(dp1287
g87
(dp1288
g34
(lp1289
(dp1290
g87
Vhttp://t.co/A6d9OcztbN
p1291
sg157
(lp1292
I0
aI22
asg242
Vhttp://sadifanalytics.com/
p1293
sg244
Vsadifanalytics.com
p1294
sassg32
(dp1295
g34
(lp1296
sssg36
Vhttps://pbs.twimg.com/profile_images/656072062906343424/byfeHd57_normal.png
p1297
sg38
(dp1298
g40
I00
sg41
I00
sg42
I01
sg43
I00
sg44
L2229740180L
sg45
Vhttps://abs.twimg.com/images/themes/theme9/bg.gif
p1299
sg47
I00
sg48
V666666
p1300
sg50
g1297
sg51
g1286
sg52
g1287
sg53
I1559
sg54
V181A1E
p1301
sg56
V2229740180
p1302
sg58
V1A1B1F
p1303
sg60
I17
sg61
I00
sg62
Nsg63
I81449
sg32
VSADIF Investment Analytics is a European-based independent research firm providing unbiased and conflict-free research for institutional investors and others.
p1304
sg65
I213
sg66
VPortugal
p1305
sg68
V2FC2EF
p1306
sg70
Vhttp://pbs.twimg.com/profile_images/656072062906343424/byfeHd57_normal.png
p1307
sg72
I00
sg73
I00
sg74
Vhttps://pbs.twimg.com/profile_banners/2229740180/1445255238
p1308
sg76
Vhttp://abs.twimg.com/images/themes/theme9/bg.gif
p1309
sg78
VSADIFAnalytics
p1310
sg80
Vpt
p1311
sg82
I00
sg83
I22
sg84
VSADIF - Analytics
p1312
sg86
I00
sg87
Vhttp://t.co/A6d9OcztbN
p1313
sg88
VWed Dec 04 11:21:56 +0000 2013
p1314
sg90
I00
sg91
Nsg93
I00
sg94
I00
sg95
I00
ssg96
I00
sg97
g1300
sg98
I1559
sg99
g1301
sg100
g1302
sg101
I00
sg102
I17
sg103
I00
sg104
Nsg105
I81449
sg106
g1304
sg107
I213
sg108
g1305
sg109
g1306
sg110
g1307
sg111
I00
sg112
I00
sg113
g1303
sg114
g1308
sg115
g1309
sg116
g1310
sg117
g1311
sg118
I00
sg119
I00
sg120
I22
sg121
g1312
sg122
g1313
sg123
g124
(S'\x07\xdd\x0c\x04\x0b\x158\x00\x00\x00'
p1315
tp1316
Rp1317
sg128
g1299
sg129
Nsg130
I00
sg131
I00
sg132
I00
sbsg133
Nsg28
L663019078295142404L
sg134
I0
sg135
VTwitter Web Client
p1318
sg117
Ven
p1319
sg138
g1284
sg123
g124
(S'\x07\xdf\x0b\x07\x0f,\x01\x00\x00\x00'
p1320
tp1321
Rp1322
sg38
(dp1323
g143
Nsg144
I00
sg145
g1281
sg146
I00
sg147
Nsg44
L663019078295142404L
sg148
I0
sg149
V<a href="http://twitter.com" rel="nofollow">Twitter Web Client</a>
p1324
sg151
I00
sg152
Nsg52
(dp1325
g154
(lp1326
(dp1327
g157
(lp1328
I11
aI16
asg145
VVPCO
p1329
sasg160
(lp1330
sg162
(lp1331
sg34
(lp1332
(dp1333
g87
Vhttps://t.co/14DaGEL7kf
p1334
sg157
(lp1335
I52
aI75
asg242
Vhttp://sadifanalytics.com/report/594571
p1336
sg244
Vsadifanalytics.com/report/594571
p1337
sassg165
Nsg166
Nsg167
I0
sg56
V663019078295142404
p1338
sg169
I00
sg170
g1298
sg171
Nsg172
Nsg431
I00
sg80
g1319
sg88
VSat Nov 07 15:44:01 +0000 2015
p1339
sg174
Nsg175
Nsg176
(dp1340
g178
Ven
p1341
sg180
Vrecent
p1342
sssg182
g1340
sg183
Nsg184
Nsg30
g1325
sg185
Nsg186
Nsg100
g1338
sg187
I00
sg188
Nsg189
I0
sg190
Nsbag0
(g4
g5
Ntp1343
Rp1344
(dp1345
g9
I00
sg10
Nsg11
I00
sg12
V$VPCO vapork: Wonder how many shops they are going to: vapork https://t.co/EgVeDV1ne0
p1346
sg14
Vhttp://twitterfeed.com
p1347
sg368
I00
sg16
I00
sg17
Nsg18
g0
(g19
g5
Ntp1348
Rp1349
(dp1350
g23
I00
sg24
I00
sg25
I01
sg26
VDDEEF6
p1351
sg28
L2329624993L
sg29
I00
sg30
(dp1352
g87
(dp1353
g34
(lp1354
(dp1355
g87
Vhttp://t.co/GPmOGK0Cc5
p1356
sg157
(lp1357
I0
aI22
asg242
Vhttp://528marketing.com/we-can-help-distribute-your-cannabis-or-vape-products-to-c-stores/
p1358
sg244
V528marketing.com/we-can-help-di\u2026
p1359
sassg32
(dp1360
g34
(lp1361
(dp1362
g87
Vhttp://t.co/QBCbrsEVse
p1363
sg157
(lp1364
I42
aI64
asg242
Vhttp://528Marketing.com
p1365
sg244
V528Marketing.com
p1366
sasssg36
Vhttps://pbs.twimg.com/profile_images/469861227854708736/VMPEysjY_normal.jpeg
p1367
sg38
(dp1368
g40
I00
sg41
I00
sg42
I01
sg43
I00
sg44
L2329624993L
sg45
Vhttps://pbs.twimg.com/profile_background_images/469860658213699584/X9aU4wJN.jpeg
p1369
sg47
I00
sg48
V333333
p1370
sg50
g1367
sg51
g1351
sg52
g1352
sg53
I3153
sg54
VFFFFFF
p1371
sg56
V2329624993
p1372
sg58
VC0DEED
p1373
sg60
I52
sg61
I00
sg62
I-28800
sg63
I49470
sg32
VWe promote  UR #vape and products through http://t.co/QBCbrsEVse - visit our other Twitter handles @528Canna and @528Marketing - email contact@528marketing.com
p1374
sg65
I2387
sg66
VThe wolrd of vape
p1375
sg68
V0084B4
p1376
sg70
Vhttp://pbs.twimg.com/profile_images/469861227854708736/VMPEysjY_normal.jpeg
p1377
sg72
I00
sg73
I00
sg74
Vhttps://pbs.twimg.com/profile_banners/2329624993/1400858521
p1378
sg76
Vhttp://pbs.twimg.com/profile_background_images/469860658213699584/X9aU4wJN.jpeg
p1379
sg78
V528vape
p1380
sg80
Ven
p1381
sg82
I01
sg83
I444
sg84
V528vape
p1382
sg86
I00
sg87
Vhttp://t.co/GPmOGK0Cc5
p1383
sg88
VThu Feb 06 01:30:14 +0000 2014
p1384
sg90
I00
sg91
VPacific Time (US & Canada)
p1385
sg93
I00
sg94
I00
sg95
I00
ssg96
I00
sg97
g1370
sg98
I3153
sg99
g1371
sg100
g1372
sg101
I00
sg102
I52
sg103
I00
sg104
I-28800
sg105
I49470
sg106
g1374
sg107
I2387
sg108
g1375
sg109
g1376
sg110
g1377
sg111
I00
sg112
I00
sg113
g1373
sg114
g1378
sg115
g1379
sg116
g1380
sg117
g1381
sg118
I00
sg119
I01
sg120
I444
sg121
g1382
sg122
g1383
sg123
g124
(S'\x07\xde\x02\x06\x01\x1e\x0e\x00\x00\x00'
p1386
tp1387
Rp1388
sg128
g1369
sg129
g1385
sg130
I00
sg131
I00
sg132
I00
sbsg133
Nsg28
L663011267712430081L
sg134
I0
sg135
Vtwitterfeed
p1389
sg117
Ven
p1390
sg138
g1349
sg123
g124
(S'\x07\xdf\x0b\x07\x0f\x0c;\x00\x00\x00'
p1391
tp1392
Rp1393
sg38
(dp1394
g143
Nsg144
I00
sg145
g1346
sg146
I00
sg147
Nsg44
L663011267712430081L
sg148
I0
sg149
V<a href="http://twitterfeed.com" rel="nofollow">twitterfeed</a>
p1395
sg151
I00
sg152
Nsg52
(dp1396
g154
(lp1397
(dp1398
g157
(lp1399
I0
aI5
asg145
VVPCO
p1400
sasg160
(lp1401
sg162
(lp1402
sg34
(lp1403
(dp1404
g87
Vhttps://t.co/EgVeDV1ne0
p1405
sg157
(lp1406
I62
aI85
asg242
Vhttp://bit.ly/1Hkzz0J
p1407
sg244
Vbit.ly/1Hkzz0J
p1408
sassg165
Nsg166
Nsg167
I0
sg56
V663011267712430081
p1409
sg169
I00
sg170
g1368
sg171
Nsg172
Nsg431
I00
sg80
g1390
sg88
VSat Nov 07 15:12:59 +0000 2015
p1410
sg174
Nsg175
Nsg176
(dp1411
g178
Ven
p1412
sg180
Vrecent
p1413
sssg182
g1411
sg183
Nsg184
Nsg30
g1396
sg185
Nsg186
Nsg100
g1409
sg187
I00
sg188
Nsg189
I0
sg190
Nsbag0
(g4
g5
Ntp1414
Rp1415
(dp1416
g9
I00
sg10
Nsg11
I00
sg12
VRT @stocksIbuy: $HEMPD is it at bottom yet? Is it time for a reveres? Down almost 75% since rev split. @potstockradio @HempNews $SRNA $THCZ\u2026
p1417
sg14
Vhttp://twitter.com
p1418
sg16
I00
sg17
Nsg18
g0
(g19
g5
Ntp1419
Rp1420
(dp1421
g23
I00
sg24
I00
sg25
I01
sg26
VEFEFEF
p1422
sg28
L2281721886L
sg29
I00
sg30
(dp1423
g32
(dp1424
g34
(lp1425
sssg36
Vhttps://pbs.twimg.com/profile_images/625286474070491137/UnSj5YW__normal.jpg
p1426
sg38
(dp1427
g40
I00
sg41
I00
sg42
I01
sg43
I00
sg44
L2281721886L
sg45
Vhttps://abs.twimg.com/images/themes/theme14/bg.gif
p1428
sg47
I00
sg48
V333333
p1429
sg50
g1426
sg51
g1422
sg52
g1423
sg53
I2178
sg54
VFFFFFF
p1430
sg56
V2281721886
p1431
sg58
V131516
p1432
sg60
I38
sg61
I00
sg62
I-28800
sg63
I8586
sg32
VCapitol Hill Hemp Collective is a platform for all Hemp Related Businesses to connect and network without the middleman.
p1433
sg65
I3662
sg66
VWashington, DC
p1434
sg68
V4A913C
p1435
sg70
Vhttp://pbs.twimg.com/profile_images/625286474070491137/UnSj5YW__normal.jpg
p1436
sg72
I00
sg73
I00
sg74
Vhttps://pbs.twimg.com/profile_banners/2281721886/1437914917
p1437
sg76
Vhttp://abs.twimg.com/images/themes/theme14/bg.gif
p1438
sg78
VCapitolHillHemp
p1439
sg80
Ven
p1440
sg82
I01
sg83
I5626
sg84
VCapitol Hill Hemp
p1441
sg86
I00
sg87
Nsg88
VWed Jan 08 06:52:19 +0000 2014
p1442
sg90
I00
sg91
VPacific Time (US & Canada)
p1443
sg93
I00
sg94
I00
sg95
I00
ssg96
I00
sg97
g1429
sg98
I2178
sg99
g1430
sg100
g1431
sg101
I00
sg102
I38
sg103
I00
sg104
I-28800
sg105
I8586
sg106
g1433
sg107
I3662
sg108
g1434
sg109
g1435
sg110
g1436
sg111
I00
sg112
I00
sg113
g1432
sg114
g1437
sg115
g1438
sg116
g1439
sg117
g1440
sg118
I00
sg119
I01
sg120
I5626
sg121
g1441
sg122
Nsg123
g124
(S'\x07\xde\x01\x08\x064\x13\x00\x00\x00'
p1444
tp1445
Rp1446
sg128
g1428
sg129
g1443
sg130
I00
sg131
I00
sg132
I00
sbsg133
Nsg28
L662955710985056256L
sg134
I0
sg135
VTwitter Web Client
p1447
sg117
Ven
p1448
sg226
g0
(g4
g5
Ntp1449
Rp1450
(dp1451
g9
I00
sg10
Nsg11
I00
sg12
V$HEMPD is it at bottom yet? Is it time for a reveres? Down almost 75% since rev split. @potstockradio @HempNews $SRNA $THCZ $MJNA $VPCO - $S
p1452
sg14
Vhttp://twitter.com
p1453
sg16
I00
sg17
Nsg18
g0
(g19
g5
Ntp1454
Rp1455
(dp1456
g23
I00
sg24
I00
sg25
I01
sg26
VEFEFEF
p1457
sg28
I168640257
sg29
I00
sg30
(dp1458
g87
(dp1459
g34
(lp1460
(dp1461
g87
Vhttp://t.co/Gl28KaBILU
p1462
sg157
(lp1463
I0
aI22
asg242
Vhttp://www.stocksibuy.com
p1464
sg244
Vstocksibuy.com
p1465
sassg32
(dp1466
g34
(lp1467
sssg36
Vhttps://pbs.twimg.com/profile_images/1082854248/untitled_normal.JPG
p1468
sg38
(dp1469
g40
I00
sg41
I00
sg42
I01
sg43
I00
sg44
I168640257
sg45
Vhttps://pbs.twimg.com/profile_background_images/474889556768980992/vErRUJMp.jpeg
p1470
sg47
I00
sg48
V333333
p1471
sg50
g1468
sg51
g1457
sg52
g1458
sg53
I592
sg54
V000000
p1472
sg56
V168640257
p1473
sg58
V131516
p1474
sg60
I20
sg61
I00
sg62
I-18000
sg63
I2233
sg32
VI am not an investment broker, licensed trader or financial advisor. Invest at your own risk. Not all stocks posted I own.
p1475
sg65
I1979
sg66
g256
sg68
V009999
p1476
sg70
Vhttp://pbs.twimg.com/profile_images/1082854248/untitled_normal.JPG
p1477
sg72
I00
sg73
I01
sg74
Vhttps://pbs.twimg.com/profile_banners/168640257/1402057396
p1478
sg76
Vhttp://pbs.twimg.com/profile_background_images/474889556768980992/vErRUJMp.jpeg
p1479
sg78
VstocksIbuy
p1480
sg80
Ven
p1481
sg82
I00
sg83
I15
sg84
VStocks I Buy
p1482
sg86
I00
sg87
Vhttp://t.co/Gl28KaBILU
p1483
sg88
VTue Jul 20 12:26:23 +0000 2010
p1484
sg90
I00
sg91
VQuito
p1485
sg93
I00
sg94
I00
sg95
I00
ssg96
I00
sg97
g1471
sg98
I592
sg99
g1472
sg100
g1473
sg101
I00
sg102
I20
sg103
I00
sg104
I-18000
sg105
I2233
sg106
g1475
sg107
I1979
sg108
g256
sg109
g1476
sg110
g1477
sg111
I00
sg112
I01
sg113
g1474
sg114
g1478
sg115
g1479
sg116
g1480
sg117
g1481
sg118
I00
sg119
I00
sg120
I15
sg121
g1482
sg122
g1483
sg123
g124
(S'\x07\xda\x07\x14\x0c\x1a\x17\x00\x00\x00'
p1486
tp1487
Rp1488
sg128
g1470
sg129
g1485
sg130
I00
sg131
I00
sg132
I00
sbsg133
Nsg28
L633719353339473920L
sg134
I32
sg135
VTwitter Web Client
p1489
sg117
Ven
p1490
sg138
g1455
sg123
g124
(S'\x07\xdf\x08\x12\x13\x11\x16\x00\x00\x00'
p1491
tp1492
Rp1493
sg38
(dp1494
g143
Nsg144
I00
sg145
g1452
sg146
I00
sg147
Nsg44
L633719353339473920L
sg148
I32
sg149
V<a href="http://twitter.com" rel="nofollow">Twitter Web Client</a>
p1495
sg151
I00
sg152
Nsg52
(dp1496
g154
(lp1497
(dp1498
g157
(lp1499
I0
aI6
asg145
VHEMPD
p1500
sa(dp1501
g157
(lp1502
I112
aI117
asg145
VSRNA
p1503
sa(dp1504
g157
(lp1505
I118
aI123
asg145
VTHCZ
p1506
sa(dp1507
g157
(lp1508
I124
aI129
asg145
VMJNA
p1509
sa(dp1510
g157
(lp1511
I130
aI135
asg145
VVPCO
p1512
sa(dp1513
g157
(lp1514
I138
aI140
asg145
g296
sasg160
(lp1515
(dp1516
g44
L2596733009L
sg157
(lp1517
I87
aI101
asg56
V2596733009
p1518
sg78
Vpotstockradio
p1519
sg84
VPOT STOCK RADIO
p1520
sa(dp1521
g44
I20563800
sg157
(lp1522
I102
aI111
asg56
V20563800
p1523
sg78
VHempNews
p1524
sg84
VThe Hemp News
p1525
sasg162
(lp1526
sg34
(lp1527
ssg165
Nsg166
Nsg167
I27
sg56
V633719353339473920
p1528
sg169
I00
sg170
g1469
sg171
Nsg172
Nsg80
g1490
sg88
VTue Aug 18 19:17:22 +0000 2015
p1529
sg174
Nsg175
Nsg176
(dp1530
g178
Ven
p1531
sg180
Vrecent
p1532
sssg182
g1530
sg183
Nsg184
Nsg30
g1496
sg185
Nsg186
Nsg100
g1528
sg187
I00
sg188
Nsg189
I27
sg190
Nsbsg138
g1420
sg123
g124
(S'\x07\xdf\x0b\x07\x0b \r\x00\x00\x00'
p1533
tp1534
Rp1535
sg38
(dp1536
g143
Nsg144
I00
sg145
g1417
sg146
I00
sg147
Nsg44
L662955710985056256L
sg148
I0
sg149
V<a href="http://twitter.com" rel="nofollow">Twitter Web Client</a>
p1537
sg151
I00
sg152
Nsg52
(dp1538
g154
(lp1539
(dp1540
g157
(lp1541
I16
aI22
asg145
VHEMPD
p1542
sa(dp1543
g157
(lp1544
I128
aI133
asg145
VSRNA
p1545
sa(dp1546
g157
(lp1547
I139
aI140
asg145
VTHCZ
p1548
sa(dp1549
g157
(lp1550
I139
aI140
asg145
VMJNA
p1551
sa(dp1552
g157
(lp1553
I139
aI140
asg145
VVPCO
p1554
sa(dp1555
g157
(lp1556
I139
aI140
asg145
g296
sasg160
(lp1557
(dp1558
g44
I168640257
sg157
(lp1559
I3
aI14
asg56
V168640257
p1560
sg78
VstocksIbuy
p1561
sg84
VStocks I Buy
p1562
sa(dp1563
g44
L2596733009L
sg157
(lp1564
I103
aI117
asg56
V2596733009
p1565
sg78
Vpotstockradio
p1566
sg84
VPOT STOCK RADIO
p1567
sa(dp1568
g44
I20563800
sg157
(lp1569
I118
aI127
asg56
V20563800
p1570
sg78
VHempNews
p1571
sg84
VThe Hemp News
p1572
sasg162
(lp1573
sg34
(lp1574
ssg165
Nsg166
Nsg167
I27
sg56
V662955710985056256
p1575
sg169
I00
sg358
g1494
sg170
g1427
sg171
Nsg172
Nsg80
g1448
sg88
VSat Nov 07 11:32:13 +0000 2015
p1576
sg174
Nsg175
Nsg176
(dp1577
g178
Ven
p1578
sg180
Vrecent
p1579
sssg182
g1577
sg183
Nsg184
Nsg30
g1538
sg185
Nsg186
Nsg100
g1575
sg187
I00
sg188
Nsg189
I27
sg190
Nsbag0
(g4
g5
Ntp1580
Rp1581
(dp1582
g9
I00
sg10
Nsg11
I00
sg12
V$VPCO Stockslayr: Who said I'm not shorting it?: Stockslayr https://t.co/pr69sz0skW
p1583
sg14
Vhttp://twitterfeed.com
p1584
sg368
I00
sg16
I00
sg17
Nsg18
g0
(g19
g5
Ntp1585
Rp1586
(dp1587
g23
I00
sg24
I00
sg25
I01
sg26
VDDEEF6
p1588
sg28
L2329624993L
sg29
I00
sg30
(dp1589
g87
(dp1590
g34
(lp1591
(dp1592
g87
Vhttp://t.co/GPmOGK0Cc5
p1593
sg157
(lp1594
I0
aI22
asg242
Vhttp://528marketing.com/we-can-help-distribute-your-cannabis-or-vape-products-to-c-stores/
p1595
sg244
V528marketing.com/we-can-help-di\u2026
p1596
sassg32
(dp1597
g34
(lp1598
(dp1599
g87
Vhttp://t.co/QBCbrsEVse
p1600
sg157
(lp1601
I42
aI64
asg242
Vhttp://528Marketing.com
p1602
sg244
V528Marketing.com
p1603
sasssg36
Vhttps://pbs.twimg.com/profile_images/469861227854708736/VMPEysjY_normal.jpeg
p1604
sg38
(dp1605
g40
I00
sg41
I00
sg42
I01
sg43
I00
sg44
L2329624993L
sg45
Vhttps://pbs.twimg.com/profile_background_images/469860658213699584/X9aU4wJN.jpeg
p1606
sg47
I00
sg48
V333333
p1607
sg50
g1604
sg51
g1588
sg52
g1589
sg53
I3153
sg54
VFFFFFF
p1608
sg56
V2329624993
p1609
sg58
VC0DEED
p1610
sg60
I52
sg61
I00
sg62
I-28800
sg63
I49470
sg32
VWe promote  UR #vape and products through http://t.co/QBCbrsEVse - visit our other Twitter handles @528Canna and @528Marketing - email contact@528marketing.com
p1611
sg65
I2387
sg66
VThe wolrd of vape
p1612
sg68
V0084B4
p1613
sg70
Vhttp://pbs.twimg.com/profile_images/469861227854708736/VMPEysjY_normal.jpeg
p1614
sg72
I00
sg73
I00
sg74
Vhttps://pbs.twimg.com/profile_banners/2329624993/1400858521
p1615
sg76
Vhttp://pbs.twimg.com/profile_background_images/469860658213699584/X9aU4wJN.jpeg
p1616
sg78
V528vape
p1617
sg80
Ven
p1618
sg82
I01
sg83
I444
sg84
V528vape
p1619
sg86
I00
sg87
Vhttp://t.co/GPmOGK0Cc5
p1620
sg88
VThu Feb 06 01:30:14 +0000 2014
p1621
sg90
I00
sg91
VPacific Time (US & Canada)
p1622
sg93
I00
sg94
I00
sg95
I00
ssg96
I00
sg97
g1607
sg98
I3153
sg99
g1608
sg100
g1609
sg101
I00
sg102
I52
sg103
I00
sg104
I-28800
sg105
I49470
sg106
g1611
sg107
I2387
sg108
g1612
sg109
g1613
sg110
g1614
sg111
I00
sg112
I00
sg113
g1610
sg114
g1615
sg115
g1616
sg116
g1617
sg117
g1618
sg118
I00
sg119
I01
sg120
I444
sg121
g1619
sg122
g1620
sg123
g124
(S'\x07\xde\x02\x06\x01\x1e\x0e\x00\x00\x00'
p1623
tp1624
Rp1625
sg128
g1606
sg129
g1622
sg130
I00
sg131
I00
sg132
I00
sbsg133
Nsg28
L662786376933355520L
sg134
I0
sg135
Vtwitterfeed
p1626
sg117
Ven
p1627
sg138
g1586
sg123
g124
(S'\x07\xdf\x0b\x07\x00\x13\x14\x00\x00\x00'
p1628
tp1629
Rp1630
sg38
(dp1631
g143
Nsg144
I00
sg145
g1583
sg146
I00
sg147
Nsg44
L662786376933355520L
sg148
I0
sg149
V<a href="http://twitterfeed.com" rel="nofollow">twitterfeed</a>
p1632
sg151
I00
sg152
Nsg52
(dp1633
g154
(lp1634
(dp1635
g157
(lp1636
I0
aI5
asg145
VVPCO
p1637
sasg160
(lp1638
sg162
(lp1639
sg34
(lp1640
(dp1641
g87
Vhttps://t.co/pr69sz0skW
p1642
sg157
(lp1643
I60
aI83
asg242
Vhttp://bit.ly/1S4NHeY
p1644
sg244
Vbit.ly/1S4NHeY
p1645
sassg165
Nsg166
Nsg167
I0
sg56
V662786376933355520
p1646
sg169
I00
sg170
g1605
sg171
Nsg172
Nsg431
I00
sg80
g1627
sg88
VSat Nov 07 00:19:20 +0000 2015
p1647
sg174
Nsg175
Nsg176
(dp1648
g178
Ven
p1649
sg180
Vrecent
p1650
sssg182
g1648
sg183
Nsg184
Nsg30
g1633
sg185
Nsg186
Nsg100
g1646
sg187
I00
sg188
Nsg189
I0
sg190
Nsbag0
(g4
g5
Ntp1651
Rp1652
(dp1653
g9
I00
sg10
Nsg11
I00
sg12
V$VPCO BerryH: Considering this stock has dropped over 90% in: BerryH https://t.co/6hVeN8Qynw
p1654
sg14
Vhttp://twitterfeed.com
p1655
sg368
I00
sg16
I00
sg17
Nsg18
g0
(g19
g5
Ntp1656
Rp1657
(dp1658
g23
I00
sg24
I00
sg25
I01
sg26
VDDEEF6
p1659
sg28
L2329624993L
sg29
I00
sg30
(dp1660
g87
(dp1661
g34
(lp1662
(dp1663
g87
Vhttp://t.co/GPmOGK0Cc5
p1664
sg157
(lp1665
I0
aI22
asg242
Vhttp://528marketing.com/we-can-help-distribute-your-cannabis-or-vape-products-to-c-stores/
p1666
sg244
V528marketing.com/we-can-help-di\u2026
p1667
sassg32
(dp1668
g34
(lp1669
(dp1670
g87
Vhttp://t.co/QBCbrsEVse
p1671
sg157
(lp1672
I42
aI64
asg242
Vhttp://528Marketing.com
p1673
sg244
V528Marketing.com
p1674
sasssg36
Vhttps://pbs.twimg.com/profile_images/469861227854708736/VMPEysjY_normal.jpeg
p1675
sg38
(dp1676
g40
I00
sg41
I00
sg42
I01
sg43
I00
sg44
L2329624993L
sg45
Vhttps://pbs.twimg.com/profile_background_images/469860658213699584/X9aU4wJN.jpeg
p1677
sg47
I00
sg48
V333333
p1678
sg50
g1675
sg51
g1659
sg52
g1660
sg53
I3153
sg54
VFFFFFF
p1679
sg56
V2329624993
p1680
sg58
VC0DEED
p1681
sg60
I52
sg61
I00
sg62
I-28800
sg63
I49470
sg32
VWe promote  UR #vape and products through http://t.co/QBCbrsEVse - visit our other Twitter handles @528Canna and @528Marketing - email contact@528marketing.com
p1682
sg65
I2387
sg66
VThe wolrd of vape
p1683
sg68
V0084B4
p1684
sg70
Vhttp://pbs.twimg.com/profile_images/469861227854708736/VMPEysjY_normal.jpeg
p1685
sg72
I00
sg73
I00
sg74
Vhttps://pbs.twimg.com/profile_banners/2329624993/1400858521
p1686
sg76
Vhttp://pbs.twimg.com/profile_background_images/469860658213699584/X9aU4wJN.jpeg
p1687
sg78
V528vape
p1688
sg80
Ven
p1689
sg82
I01
sg83
I444
sg84
V528vape
p1690
sg86
I00
sg87
Vhttp://t.co/GPmOGK0Cc5
p1691
sg88
VThu Feb 06 01:30:14 +0000 2014
p1692
sg90
I00
sg91
VPacific Time (US & Canada)
p1693
sg93
I00
sg94
I00
sg95
I00
ssg96
I00
sg97
g1678
sg98
I3153
sg99
g1679
sg100
g1680
sg101
I00
sg102
I52
sg103
I00
sg104
I-28800
sg105
I49470
sg106
g1682
sg107
I2387
sg108
g1683
sg109
g1684
sg110
g1685
sg111
I00
sg112
I00
sg113
g1681
sg114
g1686
sg115
g1687
sg116
g1688
sg117
g1689
sg118
I00
sg119
I01
sg120
I444
sg121
g1690
sg122
g1691
sg123
g124
(S'\x07\xde\x02\x06\x01\x1e\x0e\x00\x00\x00'
p1694
tp1695
Rp1696
sg128
g1677
sg129
g1693
sg130
I00
sg131
I00
sg132
I00
sbsg133
Nsg28
L662766709430812673L
sg134
I0
sg135
Vtwitterfeed
p1697
sg117
Ven
p1698
sg138
g1657
sg123
g124
(S'\x07\xdf\x0b\x06\x17\x01\x0b\x00\x00\x00'
p1699
tp1700
Rp1701
sg38
(dp1702
g143
Nsg144
I00
sg145
g1654
sg146
I00
sg147
Nsg44
L662766709430812673L
sg148
I0
sg149
V<a href="http://twitterfeed.com" rel="nofollow">twitterfeed</a>
p1703
sg151
I00
sg152
Nsg52
(dp1704
g154
(lp1705
(dp1706
g157
(lp1707
I0
aI5
asg145
VVPCO
p1708
sasg160
(lp1709
sg162
(lp1710
sg34
(lp1711
(dp1712
g87
Vhttps://t.co/6hVeN8Qynw
p1713
sg157
(lp1714
I69
aI92
asg242
Vhttp://bit.ly/1S4BAym
p1715
sg244
Vbit.ly/1S4BAym
p1716
sassg165
Nsg166
Nsg167
I0
sg56
V662766709430812673
p1717
sg169
I00
sg170
g1676
sg171
Nsg172
Nsg431
I00
sg80
g1698
sg88
VFri Nov 06 23:01:11 +0000 2015
p1718
sg174
Nsg175
Nsg176
(dp1719
g178
Ven
p1720
sg180
Vrecent
p1721
sssg182
g1719
sg183
Nsg184
Nsg30
g1704
sg185
Nsg186
Nsg100
g1717
sg187
I00
sg188
Nsg189
I0
sg190
Nsbag0
(g4
g5
Ntp1722
Rp1723
(dp1724
g9
I00
sg10
Nsg11
I00
sg12
V$VPCO Stockslayr: I didn't think $0.5 was unreasonable based on: Stockslayr https://t.co/d0EL6NrmuE
p1725
sg14
Vhttp://twitterfeed.com
p1726
sg368
I00
sg16
I00
sg17
Nsg18
g0
(g19
g5
Ntp1727
Rp1728
(dp1729
g23
I00
sg24
I00
sg25
I01
sg26
VDDEEF6
p1730
sg28
L2329624993L
sg29
I00
sg30
(dp1731
g87
(dp1732
g34
(lp1733
(dp1734
g87
Vhttp://t.co/GPmOGK0Cc5
p1735
sg157
(lp1736
I0
aI22
asg242
Vhttp://528marketing.com/we-can-help-distribute-your-cannabis-or-vape-products-to-c-stores/
p1737
sg244
V528marketing.com/we-can-help-di\u2026
p1738
sassg32
(dp1739
g34
(lp1740
(dp1741
g87
Vhttp://t.co/QBCbrsEVse
p1742
sg157
(lp1743
I42
aI64
asg242
Vhttp://528Marketing.com
p1744
sg244
V528Marketing.com
p1745
sasssg36
Vhttps://pbs.twimg.com/profile_images/469861227854708736/VMPEysjY_normal.jpeg
p1746
sg38
(dp1747
g40
I00
sg41
I00
sg42
I01
sg43
I00
sg44
L2329624993L
sg45
Vhttps://pbs.twimg.com/profile_background_images/469860658213699584/X9aU4wJN.jpeg
p1748
sg47
I00
sg48
V333333
p1749
sg50
g1746
sg51
g1730
sg52
g1731
sg53
I3153
sg54
VFFFFFF
p1750
sg56
V2329624993
p1751
sg58
VC0DEED
p1752
sg60
I52
sg61
I00
sg62
I-28800
sg63
I49470
sg32
VWe promote  UR #vape and products through http://t.co/QBCbrsEVse - visit our other Twitter handles @528Canna and @528Marketing - email contact@528marketing.com
p1753
sg65
I2387
sg66
VThe wolrd of vape
p1754
sg68
V0084B4
p1755
sg70
Vhttp://pbs.twimg.com/profile_images/469861227854708736/VMPEysjY_normal.jpeg
p1756
sg72
I00
sg73
I00
sg74
Vhttps://pbs.twimg.com/profile_banners/2329624993/1400858521
p1757
sg76
Vhttp://pbs.twimg.com/profile_background_images/469860658213699584/X9aU4wJN.jpeg
p1758
sg78
V528vape
p1759
sg80
Ven
p1760
sg82
I01
sg83
I444
sg84
V528vape
p1761
sg86
I00
sg87
Vhttp://t.co/GPmOGK0Cc5
p1762
sg88
VThu Feb 06 01:30:14 +0000 2014
p1763
sg90
I00
sg91
VPacific Time (US & Canada)
p1764
sg93
I00
sg94
I00
sg95
I00
ssg96
I00
sg97
g1749
sg98
I3153
sg99
g1750
sg100
g1751
sg101
I00
sg102
I52
sg103
I00
sg104
I-28800
sg105
I49470
sg106
g1753
sg107
I2387
sg108
g1754
sg109
g1755
sg110
g1756
sg111
I00
sg112
I00
sg113
g1752
sg114
g1757
sg115
g1758
sg116
g1759
sg117
g1760
sg118
I00
sg119
I01
sg120
I444
sg121
g1761
sg122
g1762
sg123
g124
(S'\x07\xde\x02\x06\x01\x1e\x0e\x00\x00\x00'
p1765
tp1766
Rp1767
sg128
g1748
sg129
g1764
sg130
I00
sg131
I00
sg132
I00
sbsg133
Nsg28
L662725138241064960L
sg134
I0
sg135
Vtwitterfeed
p1768
sg117
Ven
p1769
sg138
g1728
sg123
g124
(S'\x07\xdf\x0b\x06\x14\x10\x00\x00\x00\x00'
p1770
tp1771
Rp1772
sg38
(dp1773
g143
Nsg144
I00
sg145
g1725
sg146
I00
sg147
Nsg44
L662725138241064960L
sg148
I0
sg149
V<a href="http://twitterfeed.com" rel="nofollow">twitterfeed</a>
p1774
sg151
I00
sg152
Nsg52
(dp1775
g154
(lp1776
(dp1777
g157
(lp1778
I0
aI5
asg145
VVPCO
p1779
sasg160
(lp1780
sg162
(lp1781
sg34
(lp1782
(dp1783
g87
Vhttps://t.co/d0EL6NrmuE
p1784
sg157
(lp1785
I76
aI99
asg242
Vhttp://bit.ly/1HhOfO6
p1786
sg244
Vbit.ly/1HhOfO6
p1787
sassg165
Nsg166
Nsg167
I0
sg56
V662725138241064960
p1788
sg169
I00
sg170
g1747
sg171
Nsg172
Nsg431
I00
sg80
g1769
sg88
VFri Nov 06 20:16:00 +0000 2015
p1789
sg174
Nsg175
Nsg176
(dp1790
g178
Ven
p1791
sg180
Vrecent
p1792
sssg182
g1790
sg183
Nsg184
Nsg30
g1775
sg185
Nsg186
Nsg100
g1788
sg187
I00
sg188
Nsg189
I0
sg190
Nsbag0
(g4
g5
Ntp1793
Rp1794
(dp1795
g9
I00
sg10
Nsg11
I00
sg12
V$VPCO Ultimaratioregum: What r people's thoughts on another r/s here??: Ultimaratioregum https://t.co/vO1KwAKEGn
p1796
sg14
Vhttp://twitterfeed.com
p1797
sg368
I00
sg16
I00
sg17
Nsg18
g0
(g19
g5
Ntp1798
Rp1799
(dp1800
g23
I00
sg24
I00
sg25
I01
sg26
VDDEEF6
p1801
sg28
L2329624993L
sg29
I00
sg30
(dp1802
g87
(dp1803
g34
(lp1804
(dp1805
g87
Vhttp://t.co/GPmOGK0Cc5
p1806
sg157
(lp1807
I0
aI22
asg242
Vhttp://528marketing.com/we-can-help-distribute-your-cannabis-or-vape-products-to-c-stores/
p1808
sg244
V528marketing.com/we-can-help-di\u2026
p1809
sassg32
(dp1810
g34
(lp1811
(dp1812
g87
Vhttp://t.co/QBCbrsEVse
p1813
sg157
(lp1814
I42
aI64
asg242
Vhttp://528Marketing.com
p1815
sg244
V528Marketing.com
p1816
sasssg36
Vhttps://pbs.twimg.com/profile_images/469861227854708736/VMPEysjY_normal.jpeg
p1817
sg38
(dp1818
g40
I00
sg41
I00
sg42
I01
sg43
I00
sg44
L2329624993L
sg45
Vhttps://pbs.twimg.com/profile_background_images/469860658213699584/X9aU4wJN.jpeg
p1819
sg47
I00
sg48
V333333
p1820
sg50
g1817
sg51
g1801
sg52
g1802
sg53
I3153
sg54
VFFFFFF
p1821
sg56
V2329624993
p1822
sg58
VC0DEED
p1823
sg60
I52
sg61
I00
sg62
I-28800
sg63
I49470
sg32
VWe promote  UR #vape and products through http://t.co/QBCbrsEVse - visit our other Twitter handles @528Canna and @528Marketing - email contact@528marketing.com
p1824
sg65
I2387
sg66
VThe wolrd of vape
p1825
sg68
V0084B4
p1826
sg70
Vhttp://pbs.twimg.com/profile_images/469861227854708736/VMPEysjY_normal.jpeg
p1827
sg72
I00
sg73
I00
sg74
Vhttps://pbs.twimg.com/profile_banners/2329624993/1400858521
p1828
sg76
Vhttp://pbs.twimg.com/profile_background_images/469860658213699584/X9aU4wJN.jpeg
p1829
sg78
V528vape
p1830
sg80
Ven
p1831
sg82
I01
sg83
I444
sg84
V528vape
p1832
sg86
I00
sg87
Vhttp://t.co/GPmOGK0Cc5
p1833
sg88
VThu Feb 06 01:30:14 +0000 2014
p1834
sg90
I00
sg91
VPacific Time (US & Canada)
p1835
sg93
I00
sg94
I00
sg95
I00
ssg96
I00
sg97
g1820
sg98
I3153
sg99
g1821
sg100
g1822
sg101
I00
sg102
I52
sg103
I00
sg104
I-28800
sg105
I49470
sg106
g1824
sg107
I2387
sg108
g1825
sg109
g1826
sg110
g1827
sg111
I00
sg112
I00
sg113
g1823
sg114
g1828
sg115
g1829
sg116
g1830
sg117
g1831
sg118
I00
sg119
I01
sg120
I444
sg121
g1832
sg122
g1833
sg123
g124
(S'\x07\xde\x02\x06\x01\x1e\x0e\x00\x00\x00'
p1836
tp1837
Rp1838
sg128
g1819
sg129
g1835
sg130
I00
sg131
I00
sg132
I00
sbsg133
Nsg28
L662703460979118081L
sg134
I0
sg135
Vtwitterfeed
p1839
sg117
Ven
p1840
sg138
g1799
sg123
g124
(S'\x07\xdf\x0b\x06\x1214\x00\x00\x00'
p1841
tp1842
Rp1843
sg38
(dp1844
g143
Nsg144
I00
sg145
g1796
sg146
I00
sg147
Nsg44
L662703460979118081L
sg148
I0
sg149
V<a href="http://twitterfeed.com" rel="nofollow">twitterfeed</a>
p1845
sg151
I00
sg152
Nsg52
(dp1846
g154
(lp1847
(dp1848
g157
(lp1849
I0
aI5
asg145
VVPCO
p1850
sasg160
(lp1851
sg162
(lp1852
sg34
(lp1853
(dp1854
g87
Vhttps://t.co/vO1KwAKEGn
p1855
sg157
(lp1856
I89
aI112
asg242
Vhttp://bit.ly/1NxwETG
p1857
sg244
Vbit.ly/1NxwETG
p1858
sassg165
Nsg166
Nsg167
I0
sg56
V662703460979118081
p1859
sg169
I00
sg170
g1818
sg171
Nsg172
Nsg431
I00
sg80
g1840
sg88
VFri Nov 06 18:49:52 +0000 2015
p1860
sg174
Nsg175
Nsg176
(dp1861
g178
Ven
p1862
sg180
Vrecent
p1863
sssg182
g1861
sg183
Nsg184
Nsg30
g1846
sg185
Nsg186
Nsg100
g1859
sg187
I00
sg188
Nsg189
I0
sg190
Nsbag0
(g4
g5
Ntp1864
Rp1865
(dp1866
g9
I00
sg10
Nsg11
I00
sg12
V$VPCO BerryH: What happened to .50 by Friday? This sucker: BerryH https://t.co/N8eKgajscI
p1867
sg14
Vhttp://twitterfeed.com
p1868
sg368
I00
sg16
I00
sg17
Nsg18
g0
(g19
g5
Ntp1869
Rp1870
(dp1871
g23
I00
sg24
I00
sg25
I01
sg26
VDDEEF6
p1872
sg28
L2329624993L
sg29
I00
sg30
(dp1873
g87
(dp1874
g34
(lp1875
(dp1876
g87
Vhttp://t.co/GPmOGK0Cc5
p1877
sg157
(lp1878
I0
aI22
asg242
Vhttp://528marketing.com/we-can-help-distribute-your-cannabis-or-vape-products-to-c-stores/
p1879
sg244
V528marketing.com/we-can-help-di\u2026
p1880
sassg32
(dp1881
g34
(lp1882
(dp1883
g87
Vhttp://t.co/QBCbrsEVse
p1884
sg157
(lp1885
I42
aI64
asg242
Vhttp://528Marketing.com
p1886
sg244
V528Marketing.com
p1887
sasssg36
Vhttps://pbs.twimg.com/profile_images/469861227854708736/VMPEysjY_normal.jpeg
p1888
sg38
(dp1889
g40
I00
sg41
I00
sg42
I01
sg43
I00
sg44
L2329624993L
sg45
Vhttps://pbs.twimg.com/profile_background_images/469860658213699584/X9aU4wJN.jpeg
p1890
sg47
I00
sg48
V333333
p1891
sg50
g1888
sg51
g1872
sg52
g1873
sg53
I3153
sg54
VFFFFFF
p1892
sg56
V2329624993
p1893
sg58
VC0DEED
p1894
sg60
I52
sg61
I00
sg62
I-28800
sg63
I49470
sg32
VWe promote  UR #vape and products through http://t.co/QBCbrsEVse - visit our other Twitter handles @528Canna and @528Marketing - email contact@528marketing.com
p1895
sg65
I2387
sg66
VThe wolrd of vape
p1896
sg68
V0084B4
p1897
sg70
Vhttp://pbs.twimg.com/profile_images/469861227854708736/VMPEysjY_normal.jpeg
p1898
sg72
I00
sg73
I00
sg74
Vhttps://pbs.twimg.com/profile_banners/2329624993/1400858521
p1899
sg76
Vhttp://pbs.twimg.com/profile_background_images/469860658213699584/X9aU4wJN.jpeg
p1900
sg78
V528vape
p1901
sg80
Ven
p1902
sg82
I01
sg83
I444
sg84
V528vape
p1903
sg86
I00
sg87
Vhttp://t.co/GPmOGK0Cc5
p1904
sg88
VThu Feb 06 01:30:14 +0000 2014
p1905
sg90
I00
sg91
VPacific Time (US & Canada)
p1906
sg93
I00
sg94
I00
sg95
I00
ssg96
I00
sg97
g1891
sg98
I3153
sg99
g1892
sg100
g1893
sg101
I00
sg102
I52
sg103
I00
sg104
I-28800
sg105
I49470
sg106
g1895
sg107
I2387
sg108
g1896
sg109
g1897
sg110
g1898
sg111
I00
sg112
I00
sg113
g1894
sg114
g1899
sg115
g1900
sg116
g1901
sg117
g1902
sg118
I00
sg119
I01
sg120
I444
sg121
g1903
sg122
g1904
sg123
g124
(S'\x07\xde\x02\x06\x01\x1e\x0e\x00\x00\x00'
p1907
tp1908
Rp1909
sg128
g1890
sg129
g1906
sg130
I00
sg131
I00
sg132
I00
sbsg133
Nsg28
L662658500204474371L
sg134
I0
sg135
Vtwitterfeed
p1910
sg117
Ven
p1911
sg138
g1870
sg123
g124
(S'\x07\xdf\x0b\x06\x0f3\x0c\x00\x00\x00'
p1912
tp1913
Rp1914
sg38
(dp1915
g143
Nsg144
I00
sg145
g1867
sg146
I00
sg147
Nsg44
L662658500204474371L
sg148
I0
sg149
V<a href="http://twitterfeed.com" rel="nofollow">twitterfeed</a>
p1916
sg151
I00
sg152
Nsg52
(dp1917
g154
(lp1918
(dp1919
g157
(lp1920
I0
aI5
asg145
VVPCO
p1921
sasg160
(lp1922
sg162
(lp1923
sg34
(lp1924
(dp1925
g87
Vhttps://t.co/N8eKgajscI
p1926
sg157
(lp1927
I66
aI89
asg242
Vhttp://bit.ly/1S2XRga
p1928
sg244
Vbit.ly/1S2XRga
p1929
sassg165
Nsg166
Nsg167
I0
sg56
V662658500204474371
p1930
sg169
I00
sg170
g1889
sg171
Nsg172
Nsg431
I00
sg80
g1911
sg88
VFri Nov 06 15:51:12 +0000 2015
p1931
sg174
Nsg175
Nsg176
(dp1932
g178
Ven
p1933
sg180
Vrecent
p1934
sssg182
g1932
sg183
Nsg184
Nsg30
g1917
sg185
Nsg186
Nsg100
g1930
sg187
I00
sg188
Nsg189
I0
sg190
Nsbag0
(g4
g5
Ntp1935
Rp1936
(dp1937
g9
I00
sg10
Nsg11
I00
sg12
VRT @stocksIbuy: $HEMPD is it at bottom yet? Is it time for a reveres? Down almost 75% since rev split. @potstockradio @HempNews $SRNA $THCZ\u2026
p1938
sg14
Vhttp://twitter.com
p1939
sg16
I00
sg17
Nsg18
g0
(g19
g5
Ntp1940
Rp1941
(dp1942
g23
I00
sg24
I00
sg25
I01
sg26
VFFF7CC
p1943
sg28
L2281668660L
sg29
I00
sg30
(dp1944
g32
(dp1945
g34
(lp1946
sssg36
Vhttps://pbs.twimg.com/profile_images/625251294094032896/UXzdf3Qb_normal.jpg
p1947
sg38
(dp1948
g40
I00
sg41
I00
sg42
I01
sg43
I00
sg44
L2281668660L
sg45
Vhttps://abs.twimg.com/images/themes/theme12/bg.gif
p1949
sg47
I00
sg48
V0C3E53
p1950
sg50
g1947
sg51
g1943
sg52
g1944
sg53
I2405
sg54
VFFFFFF
p1951
sg56
V2281668660
p1952
sg58
VBADFCD
p1953
sg60
I43
sg61
I00
sg62
I-28800
sg63
I8894
sg32
VIdaho Hemp Collective is a platform for all Hemp Related Businesses to connect and network without the middleman.
p1954
sg65
I3928
sg66
VIdaho, USA
p1955
sg68
V4A913C
p1956
sg70
Vhttp://pbs.twimg.com/profile_images/625251294094032896/UXzdf3Qb_normal.jpg
p1957
sg72
I00
sg73
I00
sg74
Vhttps://pbs.twimg.com/profile_banners/2281668660/1437906506
p1958
sg76
Vhttp://abs.twimg.com/images/themes/theme12/bg.gif
p1959
sg78
VIdaho_Hemp
p1960
sg80
Ven
p1961
sg82
I00
sg83
I3239
sg84
VIdaho Hemp
p1962
sg86
I00
sg87
Nsg88
VWed Jan 08 06:06:25 +0000 2014
p1963
sg90
I00
sg91
VPacific Time (US & Canada)
p1964
sg93
I00
sg94
I00
sg95
I00
ssg96
I00
sg97
g1950
sg98
I2405
sg99
g1951
sg100
g1952
sg101
I00
sg102
I43
sg103
I00
sg104
I-28800
sg105
I8894
sg106
g1954
sg107
I3928
sg108
g1955
sg109
g1956
sg110
g1957
sg111
I00
sg112
I00
sg113
g1953
sg114
g1958
sg115
g1959
sg116
g1960
sg117
g1961
sg118
I00
sg119
I00
sg120
I3239
sg121
g1962
sg122
Nsg123
g124
(S'\x07\xde\x01\x08\x06\x06\x19\x00\x00\x00'
p1965
tp1966
Rp1967
sg128
g1949
sg129
g1964
sg130
I00
sg131
I00
sg132
I00
sbsg133
Nsg28
L662642584750133248L
sg134
I0
sg135
VTwitter Web Client
p1968
sg117
Ven
p1969
sg226
g0
(g4
g5
Ntp1970
Rp1971
(dp1972
g9
I00
sg10
Nsg11
I00
sg12
V$HEMPD is it at bottom yet? Is it time for a reveres? Down almost 75% since rev split. @potstockradio @HempNews $SRNA $THCZ $MJNA $VPCO - $S
p1973
sg14
Vhttp://twitter.com
p1974
sg16
I00
sg17
Nsg18
g0
(g19
g5
Ntp1975
Rp1976
(dp1977
g23
I00
sg24
I00
sg25
I01
sg26
VEFEFEF
p1978
sg28
I168640257
sg29
I00
sg30
(dp1979
g87
(dp1980
g34
(lp1981
(dp1982
g87
Vhttp://t.co/Gl28KaBILU
p1983
sg157
(lp1984
I0
aI22
asg242
Vhttp://www.stocksibuy.com
p1985
sg244
Vstocksibuy.com
p1986
sassg32
(dp1987
g34
(lp1988
sssg36
Vhttps://pbs.twimg.com/profile_images/1082854248/untitled_normal.JPG
p1989
sg38
(dp1990
g40
I00
sg41
I00
sg42
I01
sg43
I00
sg44
I168640257
sg45
Vhttps://pbs.twimg.com/profile_background_images/474889556768980992/vErRUJMp.jpeg
p1991
sg47
I00
sg48
V333333
p1992
sg50
g1989
sg51
g1978
sg52
g1979
sg53
I592
sg54
V000000
p1993
sg56
V168640257
p1994
sg58
V131516
p1995
sg60
I20
sg61
I00
sg62
I-18000
sg63
I2233
sg32
VI am not an investment broker, licensed trader or financial advisor. Invest at your own risk. Not all stocks posted I own.
p1996
sg65
I1979
sg66
g256
sg68
V009999
p1997
sg70
Vhttp://pbs.twimg.com/profile_images/1082854248/untitled_normal.JPG
p1998
sg72
I00
sg73
I01
sg74
Vhttps://pbs.twimg.com/profile_banners/168640257/1402057396
p1999
sg76
Vhttp://pbs.twimg.com/profile_background_images/474889556768980992/vErRUJMp.jpeg
p2000
sg78
VstocksIbuy
p2001
sg80
Ven
p2002
sg82
I00
sg83
I15
sg84
VStocks I Buy
p2003
sg86
I00
sg87
Vhttp://t.co/Gl28KaBILU
p2004
sg88
VTue Jul 20 12:26:23 +0000 2010
p2005
sg90
I00
sg91
VQuito
p2006
sg93
I00
sg94
I00
sg95
I00
ssg96
I00
sg97
g1992
sg98
I592
sg99
g1993
sg100
g1994
sg101
I00
sg102
I20
sg103
I00
sg104
I-18000
sg105
I2233
sg106
g1996
sg107
I1979
sg108
g256
sg109
g1997
sg110
g1998
sg111
I00
sg112
I01
sg113
g1995
sg114
g1999
sg115
g2000
sg116
g2001
sg117
g2002
sg118
I00
sg119
I00
sg120
I15
sg121
g2003
sg122
g2004
sg123
g124
(S'\x07\xda\x07\x14\x0c\x1a\x17\x00\x00\x00'
p2007
tp2008
Rp2009
sg128
g1991
sg129
g2006
sg130
I00
sg131
I00
sg132
I00
sbsg133
Nsg28
L633719353339473920L
sg134
I32
sg135
VTwitter Web Client
p2010
sg117
Ven
p2011
sg138
g1976
sg123
g124
(S'\x07\xdf\x08\x12\x13\x11\x16\x00\x00\x00'
p2012
tp2013
Rp2014
sg38
(dp2015
g143
Nsg144
I00
sg145
g1973
sg146
I00
sg147
Nsg44
L633719353339473920L
sg148
I32
sg149
V<a href="http://twitter.com" rel="nofollow">Twitter Web Client</a>
p2016
sg151
I00
sg152
Nsg52
(dp2017
g154
(lp2018
(dp2019
g157
(lp2020
I0
aI6
asg145
VHEMPD
p2021
sa(dp2022
g157
(lp2023
I112
aI117
asg145
VSRNA
p2024
sa(dp2025
g157
(lp2026
I118
aI123
asg145
VTHCZ
p2027
sa(dp2028
g157
(lp2029
I124
aI129
asg145
VMJNA
p2030
sa(dp2031
g157
(lp2032
I130
aI135
asg145
VVPCO
p2033
sa(dp2034
g157
(lp2035
I138
aI140
asg145
g296
sasg160
(lp2036
(dp2037
g44
L2596733009L
sg157
(lp2038
I87
aI101
asg56
V2596733009
p2039
sg78
Vpotstockradio
p2040
sg84
VPOT STOCK RADIO
p2041
sa(dp2042
g44
I20563800
sg157
(lp2043
I102
aI111
asg56
V20563800
p2044
sg78
VHempNews
p2045
sg84
VThe Hemp News
p2046
sasg162
(lp2047
sg34
(lp2048
ssg165
Nsg166
Nsg167
I27
sg56
V633719353339473920
p2049
sg169
I00
sg170
g1990
sg171
Nsg172
Nsg80
g2011
sg88
VTue Aug 18 19:17:22 +0000 2015
p2050
sg174
Nsg175
Nsg176
(dp2051
g178
Ven
p2052
sg180
Vrecent
p2053
sssg182
g2051
sg183
Nsg184
Nsg30
g2017
sg185
Nsg186
Nsg100
g2049
sg187
I00
sg188
Nsg189
I27
sg190
Nsbsg138
g1941
sg123
g124
(S'\x07\xdf\x0b\x06\x0e/:\x00\x00\x00'
p2054
tp2055
Rp2056
sg38
(dp2057
g143
Nsg144
I00
sg145
g1938
sg146
I00
sg147
Nsg44
L662642584750133248L
sg148
I0
sg149
V<a href="http://twitter.com" rel="nofollow">Twitter Web Client</a>
p2058
sg151
I00
sg152
Nsg52
(dp2059
g154
(lp2060
(dp2061
g157
(lp2062
I16
aI22
asg145
VHEMPD
p2063
sa(dp2064
g157
(lp2065
I128
aI133
asg145
VSRNA
p2066
sa(dp2067
g157
(lp2068
I139
aI140
asg145
VTHCZ
p2069
sa(dp2070
g157
(lp2071
I139
aI140
asg145
VMJNA
p2072
sa(dp2073
g157
(lp2074
I139
aI140
asg145
VVPCO
p2075
sa(dp2076
g157
(lp2077
I139
aI140
asg145
g296
sasg160
(lp2078
(dp2079
g44
I168640257
sg157
(lp2080
I3
aI14
asg56
V168640257
p2081
sg78
VstocksIbuy
p2082
sg84
VStocks I Buy
p2083
sa(dp2084
g44
L2596733009L
sg157
(lp2085
I103
aI117
asg56
V2596733009
p2086
sg78
Vpotstockradio
p2087
sg84
VPOT STOCK RADIO
p2088
sa(dp2089
g44
I20563800
sg157
(lp2090
I118
aI127
asg56
V20563800
p2091
sg78
VHempNews
p2092
sg84
VThe Hemp News
p2093
sasg162
(lp2094
sg34
(lp2095
ssg165
Nsg166
Nsg167
I27
sg56
V662642584750133248
p2096
sg169
I00
sg358
g2015
sg170
g1948
sg171
Nsg172
Nsg80
g1969
sg88
VFri Nov 06 14:47:58 +0000 2015
p2097
sg174
Nsg175
Nsg176
(dp2098
g178
Ven
p2099
sg180
Vrecent
p2100
sssg182
g2098
sg183
Nsg184
Nsg30
g2059
sg185
Nsg186
Nsg100
g2096
sg187
I00
sg188
Nsg189
I27
sg190
Nsbag0
(g4
g5
Ntp2101
Rp2102
(dp2103
g9
I00
sg10
Nsg11
I00
sg12
VRT @stocksIbuy: $HEMPD is it at bottom yet? Is it time for a reveres? Down almost 75% since rev split. @potstockradio @HempNews $SRNA $THCZ\u2026
p2104
sg14
Vhttp://twitter.com
p2105
sg16
I00
sg17
Nsg18
g0
(g19
g5
Ntp2106
Rp2107
(dp2108
g23
I00
sg24
I00
sg25
I01
sg26
VEFEFEF
p2109
sg28
L2281764098L
sg29
I00
sg30
(dp2110
g32
(dp2111
g34
(lp2112
sssg36
Vhttps://pbs.twimg.com/profile_images/627419003783286784/NpGkHJF9_normal.jpg
p2113
sg38
(dp2114
g40
I00
sg41
I00
sg42
I01
sg43
I00
sg44
L2281764098L
sg45
Vhttps://abs.twimg.com/images/themes/theme14/bg.gif
p2115
sg47
I00
sg48
V333333
p2116
sg50
g2113
sg51
g2109
sg52
g2110
sg53
I2312
sg54
VFFFFFF
p2117
sg56
V2281764098
p2118
sg58
V131516
p2119
sg60
I55
sg61
I00
sg62
I-28800
sg63
I9394
sg32
VBrazil Hemp Collective is a platform for all Hemp Related Businesses to connect and network without the middleman.
p2120
sg65
I3831
sg66
VBrazil
p2121
sg68
V4A913C
p2122
sg70
Vhttp://pbs.twimg.com/profile_images/627419003783286784/NpGkHJF9_normal.jpg
p2123
sg72
I00
sg73
I00
sg74
Vhttps://pbs.twimg.com/profile_banners/2281764098/1438423334
p2124
sg76
Vhttp://abs.twimg.com/images/themes/theme14/bg.gif
p2125
sg78
VBrazilHemp
p2126
sg80
Ven
p2127
sg82
I01
sg83
I2896
sg84
VBrazil Hemp
p2128
sg86
I00
sg87
Nsg88
VWed Jan 08 07:34:31 +0000 2014
p2129
sg90
I00
sg91
VPacific Time (US & Canada)
p2130
sg93
I00
sg94
I00
sg95
I00
ssg96
I00
sg97
g2116
sg98
I2312
sg99
g2117
sg100
g2118
sg101
I00
sg102
I55
sg103
I00
sg104
I-28800
sg105
I9394
sg106
g2120
sg107
I3831
sg108
g2121
sg109
g2122
sg110
g2123
sg111
I00
sg112
I00
sg113
g2119
sg114
g2124
sg115
g2125
sg116
g2126
sg117
g2127
sg118
I00
sg119
I01
sg120
I2896
sg121
g2128
sg122
Nsg123
g124
(S'\x07\xde\x01\x08\x07"\x1f\x00\x00\x00'
p2131
tp2132
Rp2133
sg128
g2115
sg129
g2130
sg130
I00
sg131
I00
sg132
I00
sbsg133
Nsg28
L662564075507875840L
sg134
I0
sg135
VTwitter Web Client
p2134
sg117
Ven
p2135
sg226
g0
(g4
g5
Ntp2136
Rp2137
(dp2138
g9
I00
sg10
Nsg11
I00
sg12
V$HEMPD is it at bottom yet? Is it time for a reveres? Down almost 75% since rev split. @potstockradio @HempNews $SRNA $THCZ $MJNA $VPCO - $S
p2139
sg14
Vhttp://twitter.com
p2140
sg16
I00
sg17
Nsg18
g0
(g19
g5
Ntp2141
Rp2142
(dp2143
g23
I00
sg24
I00
sg25
I01
sg26
VEFEFEF
p2144
sg28
I168640257
sg29
I00
sg30
(dp2145
g87
(dp2146
g34
(lp2147
(dp2148
g87
Vhttp://t.co/Gl28KaBILU
p2149
sg157
(lp2150
I0
aI22
asg242
Vhttp://www.stocksibuy.com
p2151
sg244
Vstocksibuy.com
p2152
sassg32
(dp2153
g34
(lp2154
sssg36
Vhttps://pbs.twimg.com/profile_images/1082854248/untitled_normal.JPG
p2155
sg38
(dp2156
g40
I00
sg41
I00
sg42
I01
sg43
I00
sg44
I168640257
sg45
Vhttps://pbs.twimg.com/profile_background_images/474889556768980992/vErRUJMp.jpeg
p2157
sg47
I00
sg48
V333333
p2158
sg50
g2155
sg51
g2144
sg52
g2145
sg53
I592
sg54
V000000
p2159
sg56
V168640257
p2160
sg58
V131516
p2161
sg60
I20
sg61
I00
sg62
I-18000
sg63
I2233
sg32
VI am not an investment broker, licensed trader or financial advisor. Invest at your own risk. Not all stocks posted I own.
p2162
sg65
I1979
sg66
g256
sg68
V009999
p2163
sg70
Vhttp://pbs.twimg.com/profile_images/1082854248/untitled_normal.JPG
p2164
sg72
I00
sg73
I01
sg74
Vhttps://pbs.twimg.com/profile_banners/168640257/1402057396
p2165
sg76
Vhttp://pbs.twimg.com/profile_background_images/474889556768980992/vErRUJMp.jpeg
p2166
sg78
VstocksIbuy
p2167
sg80
Ven
p2168
sg82
I00
sg83
I15
sg84
VStocks I Buy
p2169
sg86
I00
sg87
Vhttp://t.co/Gl28KaBILU
p2170
sg88
VTue Jul 20 12:26:23 +0000 2010
p2171
sg90
I00
sg91
VQuito
p2172
sg93
I00
sg94
I00
sg95
I00
ssg96
I00
sg97
g2158
sg98
I592
sg99
g2159
sg100
g2160
sg101
I00
sg102
I20
sg103
I00
sg104
I-18000
sg105
I2233
sg106
g2162
sg107
I1979
sg108
g256
sg109
g2163
sg110
g2164
sg111
I00
sg112
I01
sg113
g2161
sg114
g2165
sg115
g2166
sg116
g2167
sg117
g2168
sg118
I00
sg119
I00
sg120
I15
sg121
g2169
sg122
g2170
sg123
g124
(S'\x07\xda\x07\x14\x0c\x1a\x17\x00\x00\x00'
p2173
tp2174
Rp2175
sg128
g2157
sg129
g2172
sg130
I00
sg131
I00
sg132
I00
sbsg133
Nsg28
L633719353339473920L
sg134
I32
sg135
VTwitter Web Client
p2176
sg117
Ven
p2177
sg138
g2142
sg123
g124
(S'\x07\xdf\x08\x12\x13\x11\x16\x00\x00\x00'
p2178
tp2179
Rp2180
sg38
(dp2181
g143
Nsg144
I00
sg145
g2139
sg146
I00
sg147
Nsg44
L633719353339473920L
sg148
I32
sg149
V<a href="http://twitter.com" rel="nofollow">Twitter Web Client</a>
p2182
sg151
I00
sg152
Nsg52
(dp2183
g154
(lp2184
(dp2185
g157
(lp2186
I0
aI6
asg145
VHEMPD
p2187
sa(dp2188
g157
(lp2189
I112
aI117
asg145
VSRNA
p2190
sa(dp2191
g157
(lp2192
I118
aI123
asg145
VTHCZ
p2193
sa(dp2194
g157
(lp2195
I124
aI129
asg145
VMJNA
p2196
sa(dp2197
g157
(lp2198
I130
aI135
asg145
VVPCO
p2199
sa(dp2200
g157
(lp2201
I138
aI140
asg145
g296
sasg160
(lp2202
(dp2203
g44
L2596733009L
sg157
(lp2204
I87
aI101
asg56
V2596733009
p2205
sg78
Vpotstockradio
p2206
sg84
VPOT STOCK RADIO
p2207
sa(dp2208
g44
I20563800
sg157
(lp2209
I102
aI111
asg56
V20563800
p2210
sg78
VHempNews
p2211
sg84
VThe Hemp News
p2212
sasg162
(lp2213
sg34
(lp2214
ssg165
Nsg166
Nsg167
I27
sg56
V633719353339473920
p2215
sg169
I00
sg170
g2156
sg171
Nsg172
Nsg80
g2177
sg88
VTue Aug 18 19:17:22 +0000 2015
p2216
sg174
Nsg175
Nsg176
(dp2217
g178
Ven
p2218
sg180
Vrecent
p2219
sssg182
g2217
sg183
Nsg184
Nsg30
g2183
sg185
Nsg186
Nsg100
g2215
sg187
I00
sg188
Nsg189
I27
sg190
Nsbsg138
g2107
sg123
g124
(S'\x07\xdf\x0b\x06\t$\x00\x00\x00\x00'
p2220
tp2221
Rp2222
sg38
(dp2223
g143
Nsg144
I00
sg145
g2104
sg146
I00
sg147
Nsg44
L662564075507875840L
sg148
I0
sg149
V<a href="http://twitter.com" rel="nofollow">Twitter Web Client</a>
p2224
sg151
I00
sg152
Nsg52
(dp2225
g154
(lp2226
(dp2227
g157
(lp2228
I16
aI22
asg145
VHEMPD
p2229
sa(dp2230
g157
(lp2231
I128
aI133
asg145
VSRNA
p2232
sa(dp2233
g157
(lp2234
I139
aI140
asg145
VTHCZ
p2235
sa(dp2236
g157
(lp2237
I139
aI140
asg145
VMJNA
p2238
sa(dp2239
g157
(lp2240
I139
aI140
asg145
VVPCO
p2241
sa(dp2242
g157
(lp2243
I139
aI140
asg145
g296
sasg160
(lp2244
(dp2245
g44
I168640257
sg157
(lp2246
I3
aI14
asg56
V168640257
p2247
sg78
VstocksIbuy
p2248
sg84
VStocks I Buy
p2249
sa(dp2250
g44
L2596733009L
sg157
(lp2251
I103
aI117
asg56
V2596733009
p2252
sg78
Vpotstockradio
p2253
sg84
VPOT STOCK RADIO
p2254
sa(dp2255
g44
I20563800
sg157
(lp2256
I118
aI127
asg56
V20563800
p2257
sg78
VHempNews
p2258
sg84
VThe Hemp News
p2259
sasg162
(lp2260
sg34
(lp2261
ssg165
Nsg166
Nsg167
I27
sg56
V662564075507875840
p2262
sg169
I00
sg358
g2181
sg170
g2114
sg171
Nsg172
Nsg80
g2135
sg88
VFri Nov 06 09:36:00 +0000 2015
p2263
sg174
Nsg175
Nsg176
(dp2264
g178
Ven
p2265
sg180
Vrecent
p2266
sssg182
g2264
sg183
Nsg184
Nsg30
g2225
sg185
Nsg186
Nsg100
g2262
sg187
I00
sg188
Nsg189
I27
sg190
Nsbag0
(g4
g5
Ntp2267
Rp2268
(dp2269
g9
I00
sg10
Nsg11
I00
sg12
V$VPCO is still my top pick for buy and hold long term. They're like Tesla in its early stages. They're doing every thing the right way.
p2270
sg14
Vhttp://twitter.com
p2271
sg16
I00
sg17
Nsg18
g0
(g19
g5
Ntp2272
Rp2273
(dp2274
g23
I00
sg24
I00
sg25
I01
sg26
VDDEEF6
p2275
sg28
I86801191
sg29
I00
sg30
(dp2276
g32
(dp2277
g34
(lp2278
sssg36
Vhttps://pbs.twimg.com/profile_images/429776788307185664/kdzmf2T-_normal.jpeg
p2279
sg38
(dp2280
g40
I00
sg41
I00
sg42
I01
sg43
I00
sg44
I86801191
sg45
Vhttps://pbs.twimg.com/profile_background_images/378800000179750245/vjKdkqiD.jpeg
p2281
sg47
I00
sg48
V333333
p2282
sg50
g2279
sg51
g2275
sg52
g2276
sg53
I533
sg54
VFFFFFF
p2283
sg56
V86801191
p2284
sg58
VC0DEED
p2285
sg60
I13
sg61
I00
sg62
I-18000
sg63
I748
sg32
VProfessional Stock Trader. Primary focus on biotech, healthcare & ETFs. Some people say I'm a genius. I think I'm just a humble student of the 50 laws of power.
p2286
sg65
I402
sg66
VGlobal
p2287
sg68
V0084B4
p2288
sg70
Vhttp://pbs.twimg.com/profile_images/429776788307185664/kdzmf2T-_normal.jpeg
p2289
sg72
I00
sg73
I00
sg74
Vhttps://pbs.twimg.com/profile_banners/86801191/1394938467
p2290
sg76
Vhttp://pbs.twimg.com/profile_background_images/378800000179750245/vjKdkqiD.jpeg
p2291
sg78
VMosesRiceVIP
p2292
sg80
Ven
p2293
sg82
I01
sg83
I22
sg84
VMoses Rice
p2294
sg86
I00
sg87
Nsg88
VSun Nov 01 20:59:40 +0000 2009
p2295
sg90
I00
sg91
VEastern Time (US & Canada)
p2296
sg93
I00
sg94
I00
sg95
I00
ssg96
I00
sg97
g2282
sg98
I533
sg99
g2283
sg100
g2284
sg101
I00
sg102
I13
sg103
I00
sg104
I-18000
sg105
I748
sg106
g2286
sg107
I402
sg108
g2287
sg109
g2288
sg110
g2289
sg111
I00
sg112
I00
sg113
g2285
sg114
g2290
sg115
g2291
sg116
g2292
sg117
g2293
sg118
I00
sg119
I01
sg120
I22
sg121
g2294
sg122
Nsg123
g124
(S'\x07\xd9\x0b\x01\x14;(\x00\x00\x00'
p2297
tp2298
Rp2299
sg128
g2281
sg129
g2296
sg130
I00
sg131
I00
sg132
I00
sbsg133
Nsg28
L662431630607433728L
sg134
I0
sg135
VTwitter Web Client
p2300
sg117
Ven
p2301
sg138
g2273
sg123
g124
(S'\x07\xdf\x0b\x06\x001*\x00\x00\x00'
p2302
tp2303
Rp2304
sg38
(dp2305
g143
Nsg144
I00
sg145
g2270
sg146
I00
sg147
Nsg44
L662431630607433728L
sg148
I0
sg149
V<a href="http://twitter.com" rel="nofollow">Twitter Web Client</a>
p2306
sg151
I00
sg152
Nsg52
(dp2307
g154
(lp2308
(dp2309
g157
(lp2310
I0
aI5
asg145
VVPCO
p2311
sasg160
(lp2312
sg162
(lp2313
sg34
(lp2314
ssg165
Nsg166
Nsg167
I0
sg56
V662431630607433728
p2315
sg169
I00
sg170
g2280
sg171
Nsg172
Nsg80
g2301
sg88
VFri Nov 06 00:49:42 +0000 2015
p2316
sg174
Nsg175
Nsg176
(dp2317
g178
Ven
p2318
sg180
Vrecent
p2319
sssg182
g2317
sg183
Nsg184
Nsg30
g2307
sg185
Nsg186
Nsg100
g2315
sg187
I00
sg188
Nsg189
I0
sg190
Nsbag0
(g4
g5
Ntp2320
Rp2321
(dp2322
g9
I00
sg10
Nsg11
I00
sg12
V$BVAP 0.00744 Repays and Retires $83,000 in Convertible Debt\u000ahttps://t.co/cLhbPnUztW\u000a\u000a$ECIG $VAPE $VPCO https://t.co/oEbzUnOmrG
p2323
sg14
Vhttp://twitter.com
p2324
sg368
I00
sg16
I00
sg17
Nsg18
g0
(g19
g5
Ntp2325
Rp2326
(dp2327
g23
I00
sg24
I00
sg25
I01
sg26
VEFEFEF
p2328
sg28
I414727185
sg29
I00
sg30
(dp2329
g87
(dp2330
g34
(lp2331
(dp2332
g87
Vhttp://t.co/2T2wpCadOm
p2333
sg157
(lp2334
I0
aI22
asg242
Vhttp://www.aimhighprofits.com/
p2335
sg244
Vaimhighprofits.com
p2336
sassg32
(dp2337
g34
(lp2338
(dp2339
g87
Vhttp://t.co/nGsUDDgkuQ
p2340
sg157
(lp2341
I80
aI102
asg242
Vhttp://www.aimhighprofits.com/we-know-penny-stocks
p2342
sg244
Vaimhighprofits.com/we-know-penny-\u2026
p2343
sa(dp2344
g87
Vhttp://t.co/SuavlTiK6q
p2345
sg157
(lp2346
I107
aI129
asg242
Vhttp://www.aimhighprofits.com/disclaimer
p2347
sg244
Vaimhighprofits.com/disclaimer
p2348
sasssg36
Vhttps://pbs.twimg.com/profile_images/1863899948/Aim_High_normal.PNG
p2349
sg38
(dp2350
g40
I00
sg41
I00
sg42
I01
sg43
I00
sg44
I414727185
sg45
Vhttps://pbs.twimg.com/profile_background_images/504337796245381120/9njhYcqg.jpeg
p2351
sg47
I00
sg48
V333333
p2352
sg50
g2349
sg51
g2328
sg52
g2329
sg53
I2633
sg54
VFFFFFF
p2353
sg56
V414727185
p2354
sg58
V131516
p2355
sg60
I46
sg61
I00
sg62
I-18000
sg63
I37876
sg32
VWe Know Penny Stocks. Learn How To Turn $300 into $3,000, $3,000 into $30,000!\u000a\u000ahttp://t.co/nGsUDDgkuQ   \u000a\u000ahttp://t.co/SuavlTiK6q
p2356
sg65
I25
sg66
VBeachfront, Boracay
p2357
sg68
V009999
p2358
sg70
Vhttp://pbs.twimg.com/profile_images/1863899948/Aim_High_normal.PNG
p2359
sg72
I00
sg73
I00
sg74
Vhttps://pbs.twimg.com/profile_banners/414727185/1407984439
p2360
sg76
Vhttp://pbs.twimg.com/profile_background_images/504337796245381120/9njhYcqg.jpeg
p2361
sg78
VAimHighProfits
p2362
sg80
Ven
p2363
sg82
I01
sg83
I19
sg84
VAimHighProfits
p2364
sg86
I00
sg87
Vhttp://t.co/2T2wpCadOm
p2365
sg88
VThu Nov 17 12:13:29 +0000 2011
p2366
sg90
I00
sg91
VEastern Time (US & Canada)
p2367
sg93
I00
sg94
I00
sg95
I00
ssg96
I00
sg97
g2352
sg98
I2633
sg99
g2353
sg100
g2354
sg101
I00
sg102
I46
sg103
I00
sg104
I-18000
sg105
I37876
sg106
VWe Know Penny Stocks. Learn How To Turn $300 into $3,000, $3,000 into $30,000!\u000a\u000ahttp://t.co/nGsUDDgkuQ   \u000a\u000ahttp://t.co/SuavlTiK6q
p2368
sg107
I25
sg108
g2357
sg109
g2358
sg110
g2359
sg111
I00
sg112
I00
sg113
g2355
sg114
g2360
sg115
g2361
sg116
g2362
sg117
g2363
sg118
I00
sg119
I01
sg120
I19
sg121
g2364
sg122
g2365
sg123
g124
(S'\x07\xdb\x0b\x11\x0c\r\x1d\x00\x00\x00'
p2369
tp2370
Rp2371
sg128
g2351
sg129
g2367
sg130
I00
sg131
I00
sg132
I00
sbsg133
Nsg28
L662265422901698560L
sg134
I0
sg135
VTwitter Web Client
p2372
sg117
Ven
p2373
sg138
g2326
sg123
g124
(S'\x07\xdf\x0b\x05\r1\x0f\x00\x00\x00'
p2374
tp2375
Rp2376
sg38
(dp2377
g143
Nsg144
I00
sg145
V$BVAP 0.00744 Repays and Retires $83,000 in Convertible Debt\u000ahttps://t.co/cLhbPnUztW\u000a\u000a$ECIG $VAPE $VPCO https://t.co/oEbzUnOmrG
p2378
sg146
I00
sg147
Nsg44
L662265422901698560L
sg148
I0
sg149
V<a href="http://twitter.com" rel="nofollow">Twitter Web Client</a>
p2379
sg151
I00
sg152
Nsg52
(dp2380
g154
(lp2381
(dp2382
g157
(lp2383
I0
aI5
asg145
VBVAP
p2384
sa(dp2385
g157
(lp2386
I86
aI91
asg145
VECIG
p2387
sa(dp2388
g157
(lp2389
I92
aI97
asg145
VVAPE
p2390
sa(dp2391
g157
(lp2392
I98
aI103
asg145
VVPCO
p2393
sasg160
(lp2394
sg162
(lp2395
sg34
(lp2396
(dp2397
g87
Vhttps://t.co/cLhbPnUztW
p2398
sg157
(lp2399
I61
aI84
asg242
Vhttp://www.investorpoint.com/news/OTCBULLB/80397840/
p2400
sg244
Vinvestorpoint.com/news/OTCBULLB/\u2026
p2401
sasVmedia
p2402
(lp2403
(dp2404
g242
Vhttp://twitter.com/AimHighProfits/status/662265422901698560/photo/1
p2405
sg244
Vpic.twitter.com/oEbzUnOmrG
p2406
sg87
Vhttps://t.co/oEbzUnOmrG
p2407
sVmedia_url_https
p2408
Vhttps://pbs.twimg.com/media/CTDW4_6U8AEY28C.png
p2409
sg56
V662265419940556801
p2410
sVsizes
p2411
(dp2412
Vsmall
p2413
(dp2414
Vh
p2415
I204
sVresize
p2416
Vfit
p2417
sVw
p2418
I340
ssVlarge
p2419
(dp2420
g2415
I421
sg2416
Vfit
p2421
sg2418
I700
ssVmedium
p2422
(dp2423
g2415
I360
sg2416
Vfit
p2424
sg2418
I600
ssVthumb
p2425
(dp2426
g2415
I150
sg2416
Vcrop
p2427
sg2418
I150
sssg157
(lp2428
I104
aI127
asVtype
p2429
Vphoto
p2430
sg44
L662265419940556801L
sVmedia_url
p2431
Vhttp://pbs.twimg.com/media/CTDW4_6U8AEY28C.png
p2432
sassg165
Nsg166
Nsg167
I0
sg56
V662265422901698560
p2433
sg169
I00
sg170
g2350
sg171
Nsg172
Nsg431
I00
sg80
g2373
sg88
VThu Nov 05 13:49:15 +0000 2015
p2434
sg174
Nsg175
Nsg176
(dp2435
g178
Ven
p2436
sg180
Vrecent
p2437
sssg182
g2435
sg183
Nsg184
Nsg30
g2380
sg185
Nsg186
Nsg100
g2433
sg187
I00
sg188
Nsg189
I0
sg190
Nsbag0
(g4
g5
Ntp2438
Rp2439
(dp2440
g9
I00
sg10
Nsg11
I00
sg12
VImp catalysts 4 MEIP &amp; CALA in d cmg week Here is DD 4 investors:https://t.co/lwSyWTxOEB $CTRV $BEP $APHB $TARO $NAUH $VPCO
p2441
sg14
Vhttp://twittimer.com
p2442
sg368
I00
sg16
I00
sg17
Nsg18
g0
(g19
g5
Ntp2443
Rp2444
(dp2445
g23
I00
sg24
I01
sg25
I00
sg26
V000000
p2446
sg28
L3518191635L
sg29
I00
sg30
(dp2447
g87
(dp2448
g34
(lp2449
(dp2450
g87
Vhttps://t.co/ot2Kl5nyub
p2451
sg157
(lp2452
I0
aI23
asg242
Vhttps://groups.google.com/forum/#!forum/jbem777
p2453
sg244
Vgroups.google.com/forum/#!forum/\u2026
p2454
sassg32
(dp2455
g34
(lp2456
sssg36
Vhttps://pbs.twimg.com/profile_images/638885869433196544/C975RWXJ_normal.jpg
p2457
sg38
(dp2458
g40
I00
sg41
I01
sg42
I00
sg43
I00
sg44
L3518191635L
sg45
Vhttps://abs.twimg.com/images/themes/theme1/bg.png
p2459
sg47
I00
sg48
V000000
p2460
sg50
g2457
sg51
g2446
sg52
g2447
sg53
I28
sg54
V000000
p2461
sg56
V3518191635
p2462
sg58
V000000
p2463
sg60
I1
sg61
I00
sg62
I-28800
sg63
I1505
sg32
VHealthcare Stocks
p2464
sg65
I25
sg66
g256
sg68
V89C9FA
p2465
sg70
Vhttp://pbs.twimg.com/profile_images/638885869433196544/C975RWXJ_normal.jpg
p2466
sg72
I00
sg73
I00
sg76
Vhttp://abs.twimg.com/images/themes/theme1/bg.png
p2467
sg78
Vjbemstocks
p2468
sg80
Ven
p2469
sg82
I00
sg83
I0
sg84
VDUE DILIGENCE
p2470
sg86
I00
sg87
Vhttps://t.co/ot2Kl5nyub
p2471
sg88
VWed Sep 02 01:23:46 +0000 2015
p2472
sg90
I00
sg91
VPacific Time (US & Canada)
p2473
sg93
I00
sg94
I00
sg95
I00
ssg96
I00
sg97
g2460
sg98
I28
sg99
g2461
sg100
g2462
sg101
I00
sg102
I1
sg103
I00
sg104
I-28800
sg105
I1505
sg106
g2464
sg107
I25
sg108
g256
sg109
g2465
sg110
g2466
sg111
I00
sg112
I00
sg113
g2463
sg115
g2467
sg116
g2468
sg117
g2469
sg118
I00
sg119
I00
sg120
I0
sg121
g2470
sg122
g2471
sg123
g124
(S'\x07\xdf\t\x02\x01\x17.\x00\x00\x00'
p2474
tp2475
Rp2476
sg128
g2459
sg129
g2473
sg130
I00
sg131
I00
sg132
I00
sbsg133
Nsg28
L662143668678078464L
sg134
I0
sg135
VTwittimer
p2477
sg117
Ven
p2478
sg138
g2444
sg123
g124
(S'\x07\xdf\x0b\x05\x05-\x1b\x00\x00\x00'
p2479
tp2480
Rp2481
sg38
(dp2482
g143
Nsg144
I00
sg145
g2441
sg146
I00
sg147
Nsg44
L662143668678078464L
sg148
I0
sg149
V<a href="http://twittimer.com" rel="nofollow">Twittimer</a>
p2483
sg151
I00
sg152
Nsg52
(dp2484
g154
(lp2485
(dp2486
g157
(lp2487
I93
aI98
asg145
VCTRV
p2488
sa(dp2489
g157
(lp2490
I99
aI103
asg145
VBEP
p2491
sa(dp2492
g157
(lp2493
I104
aI109
asg145
VAPHB
p2494
sa(dp2495
g157
(lp2496
I110
aI115
asg145
VTARO
p2497
sa(dp2498
g157
(lp2499
I116
aI121
asg145
VNAUH
p2500
sa(dp2501
g157
(lp2502
I122
aI127
asg145
VVPCO
p2503
sasg160
(lp2504
sg162
(lp2505
sg34
(lp2506
(dp2507
g87
Vhttps://t.co/lwSyWTxOEB
p2508
sg157
(lp2509
I69
aI92
asg242
Vhttp://bit.ly/1KjZ8cR
p2510
sg244
Vbit.ly/1KjZ8cR
p2511
sassg165
Nsg166
Nsg167
I0
sg56
V662143668678078464
p2512
sg169
I00
sg170
g2458
sg171
Nsg172
Nsg431
I00
sg80
g2478
sg88
VThu Nov 05 05:45:27 +0000 2015
p2513
sg174
Nsg175
Nsg176
(dp2514
g178
Ven
p2515
sg180
Vrecent
p2516
sssg182
g2514
sg183
Nsg184
Nsg30
g2484
sg185
Nsg186
Nsg100
g2512
sg187
I00
sg188
Nsg189
I0
sg190
Nsbag0
(g4
g5
Ntp2517
Rp2518
(dp2519
g9
I00
sg10
Nsg11
I00
sg12
VImp catalysts 4 MEIP &amp; CALA in d cmg week Here is DD 4 investors:https://t.co/lwSyWTxOEB $VOOG $VOOV $VOT $VOX $VOXX $VOYA $VPCO $VPG
p2520
sg14
Vhttp://twittimer.com
p2521
sg368
I00
sg16
I00
sg17
Nsg18
g0
(g19
g5
Ntp2522
Rp2523
(dp2524
g23
I00
sg24
I01
sg25
I00
sg26
V000000
p2525
sg28
L3518191635L
sg29
I00
sg30
(dp2526
g87
(dp2527
g34
(lp2528
(dp2529
g87
Vhttps://t.co/ot2Kl5nyub
p2530
sg157
(lp2531
I0
aI23
asg242
Vhttps://groups.google.com/forum/#!forum/jbem777
p2532
sg244
Vgroups.google.com/forum/#!forum/\u2026
p2533
sassg32
(dp2534
g34
(lp2535
sssg36
Vhttps://pbs.twimg.com/profile_images/638885869433196544/C975RWXJ_normal.jpg
p2536
sg38
(dp2537
g40
I00
sg41
I01
sg42
I00
sg43
I00
sg44
L3518191635L
sg45
Vhttps://abs.twimg.com/images/themes/theme1/bg.png
p2538
sg47
I00
sg48
V000000
p2539
sg50
g2536
sg51
g2525
sg52
g2526
sg53
I28
sg54
V000000
p2540
sg56
V3518191635
p2541
sg58
V000000
p2542
sg60
I1
sg61
I00
sg62
I-28800
sg63
I1505
sg32
VHealthcare Stocks
p2543
sg65
I25
sg66
g256
sg68
V89C9FA
p2544
sg70
Vhttp://pbs.twimg.com/profile_images/638885869433196544/C975RWXJ_normal.jpg
p2545
sg72
I00
sg73
I00
sg76
Vhttp://abs.twimg.com/images/themes/theme1/bg.png
p2546
sg78
Vjbemstocks
p2547
sg80
Ven
p2548
sg82
I00
sg83
I0
sg84
VDUE DILIGENCE
p2549
sg86
I00
sg87
Vhttps://t.co/ot2Kl5nyub
p2550
sg88
VWed Sep 02 01:23:46 +0000 2015
p2551
sg90
I00
sg91
VPacific Time (US & Canada)
p2552
sg93
I00
sg94
I00
sg95
I00
ssg96
I00
sg97
g2539
sg98
I28
sg99
g2540
sg100
g2541
sg101
I00
sg102
I1
sg103
I00
sg104
I-28800
sg105
I1505
sg106
g2543
sg107
I25
sg108
g256
sg109
g2544
sg110
g2545
sg111
I00
sg112
I00
sg113
g2542
sg115
g2546
sg116
g2547
sg117
g2548
sg118
I00
sg119
I00
sg120
I0
sg121
g2549
sg122
g2550
sg123
g124
(S'\x07\xdf\t\x02\x01\x17.\x00\x00\x00'
p2553
tp2554
Rp2555
sg128
g2538
sg129
g2552
sg130
I00
sg131
I00
sg132
I00
sbsg133
Nsg28
L661883148024705026L
sg134
I0
sg135
VTwittimer
p2556
sg117
Vnl
p2557
sg138
g2523
sg123
g124
(S'\x07\xdf\x0b\x04\x0c\x1e\x0e\x00\x00\x00'
p2558
tp2559
Rp2560
sg38
(dp2561
g143
Nsg144
I00
sg145
g2520
sg146
I00
sg147
Nsg44
L661883148024705026L
sg148
I0
sg149
V<a href="http://twittimer.com" rel="nofollow">Twittimer</a>
p2562
sg151
I00
sg152
Nsg52
(dp2563
g154
(lp2564
(dp2565
g157
(lp2566
I93
aI98
asg145
VVOOG
p2567
sa(dp2568
g157
(lp2569
I99
aI104
asg145
VVOOV
p2570
sa(dp2571
g157
(lp2572
I105
aI109
asg145
VVOT
p2573
sa(dp2574
g157
(lp2575
I110
aI114
asg145
VVOX
p2576
sa(dp2577
g157
(lp2578
I115
aI120
asg145
VVOXX
p2579
sa(dp2580
g157
(lp2581
I121
aI126
asg145
VVOYA
p2582
sa(dp2583
g157
(lp2584
I127
aI132
asg145
VVPCO
p2585
sa(dp2586
g157
(lp2587
I133
aI137
asg145
VVPG
p2588
sasg160
(lp2589
sg162
(lp2590
sg34
(lp2591
(dp2592
g87
Vhttps://t.co/lwSyWTxOEB
p2593
sg157
(lp2594
I69
aI92
asg242
Vhttp://bit.ly/1KjZ8cR
p2595
sg244
Vbit.ly/1KjZ8cR
p2596
sassg165
Nsg166
Nsg167
I0
sg56
V661883148024705026
p2597
sg169
I00
sg170
g2537
sg171
Nsg172
Nsg431
I00
sg80
g2557
sg88
VWed Nov 04 12:30:14 +0000 2015
p2598
sg174
Nsg175
Nsg176
(dp2599
g178
Vnl
p2600
sg180
Vrecent
p2601
sssg182
g2599
sg183
Nsg184
Nsg30
g2563
sg185
Nsg186
Nsg100
g2597
sg187
I00
sg188
Nsg189
I0
sg190
Nsbag0
(g4
g5
Ntp2602
Rp2603
(dp2604
g9
I00
sg10
Nsg11
I00
sg12
VStocks to Watch: $BNSO $XOMA $AEZS $UNT $BCEI $SANM $CNNX $MCEP $SGY $GUID $SALE $KING $ARO $PQ $VPCO $PLM $NLS $FN $CALI $LMNX $GLF $CLLS
p2605
sg14
Vhttp://www.hootsuite.com
p2606
sg16
I00
sg17
Nsg18
g0
(g19
g5
Ntp2607
Rp2608
(dp2609
g23
I00
sg24
I00
sg25
I01
sg26
VDDEEF6
p2610
sg28
L3248568151L
sg29
I00
sg30
(dp2611
g32
(dp2612
g34
(lp2613
sssg36
Vhttps://pbs.twimg.com/profile_images/613276251378221056/06B4SrfA_normal.png
p2614
sg38
(dp2615
g40
I00
sg41
I00
sg42
I01
sg43
I00
sg44
L3248568151L
sg45
Vhttps://abs.twimg.com/images/themes/theme1/bg.png
p2616
sg47
I00
sg48
V333333
p2617
sg50
g2614
sg51
g2610
sg52
g2611
sg53
I68
sg54
VC0DEED
p2618
sg56
V3248568151
p2619
sg58
VC0DEED
p2620
sg60
I9
sg61
I00
sg62
I-28800
sg63
I855
sg32
VTrustworthy, ethical, discreet, well organized with an attitude of self motivation, creativity, and initiative to achieve goals
p2621
sg65
I98
sg66
V3351 Traders Alley Kansas City
p2622
sg68
V0084B4
p2623
sg70
Vhttp://pbs.twimg.com/profile_images/613276251378221056/06B4SrfA_normal.png
p2624
sg72
I00
sg73
I00
sg74
Vhttps://pbs.twimg.com/profile_banners/3248568151/1435051771
p2625
sg76
Vhttp://abs.twimg.com/images/themes/theme1/bg.png
p2626
sg78
Vwilkinson991
p2627
sg80
Ven
p2628
sg82
I00
sg83
I0
sg84
VDaniel Wilkinson
p2629
sg86
I00
sg87
Nsg88
VThu Jun 18 08:20:24 +0000 2015
p2630
sg90
I00
sg91
VPacific Time (US & Canada)
p2631
sg93
I00
sg94
I01
sg95
I00
ssg96
I00
sg97
g2617
sg98
I68
sg99
g2618
sg100
g2619
sg101
I00
sg102
I9
sg103
I00
sg104
I-28800
sg105
I855
sg106
g2621
sg107
I98
sg108
g2622
sg109
g2623
sg110
g2624
sg111
I00
sg112
I00
sg113
g2620
sg114
g2625
sg115
g2626
sg116
g2627
sg117
g2628
sg118
I00
sg119
I00
sg120
I0
sg121
g2629
sg122
Nsg123
g124
(S'\x07\xdf\x06\x12\x08\x14\x18\x00\x00\x00'
p2632
tp2633
Rp2634
sg128
g2616
sg129
g2631
sg130
I00
sg131
I01
sg132
I00
sbsg133
Nsg28
L661875012442435584L
sg134
I0
sg135
VHootsuite
p2635
sg117
Ven
p2636
sg138
g2608
sg123
g124
(S'\x07\xdf\x0b\x04\x0b96\x00\x00\x00'
p2637
tp2638
Rp2639
sg38
(dp2640
g143
Nsg144
I00
sg145
g2605
sg146
I00
sg147
Nsg44
L661875012442435584L
sg148
I0
sg149
V<a href="http://www.hootsuite.com" rel="nofollow">Hootsuite</a>
p2641
sg151
I00
sg152
Nsg52
(dp2642
g154
(lp2643
(dp2644
g157
(lp2645
I17
aI22
asg145
VBNSO
p2646
sa(dp2647
g157
(lp2648
I23
aI28
asg145
VXOMA
p2649
sa(dp2650
g157
(lp2651
I29
aI34
asg145
VAEZS
p2652
sa(dp2653
g157
(lp2654
I35
aI39
asg145
VUNT
p2655
sa(dp2656
g157
(lp2657
I40
aI45
asg145
VBCEI
p2658
sa(dp2659
g157
(lp2660
I46
aI51
asg145
VSANM
p2661
sa(dp2662
g157
(lp2663
I52
aI57
asg145
VCNNX
p2664
sa(dp2665
g157
(lp2666
I58
aI63
asg145
VMCEP
p2667
sa(dp2668
g157
(lp2669
I64
aI68
asg145
VSGY
p2670
sa(dp2671
g157
(lp2672
I69
aI74
asg145
VGUID
p2673
sa(dp2674
g157
(lp2675
I75
aI80
asg145
VSALE
p2676
sa(dp2677
g157
(lp2678
I81
aI86
asg145
VKING
p2679
sa(dp2680
g157
(lp2681
I87
aI91
asg145
VARO
p2682
sa(dp2683
g157
(lp2684
I92
aI95
asg145
VPQ
p2685
sa(dp2686
g157
(lp2687
I96
aI101
asg145
VVPCO
p2688
sa(dp2689
g157
(lp2690
I102
aI106
asg145
VPLM
p2691
sa(dp2692
g157
(lp2693
I107
aI111
asg145
VNLS
p2694
sa(dp2695
g157
(lp2696
I112
aI115
asg145
VFN
p2697
sa(dp2698
g157
(lp2699
I116
aI121
asg145
VCALI
p2700
sa(dp2701
g157
(lp2702
I122
aI127
asg145
VLMNX
p2703
sa(dp2704
g157
(lp2705
I128
aI132
asg145
VGLF
p2706
sa(dp2707
g157
(lp2708
I133
aI138
asg145
VCLLS
p2709
sasg160
(lp2710
sg162
(lp2711
sg34
(lp2712
ssg165
Nsg166
Nsg167
I0
sg56
V661875012442435584
p2713
sg169
I00
sg170
g2615
sg171
Nsg172
Nsg80
g2636
sg88
VWed Nov 04 11:57:54 +0000 2015
p2714
sg174
Nsg175
Nsg176
(dp2715
g178
Ven
p2716
sg180
Vrecent
p2717
sssg182
g2715
sg183
Nsg184
Nsg30
g2642
sg185
Nsg186
Nsg100
g2713
sg187
I00
sg188
Nsg189
I0
sg190
Nsbag0
(g4
g5
Ntp2718
Rp2719
(dp2720
g9
I00
sg10
Nsg11
I00
sg12
V$VPCO GalacticGreen: Bullish $VPCO. Picked up Undervalued shares yesterday. It: GalacticGreen https://t.co/CRAAE3rpnn
p2721
sg14
Vhttp://twitterfeed.com
p2722
sg368
I00
sg16
I00
sg17
Nsg18
g0
(g19
g5
Ntp2723
Rp2724
(dp2725
g23
I00
sg24
I00
sg25
I01
sg26
VDDEEF6
p2726
sg28
L2329624993L
sg29
I00
sg30
(dp2727
g87
(dp2728
g34
(lp2729
(dp2730
g87
Vhttp://t.co/GPmOGK0Cc5
p2731
sg157
(lp2732
I0
aI22
asg242
Vhttp://528marketing.com/we-can-help-distribute-your-cannabis-or-vape-products-to-c-stores/
p2733
sg244
V528marketing.com/we-can-help-di\u2026
p2734
sassg32
(dp2735
g34
(lp2736
(dp2737
g87
Vhttp://t.co/QBCbrsEVse
p2738
sg157
(lp2739
I42
aI64
asg242
Vhttp://528Marketing.com
p2740
sg244
V528Marketing.com
p2741
sasssg36
Vhttps://pbs.twimg.com/profile_images/469861227854708736/VMPEysjY_normal.jpeg
p2742
sg38
(dp2743
g40
I00
sg41
I00
sg42
I01
sg43
I00
sg44
L2329624993L
sg45
Vhttps://pbs.twimg.com/profile_background_images/469860658213699584/X9aU4wJN.jpeg
p2744
sg47
I00
sg48
V333333
p2745
sg50
g2742
sg51
g2726
sg52
g2727
sg53
I3153
sg54
VFFFFFF
p2746
sg56
V2329624993
p2747
sg58
VC0DEED
p2748
sg60
I52
sg61
I00
sg62
I-28800
sg63
I49470
sg32
VWe promote  UR #vape and products through http://t.co/QBCbrsEVse - visit our other Twitter handles @528Canna and @528Marketing - email contact@528marketing.com
p2749
sg65
I2387
sg66
VThe wolrd of vape
p2750
sg68
V0084B4
p2751
sg70
Vhttp://pbs.twimg.com/profile_images/469861227854708736/VMPEysjY_normal.jpeg
p2752
sg72
I00
sg73
I00
sg74
Vhttps://pbs.twimg.com/profile_banners/2329624993/1400858521
p2753
sg76
Vhttp://pbs.twimg.com/profile_background_images/469860658213699584/X9aU4wJN.jpeg
p2754
sg78
V528vape
p2755
sg80
Ven
p2756
sg82
I01
sg83
I444
sg84
V528vape
p2757
sg86
I00
sg87
Vhttp://t.co/GPmOGK0Cc5
p2758
sg88
VThu Feb 06 01:30:14 +0000 2014
p2759
sg90
I00
sg91
VPacific Time (US & Canada)
p2760
sg93
I00
sg94
I00
sg95
I00
ssg96
I00
sg97
g2745
sg98
I3153
sg99
g2746
sg100
g2747
sg101
I00
sg102
I52
sg103
I00
sg104
I-28800
sg105
I49470
sg106
g2749
sg107
I2387
sg108
g2750
sg109
g2751
sg110
g2752
sg111
I00
sg112
I00
sg113
g2748
sg114
g2753
sg115
g2754
sg116
g2755
sg117
g2756
sg118
I00
sg119
I01
sg120
I444
sg121
g2757
sg122
g2758
sg123
g124
(S'\x07\xde\x02\x06\x01\x1e\x0e\x00\x00\x00'
p2761
tp2762
Rp2763
sg128
g2744
sg129
g2760
sg130
I00
sg131
I00
sg132
I00
sbsg133
Nsg28
L661704662282670081L
sg134
I0
sg135
Vtwitterfeed
p2764
sg117
Ven
p2765
sg138
g2724
sg123
g124
(S'\x07\xdf\x0b\x04\x00)\x00\x00\x00\x00'
p2766
tp2767
Rp2768
sg38
(dp2769
g143
Nsg144
I00
sg145
g2721
sg146
I00
sg147
Nsg44
L661704662282670081L
sg148
I0
sg149
V<a href="http://twitterfeed.com" rel="nofollow">twitterfeed</a>
p2770
sg151
I00
sg152
Nsg52
(dp2771
g154
(lp2772
(dp2773
g157
(lp2774
I0
aI5
asg145
VVPCO
p2775
sa(dp2776
g157
(lp2777
I29
aI34
asg145
VVPCO
p2778
sasg160
(lp2779
sg162
(lp2780
sg34
(lp2781
(dp2782
g87
Vhttps://t.co/CRAAE3rpnn
p2783
sg157
(lp2784
I94
aI117
asg242
Vhttp://bit.ly/1NpTQmH
p2785
sg244
Vbit.ly/1NpTQmH
p2786
sassg165
Nsg166
Nsg167
I0
sg56
V661704662282670081
p2787
sg169
I00
sg170
g2743
sg171
Nsg172
Nsg431
I00
sg80
g2765
sg88
VWed Nov 04 00:41:00 +0000 2015
p2788
sg174
Nsg175
Nsg176
(dp2789
g178
Ven
p2790
sg180
Vrecent
p2791
sssg182
g2789
sg183
Nsg184
Nsg30
g2771
sg185
Nsg186
Nsg100
g2787
sg187
I00
sg188
Nsg189
I0
sg190
Nsbag0
(g4
g5
Ntp2792
Rp2793
(dp2794
g9
I00
sg10
Nsg11
I00
sg12
V$VPCO Stockslayr: $VPCO has been very predictable lately.  Following: Stockslayr https://t.co/r9K7dWBqKl
p2795
sg14
Vhttp://twitterfeed.com
p2796
sg368
I00
sg16
I00
sg17
Nsg18
g0
(g19
g5
Ntp2797
Rp2798
(dp2799
g23
I00
sg24
I00
sg25
I01
sg26
VDDEEF6
p2800
sg28
L2329624993L
sg29
I00
sg30
(dp2801
g87
(dp2802
g34
(lp2803
(dp2804
g87
Vhttp://t.co/GPmOGK0Cc5
p2805
sg157
(lp2806
I0
aI22
asg242
Vhttp://528marketing.com/we-can-help-distribute-your-cannabis-or-vape-products-to-c-stores/
p2807
sg244
V528marketing.com/we-can-help-di\u2026
p2808
sassg32
(dp2809
g34
(lp2810
(dp2811
g87
Vhttp://t.co/QBCbrsEVse
p2812
sg157
(lp2813
I42
aI64
asg242
Vhttp://528Marketing.com
p2814
sg244
V528Marketing.com
p2815
sasssg36
Vhttps://pbs.twimg.com/profile_images/469861227854708736/VMPEysjY_normal.jpeg
p2816
sg38
(dp2817
g40
I00
sg41
I00
sg42
I01
sg43
I00
sg44
L2329624993L
sg45
Vhttps://pbs.twimg.com/profile_background_images/469860658213699584/X9aU4wJN.jpeg
p2818
sg47
I00
sg48
V333333
p2819
sg50
g2816
sg51
g2800
sg52
g2801
sg53
I3153
sg54
VFFFFFF
p2820
sg56
V2329624993
p2821
sg58
VC0DEED
p2822
sg60
I52
sg61
I00
sg62
I-28800
sg63
I49470
sg32
VWe promote  UR #vape and products through http://t.co/QBCbrsEVse - visit our other Twitter handles @528Canna and @528Marketing - email contact@528marketing.com
p2823
sg65
I2387
sg66
VThe wolrd of vape
p2824
sg68
V0084B4
p2825
sg70
Vhttp://pbs.twimg.com/profile_images/469861227854708736/VMPEysjY_normal.jpeg
p2826
sg72
I00
sg73
I00
sg74
Vhttps://pbs.twimg.com/profile_banners/2329624993/1400858521
p2827
sg76
Vhttp://pbs.twimg.com/profile_background_images/469860658213699584/X9aU4wJN.jpeg
p2828
sg78
V528vape
p2829
sg80
Ven
p2830
sg82
I01
sg83
I444
sg84
V528vape
p2831
sg86
I00
sg87
Vhttp://t.co/GPmOGK0Cc5
p2832
sg88
VThu Feb 06 01:30:14 +0000 2014
p2833
sg90
I00
sg91
VPacific Time (US & Canada)
p2834
sg93
I00
sg94
I00
sg95
I00
ssg96
I00
sg97
g2819
sg98
I3153
sg99
g2820
sg100
g2821
sg101
I00
sg102
I52
sg103
I00
sg104
I-28800
sg105
I49470
sg106
g2823
sg107
I2387
sg108
g2824
sg109
g2825
sg110
g2826
sg111
I00
sg112
I00
sg113
g2822
sg114
g2827
sg115
g2828
sg116
g2829
sg117
g2830
sg118
I00
sg119
I01
sg120
I444
sg121
g2831
sg122
g2832
sg123
g124
(S'\x07\xde\x02\x06\x01\x1e\x0e\x00\x00\x00'
p2835
tp2836
Rp2837
sg128
g2818
sg129
g2834
sg130
I00
sg131
I00
sg132
I00
sbsg133
Nsg28
L661595996225323008L
sg134
I0
sg135
Vtwitterfeed
p2838
sg117
Ven
p2839
sg138
g2798
sg123
g124
(S'\x07\xdf\x0b\x03\x11\x1d\x0c\x00\x00\x00'
p2840
tp2841
Rp2842
sg38
(dp2843
g143
Nsg144
I00
sg145
g2795
sg146
I00
sg147
Nsg44
L661595996225323008L
sg148
I0
sg149
V<a href="http://twitterfeed.com" rel="nofollow">twitterfeed</a>
p2844
sg151
I00
sg152
Nsg52
(dp2845
g154
(lp2846
(dp2847
g157
(lp2848
I0
aI5
asg145
VVPCO
p2849
sa(dp2850
g157
(lp2851
I18
aI23
asg145
VVPCO
p2852
sasg160
(lp2853
sg162
(lp2854
sg34
(lp2855
(dp2856
g87
Vhttps://t.co/r9K7dWBqKl
p2857
sg157
(lp2858
I81
aI104
asg242
Vhttp://bit.ly/1ROQSaC
p2859
sg244
Vbit.ly/1ROQSaC
p2860
sassg165
Nsg166
Nsg167
I0
sg56
V661595996225323008
p2861
sg169
I00
sg170
g2817
sg171
Nsg172
Nsg431
I00
sg80
g2839
sg88
VTue Nov 03 17:29:12 +0000 2015
p2862
sg174
Nsg175
Nsg176
(dp2863
g178
Ven
p2864
sg180
Vrecent
p2865
sssg182
g2863
sg183
Nsg184
Nsg30
g2845
sg185
Nsg186
Nsg100
g2861
sg187
I00
sg188
Nsg189
I0
sg190
Nsbag0
(g4
g5
Ntp2866
Rp2867
(dp2868
g9
I00
sg10
Nsg11
I00
sg12
V$VPCO .45 u 18%
p2869
sg14
Vhttp://twitter.com
p2870
sg16
I00
sg17
Nsg18
g0
(g19
g5
Ntp2871
Rp2872
(dp2873
g23
I00
sg24
I00
sg25
I01
sg26
VEFEFEF
p2874
sg28
I122072130
sg29
I00
sg30
(dp2875
g87
(dp2876
g34
(lp2877
(dp2878
g87
Vhttp://t.co/0xXsmyFs8T
p2879
sg157
(lp2880
I0
aI22
asg242
Vhttp://investorshub.advfn.com/boards/profilea.aspx?user=171582
p2881
sg244
Vinvestorshub.advfn.com/boards/profile\u2026
p2882
sassg32
(dp2883
g34
(lp2884
sssg36
Vhttps://pbs.twimg.com/profile_images/1515200732/buy-cheap-stocks-300x300_normal.jpg
p2885
sg38
(dp2886
g40
I00
sg41
I00
sg42
I01
sg43
I00
sg44
I122072130
sg45
Vhttps://pbs.twimg.com/profile_background_images/333545682/money.jpg
p2887
sg47
I00
sg48
V333333
p2888
sg50
g2885
sg51
g2874
sg52
g2875
sg53
I1876
sg54
VEEEEEE
p2889
sg56
V122072130
p2890
sg58
V131516
p2891
sg60
I33
sg61
I00
sg62
I-18000
sg63
I2695
sg32
VI'm A Day Trader Who Loves To Find Bottom Penny Stocks And Alert Them BEFORE They Bounce... Focusing On Small and Micro Cap $tocks.
p2892
sg65
I76
sg66
VMiami, Florida
p2893
sg68
V009999
p2894
sg70
Vhttp://pbs.twimg.com/profile_images/1515200732/buy-cheap-stocks-300x300_normal.jpg
p2895
sg72
I00
sg73
I00
sg76
Vhttp://pbs.twimg.com/profile_background_images/333545682/money.jpg
p2896
sg78
VRubenstiener
p2897
sg80
Ven
p2898
sg82
I01
sg83
I0
sg84
VRubenstien
p2899
sg86
I00
sg87
Vhttp://t.co/0xXsmyFs8T
p2900
sg88
VThu Mar 11 14:08:01 +0000 2010
p2901
sg90
I00
sg91
VEastern Time (US & Canada)
p2902
sg93
I00
sg94
I00
sg95
I00
ssg96
I00
sg97
g2888
sg98
I1876
sg99
g2889
sg100
g2890
sg101
I00
sg102
I33
sg103
I00
sg104
I-18000
sg105
I2695
sg106
g2892
sg107
I76
sg108
g2893
sg109
g2894
sg110
g2895
sg111
I00
sg112
I00
sg113
g2891
sg115
g2896
sg116
g2897
sg117
g2898
sg118
I00
sg119
I01
sg120
I0
sg121
g2899
sg122
g2900
sg123
g124
(S'\x07\xda\x03\x0b\x0e\x08\x01\x00\x00\x00'
p2903
tp2904
Rp2905
sg128
g2887
sg129
g2902
sg130
I00
sg131
I00
sg132
I00
sbsg133
Nsg28
L661593085131038720L
sg134
I0
sg135
VTwitter Web Client
p2906
sg117
Vnl
p2907
sg138
g2872
sg123
g124
(S'\x07\xdf\x0b\x03\x11\x11%\x00\x00\x00'
p2908
tp2909
Rp2910
sg38
(dp2911
g143
Nsg144
I00
sg145
g2869
sg146
I00
sg147
Nsg44
L661593085131038720L
sg148
I0
sg149
V<a href="http://twitter.com" rel="nofollow">Twitter Web Client</a>
p2912
sg151
I00
sg152
Nsg52
(dp2913
g154
(lp2914
(dp2915
g157
(lp2916
I0
aI5
asg145
VVPCO
p2917
sasg160
(lp2918
sg162
(lp2919
sg34
(lp2920
ssg165
Nsg166
Nsg167
I0
sg56
V661593085131038720
p2921
sg169
I00
sg170
g2886
sg171
Nsg172
Nsg80
g2907
sg88
VTue Nov 03 17:17:37 +0000 2015
p2922
sg174
Nsg175
Nsg176
(dp2923
g178
Vnl
p2924
sg180
Vrecent
p2925
sssg182
g2923
sg183
Nsg184
Nsg30
g2913
sg185
Nsg186
Nsg100
g2921
sg187
I00
sg188
Nsg189
I0
sg190
Nsbag0
(g4
g5
Ntp2926
Rp2927
(dp2928
g9
I00
sg10
Nsg11
I00
sg12
V$VPCO :)
p2929
sg14
Vhttp://twitter.com
p2930
sg16
I00
sg17
Nsg18
g0
(g19
g5
Ntp2931
Rp2932
(dp2933
g23
I00
sg24
I00
sg25
I01
sg26
VEFEFEF
p2934
sg28
I40300931
sg29
I00
sg30
(dp2935
g32
(dp2936
g34
(lp2937
sssg36
Vhttps://pbs.twimg.com/profile_images/378800000674553843/63d8ac759dadf15bbec333467faa8e37_normal.jpeg
p2938
sg38
(dp2939
g40
I00
sg41
I00
sg42
I01
sg43
I00
sg44
I40300931
sg45
Vhttps://pbs.twimg.com/profile_background_images/795542208/d332ed6071ae26fd3fb75c17b212399d.jpeg
p2940
sg47
I00
sg48
V333333
p2941
sg50
g2938
sg51
g2934
sg52
g2935
sg53
I3885
sg54
VFFFFFF
p2942
sg56
V40300931
p2943
sg58
V131516
p2944
sg60
I117
sg61
I00
sg62
I-18000
sg63
I17955
sg32
VTrading Full Time  All tweets are my personal opinion \u000aDo your own DD to Buy or Sell Stocks\u000a       Always Looking At New Business Ideas
p2945
sg65
I1735
sg66
VAll AROUND THE WORLD
p2946
sg68
V009999
p2947
sg70
Vhttp://pbs.twimg.com/profile_images/378800000674553843/63d8ac759dadf15bbec333467faa8e37_normal.jpeg
p2948
sg72
I00
sg73
I01
sg74
Vhttps://pbs.twimg.com/profile_banners/40300931/1405878637
p2949
sg76
Vhttp://pbs.twimg.com/profile_background_images/795542208/d332ed6071ae26fd3fb75c17b212399d.jpeg
p2950
sg78
VMONEYEMPIRE
p2951
sg80
Ven
p2952
sg82
I01
sg83
I2117
sg84
VMoneyEmpire
p2953
sg86
I00
sg87
Nsg88
VFri May 15 18:30:57 +0000 2009
p2954
sg90
I00
sg91
VEastern Time (US & Canada)
p2955
sg93
I00
sg94
I00
sg95
I00
ssg96
I00
sg97
g2941
sg98
I3885
sg99
g2942
sg100
g2943
sg101
I00
sg102
I117
sg103
I00
sg104
I-18000
sg105
I17955
sg106
VTrading Full Time  All tweets are my personal opinion \u000aDo your own DD to Buy or Sell Stocks\u000a       Always Looking At New Business Ideas
p2956
sg107
I1735
sg108
g2946
sg109
g2947
sg110
g2948
sg111
I00
sg112
I01
sg113
g2944
sg114
g2949
sg115
g2950
sg116
g2951
sg117
g2952
sg118
I00
sg119
I01
sg120
I2117
sg121
g2953
sg122
Nsg123
g124
(S'\x07\xd9\x05\x0f\x12\x1e9\x00\x00\x00'
p2957
tp2958
Rp2959
sg128
g2940
sg129
g2955
sg130
I00
sg131
I00
sg132
I00
sbsg133
Nsg28
L661592430777647104L
sg134
I0
sg135
VTwitter Web Client
p2960
sg117
Vnl
p2961
sg138
g2932
sg123
g124
(S'\x07\xdf\x0b\x03\x11\x0f\x01\x00\x00\x00'
p2962
tp2963
Rp2964
sg38
(dp2965
g143
Nsg144
I00
sg145
g2929
sg146
I00
sg147
Nsg44
L661592430777647104L
sg148
I0
sg149
V<a href="http://twitter.com" rel="nofollow">Twitter Web Client</a>
p2966
sg151
I00
sg152
Nsg52
(dp2967
g154
(lp2968
(dp2969
g157
(lp2970
I0
aI5
asg145
VVPCO
p2971
sasg160
(lp2972
sg162
(lp2973
sg34
(lp2974
ssg165
Nsg166
Nsg167
I0
sg56
V661592430777647104
p2975
sg169
I00
sg170
g2939
sg171
Nsg172
Nsg80
g2961
sg88
VTue Nov 03 17:15:01 +0000 2015
p2976
sg174
Nsg175
Nsg176
(dp2977
g178
Vnl
p2978
sg180
Vrecent
p2979
sssg182
g2977
sg183
Nsg184
Nsg30
g2967
sg185
Nsg186
Nsg100
g2975
sg187
I00
sg188
Nsg189
I0
sg190
Nsbag0
(g4
g5
Ntp2980
Rp2981
(dp2982
g9
I00
sg10
Nsg11
I00
sg12
V$VPCO .43 keep on watch.. loading
p2983
sg14
Vhttp://twitter.com
p2984
sg16
I00
sg17
Nsg18
g0
(g19
g5
Ntp2985
Rp2986
(dp2987
g23
I00
sg24
I00
sg25
I01
sg26
VEFEFEF
p2988
sg28
I122072130
sg29
I00
sg30
(dp2989
g87
(dp2990
g34
(lp2991
(dp2992
g87
Vhttp://t.co/0xXsmyFs8T
p2993
sg157
(lp2994
I0
aI22
asg242
Vhttp://investorshub.advfn.com/boards/profilea.aspx?user=171582
p2995
sg244
Vinvestorshub.advfn.com/boards/profile\u2026
p2996
sassg32
(dp2997
g34
(lp2998
sssg36
Vhttps://pbs.twimg.com/profile_images/1515200732/buy-cheap-stocks-300x300_normal.jpg
p2999
sg38
(dp3000
g40
I00
sg41
I00
sg42
I01
sg43
I00
sg44
I122072130
sg45
Vhttps://pbs.twimg.com/profile_background_images/333545682/money.jpg
p3001
sg47
I00
sg48
V333333
p3002
sg50
g2999
sg51
g2988
sg52
g2989
sg53
I1876
sg54
VEEEEEE
p3003
sg56
V122072130
p3004
sg58
V131516
p3005
sg60
I33
sg61
I00
sg62
I-18000
sg63
I2695
sg32
VI'm A Day Trader Who Loves To Find Bottom Penny Stocks And Alert Them BEFORE They Bounce... Focusing On Small and Micro Cap $tocks.
p3006
sg65
I76
sg66
VMiami, Florida
p3007
sg68
V009999
p3008
sg70
Vhttp://pbs.twimg.com/profile_images/1515200732/buy-cheap-stocks-300x300_normal.jpg
p3009
sg72
I00
sg73
I00
sg76
Vhttp://pbs.twimg.com/profile_background_images/333545682/money.jpg
p3010
sg78
VRubenstiener
p3011
sg80
Ven
p3012
sg82
I01
sg83
I0
sg84
VRubenstien
p3013
sg86
I00
sg87
Vhttp://t.co/0xXsmyFs8T
p3014
sg88
VThu Mar 11 14:08:01 +0000 2010
p3015
sg90
I00
sg91
VEastern Time (US & Canada)
p3016
sg93
I00
sg94
I00
sg95
I00
ssg96
I00
sg97
g3002
sg98
I1876
sg99
g3003
sg100
g3004
sg101
I00
sg102
I33
sg103
I00
sg104
I-18000
sg105
I2695
sg106
g3006
sg107
I76
sg108
g3007
sg109
g3008
sg110
g3009
sg111
I00
sg112
I00
sg113
g3005
sg115
g3010
sg116
g3011
sg117
g3012
sg118
I00
sg119
I01
sg120
I0
sg121
g3013
sg122
g3014
sg123
g124
(S'\x07\xda\x03\x0b\x0e\x08\x01\x00\x00\x00'
p3017
tp3018
Rp3019
sg128
g3001
sg129
g3016
sg130
I00
sg131
I00
sg132
I00
sbsg133
Nsg28
L661574707888726018L
sg134
I0
sg135
VTwitter Web Client
p3020
sg117
Ven
p3021
sg138
g2986
sg123
g124
(S'\x07\xdf\x0b\x03\x10\x04$\x00\x00\x00'
p3022
tp3023
Rp3024
sg38
(dp3025
g143
Nsg144
I00
sg145
g2983
sg146
I00
sg147
Nsg44
L661574707888726018L
sg148
I0
sg149
V<a href="http://twitter.com" rel="nofollow">Twitter Web Client</a>
p3026
sg151
I00
sg152
Nsg52
(dp3027
g154
(lp3028
(dp3029
g157
(lp3030
I0
aI5
asg145
VVPCO
p3031
sasg160
(lp3032
sg162
(lp3033
sg34
(lp3034
ssg165
Nsg166
Nsg167
I0
sg56
V661574707888726018
p3035
sg169
I00
sg170
g3000
sg171
Nsg172
Nsg80
g3021
sg88
VTue Nov 03 16:04:36 +0000 2015
p3036
sg174
Nsg175
Nsg176
(dp3037
g178
Ven
p3038
sg180
Vrecent
p3039
sssg182
g3037
sg183
Nsg184
Nsg30
g3027
sg185
Nsg186
Nsg100
g3035
sg187
I00
sg188
Nsg189
I0
sg190
Nsbag0
(g4
g5
Ntp3040
Rp3041
(dp3042
g9
I00
sg10
Nsg11
I00
sg12
V$VPCO Big_Mike: I am curious to know why the stock: Big_Mike https://t.co/HgMO60Othb
p3043
sg14
Vhttp://twitterfeed.com
p3044
sg368
I00
sg16
I00
sg17
Nsg18
g0
(g19
g5
Ntp3045
Rp3046
(dp3047
g23
I00
sg24
I00
sg25
I01
sg26
VDDEEF6
p3048
sg28
L2329624993L
sg29
I00
sg30
(dp3049
g87
(dp3050
g34
(lp3051
(dp3052
g87
Vhttp://t.co/GPmOGK0Cc5
p3053
sg157
(lp3054
I0
aI22
asg242
Vhttp://528marketing.com/we-can-help-distribute-your-cannabis-or-vape-products-to-c-stores/
p3055
sg244
V528marketing.com/we-can-help-di\u2026
p3056
sassg32
(dp3057
g34
(lp3058
(dp3059
g87
Vhttp://t.co/QBCbrsEVse
p3060
sg157
(lp3061
I42
aI64
asg242
Vhttp://528Marketing.com
p3062
sg244
V528Marketing.com
p3063
sasssg36
Vhttps://pbs.twimg.com/profile_images/469861227854708736/VMPEysjY_normal.jpeg
p3064
sg38
(dp3065
g40
I00
sg41
I00
sg42
I01
sg43
I00
sg44
L2329624993L
sg45
Vhttps://pbs.twimg.com/profile_background_images/469860658213699584/X9aU4wJN.jpeg
p3066
sg47
I00
sg48
V333333
p3067
sg50
g3064
sg51
g3048
sg52
g3049
sg53
I3153
sg54
VFFFFFF
p3068
sg56
V2329624993
p3069
sg58
VC0DEED
p3070
sg60
I52
sg61
I00
sg62
I-28800
sg63
I49470
sg32
VWe promote  UR #vape and products through http://t.co/QBCbrsEVse - visit our other Twitter handles @528Canna and @528Marketing - email contact@528marketing.com
p3071
sg65
I2387
sg66
VThe wolrd of vape
p3072
sg68
V0084B4
p3073
sg70
Vhttp://pbs.twimg.com/profile_images/469861227854708736/VMPEysjY_normal.jpeg
p3074
sg72
I00
sg73
I00
sg74
Vhttps://pbs.twimg.com/profile_banners/2329624993/1400858521
p3075
sg76
Vhttp://pbs.twimg.com/profile_background_images/469860658213699584/X9aU4wJN.jpeg
p3076
sg78
V528vape
p3077
sg80
Ven
p3078
sg82
I01
sg83
I444
sg84
V528vape
p3079
sg86
I00
sg87
Vhttp://t.co/GPmOGK0Cc5
p3080
sg88
VThu Feb 06 01:30:14 +0000 2014
p3081
sg90
I00
sg91
VPacific Time (US & Canada)
p3082
sg93
I00
sg94
I00
sg95
I00
ssg96
I00
sg97
g3067
sg98
I3153
sg99
g3068
sg100
g3069
sg101
I00
sg102
I52
sg103
I00
sg104
I-28800
sg105
I49470
sg106
g3071
sg107
I2387
sg108
g3072
sg109
g3073
sg110
g3074
sg111
I00
sg112
I00
sg113
g3070
sg114
g3075
sg115
g3076
sg116
g3077
sg117
g3078
sg118
I00
sg119
I01
sg120
I444
sg121
g3079
sg122
g3080
sg123
g124
(S'\x07\xde\x02\x06\x01\x1e\x0e\x00\x00\x00'
p3083
tp3084
Rp3085
sg128
g3066
sg129
g3082
sg130
I00
sg131
I00
sg132
I00
sbsg133
Nsg28
L661573498381316096L
sg134
I0
sg135
Vtwitterfeed
p3086
sg117
Ven
p3087
sg138
g3046
sg123
g124
(S'\x07\xdf\x0b\x03\x0f;0\x00\x00\x00'
p3088
tp3089
Rp3090
sg38
(dp3091
g143
Nsg144
I00
sg145
g3043
sg146
I00
sg147
Nsg44
L661573498381316096L
sg148
I0
sg149
V<a href="http://twitterfeed.com" rel="nofollow">twitterfeed</a>
p3092
sg151
I00
sg152
Nsg52
(dp3093
g154
(lp3094
(dp3095
g157
(lp3096
I0
aI5
asg145
VVPCO
p3097
sasg160
(lp3098
sg162
(lp3099
sg34
(lp3100
(dp3101
g87
Vhttps://t.co/HgMO60Othb
p3102
sg157
(lp3103
I61
aI84
asg242
Vhttp://bit.ly/1kpjCfa
p3104
sg244
Vbit.ly/1kpjCfa
p3105
sassg165
Nsg166
Nsg167
I0
sg56
V661573498381316096
p3106
sg169
I00
sg170
g3065
sg171
Nsg172
Nsg431
I00
sg80
g3087
sg88
VTue Nov 03 15:59:48 +0000 2015
p3107
sg174
Nsg175
Nsg176
(dp3108
g178
Ven
p3109
sg180
Vrecent
p3110
sssg182
g3108
sg183
Nsg184
Nsg30
g3093
sg185
Nsg186
Nsg100
g3106
sg187
I00
sg188
Nsg189
I0
sg190
Nsbag0
(g4
g5
Ntp3111
Rp3112
(dp3113
g9
I00
sg10
Nsg11
I00
sg12
VTop #Stocks Tuesday - $BNSO $XOMA $AEZS $UNT $BCEI $SANM $CNNX $MCEP $SGY $GUID $SALE $KING $ARO $PQ $VPCO $PLM $NLS https://t.co/u3ZqDS6qxQ
p3114
sg14
Vhttp://twitter.com
p3115
sg368
I00
sg16
I00
sg17
Nsg18
g0
(g19
g5
Ntp3116
Rp3117
(dp3118
g23
I00
sg24
I00
sg25
I01
sg26
V252429
p3119
sg28
I37564410
sg29
I00
sg30
(dp3120
g87
(dp3121
g34
(lp3122
(dp3123
g87
Vhttp://t.co/S83XxW4FGJ
p3124
sg157
(lp3125
I0
aI22
asg242
Vhttp://stockstobuy.org/group/stock-picks
p3126
sg244
Vstockstobuy.org/group/stock-pi\u2026
p3127
sassg32
(dp3128
g34
(lp3129
sssg36
Vhttps://pbs.twimg.com/profile_images/378800000197803461/4f19ef2dbfad971cc6c8cec5c15f4f73_normal.jpeg
p3130
sg38
(dp3131
g40
I00
sg41
I00
sg42
I01
sg43
I00
sg44
I37564410
sg45
Vhttps://abs.twimg.com/images/themes/theme9/bg.gif
p3132
sg47
I00
sg48
V666666
p3133
sg50
g3130
sg51
g3119
sg52
g3120
sg53
I13604
sg54
V181A1E
p3134
sg56
V37564410
p3135
sg58
V1A1B1F
p3136
sg60
I249
sg61
I00
sg62
I-18000
sg63
I106726
sg32
VThe official Twitter page of Stocks to Buy, a resource for stock picks, penny stocks, and general stock market news - Stocks to Buy - $TWTR $SHAK $NDLS $TSLA
p3137
sg65
I31
sg66
VSoutheast Pennsylvania 
p3138
sg68
V2FC2EF
p3139
sg70
Vhttp://pbs.twimg.com/profile_images/378800000197803461/4f19ef2dbfad971cc6c8cec5c15f4f73_normal.jpeg
p3140
sg72
I00
sg73
I00
sg74
Vhttps://pbs.twimg.com/profile_banners/37564410/1398201526
p3141
sg76
Vhttp://abs.twimg.com/images/themes/theme9/bg.gif
p3142
sg78
Vstockstobuy
p3143
sg80
Ven
p3144
sg82
I00
sg83
I727
sg84
VStocks to Buy
p3145
sg86
I00
sg87
Vhttp://t.co/S83XxW4FGJ
p3146
sg88
VMon May 04 01:54:59 +0000 2009
p3147
sg90
I00
sg91
VEastern Time (US & Canada)
p3148
sg93
I00
sg94
I00
sg95
I00
ssg96
I00
sg97
g3133
sg98
I13604
sg99
g3134
sg100
g3135
sg101
I00
sg102
I249
sg103
I00
sg104
I-18000
sg105
I106726
sg106
g3137
sg107
I31
sg108
g3138
sg109
g3139
sg110
g3140
sg111
I00
sg112
I00
sg113
g3136
sg114
g3141
sg115
g3142
sg116
g3143
sg117
g3144
sg118
I00
sg119
I00
sg120
I727
sg121
g3145
sg122
g3146
sg123
g124
(S'\x07\xd9\x05\x04\x016;\x00\x00\x00'
p3149
tp3150
Rp3151
sg128
g3132
sg129
g3148
sg130
I00
sg131
I00
sg132
I00
sbsg133
Nsg28
L661568282751664130L
sg134
I0
sg135
VTwitter Web Client
p3152
sg117
Ven
p3153
sg138
g3117
sg123
g124
(S"\x07\xdf\x0b\x03\x0f'\x04\x00\x00\x00"
p3154
tp3155
Rp3156
sg38
(dp3157
g143
Nsg144
I00
sg145
g3114
sg146
I00
sg147
Nsg44
L661568282751664130L
sg148
I0
sg149
V<a href="http://twitter.com" rel="nofollow">Twitter Web Client</a>
p3158
sg151
I00
sg152
Nsg52
(dp3159
g154
(lp3160
(dp3161
g157
(lp3162
I22
aI27
asg145
VBNSO
p3163
sa(dp3164
g157
(lp3165
I28
aI33
asg145
VXOMA
p3166
sa(dp3167
g157
(lp3168
I34
aI39
asg145
VAEZS
p3169
sa(dp3170
g157
(lp3171
I40
aI44
asg145
VUNT
p3172
sa(dp3173
g157
(lp3174
I45
aI50
asg145
VBCEI
p3175
sa(dp3176
g157
(lp3177
I51
aI56
asg145
VSANM
p3178
sa(dp3179
g157
(lp3180
I57
aI62
asg145
VCNNX
p3181
sa(dp3182
g157
(lp3183
I63
aI68
asg145
VMCEP
p3184
sa(dp3185
g157
(lp3186
I69
aI73
asg145
VSGY
p3187
sa(dp3188
g157
(lp3189
I74
aI79
asg145
VGUID
p3190
sa(dp3191
g157
(lp3192
I80
aI85
asg145
VSALE
p3193
sa(dp3194
g157
(lp3195
I86
aI91
asg145
VKING
p3196
sa(dp3197
g157
(lp3198
I92
aI96
asg145
VARO
p3199
sa(dp3200
g157
(lp3201
I97
aI100
asg145
VPQ
p3202
sa(dp3203
g157
(lp3204
I101
aI106
asg145
VVPCO
p3205
sa(dp3206
g157
(lp3207
I107
aI111
asg145
VPLM
p3208
sa(dp3209
g157
(lp3210
I112
aI116
asg145
VNLS
p3211
sasg160
(lp3212
sg162
(lp3213
(dp3214
g157
(lp3215
I4
aI11
asg145
VStocks
p3216
sasg34
(lp3217
(dp3218
g87
Vhttps://t.co/u3ZqDS6qxQ
p3219
sg157
(lp3220
I117
aI140
asg242
Vhttp://www.stockstobuy.org/forum/topics/top-stocks-november-3-2015-biggest-stock-gainers
p3221
sg244
Vstockstobuy.org/forum/topics/t\u2026
p3222
sassg165
Nsg166
Nsg167
I0
sg56
V661568282751664130
p3223
sg169
I00
sg170
g3131
sg171
Nsg172
Nsg431
I00
sg80
g3153
sg88
VTue Nov 03 15:39:04 +0000 2015
p3224
sg174
Nsg175
Nsg176
(dp3225
g178
Ven
p3226
sg180
Vrecent
p3227
sssg182
g3225
sg183
Nsg184
Nsg30
g3159
sg185
Nsg186
Nsg100
g3223
sg187
I00
sg188
Nsg189
I0
sg190
Nsbag0
(g4
g5
Ntp3228
Rp3229
(dp3230
g9
I00
sg10
Nsg11
I00
sg12
V$VPCO .42 up 10% oversold weed play $MJNA $HEMP
p3231
sg14
Vhttp://twitter.com
p3232
sg16
I00
sg17
Nsg18
g0
(g19
g5
Ntp3233
Rp3234
(dp3235
g23
I00
sg24
I00
sg25
I01
sg26
VEFEFEF
p3236
sg28
I122072130
sg29
I00
sg30
(dp3237
g87
(dp3238
g34
(lp3239
(dp3240
g87
Vhttp://t.co/0xXsmyFs8T
p3241
sg157
(lp3242
I0
aI22
asg242
Vhttp://investorshub.advfn.com/boards/profilea.aspx?user=171582
p3243
sg244
Vinvestorshub.advfn.com/boards/profile\u2026
p3244
sassg32
(dp3245
g34
(lp3246
sssg36
Vhttps://pbs.twimg.com/profile_images/1515200732/buy-cheap-stocks-300x300_normal.jpg
p3247
sg38
(dp3248
g40
I00
sg41
I00
sg42
I01
sg43
I00
sg44
I122072130
sg45
Vhttps://pbs.twimg.com/profile_background_images/333545682/money.jpg
p3249
sg47
I00
sg48
V333333
p3250
sg50
g3247
sg51
g3236
sg52
g3237
sg53
I1876
sg54
VEEEEEE
p3251
sg56
V122072130
p3252
sg58
V131516
p3253
sg60
I33
sg61
I00
sg62
I-18000
sg63
I2695
sg32
VI'm A Day Trader Who Loves To Find Bottom Penny Stocks And Alert Them BEFORE They Bounce... Focusing On Small and Micro Cap $tocks.
p3254
sg65
I76
sg66
VMiami, Florida
p3255
sg68
V009999
p3256
sg70
Vhttp://pbs.twimg.com/profile_images/1515200732/buy-cheap-stocks-300x300_normal.jpg
p3257
sg72
I00
sg73
I00
sg76
Vhttp://pbs.twimg.com/profile_background_images/333545682/money.jpg
p3258
sg78
VRubenstiener
p3259
sg80
Ven
p3260
sg82
I01
sg83
I0
sg84
VRubenstien
p3261
sg86
I00
sg87
Vhttp://t.co/0xXsmyFs8T
p3262
sg88
VThu Mar 11 14:08:01 +0000 2010
p3263
sg90
I00
sg91
VEastern Time (US & Canada)
p3264
sg93
I00
sg94
I00
sg95
I00
ssg96
I00
sg97
g3250
sg98
I1876
sg99
g3251
sg100
g3252
sg101
I00
sg102
I33
sg103
I00
sg104
I-18000
sg105
I2695
sg106
g3254
sg107
I76
sg108
g3255
sg109
g3256
sg110
g3257
sg111
I00
sg112
I00
sg113
g3253
sg115
g3258
sg116
g3259
sg117
g3260
sg118
I00
sg119
I01
sg120
I0
sg121
g3261
sg122
g3262
sg123
g124
(S'\x07\xda\x03\x0b\x0e\x08\x01\x00\x00\x00'
p3265
tp3266
Rp3267
sg128
g3249
sg129
g3264
sg130
I00
sg131
I00
sg132
I00
sbsg133
Nsg28
L661563374099132416L
sg134
I0
sg135
VTwitter Web Client
p3268
sg117
Vnl
p3269
sg138
g3234
sg123
g124
(S'\x07\xdf\x0b\x03\x0f\x13"\x00\x00\x00'
p3270
tp3271
Rp3272
sg38
(dp3273
g143
Nsg144
I00
sg145
g3231
sg146
I00
sg147
Nsg44
L661563374099132416L
sg148
I0
sg149
V<a href="http://twitter.com" rel="nofollow">Twitter Web Client</a>
p3274
sg151
I00
sg152
Nsg52
(dp3275
g154
(lp3276
(dp3277
g157
(lp3278
I0
aI5
asg145
VVPCO
p3279
sa(dp3280
g157
(lp3281
I36
aI41
asg145
VMJNA
p3282
sa(dp3283
g157
(lp3284
I42
aI47
asg145
VHEMP
p3285
sasg160
(lp3286
sg162
(lp3287
sg34
(lp3288
ssg165
Nsg166
Nsg167
I0
sg56
V661563374099132416
p3289
sg169
I00
sg170
g3248
sg171
Nsg172
Nsg80
g3269
sg88
VTue Nov 03 15:19:34 +0000 2015
p3290
sg174
Nsg175
Nsg176
(dp3291
g178
Vnl
p3292
sg180
Vrecent
p3293
sssg182
g3291
sg183
Nsg184
Nsg30
g3275
sg185
Nsg186
Nsg100
g3289
sg187
I00
sg188
Nsg189
I0
sg190
Nsbag0
(g4
g5
Ntp3294
Rp3295
(dp3296
g9
I00
sg10
Nsg11
I00
sg12
V$VPCO nice move.
p3297
sg14
Vhttp://twitter.com/download/iphone
p3298
sg16
I00
sg17
Nsg18
g0
(g19
g5
Ntp3299
Rp3300
(dp3301
g23
I00
sg24
I00
sg25
I01
sg26
VDDEEF6
p3302
sg28
I181649370
sg29
I00
sg30
(dp3303
g32
(dp3304
g34
(lp3305
sssg36
Vhttps://pbs.twimg.com/profile_images/1114301657/twitter_profile_normal.jpg
p3306
sg38
(dp3307
g40
I00
sg41
I00
sg42
I01
sg43
I00
sg44
I181649370
sg45
Vhttps://abs.twimg.com/images/themes/theme1/bg.png
p3308
sg47
I00
sg48
V333333
p3309
sg50
g3306
sg51
g3302
sg52
g3303
sg53
I30
sg54
VC0DEED
p3310
sg56
V181649370
p3311
sg58
VC0DEED
p3312
sg60
I2
sg61
I00
sg62
I-28800
sg63
I88
sg32
g256
sg65
I44
sg66
VOrange County, CA
p3313
sg68
V0084B4
p3314
sg70
Vhttp://pbs.twimg.com/profile_images/1114301657/twitter_profile_normal.jpg
p3315
sg72
I00
sg73
I00
sg74
Vhttps://pbs.twimg.com/profile_banners/181649370/1430323808
p3316
sg76
Vhttp://abs.twimg.com/images/themes/theme1/bg.png
p3317
sg78
VFollowClive
p3318
sg80
Ven
p3319
sg82
I00
sg83
I24
sg84
VClive Chris Kwak
p3320
sg86
I00
sg87
Nsg88
VSun Aug 22 18:47:11 +0000 2010
p3321
sg90
I00
sg91
VPacific Time (US & Canada)
p3322
sg93
I00
sg94
I01
sg95
I00
ssg96
I00
sg97
g3309
sg98
I30
sg99
g3310
sg100
g3311
sg101
I00
sg102
I2
sg103
I00
sg104
I-28800
sg105
I88
sg106
g256
sg107
I44
sg108
g3313
sg109
g3314
sg110
g3315
sg111
I00
sg112
I00
sg113
g3312
sg114
g3316
sg115
g3317
sg116
g3318
sg117
g3319
sg118
I00
sg119
I00
sg120
I24
sg121
g3320
sg122
Nsg123
g124
(S'\x07\xda\x08\x16\x12/\x0b\x00\x00\x00'
p3323
tp3324
Rp3325
sg128
g3308
sg129
g3322
sg130
I00
sg131
I01
sg132
I00
sbsg133
Nsg28
L661559487606591490L
sg134
I0
sg135
VTwitter for iPhone
p3326
sg117
Vnl
p3327
sg138
g3300
sg123
g124
(S'\x07\xdf\x0b\x03\x0f\x04\x07\x00\x00\x00'
p3328
tp3329
Rp3330
sg38
(dp3331
g143
Nsg144
I00
sg145
g3297
sg146
I00
sg147
Nsg44
L661559487606591490L
sg148
I0
sg149
V<a href="http://twitter.com/download/iphone" rel="nofollow">Twitter for iPhone</a>
p3332
sg151
I00
sg152
Nsg52
(dp3333
g154
(lp3334
(dp3335
g157
(lp3336
I0
aI5
asg145
VVPCO
p3337
sasg160
(lp3338
sg162
(lp3339
sg34
(lp3340
ssg165
Nsg166
Nsg167
I0
sg56
V661559487606591490
p3341
sg169
I00
sg170
g3307
sg171
Nsg172
Nsg80
g3327
sg88
VTue Nov 03 15:04:07 +0000 2015
p3342
sg174
Nsg175
Nsg176
(dp3343
g178
Vnl
p3344
sg180
Vrecent
p3345
sssg182
g3343
sg183
Nsg184
Nsg30
g3333
sg185
Nsg186
Nsg100
g3341
sg187
I00
sg188
Nsg189
I0
sg190
Nsbag0
(g4
g5
Ntp3346
Rp3347
(dp3348
g9
I00
sg10
Nsg11
I00
sg12
VRT @VapesMj: RT #News $MDBX $CNAB, $ERBB, $GRNH, $HEMP $HPNN $LATF $MJNA $PLPL $VAPE $VAPR $VPCO Ohio residents will decide today\u000ahttps://t\u2026
p3349
sg14
Vhttp://twitter.com/download/iphone
p3350
sg368
I00
sg16
I00
sg17
Nsg18
g0
(g19
g5
Ntp3351
Rp3352
(dp3353
g23
I00
sg24
I00
sg25
I01
sg26
VDDEEF6
p3354
sg28
L2444104684L
sg29
I00
sg30
(dp3355
g32
(dp3356
g34
(lp3357
sssg36
Vhttps://pbs.twimg.com/profile_images/592809388777283584/T4HwTfb-_normal.jpg
p3358
sg38
(dp3359
g40
I00
sg41
I00
sg42
I01
sg43
I00
sg44
L2444104684L
sg45
Vhttps://abs.twimg.com/images/themes/theme1/bg.png
p3360
sg47
I00
sg48
V333333
p3361
sg50
g3358
sg51
g3354
sg52
g3355
sg53
I739
sg54
VC0DEED
p3362
sg56
V2444104684
p3363
sg58
VC0DEED
p3364
sg60
I11
sg61
I00
sg62
Nsg63
I2230
sg32
Vstay calm and trade with us always do your own reseach all tweets are our opinions
p3365
sg65
I1765
sg66
g256
sg68
V0084B4
p3366
sg70
Vhttp://pbs.twimg.com/profile_images/592809388777283584/T4HwTfb-_normal.jpg
p3367
sg72
I00
sg73
I00
sg74
Vhttps://pbs.twimg.com/profile_banners/2444104684/1430171777
p3368
sg76
Vhttp://abs.twimg.com/images/themes/theme1/bg.png
p3369
sg78
Vgreeninvestco
p3370
sg80
Ven
p3371
sg82
I00
sg83
I3551
sg84
Vgreen stocks
p3372
sg86
I00
sg87
Nsg88
VSat Mar 29 09:10:25 +0000 2014
p3373
sg90
I00
sg91
Nsg93
I00
sg94
I01
sg95
I00
ssg96
I00
sg97
g3361
sg98
I739
sg99
g3362
sg100
g3363
sg101
I00
sg102
I11
sg103
I00
sg104
Nsg105
I2230
sg106
g3365
sg107
I1765
sg108
g256
sg109
g3366
sg110
g3367
sg111
I00
sg112
I00
sg113
g3364
sg114
g3368
sg115
g3369
sg116
g3370
sg117
g3371
sg118
I00
sg119
I00
sg120
I3551
sg121
g3372
sg122
Nsg123
g124
(S'\x07\xde\x03\x1d\t\n\x19\x00\x00\x00'
p3374
tp3375
Rp3376
sg128
g3360
sg129
Nsg130
I00
sg131
I01
sg132
I00
sbsg133
Nsg28
L661552986448072704L
sg134
I0
sg135
VTwitter for iPhone
p3377
sg117
Ven
p3378
sg226
g0
(g4
g5
Ntp3379
Rp3380
(dp3381
g9
I00
sg10
Nsg11
I00
sg12
VRT #News $MDBX $CNAB, $ERBB, $GRNH, $HEMP $HPNN $LATF $MJNA $PLPL $VAPE $VAPR $VPCO Ohio residents will decide today\u000ahttps://t.co/Wn1gBoNGRJ
p3382
sg14
Vhttps://mobile.twitter.com
p3383
sg368
I00
sg16
I00
sg17
Nsg18
g0
(g19
g5
Ntp3384
Rp3385
(dp3386
g23
I00
sg24
I00
sg25
I01
sg26
VDDEEF6
p3387
sg28
I234956680
sg29
I00
sg30
(dp3388
g87
(dp3389
g34
(lp3390
(dp3391
g87
Vhttp://t.co/lIYM4BABkw
p3392
sg157
(lp3393
I0
aI22
asg242
Vhttp://marijuanaindex.com/financial-data/?qm_page=14370&qm_symbol=CBIS
p3394
sg244
Vmarijuanaindex.com/financial-data\u2026
p3395
sassg32
(dp3396
g34
(lp3397
sssg36
Vhttps://pbs.twimg.com/profile_images/653196638601801728/JPZMutpc_normal.png
p3398
sg38
(dp3399
g40
I00
sg41
I00
sg42
I01
sg43
I00
sg44
I234956680
sg45
Vhttps://pbs.twimg.com/profile_background_images/774061683/6488b0935e4d8532c058c0b94495c625.png
p3400
sg47
I00
sg48
V333333
p3401
sg50
g3398
sg51
g3387
sg52
g3388
sg53
I2234
sg54
V000000
p3402
sg56
V234956680
p3403
sg58
VC0DEED
p3404
sg60
I86
sg61
I00
sg62
I-18000
sg63
I145
sg32
g256
sg65
I3303
sg66
g256
sg68
V0084B4
p3405
sg70
Vhttp://pbs.twimg.com/profile_images/653196638601801728/JPZMutpc_normal.png
p3406
sg72
I00
sg73
I00
sg74
Vhttps://pbs.twimg.com/profile_banners/234956680/1444569188
p3407
sg76
Vhttp://pbs.twimg.com/profile_background_images/774061683/6488b0935e4d8532c058c0b94495c625.png
p3408
sg78
VVapesMj
p3409
sg80
Ven
p3410
sg82
I01
sg83
I51
sg84
VVapesMj
p3411
sg86
I00
sg87
Vhttp://t.co/lIYM4BABkw
p3412
sg88
VFri Jan 07 00:37:15 +0000 2011
p3413
sg90
I00
sg91
VEastern Time (US & Canada)
p3414
sg93
I00
sg94
I00
sg95
I00
ssg96
I00
sg97
g3401
sg98
I2234
sg99
g3402
sg100
g3403
sg101
I00
sg102
I86
sg103
I00
sg104
I-18000
sg105
I145
sg106
g256
sg107
I3303
sg108
g256
sg109
g3405
sg110
g3406
sg111
I00
sg112
I00
sg113
g3404
sg114
g3407
sg115
g3408
sg116
g3409
sg117
g3410
sg118
I00
sg119
I01
sg120
I51
sg121
g3411
sg122
g3412
sg123
g124
(S'\x07\xdb\x01\x07\x00%\x0f\x00\x00\x00'
p3415
tp3416
Rp3417
sg128
g3400
sg129
g3414
sg130
I00
sg131
I00
sg132
I00
sbsg133
Nsg28
L661521649418838020L
sg134
I1
sg135
VMobile Web (M5)
p3418
sg117
Ven
p3419
sg138
g3385
sg123
g124
(S'\x07\xdf\x0b\x03\x0c!.\x00\x00\x00'
p3420
tp3421
Rp3422
sg38
(dp3423
g143
Nsg144
I00
sg145
VRT #News $MDBX $CNAB, $ERBB, $GRNH, $HEMP $HPNN $LATF $MJNA $PLPL $VAPE $VAPR $VPCO Ohio residents will decide today\u000ahttps://t.co/Wn1gBoNGRJ
p3424
sg146
I00
sg147
Nsg44
L661521649418838020L
sg148
I1
sg149
V<a href="https://mobile.twitter.com" rel="nofollow">Mobile Web (M5)</a>
p3425
sg151
I00
sg152
Nsg52
(dp3426
g154
(lp3427
(dp3428
g157
(lp3429
I9
aI14
asg145
VMDBX
p3430
sa(dp3431
g157
(lp3432
I15
aI20
asg145
VCNAB
p3433
sa(dp3434
g157
(lp3435
I22
aI27
asg145
VERBB
p3436
sa(dp3437
g157
(lp3438
I29
aI34
asg145
VGRNH
p3439
sa(dp3440
g157
(lp3441
I36
aI41
asg145
VHEMP
p3442
sa(dp3443
g157
(lp3444
I42
aI47
asg145
VHPNN
p3445
sa(dp3446
g157
(lp3447
I48
aI53
asg145
VLATF
p3448
sa(dp3449
g157
(lp3450
I54
aI59
asg145
VMJNA
p3451
sa(dp3452
g157
(lp3453
I60
aI65
asg145
VPLPL
p3454
sa(dp3455
g157
(lp3456
I66
aI71
asg145
VVAPE
p3457
sa(dp3458
g157
(lp3459
I72
aI77
asg145
VVAPR
p3460
sa(dp3461
g157
(lp3462
I78
aI83
asg145
VVPCO
p3463
sasg160
(lp3464
sg162
(lp3465
(dp3466
g157
(lp3467
I3
aI8
asg145
VNews
p3468
sasg34
(lp3469
(dp3470
g87
Vhttps://t.co/Wn1gBoNGRJ
p3471
sg157
(lp3472
I117
aI140
asg242
Vhttp://seekingalpha.com/article/3636426-wall-street-breakfast-new-growth-target-for-china
p3473
sg244
Vseekingalpha.com/article/363642\u2026
p3474
sassg165
Nsg166
Nsg167
I2
sg56
V661521649418838020
p3475
sg169
I00
sg170
g3399
sg171
Nsg172
Nsg431
I00
sg80
g3419
sg88
VTue Nov 03 12:33:46 +0000 2015
p3476
sg174
Nsg175
Nsg176
(dp3477
g178
Ven
p3478
sg180
Vrecent
p3479
sssg182
g3477
sg183
Nsg184
Nsg30
g3426
sg185
Nsg186
Nsg100
g3475
sg187
I00
sg188
Nsg189
I2
sg190
Nsbsg138
g3352
sg123
g124
(S'\x07\xdf\x0b\x03\x0e&\x11\x00\x00\x00'
p3480
tp3481
Rp3482
sg38
(dp3483
g143
Nsg144
I00
sg145
VRT @VapesMj: RT #News $MDBX $CNAB, $ERBB, $GRNH, $HEMP $HPNN $LATF $MJNA $PLPL $VAPE $VAPR $VPCO Ohio residents will decide today\u000ahttps://t\u2026
p3484
sg146
I00
sg147
Nsg44
L661552986448072704L
sg148
I0
sg149
V<a href="http://twitter.com/download/iphone" rel="nofollow">Twitter for iPhone</a>
p3485
sg151
I00
sg152
Nsg52
(dp3486
g154
(lp3487
(dp3488
g157
(lp3489
I22
aI27
asg145
VMDBX
p3490
sa(dp3491
g157
(lp3492
I28
aI33
asg145
VCNAB
p3493
sa(dp3494
g157
(lp3495
I35
aI40
asg145
VERBB
p3496
sa(dp3497
g157
(lp3498
I42
aI47
asg145
VGRNH
p3499
sa(dp3500
g157
(lp3501
I49
aI54
asg145
VHEMP
p3502
sa(dp3503
g157
(lp3504
I55
aI60
asg145
VHPNN
p3505
sa(dp3506
g157
(lp3507
I61
aI66
asg145
VLATF
p3508
sa(dp3509
g157
(lp3510
I67
aI72
asg145
VMJNA
p3511
sa(dp3512
g157
(lp3513
I73
aI78
asg145
VPLPL
p3514
sa(dp3515
g157
(lp3516
I79
aI84
asg145
VVAPE
p3517
sa(dp3518
g157
(lp3519
I85
aI90
asg145
VVAPR
p3520
sa(dp3521
g157
(lp3522
I91
aI96
asg145
VVPCO
p3523
sasg160
(lp3524
(dp3525
g44
I234956680
sg157
(lp3526
I3
aI11
asg56
V234956680
p3527
sg78
VVapesMj
p3528
sg84
VVapesMj
p3529
sasg162
(lp3530
(dp3531
g157
(lp3532
I16
aI21
asg145
VNews
p3533
sasg34
(lp3534
(dp3535
g87
Vhttps://t.co/Wn1gBoNGRJ
p3536
sg157
(lp3537
I139
aI140
asg242
Vhttp://seekingalpha.com/article/3636426-wall-street-breakfast-new-growth-target-for-china
p3538
sg244
Vseekingalpha.com/article/363642\u2026
p3539
sassg165
Nsg166
Nsg167
I2
sg56
V661552986448072704
p3540
sg169
I00
sg358
g3423
sg170
g3359
sg171
Nsg172
Nsg431
I00
sg80
g3378
sg88
VTue Nov 03 14:38:17 +0000 2015
p3541
sg174
Nsg175
Nsg176
(dp3542
g178
Ven
p3543
sg180
Vrecent
p3544
sssg182
g3542
sg183
Nsg184
Nsg30
g3486
sg185
Nsg186
Nsg100
g3540
sg187
I00
sg188
Nsg189
I2
sg190
Nsbag0
(g4
g5
Ntp3545
Rp3546
(dp3547
g9
I00
sg10
Nsg11
I00
sg12
VRT @VapesMj: RT #News $MDBX $CNAB, $ERBB, $GRNH, $HEMP $HPNN $LATF $MJNA $PLPL $VAPE $VAPR $VPCO Ohio residents will decide today\u000ahttps://t\u2026
p3548
sg14
Vhttp://twitter.com/download/iphone
p3549
sg368
I00
sg16
I00
sg17
Nsg18
g0
(g19
g5
Ntp3550
Rp3551
(dp3552
g23
I00
sg24
I01
sg25
I01
sg26
VDDEEF6
p3553
sg28
L3068851123L
sg29
I00
sg30
(dp3554
g32
(dp3555
g34
(lp3556
sssg36
Vhttps://pbs.twimg.com/profile_images/651757833394917377/e81rLDaP_normal.jpg
p3557
sg38
(dp3558
g40
I00
sg41
I01
sg42
I01
sg43
I00
sg44
L3068851123L
sg45
Vhttps://abs.twimg.com/images/themes/theme1/bg.png
p3559
sg47
I00
sg48
V333333
p3560
sg50
g3557
sg51
g3553
sg52
g3554
sg53
I14
sg54
VC0DEED
p3561
sg56
V3068851123
p3562
sg58
VC0DEED
p3563
sg60
I0
sg61
I00
sg62
Nsg63
I280
sg32
Vinsurance and treasury analyst - trade at your own risk. i have lots of opinions, but I'm no Jim Cramer
p3564
sg65
I14
sg66
Vplymouth meeting, pa
p3565
sg68
V0084B4
p3566
sg70
Vhttp://pbs.twimg.com/profile_images/651757833394917377/e81rLDaP_normal.jpg
p3567
sg72
I00
sg73
I00
sg74
Vhttps://pbs.twimg.com/profile_banners/3068851123/1430443025
p3568
sg76
Vhttp://abs.twimg.com/images/themes/theme1/bg.png
p3569
sg78
Vlawrence4tw
p3570
sg80
Ven
p3571
sg82
I00
sg83
I22
sg84
VLawrence
p3572
sg86
I00
sg87
Nsg88
VSun Mar 08 23:53:01 +0000 2015
p3573
sg90
I00
sg91
Nsg93
I00
sg94
I01
sg95
I00
ssg96
I00
sg97
g3560
sg98
I14
sg99
g3561
sg100
g3562
sg101
I00
sg102
I0
sg103
I00
sg104
Nsg105
I280
sg106
g3564
sg107
I14
sg108
g3565
sg109
g3566
sg110
g3567
sg111
I00
sg112
I00
sg113
g3563
sg114
g3568
sg115
g3569
sg116
g3570
sg117
g3571
sg118
I00
sg119
I00
sg120
I22
sg121
g3572
sg122
Nsg123
g124
(S'\x07\xdf\x03\x08\x175\x01\x00\x00\x00'
p3574
tp3575
Rp3576
sg128
g3559
sg129
Nsg130
I00
sg131
I01
sg132
I00
sbsg133
Nsg28
L661544085220519936L
sg134
I0
sg135
VTwitter for iPhone
p3577
sg117
Ven
p3578
sg226
g0
(g4
g5
Ntp3579
Rp3580
(dp3581
g9
I00
sg10
Nsg11
I00
sg12
VRT #News $MDBX $CNAB, $ERBB, $GRNH, $HEMP $HPNN $LATF $MJNA $PLPL $VAPE $VAPR $VPCO Ohio residents will decide today\u000ahttps://t.co/Wn1gBoNGRJ
p3582
sg14
Vhttps://mobile.twitter.com
p3583
sg368
I00
sg16
I00
sg17
Nsg18
g0
(g19
g5
Ntp3584
Rp3585
(dp3586
g23
I00
sg24
I00
sg25
I01
sg26
VDDEEF6
p3587
sg28
I234956680
sg29
I00
sg30
(dp3588
g87
(dp3589
g34
(lp3590
(dp3591
g87
Vhttp://t.co/lIYM4BABkw
p3592
sg157
(lp3593
I0
aI22
asg242
Vhttp://marijuanaindex.com/financial-data/?qm_page=14370&qm_symbol=CBIS
p3594
sg244
Vmarijuanaindex.com/financial-data\u2026
p3595
sassg32
(dp3596
g34
(lp3597
sssg36
Vhttps://pbs.twimg.com/profile_images/653196638601801728/JPZMutpc_normal.png
p3598
sg38
(dp3599
g40
I00
sg41
I00
sg42
I01
sg43
I00
sg44
I234956680
sg45
Vhttps://pbs.twimg.com/profile_background_images/774061683/6488b0935e4d8532c058c0b94495c625.png
p3600
sg47
I00
sg48
V333333
p3601
sg50
g3598
sg51
g3587
sg52
g3588
sg53
I2234
sg54
V000000
p3602
sg56
V234956680
p3603
sg58
VC0DEED
p3604
sg60
I86
sg61
I00
sg62
I-18000
sg63
I145
sg32
g256
sg65
I3303
sg66
g256
sg68
V0084B4
p3605
sg70
Vhttp://pbs.twimg.com/profile_images/653196638601801728/JPZMutpc_normal.png
p3606
sg72
I00
sg73
I00
sg74
Vhttps://pbs.twimg.com/profile_banners/234956680/1444569188
p3607
sg76
Vhttp://pbs.twimg.com/profile_background_images/774061683/6488b0935e4d8532c058c0b94495c625.png
p3608
sg78
VVapesMj
p3609
sg80
Ven
p3610
sg82
I01
sg83
I51
sg84
VVapesMj
p3611
sg86
I00
sg87
Vhttp://t.co/lIYM4BABkw
p3612
sg88
VFri Jan 07 00:37:15 +0000 2011
p3613
sg90
I00
sg91
VEastern Time (US & Canada)
p3614
sg93
I00
sg94
I00
sg95
I00
ssg96
I00
sg97
g3601
sg98
I2234
sg99
g3602
sg100
g3603
sg101
I00
sg102
I86
sg103
I00
sg104
I-18000
sg105
I145
sg106
g256
sg107
I3303
sg108
g256
sg109
g3605
sg110
g3606
sg111
I00
sg112
I00
sg113
g3604
sg114
g3607
sg115
g3608
sg116
g3609
sg117
g3610
sg118
I00
sg119
I01
sg120
I51
sg121
g3611
sg122
g3612
sg123
g124
(S'\x07\xdb\x01\x07\x00%\x0f\x00\x00\x00'
p3615
tp3616
Rp3617
sg128
g3600
sg129
g3614
sg130
I00
sg131
I00
sg132
I00
sbsg133
Nsg28
L661521649418838020L
sg134
I1
sg135
VMobile Web (M5)
p3618
sg117
Ven
p3619
sg138
g3585
sg123
g124
(S'\x07\xdf\x0b\x03\x0c!.\x00\x00\x00'
p3620
tp3621
Rp3622
sg38
(dp3623
g143
Nsg144
I00
sg145
VRT #News $MDBX $CNAB, $ERBB, $GRNH, $HEMP $HPNN $LATF $MJNA $PLPL $VAPE $VAPR $VPCO Ohio residents will decide today\u000ahttps://t.co/Wn1gBoNGRJ
p3624
sg146
I00
sg147
Nsg44
L661521649418838020L
sg148
I1
sg149
V<a href="https://mobile.twitter.com" rel="nofollow">Mobile Web (M5)</a>
p3625
sg151
I00
sg152
Nsg52
(dp3626
g154
(lp3627
(dp3628
g157
(lp3629
I9
aI14
asg145
VMDBX
p3630
sa(dp3631
g157
(lp3632
I15
aI20
asg145
VCNAB
p3633
sa(dp3634
g157
(lp3635
I22
aI27
asg145
VERBB
p3636
sa(dp3637
g157
(lp3638
I29
aI34
asg145
VGRNH
p3639
sa(dp3640
g157
(lp3641
I36
aI41
asg145
VHEMP
p3642
sa(dp3643
g157
(lp3644
I42
aI47
asg145
VHPNN
p3645
sa(dp3646
g157
(lp3647
I48
aI53
asg145
VLATF
p3648
sa(dp3649
g157
(lp3650
I54
aI59
asg145
VMJNA
p3651
sa(dp3652
g157
(lp3653
I60
aI65
asg145
VPLPL
p3654
sa(dp3655
g157
(lp3656
I66
aI71
asg145
VVAPE
p3657
sa(dp3658
g157
(lp3659
I72
aI77
asg145
VVAPR
p3660
sa(dp3661
g157
(lp3662
I78
aI83
asg145
VVPCO
p3663
sasg160
(lp3664
sg162
(lp3665
(dp3666
g157
(lp3667
I3
aI8
asg145
VNews
p3668
sasg34
(lp3669
(dp3670
g87
Vhttps://t.co/Wn1gBoNGRJ
p3671
sg157
(lp3672
I117
aI140
asg242
Vhttp://seekingalpha.com/article/3636426-wall-street-breakfast-new-growth-target-for-china
p3673
sg244
Vseekingalpha.com/article/363642\u2026
p3674
sassg165
Nsg166
Nsg167
I2
sg56
V661521649418838020
p3675
sg169
I00
sg170
g3599
sg171
Nsg172
Nsg431
I00
sg80
g3619
sg88
VTue Nov 03 12:33:46 +0000 2015
p3676
sg174
Nsg175
Nsg176
(dp3677
g178
Ven
p3678
sg180
Vrecent
p3679
sssg182
g3677
sg183
Nsg184
Nsg30
g3626
sg185
Nsg186
Nsg100
g3675
sg187
I00
sg188
Nsg189
I2
sg190
Nsbsg138
g3551
sg123
g124
(S'\x07\xdf\x0b\x03\x0e\x027\x00\x00\x00'
p3680
tp3681
Rp3682
sg38
(dp3683
g143
Nsg144
I00
sg145
VRT @VapesMj: RT #News $MDBX $CNAB, $ERBB, $GRNH, $HEMP $HPNN $LATF $MJNA $PLPL $VAPE $VAPR $VPCO Ohio residents will decide today\u000ahttps://t\u2026
p3684
sg146
I00
sg147
Nsg44
L661544085220519936L
sg148
I0
sg149
V<a href="http://twitter.com/download/iphone" rel="nofollow">Twitter for iPhone</a>
p3685
sg151
I00
sg152
Nsg52
(dp3686
g154
(lp3687
(dp3688
g157
(lp3689
I22
aI27
asg145
VMDBX
p3690
sa(dp3691
g157
(lp3692
I28
aI33
asg145
VCNAB
p3693
sa(dp3694
g157
(lp3695
I35
aI40
asg145
VERBB
p3696
sa(dp3697
g157
(lp3698
I42
aI47
asg145
VGRNH
p3699
sa(dp3700
g157
(lp3701
I49
aI54
asg145
VHEMP
p3702
sa(dp3703
g157
(lp3704
I55
aI60
asg145
VHPNN
p3705
sa(dp3706
g157
(lp3707
I61
aI66
asg145
VLATF
p3708
sa(dp3709
g157
(lp3710
I67
aI72
asg145
VMJNA
p3711
sa(dp3712
g157
(lp3713
I73
aI78
asg145
VPLPL
p3714
sa(dp3715
g157
(lp3716
I79
aI84
asg145
VVAPE
p3717
sa(dp3718
g157
(lp3719
I85
aI90
asg145
VVAPR
p3720
sa(dp3721
g157
(lp3722
I91
aI96
asg145
VVPCO
p3723
sasg160
(lp3724
(dp3725
g44
I234956680
sg157
(lp3726
I3
aI11
asg56
V234956680
p3727
sg78
VVapesMj
p3728
sg84
VVapesMj
p3729
sasg162
(lp3730
(dp3731
g157
(lp3732
I16
aI21
asg145
VNews
p3733
sasg34
(lp3734
(dp3735
g87
Vhttps://t.co/Wn1gBoNGRJ
p3736
sg157
(lp3737
I139
aI140
asg242
Vhttp://seekingalpha.com/article/3636426-wall-street-breakfast-new-growth-target-for-china
p3738
sg244
Vseekingalpha.com/article/363642\u2026
p3739
sassg165
Nsg166
Nsg167
I2
sg56
V661544085220519936
p3740
sg169
I00
sg358
g3623
sg170
g3558
sg171
Nsg172
Nsg431
I00
sg80
g3578
sg88
VTue Nov 03 14:02:55 +0000 2015
p3741
sg174
Nsg175
Nsg176
(dp3742
g178
Ven
p3743
sg180
Vrecent
p3744
sssg182
g3742
sg183
Nsg184
Nsg30
g3686
sg185
Nsg186
Nsg100
g3740
sg187
I00
sg188
Nsg189
I2
sg190
Nsbag0
(g4
g5
Ntp3745
Rp3746
(dp3747
g9
I00
sg10
Nsg11
I00
sg12
VOhio votes on marijuana legalization https://t.co/SxHKD4elgs   $CNAB, $ERBB, $GRNH, $HEMP, $HPNN, $LATF, $MJNA, $PLPL, $VAPE, $VAPR, $VPCO
p3748
sg14
Vhttp://twitter.com/download/android
p3749
sg368
I00
sg16
I00
sg17
Nsg18
g0
(g19
g5
Ntp3750
Rp3751
(dp3752
g23
I00
sg24
I00
sg25
I01
sg26
VDDEEF6
p3753
sg28
L2236332594L
sg29
I00
sg30
(dp3754
g32
(dp3755
g34
(lp3756
sssg36
Vhttps://pbs.twimg.com/profile_images/599398393698353152/EpaK_b-j_normal.jpg
p3757
sg38
(dp3758
g40
I00
sg41
I00
sg42
I01
sg43
I00
sg44
L2236332594L
sg45
Vhttps://abs.twimg.com/images/themes/theme1/bg.png
p3759
sg47
I00
sg48
V333333
p3760
sg50
g3757
sg51
g3753
sg52
g3754
sg53
I218
sg54
VC0DEED
p3761
sg56
V2236332594
p3762
sg58
VC0DEED
p3763
sg60
I4
sg61
I00
sg62
Nsg63
I1083
sg32
g256
sg65
I339
sg66
g256
sg68
V0084B4
p3764
sg70
Vhttp://pbs.twimg.com/profile_images/599398393698353152/EpaK_b-j_normal.jpg
p3765
sg72
I00
sg73
I00
sg74
Vhttps://pbs.twimg.com/profile_banners/2236332594/1410646241
p3766
sg76
Vhttp://abs.twimg.com/images/themes/theme1/bg.png
p3767
sg78
VDankofSaints
p3768
sg80
Ven
p3769
sg82
I00
sg83
I413
sg84
Vslchemp
p3770
sg86
I00
sg87
Nsg88
VSun Dec 08 17:20:16 +0000 2013
p3771
sg90
I00
sg91
Nsg93
I00
sg94
I01
sg95
I00
ssg96
I00
sg97
g3760
sg98
I218
sg99
g3761
sg100
g3762
sg101
I00
sg102
I4
sg103
I00
sg104
Nsg105
I1083
sg106
g256
sg107
I339
sg108
g256
sg109
g3764
sg110
g3765
sg111
I00
sg112
I00
sg113
g3763
sg114
g3766
sg115
g3767
sg116
g3768
sg117
g3769
sg118
I00
sg119
I00
sg120
I413
sg121
g3770
sg122
Nsg123
g124
(S'\x07\xdd\x0c\x08\x11\x14\x10\x00\x00\x00'
p3772
tp3773
Rp3774
sg128
g3759
sg129
Nsg130
I00
sg131
I01
sg132
I00
sbsg133
Nsg28
L661535463283384320L
sg134
I0
sg135
VTwitter for Android
p3775
sg117
Vund
p3776
sg138
g3751
sg123
g124
(S"\x07\xdf\x0b\x03\r\x1c'\x00\x00\x00"
p3777
tp3778
Rp3779
sg38
(dp3780
g143
Nsg144
I00
sg145
g3748
sg146
I00
sg147
Nsg44
L661535463283384320L
sg148
I0
sg149
V<a href="http://twitter.com/download/android" rel="nofollow">Twitter for Android</a>
p3781
sg151
I00
sg152
Nsg52
(dp3782
g154
(lp3783
(dp3784
g157
(lp3785
I63
aI68
asg145
VCNAB
p3786
sa(dp3787
g157
(lp3788
I70
aI75
asg145
VERBB
p3789
sa(dp3790
g157
(lp3791
I77
aI82
asg145
VGRNH
p3792
sa(dp3793
g157
(lp3794
I84
aI89
asg145
VHEMP
p3795
sa(dp3796
g157
(lp3797
I91
aI96
asg145
VHPNN
p3798
sa(dp3799
g157
(lp3800
I98
aI103
asg145
VLATF
p3801
sa(dp3802
g157
(lp3803
I105
aI110
asg145
VMJNA
p3804
sa(dp3805
g157
(lp3806
I112
aI117
asg145
VPLPL
p3807
sa(dp3808
g157
(lp3809
I119
aI124
asg145
VVAPE
p3810
sa(dp3811
g157
(lp3812
I126
aI131
asg145
VVAPR
p3813
sa(dp3814
g157
(lp3815
I133
aI138
asg145
VVPCO
p3816
sasg160
(lp3817
sg162
(lp3818
sg34
(lp3819
(dp3820
g87
Vhttps://t.co/SxHKD4elgs
p3821
sg157
(lp3822
I37
aI60
asg242
Vhttp://seekingalpha.com/news/2885656?source=ansh
p3823
sg244
Vseekingalpha.com/news/2885656?s\u2026
p3824
sassg165
Nsg166
Nsg167
I0
sg56
V661535463283384320
p3825
sg169
I00
sg170
g3758
sg171
Nsg172
Nsg431
I00
sg80
g3776
sg88
VTue Nov 03 13:28:39 +0000 2015
p3826
sg174
Nsg175
Nsg176
(dp3827
g178
Vund
p3828
sg180
Vrecent
p3829
sssg182
g3827
sg183
Nsg184
Nsg30
g3782
sg185
Nsg186
Nsg100
g3825
sg187
I00
sg188
Nsg189
I0
sg190
Nsbag0
(g4
g5
Ntp3830
Rp3831
(dp3832
g9
I00
sg10
Nsg11
I00
sg12
VRT #News $MDBX $CNAB, $ERBB, $GRNH, $HEMP $HPNN $LATF $MJNA $PLPL $VAPE $VAPR $VPCO Ohio residents will decide today\u000ahttps://t.co/Wn1gBoNGRJ
p3833
sg14
Vhttps://mobile.twitter.com
p3834
sg368
I00
sg16
I00
sg17
Nsg18
g0
(g19
g5
Ntp3835
Rp3836
(dp3837
g23
I00
sg24
I00
sg25
I01
sg26
VDDEEF6
p3838
sg28
I234956680
sg29
I00
sg30
(dp3839
g87
(dp3840
g34
(lp3841
(dp3842
g87
Vhttp://t.co/lIYM4BABkw
p3843
sg157
(lp3844
I0
aI22
asg242
Vhttp://marijuanaindex.com/financial-data/?qm_page=14370&qm_symbol=CBIS
p3845
sg244
Vmarijuanaindex.com/financial-data\u2026
p3846
sassg32
(dp3847
g34
(lp3848
sssg36
Vhttps://pbs.twimg.com/profile_images/653196638601801728/JPZMutpc_normal.png
p3849
sg38
(dp3850
g40
I00
sg41
I00
sg42
I01
sg43
I00
sg44
I234956680
sg45
Vhttps://pbs.twimg.com/profile_background_images/774061683/6488b0935e4d8532c058c0b94495c625.png
p3851
sg47
I00
sg48
V333333
p3852
sg50
g3849
sg51
g3838
sg52
g3839
sg53
I2234
sg54
V000000
p3853
sg56
V234956680
p3854
sg58
VC0DEED
p3855
sg60
I86
sg61
I00
sg62
I-18000
sg63
I145
sg32
g256
sg65
I3303
sg66
g256
sg68
V0084B4
p3856
sg70
Vhttp://pbs.twimg.com/profile_images/653196638601801728/JPZMutpc_normal.png
p3857
sg72
I00
sg73
I00
sg74
Vhttps://pbs.twimg.com/profile_banners/234956680/1444569188
p3858
sg76
Vhttp://pbs.twimg.com/profile_background_images/774061683/6488b0935e4d8532c058c0b94495c625.png
p3859
sg78
VVapesMj
p3860
sg80
Ven
p3861
sg82
I01
sg83
I51
sg84
VVapesMj
p3862
sg86
I00
sg87
Vhttp://t.co/lIYM4BABkw
p3863
sg88
VFri Jan 07 00:37:15 +0000 2011
p3864
sg90
I00
sg91
VEastern Time (US & Canada)
p3865
sg93
I00
sg94
I00
sg95
I00
ssg96
I00
sg97
g3852
sg98
I2234
sg99
g3853
sg100
g3854
sg101
I00
sg102
I86
sg103
I00
sg104
I-18000
sg105
I145
sg106
g256
sg107
I3303
sg108
g256
sg109
g3856
sg110
g3857
sg111
I00
sg112
I00
sg113
g3855
sg114
g3858
sg115
g3859
sg116
g3860
sg117
g3861
sg118
I00
sg119
I01
sg120
I51
sg121
g3862
sg122
g3863
sg123
g124
(S'\x07\xdb\x01\x07\x00%\x0f\x00\x00\x00'
p3866
tp3867
Rp3868
sg128
g3851
sg129
g3865
sg130
I00
sg131
I00
sg132
I00
sbsg133
Nsg28
L661521649418838020L
sg134
I1
sg135
VMobile Web (M5)
p3869
sg117
Ven
p3870
sg138
g3836
sg123
g124
(S'\x07\xdf\x0b\x03\x0c!.\x00\x00\x00'
p3871
tp3872
Rp3873
sg38
(dp3874
g143
Nsg144
I00
sg145
VRT #News $MDBX $CNAB, $ERBB, $GRNH, $HEMP $HPNN $LATF $MJNA $PLPL $VAPE $VAPR $VPCO Ohio residents will decide today\u000ahttps://t.co/Wn1gBoNGRJ
p3875
sg146
I00
sg147
Nsg44
L661521649418838020L
sg148
I1
sg149
V<a href="https://mobile.twitter.com" rel="nofollow">Mobile Web (M5)</a>
p3876
sg151
I00
sg152
Nsg52
(dp3877
g154
(lp3878
(dp3879
g157
(lp3880
I9
aI14
asg145
VMDBX
p3881
sa(dp3882
g157
(lp3883
I15
aI20
asg145
VCNAB
p3884
sa(dp3885
g157
(lp3886
I22
aI27
asg145
VERBB
p3887
sa(dp3888
g157
(lp3889
I29
aI34
asg145
VGRNH
p3890
sa(dp3891
g157
(lp3892
I36
aI41
asg145
VHEMP
p3893
sa(dp3894
g157
(lp3895
I42
aI47
asg145
VHPNN
p3896
sa(dp3897
g157
(lp3898
I48
aI53
asg145
VLATF
p3899
sa(dp3900
g157
(lp3901
I54
aI59
asg145
VMJNA
p3902
sa(dp3903
g157
(lp3904
I60
aI65
asg145
VPLPL
p3905
sa(dp3906
g157
(lp3907
I66
aI71
asg145
VVAPE
p3908
sa(dp3909
g157
(lp3910
I72
aI77
asg145
VVAPR
p3911
sa(dp3912
g157
(lp3913
I78
aI83
asg145
VVPCO
p3914
sasg160
(lp3915
sg162
(lp3916
(dp3917
g157
(lp3918
I3
aI8
asg145
VNews
p3919
sasg34
(lp3920
(dp3921
g87
Vhttps://t.co/Wn1gBoNGRJ
p3922
sg157
(lp3923
I117
aI140
asg242
Vhttp://seekingalpha.com/article/3636426-wall-street-breakfast-new-growth-target-for-china
p3924
sg244
Vseekingalpha.com/article/363642\u2026
p3925
sassg165
Nsg166
Nsg167
I2
sg56
V661521649418838020
p3926
sg169
I00
sg170
g3850
sg171
Nsg172
Nsg431
I00
sg80
g3870
sg88
VTue Nov 03 12:33:46 +0000 2015
p3927
sg174
Nsg175
Nsg176
(dp3928
g178
Ven
p3929
sg180
Vrecent
p3930
sssg182
g3928
sg183
Nsg184
Nsg30
g3877
sg185
Nsg186
Nsg100
g3926
sg187
I00
sg188
Nsg189
I2
sg190
Nsbag0
(g4
g5
Ntp3931
Rp3932
(dp3933
g9
I00
sg10
Nsg11
I00
sg12
V$VPCO bullrider2: Stock, I like your opinion on Vapor. My: bullrider2 https://t.co/EiZ1snfFeH
p3934
sg14
Vhttp://twitterfeed.com
p3935
sg368
I00
sg16
I00
sg17
Nsg18
g0
(g19
g5
Ntp3936
Rp3937
(dp3938
g23
I00
sg24
I00
sg25
I01
sg26
VDDEEF6
p3939
sg28
L2329624993L
sg29
I00
sg30
(dp3940
g87
(dp3941
g34
(lp3942
(dp3943
g87
Vhttp://t.co/GPmOGK0Cc5
p3944
sg157
(lp3945
I0
aI22
asg242
Vhttp://528marketing.com/we-can-help-distribute-your-cannabis-or-vape-products-to-c-stores/
p3946
sg244
V528marketing.com/we-can-help-di\u2026
p3947
sassg32
(dp3948
g34
(lp3949
(dp3950
g87
Vhttp://t.co/QBCbrsEVse
p3951
sg157
(lp3952
I42
aI64
asg242
Vhttp://528Marketing.com
p3953
sg244
V528Marketing.com
p3954
sasssg36
Vhttps://pbs.twimg.com/profile_images/469861227854708736/VMPEysjY_normal.jpeg
p3955
sg38
(dp3956
g40
I00
sg41
I00
sg42
I01
sg43
I00
sg44
L2329624993L
sg45
Vhttps://pbs.twimg.com/profile_background_images/469860658213699584/X9aU4wJN.jpeg
p3957
sg47
I00
sg48
V333333
p3958
sg50
g3955
sg51
g3939
sg52
g3940
sg53
I3153
sg54
VFFFFFF
p3959
sg56
V2329624993
p3960
sg58
VC0DEED
p3961
sg60
I52
sg61
I00
sg62
I-28800
sg63
I49470
sg32
VWe promote  UR #vape and products through http://t.co/QBCbrsEVse - visit our other Twitter handles @528Canna and @528Marketing - email contact@528marketing.com
p3962
sg65
I2387
sg66
VThe wolrd of vape
p3963
sg68
V0084B4
p3964
sg70
Vhttp://pbs.twimg.com/profile_images/469861227854708736/VMPEysjY_normal.jpeg
p3965
sg72
I00
sg73
I00
sg74
Vhttps://pbs.twimg.com/profile_banners/2329624993/1400858521
p3966
sg76
Vhttp://pbs.twimg.com/profile_background_images/469860658213699584/X9aU4wJN.jpeg
p3967
sg78
V528vape
p3968
sg80
Ven
p3969
sg82
I01
sg83
I444
sg84
V528vape
p3970
sg86
I00
sg87
Vhttp://t.co/GPmOGK0Cc5
p3971
sg88
VThu Feb 06 01:30:14 +0000 2014
p3972
sg90
I00
sg91
VPacific Time (US & Canada)
p3973
sg93
I00
sg94
I00
sg95
I00
ssg96
I00
sg97
g3958
sg98
I3153
sg99
g3959
sg100
g3960
sg101
I00
sg102
I52
sg103
I00
sg104
I-28800
sg105
I49470
sg106
g3962
sg107
I2387
sg108
g3963
sg109
g3964
sg110
g3965
sg111
I00
sg112
I00
sg113
g3961
sg114
g3966
sg115
g3967
sg116
g3968
sg117
g3969
sg118
I00
sg119
I01
sg120
I444
sg121
g3970
sg122
g3971
sg123
g124
(S'\x07\xde\x02\x06\x01\x1e\x0e\x00\x00\x00'
p3974
tp3975
Rp3976
sg128
g3957
sg129
g3973
sg130
I00
sg131
I00
sg132
I00
sbsg133
Nsg28
L661417275468021760L
sg134
I0
sg135
Vtwitterfeed
p3977
sg117
Ven
p3978
sg138
g3937
sg123
g124
(S"\x07\xdf\x0b\x03\x05'\x01\x00\x00\x00"
p3979
tp3980
Rp3981
sg38
(dp3982
g143
Nsg144
I00
sg145
g3934
sg146
I00
sg147
Nsg44
L661417275468021760L
sg148
I0
sg149
V<a href="http://twitterfeed.com" rel="nofollow">twitterfeed</a>
p3983
sg151
I00
sg152
Nsg52
(dp3984
g154
(lp3985
(dp3986
g157
(lp3987
I0
aI5
asg145
VVPCO
p3988
sasg160
(lp3989
sg162
(lp3990
sg34
(lp3991
(dp3992
g87
Vhttps://t.co/EiZ1snfFeH
p3993
sg157
(lp3994
I70
aI93
asg242
Vhttp://bit.ly/1HnWNOi
p3995
sg244
Vbit.ly/1HnWNOi
p3996
sassg165
Nsg166
Nsg167
I0
sg56
V661417275468021760
p3997
sg169
I00
sg170
g3956
sg171
Nsg172
Nsg431
I00
sg80
g3978
sg88
VTue Nov 03 05:39:01 +0000 2015
p3998
sg174
Nsg175
Nsg176
(dp3999
g178
Ven
p4000
sg180
Vrecent
p4001
sssg182
g3999
sg183
Nsg184
Nsg30
g3984
sg185
Nsg186
Nsg100
g3997
sg187
I00
sg188
Nsg189
I0
sg190
Nsbag0
(g4
g5
Ntp4002
Rp4003
(dp4004
g9
I00
sg10
Nsg11
I00
sg12
V$VPCO Ultimaratioregum: Why will it hit .50 by Friday??: Ultimaratioregum https://t.co/dA6PxkmzZZ
p4005
sg14
Vhttp://twitterfeed.com
p4006
sg368
I00
sg16
I00
sg17
Nsg18
g0
(g19
g5
Ntp4007
Rp4008
(dp4009
g23
I00
sg24
I00
sg25
I01
sg26
VDDEEF6
p4010
sg28
L2329624993L
sg29
I00
sg30
(dp4011
g87
(dp4012
g34
(lp4013
(dp4014
g87
Vhttp://t.co/GPmOGK0Cc5
p4015
sg157
(lp4016
I0
aI22
asg242
Vhttp://528marketing.com/we-can-help-distribute-your-cannabis-or-vape-products-to-c-stores/
p4017
sg244
V528marketing.com/we-can-help-di\u2026
p4018
sassg32
(dp4019
g34
(lp4020
(dp4021
g87
Vhttp://t.co/QBCbrsEVse
p4022
sg157
(lp4023
I42
aI64
asg242
Vhttp://528Marketing.com
p4024
sg244
V528Marketing.com
p4025
sasssg36
Vhttps://pbs.twimg.com/profile_images/469861227854708736/VMPEysjY_normal.jpeg
p4026
sg38
(dp4027
g40
I00
sg41
I00
sg42
I01
sg43
I00
sg44
L2329624993L
sg45
Vhttps://pbs.twimg.com/profile_background_images/469860658213699584/X9aU4wJN.jpeg
p4028
sg47
I00
sg48
V333333
p4029
sg50
g4026
sg51
g4010
sg52
g4011
sg53
I3153
sg54
VFFFFFF
p4030
sg56
V2329624993
p4031
sg58
VC0DEED
p4032
sg60
I52
sg61
I00
sg62
I-28800
sg63
I49470
sg32
VWe promote  UR #vape and products through http://t.co/QBCbrsEVse - visit our other Twitter handles @528Canna and @528Marketing - email contact@528marketing.com
p4033
sg65
I2387
sg66
VThe wolrd of vape
p4034
sg68
V0084B4
p4035
sg70
Vhttp://pbs.twimg.com/profile_images/469861227854708736/VMPEysjY_normal.jpeg
p4036
sg72
I00
sg73
I00
sg74
Vhttps://pbs.twimg.com/profile_banners/2329624993/1400858521
p4037
sg76
Vhttp://pbs.twimg.com/profile_background_images/469860658213699584/X9aU4wJN.jpeg
p4038
sg78
V528vape
p4039
sg80
Ven
p4040
sg82
I01
sg83
I444
sg84
V528vape
p4041
sg86
I00
sg87
Vhttp://t.co/GPmOGK0Cc5
p4042
sg88
VThu Feb 06 01:30:14 +0000 2014
p4043
sg90
I00
sg91
VPacific Time (US & Canada)
p4044
sg93
I00
sg94
I00
sg95
I00
ssg96
I00
sg97
g4029
sg98
I3153
sg99
g4030
sg100
g4031
sg101
I00
sg102
I52
sg103
I00
sg104
I-28800
sg105
I49470
sg106
g4033
sg107
I2387
sg108
g4034
sg109
g4035
sg110
g4036
sg111
I00
sg112
I00
sg113
g4032
sg114
g4037
sg115
g4038
sg116
g4039
sg117
g4040
sg118
I00
sg119
I01
sg120
I444
sg121
g4041
sg122
g4042
sg123
g124
(S'\x07\xde\x02\x06\x01\x1e\x0e\x00\x00\x00'
p4045
tp4046
Rp4047
sg128
g4028
sg129
g4044
sg130
I00
sg131
I00
sg132
I00
sbsg133
Nsg28
L661250454999793664L
sg134
I0
sg135
Vtwitterfeed
p4048
sg117
Ven
p4049
sg138
g4008
sg123
g124
(S'\x07\xdf\x0b\x02\x12$\x08\x00\x00\x00'
p4050
tp4051
Rp4052
sg38
(dp4053
g143
Nsg144
I00
sg145
g4005
sg146
I00
sg147
Nsg44
L661250454999793664L
sg148
I0
sg149
V<a href="http://twitterfeed.com" rel="nofollow">twitterfeed</a>
p4054
sg151
I00
sg152
Nsg52
(dp4055
g154
(lp4056
(dp4057
g157
(lp4058
I0
aI5
asg145
VVPCO
p4059
sasg160
(lp4060
sg162
(lp4061
sg34
(lp4062
(dp4063
g87
Vhttps://t.co/dA6PxkmzZZ
p4064
sg157
(lp4065
I74
aI97
asg242
Vhttp://bit.ly/1kmEdAI
p4066
sg244
Vbit.ly/1kmEdAI
p4067
sassg165
Nsg166
Nsg167
I0
sg56
V661250454999793664
p4068
sg169
I00
sg170
g4027
sg171
Nsg172
Nsg431
I00
sg80
g4049
sg88
VMon Nov 02 18:36:08 +0000 2015
p4069
sg174
Nsg175
Nsg176
(dp4070
g178
Ven
p4071
sg180
Vrecent
p4072
sssg182
g4070
sg183
Nsg184
Nsg30
g4055
sg185
Nsg186
Nsg100
g4068
sg187
I00
sg188
Nsg189
I0
sg190
Nsbag0
(g4
g5
Ntp4073
Rp4074
(dp4075
g9
I00
sg10
Nsg11
I00
sg12
V$VPCO Stockslayr: IMO $VPCO will climb up to $0.5 by: Stockslayr https://t.co/4eBKbOust0
p4076
sg14
Vhttp://twitterfeed.com
p4077
sg368
I00
sg16
I00
sg17
Nsg18
g0
(g19
g5
Ntp4078
Rp4079
(dp4080
g23
I00
sg24
I00
sg25
I01
sg26
VDDEEF6
p4081
sg28
L2329624993L
sg29
I00
sg30
(dp4082
g87
(dp4083
g34
(lp4084
(dp4085
g87
Vhttp://t.co/GPmOGK0Cc5
p4086
sg157
(lp4087
I0
aI22
asg242
Vhttp://528marketing.com/we-can-help-distribute-your-cannabis-or-vape-products-to-c-stores/
p4088
sg244
V528marketing.com/we-can-help-di\u2026
p4089
sassg32
(dp4090
g34
(lp4091
(dp4092
g87
Vhttp://t.co/QBCbrsEVse
p4093
sg157
(lp4094
I42
aI64
asg242
Vhttp://528Marketing.com
p4095
sg244
V528Marketing.com
p4096
sasssg36
Vhttps://pbs.twimg.com/profile_images/469861227854708736/VMPEysjY_normal.jpeg
p4097
sg38
(dp4098
g40
I00
sg41
I00
sg42
I01
sg43
I00
sg44
L2329624993L
sg45
Vhttps://pbs.twimg.com/profile_background_images/469860658213699584/X9aU4wJN.jpeg
p4099
sg47
I00
sg48
V333333
p4100
sg50
g4097
sg51
g4081
sg52
g4082
sg53
I3153
sg54
VFFFFFF
p4101
sg56
V2329624993
p4102
sg58
VC0DEED
p4103
sg60
I52
sg61
I00
sg62
I-28800
sg63
I49470
sg32
VWe promote  UR #vape and products through http://t.co/QBCbrsEVse - visit our other Twitter handles @528Canna and @528Marketing - email contact@528marketing.com
p4104
sg65
I2387
sg66
VThe wolrd of vape
p4105
sg68
V0084B4
p4106
sg70
Vhttp://pbs.twimg.com/profile_images/469861227854708736/VMPEysjY_normal.jpeg
p4107
sg72
I00
sg73
I00
sg74
Vhttps://pbs.twimg.com/profile_banners/2329624993/1400858521
p4108
sg76
Vhttp://pbs.twimg.com/profile_background_images/469860658213699584/X9aU4wJN.jpeg
p4109
sg78
V528vape
p4110
sg80
Ven
p4111
sg82
I01
sg83
I444
sg84
V528vape
p4112
sg86
I00
sg87
Vhttp://t.co/GPmOGK0Cc5
p4113
sg88
VThu Feb 06 01:30:14 +0000 2014
p4114
sg90
I00
sg91
VPacific Time (US & Canada)
p4115
sg93
I00
sg94
I00
sg95
I00
ssg96
I00
sg97
g4100
sg98
I3153
sg99
g4101
sg100
g4102
sg101
I00
sg102
I52
sg103
I00
sg104
I-28800
sg105
I49470
sg106
g4104
sg107
I2387
sg108
g4105
sg109
g4106
sg110
g4107
sg111
I00
sg112
I00
sg113
g4103
sg114
g4108
sg115
g4109
sg116
g4110
sg117
g4111
sg118
I00
sg119
I01
sg120
I444
sg121
g4112
sg122
g4113
sg123
g124
(S'\x07\xde\x02\x06\x01\x1e\x0e\x00\x00\x00'
p4116
tp4117
Rp4118
sg128
g4099
sg129
g4115
sg130
I00
sg131
I00
sg132
I00
sbsg133
Nsg28
L661226427807744000L
sg134
I0
sg135
Vtwitterfeed
p4119
sg117
Vsv
p4120
sg138
g4079
sg123
g124
(S'\x07\xdf\x0b\x02\x11\x00(\x00\x00\x00'
p4121
tp4122
Rp4123
sg38
(dp4124
g143
Nsg144
I00
sg145
g4076
sg146
I00
sg147
Nsg44
L661226427807744000L
sg148
I0
sg149
V<a href="http://twitterfeed.com" rel="nofollow">twitterfeed</a>
p4125
sg151
I00
sg152
Nsg52
(dp4126
g154
(lp4127
(dp4128
g157
(lp4129
I0
aI5
asg145
VVPCO
p4130
sa(dp4131
g157
(lp4132
I22
aI27
asg145
VVPCO
p4133
sasg160
(lp4134
sg162
(lp4135
sg34
(lp4136
(dp4137
g87
Vhttps://t.co/4eBKbOust0
p4138
sg157
(lp4139
I65
aI88
asg242
Vhttp://bit.ly/1WtW6K1
p4140
sg244
Vbit.ly/1WtW6K1
p4141
sassg165
Nsg166
Nsg167
I0
sg56
V661226427807744000
p4142
sg169
I00
sg170
g4098
sg171
Nsg172
Nsg431
I00
sg80
g4120
sg88
VMon Nov 02 17:00:40 +0000 2015
p4143
sg174
Nsg175
Nsg176
(dp4144
g178
Vsv
p4145
sg180
Vrecent
p4146
sssg182
g4144
sg183
Nsg184
Nsg30
g4126
sg185
Nsg186
Nsg100
g4142
sg187
I00
sg188
Nsg189
I0
sg190
Nsbag0
(g4
g5
Ntp4147
Rp4148
(dp4149
g9
I00
sg10
Nsg11
I00
sg12
VIMO $VPCO to $0.5 by Friday.  If volume backs it, breakout could be $1
p4150
sg14
Vhttp://twitter.com/#!/download/ipad
p4151
sg16
I00
sg17
Nsg18
g0
(g19
g5
Ntp4152
Rp4153
(dp4154
g23
I00
sg24
I00
sg25
I01
sg26
VDDEEF6
p4155
sg28
I818372396
sg29
I00
sg30
(dp4156
g32
(dp4157
g34
(lp4158
sssg36
Vhttps://pbs.twimg.com/profile_images/514443134957518848/a9nByKh-_normal.jpeg
p4159
sg38
(dp4160
g40
I00
sg41
I00
sg42
I01
sg43
I00
sg44
I818372396
sg45
Vhttps://abs.twimg.com/images/themes/theme1/bg.png
p4161
sg47
I00
sg48
V333333
p4162
sg50
g4159
sg51
g4155
sg52
g4156
sg53
I324
sg54
VC0DEED
p4163
sg56
V818372396
p4164
sg58
VC0DEED
p4165
sg60
I7
sg61
I00
sg62
Nsg63
I680
sg32
VEnvironmental Compliance Specialist. BS Chemistry.  \u000aPart time Microcap Swing Trader.
p4166
sg65
I300
sg66
VNotre Dame, Indiana
p4167
sg68
V0084B4
p4168
sg70
Vhttp://pbs.twimg.com/profile_images/514443134957518848/a9nByKh-_normal.jpeg
p4169
sg72
I00
sg73
I00
sg74
Vhttps://pbs.twimg.com/profile_banners/818372396/1399897309
p4170
sg76
Vhttp://abs.twimg.com/images/themes/theme1/bg.png
p4171
sg78
Vstockslayr
p4172
sg80
Ven
p4173
sg82
I00
sg83
I117
sg84
VStockSlayr
p4174
sg86
I00
sg87
Nsg88
VTue Sep 11 23:02:17 +0000 2012
p4175
sg90
I00
sg91
Nsg93
I00
sg94
I01
sg95
I00
ssg96
I00
sg97
g4162
sg98
I324
sg99
g4163
sg100
g4164
sg101
I00
sg102
I7
sg103
I00
sg104
Nsg105
I680
sg106
VEnvironmental Compliance Specialist. BS Chemistry.  \u000aPart time Microcap Swing Trader.
p4176
sg107
I300
sg108
g4167
sg109
g4168
sg110
g4169
sg111
I00
sg112
I00
sg113
g4165
sg114
g4170
sg115
g4171
sg116
g4172
sg117
g4173
sg118
I00
sg119
I00
sg120
I117
sg121
g4174
sg122
Nsg123
g124
(S'\x07\xdc\t\x0b\x17\x02\x11\x00\x00\x00'
p4177
tp4178
Rp4179
sg128
g4161
sg129
Nsg130
I00
sg131
I01
sg132
I00
sbsg133
Nsg28
L661211540943732736L
sg134
I0
sg135
VTwitter for iPad
p4180
sg117
Ven
p4181
sg138
g4153
sg123
g124
(S'\x07\xdf\x0b\x02\x10\x01\x1e\x00\x00\x00'
p4182
tp4183
Rp4184
sg38
(dp4185
g143
Nsg144
I00
sg145
g4150
sg146
I00
sg147
Nsg44
L661211540943732736L
sg148
I0
sg149
V<a href="http://twitter.com/#!/download/ipad" rel="nofollow">Twitter for iPad</a>
p4186
sg151
I00
sg152
Nsg52
(dp4187
g154
(lp4188
(dp4189
g157
(lp4190
I4
aI9
asg145
VVPCO
p4191
sasg160
(lp4192
sg162
(lp4193
sg34
(lp4194
ssg165
Nsg166
Nsg167
I0
sg56
V661211540943732736
p4195
sg169
I00
sg170
g4160
sg171
Nsg172
Nsg80
g4181
sg88
VMon Nov 02 16:01:30 +0000 2015
p4196
sg174
Nsg175
Nsg176
(dp4197
g178
Ven
p4198
sg180
Vrecent
p4199
sssg182
g4197
sg183
Nsg184
Nsg30
g4187
sg185
Nsg186
Nsg100
g4195
sg187
I00
sg188
Nsg189
I0
sg190
Nsbatp4200
Rp4201
(dp4202
S'count'
p4203
I100
sS'completed_in'
p4204
F0.055
sS'_since_id'
p4205
NsS'refresh_url'
p4206
V?since_id=664422479071440896&q=%24VPCO&include_entities=1
p4207
sS'query'
p4208
V%24VPCO
p4209
sS'_max_id'
p4210
NsS'next_results'
p4211
Nsb.