(dp0
V$spdl is cheap mobile payment play too  at .18 $nete
p1
S'Neutral'
p2
sV$NETE triggered LONG, hit 1st predicted LONG move $0.41. On watch @ 08:00, alerted @ 09:32\u2026 | SH #TradeAlerts \u27a1 via https://t.co/LHfNLyERf1
p3
g2
sV$NETE hit 2nd predicted LONG move $0.43. On watch @ 08:00, alerted @ 09:32 &ampamp $0.36. | SH #TradeAlerts \u27a1 via https://t.co/LHfNLyERf1
p4
g2
sVHow I look for after-hours gainers besides E*Trade Strategy Scanner: https://t.co/N4bj48UMqA $NETE, $ATV, $GBSN, $AVXL, $GIGA
p5
g2
sVRT @WillOttenwalder: $NETE $DRWI strong penny stocks &amp $ADMP $PETX strong long run investments. This is where my money is at.
p6
S'Bullish'
p7
sV$NETE up 28.64% today! Check out this trade https://t.co/Lb2E72jL0g  I made 16% on $CLSN JOIN US LIVE: https://t.co/5pEVjDSajC
p8
g7
sV$NETE Target .63 cents #listen #forex #money #stocks #bonds #trading #GirlsOnStocks #Investing #forex #bonds #trading #markets
p9
g2
sV$NETE $.28 picked this morning in MOJO Day Trade Room has some super freak going now $.41 up 73% - watch this video
p10
g7
sVRT doowanhong Made $1183.20 total profit on $NETE with personal and business accounts combined. Not risking any po\u2026 https://t.co/sM9exUc6SF
p11
g7
sVToday's +4% pm gainers: $GIGA $SPEX $BLX $ABGB $SYN $ARNA $BLRX $NETE $MFRM $BPMI $AEZS #Nicetrades
p12
g2
sVRT @kroyrunner89: Top watches 12/1/15: $HART, $AVXL, $CLDN, $VLTC, $GBSN, $NETE
p13
g2
sV$NETE u will regret it we will see 0,45$ today
p14
g2
sVCommented on StockTwits: new $NETE video out - https://t.co/XnnOKuJePh https://t.co/5mepYB15nh
p15
g2
sVNETE Net Element International, Inc. Changehttps://t.co/sN0FYLwjtS$NETE $XLE $SUNE $GBIM #NETE #finance #nasdaq
p16
g2
sV$NETE pr https://t.co/WKDqU40BF4
p17
g2
sV$NETE nice !!https://t.co/5nfGtF157L
p18
g7
sV$NETE - lots of air on the chart - is the 200 DMA @ 0.55 the target? - 6 gap up opens in a row - lucky #7 tomorrow? https://t.co/sr1R1zeRSI
p19
g7
sV$nete breakout
p20
g7
sVOut of the gates eyeing $NETE $GIGA and $AEZS a few on secondary watch
p21
g2
sV$NETE way over bought on RSI, look for sharp pull back here$TWSI $STWS $NGEY https://t.co/M0322AfMwR
p22
g2
sVfitzkarz: NASDAQ DIP and RIP: $NETE up premarket NETE 0.2371 0.00 0.00 7,000 https://t.co/X6LPwHlDnk
p23
g7
sVRXMD Progressive Care, Inc. Filingshttps://t.co/EluHVs7VrZ$RXMD $XBI $NETE $LNKD #RXMD #tradeideas #nasdaq
p24
g2
sV$NETE https://t.co/6stWCNqtaP
p25
g2
sVKO SPDR KBW Regional Banking Index ETF Shareshttps://t.co/N1Hcw6WSAx$KO $INTC $NETE $TAN #KO #invest #investing
p26
g2
sV$NETE certainly looks like it wants that MA200 at $0.55.
p27
g7
sV$NETE would love to see a .37 break for a power hour run!
p28
g7
sV$nete ripping it up with 23mil trades and 56%
p29
g7
sVRT @nasdaqfan: GDX Market Vectors Junior Gold Miners Stock Forumhttps://t.co/GJQNVBtWKN$GDX $LNKD $NETE $PANW #GDX #stockmarket #invest
p30
g2
sVStw $AEZS $AMDA $CTIC $NETE $KBIO $ OCLS $GBSN
p31
g2
sV$NETE target .63 $ASTI .16 next huge runner!! #stockmarket #StockPicks #TEAMBILLIONAIRE #BMM #TeamFAM #TRADERS #Pennystocks @BIGMONEYMIKE6
p32
g2
sVAnd away goes $NETE nearing in on a 1000% move now off lows
p33
g2
sV$NETE Stock keeps going at this rate and they want even have to do a reverse stock split make the shorts pay up and cover over a 1$+
p34
g7
sVRT @BlockTradeAlert: BLOCK TRADE (Microcap): $NETE 281,027 shares @ $0.360 [15:18:56]
p35
g2
sVTop watches for Dec 1 2015: $HART, $AVXL, $VLTC, $CLDN, $NETE, $NCTY, $PEIX
p36
g2
sVNATI National Instruments Corp. Stock Message Boardhttps://t.co/8HLeElzGFB$NATI $NETE $AMBA $FHN #NATI #stockmarket #share
p37
g2
sV$NETE - up 33% premarket -
p38
g7
sVYUP NETE .46 /H  $NETE https://t.co/QDAd2zMD8K
p39
g2
sV$NETE hit 2nd predicted LONG move $0.43. On watch @ 08:00, alerted @ 09:32 &amp $0.36. https://t.co/Va8wI9fEur
p40
g2
sV@timothysykes  $NETE  $258 profit. Thank you Tim! Thank you chat room! I can't wait to study more this weekend!
p41
g2
sVBLOCK TRADE (Microcap): $NETE 145,000 shares @ $0.420 [15:53:10]
p42
g2
sV$NETE premarket action has this a stock that will be in play on the open https://t.co/5tzUf43dkl
p43
g2
sV@josephRusso44 I didn't make any trades today. Just riding what I have. $NETE  $STRP $CBLI $SPHS  $TRIL
p44
g2
sV(1/2)The plan for tomorrow: $NETE and $GBSN short-biased. Both are wayyyy to overextended $ATV probable morning spike - usually happens
p45
g2
sVSHORT alert results: $AEZS +10% $AVXL +7% $CLDN +3% $HART +2% $IMMY +3% $NETE +8% $RPRX +38% https://t.co/82tLMLKlkH
p46
g2
sV$NETE Reports record growth. Turn my pennies into grips!
p47
g2
sVRT @MarckyJ123: $NETE, showed up on my screen, up 48.5% today, the company has strong fundamentals and is making aggressive growth.
p48
g7
sVNete $Nete $Nete \U0001f483.50 coming #GUNIT
p49
g2
sV$NETE trades, looking for the short now https://t.co/9DqALle4od
p50
S'Bearish'
p51
sV#stocks I'm playing $RXMD $ADTM $TSTS $AVXL $BLPG $NETE #daytrader #trader #pennystocks
p52
g2
sV#WatchList is heavy$ARNA$SNTA$CLDN$BLOX$AVXL$NETE$EXEL $KBIOfind out more in the #ChatRoom come make money https://t.co/7GGo0wyyCS
p53
g2
sV$NETE tagret 100% plus this week #listen #forex #money #stocks #bonds #trading #GirlsOnStocks #Investing #forex #bonds #trading #markets
p54
g2
sVMain watches for tomorrow $VSTM long, $HART long/short, $CLDN long, $LXU long $NETE $MNGA both short
p55
g2
sV$nete might just break .40 well at least close by it
p56
g7
sVNETE Netflix, Inc. Current Pricehttps://t.co/4T184HwpzL$NETE $X $FDN $OWOO #NETE #share #stock
p57
g2
sV$ASTI last hour may be fun with this one, probably a gap play too Also watching $CNET $CJJD $VHC $GBSN $NETE $KBIO $AEZS
p58
g2
sVRT @Osirustwits: #WatchList is heavy$ARNA$SNTA$CLDN$BLOX$AVXL$NETE$EXEL $KBIOfind out more in the #ChatRoom come make money https:\u2026
p59
g2
sVSubscribers alerted to $JRJC +19% https://t.co/W3gditBjAt SEE TRACK RECORD https://t.co/JthrNbzdrc $NETE $CNIT $GBSN $CMLS $HECC $HART
p60
g2
sV$NETENet Element's TOT Money Announces Record Growth and New Corporate Name https://t.co/UMcyuTa305
p61
g2
sV$NETE  https://t.co/a1nJm7RtwL
p62
g2
sV$NETE a 100% plus this week #MakeMoney #BinaryOptions #MakeMoneyOnline #EarnMoney #Nasdaq #Markets #daytrading #Commodities #gold #silver
p63
g2
sV$NETE
p64
g2
sVHemcon Medical sells blood control bandages to NATO and US military, trades under symbol $TWSI$NETE $ASTI $GBSN https://t.co/yHW8ZtsPBH
p65
g2
sVRT @BlockTradeAlert: BLOCK TRADE (Microcap): $NETE 145,000 shares @ $0.420 [15:53:10]
p66
g2
sV$nete nice run :)
p67
g7
sVRT @freewatchlist: Today's Top Pick - $NETE - This may run like $GBSN did yesterday. https://t.co/1Gt4vUTcfp
p68
g7
sVNETE Net Element International, Inc. Market Caphttps://t.co/WP6wqyNeIN$NETE $FCX $WFM $GMCR #NETE #share #stock
p69
g2
sV$SFUN $NETE:Stocks With Sudden Spurt In Volumes: SouFun Holdings Ltd (NYSE \u2026:https://t.co/eeZJYo9S2j
p70
g2
sVBye $NETE
p71
g2
sVSHORT alert updates: $AEZS +6% $IMMY +3% $NETE +8% $RPRX +38% https://t.co/boAlZ8eOow
p72
g2
sVMissed $NETE execution by about 5 seconds
p73
g2
sVRT @timothysykes: AWESOME @kroyrunner89 LIVE TRADING WEBINAR happening now for https://t.co/bLyIjRvSnk students, get in there, great $GBSN \u2026
p74
g7
sV$NETE has been on a rocket ride to the moon, but I wouldn't chase after a massive melt-up.  Take profits if you're already long   $AAPL $SPY
p75
g7
sVout all $nete half yesterday @.25 the other half @.42 from ave.cost .16
p76
g2
sVLONG alert results: $AEZS +3% $CLDN +1% $CNIT +12% $GIGA +32% $IMMY +2% $NETE +13% | SH #TradeAlerts \u27a1 via https://t.co/LHfNLyERf1
p77
g2
sVSome (+) % Movers$GIGA +119%$SPEX $NETE +28$XOMA +24$BLOX +22$TERP $ARNA +17$AEZS +16$SPHS +9$KBIO +7$CONN $QURE $SGMO +6$SUNE +4
p78
g2
sVMarket is flat after hours. Tomorrow morning could be interesting as I am expecting a few earnings reports to come out. $NETE $GBSN $AVXL
p79
g7
sV$nete up 63% let's see that .40 n break it
p80
g7
sV$NETE:Investor\u2019s Tech Focused Stocks: Net ElemActivision Blizzaent \u2026:https://t.co/Ak71NF3DLH
p81
g2
sV$NETE buy today to get 50% tomorrow.
p82
g7
sV$NETE breaking .29 resistance pre-market. this is going to fly with the news out.
p83
g2
sVMade $1183.20 total profit on $NETE with personal and business accounts combined. Not risking any position overnight https://t.co/oXvV74QlcG
p84
g7
sV$NETE and $SPEX on watch
p85
g2
sVTim  made $7,186  on $CPOW -Check it out! https://t.co/kYHF2Xur3U Learn #howtotrade https://t.co/axK8SMSgo9 $TC $ATV $NETE $TERP $ASTI
p86
g2
sV$NETE $DRWI strong penny stocks &amp $ADMP $PETX strong long run investments. This is where my money is at.
p87
g7
sVRT @ClayTrader25: VIDEO - $NETE Stock Technical Analysis - 12-01-15 - watch here: https://t.co/wwHx5KWej3 #stock #stocks #stocktrading
p88
g2
sVRT @wizzwatch: $NETE continues to move higher with a new buy signal now trading @ $0.33 or +39.18%
p89
g7
sVTXN Texas Instruments, Inc. Ask Sizehttps://t.co/r8WoHV6pgs$TXN $GLD $TZA $NETE #TXN #nasdaq #finance
p90
g2
sVRT @StockHorizon: SHORT alert results: $AEZS +10% $AVXL +7% $CLDN +3% $HART +2% $IMMY +3% $NETE +8% $RPRX +38% https://t.co/82tLMLKlkH
p91
g2
sV$NETE pre vol
p92
g2
sV$NETE $INCY $TDW:Investor\u2019s Portfolio Of Most Active Stocks: Net Element, Inc \u2026:https://t.co/wwUBuV7LKK
p93
g2
sV$GIGA buying again here. Holding $NETE
p94
g7
sVHope everybody closed out on top yesterday. Watching $SPEX $FBEC $NETE $XOMA $GIGA $HEMP $CYCC #gains @ThePSObserver @ITipsDaily @bhaus1004
p95
g7
sVFCX Freeport-McMoRan, Inc. Exchangehttps://t.co/r9eM5ryouf$FCX $GM $NETE $DIS #FCX #invest #nasdaq
p96
g2
sVRT @WrigleyTom: $NETENet Element's TOT Money Announces Record Growth and New Corporate Name https://t.co/UMcyuTa305
p97
g2
sV$nete lets pump this pig
p98
g2
sV$NETE oh my goodness
p99
g2
sV$NETE weak bounce!
p100
g51
sV$NETE $GIGA $ATV $DHRM and $EURI on the radar for tomorrow
p101
g2
sVRT @timothysykes: https://t.co/HUdi5glxzD First https://t.co/fljCJMRjtQ trade of the day! Busy market open with $NETE $GBSN $GIGA $AVXL $AE\u2026
p102
g2
sV$HART $CLDN $AVXL $GBSN $NETE $ORMP tuesday watchlist
p103
g2
sVRT @StockHorizon: How Sonar top NASDAQ looked @ today's open:  $FREE $WGBS $CYCC $AEZS $EFUT $KBIO $SPEX $MCUR $NETE $RPRX https://t.co/ZsJ\u2026
p104
g7
sVpenny stocks are exhiliratingrode $NETE and $ASTI to the stratosphere todayThis makes me want to quit my day job and be a pro trader
p105
g2
sVVery content with today's trades and price movement. So much action all day long thanks to $SUNE $ATV $NETE in the slower hours.
p106
g7
sV$NETE, showed up on my screen, up 48.5% today, the company has strong fundamentals and is making aggressive growth.
p107
g7
sVInterview with Triforcetrader! https://t.co/mFJLH2pYxP  $SIMH $CDTI $MEA $FNMA $NETE $NLNK $APT $HI $SQQQ $BABA
p108
g2
sV: Gooooooood morning! Lots of hot plays like $ARNA $AEZS $NETE $AVXL  $GIGA $TERP $GBSN $HART \u2764\ufe0f\U0001f680
p109
g7
sV$NETE next is . 65. #stockmarket #StockPicks #TEAMBILLIONAIRE #BMM #TeamFAM #TRADERS #Pennystocks @BIGMONEYMIKE6
p110
g2
sV$NETE - 5 Gaps on the daily chart, but lots of big wicks on the candles - https://t.co/SoKNJMtPMh
p111
g2
sV$NETE to $1
p112
g2
sV$NETE $AGN:Remarkable Stocks Traders Alert: Element International Inc \u2026:https://t.co/jRsS1CK3dh
p113
g2
sV$NETE  + 57% hod
p114
g2
sVDIA SPDR DJ Industrial Average ETF Trust Company Infohttps://t.co/lpn87e4K5w$DIA $MXL $NETE $AEM #DIA #finance #nasdaq
p115
g2
sV4 Stocks to Watch Today that are Trading Under $500M Market Cap $giga $nete $xoma #wlst https://t.co/9qe30N7Aqf https://t.co/ZAxtwwKkOu
p116
g2
sVCongratulations to $GBSN and $NETE shareholders. More to come
p117
g2
sV$STWS water desalination stockPosted Q3 earnings, chart breakoutTarget $0.40+$NETE $ASTI $SUNE $GBSN https://t.co/JsPgeWRm4k
p118
g2
sVNETE Net Element International, Inc. Ex-Div Datehttps://t.co/BNTVHzqsYO$NETE $TXN $IEF $CLVS #NETE #finance #stockmarket
p119
g2
sV$NETE RECORD GROWTH!!Net+Element's+TOT+Money+Announces+Record+Growth+and+New+Corporate+Name https://t.co/w3q1COGCIm
p120
g2
sVGDXJ Market Vectors Junior Gold Miners Dividendhttps://t.co/FStktgLUFn$GDXJ $XOM $PAYC $NETE #GDXJ #finance #investing
p121
g2
sVTango_Alpha gave $NETE a MODERATE BUY rating &amp has a 60% success rate w/ a 8.45% return per tip on 5 tips. https://t.co/RjRuxDOzfe
p122
g7
sV@kroyrunner89 I'm long  $NETE tonight in @ $0.2119 hoping for a morning spike
p123
g7
sVRT @SleemStockPicks: $HART hitting 50%! Add it to the list of winners today. $CNIT $HART $GBSN $NETE $DRWI $SCON $RCAP and then some!
p124
g2
sVhttps://t.co/uAcamNRUPt alerted $IVOB +77% https://t.co/8E0ttuzc9u See Track Record #investing $NETE $CNIT $GBSN $CMLS $HECC $HART $ORMP
p125
g2
sV$NETE nice start off them .27s this morning so far
p126
g7
sVTop Market Movers Below $10: $GIGA, $NETE, $TERP, $XGTI, $XOMA, $ASTI, $TC, $FREE, $CENX, $DRWI, $APOL, $CNIT, $GBSN, $RADA, $VVUS .....
p127
g2
sV#watchlist: $NETE $WNDW $AEZS $BZUN $BRFH $EURI $MYXY $PACB $HART $MNGA $FOLD
p128
g2
sV12/1 MOJO Day Trading Room Stock Trading List $GIGA $SPEX $IMMY $GERN $CLBS $NETE $SPEX $ARNA $ABX $JNUG $FIT $AEZS $XOMA $TERP $IMMY
p129
g2
sVBig time plays today $LXRX $AEZS $GIGA $XOMA $NETE
p130
g2
sVRT @ProTrader_Mike: $NETE $.28 picked this morning in MOJO Day Trade Room has some super freak going now $.41 up 73% - watch this video
p131
g7
sVWATCHLIST$HART $AVXL $EFUT $AEZS $KBIO $ROSG $STRP $NETE $MHRC #CYCC $DSWL $MYXY $RPRX $WGBS $BLOX
p132
g2
sV$NETE 15 min. Chart - extremely bullish today - never tested middle BB support - rode EMA's 4 &amp 8 all day - Congrats https://t.co/uTRXvHr4j5
p133
g7
sV$EFUT lots of fake sellers!!  TOMORROW 24-30!!!$FB $MSFT $CLVS $GERN $GLBL $RLYP $VRX $YHOO $GBSN $NETE $GIGA $ATVV $DHRM $GBSN
p134
g2
sVRT @ckz8780: Main watches for tomorrow $VSTM long, $HART long/short, $CLDN long, $LXU long $NETE $MNGA both short
p135
g2
sVRT @augustafriends: 100% from here $NETE needs .35+ close and 25M shares traded #stockmarket #StockPicks #TEAMBILLIONAIRE #BMM #TeamFAM #TR\u2026
p136
g2
sVRT @LoveShaneal: $GBSN $NETE $ASTI OH MY!!
p137
g2
sV$EFUT lots of fake sellers!! $FB $MSFT $CLVS $GERN $GLBL $RLYP $VRX $YHOO $GBSN $NETE $GIGA $ATVV $DHRM $GBSN
p138
g2
sVhttps://t.co/R86fyaXHDZ ClayTrader: * * $NETE Video Chart 12-01-15 * *: ClayTrader https://t.co/9BRCAvUkxL
p139
g2
sV$NETE on fire .33 next wall .63 #stockmarket #StockPicks #TEAMBILLIONAIRE #BMM #TeamFAM #TRADERS #Pennystocks @BIGMONEYMIKE6 #money #stocks
p140
g2
sV$ASTI up 50%, on first day move.  over 20 cents looks very possible tomorrow $NETE $GBSN $ATV
p141
g7
sVMain watches for today $GIGA $NETE $HART $CLDN $AEZS $AVXL
p142
g2
sVwu tang $nete continuation + 42.0%
p143
g2
sV$AMDA $GBSN $KBIO $AEZS $IBIO $SPEX $FREE $XGIT $AXPW $CYCC Watch $NETE for big run!!! News out!!!
p144
g2
sVALMOST 30M VOLUME ON 37M FLOAT= https://t.co/MicAYuixID  $NETE https://t.co/IU043bclHe
p145
g2
sV$GIGA and $NETE both small losses due to late entry points. I decided to look for more promising trades and not these scalps which I'm not
p146
g2
sVWhich is your most profitable time for daytrade? #trading #profit $GIGA $ATV $NETE
p147
g7
sV$NETE $HART
p148
g2
sVOk let's try something new: $GIGA $SPEX $XOMA $NETE $VBIV $FBEC https://t.co/2bqSO3qR9M #biotech #GoodreadsChoice @InvestorsLive @TraderVet
p149
g2
sVRT @timothysykes: You gotta be a moron not to make $ in this market, $GIGA long &amp short, $GBSN $NETE $EURI $TERP $HART too many plays, good\u2026
p150
g7
sVRT @MyChartCoachcom: $NETE 15 min. Chart - extremely bullish today - never tested middle BB support - rode EMA's 4 &amp 8 all day - Congrats h\u2026
p151
g7
sV$NETE You have to be kidding, even this garbage is ripping today, R/S on tap too, I imagine chaser drive this up 500% think it's worth 1 B
p152
g7
sV$NETE from  .06
p153
g2
sV26M VOLUME ON 37M FLOAT  ----------------------------NETE  $NETE https://t.co/d7UIhq0X3N
p154
g2
sV$NETE 36c from 9c alert on Friday - 400%
p155
g2
sV$NETE triggered LONG, hit 1st predicted LONG move $0.41. On watch @ 08:00, alerted @ 09:32 &amp $0.36. https://t.co/Va8wI9xfT1
p156
g2
sVRT $NETE a 100% plus this week #MakeMoney #BinaryOptions #MakeMoneyOnline #EarnMoney #Nasdaq #Markets #daytrading \u2026 https://t.co/O5JSrckDDp
p157
g2
sV$nete maybe big squeeze into close 50 + looks heavily shorter
p158
g2
sV$NETE is on fire @ Bearkat Village https://t.co/SIlAR8I04y
p159
g2
sV#PaaS technology. $NETE  $ASTI $MYEC $SQ
p160
g2
sV$NETE on her way down to yesterday's low's? Thoughts?
p161
g51
sVXOMA XOMA Ltd. Askhttps://t.co/TwZ1Gr5D6H$XOMA $SONC $GE $NETE #XOMA #pennystocks #nasdaq
p162
g2
sV$NETE sold some 36s
p163
g51
sV$NETE breaks out WOW
p164
g2
sVFXE Currency Shares Euro Trust Last Pricehttps://t.co/yTRxI2EjaR$FXE $NETE $HQY $EEM #FXE #stock #tradeideas
p165
g2
sVBLOCK TRADE (Microcap): $NETE 399,500 shares @ $0.340 [13:54:41]
p166
g2
sVWill $NETE have another 100%+ gain today? After-hours is chipping away at it. 98% currently
p167
g7
sVRT @AlertTrade: BLOCK TRADE (Microcap): $NETE 145,000 shares @ $0.420 [15:53:10]
p168
g2
sV$PEIX running on #EPA ruling on #ethanol blending, short squeeze$SUNE $ASTI $NETE $USO #oil #gasoline https://t.co/uvX3nKwr2B
p169
g51
sVRT @SleemStockPicks: $NETE $0.2700 reentry working out well so far this morning. Playing the catalyst. https://t.co/Kn7ZPyWxSq
p170
g7
sV$NETE LET'S GO #fourtwentyalgo thru $.40 +++
p171
g2
sVhttps://t.co/uAcamNRUPt alerted $AVXL +74% https://t.co/ptG4263qkj See Track Record #investing $NETE $CNIT $GBSN $CMLS $HECC $HART $ORMP
p172
g2
sV$NETE should be done.
p173
g2
sVToday's Top Pick - $NETE - This may run like $GBSN did yesterday. https://t.co/1Gt4vUTcfp
p174
g7
sVIYT iShares DJ Transportation Average Index Fund Dividendhttps://t.co/jkrLIVG3Qi$IYT $XLE $UUP $NETE #IYT #investing #stock
p175
g2
sVout $NETE at 0.319 from 0.3105
p176
g2
sV$FREE $DRWI $NETE $MNGA $BSGN $LPTN $LPTH Hot Penny stocks on watch! Great upside is coming! -)
p177
g7
sVRT @MrSmallCap: Ok let's try something new: $GIGA $SPEX $XOMA $NETE $VBIV $FBEC https://t.co/2bqSO3qR9M #biotech #GoodreadsChoice @Investor\u2026
p178
g2
sVRT @OddStockTrader: $NETE trades, looking for the short now https://t.co/9DqALle4od
p179
g51
sV$EFUT getting ready for major move upward and gap up AH!! $FB $MSFT $CLVS $GERN $GLBL $RLYP $VRX $YHOO $GBSN $NETE $GIGA $ATVV $DHRM $GBSN
p180
g7
sV$giga $nete $xoma ijs keep on watch- 4 Stocks to Watch Today that are Trading Under $500M Market Cap https://t.co/dL1rzCekPH
p181
g2
sV$NETE https://t.co/rgeZHW5IVk
p182
g2
sV$NETE $GBSN $SPEX cheap stuff making huge moves!!
p183
g2
sVRT @Jim5011: NATI National Instruments Corp. Stock Message Boardhttps://t.co/8HLeElzGFB$NATI $NETE $AMBA $FHN #NATI #stockmarket #share
p184
g2
sVSHORT alert updates: $IMMY +3% $NETE +8% | SH #TradeAlerts \u27a1 via https://t.co/LHfNLyERf1
p185
g2
sVRT @kroyrunner89: https://t.co/Yt5MuDlAb0 Verified $2,776.40 profit in $NETE October/November trades
p186
g7
sVgotta respect the el-cheapos today, particularly the ones that haven't had the $GBSN $NETE runs yet: $PRGN $CRDC $DRWI $WAVX $ASTI
p187
g2
sV$NETE $0.2700 reentry working out well so far this morning. Playing the catalyst. https://t.co/Kn7ZPyWxSq
p188
g7
sV$NETE @ $.420 // #SUUUUUUU
p189
g2
sV$NETE still going after hours, now 0.45
p190
g2
sV$NETE continues to move higher with a new buy signal now trading @ $0.33 or +39.18%
p191
g7
sVRT @leahanneta: NETE Net Element International, Inc. Changehttps://t.co/SjuM60iy4G$NETE $TSLA $QID $LGIH #NETE #pennystocks #investing
p192
g2
sVhttps://t.co/uAcamNRUPt alerted $MCUR +181% https://t.co/e2zXG3II89 See Track Record #investing $NETE $CNIT $GBSN $CMLS $HECC $HART $ORMP
p193
g2
sV$NETE:What\u2019s Taking Net Element International Inc (NASDAQ:NETE) Up?:https://t.co/AbzEA17McE
p194
g2
sV$NETE buying here again
p195
g7
sV$NETE wants in on $GBSN actionNet Element's TOT Money Announces Record Growth and New Corporate Name
p196
g2
sV$NETE important news
p197
g2
sV$nete $spdl Spindle Inc. to Present at the LD Micro Main Event on December 2, 2015
p198
g2
sV$NETE Ripping to the upside shorts better cover
p199
g7
sV@speculatore   $NETE and  $WAVX  same  sector  https://t.co/F1pVkzkB4N        https://t.co/6hjhUUEvT2
p200
g2
sVRT @OddStockTrader: $NETE nice start off them .27s this morning so far
p201
g7
sVRT @ProTrader_Mike: $GIGA $GBSN $NETE $ABX $PAAS $EBAY MONEY MAKERS | Watch this https://t.co/mrcZxDvkH5 \u2026 https://t.co/0NC0eHAWZB
p202
g2
sVBAM baby! This is how to lock in PURE profit! 2:33 pm bernard: Solid day $biei +277 $asti +213 $nete +631 my 1st $1000 day thank you all!
p203
g2
sVSHORT alert updates: $AEZS +8% $AVXL +4% $CLDN +3% $IMMY +3% $NETE +8% $RPRX +38% | SH #TradeAlerts \u27a1 via https://t.co/LHfNLyERf1
p204
g2
sVadding some $NETE ,34
p205
g2
sVgood morning #daytraders $AHIX $GAWK $TSTS $WGBS $AVXL $NETE  are on my #pennystocks watchlist. #Tuesday #daytrading #stockmarket
p206
g7
sVBLOCK TRADE (Microcap): $NETE 124,050 shares @ $0.375 [15:19:51]
p207
g2
sVSBUX Starbucks Corp. Ask Sizehttps://t.co/PhHZpW7PQ5$SBUX $TVIX $RGLD $NETE #SBUX #share #stocks
p208
g2
sVRT @d4ytrad3: $NETE $GBSN $SPEX rise of the pennies again
p209
g7
sVLONG alert results: $AEZS +3% $CLDN +1% $CNIT +12% $GIGA +32% $IMMY +2% $NETE +13% https://t.co/82tLMLsJW7
p210
g2
sVhttps://t.co/uAcamNRUPt alerted $AQXP +1819% MUST SEE Track Record https://t.co/zHAvlEkA1M $NETE $CNIT $GBSN $CMLS $HECC
p211
g2
sVHow many are $NETE long this?
p212
g7
sVLudlow Research alerts $SUNE as possible major short squeeze on #solar sevtor rally$ASTI $NETE $ARZS $SPY https://t.co/V0ZkrrMFwN
p213
g51
sVlx21 made $20,407  on $PNX -Check it out! https://t.co/stx5xGEYZp Learn #howtotrade https://t.co/axK8SMSgo9 $NETE $TOR $QKLS $ASTI $ERB
p214
g2
sVRT @adamwnsx: $ASTI getting some good volume this morning, may run.  low price names have been strong lately $GBSN $NETE
p215
g7
sVRT @d4ytrad3: $NETE wants in on $GBSN actionNet Element's TOT Money Announces Record Growth and New Corporate Name
p216
g2
sVTim  made $34,152  on $MEDL -Check it out! https://t.co/MDbgzLNhBj Learn #howtotrade https://t.co/axK8SMSgo9 $ERB $BLOX $TERP $XGTI $NETE
p217
g2
sV$NETE booooooooooooom ,40s
p218
g2
sV$NETE large pullbacks probably indicating the end of its run. Volume fading as lower-highs being set as well. Was up on hype anyways.
p219
g7
sVLots of monster block trades in excess of 100,000 shares in $NETE and $ASTI today.
p220
g2
sVhttps://t.co/HUdi5glxzD First https://t.co/fljCJMRjtQ trade of the day! Busy market open with $NETE $GBSN $GIGA $AVXL $AEZS $ARNA
p221
g2
sV$XOMA Announces License Agreement With Novo Nordisk for XMetA Program in Diabetes - Yahoo Finance https://t.co/iYad6M2Iiz  $IGC $RXII $NETE
p222
g2
sV$NETE now up 600%%%%%%%%%%%%%%%   $wavx  NEXT  ROLLER
p223
g7
sV$ASTI ripping on volume ala $NETE and $GBSN.  Apparently this is the next one.
p224
g2
sV@kroyrunner89 $NETE you looking to short or buy?
p225
g51
sV$NETE beautiful after-hours movement. Should be interesting, especially with this man on my side https://t.co/CK2bXSYBY2
p226
g2
sVNice + 15 % on the open $NETE
p227
g2
sVOut $NETE from .17
p228
g2
sVIEF iShares Barclays 7-10 Year Treasury Bond Fund Prev Closehttps://t.co/EiczrDMEPy$IEF $LLY $NETE $SSO #IEF #investing #invest
p229
g2
sVhttps://t.co/uAcamNRUPt alerted $BAS +36% https://t.co/BBRJoPVJNf See Track Record #investing $NETE $CNIT $GBSN $CMLS $HECC $HART $ORMP
p230
g2
sV$NETE making it interesting for me
p231
g2
sVXLY Consumer Discretionary Select Sector SPDR Openhttps://t.co/Mgxa3CEm77$XLY $PCLN $TJX $NETE #XLY #invest #finance
p232
g2
sVNew intraday upward move on Net Element, In.. $NETE - up 13.87% in 12 minutes - https://t.co/x3uMRpmyi9 https://t.co/9yYNYYBHih
p233
g7
sV$NETE flying
p234
g2
sVHow Sonar top NASDAQ looked @ today's open:  $FREE $GIGA $SPEX $NETE $HART $WGBS $GBSN $AEZS $IMMY $CYCC https://t.co/ZsJ8IywzRp
p235
g7
sV$NETE  https://t.co/vdwSLRffSk
p236
g2
sVVIDEO - $NETE Stock Technical Analysis - 12-01-15 - watch here: https://t.co/wwHx5KWej3 #stock #stocks #stocktrading
p237
g2
sVhttps://t.co/L46QQZciCc IN PLAY: $RGSE $COUP $NETE $RTK $EROC $MM $OMNT $LF $RIGP $MXSG $EKSO $IG $SALE
p238
g2
sVRT @timothysykes: Gooooooood morning! Lots of hot plays like $ARNA $AEZS $NETE $AVXL $HART $GIGA $TERP $GBSN but I'm spending the day with \u2026
p239
g7
sVConfirmed $1183.20 profit on $NETE &amp holding a small position 4000 shares of $ASTI overnight \U0001f910
p240
g7
sV$NETE $FB $VZ:Technology Stocks Under Consideration: Net Element International \u2026:https://t.co/wPHau6pLrc
p241
g2
sV@kroyrunner89 What resistance is $NETE approaching dont see any on the thinkorswim chart?
p242
g2
sV3 Hours Left For $1 Deal - Do NOT Miss This $GBSN $AVXL $HART $NETE $AEZS $RPRK $KBIO https://t.co/8bsw1iPbJq
p243
g2
sVYears ago I rode $INO from .56-$2, then $ONCS from .26-.97. As they rose, the basher trolls came out. Just like they are now for $NETE. )
p244
g7
sV$EFUT On fire today 13.38! Short squeeze!!!! $FB $MSFT $CLVS $GERN $GLBL $RLYP $VRX $YHOO $GBSN $NETE $GIGA
p245
g2
sVRT @DividendStoxApp: #pennystocks up strongly today: $GBSN +73.2%, $NETE +54.0%, $SPEX +52.8%, $CMLS +49.7%, $DRWI +46.1%,  #pennystock  ht\u2026
p246
g7
sVhttps://t.co/kltyKJ2RKb Stocks in Play: $PSEC $GSAT $ANRZQ $MDR $SGYP $BAS $NETE $TSL $EPE $ALU $SVU $XGTI $ARIA
p247
g2
sVToday's Top Pick $NETE went from $0.28 to $0.47. 70% increase! Another great call. Tune in for tomorrows pick. https://t.co/Gf8X2Q9czt
p248
g7
sVOn a positive note did a nice hit and run on $NETE this am .
p249
g7
sVI am bullish on $NETE with a target price of $0.35 in 1 mo. on Vetr! https://t.co/1vkQwXDYPk
p250
g7
sV$NETE nearing HOD
p251
g2
sV$NETE Net Element's TOT Money Announces Record Growth and New Corporate Name https://t.co/u8DU72YtCg
p252
g2
sV100% from here $NETE needs .35+ close and 25M shares traded #stockmarket #StockPicks #TEAMBILLIONAIRE #BMM #TeamFAM #TRADERS #Pennystocks
p253
g2
sV$nete doing something here
p254
g2
sV$spdl and $nete same space...currently at .21 https://t.co/c42QPIer2P
p255
g2
sV$NETE looking to close strong!!
p256
g2
sVRT @WrigleyTom: Some (+) % Movers$GIGA +119%$SPEX $NETE +28$XOMA +24$BLOX +22$TERP $ARNA +17$AEZS +16$SPHS +9$KBIO +7$CONN $QURE $\u2026
p257
g2
sVTons of plays today! #BLOX $TERP $QURE $LXRX $ARNA $NETE $AEZS $WGBS $HART $AVXL $GIGA $SPEX For starters.
p258
g2
sVBLOCK TRADE (Microcap): $NETE 170,000 shares @ $0.400 [15:42:44]
p259
g2
sV@markbuti Hope I don't make that mistake again. I now have 850,000 $NETE shares, avg buy @ .3274. Remind me to sell when I'm a millionaire!
p260
g2
sVOne of Our Past UNBIASED Small/Micro-Cap Stock Reports:https://t.co/15r77ByzTB$GBSN $SUNE $GIGA $NETE $ASTI &gt ! https://t.co/gz00kAmeC7
p261
g2
sV$nete hod and I'm up \U0001f609
p262
g7
sV$NETE rolling on the news, next chart resistance is $.55 which is the 200 MA line
p263
g2
sV$NETE high of day break and its on!
p264
g7
sVVRX Valeant Pharmaceuticals Intl, Inc. Newshttps://t.co/H0KHqYschY$VRX $GOOGL $SPXU $NETE #VRX #stock #stock
p265
g2
sVRT @MyChartCoachcom: $NETE - lots of air on the chart - is the 200 DMA @ 0.55 the target? - 6 gap up opens in a row - lucky #7 tomorrow? ht\u2026
p266
g7
sVRT @ProTrader_Mike: $GIGA $GBSN $NETE $ABX $PAAS $EBAY - HEINZ perfection today | https://t.co/mrcZxDvkH5 https://t.co/rsIp8thrlM
p267
g2
sV$NETE announces record growth &amp corporate name change. Bulls respond by launching this thing over 25% out of the gate. Current support @ .3
p268
g7
sV@kroyrunner89 $nete got more to go before that. 110% profit
p269
g7
sV$NETE 35c .. 24c.  Great overnight gapper!
p270
g2
sVRT @neteinc: Net Element's TOT Money Announces Record Growth and New Corporate Name https://t.co/CqIwt3oWFD $NETE #fintech #payments
p271
g2
sVEWJ Japan iShares Investor Opinionshttps://t.co/mLywjE3kRs$EWJ $NETE $IMGN $RAI #EWJ #investing #stocks
p272
g2
sV$NETE looking great. Holding overnight hoping for another morning spike!!!
p273
g2
sVRT @leopoldtrader73: $NETE pr https://t.co/WKDqU40BF4
p274
g2
sVMNGA MagneGas Corp. Market Caphttps://t.co/p3LlaL0slJ$MNGA $DG $NETE $DBC #MNGA #stockmarket #finance
p275
g2
sVWatching $nete today may be able to grab some quick profits with momo
p276
g2
sV@NerdElert @zerosum24 @speculatore  $RGSE .40- .55    $NETE .08-.36     https://t.co/6hjhUUEvT2
p277
g2
sVRT @InvestorsLive: And away goes $NETE nearing in on a 1000% move now off lows
p278
g2
sV$NETE buying more on the the dip\U0001f37b
p279
g7
sV$NETE do it like last time, put out another mid day filing
p280
g2
sVAugustaFriends: $NETE possible 1000% play!! from $LOW!!! never give: AugustaFriends https://t.co/wZtDgR8nmV
p281
g2
sVTop Stock Gainers Tuesday $GIGA $DHRM $TERP $NETE $ERB $BLOX $ATV $HFFC $TC $XGTI $ASTI $MDVX $XOMA $MFRM $FHCO https://t.co/SPiCZufqqI
p282
g2
sV$NETE EXTREME Watch .35 #MakeMoney #BinaryOptions #MakeMoneyOnline #EarnMoney #Nasdaq #Markets #daytrading #Commodities #gold #silver
p283
g2
sV$NETE 31c resistance. Break it to 50c today
p284
g2
sV$NETE $.28 picked this morning in MOJO Day Trade Room has some super freak going now $.41 up 73% - watch this video https://t.co/mrcZxDvkH5
p285
g7
sV$NETE Charts - Technical Analysis Video - https://t.co/yJ8UzD9Gca
p286
g2
sVRT @nicetrades: Out of the gates eyeing $NETE $GIGA and $AEZS a few on secondary watch
p287
g2
sVcovered $NETE
p288
g2
sVAEZS AEterna Zentaris Inc. Current Pricehttps://t.co/zQJcb9Yh5Q$AEZS $XIV $LABD $NETE #AEZS #stock #finance
p289
g2
sV$NETE boom pm ,31
p290
g2
sV$NETE struggling to break .41.
p291
g2
sV@OddStockTrader $NETE at .33 next is .63 next 2 days #BMM #stocks
p292
g2
sVRT @IHPosts2: XBI SPDR S&ampP Biotech Index ETF Volumehttps://t.co/GNlnJeiDK8$XBI $NETE $VHC $UVXY #XBI #pennystocks #tradeideas
p293
g2
sV$spdl also mobile payment play sell at .21.....they present to tomorrow. $nete
p294
g51
sV@sheltonwillia1 you missed $NETE
p295
g2
sV$NETE nope.
p296
g2
sV$EFUT short covering will sky rocket this stock today!! $FB $MSFT $CLVS $GERN $GLBL $RLYP $VRX $YHOO $GBSN $NETE $GIGA $ATVV $DHRM $GBSN
p297
g51
sV#Stocks to Wtch $NETE $ORMP $DRWI $AVXL $WGBS $SPDC $GILT $IGC $KANG $SPEX  $HART $CNIT $CMLS $GURE $SYRX $CANF $SNSS $HCLP $IDRA $XCO $GERN
p298
g2
sV$GIGA $GBSN $NETE $ABX $PAAS $EBAY - HEINZ perfection today | https://t.co/mrcZxDvkH5 https://t.co/rsIp8thrlM
p299
g2
sVSPXU ProShares UltraPro Short S&ampP 500 Bidhttps://t.co/jN4btBvlPR$SPXU $NETE $BIP/UN.TO $LABU #SPXU #investing #share
p300
g2
sV$NETE up 74.06% today! Check out this trade https://t.co/cIrfa6YXYT  I made 21% on $STEM JOIN US LIVE: https://t.co/5pEVjDSajC
p301
g7
sV$GIGA $GBSN $NETE $ABX $PAAS $EBAY MONEY MAKERS | Watch this https://t.co/mrcZxDvkH5 \u2026 https://t.co/0NC0eHAWZB
p302
g2
sVback in $NETE 0.315
p303
g2
sV$EFUT On fire today 13.38! $FB $MSFT $CLVS $GERN $GLBL $RLYP $VRX $YHOO $GBSN $NETE $GIGA
p304
g2
sVRT @BlockTradeAlert: BLOCK TRADE (Microcap): $NETE 170,000 shares @ $0.400 [15:42:44]
p305
g2
sV$NETE breakou to .63 coming next 2 days at .33 now  #money @daytradingpwr @bman_alerts @Stockaholics @stock_forums  https://t.co/rDTI0qB0CD
p306
g2
sV12/1/15 $MU $RLYP $NLNK $EXXI $NETE
p307
g2
sVBLOCK TRADE (Microcap): $NETE 100,000 shares @ $0.410 [15:30:46]
p308
g2
sVgot partial fill long on $NETE at 0.3105
p309
g7
sVClayTrader: * * $NETE Video Chart 12-01-15 * *: ClayTrader https://t.co/ICz6MxJvG1
p310
g2
sVhttps://t.co/YW8rAD7CJs  $NETE https://t.co/yeIgDTyonZ
p311
g2
sVGooooooood morning! Lots of hot plays like $ARNA $AEZS $NETE $AVXL $HART $GIGA $TERP $GBSN but I'm spending the day with my dad on his bday!
p312
g7
sVhttps://t.co/uAcamNRUPt alerted $PTCT +48% https://t.co/XqXCFKLNV6 See Track Record #investing $NETE $CNIT $GBSN $CMLS $HECC $HART $ORMP
p313
g2
sVYou gotta be a moron not to make $ in this market, $GIGA long &amp short, $GBSN $NETE $EURI $TERP $HART too many plays, good problem to have!
p314
g7
sVTim  made $9,317  on $TLGD -Check it out! https://t.co/DDQqLwjPU2 Learn #howtotrade https://t.co/axK8SMSgo9 $NETE $CNIT $CMLS $PRGN $HART
p315
g2
sVNet Element's TOT Money Announces Record Growth and New Corporate Name https://t.co/7cLltwK1bS   $NETE
p316
g2
sVSHORT alert updates: $AEZS +8% $AVXL +4% $CLDN +3% $IMMY +3% $NETE +8% $RPRX +38% https://t.co/boAlZ8wpN6
p317
g2
sVNETE Net Element International, Inc. Changehttps://t.co/SjuM60iy4G$NETE $TSLA $QID $LGIH #NETE #pennystocks #investing
p318
g2
sVTop watches 12/2/15: $NETE, $ATV, $GIGA, $DHRM, $HART
p319
g2
sV$NETE nice
p320
g7
sV$NETE working
p321
g2
sV$NETE we call that top-tick selling https://t.co/jODNtHeZMw
p322
g2
sVNew intraday upward move on Net Element, In.. $NETE - up 5.55% in 5 minutes - https://t.co/EMmpSoCQj0 https://t.co/GF8pGbRLDM
p323
g7
sVRT @kroyrunner89: Top watches 12/2/15: $NETE, $ATV, $GIGA, $DHRM, $HART
p324
g2
sV$NETE crazy too looks like nhods coming
p325
g7
sVAG First Majestic Silver Corp. % Changehttps://t.co/0VJ9SYKjKm$AG $AVXL $NETE $NKE #AG #pennystocks #share
p326
g2
sVBLOCK TRADE (Microcap): $NETE 281,027 shares @ $0.360 [15:18:56]
p327
g2
sV$XOMA $GBSN $NETE watchlist for today
p328
g2
sVThats it 50,000 shares $ASTI $0.156 avg and 3000 $OCLS $1.24 kinda chased the ask $ATV $GIGA $NETE very risky into tomorrow for gap
p329
g2
sV$NETE has run 500% from  call   $WAVX   get in  now
p330
g7
sVSLV iShares Silver Trust Day Lowhttps://t.co/sQTSMuff5j$SLV $SBUX $NETE $BIDU #SLV #pennystocks #tradeideas
p331
g2
sV$NETE going pre market, shall see if it holds
p332
g2
sV$XGTI vol coming in same share structure as $NETE could pop nice on macd cross here
p333
g7
sVNETE Net Element International, Inc. Exchangehttps://t.co/R0Lxgd9f7h$NETE $PLKD $ATVI $MXWL #NETE #share #finance
p334
g2
sV$NETE up ,27 pm
p335
g7
sV$NETE could be some higher lows here
p336
g7
sV$nete thru $.420 // get lifted
p337
g2
sV$ASTI getting some good volume this morning, may run.  low price names have been strong lately $GBSN $NETE
p338
g7
sVHighly consistent and profitable stock picks at https://t.co/fwYHfOWcRy.  Free!!Related: $VIAV $XCLL $HYSR $SALT $TC $GTATQ $NETE
p339
g7
sVNETE Net Element International, Inc. % Changehttps://t.co/MIXMc5MPg6$NETE $UWTI $SMH $MFC.TO #NETE #tradeideas #finance
p340
g2
sV$ASTI getting ready for the power hour :)$NETE $GBSN and $RGSE starting to move
p341
g2
sV$NETE $TC $QKLS $ASTI $CALI $ABGB $EDUC $XGTI $CHNR $CJJD $CHNR $SGMO $VRX $XOMA $HGSH $SCTY $SUNE $NUGT $CENX $TRIV $TANH $WPCS - Green Day
p342
g2
sVNETE Net Element International, Inc. Market Caphttps://t.co/Hez438OOSc$NETE $TLT $LC $UNG #NETE #finance #finance
p343
g2
sV$NETE ,35 1/3 out weeeeee
p344
g2
sVSPHB PowerShares S&ampP 500 High Beta Portfolio Quoteshttps://t.co/IXoggMCSH8$SPHB $XOM $FRC.TO $NETE #SPHB #share #share
p345
g2
sV$EFUT Tomorrow, busy day for "gofundme" $FB $MSFT $CLVS $GERN $GLBL $RLYP $VRX $YHOO $GBSN $NETE $GIGA $ATVV $DHRM $GBSN
p346
g2
sVcurrently long $KBIO $AEZS $GIGA $NETE $GLBL
p347
g7
sV$NETE 80-90% coming next 2 days https://t.co/ZhfNahKZ3V
p348
g2
sV$EFUT short squeeze on AH gap ups!! $FB $MSFT $CLVS $GERN $GLBL $RLYP $VRX $YHOO $GBSN $NETE $GIGA $ATV $DHRM $GBSN
p349
g51
sV@jasjsingh88 i usually don't, $NETE was already up a lot when i bought it, i just bought because it was a breakout setup past .20
p350
g7
sV$DWTI main (stupid trade) Loser and $NETE short.. Main Gainers $NETE Long $DHRM long and $GIGA long and Short
p351
g7
sVNet Element's TOT Money Announces Record Growth and New Corporate Name https://t.co/CqIwt3oWFD $NETE #fintech #payments
p352
g2
sVSCLN SciClone Pharmaceuticals, Inc. 52Wk Highhttps://t.co/M8ntZaOQA5$SCLN $NETE $JNUG $GG #SCLN #investing #investing
p353
g2
sVXBI SPDR S&ampP Biotech Index ETF Volumehttps://t.co/GNlnJeiDK8$XBI $NETE $VHC $UVXY #XBI #pennystocks #tradeideas
p354
g2
sV$NETE .40
p355
g2
sVI guess when one crappy penny stock flies, other garbage rise to the top also $NETE $ASTI $GBSN
p356
g7
sVChat on FIRE! $ATV $KITE $NETE $GIGA #Trading #Profits. Did U Miss out? We can help! https://t.co/jhPwQpDGzo #Money https://t.co/v7s0B0WdLo
p357
g2
sV12/1 MOJO Day Trading Room Stock Trading List $GIGA $SPEX $IMMY $GERN $CLBS $NETE $SPEX $ARNA $ABX $JNUG https://t.co/UISCpAO8NQ
p358
g2
sVWow Stock market is on Fire Today Over 9 Stocks today had 40%+ Gains or more $ATV $GIGA $DHRM $NETE $CLNT $TC $KONE $QKLS
p359
g2
sVlx21 made $22,852  on $GWAY -Check it out! https://t.co/OK73aOtWLH Learn #howtotrade https://t.co/axK8SMSgo9 $NETE $QKLS $ASTI $TERP $ERB
p360
g2
sVss $NETE feeler trade
p361
g2
sV$NETE .41 micro stair steps up
p362
g7
sV$GBSN $NETE $ASTI OH MY!!
p363
g2
sVSHORT alert results: $AEZS +10% $AVXL +7% $CLDN +3% $HART +2% $IMMY +3% $NETE +8% $RPRX +38% | SH #TradeAlerts \u27a1 via https://t.co/LHfNLyERf1
p364
g2
sVRT @IHNewsDesk: NETE Net Element International, Inc. Exchangehttps://t.co/R0Lxgd9f7h$NETE $PLKD $ATVI $MXWL #NETE #share #finance
p365
g2
sVhttps://t.co/APzP66vnr4 IN PLAY: $RGSE $COUP $NETE $RTK $EROC $MM $OMNT $LF $RIGP $MXSG $EKSO $IG $SALE
p366
g2
sV$NETE won't last long. Shouldn't beak past first resistence level of .45/share. It was a nice run but is way too over-extended at this point
p367
g7
sVRT @StockHorizon: LONG alert results: $AEZS +3% $CLDN +1% $CNIT +12% $GIGA +32% $IMMY +2% $NETE +13% https://t.co/82tLMLsJW7
p368
g2
sVRT @StocksThatDoubl: Check out https://t.co/PmCQJagwNu  Track Record filled with big winners. $NETE $GIGA $RPRX $KBIO Subscribe! https://t.\u2026
p369
g2
sV@go2sleepjj $NETE .got in today at $0.33, wish I got in yesterday.
p370
g2
sVhttps://t.co/Yt5MuDlAb0 Verified $2,776.40 profit in $NETE October/November trades
p371
g7
sVMeanwhile $NETE HODs
p372
g2
sVCrushing it on $CBAY, $NETE &amp $TERP today!!! Cha-ching #breakoutstocks #profitsfordays #charts #study
p373
g2
sVCheck out https://t.co/PmCQJagwNu  Track Record filled with big winners. $NETE $GIGA $RPRX $KBIO Subscribe! https://t.co/GTBX9iaGPR
p374
g2
sV$FREE $GBSN $KBIO $NETE Nice Watchlist for today!
p375
g2
sVSHORT alert updates: $IMMY +3% $NETE +8% https://t.co/boAlZ8eOow
p376
g2
sV$nete is just getting started #UpTrend #TooCheap
p377
g2
sV#Tuesday watch-list $FBEC $RXMD $NETE $TSTS $AVXL $BLPG #pennystocks #winners @MrSmallCap @StocksEinstein @SuperstarTrader
p378
g2
sV@kroyrunner89 good job! $NETE is a great play
p379
g7
sV$nete keeps going high after market. Think it has another day running. $asti I'm in let's see what happens tomorrow
p380
g7
sVHOD PRINTED RIGHT B4 THE BELLNETE  $NETE https://t.co/4IaYsuK9gP
p381
g2
sVRT @ProTrader_Mike: 12/1 MOJO Day Trading Room Stock Trading List $GIGA $SPEX $IMMY $GERN $CLBS $NETE $SPEX $ARNA $ABX $JNUG https://t.co/U\u2026
p382
g2
sV$GBSN $HPE $NETE:Biggest Percentage Gainers: Great Basin Scientific Inc (NASDAQ \u2026:https://t.co/oqmfa4Wk94
p383
g2
sV$NETE now up 10c to 40c .. 4x in a few days... have added a bit more $INVT long at 15c today
p384
g7
sV$NETE up 300% from today in 1 week
p385
g7
sV$NETE .23 "100% plus" target .55 to .63  #stockmarket #StockPicks #TEAMBILLIONAIRE #BMM #TeamFAM #TRADERS #Pennystocks @BIGMONEYMIKE6
p386
g2
sV$NETE $GBSN $SPEX rise of the pennies again
p387
g7
sVHow Sonar top NASDAQ looked @ today's open: $FREE $GIGA $SPEX $NETE $HART $WGBS $GBSN $AEZS\u2026 | SH #TradeAlerts \u27a1 via https://t.co/LHfNLyERf1
p388
g7
sVSHORT alert updates: $AEZS +6% $IMMY +3% $NETE +8% $RPRX +38% | SH #TradeAlerts \u27a1 via https://t.co/LHfNLyERf1
p389
g2
sVGreat buy &amp short alerts on $GIGA today!We were making money both ways, ALL winners again!$ATV $VNCE $DHRM $NETE https://t.co/hkYWVUYm1f
p390
g2
sV$NETE up 41.67% today! Check out this trade https://t.co/E6jeWO7xwL  I made 12.50% on $DSCO JOIN US LIVE: https://t.co/5pEVjDSajC
p391
g7
s.